//////////////////////////////////////////////////////////////////////////////
//                                                                           /
// IAR ARM ANSI C/C++ Compiler V4.42A/W32 EVALUATION   10/Jun/2013  23:04:02 /
// Copyright 1999-2005 IAR Systems. All rights reserved.                     /
//                                                                           /
//    Cpu mode        =  interwork                                           /
//    Endian          =  little                                              /
//    Stack alignment =  4                                                   /
//    Source file     =  Z:\home\perk11\www\perk11.info\svn\SE\Indication    /
//                       Of Call\Indication of Call.c                        /
//    Command line    =  "Z:\home\perk11\www\perk11.info\svn\SE\Indication   /
//                       Of Call\Indication of Call.c" -D NDEBUG -lC         /
//                       "Z:\home\perk11\www\perk11.info\svn\SE\Indication   /
//                       Of Call\Release\List\" -lA                          /
//                       "Z:\home\perk11\www\perk11.info\svn\SE\Indication   /
//                       Of Call\Release\List\" -o                           /
//                       "Z:\home\perk11\www\perk11.info\svn\SE\Indication   /
//                       Of Call\Release\Obj\" -s9 --cpu_mode arm --endian   /
//                       little --cpu ARM926EJ-S --stack_align 4             /
//                       --interwork -e --enable_multibytes --fpu None       /
//                       --eec++ --dlib_config Z:\home\perk11\IAR2\arm\LIB\d /
//                       l5tpainl8n.h -I Z:\home\perk11\IAR2\arm\INC\        /
//                       --inline_threshold=2                                /
//    List file       =  Z:\home\perk11\www\perk11.info\svn\SE\Indication    /
//                       Of Call\Release\List\Indication of Call.s79         /
//                                                                           /
//                                                                           /
//////////////////////////////////////////////////////////////////////////////

        NAME `Indication of Call`

        RTMODEL "StackAlign4", "USED"
        RTMODEL "__cpu_mode", "__pcs__interwork"
        RTMODEL "__data_model", "absolute"
        RTMODEL "__endian", "little"
        RTMODEL "__rt_version", "6"

        RSEG CSTACK:DATA:NOROOT(2)

        ERROR
//NOTE: This module defines or uses C++ features that are not
//      accessible from assembler code. Assembling this file will
//      not produce an equivalent object file to the one produced
//      by the C++ compiler.

        PUBWEAK `?*?DATA_ID`
        PUBLIC ??Connect
        FUNCTION ??Connect,0603H
        LOCFRAME CSTACK, 12, STACK
        MULTWEAK ??Connect??rT
??DataTable0 EQU 0
??DataTable12 EQU 0
??DataTable13 EQU 0
??DataTable14 EQU 0
??DataTable15 EQU 0
??DataTable16 EQU 0
??DataTable17 EQU 0
??DataTable19 EQU 0
??DataTable2 EQU 0
??DataTable20 EQU 0
??DataTable21 EQU 0
??DataTable22 EQU 0
??DataTable23 EQU 0
??DataTable24 EQU 0
??DataTable25 EQU 0
??DataTable26 EQU 0
??DataTable27 EQU 0
??DataTable3 EQU 0
??DataTable31 EQU 0
??DataTable32 EQU 0
??DataTable33 EQU 0
??DataTable34 EQU 0
??DataTable35 EQU 0
??DataTable36 EQU 0
??DataTable37 EQU 0
??DataTable38 EQU 0
??DataTable4 EQU 0
??DataTable40 EQU 0
??DataTable41 EQU 0
??DataTable42 EQU 0
??DataTable43 EQU 0
??DataTable44 EQU 0
??DataTable45 EQU 0
??DataTable46 EQU 0
??DataTable47 EQU 0
??DataTable48 EQU 0
??DataTable49 EQU 0
??DataTable5 EQU 0
??DataTable50 EQU 0
??DataTable6 EQU 0
??DataTable62 EQU 0
??DataTable63 EQU 0
??DataTable64 EQU 0
??DataTable65 EQU 0
??DataTable67 EQU 0
??DataTable68 EQU 0
??DataTable7 EQU 0
??DataTable71 EQU 0
        PUBLIC ??DisableDOWN
        FUNCTION ??DisableDOWN,0603H
        LOCFRAME CSTACK, 12, STACK
        MULTWEAK ??DisableDOWN??rT
        PUBLIC ??DisableUP
        FUNCTION ??DisableUP,0603H
        LOCFRAME CSTACK, 12, STACK
        MULTWEAK ??DisableUP??rT
        MULTWEAK ??InitConfig??rA
        PUBLIC ??OnCallManagerEvent
        FUNCTION ??OnCallManagerEvent,0603H
        LOCFRAME CSTACK, 68, STACK
        MULTWEAK ??OnCallManagerEvent??rT
        PUBLIC ??bookOnDestroy
        FUNCTION ??bookOnDestroy,0603H
        LOCFRAME CSTACK, 12, STACK
        MULTWEAK ??bookOnDestroy??rT
        PUBLIC ??elf_exit
        FUNCTION ??elf_exit,0603H
        LOCFRAME CSTACK, 4, STACK
        MULTWEAK ??elf_exit??rT
        PUBLIC ??isChallengeBook
        FUNCTION ??isChallengeBook,0603H
        LOCFRAME CSTACK, 4, STACK
        MULTWEAK ??isChallengeBook??rT
        PUBLIC ??isMTCallBook
        FUNCTION ??isMTCallBook,0603H
        LOCFRAME CSTACK, 4, STACK
        MULTWEAK ??isMTCallBook??rT
        MULTWEAK ??kill_data??rA
        MULTWEAK ??main??rT
        PUBLIC ??offTimerFlash
        FUNCTION ??offTimerFlash,0603H
        LOCFRAME CSTACK, 8, STACK
        MULTWEAK ??offTimerFlash??rT
        PUBLIC ??offTimerLED
        FUNCTION ??offTimerLED,0603H
        LOCFRAME CSTACK, 40, STACK
        MULTWEAK ??offTimerLED??rT
        PUBLIC ??offTimerREDLED
        FUNCTION ??offTimerREDLED,0603H
        LOCFRAME CSTACK, 12, STACK
        MULTWEAK ??offTimerREDLED??rT
        PUBLIC ??offTimerScreen
        FUNCTION ??offTimerScreen,0603H
        LOCFRAME CSTACK, 8, STACK
        MULTWEAK ??offTimerScreen??rT
        PUBLIC ??onAbout
        FUNCTION ??onAbout,0603H
        LOCFRAME CSTACK, 20, STACK
        MULTWEAK ??onAbout??rT
        PUBLIC ??onExit
        FUNCTION ??onExit,0603H
        LOCFRAME CSTACK, 4, STACK
        MULTWEAK ??onExit??rT
        PUBLIC ??onMuteTimer
        FUNCTION ??onMuteTimer,0603H
        LOCFRAME CSTACK, 4, STACK
        MULTWEAK ??onMuteTimer??rT
        FUNCTION ??onReconfigElf,0603H
        LOCFRAME CSTACK, 12, STACK
        PUBLIC ??onRejectTimer
        FUNCTION ??onRejectTimer,0603H
        LOCFRAME CSTACK, 4, STACK
        MULTWEAK ??onRejectTimer??rT
        PUBLIC ??onTimerFlash
        FUNCTION ??onTimerFlash,0603H
        LOCFRAME CSTACK, 8, STACK
        MULTWEAK ??onTimerFlash??rT
        PUBLIC ??onTimerLED
        FUNCTION ??onTimerLED,0603H
        LOCFRAME CSTACK, 48, STACK
        MULTWEAK ??onTimerLED??rT
        PUBLIC ??onTimerREDLED
        FUNCTION ??onTimerREDLED,0603H
        LOCFRAME CSTACK, 16, STACK
        MULTWEAK ??onTimerREDLED??rT
        PUBLIC ??onTimerScreen
        FUNCTION ??onTimerScreen,0603H
        LOCFRAME CSTACK, 8, STACK
        MULTWEAK ??onTimerScreen??rT
        PUBLIC ??onVibraMinuteTimer
        FUNCTION ??onVibraMinuteTimer,0603H
        LOCFRAME CSTACK, 4, STACK
        MULTWEAK ??onVibraMinuteTimer??rT
        PUBLIC ??onVibraNMinuteTimer
        FUNCTION ??onVibraNMinuteTimer,0603H
        LOCFRAME CSTACK, 4, STACK
        MULTWEAK ??onVibraNMinuteTimer??rT
        MULTWEAK `??operator delete??rA`
        PUBWEAK ?init?tab?DATA_I
        PUBWEAK ?init?tab?DATA_Z
        PUBLIC LED
        PUBLIC LED580
        PUBLIC LEDControl_W580
        PUBLIC LEDnum
        PUBLIC REDLED
        PUBLIC checkevents
        PUBLIC connect
        PUBLIC incom
        PUBLIC lamp
        PUBLIC main
        FUNCTION main,0a03H
        LOCFRAME CSTACK, 28, STACK
        PUBLIC muteTimer
        PUBLIC offtimer
        PUBLIC offtimerLED
        PUBLIC offtimerREDLED
        PUBLIC offtimerScreen
        PUBLIC rejectTimer
        PUBLIC screen
        PUBLIC skipevents
        PUBLIC timerFlash
        PUBLIC timerLED
        PUBLIC timerREDLED
        PUBLIC timerScreen
        PUBLIC vibraNminutetimer
        PUBLIC vibraminutetimer
        
        CFI Names cfiNames0
        CFI StackFrame CFA R13 HUGEDATA
        CFI Resource R0:32, R1:32, R2:32, R3:32, R4:32, R5:32, R6:32, R7:32
        CFI Resource R8:32, R9:32, R10:32, R11:32, R12:32, CPSR:32, R13:32
        CFI Resource R14:32, SPSR:32
        CFI VirtualResource ?RET:32
        CFI EndNames cfiNames0
        
        CFI Common cfiCommon0 Using cfiNames0
        CFI CodeAlign 2
        CFI DataAlign 4
        CFI ReturnAddress ?RET CODE
        CFI CFA R13+0
        CFI R0 Undefined
        CFI R1 Undefined
        CFI R2 Undefined
        CFI R3 Undefined
        CFI R4 SameValue
        CFI R5 SameValue
        CFI R6 SameValue
        CFI R7 SameValue
        CFI R8 SameValue
        CFI R9 SameValue
        CFI R10 SameValue
        CFI R11 SameValue
        CFI R12 Undefined
        CFI CPSR SameValue
        CFI R14 Undefined
        CFI SPSR SameValue
        CFI ?RET R14
        CFI EndCommon cfiCommon0
        
        
        CFI Common cfiCommon1 Using cfiNames0
        CFI CodeAlign 4
        CFI DataAlign 4
        CFI ReturnAddress ?RET CODE
        CFI CFA R13+0
        CFI R0 Undefined
        CFI R1 Undefined
        CFI R2 Undefined
        CFI R3 Undefined
        CFI R4 SameValue
        CFI R5 SameValue
        CFI R6 SameValue
        CFI R7 SameValue
        CFI R8 SameValue
        CFI R9 SameValue
        CFI R10 SameValue
        CFI R11 SameValue
        CFI R12 Undefined
        CFI CPSR SameValue
        CFI R14 Undefined
        CFI SPSR SameValue
        CFI ?RET R14
        CFI EndCommon cfiCommon1
        


kill_data           SYMBOL "kill_data"

??Connect??rT       SYMBOL "??rT", ??Connect

??DisableDOWN??rT   SYMBOL "??rT", ??DisableDOWN

??DisableUP??rT     SYMBOL "??rT", ??DisableUP
??InitConfig??rA    SYMBOL "??rA", ??InitConfig

??OnCallManagerEvent??rT SYMBOL "??rT", ??OnCallManagerEvent

??bookOnDestroy??rT SYMBOL "??rT", ??bookOnDestroy

??elf_exit??rT      SYMBOL "??rT", ??elf_exit

??isChallengeBook??rT SYMBOL "??rT", ??isChallengeBook

??isMTCallBook??rT  SYMBOL "??rT", ??isMTCallBook
??kill_data??rA     SYMBOL "??rA", kill_data
main                SYMBOL "main"
??main??rT          SYMBOL "??rT", main

??offTimerFlash??rT SYMBOL "??rT", ??offTimerFlash

??offTimerLED??rT   SYMBOL "??rT", ??offTimerLED

??offTimerREDLED??rT SYMBOL "??rT", ??offTimerREDLED

??offTimerScreen??rT SYMBOL "??rT", ??offTimerScreen

??onAbout??rT       SYMBOL "??rT", ??onAbout

??onExit??rT        SYMBOL "??rT", ??onExit

??onMuteTimer??rT   SYMBOL "??rT", ??onMuteTimer

??onRejectTimer??rT SYMBOL "??rT", ??onRejectTimer

??onTimerFlash??rT  SYMBOL "??rT", ??onTimerFlash

??onTimerLED??rT    SYMBOL "??rT", ??onTimerLED

??onTimerREDLED??rT SYMBOL "??rT", ??onTimerREDLED

??onTimerScreen??rT SYMBOL "??rT", ??onTimerScreen

??onVibraMinuteTimer??rT SYMBOL "??rT", ??onVibraMinuteTimer

??onVibraNMinuteTimer??rT SYMBOL "??rT", ??onVibraNMinuteTimer
`??operator delete??rA` SYMBOL "??rA", `??operator delete`

        EXTERN ??InitConfig
        FUNCTION ??InitConfig,0202H
        EXTERN `??operator delete`
        FUNCTION `??operator delete`,0202H
        EXTERN ELF_BEGIN
        EXTERN VOLUMEDOWNKEY_SHORT_PRESS_EVENT
        EXTERN VOLUMEUPKEY_SHORT_PRESS_EVENT
        EXTERN cfg_flash
        EXTERN cfg_flash_blink_speed
        EXTERN cfg_flash_silent
        EXTERN cfg_flash_time
        EXTERN cfg_flashcon
        EXTERN cfg_flashcon_time
        EXTERN cfg_flashend
        EXTERN cfg_flashend_time
        EXTERN cfg_flashon
        EXTERN cfg_flashon_time
        EXTERN cfg_flashring
        EXTERN cfg_flashring_time
        EXTERN cfg_led
        EXTERN cfg_led580_blink_mode
        EXTERN cfg_led580_color
        EXTERN cfg_led_blink_mode
        EXTERN cfg_led_blink_speed
        EXTERN cfg_led_silent
        EXTERN cfg_led_time
        EXTERN cfg_ledcon
        EXTERN cfg_ledcon_time
        EXTERN cfg_ledend
        EXTERN cfg_ledend_time
        EXTERN cfg_ledon
        EXTERN cfg_ledon_time
        EXTERN cfg_ledring
        EXTERN cfg_ledring_time
        EXTERN cfg_mute_time
        EXTERN cfg_phone_type
        EXTERN cfg_redled
        EXTERN cfg_redled_offtime
        EXTERN cfg_redled_ontime
        EXTERN cfg_redled_silent
        EXTERN cfg_redled_time
        EXTERN cfg_redledcon
        EXTERN cfg_redledcon_time
        EXTERN cfg_redledend
        EXTERN cfg_redledend_time
        EXTERN cfg_redledon
        EXTERN cfg_redledon_time
        EXTERN cfg_redledring
        EXTERN cfg_redledring_time
        EXTERN cfg_reject_time
        EXTERN cfg_screen
        EXTERN cfg_screen_blink_speed
        EXTERN cfg_screen_level
        EXTERN cfg_screen_silent
        EXTERN cfg_screen_time
        EXTERN cfg_screencon
        EXTERN cfg_screencon_time
        EXTERN cfg_screenend
        EXTERN cfg_screenend_time
        EXTERN cfg_screenon
        EXTERN cfg_screenon_time
        EXTERN cfg_screenring
        EXTERN cfg_screenring_time
        EXTERN cfg_vibra
        EXTERN cfg_vibra_at_minute_end
        EXTERN cfg_vibra_at_minute_end_lead
        EXTERN cfg_vibra_at_minute_end_time
        EXTERN cfg_vibra_at_n_minute_end
        EXTERN cfg_vibra_at_n_minute_end_lead
        EXTERN cfg_vibra_at_n_minute_end_time
        EXTERN cfg_vibracon
        EXTERN cfg_vibracon_time
        EXTERN cfg_vibraend
        EXTERN cfg_vibraend_time
        EXTERN cfg_vibraon
        EXTERN cfg_vibraon_time
        EXTERN cfg_vibraring
        EXTERN cfg_vibraring_time
        EXTERN kill_data
        FUNCTION kill_data,0202H
        EXTERN successed_config_name
        EXTERN successed_config_path

// Z:\home\perk11\www\perk11.info\svn\SE\Indication Of Call\Indication of Call.c
//    1 #include "..\\include\Lib_Clara.h"
//    2 #include "..\\include\Dir.h"
//    3 #include "..\\include\cfg_items.h"
//    4 #include "config_data.h"
//    5 #include "conf_loader.h"
//    6 
//    7 #define ELFNAME "Indication of Call v.2.3"
//    8 #define LELFNAME L"Indication of Call"
//    9 #define LELFVERSION L"\nv2.3\n\n(c)Ploik & BigHercules\n\nRespect: Slawwan"
//   10 
//   11 void (*LEDControl_W580)(int,int id,int RED,int GREEN,int BLUE, int br, int delay)=(void (*)(int,int id,int RED,int GREEN,int BLUE,int br,int delay))(0x4529BFA9);
//   12 
//   13 #define COLOR_GET_A(x) ((unsigned int)x>>24)
//   14 #define COLOR_GET_R(x) (((unsigned int)x>>16)&0xFF)
//   15 #define COLOR_GET_G(x) (((unsigned int)x>>8)&0xFF)
//   16 #define COLOR_GET_B(x) ((unsigned int)x&0xFF)
//   17 
//   18 static char myappname[]=ELFNAME;
//   19 
//   20 int lamp = 0;
//   21 int screen=0;
//   22 u16 timerFlash = 0;
//   23 u16 timerREDLED = 0;
//   24 u16 timerLED = 0;
//   25 u16 timerScreen = 0;
//   26 u16 vibraminutetimer = 0;
//   27 u16 vibraNminutetimer = 0;
//   28 u16 offtimer = 0;
//   29 u16 offtimerREDLED = 0;
//   30 u16 offtimerLED = 0;
//   31 u16 offtimerScreen = 0;
//   32 
//   33 u16 rejectTimer = 0;
//   34 u16 muteTimer = 0;
//   35 

        RSEG DATA_Z:DATA:SORT:NOROOT(2)
//   36 int skipevents;
skipevents:
        DS8 4

        RSEG DATA_Z:DATA:SORT:NOROOT(2)
//   37 int checkevents;
checkevents:
        DS8 4

        RSEG DATA_I:DATA:SORT:NOROOT(2)
timerFlash:
        DS8 2
        REQUIRE `?<Initializer for timerFlash>`
timerREDLED:
        DS8 2
        REQUIRE `?<Initializer for timerREDLED>`
timerLED:
        DS8 2
        REQUIRE `?<Initializer for timerLED>`
timerScreen:
        DS8 2
        REQUIRE `?<Initializer for timerScreen>`
vibraminutetimer:
        DS8 2
        REQUIRE `?<Initializer for vibraminutetimer>`
vibraNminutetimer:
        DS8 2
        REQUIRE `?<Initializer for vibraNminutetimer>`
offtimer:
        DS8 2
        REQUIRE `?<Initializer for offtimer>`
offtimerREDLED:
        DS8 2
        REQUIRE `?<Initializer for offtimerREDLED>`
offtimerLED:
        DS8 2
        REQUIRE `?<Initializer for offtimerLED>`
offtimerScreen:
        DS8 2
        REQUIRE `?<Initializer for offtimerScreen>`
rejectTimer:
        DS8 2
        REQUIRE `?<Initializer for rejectTimer>`
muteTimer:
        DS8 2
        REQUIRE `?<Initializer for muteTimer>`
LEDControl_W580:
        DS8 4
        REQUIRE `?<Initializer for LEDControl_W580>`
lamp:
        DS8 4
        REQUIRE `?<Initializer for lamp>`
screen:
        DS8 4
        REQUIRE `?<Initializer for screen>`
//   38 int REDLED=0;
REDLED:
        DS8 4
        REQUIRE `?<Initializer for REDLED>`
//   39 int LED=0;
LED:
        DS8 4
        REQUIRE `?<Initializer for LED>`
//   40 int LED580=1;
LED580:
        DS8 4
        REQUIRE `?<Initializer for LED580>`
//   41 int LEDnum=2;
LEDnum:
        DS8 4
        REQUIRE `?<Initializer for LEDnum>`
//   42 int incom=0;
incom:
        DS8 4
        REQUIRE `?<Initializer for incom>`
//   43 int connect=0;
connect:
        DS8 4
        REQUIRE `?<Initializer for connect>`

        RSEG DATA_I:DATA:SORT:NOROOT(2)
myappname:
        DS8 28
        REQUIRE `?<Initializer for myappname>`

        RSEG CODE:CODE:NOROOT(2)
        CFI Block cfiBlock0 Using cfiCommon0
        CFI NoFunction
        THUMB
??isMTCallBook??rT:
        BX       PC
        Nop      
        CFI EndBlock cfiBlock0
        REQUIRE ??isMTCallBook
//   44 
//   45 void offTimerFlash(u16 timerID, LPARAM lparam);
//   46 void offTimerLED(u16 timerID, LPARAM lparam);
//   47 void offTimerREDLED(u16 timerID, LPARAM lparam);
//   48 void offTimerScreen(u16 timerID, LPARAM lparam);
//   49 

        RSEG CODE:CODE:NOROOT(2)
        CFI Block cfiBlock1 Using cfiCommon1
        CFI Function ??isMTCallBook
        ARM
//   50 int isMTCallBook(BOOK *bk)
//   51 {
//   52   if (strcmp(bk->xbook->name,"MTCallBook")==0) { return 1; }
??isMTCallBook:
        LDR      R1,??isMTCallBook_1  ;; `?<Constant "MTCallBook">`
        PUSH     {LR}
        CFI ?RET Frame(CFA, -4)
        CFI CFA R13+4
        LDR      R0,[R0, #+0]
        LDR      R0,[R0, #+4]
        SWI      +345
        CMP      R0,#+0
        MOVEQ    R0,#+1
        POPEQ    {PC}
//   53   else { return 0; }
        MOV      R0,#+0
        POP      {PC}             ;; return
        DATA
??isMTCallBook_1:
        DC32     `?<Constant "MTCallBook">`
        CFI EndBlock cfiBlock1
//   54 };

        RSEG CODE:CODE:NOROOT(2)
        CFI Block cfiBlock2 Using cfiCommon0
        CFI NoFunction
        THUMB
??onRejectTimer??rT:
        BX       PC
        Nop      
        CFI EndBlock cfiBlock2
        REQUIRE ??onRejectTimer
//   55 

        RSEG CODE:CODE:NOROOT(2)
        CFI Block cfiBlock3 Using cfiCommon1
        CFI Function ??onRejectTimer
        ARM
//   56 void onRejectTimer(u16 timerID, LPARAM lparam)
//   57 {
//   58   BOOK *bk = FindBook(isMTCallBook);
??onRejectTimer:
        LDR      R0,??DataTable1  ;; ??isMTCallBook
        PUSH     {LR}
        CFI ?RET Frame(CFA, -4)
        CFI CFA R13+4
        SWI      +304
//   59   if(bk)
        CMP      R0,#+0
        POPEQ    {PC}
//   60   {
//   61     IncommingCall_Reject(bk);
        SWI      +805
//   62   }
//   63 }
        POP      {PC}             ;; return
        CFI EndBlock cfiBlock3

        RSEG CODE:CODE:NOROOT(2)
        CFI Block cfiBlock4 Using cfiCommon0
        CFI NoFunction
        THUMB
??onMuteTimer??rT:
        BX       PC
        Nop      
        CFI EndBlock cfiBlock4
        REQUIRE ??onMuteTimer
//   64 

        RSEG CODE:CODE:NOROOT(2)
        CFI Block cfiBlock5 Using cfiCommon1
        CFI Function ??onMuteTimer
        ARM
//   65 void onMuteTimer(u16 timerID, LPARAM lparam)
//   66 {
//   67   BOOK *bk = FindBook(isMTCallBook);
??onMuteTimer:
        LDR      R0,??DataTable1  ;; ??isMTCallBook
        PUSH     {LR}
        CFI ?RET Frame(CFA, -4)
        CFI CFA R13+4
        SWI      +304
//   68   if(bk)
        CMP      R0,#+0
        POPEQ    {PC}
//   69   {
//   70     IncommingCall_Mute(bk);
        SWI      +806
//   71   }
//   72 }
        POP      {PC}             ;; return
        CFI EndBlock cfiBlock5

        RSEG CODE:CODE:NOROOT(2)
        DATA
??DataTable1:
        DC32     ??isMTCallBook

        RSEG CODE:CODE:NOROOT(2)
        CFI Block cfiBlock6 Using cfiCommon0
        CFI NoFunction
        THUMB
??DisableUP??rT:
        BX       PC
        Nop      
        CFI EndBlock cfiBlock6
        REQUIRE ??DisableUP
//   73 

        RSEG CODE:CODE:NOROOT(2)
        CFI Block cfiBlock7 Using cfiCommon1
        CFI Function ??DisableUP
        ARM
//   74 int DisableUP(void *msg, BOOK * book, PAGE_DESC * page_desc, LPARAM ClientData, u16 event)
//   75 {
??DisableUP:
        PUSH     {R4,R5,LR}
        CFI ?RET Frame(CFA, -4)
        CFI R5 Frame(CFA, -8)
        CFI R4 Frame(CFA, -12)
        CFI CFA R13+12
//   76   if((incom==1) && (cfg_flash_silent==0))
        LDR      R5,??DataTable30  ;; timerFlash
        LDR      R0,[R5, #+52]
        CMP      R0,#+1
        BNE      ??DisableUP_1
        LDR      R0,??DataTable8  ;; cfg_flash_silent
        LDR      R0,[R0, #+0]
        CMP      R0,#+0
        BNE      ??DisableUP_2
//   77   {
//   78      offTimerFlash(0,0);
        MOV      R1,#+0
        BL       ??offTimerFlash
//   79   }
//   80   if((incom==1) && (cfg_led_silent==0))
??DisableUP_1:
        LDR      R0,[R5, #+52]
        CMP      R0,#+1
        BNE      ??DisableUP_3
??DisableUP_2:
        LDR      R0,??DataTable9  ;; cfg_led_silent
        LDR      R0,[R0, #+0]
        CMP      R0,#+0
        BNE      ??DisableUP_4
//   81   {
//   82      offTimerLED(0,0);
        MOV      R1,#+0
        BL       ??offTimerLED
//   83   }
//   84   if((incom==1) && (cfg_redled_silent==0))
??DisableUP_3:
        LDR      R0,[R5, #+52]
        CMP      R0,#+1
        BNE      ??DisableUP_5
??DisableUP_4:
        LDR      R0,??DataTable10  ;; cfg_redled_silent
        LDR      R0,[R0, #+0]
        CMP      R0,#+0
        BNE      ??DisableUP_6
//   85   {
//   86      offTimerREDLED(0,0);
        MOV      R1,#+0
        BL       ??offTimerREDLED
//   87   }
//   88   if((incom==1) && (cfg_screen_silent==0))
??DisableUP_5:
        LDR      R0,[R5, #+52]
        CMP      R0,#+1
        BNE      ??DisableUP_7
??DisableUP_6:
        LDR      R0,??DataTable11  ;; cfg_screen_silent
        LDR      R0,[R0, #+0]
        CMP      R0,#+0
        BNE      ??DisableUP_7
//   89   {
//   90      offTimerScreen(0,0);
        MOV      R1,#+0
        BL       ??offTimerScreen
//   91   }
//   92   return(0);
??DisableUP_7:
        MOV      R0,#+0
        POP      {R4,R5,PC}       ;; return
        CFI EndBlock cfiBlock7
//   93 }

        RSEG CODE:CODE:NOROOT(2)
        CFI Block cfiBlock8 Using cfiCommon0
        CFI NoFunction
        THUMB
??DisableDOWN??rT:
        BX       PC
        Nop      
        CFI EndBlock cfiBlock8
        REQUIRE ??DisableDOWN
//   94 

        RSEG CODE:CODE:NOROOT(2)
        CFI Block cfiBlock9 Using cfiCommon1
        CFI Function ??DisableDOWN
        ARM
//   95 int DisableDOWN(void *msg, BOOK * book, PAGE_DESC * page_desc, LPARAM ClientData, u16 event)
//   96 {
??DisableDOWN:
        PUSH     {R4,R5,LR}
        CFI ?RET Frame(CFA, -4)
        CFI R5 Frame(CFA, -8)
        CFI R4 Frame(CFA, -12)
        CFI CFA R13+12
//   97   if((incom==1) && (cfg_flash_silent==0))
        LDR      R5,??DataTable30  ;; timerFlash
        LDR      R0,[R5, #+52]
        CMP      R0,#+1
        BNE      ??DisableDOWN_1
        LDR      R0,??DataTable8  ;; cfg_flash_silent
        LDR      R0,[R0, #+0]
        CMP      R0,#+0
        BNE      ??DisableDOWN_2
//   98   {
//   99      offTimerFlash(0,0);
        MOV      R1,#+0
        BL       ??offTimerFlash
//  100   }
//  101   if((incom==1) && (cfg_led_silent==0))
??DisableDOWN_1:
        LDR      R0,[R5, #+52]
        CMP      R0,#+1
        BNE      ??DisableDOWN_3
??DisableDOWN_2:
        LDR      R0,??DataTable9  ;; cfg_led_silent
        LDR      R0,[R0, #+0]
        CMP      R0,#+0
        BNE      ??DisableDOWN_4
//  102   {
//  103      offTimerLED(0,0);
        MOV      R1,#+0
        BL       ??offTimerLED
//  104   }
//  105   if((incom==1) && (cfg_redled_silent==0))
??DisableDOWN_3:
        LDR      R0,[R5, #+52]
        CMP      R0,#+1
        BNE      ??DisableDOWN_5
??DisableDOWN_4:
        LDR      R0,??DataTable10  ;; cfg_redled_silent
        LDR      R0,[R0, #+0]
        CMP      R0,#+0
        BNE      ??DisableDOWN_6
//  106   {
//  107      offTimerREDLED(0,0);
        MOV      R1,#+0
        BL       ??offTimerREDLED
//  108   }
//  109   if((incom==1) && (cfg_screen_silent==0))
??DisableDOWN_5:
        LDR      R0,[R5, #+52]
        CMP      R0,#+1
        BNE      ??DisableDOWN_7
??DisableDOWN_6:
        LDR      R0,??DataTable11  ;; cfg_screen_silent
        LDR      R0,[R0, #+0]
        CMP      R0,#+0
        BNE      ??DisableDOWN_7
//  110   {
//  111      offTimerScreen(0,0);
        MOV      R1,#+0
        BL       ??offTimerScreen
//  112   }
//  113   return(0);
??DisableDOWN_7:
        MOV      R0,#+0
        POP      {R4,R5,PC}       ;; return
        CFI EndBlock cfiBlock9
//  114 }

        RSEG CODE:CODE:NOROOT(2)
        DATA
??DataTable8:
        DC32     cfg_flash_silent

        RSEG CODE:CODE:NOROOT(2)
        DATA
??DataTable9:
        DC32     cfg_led_silent

        RSEG CODE:CODE:NOROOT(2)
        DATA
??DataTable10:
        DC32     cfg_redled_silent

        RSEG CODE:CODE:NOROOT(2)
        DATA
??DataTable11:
        DC32     cfg_screen_silent

        RSEG CODE:CODE:NOROOT(2)
        CFI Block cfiBlock10 Using cfiCommon0
        CFI NoFunction
        THUMB
??offTimerFlash??rT:
        BX       PC
        Nop      
        CFI EndBlock cfiBlock10
        REQUIRE ??offTimerFlash
//  115 

        RSEG CODE:CODE:NOROOT(2)
        CFI Block cfiBlock11 Using cfiCommon1
        CFI Function ??offTimerFlash
        ARM
//  116 void offTimerFlash(u16 timerID, LPARAM lparam)
//  117 {
??offTimerFlash:
        PUSH     {R4,LR}
        CFI ?RET Frame(CFA, -4)
        CFI R4 Frame(CFA, -8)
        CFI CFA R13+8
//  118   if(timerFlash)
        LDR      R4,??DataTable39  ;; timerFlash
        LDRH     R0,[R4, #+0]
        CMP      R0,#+0
        POPEQ    {R4,PC}
//  119   {
//  120     Timer_Kill(&timerFlash);
        MOV      R0,R4
        SWI      +298
//  121     timerFlash = 0;
        MOV      R0,#+0
        STRH     R0,[R4, #+0]
//  122     SetLampLevel(0);
        SWI      +376
//  123   }
//  124 }
        POP      {R4,PC}          ;; return
        CFI EndBlock cfiBlock11

        RSEG CODE:CODE:NOROOT(2)
        CFI Block cfiBlock12 Using cfiCommon0
        CFI NoFunction
        THUMB
??offTimerREDLED??rT:
        BX       PC
        Nop      
        CFI EndBlock cfiBlock12
        REQUIRE ??offTimerREDLED
//  125 

        RSEG CODE:CODE:NOROOT(2)
        CFI Block cfiBlock13 Using cfiCommon1
        CFI Function ??offTimerREDLED
        ARM
//  126 void offTimerREDLED(u16 timerID, LPARAM lparam)
//  127 {
??offTimerREDLED:
        PUSH     {R4,R5,LR}
        CFI ?RET Frame(CFA, -4)
        CFI R5 Frame(CFA, -8)
        CFI R4 Frame(CFA, -12)
        CFI CFA R13+12
//  128    if(timerREDLED)
        LDR      R5,??DataTable30  ;; timerFlash
        MOV      R4,#+0
        LDRH     R0,[R5, #+2]
        CMP      R0,#+0
        BEQ      ??offTimerREDLED_1
//  129    {
//  130      Timer_Kill(&timerREDLED);
        ADD      R0,R5,#+2
        SWI      +298
//  131      timerREDLED = 0;
        STRH     R4,[R5, #+2]
//  132      RedLED_Off(0);
        MOV      R0,#+0
        SWI      +776
//  133    }
//  134    REDLED = 0;
??offTimerREDLED_1:
        STR      R4,[R5, #+36]
//  135 }
        POP      {R4,R5,PC}       ;; return
        CFI EndBlock cfiBlock13

        RSEG CODE:CODE:NOROOT(2)
        CFI Block cfiBlock14 Using cfiCommon0
        CFI NoFunction
        THUMB
??offTimerLED??rT:
        BX       PC
        Nop      
        CFI EndBlock cfiBlock14
        REQUIRE ??offTimerLED
//  136 

        RSEG CODE:CODE:NOROOT(2)
        CFI Block cfiBlock15 Using cfiCommon1
        CFI Function ??offTimerLED
        ARM
//  137 void offTimerLED(u16 timerID, LPARAM lparam)
//  138 {
??offTimerLED:
        PUSH     {R4-R6,LR}
        CFI ?RET Frame(CFA, -4)
        CFI R6 Frame(CFA, -8)
        CFI R5 Frame(CFA, -12)
        CFI R4 Frame(CFA, -16)
        CFI CFA R13+16
//  139    if(timerLED)
        LDR      R5,??DataTable30  ;; timerFlash
        MOV      R4,#+0
        LDRH     R0,[R5, #+4]
        CMP      R0,#+0
        BEQ      ??offTimerLED_1
//  140    {
//  141      Timer_Kill(&timerLED);
        ADD      R0,R5,#+4
        SWI      +298
//  142      timerLED = 0;
        STRH     R4,[R5, #+4]
//  143    }
//  144    if(cfg_phone_type == 1)
??offTimerLED_1:
        LDR      R0,??DataTable28  ;; cfg_phone_type
        LDR      R0,[R0, #+0]
        CMP      R0,#+1
        BNE      ??offTimerLED_2
//  145    {
//  146      LEDControl_W580(1,0,0,0,0,0,1);
        PUSH     {R0}
        CFI CFA R13+20
        MOV      R0,#+0
        PUSH     {R0}
        CFI CFA R13+24
        PUSH     {R0}
        CFI CFA R13+28
        LDR      R6,[R5, #+24]
        MOV      R3,R0
        MOV      R2,R0
        MOV      R1,R0
        MOV      R0,#+1
        BLX      R6
//  147      LEDControl_W580(1,1,0,0,0,0,1);
        MOV      R0,#+1
        PUSH     {R0}
        CFI CFA R13+32
        MOV      R1,#+1
        MOV      R0,R4
        PUSH     {R0}
        CFI CFA R13+36
        PUSH     {R0}
        CFI CFA R13+40
        LDR      R6,[R5, #+24]
        MOV      R3,R0
        MOV      R2,R0
        MOV      R0,R1
        BLX      R6
        ADD      SP,SP,#+24
        CFI CFA R13+16
        B        ??offTimerLED_3
//  148    }
//  149    else if(cfg_phone_type == 2)
??offTimerLED_2:
        CMP      R0,#+2
        BNE      ??offTimerLED_3
//  150    {
//  151      for(int i=0;i<3;i++)
        MOV      R6,#+0
//  152      OrangeLED_Control(1,i,0,50);
??offTimerLED_4:
        MOV      R3,#+50
        MOV      R2,#+0
        MOV      R1,R6
        MOV      R0,#+1
        SWI      +732
        ADD      R6,R6,#+1
        CMP      R6,#+3
        BLT      ??offTimerLED_4
//  153    }
//  154    LED580 = 1;
??offTimerLED_3:
        MOV      R0,#+1
        STR      R0,[R5, #+44]
//  155    LEDnum=0;
        STR      R4,[R5, #+48]
//  156    LED = 0;
        STR      R4,[R5, #+40]
//  157 }
        POP      {R4-R6,PC}       ;; return
        CFI EndBlock cfiBlock15

        RSEG CODE:CODE:NOROOT(2)
        CFI Block cfiBlock16 Using cfiCommon0
        CFI NoFunction
        THUMB
??offTimerScreen??rT:
        BX       PC
        Nop      
        CFI EndBlock cfiBlock16
        REQUIRE ??offTimerScreen
//  158 

        RSEG CODE:CODE:NOROOT(2)
        CFI Block cfiBlock17 Using cfiCommon1
        CFI Function ??offTimerScreen
        ARM
//  159 void offTimerScreen(u16 timerID, LPARAM lparam)
//  160 {
??offTimerScreen:
        PUSH     {R4,LR}
        CFI ?RET Frame(CFA, -4)
        CFI R4 Frame(CFA, -8)
        CFI CFA R13+8
//  161   if(timerScreen)
        LDR      R4,??DataTable30  ;; timerFlash
        LDRH     R0,[R4, #+6]
        CMP      R0,#+0
        POPEQ    {R4,PC}
//  162   {
//  163     Timer_Kill(&timerScreen);
        ADD      R0,R4,#+6
        SWI      +298
//  164     timerScreen = 0;
        MOV      R0,#+0
        STRH     R0,[R4, #+6]
//  165     IndicationDevice_Backlight_FadeToLevel(0,cfg_screen_level);
        LDR      R0,??DataTable29  ;; cfg_screen_level
        LDR      R1,[R0, #+0]
        MOV      R0,#+0
        SWI      +367
//  166   }
//  167 }
        POP      {R4,PC}          ;; return
        CFI EndBlock cfiBlock17

        RSEG CODE:CODE:NOROOT(2)
        CFI Block cfiBlock18 Using cfiCommon0
        CFI NoFunction
        THUMB
??onVibraMinuteTimer??rT:
        BX       PC
        Nop      
        CFI EndBlock cfiBlock18
        REQUIRE ??onVibraMinuteTimer
//  168 

        RSEG CODE:CODE:NOROOT(2)
        CFI Block cfiBlock19 Using cfiCommon1
        CFI Function ??onVibraMinuteTimer
        ARM
//  169 void onVibraMinuteTimer(u16 timerID, LPARAM lparam)
//  170 {
??onVibraMinuteTimer:
        PUSH     {LR}
        CFI ?RET Frame(CFA, -4)
        CFI CFA R13+4
//  171    PAudioControl pAC = AudioControl_Init();
        SWI      +479
//  172    if( !pAC ) pAC = *GetAudioControlPtr();
        CMP      R0,#+0
        BNE      ??onVibraMinuteTimer_1
        SWI      +33233
        LDR      R0,[R0, #+0]
//  173    AudioControl_Vibrate(pAC, 400, 50, cfg_vibra_at_minute_end_time);
??onVibraMinuteTimer_1:
        LDR      R1,??onVibraMinuteTimer_2  ;; cfg_vibra_at_minute_end_time
        MOV      R2,#+50
        LDR      R3,[R1, #+0]
        MOV      R1,#+400
        SWI      +466
//  174    Timer_ReSet(&vibraminutetimer,60000,onVibraMinuteTimer,0);
        LDR      R2,??DataTable18  ;; ??onVibraMinuteTimer
        LDR      R0,??onVibraMinuteTimer_2+0x4  ;; timerFlash + 8
        MOV      R3,#+0
        MOV      R1,#+96
        ORR      R1,R1,#0xEA00
        SWI      +296
//  175 }
        POP      {PC}             ;; return
        DATA
??onVibraMinuteTimer_2:
        DC32     cfg_vibra_at_minute_end_time
        DC32     timerFlash + 8
        CFI EndBlock cfiBlock19

        RSEG CODE:CODE:NOROOT(2)
        DATA
??DataTable18:
        DC32     ??onVibraMinuteTimer

        RSEG CODE:CODE:NOROOT(2)
        CFI Block cfiBlock20 Using cfiCommon0
        CFI NoFunction
        THUMB
??onVibraNMinuteTimer??rT:
        BX       PC
        Nop      
        CFI EndBlock cfiBlock20
        REQUIRE ??onVibraNMinuteTimer
//  176 

        RSEG CODE:CODE:NOROOT(2)
        CFI Block cfiBlock21 Using cfiCommon1
        CFI Function ??onVibraNMinuteTimer
        ARM
//  177 void onVibraNMinuteTimer(u16 timerID, LPARAM lparam)
//  178 {
??onVibraNMinuteTimer:
        PUSH     {LR}
        CFI ?RET Frame(CFA, -4)
        CFI CFA R13+4
//  179    PAudioControl pAC = AudioControl_Init();
        SWI      +479
//  180    if( !pAC ) pAC = *GetAudioControlPtr();
        CMP      R0,#+0
        BNE      ??onVibraNMinuteTimer_1
        SWI      +33233
        LDR      R0,[R0, #+0]
//  181    AudioControl_Vibrate(pAC, 400, 50, cfg_vibra_at_n_minute_end_time);
??onVibraNMinuteTimer_1:
        LDR      R1,??onVibraNMinuteTimer_2  ;; cfg_vibra_at_n_minute_end_time
        MOV      R2,#+50
        LDR      R3,[R1, #+0]
        MOV      R1,#+400
        SWI      +466
//  182 }
        POP      {PC}             ;; return
        DATA
??onVibraNMinuteTimer_2:
        DC32     cfg_vibra_at_n_minute_end_time
        CFI EndBlock cfiBlock21

        RSEG CODE:CODE:NOROOT(2)
        CFI Block cfiBlock22 Using cfiCommon0
        CFI NoFunction
        THUMB
??onTimerFlash??rT:
        BX       PC
        Nop      
        CFI EndBlock cfiBlock22
        REQUIRE ??onTimerFlash
//  183 

        RSEG CODE:CODE:NOROOT(2)
        CFI Block cfiBlock23 Using cfiCommon1
        CFI Function ??onTimerFlash
        ARM
//  184 void onTimerFlash(u16 timerID, LPARAM lparam)
//  185 {
??onTimerFlash:
        PUSH     {R4,LR}
        CFI ?RET Frame(CFA, -4)
        CFI R4 Frame(CFA, -8)
        CFI CFA R13+8
//  186     switch(GetChipID()&CHIPID_MASK)
        LDR      R4,??DataTable39  ;; timerFlash
        SWI      +590
        AND      R0,R0,#0xFE00
        SUBS     R0,R0,#+28672
        SUBSNE   R0,R0,#+4096
        BEQ      ??onTimerFlash_1
        SUBS     R0,R0,#+6144
        BEQ      ??onTimerFlash_2
        B        ??onTimerFlash_3
//  187     {
//  188         case CHIPID_DB2000:
//  189         case CHIPID_DB2010:
//  190         {
//  191             SetLampLevel(lamp^=0x50);
??onTimerFlash_1:
        LDR      R0,[R4, #+28]
        EOR      R0,R0,#0x50
        B        ??onTimerFlash_4
//  192         }
//  193         break;
//  194         case CHIPID_DB2020:
//  195         {
//  196             SetLampLevel(lamp^=1);
??onTimerFlash_2:
        LDR      R0,[R4, #+28]
        EOR      R0,R0,#0x1
??onTimerFlash_4:
        STR      R0,[R4, #+28]
        SWI      +376
//  197         }
//  198         break;
//  199     }
//  200     Timer_ReSet(&timerFlash,cfg_flash_blink_speed,onTimerFlash,0);
??onTimerFlash_3:
        LDR      R0,??DataTable61  ;; cfg_flash_blink_speed
        LDR      R2,??DataTable53  ;; ??onTimerFlash
        LDR      R1,[R0, #+0]
        MOV      R3,#+0
        MOV      R0,R4
        SWI      +296
//  201 }
        POP      {R4,PC}          ;; return
        CFI EndBlock cfiBlock23

        RSEG CODE:CODE:NOROOT(2)
        CFI Block cfiBlock24 Using cfiCommon0
        CFI NoFunction
        THUMB
??onTimerREDLED??rT:
        BX       PC
        Nop      
        CFI EndBlock cfiBlock24
        REQUIRE ??onTimerREDLED
//  202 

        RSEG CODE:CODE:NOROOT(2)
        CFI Block cfiBlock25 Using cfiCommon1
        CFI Function ??onTimerREDLED
        ARM
//  203 void onTimerREDLED(u16 timerID, LPARAM lparam)
//  204 {
??onTimerREDLED:
        PUSH     {R4-R6,LR}
        CFI ?RET Frame(CFA, -4)
        CFI R6 Frame(CFA, -8)
        CFI R5 Frame(CFA, -12)
        CFI R4 Frame(CFA, -16)
        CFI CFA R13+16
//  205   if(REDLED == 0)
        LDR      R4,??DataTable69  ;; ??onTimerREDLED
        LDR      R6,??DataTable30  ;; timerFlash
        MOV      R5,#+0
        LDR      R0,[R6, #+36]
        CMP      R0,#+0
        BNE      ??onTimerREDLED_1
//  206   {
//  207     REDLED = 1;
        MOV      R0,#+1
        STR      R0,[R6, #+36]
//  208     RedLED_On(0);
        MOV      R0,#+0
        SWI      +775
//  209     Timer_ReSet(&timerREDLED,cfg_redled_ontime,onTimerREDLED,0);
        LDR      R0,??DataTable59  ;; cfg_redled_ontime
        B        ??onTimerREDLED_2
//  210   }
//  211   else
//  212   {
//  213     REDLED = 0;
??onTimerREDLED_1:
        STR      R5,[R6, #+36]
//  214     RedLED_Off(0);
        MOV      R0,#+0
        SWI      +776
//  215     Timer_ReSet(&timerREDLED,cfg_redled_offtime,onTimerREDLED,0);
        LDR      R0,??onTimerREDLED_3  ;; cfg_redled_offtime
??onTimerREDLED_2:
        MOV      R3,R5
        MOV      R2,R4
        LDR      R1,[R0, #+0]
        ADD      R0,R6,#+2
        SWI      +296
//  216   }
//  217 }
        POP      {R4-R6,PC}       ;; return
        DATA
??onTimerREDLED_3:
        DC32     cfg_redled_offtime
        CFI EndBlock cfiBlock25

        RSEG CODE:CODE:NOROOT(2)
        CFI Block cfiBlock26 Using cfiCommon0
        CFI NoFunction
        THUMB
??onTimerLED??rT:
        BX       PC
        Nop      
        CFI EndBlock cfiBlock26
        REQUIRE ??onTimerLED
//  218 

        RSEG CODE:CODE:NOROOT(2)
        CFI Block cfiBlock27 Using cfiCommon1
        CFI Function ??onTimerLED
        ARM
//  219 void onTimerLED(u16 timerID, LPARAM lparam)
//  220 {
//  221   if(cfg_phone_type == 1)
??onTimerLED:
        LDR      R0,??DataTable51  ;; cfg_led_blink_speed
        LDR      R2,??DataTable70  ;; ??onTimerLED
        PUSH     {R4-R7,LR}
        CFI ?RET Frame(CFA, -4)
        CFI R7 Frame(CFA, -8)
        CFI R6 Frame(CFA, -12)
        CFI R5 Frame(CFA, -16)
        CFI R4 Frame(CFA, -20)
        CFI CFA R13+20
        LDR      R4,??DataTable30  ;; timerFlash
        SUB      SP,SP,#+4
        CFI CFA R13+24
        LDR      R5,[R0, #+0]
        LDR      R0,??DataTable28  ;; cfg_phone_type
        MOV      R3,#+0
        LDR      R0,[R0, #+0]
        CMP      R0,#+1
        BNE      ??onTimerLED_1
//  222   {
//  223     Timer_ReSet(&timerLED,cfg_led_blink_speed,onTimerLED,0);
        MOV      R1,R5
        ADD      R0,R4,#+4
        SWI      +296
//  224     if (cfg_led580_blink_mode == 2)
        LDR      R0,??onTimerLED_2  ;; cfg_led580_color
        MOV      R1,#+255
        LDR      R0,[R0, #+0]
        AND      R5,R1,R0, LSR #+16
        AND      R6,R1,R0, LSR #+8
        AND      R7,R0,#0xFF
        LDR      R0,??onTimerLED_2+0x4  ;; cfg_led580_blink_mode
        LDR      R1,[R0, #+0]
        LDR      R0,[R4, #+44]
        CMP      R1,#+2
        EOR      R0,R0,#0x1
        STR      R0,[R4, #+44]
        PUSH     {R0}
        CFI CFA R13+28
        MOV      R0,#+0
        PUSH     {R0}
        CFI CFA R13+32
        BNE      ??onTimerLED_3
//  225     {
//  226       LEDControl_W580(1, 0, COLOR_GET_R(cfg_led580_color),COLOR_GET_G(cfg_led580_color),COLOR_GET_B(cfg_led580_color),0,LED580 ^= 1);
        MOV      R0,R7
        PUSH     {R0}
        CFI CFA R13+36
        LDR      R12,[R4, #+24]
        MOV      R3,R6
        MOV      R2,R5
        MOV      R1,#+0
        MOV      R0,#+1
        BLX      R12
//  227       LEDControl_W580(1, 1, COLOR_GET_R(cfg_led580_color),COLOR_GET_G(cfg_led580_color),COLOR_GET_B(cfg_led580_color),0,LED580);
        LDR      R0,[R4, #+44]
        MOV      R3,R6
        PUSH     {R0}
        CFI CFA R13+40
        MOV      R2,R5
        MOV      R1,#+1
        MOV      R0,#+0
        PUSH     {R0}
        CFI CFA R13+44
        PUSH     {R7}
        CFI CFA R13+48
        LDR      R4,[R4, #+24]
        MOV      R0,#+1
        BLX      R4
        ADD      SP,SP,#+24
        CFI CFA R13+24
        POP      {R0,R4-R7,PC}
        CFI CFA R13+32
//  228     }
//  229     else
//  230     {
//  231       LEDControl_W580(1, cfg_led580_blink_mode, COLOR_GET_R(cfg_led580_color),COLOR_GET_G(cfg_led580_color),COLOR_GET_B(cfg_led580_color),0,LED580 ^= 1);
??onTimerLED_3:
        PUSH     {R7}
        CFI CFA R13+36
        LDR      R4,[R4, #+24]
        MOV      R3,R6
        MOV      R2,R5
        MOV      R0,#+1
        BLX      R4
        ADD      SP,SP,#+12
        CFI CFA R13+24
        POP      {R0,R4-R7,PC}
//  232     }
//  233   }
//  234   else if(cfg_phone_type == 2)
??onTimerLED_1:
        CMP      R0,#+2
        POPNE    {R0,R4-R7,PC}
//  235   {
//  236     Timer_ReSet(&timerLED,100,onTimerLED,0);
        MOV      R1,#+100
        ADD      R0,R4,#+4
        SWI      +296
//  237     if (cfg_led_blink_mode)
        LDR      R0,??onTimerLED_2+0x8  ;; cfg_led_blink_mode
        LDR      R0,[R0, #+0]
        CMP      R0,#+0
        BEQ      ??onTimerLED_4
//  238     {
//  239       OrangeLED_Control(1,LEDnum,0,cfg_led_blink_speed);
        LDR      R1,[R4, #+48]
        MOV      R3,R5
        MOV      R2,#+0
        MOV      R0,#+1
        SWI      +732
//  240       if (LEDnum == 2) LEDnum=0;
        LDR      R0,[R4, #+48]
//  241       else LEDnum++;
//  242       OrangeLED_Control(1,LEDnum,100,cfg_led_blink_speed);
        MOV      R3,R5
        CMP      R0,#+2
        MOVEQ    R1,#+0
        ADDNE    R1,R0,#+1
        STR      R1,[R4, #+48]
        MOV      R2,#+100
        B        ??onTimerLED_5
//  243     }
//  244     else
//  245       OrangeLED_Control(1,0,LED^=0x64,cfg_led_blink_speed);
??onTimerLED_4:
        LDR      R0,[R4, #+40]
        MOV      R3,R5
        EOR      R2,R0,#0x64
        STR      R2,[R4, #+40]
        MOV      R1,#+0
??onTimerLED_5:
        MOV      R0,#+1
        SWI      +732
//  246   }
//  247 }
        POP      {R0,R4-R7,PC}    ;; return
        DATA
??onTimerLED_2:
        DC32     cfg_led580_color
        DC32     cfg_led580_blink_mode
        DC32     cfg_led_blink_mode
        CFI EndBlock cfiBlock27

        RSEG CODE:CODE:NOROOT(2)
        DATA
??DataTable28:
        DC32     cfg_phone_type

        RSEG CODE:CODE:NOROOT(2)
        CFI Block cfiBlock28 Using cfiCommon0
        CFI NoFunction
        THUMB
??onTimerScreen??rT:
        BX       PC
        Nop      
        CFI EndBlock cfiBlock28
        REQUIRE ??onTimerScreen
//  248 

        RSEG CODE:CODE:NOROOT(2)
        CFI Block cfiBlock29 Using cfiCommon1
        CFI Function ??onTimerScreen
        ARM
//  249 void onTimerScreen(u16 timerID, LPARAM lparam)
//  250 {
//  251     IndicationDevice_Backlight_FadeToLevel(0,screen ^= cfg_screen_level);
??onTimerScreen:
        LDR      R1,??DataTable29  ;; cfg_screen_level
        PUSH     {R4,LR}
        CFI ?RET Frame(CFA, -4)
        CFI R4 Frame(CFA, -8)
        CFI CFA R13+8
        LDR      R1,[R1, #+0]
        LDR      R4,??DataTable30  ;; timerFlash
        LDR      R0,[R4, #+32]
        EOR      R1,R1,R0
        STR      R1,[R4, #+32]
        MOV      R0,#+0
        SWI      +367
//  252     Timer_ReSet(&timerScreen,cfg_screen_blink_speed,onTimerScreen,0);
        LDR      R0,??DataTable60  ;; cfg_screen_blink_speed
        LDR      R2,??DataTable52  ;; ??onTimerScreen
        LDR      R1,[R0, #+0]
        MOV      R3,#+0
        ADD      R0,R4,#+6
        SWI      +296
//  253 }
        POP      {R4,PC}          ;; return
        CFI EndBlock cfiBlock29

        RSEG CODE:CODE:NOROOT(2)
        DATA
??DataTable29:
        DC32     cfg_screen_level

        RSEG CODE:CODE:NOROOT(2)
        DATA
??DataTable30:
        DC32     timerFlash

        RSEG CODE:CODE:NOROOT(2)
        CFI Block cfiBlock30 Using cfiCommon0
        CFI NoFunction
        THUMB
??elf_exit??rT:
        BX       PC
        Nop      
        CFI EndBlock cfiBlock30
        REQUIRE ??elf_exit
//  254 

        RSEG CODE:CODE:NOROOT(2)
        CFI Block cfiBlock31 Using cfiCommon1
        CFI Function ??elf_exit
        ARM
//  255 void elf_exit(void)
//  256 {
??elf_exit:
        PUSH     {LR}
        CFI ?RET Frame(CFA, -4)
        CFI CFA R13+4
//  257     kill_data(&ELF_BEGIN, (void(*)(void*))mfree_adr());
        SWI      +33028
        MOV      R1,R0
        LDR      R0,??elf_exit_1  ;; ELF_BEGIN
        POP      {LR}             ;; Pop
        CFI ?RET R14
        CFI CFA R13+0
        _BF      kill_data,??kill_data??rA  ;; tailcall
        DATA
??elf_exit_1:
        DC32     ELF_BEGIN
        CFI EndBlock cfiBlock31
//  258 }

        RSEG CODE:CODE:NOROOT(2)
        CFI Block cfiBlock32 Using cfiCommon0
        CFI NoFunction
        THUMB
??bookOnDestroy??rT:
        BX       PC
        Nop      
        CFI EndBlock cfiBlock32
        REQUIRE ??bookOnDestroy
//  259 

        RSEG CODE:CODE:NOROOT(2)
        CFI Block cfiBlock33 Using cfiCommon1
        CFI Function ??bookOnDestroy
        ARM
//  260 void bookOnDestroy(BOOK * book)
//  261 {
??bookOnDestroy:
        PUSH     {R5,LR}
        CFI ?RET Frame(CFA, -4)
        CFI R5 Frame(CFA, -8)
        CFI CFA R13+8
//  262     if(timerFlash)
        LDR      R5,??DataTable39  ;; timerFlash
        LDRH     R0,[R5, #+0]
        CMP      R0,#+0
        BEQ      ??bookOnDestroy_1
//  263     {
//  264         Timer_Kill(&timerFlash);
        MOV      R0,R5
        SWI      +298
//  265         offTimerFlash(0,0);
        MOV      R1,#+0
        MOV      R0,#+0
        BL       ??offTimerFlash
//  266     }
//  267     if(offtimer) Timer_Kill(&offtimer);
??bookOnDestroy_1:
        LDRH     R0,[R5, #+12]
        CMP      R0,#+0
        BEQ      ??bookOnDestroy_2
        ADD      R0,R5,#+12
        SWI      +298
//  268     if(offtimerREDLED)
??bookOnDestroy_2:
        LDRH     R0,[R5, #+14]
        CMP      R0,#+0
        BEQ      ??bookOnDestroy_3
//  269     {
//  270         Timer_Kill(&offtimerREDLED);
        ADD      R0,R5,#+14
        SWI      +298
//  271         offTimerREDLED(0,0);
        MOV      R1,#+0
        MOV      R0,#+0
        BL       ??offTimerREDLED
//  272     }
//  273     if(offtimerLED)
??bookOnDestroy_3:
        LDRH     R0,[R5, #+16]
        CMP      R0,#+0
        BEQ      ??bookOnDestroy_4
//  274     {
//  275         Timer_Kill(&offtimerLED);
        ADD      R0,R5,#+16
        SWI      +298
//  276         offTimerLED(0,0);
        MOV      R1,#+0
        MOV      R0,#+0
        BL       ??offTimerLED
//  277     }
//  278     {
//  279         PAudioControl pAC = AudioControl_Init();
??bookOnDestroy_4:
        SWI      +479
//  280         if( !pAC ) pAC = *GetAudioControlPtr();
        CMP      R0,#+0
        BNE      ??bookOnDestroy_5
        SWI      +33233
        LDR      R0,[R0, #+0]
//  281         AudioControl_Vibrate(pAC, 0, 0, 0);
??bookOnDestroy_5:
        MOV      R3,#+0
        MOV      R2,#+0
        MOV      R1,R2
        SWI      +466
//  282     }
//  283     if(timerScreen) offTimerScreen(0,0);
        LDRH     R0,[R5, #+6]
        CMP      R0,#+0
        BEQ      ??bookOnDestroy_6
        MOV      R1,#+0
        MOV      R0,#+0
        BL       ??offTimerScreen
//  284     if(offtimerScreen) Timer_Kill(&offtimerScreen);
??bookOnDestroy_6:
        LDRH     R0,[R5, #+18]
        CMP      R0,#+0
        BEQ      ??bookOnDestroy_7
        ADD      R0,R5,#+18
        SWI      +298
//  285     if(vibraminutetimer) Timer_Kill(&vibraminutetimer);
??bookOnDestroy_7:
        LDRH     R0,[R5, #+8]
        CMP      R0,#+0
        BEQ      ??bookOnDestroy_8
        ADD      R0,R5,#+8
        SWI      +298
//  286     if(vibraNminutetimer) Timer_Kill(&vibraNminutetimer);
??bookOnDestroy_8:
        LDRH     R0,[R5, #+10]
        CMP      R0,#+0
        BEQ      ??bookOnDestroy_9
        ADD      R0,R5,#+10
        SWI      +298
//  287 
//  288     if(rejectTimer) Timer_Kill(&rejectTimer);
??bookOnDestroy_9:
        LDRH     R0,[R5, #+20]
        CMP      R0,#+0
        BEQ      ??bookOnDestroy_10
        ADD      R0,R5,#+20
        SWI      +298
//  289     if(muteTimer) Timer_Kill(&muteTimer);
??bookOnDestroy_10:
        LDRH     R0,[R5, #+22]
        CMP      R0,#+0
        BEQ      ??bookOnDestroy_11
        ADD      R0,R5,#+22
        SWI      +298
//  290 
//  291     ModifyUIPageHook(VOLUMEUPKEY_SHORT_PRESS_EVENT,DisableUP,0,PAGE_HOOK_REMOVE);
??bookOnDestroy_11:
        LDR      R0,??DataTable73  ;; VOLUMEUPKEY_SHORT_PRESS_EVENT
        LDR      R1,??DataTable74  ;; ??DisableUP
        LDR      R0,[R0, #+0]
        MOV      R3,#+0
        MOV      R2,#+0
        SWI      +272
//  292     ModifyUIPageHook(VOLUMEDOWNKEY_SHORT_PRESS_EVENT,DisableDOWN,0,PAGE_HOOK_REMOVE);
        LDR      R0,??DataTable75  ;; VOLUMEDOWNKEY_SHORT_PRESS_EVENT
        LDR      R1,??DataTable76  ;; ??DisableDOWN
        LDR      R0,[R0, #+0]
        MOV      R3,#+0
        MOV      R2,R3
        SWI      +272
//  293     StatusIndication_ShowNotes(EMPTY_TEXTID);
        MVN      R0,#-1879048192
        SWI      +323
//  294     SUBPROC(elf_exit);
        LDR      R0,??DataTable72  ;; ??elf_exit
        SWI      +264
//  295 }
        POP      {R5,PC}
        CFI EndBlock cfiBlock33

        RSEG CODE:CODE:NOROOT(2)
        CFI Block cfiBlock34 Using cfiCommon0
        CFI NoFunction
        THUMB
??onExit??rT:
        BX       PC
        Nop      
        CFI EndBlock cfiBlock34
        REQUIRE ??onExit
//  296 
//  297 

        RSEG CODE:CODE:NOROOT(2)
        CFI Block cfiBlock35 Using cfiCommon1
        CFI Function ??onExit
        ARM
//  298 int onExit(void* r0,BOOK* b)
//  299 {
??onExit:
        PUSH     {LR}
        CFI ?RET Frame(CFA, -4)
        CFI CFA R13+4
        MOV      R0,R1
//  300     FreeBook(b);
        SWI      +303
//  301     return 1;
        MOV      R0,#+1
        POP      {PC}             ;; return
        CFI EndBlock cfiBlock35
//  302 }

        RSEG CODE:CODE:NOROOT(2)
        CFI Block cfiBlock36 Using cfiCommon0
        CFI NoFunction
        THUMB
??onAbout??rT:
        BX       PC
        Nop      
        CFI EndBlock cfiBlock36
        REQUIRE ??onAbout
//  303 

        RSEG CODE:CODE:NOROOT(2)
        CFI Block cfiBlock37 Using cfiCommon1
        CFI Function ??onAbout
        ARM
//  304 int onAbout(void* mess, BOOK* b)
//  305 {
??onAbout:
        PUSH     {R4,R5,LR}
        CFI ?RET Frame(CFA, -4)
        CFI R5 Frame(CFA, -8)
        CFI R4 Frame(CFA, -12)
        CFI CFA R13+12
//  306     MessageBox(EMPTY_TEXTID,TextID_Create( LELFNAME LELFVERSION,ENC_UCS2,TEXTID_ANY_LEN),NOIMAGE, 1 ,5000, *(BOOK**)mess);
        MOV      R1,#+0
        MOV      R4,R0
        LDR      R0,??onAbout_1   ;; `?<Constant L"\\x49\\x6e\\x64\\x69\\x63\\x61\\x74\\x69\\`
        MOV      R5,#+255
        ORR      R5,R5,#0xFF00
        MOV      R2,R5
        SWI      +349
        LDR      R1,[R4, #+0]
        MOV      R3,#+1
        PUSH     {R1}
        CFI CFA R13+16
        MOV      R2,R5
        MOV      R1,#+136
        ORR      R1,R1,#0x1300
        PUSH     {R1}
        CFI CFA R13+20
        MOV      R1,R0
        MVN      R0,#-1879048192
        SWI      +599
//  307     return 1;
        MOV      R0,#+1
        POP      {R1,R2,R4,R5,PC}  ;; return
        DATA
??onAbout_1:
        DC32     `?<Constant L"\\x49\\x6e\\x64\\x69\\x63\\x61\\x74\\x69\\`
        CFI EndBlock cfiBlock37
//  308 }

        RSEG CODE:CODE:NOROOT(2)
        CFI Block cfiBlock38 Using cfiCommon0
        CFI NoFunction
        THUMB
??Connect??rT:
        BX       PC
        Nop      
        CFI EndBlock cfiBlock38
        REQUIRE ??Connect
//  309 
//  310 enum
//  311 {
//  312     CALLMANAGER_IDLE            =0,
//  313     CALLMANAGER_CALL_CONNECTED  =1, /* */
//  314     CALLMANAGER_CALL_SETUP      =2, /* */
//  315     CALLMANAGER_CALL_ALERT      =4, /* */
//  316     CALLMANAGER_CALL_WAITING    =5,
//  317     CALLMANAGER_CALL_TERMINATED =6  /* */
//  318 };
//  319      /* */

        RSEG CODE:CODE:NOROOT(2)
        CFI Block cfiBlock39 Using cfiCommon1
        CFI Function ??Connect
        ARM
//  320 int Connect(void* r0,BOOK* b)
//  321 {
//  322     if(cfg_vibraring==1)
??Connect:
        LDR      R0,??Connect_1   ;; cfg_vibraring
        PUSH     {R4,LR}
        CFI ?RET Frame(CFA, -4)
        CFI R4 Frame(CFA, -8)
        CFI CFA R13+8
        LDR      R0,[R0, #+0]
        CMP      R0,#+1
        BNE      ??Connect_2
//  323     {
//  324         PAudioControl pAC = AudioControl_Init();
        SWI      +479
//  325         if( !pAC ) pAC = *GetAudioControlPtr();
        CMP      R0,#+0
        BNE      ??Connect_3
        SWI      +33233
        LDR      R0,[R0, #+0]
//  326         AudioControl_Vibrate(pAC, 400, 50, cfg_vibraring_time);
??Connect_3:
        LDR      R1,??Connect_1+0x4  ;; cfg_vibraring_time
        MOV      R2,#+50
        LDR      R3,[R1, #+0]
        MOV      R1,#+400
        SWI      +466
//  327     }
//  328     if(cfg_flashring==1)
??Connect_2:
        LDR      R0,??Connect_1+0x8  ;; cfg_flashring
        LDR      R4,??DataTable39  ;; timerFlash
        LDR      R0,[R0, #+0]
        CMP      R0,#+1
        BNE      ??Connect_4
//  329     {
//  330         timerFlash=Timer_Set(70,onTimerFlash,0);
        LDR      R1,??DataTable53  ;; ??onTimerFlash
        MOV      R2,#+0
        MOV      R0,#+70
        SWI      +297
//  331         offtimer=Timer_Set(cfg_flashring_time*1000,offTimerFlash,0);
        LDR      R1,??DataTable58  ;; ??offTimerFlash
        STRH     R0,[R4, #+0]
        LDR      R0,??Connect_1+0xC  ;; cfg_flashring_time
        MOV      R3,#+1000
        LDR      R0,[R0, #+0]
        MOV      R2,#+0
        MUL      R0,R3,R0
        SWI      +297
        STRH     R0,[R4, #+12]
//  332     }
//  333     if(cfg_redledring==1)
??Connect_4:
        LDR      R0,??Connect_1+0x10  ;; cfg_redledring
        LDR      R0,[R0, #+0]
        CMP      R0,#+1
        BNE      ??Connect_5
//  334     {
//  335         timerREDLED=Timer_Set(cfg_redled_ontime,onTimerREDLED,0);
        LDR      R0,??DataTable59  ;; cfg_redled_ontime
        LDR      R1,??DataTable69  ;; ??onTimerREDLED
        LDR      R0,[R0, #+0]
        MOV      R2,#+0
        SWI      +297
//  336         offtimerREDLED=Timer_Set(cfg_redledring_time*1000,offTimerREDLED,0);
        LDR      R1,??DataTable57  ;; ??offTimerREDLED
        STRH     R0,[R4, #+2]
        LDR      R0,??Connect_1+0x14  ;; cfg_redledring_time
        MOV      R3,#+1000
        LDR      R0,[R0, #+0]
        MOV      R2,#+0
        MUL      R0,R3,R0
        SWI      +297
        STRH     R0,[R4, #+14]
//  337     }
//  338     if(cfg_ledring==1)
??Connect_5:
        LDR      R0,??Connect_1+0x18  ;; cfg_ledring
        LDR      R0,[R0, #+0]
        CMP      R0,#+1
        BNE      ??Connect_6
//  339     {
//  340         timerLED=Timer_Set(cfg_led_blink_speed,onTimerLED,0);
        LDR      R0,??DataTable51  ;; cfg_led_blink_speed
        LDR      R1,??DataTable70  ;; ??onTimerLED
        LDR      R0,[R0, #+0]
        MOV      R2,#+0
        SWI      +297
//  341         offtimerLED=Timer_Set(cfg_ledring_time*1000,offTimerLED,0);
        LDR      R1,??DataTable56  ;; ??offTimerLED
        STRH     R0,[R4, #+4]
        LDR      R0,??Connect_1+0x1C  ;; cfg_ledring_time
        MOV      R3,#+1000
        LDR      R0,[R0, #+0]
        MOV      R2,#+0
        MUL      R0,R3,R0
        SWI      +297
        STRH     R0,[R4, #+16]
//  342     }
//  343     if(cfg_screenring==1)
??Connect_6:
        LDR      R0,??Connect_1+0x20  ;; cfg_screenring
        LDR      R0,[R0, #+0]
        CMP      R0,#+1
        BNE      ??Connect_7
//  344     {
//  345         timerScreen=Timer_Set(cfg_screen_blink_speed,onTimerScreen,0);
        LDR      R0,??DataTable60  ;; cfg_screen_blink_speed
        LDR      R1,??DataTable52  ;; ??onTimerScreen
        LDR      R0,[R0, #+0]
        MOV      R2,#+0
        SWI      +297
//  346         offtimerScreen=Timer_Set(cfg_screenring_time*1000,offTimerScreen,0);
        LDR      R1,??DataTable55  ;; ??offTimerScreen
        STRH     R0,[R4, #+6]
        LDR      R0,??Connect_1+0x24  ;; cfg_screenring_time
        MOV      R3,#+1000
        LDR      R0,[R0, #+0]
        MOV      R2,#+0
        MUL      R0,R3,R0
        SWI      +297
        STRH     R0,[R4, #+18]
//  347     }
//  348     return(0);
??Connect_7:
        MOV      R0,#+0
        POP      {R4,PC}
        DATA
??Connect_1:
        DC32     cfg_vibraring
        DC32     cfg_vibraring_time
        DC32     cfg_flashring
        DC32     cfg_flashring_time
        DC32     cfg_redledring
        DC32     cfg_redledring_time
        DC32     cfg_ledring
        DC32     cfg_ledring_time
        DC32     cfg_screenring
        DC32     cfg_screenring_time
        CFI EndBlock cfiBlock39
//  349 }

        RSEG CODE:CODE:NOROOT(2)
        DATA
??DataTable39:
        DC32     timerFlash

        RSEG CODE:CODE:NOROOT(2)
        CFI Block cfiBlock40 Using cfiCommon0
        CFI NoFunction
        THUMB
??OnCallManagerEvent??rT:
        BX       PC
        Nop      
        CFI EndBlock cfiBlock40
        REQUIRE ??OnCallManagerEvent
//  350 

        RSEG CODE:CODE:NOROOT(2)
        CFI Block cfiBlock41 Using cfiCommon1
        CFI Function ??OnCallManagerEvent
        ARM
//  351 int OnCallManagerEvent(void* r0,BOOK* b)
//  352 {
//  353     switch(((CALLMANAGER_EVENT_DATA*)r0)->CallState)
??OnCallManagerEvent:
        LDR      R2,??DataTable51  ;; cfg_led_blink_speed
        PUSH     {R4-R11,LR}
        CFI ?RET Frame(CFA, -4)
        CFI R11 Frame(CFA, -8)
        CFI R10 Frame(CFA, -12)
        CFI R9 Frame(CFA, -16)
        CFI R8 Frame(CFA, -20)
        CFI R7 Frame(CFA, -24)
        CFI R6 Frame(CFA, -28)
        CFI R5 Frame(CFA, -32)
        CFI R4 Frame(CFA, -36)
        CFI CFA R13+36
        LDR      R5,??DataTable52  ;; ??onTimerScreen
        LDR      R6,??DataTable53  ;; ??onTimerFlash
        LDR      R7,??DataTable54  ;; timerFlash
        LDR      R8,??DataTable55  ;; ??offTimerScreen
        LDR      R9,??DataTable56  ;; ??offTimerLED
        LDR      R10,??DataTable57  ;; ??offTimerREDLED
        LDR      R11,??DataTable58  ;; ??offTimerFlash
        SUB      SP,SP,#+32
        CFI CFA R13+68
        LDR      R2,[R2, #+0]
        MOV      R4,#+0
        STR      R2,[SP, #+12]
        LDR      R2,??DataTable59  ;; cfg_redled_ontime
        LDR      R2,[R2, #+0]
        STR      R2,[SP, #+8]
        LDR      R2,??DataTable60  ;; cfg_screen_blink_speed
        LDR      R2,[R2, #+0]
        STR      R2,[SP, #+4]
        LDR      R2,??DataTable61  ;; cfg_flash_blink_speed
        LDR      R2,[R2, #+0]
        STR      R2,[SP, #+0]
        LDR      R2,??OnCallManagerEvent_1  ;; cfg_screen
        LDR      R2,[R2, #+0]
        STR      R2,[SP, #+28]
        LDR      R2,??OnCallManagerEvent_1+0x4  ;; cfg_led
        LDR      R2,[R2, #+0]
        STR      R2,[SP, #+24]
        LDR      R2,??OnCallManagerEvent_1+0x8  ;; cfg_redled
        LDR      R2,[R2, #+0]
        STR      R2,[SP, #+20]
        LDR      R2,??OnCallManagerEvent_1+0xC  ;; cfg_flash
        LDR      R2,[R2, #+0]
        STR      R2,[SP, #+16]
        LDRB     R0,[R0, #+2]
        SUBS     R0,R0,#+1
        BEQ      ??OnCallManagerEvent_2
        SUBS     R0,R0,#+1
        BEQ      ??OnCallManagerEvent_3
        SUBS     R0,R0,#+2
        BEQ      ??OnCallManagerEvent_4
        SUBS     R0,R0,#+2
        BEQ      ??OnCallManagerEvent_5
        B        ??OnCallManagerEvent_6
//  354     {
//  355       /* */
//  356         case CALLMANAGER_CALL_ALERT:
//  357         {
//  358             if(GetVibrator(0,0) && (cfg_vibra==0))
??OnCallManagerEvent_4:
        MOV      R1,#+0
        MOV      R0,R1
        SWI      +588
        CMP      R0,#+0
        BEQ      ??OnCallManagerEvent_7
        LDR      R0,??OnCallManagerEvent_1+0x10  ;; cfg_vibra
        LDR      R0,[R0, #+0]
        CMP      R0,#+0
        BNE      ??OnCallManagerEvent_7
//  359             {
//  360                 PAudioControl pAC = AudioControl_Init();
        SWI      +479
//  361                 if( !pAC ) pAC = *GetAudioControlPtr();
        CMP      R0,#+0
        BNE      ??OnCallManagerEvent_8
        SWI      +33233
        LDR      R0,[R0, #+0]
//  362                 AudioControl_Vibrate(pAC, 0, 0, 0);
??OnCallManagerEvent_8:
        MOV      R3,#+0
        MOV      R2,R3
        MOV      R1,R2
        SWI      +466
//  363             }
//  364             if(cfg_flash==1)
??OnCallManagerEvent_7:
        LDR      R0,[SP, #+16]
        CMP      R0,#+1
        BNE      ??OnCallManagerEvent_9
//  365             {
//  366                 timerFlash=Timer_Set(cfg_flash_blink_speed,onTimerFlash,0);
        LDR      R0,[SP, #+0]
        MOV      R2,#+0
        MOV      R1,R6
        SWI      +297
        STRH     R0,[R7, #+0]
//  367                 if(cfg_flash_time > 0) offtimer=Timer_Set(cfg_flash_time*1000,offTimerFlash,0);
        LDR      R0,??OnCallManagerEvent_1+0x14  ;; cfg_flash_time
        LDR      R0,[R0, #+0]
        CMP      R0,#+1
        BLT      ??OnCallManagerEvent_10
        MOV      R3,#+1000
        MUL      R0,R3,R0
        MOV      R2,#+0
        MOV      R1,R11
        SWI      +297
        STRH     R0,[R7, #+12]
//  368                 incom=1;
??OnCallManagerEvent_10:
        MOV      R0,#+1
        STR      R0,[R7, #+52]
//  369             }
//  370             if(cfg_redled==1)
??OnCallManagerEvent_9:
        LDR      R0,[SP, #+20]
        CMP      R0,#+1
        BNE      ??OnCallManagerEvent_11
//  371             {
//  372                 timerREDLED=Timer_Set(cfg_redled_ontime,onTimerREDLED,0);
        LDR      R0,[SP, #+8]
        LDR      R1,??DataTable69  ;; ??onTimerREDLED
        MOV      R2,#+0
        SWI      +297
        STRH     R0,[R7, #+2]
//  373                 if(cfg_redled_time > 0) offtimerREDLED=Timer_Set(cfg_redled_time*1000,offTimerREDLED,0);
        LDR      R0,??OnCallManagerEvent_1+0x18  ;; cfg_redled_time
        LDR      R0,[R0, #+0]
        CMP      R0,#+1
        BLT      ??OnCallManagerEvent_11
        MOV      R3,#+1000
        MUL      R0,R3,R0
        MOV      R2,#+0
        MOV      R1,R10
        SWI      +297
        STRH     R0,[R7, #+14]
//  374             }
//  375             if(cfg_led==1)
??OnCallManagerEvent_11:
        LDR      R0,[SP, #+24]
        CMP      R0,#+1
        BNE      ??OnCallManagerEvent_12
//  376             {
//  377                 timerLED=Timer_Set(cfg_led_blink_speed,onTimerLED,0);
        LDR      R0,[SP, #+12]
        LDR      R1,??DataTable70  ;; ??onTimerLED
        MOV      R2,#+0
        SWI      +297
        STRH     R0,[R7, #+4]
//  378                 if(cfg_led_time > 0) offtimerLED=Timer_Set(cfg_led_time*1000,offTimerLED,0);
        LDR      R0,??OnCallManagerEvent_1+0x1C  ;; cfg_led_time
        LDR      R0,[R0, #+0]
        CMP      R0,#+1
        BLT      ??OnCallManagerEvent_12
        MOV      R3,#+1000
        MUL      R0,R3,R0
        MOV      R2,#+0
        MOV      R1,R9
        SWI      +297
        STRH     R0,[R7, #+16]
//  379             }
//  380             if(cfg_screen==1)
??OnCallManagerEvent_12:
        LDR      R0,[SP, #+28]
        CMP      R0,#+1
        BNE      ??OnCallManagerEvent_13
//  381             {
//  382                 timerScreen=Timer_Set(cfg_screen_blink_speed,onTimerScreen,0);
        LDR      R0,[SP, #+4]
        MOV      R2,#+0
        MOV      R1,R5
        SWI      +297
        STRH     R0,[R7, #+6]
//  383                 if(cfg_screen_time > 0) offtimerScreen=Timer_Set(cfg_screen_time*1000,offTimerScreen,0);
        LDR      R0,??OnCallManagerEvent_1+0x20  ;; cfg_screen_time
        LDR      R0,[R0, #+0]
        CMP      R0,#+1
        BLT      ??OnCallManagerEvent_13
        MOV      R3,#+1000
        MUL      R0,R3,R0
        MOV      R2,#+0
        MOV      R1,R8
        SWI      +297
        STRH     R0,[R7, #+18]
//  384             }
//  385             if(cfg_reject_time)
??OnCallManagerEvent_13:
        LDR      R0,??OnCallManagerEvent_1+0x24  ;; cfg_reject_time
        LDR      R0,[R0, #+0]
        CMP      R0,#+0
        BEQ      ??OnCallManagerEvent_14
//  386             {
//  387                 rejectTimer=Timer_Set(cfg_reject_time*1000,onRejectTimer,0);
        LDR      R1,??OnCallManagerEvent_1+0x28  ;; ??onRejectTimer
        MOV      R3,#+1000
        MUL      R0,R3,R0
        MOV      R2,#+0
        SWI      +297
        STRH     R0,[R7, #+20]
//  388             }
//  389             if(cfg_mute_time && (!GetSilent()))
??OnCallManagerEvent_14:
        LDR      R0,??OnCallManagerEvent_1+0x2C  ;; cfg_mute_time
        LDR      R5,[R0, #+0]
        CMP      R5,#+0
        BEQ      ??OnCallManagerEvent_15
        SWI      +587
        CMP      R0,#+0
        BNE      ??OnCallManagerEvent_15
//  390             {
//  391                 muteTimer=Timer_Set(cfg_mute_time*1000,onMuteTimer,0);
        LDR      R1,??OnCallManagerEvent_1+0x30  ;; ??onMuteTimer
        MOV      R3,#+1000
        MUL      R0,R3,R5
        MOV      R2,#+0
        SWI      +297
        STRH     R0,[R7, #+22]
??OnCallManagerEvent_6:
        MOV      R0,#+1
        ADD      SP,SP,#+32
        CFI CFA R13+36
        POP      {R4-R11,PC}
        CFI CFA R13+68
//  392             }
//  393             break;
//  394         }
//  395        /* */
//  396         case CALLMANAGER_CALL_CONNECTED:
//  397         {
//  398             if(timerFlash) offTimerFlash(0,0);
??OnCallManagerEvent_2:
        LDRH     R0,[R7, #+0]
        CMP      R0,#+0
        BEQ      ??OnCallManagerEvent_16
        MOV      R1,#+0
        MOV      R0,R1
        BL       ??offTimerFlash
//  399             if(timerLED) offTimerLED(0,0);
??OnCallManagerEvent_16:
        LDRH     R0,[R7, #+4]
        CMP      R0,#+0
        BEQ      ??OnCallManagerEvent_17
        MOV      R1,#+0
        MOV      R0,R1
        BL       ??offTimerLED
//  400             if(timerScreen) offTimerScreen(0,0);
??OnCallManagerEvent_17:
        LDRH     R0,[R7, #+6]
        CMP      R0,#+0
        BEQ      ??OnCallManagerEvent_18
        MOV      R1,#+0
        MOV      R0,R1
        BL       ??offTimerScreen
//  401 
//  402             if((cfg_vibracon==1) && (incom==0))
??OnCallManagerEvent_18:
        LDR      R0,??OnCallManagerEvent_1+0x34  ;; cfg_vibracon
        LDR      R0,[R0, #+0]
        CMP      R0,#+1
        LDREQ    R0,[R7, #+52]
        CMPEQ    R0,#+0
        BNE      ??OnCallManagerEvent_19
//  403             {
//  404                 PAudioControl pAC = AudioControl_Init();
        SWI      +479
//  405                 if( !pAC ) pAC = *GetAudioControlPtr();
        CMP      R0,#+0
        BNE      ??OnCallManagerEvent_20
        SWI      +33233
        LDR      R0,[R0, #+0]
//  406                 AudioControl_Vibrate(pAC, 400, 50, cfg_vibracon_time);
??OnCallManagerEvent_20:
        LDR      R1,??OnCallManagerEvent_1+0x38  ;; cfg_vibracon_time
        MOV      R2,#+50
        LDR      R3,[R1, #+0]
        MOV      R1,#+400
        SWI      +466
//  407             }
//  408             if((cfg_flashcon==1) && (incom==0))
??OnCallManagerEvent_19:
        LDR      R0,??OnCallManagerEvent_1+0x3C  ;; cfg_flashcon
        LDR      R0,[R0, #+0]
        CMP      R0,#+1
        LDREQ    R0,[R7, #+52]
        CMPEQ    R0,#+0
        BNE      ??OnCallManagerEvent_21
//  409             {
//  410                 timerFlash=Timer_Set(cfg_flash_blink_speed,onTimerFlash,0);
        LDR      R0,[SP, #+0]
        MOV      R2,#+0
        MOV      R1,R6
        SWI      +297
        STRH     R0,[R7, #+0]
//  411                 offtimer=Timer_Set(cfg_flashcon_time*1000,offTimerFlash,0);
        LDR      R0,??OnCallManagerEvent_1+0x40  ;; cfg_flashcon_time
        MOV      R3,#+1000
        LDR      R0,[R0, #+0]
        MOV      R2,R4
        MUL      R0,R3,R0
        MOV      R1,R11
        SWI      +297
        STRH     R0,[R7, #+12]
//  412             }
//  413             if((cfg_redledcon==1) && (incom==0))
??OnCallManagerEvent_21:
        LDR      R0,??OnCallManagerEvent_1+0x44  ;; cfg_redledcon
        LDR      R0,[R0, #+0]
        CMP      R0,#+1
        LDREQ    R0,[R7, #+52]
        CMPEQ    R0,#+0
        BNE      ??OnCallManagerEvent_22
//  414             {
//  415                 timerREDLED=Timer_Set(cfg_redled_ontime,onTimerREDLED,0);
        LDR      R0,[SP, #+8]
        LDR      R1,??DataTable69  ;; ??onTimerREDLED
        MOV      R2,#+0
        SWI      +297
        STRH     R0,[R7, #+2]
//  416                 offtimerREDLED=Timer_Set(cfg_redledcon_time*1000,offTimerREDLED,0);
        LDR      R0,??OnCallManagerEvent_1+0x48  ;; cfg_redledcon_time
        MOV      R3,#+1000
        LDR      R0,[R0, #+0]
        MOV      R2,R4
        MUL      R0,R3,R0
        MOV      R1,R10
        SWI      +297
        STRH     R0,[R7, #+14]
//  417             }
//  418             if((cfg_ledcon==1) && (incom==0))
??OnCallManagerEvent_22:
        LDR      R0,??OnCallManagerEvent_1+0x4C  ;; cfg_ledcon
        LDR      R0,[R0, #+0]
        CMP      R0,#+1
        LDREQ    R0,[R7, #+52]
        CMPEQ    R0,#+0
        BNE      ??OnCallManagerEvent_23
//  419             {
//  420                 timerLED=Timer_Set(cfg_led_blink_speed,onTimerLED,0);
        LDR      R0,[SP, #+12]
        LDR      R1,??DataTable70  ;; ??onTimerLED
        MOV      R2,#+0
        SWI      +297
        STRH     R0,[R7, #+4]
//  421                 offtimerLED=Timer_Set(cfg_ledcon_time*1000,offTimerLED,0);
        LDR      R0,??OnCallManagerEvent_1+0x50  ;; cfg_ledcon_time
        MOV      R3,#+1000
        LDR      R0,[R0, #+0]
        MOV      R2,R4
        MUL      R0,R3,R0
        MOV      R1,R9
        SWI      +297
        STRH     R0,[R7, #+16]
//  422             }
//  423             if((cfg_screencon==1) && (incom==0))
??OnCallManagerEvent_23:
        LDR      R0,??OnCallManagerEvent_1+0x54  ;; cfg_screencon
        LDR      R0,[R0, #+0]
        CMP      R0,#+1
        LDREQ    R0,[R7, #+52]
        CMPEQ    R0,#+0
        BNE      ??OnCallManagerEvent_24
//  424             {
//  425                 timerScreen=Timer_Set(cfg_screen_blink_speed,onTimerScreen,0);
        LDR      R0,[SP, #+4]
        MOV      R2,#+0
        MOV      R1,R5
        SWI      +297
        STRH     R0,[R7, #+6]
//  426                 offtimerScreen=Timer_Set(cfg_screencon_time*1000,offTimerScreen,0);
        LDR      R0,??OnCallManagerEvent_1+0x58  ;; cfg_screencon_time
        MOV      R3,#+1000
        LDR      R0,[R0, #+0]
        MOV      R2,R4
        MUL      R0,R3,R0
        MOV      R1,R8
        SWI      +297
        STRH     R0,[R7, #+18]
//  427             }
//  428             if(cfg_vibra_at_minute_end==1)
??OnCallManagerEvent_24:
        LDR      R0,??OnCallManagerEvent_1+0x5C  ;; cfg_vibra_at_minute_end
        LDR      R0,[R0, #+0]
        CMP      R0,#+1
        BNE      ??OnCallManagerEvent_25
//  429             {
//  430                    vibraminutetimer = Timer_Set((60 - cfg_vibra_at_minute_end_lead) * 1000 ,onVibraMinuteTimer,0);
        LDR      R0,??OnCallManagerEvent_1+0x60  ;; cfg_vibra_at_minute_end_lead
        LDR      R1,??DataTable66  ;; ??onVibraMinuteTimer
        LDR      R0,[R0, #+0]
        MOV      R3,#+1000
        RSB      R0,R0,#+60
        MUL      R0,R3,R0
        MOV      R2,#+0
        SWI      +297
        STRH     R0,[R7, #+8]
//  431             }
//  432             if(cfg_vibra_at_n_minute_end > 0)
??OnCallManagerEvent_25:
        LDR      R0,??OnCallManagerEvent_1+0x64  ;; cfg_vibra_at_n_minute_end
        LDR      R0,[R0, #+0]
        CMP      R0,#+1
        BLT      ??OnCallManagerEvent_26
//  433             {
//  434                    vibraNminutetimer = Timer_Set((cfg_vibra_at_n_minute_end * 60 - cfg_vibra_at_n_minute_end_lead) * 1000 ,onVibraNMinuteTimer,0);
        LDR      R1,??OnCallManagerEvent_1+0x68  ;; ??onVibraNMinuteTimer
        MOV      R3,#+60
        MUL      R0,R3,R0
        LDR      R3,??OnCallManagerEvent_1+0x6C  ;; cfg_vibra_at_n_minute_end_lead
        MOV      R2,#+0
        LDR      R3,[R3, #+0]
        SUB      R0,R0,R3
        MOV      R3,#+1000
        MUL      R0,R3,R0
        SWI      +297
        STRH     R0,[R7, #+10]
//  435             }
//  436             connect = 1;
??OnCallManagerEvent_26:
        MOV      R0,#+1
        STR      R0,[R7, #+56]
//  437             break;
        B        ??OnCallManagerEvent_6
//  438         }
//  439          /* */
//  440         case CALLMANAGER_CALL_SETUP:
//  441         {
//  442             if(cfg_vibraon==1)
??OnCallManagerEvent_3:
        LDR      R0,??OnCallManagerEvent_1+0x70  ;; cfg_vibraon
        LDR      R0,[R0, #+0]
        CMP      R0,#+1
        BNE      ??OnCallManagerEvent_27
//  443             {
//  444                 PAudioControl pAC = AudioControl_Init();
        SWI      +479
//  445                 if( !pAC ) pAC = *GetAudioControlPtr();
        CMP      R0,#+0
        BNE      ??OnCallManagerEvent_28
        SWI      +33233
        LDR      R0,[R0, #+0]
//  446                 AudioControl_Vibrate(pAC, 400, 50, cfg_vibraon_time);
??OnCallManagerEvent_28:
        LDR      R1,??OnCallManagerEvent_1+0x74  ;; cfg_vibraon_time
        MOV      R2,#+50
        LDR      R3,[R1, #+0]
        MOV      R1,#+400
        SWI      +466
//  447             }
//  448             if(cfg_flashon==1)
??OnCallManagerEvent_27:
        LDR      R0,??OnCallManagerEvent_1+0x78  ;; cfg_flashon
        LDR      R0,[R0, #+0]
        CMP      R0,#+1
        BNE      ??OnCallManagerEvent_29
//  449             {
//  450                 timerFlash=Timer_Set(cfg_flash_blink_speed,onTimerFlash,0);
        LDR      R0,[SP, #+0]
        MOV      R2,#+0
        MOV      R1,R6
        SWI      +297
        STRH     R0,[R7, #+0]
//  451                 offtimer=Timer_Set(cfg_flashon_time*1000,offTimerFlash,0);
        LDR      R0,??OnCallManagerEvent_1+0x7C  ;; cfg_flashon_time
        MOV      R3,#+1000
        LDR      R0,[R0, #+0]
        MOV      R2,R4
        MUL      R0,R3,R0
        MOV      R1,R11
        SWI      +297
        STRH     R0,[R7, #+12]
//  452             }
//  453             if(cfg_redledon==1)
??OnCallManagerEvent_29:
        LDR      R0,??OnCallManagerEvent_1+0x80  ;; cfg_redledon
        LDR      R0,[R0, #+0]
        CMP      R0,#+1
        BNE      ??OnCallManagerEvent_30
//  454             {
//  455                 timerREDLED=Timer_Set(cfg_redled_ontime,onTimerREDLED,0);
        LDR      R0,[SP, #+8]
        LDR      R1,??DataTable69  ;; ??onTimerREDLED
        MOV      R2,#+0
        SWI      +297
        STRH     R0,[R7, #+2]
//  456                 offtimerREDLED=Timer_Set(cfg_redledon_time*1000,offTimerREDLED,0);
        LDR      R0,??OnCallManagerEvent_1+0x84  ;; cfg_redledon_time
        MOV      R3,#+1000
        LDR      R0,[R0, #+0]
        MOV      R2,R4
        MUL      R0,R3,R0
        MOV      R1,R10
        SWI      +297
        STRH     R0,[R7, #+14]
//  457             }
//  458             if(cfg_ledon==1)
??OnCallManagerEvent_30:
        LDR      R0,??OnCallManagerEvent_1+0x88  ;; cfg_ledon
        LDR      R0,[R0, #+0]
        CMP      R0,#+1
        BNE      ??OnCallManagerEvent_31
//  459             {
//  460                 timerLED=Timer_Set(cfg_led_blink_speed,onTimerLED,0);
        LDR      R0,[SP, #+12]
        LDR      R1,??DataTable70  ;; ??onTimerLED
        MOV      R2,#+0
        SWI      +297
        STRH     R0,[R7, #+4]
//  461                 offtimerLED=Timer_Set(cfg_ledon_time*1000,offTimerLED,0);
        LDR      R0,??OnCallManagerEvent_1+0x8C  ;; cfg_ledon_time
        MOV      R3,#+1000
        LDR      R0,[R0, #+0]
        MOV      R2,R4
        MUL      R0,R3,R0
        MOV      R1,R9
        SWI      +297
        STRH     R0,[R7, #+16]
//  462             }
//  463             if(cfg_screenon==1)
??OnCallManagerEvent_31:
        LDR      R0,??OnCallManagerEvent_1+0x90  ;; cfg_screenon
        LDR      R0,[R0, #+0]
        CMP      R0,#+1
        BNE      ??OnCallManagerEvent_15
//  464             {
//  465                 timerScreen=Timer_Set(cfg_screen_blink_speed,onTimerScreen,0);
        LDR      R0,[SP, #+4]
        MOV      R2,#+0
        MOV      R1,R5
        SWI      +297
        STRH     R0,[R7, #+6]
//  466                 offtimerScreen=Timer_Set(cfg_screenon_time*1000,offTimerScreen,0);
        LDR      R0,??OnCallManagerEvent_1+0x94  ;; cfg_screenon_time
        MOV      R3,#+1000
        LDR      R0,[R0, #+0]
        MOV      R2,R4
        MUL      R0,R3,R0
        MOV      R1,R8
        SWI      +297
        STRH     R0,[R7, #+18]
        B        ??OnCallManagerEvent_6
//  467             }
//  468             break;
//  469         }
//  470          /* */
//  471         case CALLMANAGER_CALL_TERMINATED:
//  472         {
//  473             if(cfg_flash  == 1) offTimerFlash(0,0);
??OnCallManagerEvent_5:
        CMP      R2,#+1
        BNE      ??OnCallManagerEvent_32
        MOV      R1,#+0
        MOV      R0,R1
        BL       ??offTimerFlash
//  474             if(cfg_redled == 1) offTimerREDLED(0,0);
??OnCallManagerEvent_32:
        LDR      R0,[SP, #+20]
        CMP      R0,#+1
        BNE      ??OnCallManagerEvent_33
        MOV      R1,#+0
        MOV      R0,R1
        BL       ??offTimerREDLED
//  475             if(cfg_led    == 1) offTimerLED(0,0);
??OnCallManagerEvent_33:
        LDR      R0,[SP, #+24]
        CMP      R0,#+1
        BNE      ??OnCallManagerEvent_34
        MOV      R1,#+0
        MOV      R0,R1
        BL       ??offTimerLED
//  476             if(cfg_screen == 1) offTimerScreen(0,0);
??OnCallManagerEvent_34:
        LDR      R0,[SP, #+28]
        CMP      R0,#+1
        BNE      ??OnCallManagerEvent_35
        MOV      R1,#+0
        MOV      R0,R1
        BL       ??offTimerScreen
//  477 
//  478             if((cfg_vibraend == 1) && (connect == 1))
??OnCallManagerEvent_35:
        LDR      R0,??OnCallManagerEvent_1+0x98  ;; cfg_vibraend
        LDR      R0,[R0, #+0]
        CMP      R0,#+1
        LDREQ    R0,[R7, #+56]
        CMPEQ    R0,#+1
        BNE      ??OnCallManagerEvent_36
//  479             {
//  480                 PAudioControl pAC = AudioControl_Init();
        SWI      +479
//  481                 if( !pAC ) pAC = *GetAudioControlPtr();
        CMP      R0,#+0
        BNE      ??OnCallManagerEvent_37
        SWI      +33233
        LDR      R0,[R0, #+0]
//  482                 AudioControl_Vibrate(pAC, 400, 50, cfg_vibraend_time);
??OnCallManagerEvent_37:
        LDR      R1,??OnCallManagerEvent_1+0x9C  ;; cfg_vibraend_time
        MOV      R2,#+50
        LDR      R3,[R1, #+0]
        MOV      R1,#+400
        SWI      +466
//  483             }
//  484             if((cfg_flashend == 1) && (connect == 1))
??OnCallManagerEvent_36:
        LDR      R0,??OnCallManagerEvent_1+0xA0  ;; cfg_flashend
        LDR      R0,[R0, #+0]
        CMP      R0,#+1
        LDREQ    R0,[R7, #+56]
        CMPEQ    R0,#+1
        BNE      ??OnCallManagerEvent_38
//  485             {
//  486                 timerFlash=Timer_Set(cfg_flash_blink_speed,onTimerFlash,0);
        LDR      R0,[SP, #+0]
        MOV      R2,#+0
        MOV      R1,R6
        SWI      +297
        STRH     R0,[R7, #+0]
//  487                 offtimer=Timer_Set(cfg_flashend_time*1000,offTimerFlash,0);
        LDR      R0,??OnCallManagerEvent_1+0xA4  ;; cfg_flashend_time
        MOV      R3,#+1000
        LDR      R0,[R0, #+0]
        MOV      R2,R4
        MUL      R0,R3,R0
        MOV      R1,R11
        SWI      +297
        STRH     R0,[R7, #+12]
//  488             }
//  489             if((cfg_screenend==1) && (connect == 1))
??OnCallManagerEvent_38:
        LDR      R0,??OnCallManagerEvent_1+0xA8  ;; cfg_screenend
        LDR      R0,[R0, #+0]
        CMP      R0,#+1
        LDREQ    R0,[R7, #+56]
        CMPEQ    R0,#+1
        BNE      ??OnCallManagerEvent_39
//  490             {
//  491                 timerScreen=Timer_Set(cfg_screen_blink_speed,onTimerScreen,0);
        LDR      R0,[SP, #+4]
        MOV      R2,#+0
        MOV      R1,R5
        SWI      +297
        STRH     R0,[R7, #+6]
//  492                 offtimerScreen=Timer_Set(cfg_screenend_time*1000,offTimerScreen,0);
        LDR      R0,??OnCallManagerEvent_1+0xAC  ;; cfg_screenend_time
        MOV      R3,#+1000
        LDR      R0,[R0, #+0]
        MOV      R2,R4
        MUL      R0,R3,R0
        MOV      R1,R8
        SWI      +297
        STRH     R0,[R7, #+18]
//  493             }
//  494             if((cfg_redledend==1) && (connect == 1))
??OnCallManagerEvent_39:
        LDR      R0,??OnCallManagerEvent_1+0xB0  ;; cfg_redledend
        LDR      R0,[R0, #+0]
        CMP      R0,#+1
        LDREQ    R0,[R7, #+56]
        CMPEQ    R0,#+1
        BNE      ??OnCallManagerEvent_40
//  495             {
//  496                 timerREDLED=Timer_Set(cfg_redled_ontime,onTimerREDLED,0);
        LDR      R0,[SP, #+8]
        LDR      R1,??DataTable69  ;; ??onTimerREDLED
        MOV      R2,#+0
        SWI      +297
        STRH     R0,[R7, #+2]
//  497                 offtimerREDLED=Timer_Set(cfg_redledend_time*1000,offTimerREDLED,0);
        LDR      R0,??OnCallManagerEvent_1+0xB4  ;; cfg_redledend_time
        MOV      R3,#+1000
        LDR      R0,[R0, #+0]
        MOV      R2,R4
        MUL      R0,R3,R0
        MOV      R1,R10
        SWI      +297
        STRH     R0,[R7, #+14]
//  498             }
//  499             if((cfg_ledend==1) && (connect == 1))
??OnCallManagerEvent_40:
        LDR      R0,??OnCallManagerEvent_1+0xB8  ;; cfg_ledend
        LDR      R0,[R0, #+0]
        CMP      R0,#+1
        LDREQ    R0,[R7, #+56]
        CMPEQ    R0,#+1
        BNE      ??OnCallManagerEvent_41
//  500             {
//  501                 timerLED=Timer_Set(cfg_led_blink_speed,onTimerLED,0);
        LDR      R0,[SP, #+12]
        LDR      R1,??DataTable70  ;; ??onTimerLED
        MOV      R2,#+0
        SWI      +297
        STRH     R0,[R7, #+4]
//  502                 offtimerLED=Timer_Set(cfg_ledend_time*1000,offTimerLED,0);
        LDR      R0,??OnCallManagerEvent_1+0xBC  ;; cfg_ledend_time
        MOV      R3,#+1000
        LDR      R0,[R0, #+0]
        MOV      R2,R4
        MUL      R0,R3,R0
        MOV      R1,R9
        SWI      +297
        STRH     R0,[R7, #+16]
//  503             }
//  504 
//  505             if(vibraminutetimer)
??OnCallManagerEvent_41:
        LDRH     R0,[R7, #+8]
        CMP      R0,#+0
        BEQ      ??OnCallManagerEvent_42
//  506             {
//  507                 Timer_Kill(&vibraminutetimer);
        ADD      R0,R7,#+8
        SWI      +298
//  508                 vibraminutetimer = 0;
        STRH     R4,[R7, #+8]
//  509             }
//  510             if(vibraNminutetimer)
??OnCallManagerEvent_42:
        LDRH     R0,[R7, #+10]
        CMP      R0,#+0
        BEQ      ??OnCallManagerEvent_43
//  511             {
//  512                 Timer_Kill(&vibraNminutetimer);
        ADD      R0,R7,#+10
        SWI      +298
//  513                 vibraNminutetimer = 0;
        STRH     R4,[R7, #+10]
//  514             }
//  515             if(rejectTimer)
??OnCallManagerEvent_43:
        LDRH     R0,[R7, #+20]
        CMP      R0,#+0
        BEQ      ??OnCallManagerEvent_44
//  516             {
//  517               Timer_Kill(&rejectTimer);
        ADD      R0,R7,#+20
        SWI      +298
//  518               rejectTimer = 0;
        STRH     R4,[R7, #+20]
//  519             }
//  520             if(muteTimer)
??OnCallManagerEvent_44:
        LDRH     R0,[R7, #+22]
        CMP      R0,#+0
        BEQ      ??OnCallManagerEvent_45
//  521             {
//  522               Timer_Kill(&muteTimer);
        ADD      R0,R7,#+22
        SWI      +298
//  523               muteTimer = 0;
        STRH     R4,[R7, #+22]
//  524             }
//  525             incom   = 0;
??OnCallManagerEvent_45:
        STR      R4,[R7, #+52]
//  526             connect = 0;
        STR      R4,[R7, #+56]
//  527             break;
//  528         }
//  529     }
//  530     return 1;
??OnCallManagerEvent_15:
        MOV      R0,#+1
        ADD      SP,SP,#+32
        CFI CFA R13+36
        POP      {R4-R11,PC}      ;; return
        DATA
??OnCallManagerEvent_1:
        DC32     cfg_screen
        DC32     cfg_led
        DC32     cfg_redled
        DC32     cfg_flash
        DC32     cfg_vibra
        DC32     cfg_flash_time
        DC32     cfg_redled_time
        DC32     cfg_led_time
        DC32     cfg_screen_time
        DC32     cfg_reject_time
        DC32     ??onRejectTimer
        DC32     cfg_mute_time
        DC32     ??onMuteTimer
        DC32     cfg_vibracon
        DC32     cfg_vibracon_time
        DC32     cfg_flashcon
        DC32     cfg_flashcon_time
        DC32     cfg_redledcon
        DC32     cfg_redledcon_time
        DC32     cfg_ledcon
        DC32     cfg_ledcon_time
        DC32     cfg_screencon
        DC32     cfg_screencon_time
        DC32     cfg_vibra_at_minute_end
        DC32     cfg_vibra_at_minute_end_lead
        DC32     cfg_vibra_at_n_minute_end
        DC32     ??onVibraNMinuteTimer
        DC32     cfg_vibra_at_n_minute_end_lead
        DC32     cfg_vibraon
        DC32     cfg_vibraon_time
        DC32     cfg_flashon
        DC32     cfg_flashon_time
        DC32     cfg_redledon
        DC32     cfg_redledon_time
        DC32     cfg_ledon
        DC32     cfg_ledon_time
        DC32     cfg_screenon
        DC32     cfg_screenon_time
        DC32     cfg_vibraend
        DC32     cfg_vibraend_time
        DC32     cfg_flashend
        DC32     cfg_flashend_time
        DC32     cfg_screenend
        DC32     cfg_screenend_time
        DC32     cfg_redledend
        DC32     cfg_redledend_time
        DC32     cfg_ledend
        DC32     cfg_ledend_time
        CFI EndBlock cfiBlock41
//  531 }

        RSEG CODE:CODE:NOROOT(2)
        DATA
??DataTable51:
        DC32     cfg_led_blink_speed

        RSEG CODE:CODE:NOROOT(2)
        DATA
??DataTable52:
        DC32     ??onTimerScreen

        RSEG CODE:CODE:NOROOT(2)
        DATA
??DataTable53:
        DC32     ??onTimerFlash

        RSEG CODE:CODE:NOROOT(2)
        DATA
??DataTable54:
        DC32     timerFlash

        RSEG CODE:CODE:NOROOT(2)
        DATA
??DataTable55:
        DC32     ??offTimerScreen

        RSEG CODE:CODE:NOROOT(2)
        DATA
??DataTable56:
        DC32     ??offTimerLED

        RSEG CODE:CODE:NOROOT(2)
        DATA
??DataTable57:
        DC32     ??offTimerREDLED

        RSEG CODE:CODE:NOROOT(2)
        DATA
??DataTable58:
        DC32     ??offTimerFlash

        RSEG CODE:CODE:NOROOT(2)
        DATA
??DataTable59:
        DC32     cfg_redled_ontime

        RSEG CODE:CODE:NOROOT(2)
        DATA
??DataTable60:
        DC32     cfg_screen_blink_speed

        RSEG CODE:CODE:NOROOT(2)
        DATA
??DataTable61:
        DC32     cfg_flash_blink_speed

        RSEG CODE:CODE:NOROOT(2)
        DATA
??DataTable66:
        DC32     ??onVibraMinuteTimer

        RSEG CODE:CODE:NOROOT(2)
        DATA
??DataTable69:
        DC32     ??onTimerREDLED

        RSEG CODE:CODE:NOROOT(2)
        DATA
??DataTable70:
        DC32     ??onTimerLED

        RSEG CODE:CODE:NOROOT(2)
        CFI Block cfiBlock42 Using cfiCommon0
        CFI NoFunction
        THUMB
??onReconfigElf??rT:
        BX       PC
        Nop      
        CFI EndBlock cfiBlock42
        REQUIRE ??onReconfigElf
//  532 

        RSEG CODE:CODE:NOROOT(2)
        CFI Block cfiBlock43 Using cfiCommon1
        CFI Function ??onReconfigElf
        ARM
//  533 static int onReconfigElf(void *mess ,BOOK *book)
//  534 {
??onReconfigElf:
        PUSH     {R4,R5,LR}
        CFI ?RET Frame(CFA, -4)
        CFI R5 Frame(CFA, -8)
        CFI R4 Frame(CFA, -12)
        CFI CFA R13+12
        MOV      R4,R0
//  535   RECONFIG_EVENT_DATA *reconf=(RECONFIG_EVENT_DATA *)mess;
//  536   int result=0;
//  537   if (wstrcmpi(reconf->path,successed_config_path)==0 && wstrcmpi(reconf->name,successed_config_name)==0)
        LDR      R0,??onReconfigElf_1  ;; successed_config_path
        MOV      R5,#+0
        LDR      R1,[R0, #+0]
        MOV      R0,R4
        SWI      +671
        CMP      R0,#+0
        BNE      ??onReconfigElf_2
        LDR      R0,??onReconfigElf_1+0x4  ;; successed_config_name
        LDR      R1,[R0, #+0]
        ADD      R0,R4,#+128
        SWI      +671
        CMP      R0,#+0
        BNE      ??onReconfigElf_2
//  538   {
//  539     InitConfig();
        _BLF     ??InitConfig,??InitConfig??rA
//  540     result=1;
        MOV      R5,#+1
//  541   }
//  542   return(result);
??onReconfigElf_2:
        MOV      R0,R5
        POP      {R4,R5,PC}       ;; return
        DATA
??onReconfigElf_1:
        DC32     successed_config_path
        DC32     successed_config_name
        CFI EndBlock cfiBlock43
//  543 }

        RSEG CODE:CODE:NOROOT(2)
        CFI Block cfiBlock44 Using cfiCommon0
        CFI NoFunction
        THUMB
??isChallengeBook??rT:
        BX       PC
        Nop      
        CFI EndBlock cfiBlock44
        REQUIRE ??isChallengeBook
//  544 

        RSEG DYN_PAGE:CONST:SORT:NOROOT(2)
//  545 const PAGE_MSG evtlist[] @ "DYN_PAGE"=
evtlist:
        DATA
        DC32 997, ??onExit, 998, ??onAbout, 996, ??onReconfigElf, 442
        DC32 ??OnCallManagerEvent, 459, ??Connect, 64, 0H

        RSEG DATA_C:CONST:SORT:NOROOT(2)
`?<Constant "Indication_Base_page">`:
        DATA
        DC8 "Indication_Base_page"
        DC8 0, 0, 0

        RSEG DATA_C:CONST:SORT:NOROOT(2)
`?<Constant "MTCallBook">`:
        DATA
        DC8 "MTCallBook"
        DC8 0

        RSEG DATA_C:CONST:SORT:NOROOT(2)
`?<Constant L"\\x49\\x6e\\x64\\x69\\x63\\x61\\x74\\x69\\`:
        DATA
        DC8 49H, 0, 6EH, 0, 64H, 0, 69H, 0
        DC8 63H, 0, 61H, 0, 74H, 0, 69H, 0
        DC8 6FH, 0, 6EH, 0, 20H, 0, 6FH, 0
        DC8 66H, 0, 20H, 0, 43H, 0, 61H, 0
        DC8 6CH, 0, 6CH, 0, 0AH, 0, 76H, 0
        DC8 32H, 0, 2EH, 0, 33H, 0, 0AH, 0
        DC8 0AH, 0, 28H, 0, 63H, 0, 29H, 0
        DC8 50H, 0, 6CH, 0, 6FH, 0, 69H, 0
        DC8 6BH, 0, 20H, 0, 26H, 0, 20H, 0
        DC8 42H, 0, 69H, 0, 67H, 0, 48H, 0
        DC8 65H, 0, 72H, 0, 63H, 0, 75H, 0
        DC8 6CH, 0, 65H, 0, 73H, 0, 0AH, 0
        DC8 0AH, 0, 52H, 0, 65H, 0, 73H, 0
        DC8 70H, 0, 65H, 0, 63H, 0, 74H, 0
        DC8 3AH, 0, 20H, 0, 53H, 0, 6CH, 0
        DC8 61H, 0, 77H, 0, 77H, 0, 61H, 0
        DC8 6EH, 0, 0, 0
//  546 {
//  547   ELF_TERMINATE_EVENT,      onExit,
//  548   ELF_SHOW_INFO_EVENT,      onAbout,
//  549   ELF_RECONFIG_EVENT,       onReconfigElf,
//  550   ON_CALLMANAGER_EVENT_TAG, OnCallManagerEvent,
//  551   ONGOINGCALL_CALL_CONNECTED_EVENT_TAG  ,Connect,
//  552   NIL_EVENT_TAG,            NULL
//  553 };
//  554 

        RSEG DATA_C:CONST:SORT:NOROOT(2)
`?<Constant L"\\x49\\x6e\\x64\\x69\\x63\\x61\\x74\\x69\\_1`:
        DATA
        DC8 49H, 0, 6EH, 0, 64H, 0, 69H, 0
        DC8 63H, 0, 61H, 0, 74H, 0, 69H, 0
        DC8 6FH, 0, 6EH, 0, 20H, 0, 6FH, 0
        DC8 66H, 0, 20H, 0, 43H, 0, 61H, 0
        DC8 6CH, 0, 6CH, 0, 0AH, 0, 43H, 4
        DC8 36H, 4, 35H, 4, 20H, 0, 37H, 4
        DC8 30H, 4, 3FH, 4, 43H, 4, 49H, 4
        DC8 35H, 4, 3DH, 4, 0, 0
        DC8 0, 0
        DC32 `?<Constant "Indication_Base_page">`, 0H, evtlist
//  555 const PAGE_DESC defaultpage = {"Indication_Base_page",0,evtlist};
//  556 

        RSEG CODE:CODE:NOROOT(2)
        CFI Block cfiBlock45 Using cfiCommon1
        CFI Function ??isChallengeBook
        ARM
//  557 int isChallengeBook(BOOK * book)
//  558 {
//  559         if(!strcmp(book->xbook->name,myappname)) return true;
??isChallengeBook:
        LDR      R1,??DataTable77  ;; myappname
        PUSH     {LR}
        CFI ?RET Frame(CFA, -4)
        CFI CFA R13+4
        LDR      R0,[R0, #+0]
        LDR      R0,[R0, #+4]
        SWI      +345
        CMP      R0,#+0
        MOVEQ    R0,#+1
        POPEQ    {PC}
//  560         return false;
        MOV      R0,#+0
        POP      {PC}             ;; return
        CFI EndBlock cfiBlock45
//  561 }

        RSEG CODE:CODE:NOROOT(2)
        CFI Block cfiBlock46 Using cfiCommon0
        CFI NoFunction
        THUMB
??main??rT:
        BX       PC
        Nop      
        CFI EndBlock cfiBlock46
        REQUIRE main
//  562 

        RSEG CODE:CODE:NOROOT(2)
        CFI Block cfiBlock47 Using cfiCommon1
        CFI Function main
        ARM
//  563 int main(wchar_t* filename)
//  564 {
main:
        PUSH     {R4-R7,LR}
        CFI ?RET Frame(CFA, -4)
        CFI R7 Frame(CFA, -8)
        CFI R6 Frame(CFA, -12)
        CFI R5 Frame(CFA, -16)
        CFI R4 Frame(CFA, -20)
        CFI CFA R13+20
//  565         if(FindBook(isChallengeBook))
        LDR      R4,??DataTable72  ;; ??elf_exit
        LDR      R5,??main_0      ;; `?<Constant L"\\x49\\x6e\\x64\\x69\\x63\\x61\\x74\\x69\\_1`
        MOV      R6,R0
        LDR      R0,??main_0+0x4  ;; ??isChallengeBook
        SWI      +304
        CMP      R0,#+0
        BEQ      ??main_1
//  566         {
//  567             #ifndef ENG
//  568                 MessageBox(EMPTY_TEXTID, STR("Indication of Call\n "), NOIMAGE, 1 ,5000, 0);
        MOV      R6,#+255
        ORR      R6,R6,#0xFF00
        MOV      R2,R6
        MOV      R1,#+0
        MOV      R0,R5
        SWI      +349
        MOV      R1,#+0
        PUSH     {R1}
        CFI CFA R13+24
        MOV      R3,#+1
        MOV      R2,R6
        MOV      R1,#+136
        ORR      R1,R1,#0x1300
        PUSH     {R1}
        CFI CFA R13+28
        MOV      R1,R0
        MVN      R0,#-1879048192
        SWI      +599
//  569             #else
//  570                 MessageBox(EMPTY_TEXTID, STR("Indication of Call\nalready runned"), NOIMAGE, 1 ,5000, 0);
//  571             #endif
//  572             SUBPROC(elf_exit);
        MOV      R0,R4
        SWI      +264
        ADD      SP,SP,#+8
        CFI CFA R13+20
        B        ??main_2
//  573         }
//  574         else
//  575         {
//  576             InitConfig();
??main_1:
        _BLF     ??InitConfig,??InitConfig??rA
//  577 
//  578             ModifyUIPageHook(VOLUMEUPKEY_SHORT_PRESS_EVENT,DisableUP,0,PAGE_HOOK_ADD_BEFORE);
        LDR      R0,??DataTable73  ;; VOLUMEUPKEY_SHORT_PRESS_EVENT
        LDR      R1,??DataTable74  ;; ??DisableUP
        LDR      R0,[R0, #+0]
        MOV      R3,#+1
        MOV      R2,#+0
        SWI      +272
//  579             ModifyUIPageHook(VOLUMEDOWNKEY_SHORT_PRESS_EVENT,DisableDOWN,0,PAGE_HOOK_ADD_BEFORE);		
        LDR      R0,??DataTable75  ;; VOLUMEDOWNKEY_SHORT_PRESS_EVENT
        LDR      R1,??DataTable76  ;; ??DisableDOWN
        LDR      R0,[R0, #+0]
        MOV      R3,#+1
        MOV      R2,#+0
        SWI      +272
//  580             BOOK *myBook = (BOOK*)malloc(sizeof(BOOK));
        MOV      R0,#+24
        SWI      +259
        MOV      R7,R0
//  581             memset(myBook,0,sizeof(BOOK));
        MOV      R2,#+24
        MOV      R1,#+0
        SWI      +274
//  582             if(!CreateBook(myBook,bookOnDestroy,&defaultpage,myappname,-1,0))
        LDR      R3,??DataTable77  ;; myappname
        LDR      R1,??main_0+0x8  ;; ??bookOnDestroy
        MOV      R0,#+0
        PUSH     {R0}
        CFI CFA R13+24
        ADD      R2,R5,#+64
        MVN      R0,R0
        PUSH     {R0}
        CFI CFA R13+28
        MOV      R0,R7
        SWI      +299
        CMP      R0,#+0
        ADD      SP,SP,#+8
        CFI CFA R13+20
        BNE      ??main_3
//  583             {
//  584               delete myBook;
        MOV      R0,R7
        _BLF     `??operator delete`,`??operator delete??rA`
//  585               SUBPROC(elf_exit);
        MOV      R0,R4
        SWI      +264
//  586               return 0;
??main_2:
        MOV      R0,#+0
        POP      {R4-R7,PC}
//  587             }
//  588 
//  589             if(!wstrwstr(filename,GetDir(DIR_ELFS_DAEMONS)))
??main_3:
        MOV      R0,#+18
        SWI      +261
        MOV      R1,R0
        MOV      R0,R6
        SWI      +670
        CMP      R0,#+0
        BNE      ??main_4
//  590               StatusIndication_ShowNotes(EMPTY_TEXTID);
        MVN      R0,#-1879048192
        SWI      +323
//  591         }
//  592         return 0;
??main_4:
        MOV      R0,#+0
        POP      {R4-R7,PC}       ;; return
        DATA
??main_0:
        DC32     `?<Constant L"\\x49\\x6e\\x64\\x69\\x63\\x61\\x74\\x69\\_1`
        DC32     ??isChallengeBook
        DC32     ??bookOnDestroy
        CFI EndBlock cfiBlock47
//  593 }

        RSEG CODE:CODE:NOROOT(2)
        DATA
??DataTable72:
        DC32     ??elf_exit

        RSEG CODE:CODE:NOROOT(2)
        DATA
??DataTable73:
        DC32     VOLUMEUPKEY_SHORT_PRESS_EVENT

        RSEG CODE:CODE:NOROOT(2)
        DATA
??DataTable74:
        DC32     ??DisableUP

        RSEG CODE:CODE:NOROOT(2)
        DATA
??DataTable75:
        DC32     VOLUMEDOWNKEY_SHORT_PRESS_EVENT

        RSEG CODE:CODE:NOROOT(2)
        DATA
??DataTable76:
        DC32     ??DisableDOWN

        RSEG CODE:CODE:NOROOT(2)
        DATA
??DataTable77:
        DC32     myappname

        RSEG CODE:CODE:NOROOT(2)
        CFI Block cfiBlock48 Using cfiCommon1
        CFI NoFunction
        ARM
??kill_data??rA:
        LDR      R12,??Subroutine24_0  ;; kill_data
        BX       R12
        DATA
??Subroutine24_0:
        DC32     kill_data
        CFI EndBlock cfiBlock48

        RSEG CODE:CODE:NOROOT(2)
        CFI Block cfiBlock49 Using cfiCommon1
        CFI NoFunction
        ARM
??InitConfig??rA:
        LDR      R12,??Subroutine25_0  ;; ??InitConfig
        BX       R12
        DATA
??Subroutine25_0:
        DC32     ??InitConfig
        CFI EndBlock cfiBlock49

        RSEG CODE:CODE:NOROOT(2)
        CFI Block cfiBlock50 Using cfiCommon1
        CFI NoFunction
        ARM
`??operator delete??rA`:
        LDR      R12,??Subroutine26_0  ;; `??operator delete`
        BX       R12
        DATA
??Subroutine26_0:
        DC32     `??operator delete`
        CFI EndBlock cfiBlock50

        RSEG DATA_ID:CONST:SORT:NOROOT(2)
`?<Initializer for timerFlash>`:
        DATA
        DC16 0
`?<Initializer for timerREDLED>`:
        DC16 0
`?<Initializer for timerLED>`:
        DC16 0
`?<Initializer for timerScreen>`:
        DC16 0
`?<Initializer for vibraminutetimer>`:
        DC16 0
`?<Initializer for vibraNminutetimer>`:
        DC16 0
`?<Initializer for offtimer>`:
        DC16 0
`?<Initializer for offtimerREDLED>`:
        DC16 0
`?<Initializer for offtimerLED>`:
        DC16 0
`?<Initializer for offtimerScreen>`:
        DC16 0
`?<Initializer for rejectTimer>`:
        DC16 0
`?<Initializer for muteTimer>`:
        DC16 0
`?<Initializer for LEDControl_W580>`:
        DC32 4529BFA9H
`?<Initializer for lamp>`:
        DC32 0
`?<Initializer for screen>`:
        DC32 0
`?<Initializer for REDLED>`:
        DC32 0
`?<Initializer for LED>`:
        DC32 0
`?<Initializer for LED580>`:
        DC32 1
`?<Initializer for LEDnum>`:
        DC32 2
`?<Initializer for incom>`:
        DC32 0
`?<Initializer for connect>`:
        DC32 0

        RSEG DATA_ID:CONST:SORT:NOROOT(2)
`?<Initializer for myappname>`:
        DATA
        DC8 "Indication of Call v.2.3"
        DC8 0, 0, 0

        RSEG INITTAB:CODE:ROOT(2)
        DATA
?init?tab?DATA_Z:
        DCD      sfe(DATA_Z) - sfb(DATA_Z), sfb(DATA_Z), sfb(DATA_Z)

        RSEG DATA_ID:CONST:SORT:NOROOT(2)
`?*?DATA_ID`:

        RSEG INITTAB:CODE:ROOT(2)
        DATA
?init?tab?DATA_I:
        DCD      sfe(DATA_I) - sfb(DATA_I), sfb(DATA_I), sfb(DATA_ID)

        END
//  594 
//  595 /*
//  596   Revision history.
//  597     2.3
//  598       +     /    . 
//  599           0 -  .
//  600     2.2
//  601       +    
//  602     2.1
//  603       +   AudioControl_Init
//  604       +   .
//  605     2.0.8
//  606       +   .
//  607     2.0.7
//  608       +   AudioControl_Vibrate  Vibra
//  609     2.0.5
//  610       +  //
//  611     2.0.4
//  612       +     .
//  613       +     .
//  614       +       
//  615       +       
//  616     2.0.3
//  617       +     .
//  618       +        W580
//  619     2.0.2
//  620       +     .
//  621       +    W580
//  622     2.0.1
//  623       +     .
//  624       +  
//  625       +  
//  626       +     
//  627     2.0 beta 3
//  628       +        
//  629     2.0 beta2
//  630       +    . (   Release_en)
//  631         !     .
//  632       +  ,    bcgf (DisableUP  DisableDOWN)
//  633     2.0 beta
//  634       +     (bcfg)
//  635 */
// 
// 5 420 bytes in segment CODE
//   244 bytes in segment DATA_C
//    88 bytes in segment DATA_I
//    88 bytes in segment DATA_ID
//     8 bytes in segment DATA_Z
//    48 bytes in segment DYN_PAGE
//    24 bytes in segment INITTAB
// 
// 5 288 bytes of CODE  memory (+ 156 bytes shared)
//   380 bytes of CONST memory
//    96 bytes of DATA  memory
//
//Errors: none
//Warnings: none
