//////////////////////////////////////////////////////////////////////////////
//                                                                           /
// IAR ARM ANSI C/C++ Compiler V4.42A/W32 EVALUATION   10/Jun/2013  23:04:20 /
// Copyright 1999-2005 IAR Systems. All rights reserved.                     /
//                                                                           /
//    Cpu mode        =  interwork                                           /
//    Endian          =  little                                              /
//    Stack alignment =  4                                                   /
//    Source file     =  Z:\home\perk11\www\perk11.info\svn\SE\Missed        /
//                       Events\Missed Events.c                              /
//    Command line    =  "Z:\home\perk11\www\perk11.info\svn\SE\Missed       /
//                       Events\Missed Events.c" -D NDEBUG -D OLDFUNCTIONS   /
//                       -lC "Z:\home\perk11\www\perk11.info\svn\SE\Missed   /
//                       Events\Release\List\" -lA                           /
//                       "Z:\home\perk11\www\perk11.info\svn\SE\Missed       /
//                       Events\Release\List\" -o                            /
//                       "Z:\home\perk11\www\perk11.info\svn\SE\Missed       /
//                       Events\Release\Obj\" -s9 --cpu_mode arm --endian    /
//                       little --cpu ARM926EJ-S --stack_align 4             /
//                       --interwork -e --enable_multibytes --fpu None       /
//                       --eec++ --dlib_config Z:\home\perk11\IAR2\arm\LIB\d /
//                       l5tpainl8n.h -I Z:\home\perk11\IAR2\arm\INC\        /
//                       --inline_threshold=2                                /
//    List file       =  Z:\home\perk11\www\perk11.info\svn\SE\Missed        /
//                       Events\Release\List\Missed Events.s79               /
//                                                                           /
//                                                                           /
//////////////////////////////////////////////////////////////////////////////

        NAME `Missed Events`

        RTMODEL "StackAlign4", "USED"
        RTMODEL "__cpu_mode", "__pcs__interwork"
        RTMODEL "__data_model", "absolute"
        RTMODEL "__endian", "little"
        RTMODEL "__rt_version", "6"

        RSEG CSTACK:DATA:NOROOT(2)

        ERROR
//NOTE: This module defines or uses C++ features that are not
//      accessible from assembler code. Assembling this file will
//      not produce an equivalent object file to the one produced
//      by the C++ compiler.

        PUBWEAK `?*?DATA_ID`
??DataTable0 EQU 0
??DataTable10 EQU 0
??DataTable11 EQU 0
??DataTable12 EQU 0
??DataTable13 EQU 0
??DataTable14 EQU 0
??DataTable15 EQU 0
??DataTable17 EQU 0
??DataTable18 EQU 0
??DataTable2 EQU 0
??DataTable20 EQU 0
??DataTable21 EQU 0
??DataTable22 EQU 0
??DataTable23 EQU 0
??DataTable24 EQU 0
??DataTable25 EQU 0
??DataTable26 EQU 0
??DataTable3 EQU 0
??DataTable33 EQU 0
??DataTable4 EQU 0
??DataTable40 EQU 0
??DataTable41 EQU 0
??DataTable42 EQU 0
??DataTable5 EQU 0
??DataTable6 EQU 0
??DataTable7 EQU 0
??DataTable8 EQU 0
??DataTable9 EQU 0
        MULTWEAK ??InitConfig??rA
        PUBLIC ??OnCallManagerEvent
        FUNCTION ??OnCallManagerEvent,0603H
        MULTWEAK ??OnCallManagerEvent??rT
        PUBLIC ??UpdateParams
        FUNCTION ??UpdateParams,0203H
        LOCFRAME CSTACK, 588, STACK
        MULTWEAK ??UpdateParams??rT
        PUBLIC ??atoi
        FUNCTION ??atoi,0203H
        LOCFRAME CSTACK, 4, STACK
        MULTWEAK ??atoi??rT
        PUBLIC ??bookOnDestroy
        FUNCTION ??bookOnDestroy,0603H
        LOCFRAME CSTACK, 8, STACK
        MULTWEAK ??bookOnDestroy??rT
        PUBLIC ??elf_exit
        FUNCTION ??elf_exit,0603H
        LOCFRAME CSTACK, 4, STACK
        MULTWEAK ??elf_exit??rT
        PUBLIC ??extractdir
        FUNCTION ??extractdir,0203H
        LOCFRAME CSTACK, 576, STACK
        MULTWEAK ??extractdir??rT
        PUBLIC ??isMissedEventsBook
        FUNCTION ??isMissedEventsBook,0603H
        LOCFRAME CSTACK, 4, STACK
        MULTWEAK ??isMissedEventsBook??rT
        MULTWEAK ??kill_data??rA
        MULTWEAK ??main??rT
        PUBLIC ??offModeTimer
        FUNCTION ??offModeTimer,0603H
        MULTWEAK ??offModeTimer??rT
        PUBLIC ??offTimerFlash
        FUNCTION ??offTimerFlash,0603H
        LOCFRAME CSTACK, 8, STACK
        MULTWEAK ??offTimerFlash??rT
        PUBLIC ??offTimerLED
        FUNCTION ??offTimerLED,0603H
        LOCFRAME CSTACK, 40, STACK
        MULTWEAK ??offTimerLED??rT
        PUBLIC ??offTimerREDLED
        FUNCTION ??offTimerREDLED,0603H
        LOCFRAME CSTACK, 12, STACK
        MULTWEAK ??offTimerREDLED??rT
        PUBLIC ??offTimerScreen
        FUNCTION ??offTimerScreen,0603H
        LOCFRAME CSTACK, 12, STACK
        MULTWEAK ??offTimerScreen??rT
        PUBLIC ??onAbout
        FUNCTION ??onAbout,0603H
        LOCFRAME CSTACK, 20, STACK
        MULTWEAK ??onAbout??rT
        PUBLIC ??onExit
        FUNCTION ??onExit,0603H
        LOCFRAME CSTACK, 4, STACK
        MULTWEAK ??onExit??rT
        FUNCTION ??onReconfigElf,0603H
        LOCFRAME CSTACK, 12, STACK
        PUBLIC ??onTimer
        FUNCTION ??onTimer,0603H
        LOCFRAME CSTACK, 52, STACK
        MULTWEAK ??onTimer??rT
        PUBLIC ??onTimerFlash
        FUNCTION ??onTimerFlash,0603H
        LOCFRAME CSTACK, 8, STACK
        MULTWEAK ??onTimerFlash??rT
        PUBLIC ??onTimerLED
        FUNCTION ??onTimerLED,0603H
        LOCFRAME CSTACK, 48, STACK
        MULTWEAK ??onTimerLED??rT
        PUBLIC ??onTimerREDLED
        FUNCTION ??onTimerREDLED,0603H
        LOCFRAME CSTACK, 16, STACK
        MULTWEAK ??onTimerREDLED??rT
        PUBLIC ??onTimerScreen
        FUNCTION ??onTimerScreen,0603H
        LOCFRAME CSTACK, 8, STACK
        MULTWEAK ??onTimerScreen??rT
        MULTWEAK `??operator delete??rA`
        PUBLIC ??splitfilename
        FUNCTION ??splitfilename,0203H
        LOCFRAME CSTACK, 24, STACK
        MULTWEAK ??splitfilename??rT
        PUBLIC ??str2int
        FUNCTION ??str2int,0203H
        LOCFRAME CSTACK, 4, STACK
        MULTWEAK ??str2int??rT
        MULTWEAK ??strncmpi??rA
        PUBLIC ??timecmp
        FUNCTION ??timecmp,0203H
        MULTWEAK ??timecmp??rT
        PUBWEAK ?init?tab?DATA_I
        PUBLIC LED
        PUBLIC LED580
        PUBLIC LEDControl_W580
        PUBLIC LEDnum
        PUBLIC REDLED
        PUBLIC cfg_filename
        PUBLIC cfg_filepath
        PUBLIC cfg_time1_flag
        PUBLIC cfg_time1_off
        PUBLIC cfg_time1_on
        PUBLIC cfg_time2_flag
        PUBLIC cfg_time2_off
        PUBLIC cfg_time2_on
        PUBLIC cfgmacro
        PUBLIC checkevents
        PUBLIC disabled
        PUBLIC disabled_by_mode
        PUBLIC flash_disabled_by_time
        PUBLIC lamp
        PUBLIC led_disabled_by_time
        PUBLIC main
        FUNCTION main,0a03H
        LOCFRAME CSTACK, 36, STACK
        PUBLIC modetimer
        PUBLIC number
        PUBLIC offtimer
        PUBLIC offtimerLED
        PUBLIC offtimerREDLED
        PUBLIC offtimerScreen
        PUBLIC redled_disabled_by_time
        PUBLIC screen
        PUBLIC screen_disabled_by_time
        PUBLIC skipevents
        PUBLIC sound_disabled_by_time
        PUBLIC state
        PUBLIC timer
        PUBLIC timerFlash
        PUBLIC timerLED
        PUBLIC timerREDLED
        PUBLIC timerScreen
        PUBLIC vibra_disabled_by_time
        
        CFI Names cfiNames0
        CFI StackFrame CFA R13 HUGEDATA
        CFI Resource R0:32, R1:32, R2:32, R3:32, R4:32, R5:32, R6:32, R7:32
        CFI Resource R8:32, R9:32, R10:32, R11:32, R12:32, CPSR:32, R13:32
        CFI Resource R14:32, SPSR:32
        CFI VirtualResource ?RET:32
        CFI EndNames cfiNames0
        
        CFI Common cfiCommon0 Using cfiNames0
        CFI CodeAlign 2
        CFI DataAlign 4
        CFI ReturnAddress ?RET CODE
        CFI CFA R13+0
        CFI R0 Undefined
        CFI R1 Undefined
        CFI R2 Undefined
        CFI R3 Undefined
        CFI R4 SameValue
        CFI R5 SameValue
        CFI R6 SameValue
        CFI R7 SameValue
        CFI R8 SameValue
        CFI R9 SameValue
        CFI R10 SameValue
        CFI R11 SameValue
        CFI R12 Undefined
        CFI CPSR SameValue
        CFI R14 Undefined
        CFI SPSR SameValue
        CFI ?RET R14
        CFI EndCommon cfiCommon0
        
        
        CFI Common cfiCommon1 Using cfiNames0
        CFI CodeAlign 4
        CFI DataAlign 4
        CFI ReturnAddress ?RET CODE
        CFI CFA R13+0
        CFI R0 Undefined
        CFI R1 Undefined
        CFI R2 Undefined
        CFI R3 Undefined
        CFI R4 SameValue
        CFI R5 SameValue
        CFI R6 SameValue
        CFI R7 SameValue
        CFI R8 SameValue
        CFI R9 SameValue
        CFI R10 SameValue
        CFI R11 SameValue
        CFI R12 Undefined
        CFI CPSR SameValue
        CFI R14 Undefined
        CFI SPSR SameValue
        CFI ?RET R14
        CFI EndCommon cfiCommon1
        



kill_data           SYMBOL "kill_data"
??InitConfig??rA    SYMBOL "??rA", ??InitConfig

??OnCallManagerEvent??rT SYMBOL "??rT", ??OnCallManagerEvent

??UpdateParams??rT  SYMBOL "??rT", ??UpdateParams

??atoi??rT          SYMBOL "??rT", ??atoi

??bookOnDestroy??rT SYMBOL "??rT", ??bookOnDestroy

??elf_exit??rT      SYMBOL "??rT", ??elf_exit

??extractdir??rT    SYMBOL "??rT", ??extractdir

??isMissedEventsBook??rT SYMBOL "??rT", ??isMissedEventsBook
??kill_data??rA     SYMBOL "??rA", kill_data
main                SYMBOL "main"
??main??rT          SYMBOL "??rT", main

??offModeTimer??rT  SYMBOL "??rT", ??offModeTimer

??offTimerFlash??rT SYMBOL "??rT", ??offTimerFlash

??offTimerLED??rT   SYMBOL "??rT", ??offTimerLED

??offTimerREDLED??rT SYMBOL "??rT", ??offTimerREDLED

??offTimerScreen??rT SYMBOL "??rT", ??offTimerScreen

??onAbout??rT       SYMBOL "??rT", ??onAbout

??onExit??rT        SYMBOL "??rT", ??onExit

??onTimer??rT       SYMBOL "??rT", ??onTimer

??onTimerFlash??rT  SYMBOL "??rT", ??onTimerFlash

??onTimerLED??rT    SYMBOL "??rT", ??onTimerLED

??onTimerREDLED??rT SYMBOL "??rT", ??onTimerREDLED

??onTimerScreen??rT SYMBOL "??rT", ??onTimerScreen
`??operator delete??rA` SYMBOL "??rA", `??operator delete`

??splitfilename??rT SYMBOL "??rT", ??splitfilename

??str2int??rT       SYMBOL "??rT", ??str2int
??strncmpi??rA      SYMBOL "??rA", ??strncmpi

??timecmp??rT       SYMBOL "??rT", ??timecmp

        EXTERN ??InitConfig
        FUNCTION ??InitConfig,0202H
        EXTERN `??operator delete`
        FUNCTION `??operator delete`,0202H
        EXTERN ??strncmpi
        FUNCTION ??strncmpi,0202H
        EXTERN ELF_BEGIN
        EXTERN SYNC
        EXTERN UI_SCREENSAVER_DEACTIVATE_EVENT
        EXTERN _ctypes_
        EXTERN cfg_checkperiod
        EXTERN cfg_duration
        EXTERN cfg_flash
        EXTERN cfg_flash_blink_speed
        EXTERN cfg_flash_time
        EXTERN cfg_led
        EXTERN cfg_led580_blink_mode
        EXTERN cfg_led580_color
        EXTERN cfg_led_blink_mode
        EXTERN cfg_led_blink_speed
        EXTERN cfg_led_time
        EXTERN cfg_mode
        EXTERN cfg_music_file
        EXTERN cfg_off_time1
        EXTERN cfg_off_time2
        EXTERN cfg_on_time1
        EXTERN cfg_on_time2
        EXTERN cfg_period
        EXTERN cfg_phone_type
        EXTERN cfg_pretime
        EXTERN cfg_redled
        EXTERN cfg_redled_offtime
        EXTERN cfg_redled_ontime
        EXTERN cfg_redled_time
        EXTERN cfg_screen
        EXTERN cfg_screen_blink_speed
        EXTERN cfg_screen_level
        EXTERN cfg_screen_time
        EXTERN cfg_silent
        EXTERN cfg_sound
        EXTERN cfg_time1_flash
        EXTERN cfg_time1_leds
        EXTERN cfg_time1_limit
        EXTERN cfg_time1_redled
        EXTERN cfg_time1_screen
        EXTERN cfg_time1_sound
        EXTERN cfg_time1_vibra
        EXTERN cfg_time2_flash
        EXTERN cfg_time2_leds
        EXTERN cfg_time2_limit
        EXTERN cfg_time2_redled
        EXTERN cfg_time2_screen
        EXTERN cfg_time2_sound
        EXTERN cfg_time2_vibra
        EXTERN cfg_vibra
        EXTERN cfg_vibra_time
        EXTERN kill_data
        FUNCTION kill_data,0202H
        EXTERN successed_config_name
        EXTERN successed_config_path


        RSEG CODE:CODE:NOROOT(2)
        CFI Block cfiBlock0 Using cfiCommon0
        CFI NoFunction
        THUMB
??atoi??rT:
        BX       PC
        Nop      
        CFI EndBlock cfiBlock0
        REQUIRE ??atoi
// Z:\home\perk11\www\perk11.info\svn\SE\Missed Events\Missed Events.c
//    1 #include "..\\include\Lib_Clara.h"
//    2 #include "..\\include\Dir.h"
//    3 #include "..\\include\cfg_items.h"
//    4 #include "conf_loader.h"
//    5 #include "config_data.h"
//    6 #include "util.h"

        RSEG CODE:CODE:NOROOT(2)
        CFI Block cfiBlock1 Using cfiCommon1
        CFI Function ??atoi
        ARM
// __??Code32?? __code __interwork __atpcs int atoi(char const *)
??atoi:
        LDR      R2,??DataTable1  ;; _ctypes_
        PUSH     {R4}
        CFI R4 Frame(CFA, -4)
        CFI CFA R13+4
        LDRB     R3,[R0, #+0]
        MOV      R1,#+0
        ADD      R3,R3,R2
        LDRB     R3,[R3, #+1]
        TST      R3,#0x8
        BNE      ??atoi_1
        B        ??atoi_2
??atoi_3:
        ADD      R0,R0,#+1
??atoi_1:
        LDRB     R3,[R0, #+0]
        ADD      R12,R2,#+1
        LDRB     R3,[R3, +R12]
        TST      R3,#0x8
        BNE      ??atoi_3
??atoi_2:
        LDRB     R3,[R0, #+0]
        CMP      R3,#+45
        MOVEQ    R12,#+1
        BEQ      ??atoi_4
        MOV      R12,#+0
        CMP      R3,#+43
        BNE      ??atoi_5
        B        ??atoi_4
??atoi_6:
        MOV      R4,#+10
        MLA      R1,R4,R1,R3
        SUB      R1,R1,#+48
??atoi_4:
        LDRB     R3,[R0, #+1]!
??atoi_5:
        ADD      R4,R3,R2
        LDRB     R4,[R4, #+1]
        TST      R4,#0x4
        BNE      ??atoi_6
        POP      {R4}
        CFI R4 SameValue
        CFI CFA R13+0
        CMP      R12,#+0
        RSBNE    R1,R1,#+0
        MOV      R0,R1
        BX       LR               ;; return
        CFI EndBlock cfiBlock1

        RSEG CODE:CODE:NOROOT(2)
        CFI Block cfiBlock2 Using cfiCommon0
        CFI NoFunction
        THUMB
??str2int??rT:
        BX       PC
        Nop      
        CFI EndBlock cfiBlock2
        REQUIRE ??str2int

        RSEG CODE:CODE:NOROOT(2)
        CFI Block cfiBlock3 Using cfiCommon1
        CFI Function ??str2int
        ARM
// __??Code32?? __code __interwork __atpcs int str2int(char *)
??str2int:
        PUSH     {R4}
        CFI R4 Frame(CFA, -4)
        CFI CFA R13+4
        LDR      R3,??DataTable1  ;; _ctypes_
        MOV      R1,R0
        LDRB     R12,[R1, #+0]
        MOV      R2,#+10
        MOV      R0,#+0
        ADD      R12,R12,R3
        LDRB     R12,[R12, #+1]
        TST      R12,#0x8
        BNE      ??str2int_1
        B        ??str2int_2
??str2int_3:
        ADD      R1,R1,#+1
??str2int_1:
        LDRB     R12,[R1, #+0]
        ADD      R4,R3,#+1
        LDRB     R4,[R12, +R4]
        TST      R4,#0x8
        BNE      ??str2int_3
??str2int_2:
        LDRB     R3,[R1, #+0]
        CMP      R3,#+36
        MOVEQ    R2,#+16
        ADDEQ    R1,R1,#+1
        BEQ      ??str2int_4
        CMP      R3,#+48
        LDRBEQ   R3,[R1, #+1]
        CMPEQ    R3,#+120
        BNE      ??str2int_4
        MOV      R2,#+16
        ADD      R1,R1,#+2
        B        ??str2int_4
??str2int_5:
        LDRB     R3,[R1], #+1
        SUB      R3,R3,#+48
        MLA      R0,R2,R0,R3
??str2int_4:
        LDRB     R3,[R1, #+0]
        CMP      R3,#+48
        BCC      ??str2int_6
        CMP      R3,#+58
        BCC      ??str2int_5
??str2int_6:
        CMP      R2,#+16
        BNE      ??str2int_7
        CMP      R3,#+0
        ORRSNE   R3,R3,#0x1
        BEQ      ??str2int_7
        LDRB     R3,[R1], #+1
        MVN      R4,#+54
        ORR      R3,R4,R3
        ADD      R0,R3,R0, LSL #+4
        B        ??str2int_4
??str2int_7:
        POP      {R4}
        CFI R4 SameValue
        CFI CFA R13+0
        BX       LR               ;; return
        CFI EndBlock cfiBlock3

        RSEG CODE:CODE:NOROOT(2)
        DATA
??DataTable1:
        DC32     _ctypes_

        RSEG CODE:CODE:NOROOT(2)
        CFI Block cfiBlock4 Using cfiCommon0
        CFI NoFunction
        THUMB
??splitfilename??rT:
        BX       PC
        Nop      
        CFI EndBlock cfiBlock4
        REQUIRE ??splitfilename

        RSEG CODE:CODE:NOROOT(2)
        CFI Block cfiBlock5 Using cfiCommon1
        CFI Function ??splitfilename
        ARM
// __??Code32?? __code __interwork __atpcs void splitfilename(wchar_t *, wchar_t *, wchar_t *)
??splitfilename:
        PUSH     {R4-R8,LR}
        CFI ?RET Frame(CFA, -4)
        CFI R8 Frame(CFA, -8)
        CFI R7 Frame(CFA, -12)
        CFI R6 Frame(CFA, -16)
        CFI R5 Frame(CFA, -20)
        CFI R4 Frame(CFA, -24)
        CFI CFA R13+24
        MOV      R4,R0
        MOV      R5,R1
        MOV      R6,R2
        MOV      R1,#+47
        SWI      +430
        MOV      R7,R0
        LSR      R0,R7,#+1
        SUB      R8,R0,R4, LSR #+1
        MOV      R2,R8
        MOV      R1,R4
        MOV      R0,R5
        SWI      +339
        ADD      R0,R5,R8, LSL #+1
        MOV      R1,#+0
        STRH     R1,[R0, #+0]
        ADD      R1,R7,#+2
        MOV      R0,R6
        SWI      +338
        POP      {R4-R8,PC}       ;; return
        CFI EndBlock cfiBlock5

        RSEG CODE:CODE:NOROOT(2)
        CFI Block cfiBlock6 Using cfiCommon0
        CFI NoFunction
        THUMB
??extractdir??rT:
        BX       PC
        Nop      
        CFI EndBlock cfiBlock6
        REQUIRE ??extractdir

        RSEG DATA_I:DATA:SORT:NOROOT(2)
// <unnamed> __data cfgmacro[9]
cfgmacro:
        DS8 72
        REQUIRE `?<Initializer for cfgmacro>`

        RSEG CODE:CODE:NOROOT(2)
        CFI Block cfiBlock7 Using cfiCommon1
        CFI Function ??extractdir
        ARM
// __??Code32?? __code __interwork __atpcs void extractdir(wchar_t *, wchar_t *, char const *)
??extractdir:
        PUSH     {R4-R10,LR}
        CFI ?RET Frame(CFA, -4)
        CFI R10 Frame(CFA, -8)
        CFI R9 Frame(CFA, -12)
        CFI R8 Frame(CFA, -16)
        CFI R7 Frame(CFA, -20)
        CFI R6 Frame(CFA, -24)
        CFI R5 Frame(CFA, -28)
        CFI R4 Frame(CFA, -32)
        CFI CFA R13+32
        SUB      SP,SP,#+544
        CFI CFA R13+576
        LDR      R9,??extractdir_1  ;; `?<Constant "%%%s_EXT%%">`
        LDR      R10,??extractdir_1+0x4  ;; cfgmacro
        MOV      R4,R0
        MOV      R5,R1
        MOV      R6,R2
        MOV      R8,#+0
        B        ??extractdir_2
??extractdir_3:
        ADD      R8,R8,#+1
??extractdir_2:
        CMP      R8,#+9
        BCS      ??extractdir_4
        LDR      R2,[R10, +R8, LSL #+3]
        ADD      R1,R9,#+12
        MOV      R0,SP
        SWI      +276
        MOV      R7,R0
        MOV      R2,R7
        MOV      R1,SP
        MOV      R0,R6
        _BLF     ??strncmpi,??strncmpi??rA
        CMP      R0,#+0
        BNE      ??extractdir_5
        ADD      R0,R10,R8, LSL #+3
        LDR      R0,[R0, #+4]
        ORR      R0,R0,#0x1
        B        ??extractdir_6
??extractdir_5:
        LDR      R2,[R10, +R8, LSL #+3]
        MOV      R1,R9
        MOV      R0,SP
        SWI      +276
        MOV      R7,R0
        MOV      R2,R7
        MOV      R1,SP
        MOV      R0,R6
        _BLF     ??strncmpi,??strncmpi??rA
        CMP      R0,#+0
        BNE      ??extractdir_3
        ADD      R0,R10,R8, LSL #+3
        LDR      R0,[R0, #+4]
??extractdir_6:
        ADD      R6,R7,R6
        CMN      R0,#+1
        BEQ      ??extractdir_4
        SWI      +261
        MOV      R1,R0
        ADD      R0,SP,#+32
        SWI      +338
        B        ??extractdir_7
??extractdir_4:
        MOV      R1,#+0
        STRH     R1,[SP, #+32]
??extractdir_7:
        ADD      R0,SP,#+32
        SWI      +343
        MOV      R1,R6
        ADD      R2,SP,#+32
        ADD      R0,R2,R0, LSL #+1
        SWI      +344
        MOV      R2,R5
        MOV      R1,R4
        ADD      R0,SP,#+32
        BL       ??splitfilename
        ADD      SP,SP,#+544
        CFI CFA R13+32
        POP      {R4-R10,PC}      ;; return
        DATA
??extractdir_1:
        DC32     `?<Constant "%%%s_EXT%%">`
        DC32     cfgmacro
        CFI EndBlock cfiBlock7

        RSEG CODE:CODE:NOROOT(2)
        CFI Block cfiBlock8 Using cfiCommon0
        CFI NoFunction
        THUMB
??timecmp??rT:
        BX       PC
        Nop      
        CFI EndBlock cfiBlock8
        REQUIRE ??timecmp
//    7 
//    8 #define ELFNAME "MissedEvents v.2.3"
//    9 #define LELFNAME L"Missed Events"
//   10 #define LELFVERSION L"\nv2.3\nby den_po\n\nMods: Ploik & BigHercules"
//   11 

        RSEG DATA_I:DATA:SORT:NOROOT(2)
//   12 void (*LEDControl_W580)(int,int id,int RED,int GREEN,int BLUE, int br, int delay)=(void (*)(int,int id,int RED,int GREEN,int BLUE,int br,int delay))(0x4529BFA9);
//   13 
//   14 #define COLOR_GET_A(x) ((unsigned int)x>>24)
//   15 #define COLOR_GET_R(x) (((unsigned int)x>>16)&0xFF)
//   16 #define COLOR_GET_G(x) (((unsigned int)x>>8)&0xFF)
//   17 #define COLOR_GET_B(x) ((unsigned int)x&0xFF)
//   18 
//   19 static char myappname[]=ELFNAME;
//   20 
//   21 bool disabled=false;
//   22 bool disabled_by_mode=false;
//   23 
//   24 bool sound_disabled_by_time = false;
//   25 bool vibra_disabled_by_time = false;
//   26 bool flash_disabled_by_time = false;
//   27 bool redled_disabled_by_time = false;
//   28 bool led_disabled_by_time = false;
//   29 bool screen_disabled_by_time = false;
//   30 
//   31 int lamp=0;
//   32 int screen=0;
//   33 
//   34 int REDLED=0;
//   35 int LED=0;
//   36 int LED580=1;
//   37 int LEDnum=2;
//   38 
//   39 wchar_t cfg_filepath[256];
//   40 wchar_t cfg_filename[256];
//   41 
//   42 u16 timerFlash = 0;
//   43 u16 timerScreen = 0;
//   44 u16 timerREDLED = 0;
//   45 u16 timerLED = 0;
//   46 u16 timer = 0;
//   47 u16 offtimer = 0;
//   48 u16 offtimerScreen = 0;
//   49 u16 offtimerLED = 0;
//   50 u16 offtimerREDLED = 0;
//   51 u16 modetimer = 0;
//   52 
//   53 int cfg_time1_flag = 1;
//   54 TIME cfg_time1_on   = {6,30,0,0};
cfg_time1_on:
        DS8 4
        REQUIRE `?<Initializer for cfg_time1_on>`
timerFlash:
        DS8 2
        REQUIRE `?<Initializer for timerFlash>`
timerScreen:
        DS8 2
        REQUIRE `?<Initializer for timerScreen>`
timerREDLED:
        DS8 2
        REQUIRE `?<Initializer for timerREDLED>`
timerLED:
        DS8 2
        REQUIRE `?<Initializer for timerLED>`
timer:
        DS8 2
        REQUIRE `?<Initializer for timer>`
offtimer:
        DS8 2
        REQUIRE `?<Initializer for offtimer>`
offtimerScreen:
        DS8 2
        REQUIRE `?<Initializer for offtimerScreen>`
offtimerLED:
        DS8 2
        REQUIRE `?<Initializer for offtimerLED>`
offtimerREDLED:
        DS8 2
        REQUIRE `?<Initializer for offtimerREDLED>`
modetimer:
        DS8 2
        REQUIRE `?<Initializer for modetimer>`
LEDControl_W580:
        DS8 4
        REQUIRE `?<Initializer for LEDControl_W580>`
lamp:
        DS8 4
        REQUIRE `?<Initializer for lamp>`
screen:
        DS8 4
        REQUIRE `?<Initializer for screen>`
REDLED:
        DS8 4
        REQUIRE `?<Initializer for REDLED>`
LED:
        DS8 4
        REQUIRE `?<Initializer for LED>`
LED580:
        DS8 4
        REQUIRE `?<Initializer for LED580>`
LEDnum:
        DS8 4
        REQUIRE `?<Initializer for LEDnum>`
cfg_time1_flag:
        DS8 4
        REQUIRE `?<Initializer for cfg_time1_flag>`
//   55 TIME cfg_time1_off  = {23,0,0,0};
//   56 
//   57 int cfg_time2_flag = 1;
cfg_time2_flag:
        DS8 4
        REQUIRE `?<Initializer for cfg_time2_flag>`
//   58 TIME cfg_time2_on   = {6,30,0,0};
//   59 TIME cfg_time2_off  = {23,0,0,0};
//   60 
//   61 int number = 0x7ffffff;
number:
        DS8 4
        REQUIRE `?<Initializer for number>`
//   62 
//   63 int skipevents;
skipevents:
        DS8 4
        REQUIRE `?<Initializer for skipevents>`
//   64 int checkevents;
checkevents:
        DS8 4
        REQUIRE `?<Initializer for checkevents>`
//   65 
//   66 enum
//   67 {
//   68   WAIT = 0,
//   69   MISS = 1
//   70 };
//   71 
//   72 int state = WAIT;
state:
        DS8 4
        REQUIRE `?<Initializer for state>`
disabled:
        DS8 1
        REQUIRE `?<Initializer for disabled>`
disabled_by_mode:
        DS8 1
        REQUIRE `?<Initializer for disabled_by_mode>`
sound_disabled_by_time:
        DS8 1
        REQUIRE `?<Initializer for sound_disabled_by_time>`
vibra_disabled_by_time:
        DS8 1
        REQUIRE `?<Initializer for vibra_disabled_by_time>`
flash_disabled_by_time:
        DS8 1
        REQUIRE `?<Initializer for flash_disabled_by_time>`
redled_disabled_by_time:
        DS8 1
        REQUIRE `?<Initializer for redled_disabled_by_time>`
led_disabled_by_time:
        DS8 1
        REQUIRE `?<Initializer for led_disabled_by_time>`
screen_disabled_by_time:
        DS8 1
        REQUIRE `?<Initializer for screen_disabled_by_time>`
        DS8 20
        REQUIRE `?<Initializer for myappname>`
cfg_filepath:
        DS8 512
        REQUIRE `?<Initializer for cfg_filepath>`
cfg_filename:
        DS8 512
        REQUIRE `?<Initializer for cfg_filename>`

        RSEG DATA_I:DATA:SORT:NOROOT(2)
cfg_time1_off:
        DS8 4
        REQUIRE `?<Initializer for cfg_time1_off>`

        RSEG DATA_I:DATA:SORT:NOROOT(2)
cfg_time2_on:
        DS8 4
        REQUIRE `?<Initializer for cfg_time2_on>`

        RSEG DATA_I:DATA:SORT:NOROOT(2)
cfg_time2_off:
        DS8 4
        REQUIRE `?<Initializer for cfg_time2_off>`
//   73 

        RSEG CODE:CODE:NOROOT(2)
        CFI Block cfiBlock9 Using cfiCommon1
        CFI Function ??timecmp
        ARM
//   74 int timecmp(const TIME *t1, const TIME *t2)
//   75 {
//   76     if(t1->hour > t2->hour) return 1;
??timecmp:
        LDRB     R2,[R0, #+0]
        LDRB     R3,[R1, #+0]
        CMP      R3,R2
        BCS      ??timecmp_1
??timecmp_2:
        MOV      R0,#+1
        BX       LR
//   77     if(t1->hour < t2->hour) return -1;
??timecmp_1:
        CMP      R2,R3
        BCC      ??timecmp_3
//   78     if(t1->min > t2->min) return 1;
        LDRB     R0,[R0, #+1]
        LDRB     R1,[R1, #+1]
        CMP      R1,R0
        BCC      ??timecmp_2
//   79     if(t1->min < t2->min) return -1;
        CMP      R0,R1
        BCS      ??timecmp_4
??timecmp_3:
        MVN      R0,#+0
        BX       LR
//   80     return 0;
??timecmp_4:
        MOV      R0,#+0
        BX       LR               ;; return
        CFI EndBlock cfiBlock9
//   81 }

        RSEG CODE:CODE:NOROOT(2)
        CFI Block cfiBlock10 Using cfiCommon0
        CFI NoFunction
        THUMB
??onTimerREDLED??rT:
        BX       PC
        Nop      
        CFI EndBlock cfiBlock10
        REQUIRE ??onTimerREDLED
//   82 

        RSEG CODE:CODE:NOROOT(2)
        CFI Block cfiBlock11 Using cfiCommon1
        CFI Function ??onTimerREDLED
        ARM
//   83 void onTimerREDLED(u16 timerID, LPARAM lparam)
//   84 {
??onTimerREDLED:
        PUSH     {R4-R6,LR}
        CFI ?RET Frame(CFA, -4)
        CFI R6 Frame(CFA, -8)
        CFI R5 Frame(CFA, -12)
        CFI R4 Frame(CFA, -16)
        CFI CFA R13+16
//   85   if(REDLED == 0)
        LDR      R4,??DataTable32  ;; ??onTimerREDLED
        LDR      R6,??DataTable43  ;; cfg_time1_on
        MOV      R5,#+0
        LDR      R0,[R6, #+36]
        CMP      R0,#+0
        BNE      ??onTimerREDLED_1
//   86   {
//   87     REDLED = 1;
        MOV      R0,#+1
        STR      R0,[R6, #+36]
//   88     RedLED_On(0);
        MOV      R0,#+0
        SWI      +775
//   89     Timer_ReSet(&timerREDLED,cfg_redled_ontime,onTimerREDLED,0);
        LDR      R0,??onTimerREDLED_2  ;; cfg_redled_ontime
        B        ??onTimerREDLED_3
//   90   }
//   91   else
//   92   {
//   93     REDLED = 0;
??onTimerREDLED_1:
        STR      R5,[R6, #+36]
//   94     RedLED_Off(0);
        MOV      R0,#+0
        SWI      +776
//   95     Timer_ReSet(&timerREDLED,cfg_redled_offtime,onTimerREDLED,0);
        LDR      R0,??onTimerREDLED_2+0x4  ;; cfg_redled_offtime
??onTimerREDLED_3:
        MOV      R3,R5
        MOV      R2,R4
        LDR      R1,[R0, #+0]
        ADD      R0,R6,#+8
        SWI      +296
//   96   }
//   97 }
        POP      {R4-R6,PC}       ;; return
        DATA
??onTimerREDLED_2:
        DC32     cfg_redled_ontime
        DC32     cfg_redled_offtime
        CFI EndBlock cfiBlock11

        RSEG CODE:CODE:NOROOT(2)
        CFI Block cfiBlock12 Using cfiCommon0
        CFI NoFunction
        THUMB
??onTimerLED??rT:
        BX       PC
        Nop      
        CFI EndBlock cfiBlock12
        REQUIRE ??onTimerLED
//   98 

        RSEG CODE:CODE:NOROOT(2)
        CFI Block cfiBlock13 Using cfiCommon1
        CFI Function ??onTimerLED
        ARM
//   99 void onTimerLED(u16 timerID, LPARAM lparam)
//  100 {
//  101   if(cfg_phone_type == 1)
??onTimerLED:
        LDR      R0,??onTimerLED_1  ;; cfg_led_blink_speed
        LDR      R2,??DataTable31  ;; ??onTimerLED
        PUSH     {R4-R7,LR}
        CFI ?RET Frame(CFA, -4)
        CFI R7 Frame(CFA, -8)
        CFI R6 Frame(CFA, -12)
        CFI R5 Frame(CFA, -16)
        CFI R4 Frame(CFA, -20)
        CFI CFA R13+20
        LDR      R4,??DataTable43  ;; cfg_time1_on
        SUB      SP,SP,#+4
        CFI CFA R13+24
        LDR      R5,[R0, #+0]
        LDR      R0,??DataTable16  ;; cfg_phone_type
        MOV      R3,#+0
        LDR      R0,[R0, #+0]
        CMP      R0,#+1
        BNE      ??onTimerLED_2
//  102   {
//  103     Timer_ReSet(&timerLED,cfg_led_blink_speed,onTimerLED,0);
        MOV      R1,R5
        ADD      R0,R4,#+10
        SWI      +296
//  104     if (cfg_led580_blink_mode == 2)
        LDR      R0,??onTimerLED_1+0x4  ;; cfg_led580_color
        MOV      R1,#+255
        LDR      R0,[R0, #+0]
        AND      R5,R1,R0, LSR #+16
        AND      R6,R1,R0, LSR #+8
        AND      R7,R0,#0xFF
        LDR      R0,??onTimerLED_1+0x8  ;; cfg_led580_blink_mode
        LDR      R1,[R0, #+0]
        LDR      R0,[R4, #+44]
        CMP      R1,#+2
        EOR      R0,R0,#0x1
        STR      R0,[R4, #+44]
        PUSH     {R0}
        CFI CFA R13+28
        MOV      R0,#+0
        PUSH     {R0}
        CFI CFA R13+32
        BNE      ??onTimerLED_3
//  105     {
//  106       LEDControl_W580(1, 0, COLOR_GET_R(cfg_led580_color),COLOR_GET_G(cfg_led580_color),COLOR_GET_B(cfg_led580_color),0,LED580 ^= 1);
        MOV      R0,R7
        PUSH     {R0}
        CFI CFA R13+36
        LDR      R12,[R4, #+24]
        MOV      R3,R6
        MOV      R2,R5
        MOV      R1,#+0
        MOV      R0,#+1
        BLX      R12
//  107       LEDControl_W580(1, 1, COLOR_GET_R(cfg_led580_color),COLOR_GET_G(cfg_led580_color),COLOR_GET_B(cfg_led580_color),0,LED580);
        LDR      R0,[R4, #+44]
        MOV      R3,R6
        PUSH     {R0}
        CFI CFA R13+40
        MOV      R2,R5
        MOV      R1,#+1
        MOV      R0,#+0
        PUSH     {R0}
        CFI CFA R13+44
        PUSH     {R7}
        CFI CFA R13+48
        LDR      R4,[R4, #+24]
        MOV      R0,#+1
        BLX      R4
        ADD      SP,SP,#+24
        CFI CFA R13+24
        POP      {R0,R4-R7,PC}
        CFI CFA R13+32
//  108     }
//  109     else
//  110     {
//  111       LEDControl_W580(1, cfg_led580_blink_mode, COLOR_GET_R(cfg_led580_color),COLOR_GET_G(cfg_led580_color),COLOR_GET_B(cfg_led580_color),0,LED580 ^= 1);
??onTimerLED_3:
        PUSH     {R7}
        CFI CFA R13+36
        LDR      R4,[R4, #+24]
        MOV      R3,R6
        MOV      R2,R5
        MOV      R0,#+1
        BLX      R4
        ADD      SP,SP,#+12
        CFI CFA R13+24
        POP      {R0,R4-R7,PC}
//  112     }
//  113   }
//  114   else if(cfg_phone_type == 2)
??onTimerLED_2:
        CMP      R0,#+2
        POPNE    {R0,R4-R7,PC}
//  115   {
//  116     Timer_ReSet(&timerLED,100,onTimerLED,0);
        MOV      R1,#+100
        ADD      R0,R4,#+10
        SWI      +296
//  117     if (cfg_led_blink_mode)
        LDR      R0,??onTimerLED_1+0xC  ;; cfg_led_blink_mode
        LDR      R0,[R0, #+0]
        CMP      R0,#+0
        BEQ      ??onTimerLED_4
//  118     {
//  119       OrangeLED_Control(1,LEDnum,0,cfg_led_blink_speed);
        LDR      R1,[R4, #+48]
        MOV      R3,R5
        MOV      R2,#+0
        MOV      R0,#+1
        SWI      +732
//  120       if (LEDnum == 2) LEDnum=0;
        LDR      R0,[R4, #+48]
//  121       else LEDnum++;
//  122       OrangeLED_Control(1,LEDnum,100,cfg_led_blink_speed);
        MOV      R3,R5
        CMP      R0,#+2
        MOVEQ    R1,#+0
        ADDNE    R1,R0,#+1
        STR      R1,[R4, #+48]
        MOV      R2,#+100
        B        ??onTimerLED_5
//  123     }
//  124     else
//  125       OrangeLED_Control(1,0,LED^=0x64,cfg_led_blink_speed);
??onTimerLED_4:
        LDR      R0,[R4, #+40]
        MOV      R3,R5
        EOR      R2,R0,#0x64
        STR      R2,[R4, #+40]
        MOV      R1,#+0
??onTimerLED_5:
        MOV      R0,#+1
        SWI      +732
//  126   }
//  127 }
        POP      {R0,R4-R7,PC}    ;; return
        DATA
??onTimerLED_1:
        DC32     cfg_led_blink_speed
        DC32     cfg_led580_color
        DC32     cfg_led580_blink_mode
        DC32     cfg_led_blink_mode
        CFI EndBlock cfiBlock13

        RSEG CODE:CODE:NOROOT(2)
        CFI Block cfiBlock14 Using cfiCommon0
        CFI NoFunction
        THUMB
??onTimerFlash??rT:
        BX       PC
        Nop      
        CFI EndBlock cfiBlock14
        REQUIRE ??onTimerFlash
//  128 

        RSEG CODE:CODE:NOROOT(2)
        CFI Block cfiBlock15 Using cfiCommon1
        CFI Function ??onTimerFlash
        ARM
//  129 void onTimerFlash(u16 timerID, LPARAM lparam)
//  130 {
??onTimerFlash:
        PUSH     {R4,LR}
        CFI ?RET Frame(CFA, -4)
        CFI R4 Frame(CFA, -8)
        CFI CFA R13+8
//  131   switch(GetChipID()&CHIPID_MASK)
        LDR      R4,??DataTable43  ;; cfg_time1_on
        SWI      +590
        AND      R0,R0,#0xFE00
        SUBS     R0,R0,#+28672
        SUBSNE   R0,R0,#+4096
        BEQ      ??onTimerFlash_1
        SUBS     R0,R0,#+6144
        BEQ      ??onTimerFlash_2
        B        ??onTimerFlash_3
//  132   {
//  133    case CHIPID_DB2000:
//  134    case CHIPID_DB2010:
//  135    {
//  136     SetLampLevel(lamp^=0x50);
??onTimerFlash_1:
        LDR      R0,[R4, #+28]
        EOR      R0,R0,#0x50
        B        ??onTimerFlash_4
//  137    }
//  138    break;
//  139    case CHIPID_DB2020:
//  140    {
//  141     SetLampLevel(lamp^=1);
??onTimerFlash_2:
        LDR      R0,[R4, #+28]
        EOR      R0,R0,#0x1
??onTimerFlash_4:
        STR      R0,[R4, #+28]
        SWI      +376
//  142    }
//  143    break;
//  144   }
//  145   Timer_ReSet(&timerFlash,cfg_flash_blink_speed,onTimerFlash,0);
??onTimerFlash_3:
        LDR      R0,??DataTable27  ;; cfg_flash_blink_speed
        LDR      R2,??DataTable28  ;; ??onTimerFlash
        LDR      R1,[R0, #+0]
        MOV      R3,#+0
        ADD      R0,R4,#+4
        SWI      +296
//  146 }
        POP      {R4,PC}          ;; return
        CFI EndBlock cfiBlock15

        RSEG CODE:CODE:NOROOT(2)
        CFI Block cfiBlock16 Using cfiCommon0
        CFI NoFunction
        THUMB
??onTimerScreen??rT:
        BX       PC
        Nop      
        CFI EndBlock cfiBlock16
        REQUIRE ??onTimerScreen
//  147 

        RSEG CODE:CODE:NOROOT(2)
        CFI Block cfiBlock17 Using cfiCommon1
        CFI Function ??onTimerScreen
        ARM
//  148 void onTimerScreen(u16 timerID, LPARAM lparam)
//  149 {
//  150     IndicationDevice_Backlight_FadeToLevel(0,screen ^= cfg_screen_level);
??onTimerScreen:
        LDR      R1,??DataTable19  ;; cfg_screen_level
        PUSH     {R4,LR}
        CFI ?RET Frame(CFA, -4)
        CFI R4 Frame(CFA, -8)
        CFI CFA R13+8
        LDR      R1,[R1, #+0]
        LDR      R4,??DataTable43  ;; cfg_time1_on
        LDR      R0,[R4, #+32]
        EOR      R1,R1,R0
        STR      R1,[R4, #+32]
        MOV      R0,#+0
        SWI      +367
//  151     Timer_ReSet(&timerScreen,cfg_screen_blink_speed,onTimerScreen,0);
        LDR      R0,??DataTable29  ;; cfg_screen_blink_speed
        LDR      R2,??DataTable30  ;; ??onTimerScreen
        LDR      R1,[R0, #+0]
        MOV      R3,#+0
        ADD      R0,R4,#+6
        SWI      +296
//  152 }
        POP      {R4,PC}          ;; return
        CFI EndBlock cfiBlock17

        RSEG CODE:CODE:NOROOT(2)
        CFI Block cfiBlock18 Using cfiCommon0
        CFI NoFunction
        THUMB
??offTimerREDLED??rT:
        BX       PC
        Nop      
        CFI EndBlock cfiBlock18
        REQUIRE ??offTimerREDLED
//  153 

        RSEG CODE:CODE:NOROOT(2)
        CFI Block cfiBlock19 Using cfiCommon1
        CFI Function ??offTimerREDLED
        ARM
//  154 void offTimerREDLED(u16 timerID, LPARAM lparam)
//  155 {
??offTimerREDLED:
        PUSH     {R4,R5,LR}
        CFI ?RET Frame(CFA, -4)
        CFI R5 Frame(CFA, -8)
        CFI R4 Frame(CFA, -12)
        CFI CFA R13+12
//  156    if(timerREDLED)
        LDR      R5,??DataTable43  ;; cfg_time1_on
        MOV      R4,#+0
        LDRH     R0,[R5, #+8]
        CMP      R0,#+0
        BEQ      ??offTimerREDLED_1
//  157    {
//  158      Timer_Kill(&timerREDLED);
        ADD      R0,R5,#+8
        SWI      +298
//  159      timerREDLED = 0;
        STRH     R4,[R5, #+8]
//  160      RedLED_Off(0);
        MOV      R0,#+0
        SWI      +776
//  161    }
//  162    REDLED = 0;
??offTimerREDLED_1:
        STR      R4,[R5, #+36]
//  163 }
        POP      {R4,R5,PC}       ;; return
        CFI EndBlock cfiBlock19

        RSEG CODE:CODE:NOROOT(2)
        CFI Block cfiBlock20 Using cfiCommon0
        CFI NoFunction
        THUMB
??offTimerLED??rT:
        BX       PC
        Nop      
        CFI EndBlock cfiBlock20
        REQUIRE ??offTimerLED
//  164 

        RSEG CODE:CODE:NOROOT(2)
        CFI Block cfiBlock21 Using cfiCommon1
        CFI Function ??offTimerLED
        ARM
//  165 void offTimerLED(u16 timerID, LPARAM lparam)
//  166 {
??offTimerLED:
        PUSH     {R4-R6,LR}
        CFI ?RET Frame(CFA, -4)
        CFI R6 Frame(CFA, -8)
        CFI R5 Frame(CFA, -12)
        CFI R4 Frame(CFA, -16)
        CFI CFA R13+16
//  167    if(timerLED)
        LDR      R5,??DataTable43  ;; cfg_time1_on
        MOV      R4,#+0
        LDRH     R0,[R5, #+10]
        CMP      R0,#+0
        BEQ      ??offTimerLED_1
//  168    {
//  169      Timer_Kill(&timerLED);
        ADD      R0,R5,#+10
        SWI      +298
//  170      timerLED = 0;
        STRH     R4,[R5, #+10]
//  171    }
//  172    if(cfg_phone_type == 1)
??offTimerLED_1:
        LDR      R0,??DataTable16  ;; cfg_phone_type
        LDR      R0,[R0, #+0]
        CMP      R0,#+1
        BNE      ??offTimerLED_2
//  173    {
//  174      LEDControl_W580(1,0,0,0,0,0,1);
        PUSH     {R0}
        CFI CFA R13+20
        MOV      R0,#+0
        PUSH     {R0}
        CFI CFA R13+24
        PUSH     {R0}
        CFI CFA R13+28
        LDR      R6,[R5, #+24]
        MOV      R3,R0
        MOV      R2,R0
        MOV      R1,R0
        MOV      R0,#+1
        BLX      R6
//  175      LEDControl_W580(1,1,0,0,0,0,1);
        MOV      R0,#+1
        PUSH     {R0}
        CFI CFA R13+32
        MOV      R1,#+1
        MOV      R0,R4
        PUSH     {R0}
        CFI CFA R13+36
        PUSH     {R0}
        CFI CFA R13+40
        LDR      R6,[R5, #+24]
        MOV      R3,R0
        MOV      R2,R0
        MOV      R0,R1
        BLX      R6
        ADD      SP,SP,#+24
        CFI CFA R13+16
        B        ??offTimerLED_3
//  176    }
//  177    else if(cfg_phone_type == 2)
??offTimerLED_2:
        CMP      R0,#+2
        BNE      ??offTimerLED_3
//  178    {
//  179      for(int i=0;i<3;i++)
        MOV      R6,#+0
//  180      OrangeLED_Control(1,i,0,50);
??offTimerLED_4:
        MOV      R3,#+50
        MOV      R2,#+0
        MOV      R1,R6
        MOV      R0,#+1
        SWI      +732
        ADD      R6,R6,#+1
        CMP      R6,#+3
        BLT      ??offTimerLED_4
//  181    }
//  182    LEDnum = 0;
??offTimerLED_3:
        STR      R4,[R5, #+48]
//  183    LED    = 0;
        STR      R4,[R5, #+40]
//  184    LED580 = 1;
        MOV      R0,#+1
        STR      R0,[R5, #+44]
//  185 }
        POP      {R4-R6,PC}       ;; return
        CFI EndBlock cfiBlock21

        RSEG CODE:CODE:NOROOT(2)
        DATA
??DataTable16:
        DC32     cfg_phone_type

        RSEG CODE:CODE:NOROOT(2)
        CFI Block cfiBlock22 Using cfiCommon0
        CFI NoFunction
        THUMB
??offTimerFlash??rT:
        BX       PC
        Nop      
        CFI EndBlock cfiBlock22
        REQUIRE ??offTimerFlash
//  186 

        RSEG CODE:CODE:NOROOT(2)
        CFI Block cfiBlock23 Using cfiCommon1
        CFI Function ??offTimerFlash
        ARM
//  187 void offTimerFlash(u16 timerID, LPARAM lparam)
//  188 {
??offTimerFlash:
        PUSH     {R4,LR}
        CFI ?RET Frame(CFA, -4)
        CFI R4 Frame(CFA, -8)
        CFI CFA R13+8
//  189   if(timerFlash)
        LDR      R4,??DataTable43  ;; cfg_time1_on
        LDRH     R0,[R4, #+4]
        CMP      R0,#+0
        POPEQ    {R4,PC}
//  190   {
//  191     Timer_Kill(&timerFlash);
        ADD      R0,R4,#+4
        SWI      +298
//  192     timerFlash = 0;
        MOV      R0,#+0
        STRH     R0,[R4, #+4]
//  193     SetLampLevel(0);
        SWI      +376
//  194   }
//  195 }
        POP      {R4,PC}          ;; return
        CFI EndBlock cfiBlock23

        RSEG CODE:CODE:NOROOT(2)
        CFI Block cfiBlock24 Using cfiCommon0
        CFI NoFunction
        THUMB
??offTimerScreen??rT:
        BX       PC
        Nop      
        CFI EndBlock cfiBlock24
        REQUIRE ??offTimerScreen
//  196 

        RSEG CODE:CODE:NOROOT(2)
        CFI Block cfiBlock25 Using cfiCommon1
        CFI Function ??offTimerScreen
        ARM
//  197 void offTimerScreen(u16 timerID, LPARAM lparam)
//  198 {
??offTimerScreen:
        PUSH     {R4,R5,LR}
        CFI ?RET Frame(CFA, -4)
        CFI R5 Frame(CFA, -8)
        CFI R4 Frame(CFA, -12)
        CFI CFA R13+12
//  199   if(timerScreen)
        LDR      R5,??DataTable43  ;; cfg_time1_on
        MOV      R4,#+0
        LDRH     R0,[R5, #+6]
        CMP      R0,#+0
        BEQ      ??offTimerScreen_1
//  200   {
//  201     Timer_Kill(&timerScreen);
        ADD      R0,R5,#+6
        SWI      +298
//  202     IndicationDevice_Backlight_FadeToLevel(0,cfg_screen_level);
        LDR      R0,??DataTable19  ;; cfg_screen_level
        LDR      R1,[R0, #+0]
        MOV      R0,#+0
        SWI      +367
//  203     timerScreen = 0;
        STRH     R4,[R5, #+6]
//  204   }
//  205   screen = 0;
??offTimerScreen_1:
        STR      R4,[R5, #+32]
//  206 }
        POP      {R4,R5,PC}       ;; return
        CFI EndBlock cfiBlock25

        RSEG CODE:CODE:NOROOT(2)
        DATA
??DataTable19:
        DC32     cfg_screen_level

        RSEG CODE:CODE:NOROOT(2)
        CFI Block cfiBlock26 Using cfiCommon0
        CFI NoFunction
        THUMB
??offModeTimer??rT:
        BX       PC
        Nop      
        CFI EndBlock cfiBlock26
        REQUIRE ??offModeTimer
//  207 

        RSEG CODE:CODE:NOROOT(2)
        CFI Block cfiBlock27 Using cfiCommon1
        CFI Function ??offModeTimer
        ARM
//  208 void offModeTimer(u16 timerID, LPARAM lparam)
//  209 {
//  210     disabled_by_mode = true;
??offModeTimer:
        LDR      R0,??offModeTimer_1  ;; cfg_time1_on + 77
        MOV      R1,#+1
        STRB     R1,[R0, #+0]
//  211 }
        BX       LR               ;; return
        DATA
??offModeTimer_1:
        DC32     cfg_time1_on + 77
        CFI EndBlock cfiBlock27

        RSEG CODE:CODE:NOROOT(2)
        CFI Block cfiBlock28 Using cfiCommon0
        CFI NoFunction
        THUMB
??onTimer??rT:
        BX       PC
        Nop      
        CFI EndBlock cfiBlock28
        REQUIRE ??onTimer
//  212 

        RSEG CODE:CODE:NOROOT(2)
        CFI Block cfiBlock29 Using cfiCommon1
        CFI Function ??onTimer
        ARM
//  213 void onTimer(u16 timerID, LPARAM lparam)
//  214 {
??onTimer:
        PUSH     {R4-R11,LR}
        CFI ?RET Frame(CFA, -4)
        CFI R11 Frame(CFA, -8)
        CFI R10 Frame(CFA, -12)
        CFI R9 Frame(CFA, -16)
        CFI R8 Frame(CFA, -20)
        CFI R7 Frame(CFA, -24)
        CFI R6 Frame(CFA, -28)
        CFI R5 Frame(CFA, -32)
        CFI R4 Frame(CFA, -36)
        CFI CFA R13+36
//  215     bool time1_limit = false;
//  216     bool time2_limit = false;
//  217 
//  218     if(cfg_time1_limit)
        LDR      R6,??DataTable34  ;; cfg_time1_on
        LDR      R10,??onTimer_1  ;; SYNC
        MOV      R5,R1
        LDR      R1,??onTimer_1+0x4  ;; cfg_time1_limit
        SUB      SP,SP,#+16
        CFI CFA R13+52
        LDR      R1,[R1, #+0]
        MOV      R4,#+0
        MOV      R7,#+0
        MOV      R9,R4
        STR      R1,[SP, #+12]
        MOV      R8,#+1
        CMP      R1,#+0
        BEQ      ??onTimer_2
//  219     {
//  220         DATETIME dt;
//  221         REQUEST_DATEANDTIME_GET(SYNC, &dt);
        LDR      R0,[R10, #+0]
//  222         if(cfg_time1_flag == 1)
        LDR      R11,??DataTable35  ;; cfg_time1_off
        MOV      R1,SP
        SWI      +366
        LDR      R0,[R6, #+52]
        MOV      R1,R6
        CMP      R0,#+1
        ADD      R0,SP,#+4
        BNE      ??onTimer_3
//  223         {
//  224             if((timecmp(&(dt.time),&cfg_time1_on) < 0) && (timecmp(&(dt.time),&cfg_time1_off) >= 0)) time1_limit = true;
        BL       ??timecmp
        CMP      R0,#+0
        BPL      ??onTimer_2
        MOV      R1,R11
        ADD      R0,SP,#+4
        BL       ??timecmp
        CMP      R0,#+0
        BMI      ??onTimer_2
        B        ??onTimer_4
//  225         }
//  226         else
//  227         {
//  228             if((timecmp(&(dt.time),&cfg_time1_on) < 0) || (timecmp(&(dt.time),&cfg_time1_off) >= 0)) time1_limit = true;
??onTimer_3:
        BL       ??timecmp
        CMP      R0,#+0
        BMI      ??onTimer_4
        MOV      R1,R11
        ADD      R0,SP,#+4
        BL       ??timecmp
        CMP      R0,#+0
        BMI      ??onTimer_2
??onTimer_4:
        MOV      R7,#+1
//  229         }
//  230     }
//  231 
//  232     if(cfg_time2_limit)
??onTimer_2:
        LDR      R0,??onTimer_1+0x8  ;; cfg_time2_limit
        LDR      R11,[R0, #+0]
        CMP      R11,#+0
        BEQ      ??onTimer_5
//  233     {
//  234         DATETIME dt;
//  235         REQUEST_DATEANDTIME_GET(SYNC, &dt);
        LDR      R0,[R10, #+0]
//  236         if(cfg_time2_flag == 1)
        LDR      R10,??DataTable37  ;; cfg_time2_off
        MOV      R1,SP
        SWI      +366
        LDR      R0,[R6, #+56]
        LDR      R1,??DataTable36  ;; cfg_time2_on
        CMP      R0,#+1
        ADD      R0,SP,#+4
        BNE      ??onTimer_6
//  237         {
//  238             if((timecmp(&(dt.time),&cfg_time2_on) < 0) && (timecmp(&(dt.time),&cfg_time2_off) >= 0)) time2_limit = true;
        BL       ??timecmp
        CMP      R0,#+0
        BPL      ??onTimer_5
        MOV      R1,R10
        ADD      R0,SP,#+4
        BL       ??timecmp
        CMP      R0,#+0
        BMI      ??onTimer_5
        B        ??onTimer_7
//  239         }
//  240         else
//  241         {
//  242             if((timecmp(&(dt.time),&cfg_time2_on) < 0) || (timecmp(&(dt.time),&cfg_time2_off) >= 0)) time2_limit = true;
??onTimer_6:
        BL       ??timecmp
        CMP      R0,#+0
        BMI      ??onTimer_7
        MOV      R1,R10
        ADD      R0,SP,#+4
        BL       ??timecmp
        CMP      R0,#+0
        BMI      ??onTimer_5
??onTimer_7:
        MOV      R9,#+1
//  243         }
//  244     }
//  245 
//  246     if((!cfg_time1_limit) && (!cfg_time2_limit))
??onTimer_5:
        LDR      R0,[SP, #+12]
        CMP      R0,#+0
        CMPEQ    R11,#+0
        BNE      ??onTimer_8
//  247     {
//  248       sound_disabled_by_time  =
//  249       vibra_disabled_by_time  =
//  250       flash_disabled_by_time  =
//  251       redled_disabled_by_time =
//  252       led_disabled_by_time    =
//  253       screen_disabled_by_time = false;
        STRB     R0,[R6, #+83]
        STRB     R0,[R6, #+82]
        STRB     R0,[R6, #+81]
        STRB     R0,[R6, #+80]
        MOV      R1,#+0
        STRB     R1,[R6, #+78]
        B        ??onTimer_9
//  254     }
//  255     else
//  256     {
//  257       sound_disabled_by_time  =
//  258       vibra_disabled_by_time  =
//  259       flash_disabled_by_time  =
//  260       redled_disabled_by_time =
//  261       led_disabled_by_time    =
//  262       screen_disabled_by_time = true;
??onTimer_8:
        STRB     R8,[R6, #+83]
        STRB     R8,[R6, #+82]
        STRB     R8,[R6, #+81]
        STRB     R8,[R6, #+80]
        MOV      R0,#+1
        MOV      R1,R0
//  263 
//  264       if(!time1_limit)
        CMP      R7,#+0
        BNE      ??onTimer_10
//  265       {
//  266         sound_disabled_by_time  = (cfg_time1_sound)  ? false : true;
        LDR      R2,??onTimer_1+0xC  ;; cfg_time1_sound
        LDR      R2,[R2, #+0]
        CMP      R2,#+0
//  267         vibra_disabled_by_time  = (cfg_time1_vibra)  ? false : true;
        LDR      R2,??onTimer_1+0x10  ;; cfg_time1_vibra
        MOVNE    R1,#+0
        LDR      R2,[R2, #+0]
        CMP      R2,#+0
//  268         flash_disabled_by_time  = (cfg_time1_flash)  ? false : true;
        LDR      R2,??onTimer_1+0x14  ;; cfg_time1_flash
        MOVNE    R0,#+0
        LDR      R2,[R2, #+0]
        CMP      R2,#+0
        MOVNE    R2,#+0
        STRBNE   R2,[R6, #+80]
//  269         redled_disabled_by_time = (cfg_time1_redled) ? false : true;
        LDR      R2,??onTimer_1+0x18  ;; cfg_time1_redled
        LDR      R2,[R2, #+0]
        CMP      R2,#+0
        MOVNE    R2,#+0
        STRBNE   R2,[R6, #+81]
//  270         led_disabled_by_time    = (cfg_time1_leds)   ? false : true;
        LDR      R2,??onTimer_1+0x1C  ;; cfg_time1_leds
        LDR      R2,[R2, #+0]
        CMP      R2,#+0
        MOVNE    R2,#+0
        STRBNE   R2,[R6, #+82]
//  271         screen_disabled_by_time = (cfg_time1_screen) ? false : true;
        LDR      R2,??onTimer_1+0x20  ;; cfg_time1_screen
        LDR      R2,[R2, #+0]
        CMP      R2,#+0
        MOVNE    R2,#+0
        STRBNE   R2,[R6, #+83]
??onTimer_10:
        STRB     R1,[R6, #+78]
//  272       }
//  273       if(!time2_limit)
        CMP      R9,#+0
        BNE      ??onTimer_9
//  274       {
//  275         sound_disabled_by_time  = (cfg_time2_sound)  ? false : true;
        LDR      R0,??onTimer_1+0x24  ;; cfg_time2_sound
//  276         vibra_disabled_by_time  = (cfg_time2_vibra)  ? false : true;
//  277         flash_disabled_by_time  = (cfg_time2_flash)  ? false : true;
        LDR      R1,??onTimer_1+0x28  ;; cfg_time2_flash
        LDR      R0,[R0, #+0]
        LDR      R1,[R1, #+0]
        CMP      R0,#+0
        MOVNE    R0,#+0
        MOVEQ    R0,#+1
        STRB     R0,[R6, #+78]
        LDR      R0,??onTimer_1+0x2C  ;; cfg_time2_vibra
        LDR      R0,[R0, #+0]
        CMP      R0,#+0
        MOVNE    R0,#+0
        MOVEQ    R0,#+1
        CMP      R1,#+0
        MOVNE    R1,#+0
        MOVEQ    R1,#+1
        STRB     R1,[R6, #+80]
//  278         redled_disabled_by_time = (cfg_time2_redled) ? false : true;
        LDR      R1,??onTimer_1+0x30  ;; cfg_time2_redled
        LDR      R1,[R1, #+0]
        CMP      R1,#+0
        MOVNE    R1,#+0
        MOVEQ    R1,#+1
        STRB     R1,[R6, #+81]
//  279         led_disabled_by_time    = (cfg_time2_leds)   ? false : true;
        LDR      R1,??onTimer_1+0x34  ;; cfg_time2_leds
        LDR      R1,[R1, #+0]
        CMP      R1,#+0
        MOVNE    R1,#+0
        MOVEQ    R1,#+1
        STRB     R1,[R6, #+82]
//  280         screen_disabled_by_time = (cfg_time2_screen) ? false : true;
        LDR      R1,??onTimer_1+0x38  ;; cfg_time2_screen
        LDR      R1,[R1, #+0]
        CMP      R1,#+0
        MOVNE    R1,#+0
        STRBNE   R1,[R6, #+83]
        STRBEQ   R8,[R6, #+83]
??onTimer_9:
        STRB     R0,[R6, #+79]
//  281       }
//  282     }
//  283 
//  284     if(cfg_mode)
        LDR      R0,??onTimer_1+0x3C  ;; cfg_mode
        LDR      R9,[R0, #+0]
        CMP      R9,#+0
        BEQ      ??onTimer_11
//  285     {
//  286         char* me=MissedEvents();
        SWI      +33191
//  287         char mestatus=*me;
//  288         if( !(mestatus & checkevents) )
        LDRB     R0,[R0, #+0]
        LDR      R1,[R6, #+68]
        TST      R1,R0
        BNE      ??onTimer_12
//  289         {
//  290             if(modetimer)
        LDRH     R0,[R6, #+22]
        CMP      R0,#+0
        BEQ      ??onTimer_11
//  291             {
//  292                 Timer_Kill(&modetimer);
        ADD      R0,R6,#+22
        SWI      +298
//  293                 modetimer = 0;
        STRH     R4,[R6, #+22]
//  294             }
//  295             disabled_by_mode = false;
??onTimer_11:
        MOV      R0,#+0
        STRB     R0,[R6, #+77]
//  296         }
//  297     }
//  298     else disabled_by_mode = false;
//  299 
//  300     if((!disabled) && (!disabled_by_mode))
??onTimer_12:
        LDRB     R0,[R6, #+76]
        LDRB     R1,[R6, #+77]
        LDR      R7,??DataTable47  ;; ??onTimer
        ORRS     R0,R1,R0
        BNE      ??onTimer_13
//  301     {
//  302         char* me=MissedEvents();
        SWI      +33191
//  303         char mestatus=*me;
//  304         if( mestatus & checkevents )
        LDRB     R0,[R0, #+0]
        LDR      R1,[R6, #+68]
        TST      R1,R0
        BEQ      ??onTimer_14
//  305         {
//  306             if(state == WAIT)
        LDR      R0,[R6, #+72]
        CMP      R0,#+0
        BNE      ??onTimer_15
//  307             {
//  308                 state = MISS;
//  309                 Timer_ReSet(&timer,cfg_pretime*1000,onTimer,lparam);
        LDR      R0,??DataTable39  ;; cfg_pretime
        STR      R8,[R6, #+72]
        LDR      R8,[R0, #+0]
        MOV      R3,R5
        MOV      R2,R7
        MOV      R0,#+1000
        MUL      R1,R0,R8
        ADD      R0,R6,#+12
        SWI      +296
//  310                 if(cfg_mode == 1) modetimer=Timer_Set((cfg_pretime + cfg_duration*60)*1000,offModeTimer,0);
        LDR      R0,??onTimer_1+0x40  ;; cfg_duration
        CMP      R9,#+1
        LDR      R0,[R0, #+0]
        BNE      ??onTimer_16
        LDR      R1,??onTimer_1+0x44  ;; ??offModeTimer
        MOV      R3,#+60
        MLA      R0,R3,R0,R8
        MOV      R3,#+1000
        MUL      R0,R3,R0
        MOV      R2,#+0
        SWI      +297
        STRH     R0,[R6, #+22]
        POP      {R0-R11,PC}
//  311                 if(cfg_mode == 2) number = cfg_duration;
??onTimer_16:
        CMP      R9,#+2
        POPNE    {R0-R11,PC}
        STR      R0,[R6, #+60]
        POP      {R0-R11,PC}
//  312                 return;
//  313             }
//  314             if(cfg_mode == 2)
??onTimer_15:
        CMP      R9,#+2
        BNE      ??onTimer_17
//  315             {
//  316                 if(--number <= 0) disabled_by_mode = true;
        LDR      R0,[R6, #+60]
        SUB      R0,R0,#+1
        STR      R0,[R6, #+60]
        CMP      R0,#+1
        STRBLT   R8,[R6, #+77]
//  317             }
//  318             if((!GetSilent() || (cfg_silent==1)) && (cfg_sound==1) && (!sound_disabled_by_time))
??onTimer_17:
        SWI      +587
        CMP      R0,#+0
        BEQ      ??onTimer_18
        LDR      R0,??onTimer_1+0x48  ;; cfg_silent
        LDR      R0,[R0, #+0]
        CMP      R0,#+1
        BNE      ??onTimer_19
??onTimer_18:
        LDR      R0,??DataTable38  ;; cfg_sound
        LDR      R0,[R0, #+0]
        CMP      R0,#+1
        LDRBEQ   R0,[R6, #+78]
        CMPEQ    R0,#+0
        BNE      ??onTimer_19
//  319             {
//  320                 char vol;
//  321                 GetAudioSettings(2,&vol);
        ADD      R1,SP,#+8
        MOV      R0,#+2
        SWI      +589
//  322                 PlayFileV(cfg_filepath,cfg_filename,vol);
        LDRB     R2,[SP, #+8]
        ADD      R1,R6,#+616
        ADD      R0,R6,#+104
        SWI      +586
//  323             }
//  324             if(GetVibrator(0,0) && (cfg_vibra==1) && (!vibra_disabled_by_time))
??onTimer_19:
        MOV      R1,#+0
        MOV      R0,R1
        SWI      +588
        CMP      R0,#+0
        BEQ      ??onTimer_20
        LDR      R0,??onTimer_1+0x4C  ;; cfg_vibra
        LDR      R0,[R0, #+0]
        CMP      R0,#+1
        LDRBEQ   R0,[R6, #+79]
        CMPEQ    R0,#+0
        BNE      ??onTimer_20
//  325             {
//  326                 PAudioControl pAC = AudioControl_Init();
        SWI      +479
//  327                 if( !pAC ) pAC = *GetAudioControlPtr();
        CMP      R0,#+0
        BNE      ??onTimer_21
        SWI      +33233
        LDR      R0,[R0, #+0]
//  328                 AudioControl_Vibrate(pAC, 400, 50, cfg_vibra_time*1000);
??onTimer_21:
        LDR      R1,??onTimer_1+0x50  ;; cfg_vibra_time
        MOV      R2,#+1000
        LDR      R1,[R1, #+0]
        MUL      R3,R2,R1
        MOV      R2,#+50
        MOV      R1,#+400
        SWI      +466
//  329             }
//  330             if((cfg_flash==1) && (!flash_disabled_by_time))
??onTimer_20:
        LDR      R0,??onTimer_1+0x54  ;; cfg_flash
        LDR      R0,[R0, #+0]
        CMP      R0,#+1
        LDRBEQ   R0,[R6, #+80]
        CMPEQ    R0,#+0
        BNE      ??onTimer_22
//  331             {
//  332                 timerFlash=Timer_Set(cfg_flash_blink_speed,onTimerFlash,0);
        LDR      R0,??DataTable27  ;; cfg_flash_blink_speed
        LDR      R1,??DataTable28  ;; ??onTimerFlash
        LDR      R0,[R0, #+0]
        MOV      R2,#+0
        SWI      +297
//  333                 offtimer=Timer_Set(cfg_flash_time*1000,offTimerFlash,0);
        LDR      R1,??onTimer_1+0x58  ;; ??offTimerFlash
        STRH     R0,[R6, #+4]
        LDR      R0,??onTimer_1+0x5C  ;; cfg_flash_time
        MOV      R3,#+1000
        LDR      R0,[R0, #+0]
        MOV      R2,R4
        MUL      R0,R3,R0
        SWI      +297
        STRH     R0,[R6, #+14]
//  334             }
//  335             if((cfg_screen==1) && (!screen_disabled_by_time))
??onTimer_22:
        LDR      R0,??onTimer_1+0x60  ;; cfg_screen
        LDR      R0,[R0, #+0]
        CMP      R0,#+1
        LDRBEQ   R0,[R6, #+83]
        CMPEQ    R0,#+0
        BNE      ??onTimer_23
//  336             {
//  337                 BOOK * ScreenSaverBook = FindBook(get_IsScreenSaverBook());
        SWI      +33089
        SWI      +304
//  338                 if (ScreenSaverBook)
        CMP      R0,#+0
        BEQ      ??onTimer_24
//  339                 {
//  340                   UI_Event_toBookID(UI_SCREENSAVER_DEACTIVATE_EVENT,BookObj_GetBookID(ScreenSaverBook));
        SWI      +506
        MOV      R1,R0
        LDR      R0,??onTimer_1+0x64  ;; UI_SCREENSAVER_DEACTIVATE_EVENT
        LDR      R0,[R0, #+0]
        SWI      +426
//  341                 }
//  342                 timerScreen=Timer_Set(cfg_screen_blink_speed,onTimerScreen,0);
??onTimer_24:
        LDR      R0,??DataTable29  ;; cfg_screen_blink_speed
        LDR      R1,??DataTable30  ;; ??onTimerScreen
        LDR      R0,[R0, #+0]
        MOV      R2,#+0
        SWI      +297
//  343                 offtimerScreen=Timer_Set(cfg_screen_time*1000,offTimerScreen,0);
        LDR      R1,??onTimer_1+0x68  ;; ??offTimerScreen
        STRH     R0,[R6, #+6]
        LDR      R0,??onTimer_1+0x6C  ;; cfg_screen_time
        MOV      R3,#+1000
        LDR      R0,[R0, #+0]
        MOV      R2,R4
        MUL      R0,R3,R0
        SWI      +297
        STRH     R0,[R6, #+16]
//  344             }
//  345             if((cfg_led==1) && (!led_disabled_by_time))
??onTimer_23:
        LDR      R0,??onTimer_1+0x70  ;; cfg_led
        LDR      R0,[R0, #+0]
        CMP      R0,#+1
        LDRBEQ   R0,[R6, #+82]
        CMPEQ    R0,#+0
        BNE      ??onTimer_25
//  346             {
//  347                 timerLED=Timer_Set(70,onTimerLED,0);
        LDR      R1,??DataTable31  ;; ??onTimerLED
        MOV      R2,#+0
        MOV      R0,#+70
        SWI      +297
//  348                 offtimerLED=Timer_Set(cfg_led_time*1000,offTimerLED,0);
        LDR      R1,??onTimer_1+0x74  ;; ??offTimerLED
        STRH     R0,[R6, #+10]
        LDR      R0,??onTimer_1+0x78  ;; cfg_led_time
        MOV      R3,#+1000
        LDR      R0,[R0, #+0]
        MOV      R2,R4
        MUL      R0,R3,R0
        SWI      +297
        STRH     R0,[R6, #+18]
//  349             }
//  350             if((cfg_redled==1) && (!redled_disabled_by_time))
??onTimer_25:
        LDR      R0,??onTimer_1+0x7C  ;; cfg_redled
        LDR      R0,[R0, #+0]
        CMP      R0,#+1
        LDRBEQ   R0,[R6, #+81]
        CMPEQ    R0,#+0
        BNE      ??onTimer_13
//  351             {
//  352                 timerREDLED=Timer_Set(70,onTimerREDLED,0);
        LDR      R1,??DataTable32  ;; ??onTimerREDLED
        MOV      R2,#+0
        MOV      R0,#+70
        SWI      +297
//  353                 offtimerREDLED=Timer_Set(cfg_redled_time*1000,offTimerREDLED,0);
        LDR      R1,??onTimer_1+0x80  ;; ??offTimerREDLED
        STRH     R0,[R6, #+8]
        LDR      R0,??onTimer_1+0x84  ;; cfg_redled_time
        MOV      R3,#+1000
        LDR      R0,[R0, #+0]
        MOV      R2,R4
        MUL      R0,R3,R0
        SWI      +297
        STRH     R0,[R6, #+20]
//  354             }
//  355         }
//  356         else
//  357         {
//  358             state = WAIT;
//  359         }
//  360 #ifdef DEBUG
//  361         if( mestatus & ~(skipevents|checkevents))
//  362         {
//  363             u16 temp[256];
//  364             snwprintf(temp, MAXELEMS(temp), _T(" \n%x: %x"), me, mestatus &~(skipevents|checkevents));
//  365             MessageBox(EMPTY_TEXTID, TextID_Create(temp,ENC_UCS2,MAXELEMS(temp)), NOIMAGE, 1, 0, 0);
//  366             skipevents|=mestatus;
//  367         }
//  368 #endif
//  369     }
//  370     if(state == WAIT)
??onTimer_13:
        LDR      R0,[R6, #+72]
        CMP      R0,#+0
        BNE      ??onTimer_26
//  371     {
//  372         Timer_ReSet(&timer,cfg_checkperiod*1000,onTimer,lparam);
??onTimer_27:
        LDR      R0,??DataTable46  ;; cfg_checkperiod
        B        ??onTimer_28
//  373     }
??onTimer_14:
        STR      R4,[R6, #+72]
        B        ??onTimer_27
//  374     else
//  375     {
//  376         Timer_ReSet(&timer,cfg_period*1000,onTimer,lparam);
??onTimer_26:
        LDR      R0,??onTimer_1+0x88  ;; cfg_period
??onTimer_28:
        MOV      R3,R5
        LDR      R0,[R0, #+0]
        MOV      R2,R7
        MOV      R4,#+1000
        MUL      R1,R4,R0
        ADD      R0,R6,#+12
        SWI      +296
        POP      {R0-R11,PC}      ;; return
        DATA
??onTimer_1:
        DC32     SYNC
        DC32     cfg_time1_limit
        DC32     cfg_time2_limit
        DC32     cfg_time1_sound
        DC32     cfg_time1_vibra
        DC32     cfg_time1_flash
        DC32     cfg_time1_redled
        DC32     cfg_time1_leds
        DC32     cfg_time1_screen
        DC32     cfg_time2_sound
        DC32     cfg_time2_flash
        DC32     cfg_time2_vibra
        DC32     cfg_time2_redled
        DC32     cfg_time2_leds
        DC32     cfg_time2_screen
        DC32     cfg_mode
        DC32     cfg_duration
        DC32     ??offModeTimer
        DC32     cfg_silent
        DC32     cfg_vibra
        DC32     cfg_vibra_time
        DC32     cfg_flash
        DC32     ??offTimerFlash
        DC32     cfg_flash_time
        DC32     cfg_screen
        DC32     UI_SCREENSAVER_DEACTIVATE_EVENT
        DC32     ??offTimerScreen
        DC32     cfg_screen_time
        DC32     cfg_led
        DC32     ??offTimerLED
        DC32     cfg_led_time
        DC32     cfg_redled
        DC32     ??offTimerREDLED
        DC32     cfg_redled_time
        DC32     cfg_period
        CFI EndBlock cfiBlock29
//  377     }
//  378 }

        RSEG CODE:CODE:NOROOT(2)
        DATA
??DataTable27:
        DC32     cfg_flash_blink_speed

        RSEG CODE:CODE:NOROOT(2)
        DATA
??DataTable28:
        DC32     ??onTimerFlash

        RSEG CODE:CODE:NOROOT(2)
        DATA
??DataTable29:
        DC32     cfg_screen_blink_speed

        RSEG CODE:CODE:NOROOT(2)
        DATA
??DataTable30:
        DC32     ??onTimerScreen

        RSEG CODE:CODE:NOROOT(2)
        DATA
??DataTable31:
        DC32     ??onTimerLED

        RSEG CODE:CODE:NOROOT(2)
        DATA
??DataTable32:
        DC32     ??onTimerREDLED

        RSEG CODE:CODE:NOROOT(2)
        CFI Block cfiBlock30 Using cfiCommon0
        CFI NoFunction
        THUMB
??UpdateParams??rT:
        BX       PC
        Nop      
        CFI EndBlock cfiBlock30
        REQUIRE ??UpdateParams
//  379 

        RSEG CODE:CODE:NOROOT(2)
        CFI Block cfiBlock31 Using cfiCommon1
        CFI Function ??UpdateParams
        ARM
//  380 int UpdateParams(void)
//  381 {
//  382   wchar_t temp[256];
//  383   char* err=NULL;
//  384   FSTAT _fstat;
//  385   TIME zero_time   = {0,0,0,0};
??UpdateParams:
        LDR      R2,??UpdateParams_1  ;; cfg_music_file
        PUSH     {R4-R11,LR}
        CFI ?RET Frame(CFA, -4)
        CFI R11 Frame(CFA, -8)
        CFI R10 Frame(CFA, -12)
        CFI R9 Frame(CFA, -16)
        CFI R8 Frame(CFA, -20)
        CFI R7 Frame(CFA, -24)
        CFI R6 Frame(CFA, -28)
        CFI R5 Frame(CFA, -32)
        CFI R4 Frame(CFA, -36)
        CFI CFA R13+36
        LDR      R4,??UpdateParams_1+0x4  ;; `?<Constant {'\\000', '\\000', '\\000', '\\000'}>`
        LDR      R5,??DataTable34  ;; cfg_time1_on
//  386 
//  387   extractdir(cfg_filepath, cfg_filename, cfg_music_file);
//  388 
//  389   cfg_time1_on  = cfg_on_time1;
//  390   cfg_time1_off = cfg_off_time1;
        LDR      R6,??DataTable35  ;; cfg_time1_off
        LDR      R7,??UpdateParams_1+0x8  ;; cfg_off_time1
//  391 
//  392   cfg_time2_on  = cfg_on_time2;
        LDR      R8,??DataTable36  ;; cfg_time2_on
        LDR      R9,??UpdateParams_1+0xC  ;; cfg_on_time2
//  393   cfg_time2_off = cfg_off_time2;
        LDR      R10,??DataTable37  ;; cfg_time2_off
        LDR      R11,??UpdateParams_1+0x10  ;; cfg_off_time2
        SUB      SP,SP,#+544
        CFI CFA R13+580
        LDRB     R1,[R4, #0]
        MOV      R0,SP
        STRB     R1,[R0, #+0]
        LDRB     R1,[R4, #+1]
        STRB     R1,[R0, #+1]
        LDRB     R1,[R4, #+2]
        STRB     R1,[R0, #+2]
        LDRB     R1,[R4, #+3]
        STRB     R1,[R0, #+3]
        ADD      R1,R5,#+616
        ADD      R0,R5,#+104
        BL       ??extractdir
        LDR      R0,??UpdateParams_1+0x14  ;; cfg_on_time1
        LDRB     R1,[R0, #0]
        STRB     R1,[R5, #+0]
        LDRB     R1,[R0, #+1]
        STRB     R1,[R5, #+1]
        LDRB     R1,[R0, #+2]
        STRB     R1,[R5, #+2]
        LDRB     R1,[R0, #+3]
        LDRB     R0,[R7, #0]
        STRB     R1,[R5, #+3]
        STRB     R0,[R6, #+0]
        LDRB     R0,[R7, #+1]
        MOV      R1,SP
        STRB     R0,[R6, #+1]
        LDRB     R0,[R7, #+2]
        STRB     R0,[R6, #+2]
        LDRB     R0,[R7, #+3]
        STRB     R0,[R6, #+3]
        LDRB     R0,[R9, #0]
        STRB     R0,[R8, #+0]
        LDRB     R0,[R9, #+1]
        STRB     R0,[R8, #+1]
        LDRB     R0,[R9, #+2]
        STRB     R0,[R8, #+2]
        LDRB     R0,[R9, #+3]
        STRB     R0,[R8, #+3]
        LDRB     R0,[R11, #0]
        STRB     R0,[R10, #+0]
        LDRB     R0,[R11, #+1]
        STRB     R0,[R10, #+1]
        LDRB     R0,[R11, #+2]
        STRB     R0,[R10, #+2]
        LDRB     R0,[R11, #+3]
        STRB     R0,[R10, #+3]
        MOV      R0,R5
//  394 
//  395   if(timecmp(&cfg_time1_on, &zero_time) == 0) cfg_time1_on.hour = 24;
        BL       ??timecmp
        CMP      R0,#+0
        MOVEQ    R0,#+24
        STRBEQ   R0,[R5, #+0]
//  396   cfg_time1_flag = timecmp(&cfg_time1_on, &cfg_time1_off);
        MOV      R1,R6
        MOV      R0,R5
        BL       ??timecmp
        STR      R0,[R5, #+52]
//  397 
//  398   if(timecmp(&cfg_time2_on, &zero_time) == 0) cfg_time2_on.hour = 24;
        MOV      R1,SP
        MOV      R0,R8
        BL       ??timecmp
        CMP      R0,#+0
        MOVEQ    R0,#+24
        STRBEQ   R0,[R8, #+0]
//  399   cfg_time2_flag = timecmp(&cfg_time2_on, &cfg_time2_off);
        MOV      R1,R10
        MOV      R0,R8
        BL       ??timecmp
        STR      R0,[R5, #+56]
//  400 
//  401   if(cfg_sound && (fstat(cfg_filepath,cfg_filename,&_fstat)!=0))
        LDR      R0,??DataTable38  ;; cfg_sound
        LDR      R0,[R0, #+0]
        CMP      R0,#+0
        BEQ      ??UpdateParams_2
        ADD      R2,SP,#+516
        ADD      R1,R5,#+616
        ADD      R0,R5,#+104
        SWI      +284
        CMP      R0,#+0
//  402     #ifndef ENG
//  403       err="   !";
        ADDNE    R3,R4,#+84
        BNE      ??UpdateParams_3
//  404     #else
//  405       err="Notification file not found!";
//  406     #endif
//  407   else
//  408     if(cfg_pretime < cfg_checkperiod) err="PRE_TIME < CHECK";
??UpdateParams_2:
        LDR      R0,??DataTable39  ;; cfg_pretime
        LDR      R1,??DataTable46  ;; cfg_checkperiod
        LDR      R0,[R0, #+0]
        LDR      R1,[R1, #+0]
        CMP      R0,R1
        ADDCC    R3,R4,#+64
        BCC      ??UpdateParams_3
//  409   else
//  410     if(timecmp(&cfg_on_time1, &cfg_off_time1) == 0) err="ON_TIME1==OFF_TIME1";
        LDR      R0,??UpdateParams_1+0x14  ;; cfg_on_time1
        MOV      R1,R7
        BL       ??timecmp
        CMP      R0,#+0
        ADDEQ    R3,R4,#+44
        BEQ      ??UpdateParams_3
//  411   else
//  412     if(timecmp(&cfg_on_time2, &cfg_off_time2) == 0) err="ON_TIME2==OFF_TIME2";
        MOV      R1,R11
        MOV      R0,R9
        BL       ??timecmp
        CMP      R0,#+0
        BNE      ??UpdateParams_4
        ADD      R3,R4,#+24
//  413 
//  414   if(err)
??UpdateParams_3:
        CMP      R3,#+0
        BEQ      ??UpdateParams_4
//  415   {
//  416     snwprintf(temp, MAXELEMS(temp), _T("Error!\n%s"),err);
        ADD      R2,R4,#+4
        MOV      R1,#+256
        ADD      R0,SP,#+4
        SWI      +277
//  417     MessageBox(EMPTY_TEXTID,TextID_Create(temp,ENC_UCS2,MAXELEMS(temp)),NOIMAGE,1,0,0);
        MOV      R2,#+256
        MOV      R1,#+0
        ADD      R0,SP,#+4
        SWI      +349
        MOV      R1,R0
        MOV      R0,#+0
        PUSH     {R0}
        CFI CFA R13+584
        PUSH     {R0}
        CFI CFA R13+588
        MOV      R3,#+1
        MOV      R2,#+255
        ORR      R2,R2,#0xFF00
        MVN      R0,#-1879048192
        SWI      +599
//  418     return 1;
        MOV      R0,#+1
        ADD      SP,SP,#+8
        CFI CFA R13+580
        ADD      SP,SP,#+544
        CFI CFA R13+36
        POP      {R4-R11,PC}
        CFI CFA R13+580
//  419   }
//  420   return 0;
??UpdateParams_4:
        MOV      R0,#+0
        ADD      SP,SP,#+544
        CFI CFA R13+36
        POP      {R4-R11,PC}      ;; return
        DATA
??UpdateParams_1:
        DC32     cfg_music_file
        DC32     `?<Constant {'\\000', '\\000', '\\000', '\\000'}>`
        DC32     cfg_off_time1
        DC32     cfg_on_time2
        DC32     cfg_off_time2
        DC32     cfg_on_time1
        CFI EndBlock cfiBlock31
//  421 }

        RSEG CODE:CODE:NOROOT(2)
        DATA
??DataTable34:
        DC32     cfg_time1_on

        RSEG CODE:CODE:NOROOT(2)
        DATA
??DataTable35:
        DC32     cfg_time1_off

        RSEG CODE:CODE:NOROOT(2)
        DATA
??DataTable36:
        DC32     cfg_time2_on

        RSEG CODE:CODE:NOROOT(2)
        DATA
??DataTable37:
        DC32     cfg_time2_off

        RSEG CODE:CODE:NOROOT(2)
        DATA
??DataTable38:
        DC32     cfg_sound

        RSEG CODE:CODE:NOROOT(2)
        DATA
??DataTable39:
        DC32     cfg_pretime

        RSEG CODE:CODE:NOROOT(2)
        CFI Block cfiBlock32 Using cfiCommon0
        CFI NoFunction
        THUMB
??elf_exit??rT:
        BX       PC
        Nop      
        CFI EndBlock cfiBlock32
        REQUIRE ??elf_exit
//  422 

        RSEG CODE:CODE:NOROOT(2)
        CFI Block cfiBlock33 Using cfiCommon1
        CFI Function ??elf_exit
        ARM
//  423 void elf_exit(void)
//  424 {
??elf_exit:
        PUSH     {LR}
        CFI ?RET Frame(CFA, -4)
        CFI CFA R13+4
//  425         kill_data(&ELF_BEGIN, (void(*)(void*))mfree_adr());
        SWI      +33028
        MOV      R1,R0
        LDR      R0,??elf_exit_1  ;; ELF_BEGIN
        POP      {LR}             ;; Pop
        CFI ?RET R14
        CFI CFA R13+0
        _BF      kill_data,??kill_data??rA  ;; tailcall
        DATA
??elf_exit_1:
        DC32     ELF_BEGIN
        CFI EndBlock cfiBlock33
//  426 }

        RSEG CODE:CODE:NOROOT(2)
        CFI Block cfiBlock34 Using cfiCommon0
        CFI NoFunction
        THUMB
??bookOnDestroy??rT:
        BX       PC
        Nop      
        CFI EndBlock cfiBlock34
        REQUIRE ??bookOnDestroy
//  427 

        RSEG CODE:CODE:NOROOT(2)
        CFI Block cfiBlock35 Using cfiCommon1
        CFI Function ??bookOnDestroy
        ARM
//  428 void bookOnDestroy(BOOK * book)
//  429 {
??bookOnDestroy:
        PUSH     {R4,LR}
        CFI ?RET Frame(CFA, -4)
        CFI R4 Frame(CFA, -8)
        CFI CFA R13+8
//  430 
//  431         Timer_Kill(&timer);
        LDR      R4,??DataTable43  ;; cfg_time1_on
        ADD      R0,R4,#+12
        SWI      +298
//  432         if(timerFlash) offTimerFlash(0,0);
        LDRH     R0,[R4, #+4]
        CMP      R0,#+0
        BEQ      ??bookOnDestroy_1
        MOV      R1,#+0
        MOV      R0,#+0
        BL       ??offTimerFlash
//  433         if(timerScreen) offTimerScreen(0,0);
??bookOnDestroy_1:
        LDRH     R0,[R4, #+6]
        CMP      R0,#+0
        BEQ      ??bookOnDestroy_2
        MOV      R1,#+0
        MOV      R0,#+0
        BL       ??offTimerScreen
//  434         if(offtimer) Timer_Kill(&offtimer);
??bookOnDestroy_2:
        LDRH     R0,[R4, #+14]
        CMP      R0,#+0
        BEQ      ??bookOnDestroy_3
        ADD      R0,R4,#+14
        SWI      +298
//  435         if(timerREDLED) offTimerREDLED(0,0);
??bookOnDestroy_3:
        LDRH     R0,[R4, #+8]
        CMP      R0,#+0
        BEQ      ??bookOnDestroy_4
        MOV      R1,#+0
        MOV      R0,#+0
        BL       ??offTimerREDLED
//  436         if(timerLED) offTimerLED(0,0);
??bookOnDestroy_4:
        LDRH     R0,[R4, #+10]
        CMP      R0,#+0
        BEQ      ??bookOnDestroy_5
        MOV      R1,#+0
        MOV      R0,#+0
        BL       ??offTimerLED
//  437         if(offtimerREDLED) Timer_Kill(&offtimerREDLED);
??bookOnDestroy_5:
        LDRH     R0,[R4, #+20]
        CMP      R0,#+0
        BEQ      ??bookOnDestroy_6
        ADD      R0,R4,#+20
        SWI      +298
//  438         if(offtimerLED) Timer_Kill(&offtimerLED);
??bookOnDestroy_6:
        LDRH     R0,[R4, #+18]
        CMP      R0,#+0
        BEQ      ??bookOnDestroy_7
        ADD      R0,R4,#+18
        SWI      +298
//  439         if(offtimerScreen) Timer_Kill(&offtimerScreen);
??bookOnDestroy_7:
        LDRH     R0,[R4, #+16]
        CMP      R0,#+0
        BEQ      ??bookOnDestroy_8
        ADD      R0,R4,#+16
        SWI      +298
//  440         if(modetimer) Timer_Kill(&modetimer);
??bookOnDestroy_8:
        LDRH     R0,[R4, #+22]
        CMP      R0,#+0
        BEQ      ??bookOnDestroy_9
        ADD      R0,R4,#+22
        SWI      +298
//  441         StatusIndication_ShowNotes(EMPTY_TEXTID);
??bookOnDestroy_9:
        MVN      R0,#-1879048192
        SWI      +323
//  442         SUBPROC(elf_exit);
        LDR      R0,??DataTable44  ;; ??elf_exit
        SWI      +264
//  443 }
        POP      {R4,PC}          ;; return
        CFI EndBlock cfiBlock35

        RSEG CODE:CODE:NOROOT(2)
        CFI Block cfiBlock36 Using cfiCommon0
        CFI NoFunction
        THUMB
??onExit??rT:
        BX       PC
        Nop      
        CFI EndBlock cfiBlock36
        REQUIRE ??onExit
//  444 

        RSEG CODE:CODE:NOROOT(2)
        CFI Block cfiBlock37 Using cfiCommon1
        CFI Function ??onExit
        ARM
//  445 int onExit(void* r0,BOOK* b)
//  446 {
??onExit:
        PUSH     {LR}
        CFI ?RET Frame(CFA, -4)
        CFI CFA R13+4
        MOV      R0,R1
//  447         FreeBook(b);
        SWI      +303
//  448         return 1;
        MOV      R0,#+1
        POP      {PC}             ;; return
        CFI EndBlock cfiBlock37
//  449 }

        RSEG CODE:CODE:NOROOT(2)
        CFI Block cfiBlock38 Using cfiCommon0
        CFI NoFunction
        THUMB
??onAbout??rT:
        BX       PC
        Nop      
        CFI EndBlock cfiBlock38
        REQUIRE ??onAbout
//  450 

        RSEG CODE:CODE:NOROOT(2)
        CFI Block cfiBlock39 Using cfiCommon1
        CFI Function ??onAbout
        ARM
//  451 int onAbout(void* mess,BOOK* b)
//  452 {
??onAbout:
        PUSH     {R4,R5,LR}
        CFI ?RET Frame(CFA, -4)
        CFI R5 Frame(CFA, -8)
        CFI R4 Frame(CFA, -12)
        CFI CFA R13+12
//  453         MessageBox(EMPTY_TEXTID,TextID_Create( LELFNAME LELFVERSION,ENC_UCS2,TEXTID_ANY_LEN),NOIMAGE, 1 ,5000, *(BOOK**)mess);
        MOV      R1,#+0
        MOV      R4,R0
        LDR      R0,??onAbout_1   ;; `?<Constant L"\\x4d\\x69\\x73\\x73\\x65\\x64\\x20\\x45\\`
        MOV      R5,#+255
        ORR      R5,R5,#0xFF00
        MOV      R2,R5
        SWI      +349
        LDR      R1,[R4, #+0]
        MOV      R3,#+1
        PUSH     {R1}
        CFI CFA R13+16
        MOV      R2,R5
        MOV      R1,#+136
        ORR      R1,R1,#0x1300
        PUSH     {R1}
        CFI CFA R13+20
        MOV      R1,R0
        MVN      R0,#-1879048192
        SWI      +599
//  454         return 1;
        MOV      R0,#+1
        POP      {R1,R2,R4,R5,PC}  ;; return
        DATA
??onAbout_1:
        DC32     `?<Constant L"\\x4d\\x69\\x73\\x73\\x65\\x64\\x20\\x45\\`
        CFI EndBlock cfiBlock39
//  455 }

        RSEG CODE:CODE:NOROOT(2)
        CFI Block cfiBlock40 Using cfiCommon0
        CFI NoFunction
        THUMB
??OnCallManagerEvent??rT:
        BX       PC
        Nop      
        CFI EndBlock cfiBlock40
        REQUIRE ??OnCallManagerEvent
//  456 
//  457 enum
//  458 {
//  459         CALLMANAGER_IDLE            =0,
//  460         CALLMANAGER_CALL_CONNECTED  =1,
//  461         CALLMANAGER_CALL_SETUP      =2,
//  462         CALLMANAGER_CALL_ALERT      =4,
//  463         CALLMANAGER_CALL_WAITING    =5,
//  464         CALLMANAGER_CALL_TERMINATED =6
//  465 };
//  466 

        RSEG CODE:CODE:NOROOT(2)
        CFI Block cfiBlock41 Using cfiCommon1
        CFI Function ??OnCallManagerEvent
        ARM
//  467 int OnCallManagerEvent(void* r0,BOOK* b)
//  468 {
//  469         switch(((CALLMANAGER_EVENT_DATA*)r0)->CallState)
??OnCallManagerEvent:
        LDRB     R0,[R0, #+2]
        LDR      R1,??DataTable43  ;; cfg_time1_on
        SUBS     R0,R0,#+2
        SUBSNE   R0,R0,#+2
        BEQ      ??OnCallManagerEvent_1
        SUBS     R0,R0,#+2
        BEQ      ??OnCallManagerEvent_2
        B        ??OnCallManagerEvent_3
//  470         {
//  471         case CALLMANAGER_CALL_SETUP:
//  472         case CALLMANAGER_CALL_ALERT:
//  473                 disabled=true;
??OnCallManagerEvent_1:
        MOV      R0,#+1
        B        ??OnCallManagerEvent_4
//  474                 break;
//  475         case CALLMANAGER_CALL_TERMINATED:
//  476                 disabled=false;
??OnCallManagerEvent_2:
        MOV      R0,#+0
??OnCallManagerEvent_4:
        STRB     R0,[R1, #+76]
//  477                 break;
//  478         }
//  479         return 1;
??OnCallManagerEvent_3:
        MOV      R0,#+1
        BX       LR               ;; return
        CFI EndBlock cfiBlock41
//  480 }

        RSEG CODE:CODE:NOROOT(2)
        DATA
??DataTable43:
        DC32     cfg_time1_on

        RSEG CODE:CODE:NOROOT(2)
        CFI Block cfiBlock42 Using cfiCommon0
        CFI NoFunction
        THUMB
??onReconfigElf??rT:
        BX       PC
        Nop      
        CFI EndBlock cfiBlock42
        REQUIRE ??onReconfigElf
//  481 

        RSEG CODE:CODE:NOROOT(2)
        CFI Block cfiBlock43 Using cfiCommon1
        CFI Function ??onReconfigElf
        ARM
//  482 static int onReconfigElf(void *mess ,BOOK *book)
//  483 {
??onReconfigElf:
        PUSH     {R4,R5,LR}
        CFI ?RET Frame(CFA, -4)
        CFI R5 Frame(CFA, -8)
        CFI R4 Frame(CFA, -12)
        CFI CFA R13+12
        MOV      R4,R0
//  484   RECONFIG_EVENT_DATA *reconf=(RECONFIG_EVENT_DATA *)mess;
//  485   int result=0;
//  486   if (wstrcmpi(reconf->path,successed_config_path)==0 && wstrcmpi(reconf->name,successed_config_name)==0)
        LDR      R0,??onReconfigElf_1  ;; successed_config_path
        MOV      R5,#+0
        LDR      R1,[R0, #+0]
        MOV      R0,R4
        SWI      +671
        CMP      R0,#+0
        BNE      ??onReconfigElf_2
        LDR      R0,??onReconfigElf_1+0x4  ;; successed_config_name
        LDR      R1,[R0, #+0]
        ADD      R0,R4,#+128
        SWI      +671
        CMP      R0,#+0
        BNE      ??onReconfigElf_2
//  487   {
//  488     InitConfig();
        _BLF     ??InitConfig,??InitConfig??rA
//  489     UpdateParams();
        BL       ??UpdateParams
//  490     result=1;
        MOV      R5,#+1
//  491   }
//  492   return(result);
??onReconfigElf_2:
        MOV      R0,R5
        POP      {R4,R5,PC}       ;; return
        DATA
??onReconfigElf_1:
        DC32     successed_config_path
        DC32     successed_config_name
        CFI EndBlock cfiBlock43
//  493 }

        RSEG CODE:CODE:NOROOT(2)
        CFI Block cfiBlock44 Using cfiCommon0
        CFI NoFunction
        THUMB
??isMissedEventsBook??rT:
        BX       PC
        Nop      
        CFI EndBlock cfiBlock44
        REQUIRE ??isMissedEventsBook
//  494 

        RSEG DYN_PAGE:CONST:SORT:NOROOT(2)
//  495 const PAGE_MSG evtlist[] @ "DYN_PAGE"=
evtlist:
        DATA
        DC32 997, ??onExit, 998, ??onAbout, 996, ??onReconfigElf, 442
        DC32 ??OnCallManagerEvent, 64, 0H

        RSEG DATA_C:CONST:SORT:NOROOT(2)
`?<Constant {'\\000', '\\000', '\\000', '\\000'}>`:
        DATA
        DC8 0, 0, 0, 0
        DC8 45H, 0, 72H, 0, 72H, 0, 6FH, 0
        DC8 72H, 0, 21H, 0, 0AH, 0, 25H, 0
        DC8 73H, 0, 0, 0
        DC8 "ON_TIME2==OFF_TIME2"
        DC8 "ON_TIME1==OFF_TIME1"
        DC8 "PRE_TIME < CHECK"
        DC8 0, 0, 0
        DC8 "   !"
        DC8 0, 0, 0

        RSEG DATA_C:CONST:SORT:NOROOT(2)
`?<Constant "VIDEO">`:
        DATA
        DC8 "VIDEO"
        DC8 0, 0

        RSEG DATA_C:CONST:SORT:NOROOT(2)
`?<Constant "IMAGE">`:
        DATA
        DC8 "IMAGE"
        DC8 0, 0

        RSEG DATA_C:CONST:SORT:NOROOT(2)
`?<Constant "AUDIO">`:
        DATA
        DC8 "AUDIO"
        DC8 0, 0
//  496 {
//  497   ELF_TERMINATE_EVENT,      onExit,
//  498   ELF_SHOW_INFO_EVENT,      onAbout,
//  499   ELF_RECONFIG_EVENT,       onReconfigElf,
//  500   ON_CALLMANAGER_EVENT_TAG, OnCallManagerEvent,
//  501   NIL_EVENT_TAG,            NULL
//  502 };
//  503 

        RSEG DATA_C:CONST:SORT:NOROOT(2)
`?<Constant L"\\x4d\\x69\\x73\\x73\\x65\\x64\\x45\\x76\\`:
        DATA
        DC8 4DH, 0, 69H, 0, 73H, 0, 73H, 0
        DC8 65H, 0, 64H, 0, 45H, 0, 76H, 0
        DC8 65H, 0, 6EH, 0, 74H, 0, 73H, 0
        DC8 0AH, 0, 43H, 4, 36H, 4, 35H, 4
        DC8 20H, 0, 37H, 4, 30H, 4, 3FH, 4
        DC8 43H, 4, 49H, 4, 35H, 4, 3DH, 4
        DC8 0, 0
        DC8 0, 0
        DC32 `?<Constant "MissedEvents_base_page">`, 0H, evtlist

        RSEG DATA_C:CONST:SORT:NOROOT(2)
`?<Constant L"\\x4d\\x69\\x73\\x73\\x65\\x64\\x20\\x45\\`:
        DATA
        DC8 4DH, 0, 69H, 0, 73H, 0, 73H, 0
        DC8 65H, 0, 64H, 0, 20H, 0, 45H, 0
        DC8 76H, 0, 65H, 0, 6EH, 0, 74H, 0
        DC8 73H, 0, 0AH, 0, 76H, 0, 32H, 0
        DC8 2EH, 0, 33H, 0, 0AH, 0, 62H, 0
        DC8 79H, 0, 20H, 0, 64H, 0, 65H, 0
        DC8 6EH, 0, 5FH, 0, 70H, 0, 6FH, 0
        DC8 0AH, 0, 0AH, 0, 4DH, 0, 6FH, 0
        DC8 64H, 0, 73H, 0, 3AH, 0, 20H, 0
        DC8 50H, 0, 6CH, 0, 6FH, 0, 69H, 0
        DC8 6BH, 0, 20H, 0, 26H, 0, 20H, 0
        DC8 42H, 0, 69H, 0, 67H, 0, 48H, 0
        DC8 65H, 0, 72H, 0, 63H, 0, 75H, 0
        DC8 6CH, 0, 65H, 0, 73H, 0, 0, 0

        RSEG DATA_C:CONST:SORT:NOROOT(2)
`?<Constant "%%%s_EXT%%">`:
        DATA
        DC8 "%%%s_EXT%%"
        DC8 0
        DC8 "%%%s_INT%%"
        DC8 0

        RSEG DATA_C:CONST:SORT:NOROOT(2)
`?<Constant "MissedEvents_base_page">`:
        DATA
        DC8 "MissedEvents_base_page"
        DC8 0

        RSEG DATA_C:CONST:SORT:NOROOT(2)
`?<Constant "INI">`:
        DATA
        DC8 "INI"

        RSEG DATA_C:CONST:SORT:NOROOT(2)
`?<Constant "ELFS_CONFIG">`:
        DATA
        DC8 "ELFS_CONFIG"

        RSEG DATA_C:CONST:SORT:NOROOT(2)
`?<Constant "ELFS_DAEMONS">`:
        DATA
        DC8 "ELFS_DAEMONS"
        DC8 0, 0, 0

        RSEG DATA_C:CONST:SORT:NOROOT(2)
`?<Constant "ELFS">`:
        DATA
        DC8 "ELFS"
        DC8 0, 0, 0

        RSEG DATA_C:CONST:SORT:NOROOT(2)
`?<Constant "OTHER">`:
        DATA
        DC8 "OTHER"
        DC8 0, 0

        RSEG DATA_C:CONST:SORT:NOROOT(2)
`?<Constant "THEME">`:
        DATA
        DC8 "THEME"
        DC8 0, 0
//  504 const PAGE_DESC defaultpage = {"MissedEvents_base_page",0,evtlist};
//  505 

        RSEG CODE:CODE:NOROOT(2)
        CFI Block cfiBlock45 Using cfiCommon1
        CFI Function ??isMissedEventsBook
        ARM
//  506 int isMissedEventsBook(BOOK * book)
//  507 {
//  508         if(!strcmp(book->xbook->name,myappname)) return true;
??isMissedEventsBook:
        LDR      R1,??isMissedEventsBook_1  ;; cfg_time1_on + 84
        PUSH     {LR}
        CFI ?RET Frame(CFA, -4)
        CFI CFA R13+4
        LDR      R0,[R0, #+0]
        LDR      R0,[R0, #+4]
        SWI      +345
        CMP      R0,#+0
        MOVEQ    R0,#+1
        POPEQ    {PC}
//  509         return false;
        MOV      R0,#+0
        POP      {PC}             ;; return
        DATA
??isMissedEventsBook_1:
        DC32     cfg_time1_on + 84
        CFI EndBlock cfiBlock45
//  510 }

        RSEG CODE:CODE:NOROOT(2)
        CFI Block cfiBlock46 Using cfiCommon0
        CFI NoFunction
        THUMB
??main??rT:
        BX       PC
        Nop      
        CFI EndBlock cfiBlock46
        REQUIRE main
//  511 

        RSEG CODE:CODE:NOROOT(2)
        CFI Block cfiBlock47 Using cfiCommon1
        CFI Function main
        ARM
//  512 int main(wchar_t* filename)
//  513 {
main:
        PUSH     {R4-R9,LR}
        CFI ?RET Frame(CFA, -4)
        CFI R9 Frame(CFA, -8)
        CFI R8 Frame(CFA, -12)
        CFI R7 Frame(CFA, -16)
        CFI R6 Frame(CFA, -20)
        CFI R5 Frame(CFA, -24)
        CFI R4 Frame(CFA, -28)
        CFI CFA R13+28
//  514         BOOK* alreadyrunned=FindBook(isMissedEventsBook);
//  515         if(alreadyrunned)
        LDR      R5,??main_0      ;; `?<Constant L"\\x4d\\x69\\x73\\x73\\x65\\x64\\x45\\x76\\`
        LDR      R4,??DataTable44  ;; ??elf_exit
        MOV      R6,R0
        LDR      R0,??main_0+0x4  ;; ??isMissedEventsBook
        SWI      +304
        CMP      R0,#+0
        BEQ      ??main_1
//  516         {
//  517             #ifndef ENG
//  518                 MessageBox(EMPTY_TEXTID, STR("MissedEvents\n "), NOIMAGE, 1 ,5000, 0);
        MOV      R6,#+255
        ORR      R6,R6,#0xFF00
        MOV      R2,R6
        MOV      R1,#+0
        MOV      R0,R5
        SWI      +349
        MOV      R1,#+0
        PUSH     {R1}
        CFI CFA R13+32
        MOV      R3,#+1
        MOV      R2,R6
        MOV      R1,#+136
        ORR      R1,R1,#0x1300
        PUSH     {R1}
        CFI CFA R13+36
        MOV      R1,R0
        MVN      R0,#-1879048192
        SWI      +599
//  519             #else
//  520                 MessageBox(EMPTY_TEXTID, STR("MissedEvents\nalready runned"), NOIMAGE, 1 ,5000, 0);
//  521             #endif
//  522             SUBPROC(elf_exit);
        MOV      R0,R4
        SWI      +264
        ADD      SP,SP,#+8
        CFI CFA R13+28
        B        ??main_2
//  523         }
//  524          else
//  525         {
//  526                 InitConfig();
??main_1:
        _BLF     ??InitConfig,??InitConfig??rA
//  527                 if(UpdateParams())
        BL       ??UpdateParams
        CMP      R0,#+0
        BEQ      ??main_3
//  528                 {
//  529                     SUBPROC(elf_exit);
        MOV      R0,R4
        SWI      +264
//  530                     return 0;
??main_2:
        MOV      R0,#+0
        POP      {R4-R9,PC}
//  531                 }
//  532 
//  533                 switch(GetChipID()&CHIPID_MASK)
??main_3:
        LDR      R7,??DataTable45  ;; cfg_time1_on
        MOV      R8,#+0
        SWI      +590
        AND      R0,R0,#0xFE00
        MOV      R0,R0, LSL #+16
        MOV      R0,R0, ASR #+16
        CMN      R0,#+32768
        BEQ      ??main_4
        CMN      R0,#+26624
        CMNNE    R0,#+14336
        CMNNE    R0,#+10240
        CMNNE    R0,#+6144
        CMNNE    R0,#+4096
        BEQ      ??main_5
        CMP      R0,#+28672
        BNE      ??main_6
//  534                 {
//  535                 case CHIPID_DB2000:
//  536                 case CHIPID_DB2010:
//  537                         skipevents=0;
??main_4:
        STR      R8,[R7, #+64]
//  538                         checkevents=1|2|4|8;//MISSED_CALL|MISSED_SMS|MISSED_EMAIL|MISSED_MMS
        MOV      R0,#+15
        B        ??main_7
//  539                         break;
//  540                 case CHIPID_DB2020:
//  541                 case CHIPID_DB3150:
//  542                 case CHIPID_DB3200:
//  543                 case CHIPID_DB3210:
//  544                 case CHIPID_DB3350:
//  545                         skipevents=1|2;//KEYLOCKED|NOSOUND
??main_5:
        MOV      R0,#+3
        STR      R0,[R7, #+64]
//  546                         checkevents=4|8|0x10|0x20;//MISSED_CALL|MISSED_SMS|MISSED_EMAIL|MISSED_MMS
        MOV      R0,#+60
??main_7:
        STR      R0,[R7, #+68]
//  547                 }
//  548 
//  549                 BOOK *myBook=(BOOK*)malloc(sizeof(BOOK));
??main_6:
        MOV      R0,#+24
        SWI      +259
        MOV      R9,R0
//  550                 memset(myBook,0,sizeof(BOOK));
        MOV      R2,#+24
        MOV      R1,#+0
        SWI      +274
//  551                 if(!CreateBook(myBook,bookOnDestroy,&defaultpage,myappname,-1,0))
        LDR      R1,??main_0+0x8  ;; ??bookOnDestroy
        MOV      R0,R8
        PUSH     {R0}
        CFI CFA R13+32
        ADD      R3,R7,#+84
        ADD      R2,R5,#+52
        MVN      R0,R0
        PUSH     {R0}
        CFI CFA R13+36
        MOV      R0,R9
        SWI      +299
        CMP      R0,#+0
        ADD      SP,SP,#+8
        CFI CFA R13+28
        BNE      ??main_8
//  552                 {
//  553                   delete myBook;
        MOV      R0,R9
        _BLF     `??operator delete`,`??operator delete??rA`
//  554                   SUBPROC(elf_exit);
        MOV      R0,R4
        SWI      +264
//  555                   return 0;
        B        ??main_9
//  556                 }
//  557 
//  558                 timer=Timer_Set(cfg_checkperiod*1000, onTimer, 0);
??main_8:
        LDR      R0,??DataTable46  ;; cfg_checkperiod
        LDR      R1,??DataTable47  ;; ??onTimer
        LDR      R0,[R0, #+0]
        MOV      R3,#+1000
        MUL      R0,R3,R0
        MOV      R2,#+0
        SWI      +297
        STRH     R0,[R7, #+12]
//  559                 if(!wstrwstr(filename,GetDir(DIR_ELFS_DAEMONS)))
        MOV      R0,#+18
        SWI      +261
        MOV      R1,R0
        MOV      R0,R6
        SWI      +670
        CMP      R0,#+0
        BNE      ??main_9
//  560                   StatusIndication_ShowNotes(EMPTY_TEXTID);
        MVN      R0,#-1879048192
        SWI      +323
//  561         }
//  562 
//  563         return 0;
??main_9:
        MOV      R0,#+0
        POP      {R4-R9,PC}       ;; return
        DATA
??main_0:
        DC32     `?<Constant L"\\x4d\\x69\\x73\\x73\\x65\\x64\\x45\\x76\\`
        DC32     ??isMissedEventsBook
        DC32     ??bookOnDestroy
        CFI EndBlock cfiBlock47
//  564 }

        RSEG CODE:CODE:NOROOT(2)
        DATA
??DataTable44:
        DC32     ??elf_exit

        RSEG CODE:CODE:NOROOT(2)
        DATA
??DataTable45:
        DC32     cfg_time1_on

        RSEG CODE:CODE:NOROOT(2)
        DATA
??DataTable46:
        DC32     cfg_checkperiod

        RSEG CODE:CODE:NOROOT(2)
        DATA
??DataTable47:
        DC32     ??onTimer

        RSEG CODE:CODE:NOROOT(2)
        CFI Block cfiBlock48 Using cfiCommon1
        CFI NoFunction
        ARM
??strncmpi??rA:
        LDR      R12,??Subroutine24_0  ;; ??strncmpi
        BX       R12
        DATA
??Subroutine24_0:
        DC32     ??strncmpi
        CFI EndBlock cfiBlock48

        RSEG CODE:CODE:NOROOT(2)
        CFI Block cfiBlock49 Using cfiCommon1
        CFI NoFunction
        ARM
??kill_data??rA:
        LDR      R12,??Subroutine25_0  ;; kill_data
        BX       R12
        DATA
??Subroutine25_0:
        DC32     kill_data
        CFI EndBlock cfiBlock49

        RSEG CODE:CODE:NOROOT(2)
        CFI Block cfiBlock50 Using cfiCommon1
        CFI NoFunction
        ARM
??InitConfig??rA:
        LDR      R12,??Subroutine26_0  ;; ??InitConfig
        BX       R12
        DATA
??Subroutine26_0:
        DC32     ??InitConfig
        CFI EndBlock cfiBlock50

        RSEG CODE:CODE:NOROOT(2)
        CFI Block cfiBlock51 Using cfiCommon1
        CFI NoFunction
        ARM
`??operator delete??rA`:
        LDR      R12,??Subroutine27_0  ;; `??operator delete`
        BX       R12
        DATA
??Subroutine27_0:
        DC32     `??operator delete`
        CFI EndBlock cfiBlock51

        RSEG DATA_ID:CONST:SORT:NOROOT(2)
`?<Initializer for cfgmacro>`:
        DATA
        DC32 `?<Constant "AUDIO">`, 0, `?<Constant "IMAGE">`, 2
        DC32 `?<Constant "VIDEO">`, 4, `?<Constant "THEME">`, 6
        DC32 `?<Constant "OTHER">`, 8, `?<Constant "ELFS">`, 16
        DC32 `?<Constant "ELFS_DAEMONS">`, 18, `?<Constant "ELFS_CONFIG">`, 20
        DC32 `?<Constant "INI">`, 22

        RSEG DATA_ID:CONST:SORT:NOROOT(2)
`?<Initializer for cfg_time1_on>`:
        DATA
        DC8 6, 30, 0, 0
`?<Initializer for timerFlash>`:
        DC16 0
`?<Initializer for timerScreen>`:
        DC16 0
`?<Initializer for timerREDLED>`:
        DC16 0
`?<Initializer for timerLED>`:
        DC16 0
`?<Initializer for timer>`:
        DC16 0
`?<Initializer for offtimer>`:
        DC16 0
`?<Initializer for offtimerScreen>`:
        DC16 0
`?<Initializer for offtimerLED>`:
        DC16 0
`?<Initializer for offtimerREDLED>`:
        DC16 0
`?<Initializer for modetimer>`:
        DC16 0
`?<Initializer for LEDControl_W580>`:
        DC32 4529BFA9H
`?<Initializer for lamp>`:
        DC32 0
`?<Initializer for screen>`:
        DC32 0
`?<Initializer for REDLED>`:
        DC32 0
`?<Initializer for LED>`:
        DC32 0
`?<Initializer for LED580>`:
        DC32 1
`?<Initializer for LEDnum>`:
        DC32 2
`?<Initializer for cfg_time1_flag>`:
        DC32 1
`?<Initializer for cfg_time2_flag>`:
        DC32 1
`?<Initializer for number>`:
        DC32 134217727
`?<Initializer for skipevents>`:
        DC8 0, 0, 0, 0
`?<Initializer for checkevents>`:
        DC8 0, 0, 0, 0
`?<Initializer for state>`:
        DC32 0
`?<Initializer for disabled>`:
        DC8 0
`?<Initializer for disabled_by_mode>`:
        DC8 0
`?<Initializer for sound_disabled_by_time>`:
        DC8 0
`?<Initializer for vibra_disabled_by_time>`:
        DC8 0
`?<Initializer for flash_disabled_by_time>`:
        DC8 0
`?<Initializer for redled_disabled_by_time>`:
        DC8 0
`?<Initializer for led_disabled_by_time>`:
        DC8 0
`?<Initializer for screen_disabled_by_time>`:
        DC8 0
`?<Initializer for myappname>`:
        DC8 "MissedEvents v.2.3"
        DC8 0
`?<Initializer for cfg_filepath>`:
        DC8 0, 0, 0, 0, 0, 0, 0, 0, 0, 0, 0, 0, 0, 0, 0, 0
        DC8 0, 0, 0, 0, 0, 0, 0, 0, 0, 0, 0, 0, 0, 0, 0, 0
        DC8 0, 0, 0, 0, 0, 0, 0, 0, 0, 0, 0, 0, 0, 0, 0, 0
        DC8 0, 0, 0, 0, 0, 0, 0, 0, 0, 0, 0, 0, 0, 0, 0, 0
        DC8 0, 0, 0, 0, 0, 0, 0, 0, 0, 0, 0, 0, 0, 0, 0, 0
        DC8 0, 0, 0, 0, 0, 0, 0, 0, 0, 0, 0, 0, 0, 0, 0, 0
        DC8 0, 0, 0, 0, 0, 0, 0, 0, 0, 0, 0, 0, 0, 0, 0, 0
        DC8 0, 0, 0, 0, 0, 0, 0, 0, 0, 0, 0, 0, 0, 0, 0, 0
        DC8 0, 0, 0, 0, 0, 0, 0, 0, 0, 0, 0, 0, 0, 0, 0, 0
        DC8 0, 0, 0, 0, 0, 0, 0, 0, 0, 0, 0, 0, 0, 0, 0, 0
        DC8 0, 0, 0, 0, 0, 0, 0, 0, 0, 0, 0, 0, 0, 0, 0, 0
        DC8 0, 0, 0, 0, 0, 0, 0, 0, 0, 0, 0, 0, 0, 0, 0, 0
        DC8 0, 0, 0, 0, 0, 0, 0, 0, 0, 0, 0, 0, 0, 0, 0, 0
        DC8 0, 0, 0, 0, 0, 0, 0, 0, 0, 0, 0, 0, 0, 0, 0, 0
        DC8 0, 0, 0, 0, 0, 0, 0, 0, 0, 0, 0, 0, 0, 0, 0, 0
        DC8 0, 0, 0, 0, 0, 0, 0, 0, 0, 0, 0, 0, 0, 0, 0, 0
        DC8 0, 0, 0, 0, 0, 0, 0, 0, 0, 0, 0, 0, 0, 0, 0, 0
        DC8 0, 0, 0, 0, 0, 0, 0, 0, 0, 0, 0, 0, 0, 0, 0, 0
        DC8 0, 0, 0, 0, 0, 0, 0, 0, 0, 0, 0, 0, 0, 0, 0, 0
        DC8 0, 0, 0, 0, 0, 0, 0, 0, 0, 0, 0, 0, 0, 0, 0, 0
        DC8 0, 0, 0, 0, 0, 0, 0, 0, 0, 0, 0, 0, 0, 0, 0, 0
        DC8 0, 0, 0, 0, 0, 0, 0, 0, 0, 0, 0, 0, 0, 0, 0, 0
        DC8 0, 0, 0, 0, 0, 0, 0, 0, 0, 0, 0, 0, 0, 0, 0, 0
        DC8 0, 0, 0, 0, 0, 0, 0, 0, 0, 0, 0, 0, 0, 0, 0, 0
        DC8 0, 0, 0, 0, 0, 0, 0, 0, 0, 0, 0, 0, 0, 0, 0, 0
        DC8 0, 0, 0, 0, 0, 0, 0, 0, 0, 0, 0, 0, 0, 0, 0, 0
        DC8 0, 0, 0, 0, 0, 0, 0, 0, 0, 0, 0, 0, 0, 0, 0, 0
        DC8 0, 0, 0, 0, 0, 0, 0, 0, 0, 0, 0, 0, 0, 0, 0, 0
        DC8 0, 0, 0, 0, 0, 0, 0, 0, 0, 0, 0, 0, 0, 0, 0, 0
        DC8 0, 0, 0, 0, 0, 0, 0, 0, 0, 0, 0, 0, 0, 0, 0, 0
        DC8 0, 0, 0, 0, 0, 0, 0, 0, 0, 0, 0, 0, 0, 0, 0, 0
        DC8 0, 0, 0, 0, 0, 0, 0, 0, 0, 0, 0, 0, 0, 0, 0, 0
`?<Initializer for cfg_filename>`:
        DC8 0, 0, 0, 0, 0, 0, 0, 0, 0, 0, 0, 0, 0, 0, 0, 0
        DC8 0, 0, 0, 0, 0, 0, 0, 0, 0, 0, 0, 0, 0, 0, 0, 0
        DC8 0, 0, 0, 0, 0, 0, 0, 0, 0, 0, 0, 0, 0, 0, 0, 0
        DC8 0, 0, 0, 0, 0, 0, 0, 0, 0, 0, 0, 0, 0, 0, 0, 0
        DC8 0, 0, 0, 0, 0, 0, 0, 0, 0, 0, 0, 0, 0, 0, 0, 0
        DC8 0, 0, 0, 0, 0, 0, 0, 0, 0, 0, 0, 0, 0, 0, 0, 0
        DC8 0, 0, 0, 0, 0, 0, 0, 0, 0, 0, 0, 0, 0, 0, 0, 0
        DC8 0, 0, 0, 0, 0, 0, 0, 0, 0, 0, 0, 0, 0, 0, 0, 0
        DC8 0, 0, 0, 0, 0, 0, 0, 0, 0, 0, 0, 0, 0, 0, 0, 0
        DC8 0, 0, 0, 0, 0, 0, 0, 0, 0, 0, 0, 0, 0, 0, 0, 0
        DC8 0, 0, 0, 0, 0, 0, 0, 0, 0, 0, 0, 0, 0, 0, 0, 0
        DC8 0, 0, 0, 0, 0, 0, 0, 0, 0, 0, 0, 0, 0, 0, 0, 0
        DC8 0, 0, 0, 0, 0, 0, 0, 0, 0, 0, 0, 0, 0, 0, 0, 0
        DC8 0, 0, 0, 0, 0, 0, 0, 0, 0, 0, 0, 0, 0, 0, 0, 0
        DC8 0, 0, 0, 0, 0, 0, 0, 0, 0, 0, 0, 0, 0, 0, 0, 0
        DC8 0, 0, 0, 0, 0, 0, 0, 0, 0, 0, 0, 0, 0, 0, 0, 0
        DC8 0, 0, 0, 0, 0, 0, 0, 0, 0, 0, 0, 0, 0, 0, 0, 0
        DC8 0, 0, 0, 0, 0, 0, 0, 0, 0, 0, 0, 0, 0, 0, 0, 0
        DC8 0, 0, 0, 0, 0, 0, 0, 0, 0, 0, 0, 0, 0, 0, 0, 0
        DC8 0, 0, 0, 0, 0, 0, 0, 0, 0, 0, 0, 0, 0, 0, 0, 0
        DC8 0, 0, 0, 0, 0, 0, 0, 0, 0, 0, 0, 0, 0, 0, 0, 0
        DC8 0, 0, 0, 0, 0, 0, 0, 0, 0, 0, 0, 0, 0, 0, 0, 0
        DC8 0, 0, 0, 0, 0, 0, 0, 0, 0, 0, 0, 0, 0, 0, 0, 0
        DC8 0, 0, 0, 0, 0, 0, 0, 0, 0, 0, 0, 0, 0, 0, 0, 0
        DC8 0, 0, 0, 0, 0, 0, 0, 0, 0, 0, 0, 0, 0, 0, 0, 0
        DC8 0, 0, 0, 0, 0, 0, 0, 0, 0, 0, 0, 0, 0, 0, 0, 0
        DC8 0, 0, 0, 0, 0, 0, 0, 0, 0, 0, 0, 0, 0, 0, 0, 0
        DC8 0, 0, 0, 0, 0, 0, 0, 0, 0, 0, 0, 0, 0, 0, 0, 0
        DC8 0, 0, 0, 0, 0, 0, 0, 0, 0, 0, 0, 0, 0, 0, 0, 0
        DC8 0, 0, 0, 0, 0, 0, 0, 0, 0, 0, 0, 0, 0, 0, 0, 0
        DC8 0, 0, 0, 0, 0, 0, 0, 0, 0, 0, 0, 0, 0, 0, 0, 0
        DC8 0, 0, 0, 0, 0, 0, 0, 0, 0, 0, 0, 0, 0, 0, 0, 0

        RSEG DATA_ID:CONST:SORT:NOROOT(2)
`?<Initializer for cfg_time1_off>`:
        DATA
        DC8 23, 0, 0, 0

        RSEG DATA_ID:CONST:SORT:NOROOT(2)
`?<Initializer for cfg_time2_on>`:
        DATA
        DC8 6, 30, 0, 0

        RSEG DATA_ID:CONST:SORT:NOROOT(2)
`?<Initializer for cfg_time2_off>`:
        DATA
        DC8 23, 0, 0, 0

        RSEG DATA_ID:CONST:SORT:NOROOT(2)
`?*?DATA_ID`:

        RSEG INITTAB:CODE:ROOT(2)
        DATA
?init?tab?DATA_I:
        DCD      sfe(DATA_I) - sfb(DATA_I), sfb(DATA_I), sfb(DATA_ID)

        END
//  565 
//  566 /*
//  567   Revision history
//  568   2.3
//  569      +    
//  570   2.2
//  571      +   AudioControl_Init
//  572      +   .
//  573   2.1
//  574      +   
//  575   2.0.9
//  576      +   AudioControl_Vibrate  Vibra
//  577   2.0.7
//  578      +  //
//  579   2.0.6
//  580     +     .
//  581     +         
//  582               .
//  583          ,      ,
//  584              ,    .
//  585     +   .
//  586   2.0.5
//  587     +      .
//  588   2.0.4
//  589     +       ,    .
//  590   2.0.3
//  591     +     .
//  592     +    W580
//  593   2.0.2
//  594     +    ,      .
//  595   2.0.1
//  596     +     .
//  597     +  
//  598     +  
//  599     +    . (   Release_en)
//  600   2.0
//  601     +   bcfg
//  602 
//  603 */
// 
// 5 116 bytes in segment CODE
//   416 bytes in segment DATA_C
// 1 212 bytes in segment DATA_I
// 1 212 bytes in segment DATA_ID
//    40 bytes in segment DYN_PAGE
//    12 bytes in segment INITTAB
// 
// 4 972 bytes of CODE  memory (+ 156 bytes shared)
// 1 668 bytes of CONST memory
// 1 212 bytes of DATA  memory
//
//Errors: none
//Warnings: none
