##############################################################################
#                                                                            #
# IAR ARM ANSI C/C++ Compiler V4.42A/W32 EVALUATION    10/Jun/2013  23:04:21 #
# Copyright 1999-2005 IAR Systems. All rights reserved.                      #
#                                                                            #
#    Cpu mode        =  interwork                                            #
#    Endian          =  little                                               #
#    Stack alignment =  4                                                    #
#    Source file     =  Z:\home\perk11\www\perk11.info\svn\SE\Missed         #
#                       Events\Missed Events.c                               #
#    Command line    =  "Z:\home\perk11\www\perk11.info\svn\SE\Missed        #
#                       Events\Missed Events.c" -D NDEBUG -D OLDFUNCTIONS    #
#                       -lC "Z:\home\perk11\www\perk11.info\svn\SE\Missed    #
#                       Events\Release\List\" -lA                            #
#                       "Z:\home\perk11\www\perk11.info\svn\SE\Missed        #
#                       Events\Release\List\" -o "Z:\home\perk11\www\perk11. #
#                       info\svn\SE\Missed Events\Release\Obj\" -s9          #
#                       --cpu_mode arm --endian little --cpu ARM926EJ-S      #
#                       --stack_align 4 --interwork -e --enable_multibytes   #
#                       --fpu None --eec++ --dlib_config                     #
#                       Z:\home\perk11\IAR2\arm\LIB\dl5tpainl8n.h -I         #
#                       Z:\home\perk11\IAR2\arm\INC\ --inline_threshold=2    #
#    List file       =  Z:\home\perk11\www\perk11.info\svn\SE\Missed         #
#                       Events\Release\List\Missed Events.lst                #
#    Object file     =  Z:\home\perk11\www\perk11.info\svn\SE\Missed         #
#                       Events\Release\Obj\Missed Events.r79                 #
#                                                                            #
#                                                                            #
##############################################################################

Z:\home\perk11\www\perk11.info\svn\SE\Missed Events\Missed Events.c
      1          #include "..\\include\Lib_Clara.h"
      2          #include "..\\include\Dir.h"
      3          #include "..\\include\cfg_items.h"
      4          #include "conf_loader.h"
      5          #include "config_data.h"
      6          #include "util.h"

   \                                 In segment CODE, align 4, keep-with-next
   \   __??Code32?? __code __interwork __atpcs int atoi(char const *)
   \                     ??atoi:
   \   00000000   ........           LDR      R2,??DataTable1  ;; _ctypes_
   \   00000004   10002DE9           PUSH     {R4}
   \   00000008   0030D0E5           LDRB     R3,[R0, #+0]
   \   0000000C   0010A0E3           MOV      R1,#+0
   \   00000010   023083E0           ADD      R3,R3,R2
   \   00000014   0130D3E5           LDRB     R3,[R3, #+1]
   \   00000018   080013E3           TST      R3,#0x8
   \   0000001C   0100001A           BNE      ??atoi_1
   \   00000020   050000EA           B        ??atoi_2
   \                     ??atoi_3:
   \   00000024   010080E2           ADD      R0,R0,#+1
   \                     ??atoi_1:
   \   00000028   0030D0E5           LDRB     R3,[R0, #+0]
   \   0000002C   01C082E2           ADD      R12,R2,#+1
   \   00000030   0C30D3E7           LDRB     R3,[R3, +R12]
   \   00000034   080013E3           TST      R3,#0x8
   \   00000038   F9FFFF1A           BNE      ??atoi_3
   \                     ??atoi_2:
   \   0000003C   0030D0E5           LDRB     R3,[R0, #+0]
   \   00000040   2D0053E3           CMP      R3,#+45
   \   00000044   01C0A003           MOVEQ    R12,#+1
   \   00000048   0600000A           BEQ      ??atoi_4
   \   0000004C   00C0A0E3           MOV      R12,#+0
   \   00000050   2B0053E3           CMP      R3,#+43
   \   00000054   0400001A           BNE      ??atoi_5
   \   00000058   020000EA           B        ??atoi_4
   \                     ??atoi_6:
   \   0000005C   0A40A0E3           MOV      R4,#+10
   \   00000060   943121E0           MLA      R1,R4,R1,R3
   \   00000064   301041E2           SUB      R1,R1,#+48
   \                     ??atoi_4:
   \   00000068   0130F0E5           LDRB     R3,[R0, #+1]!
   \                     ??atoi_5:
   \   0000006C   024083E0           ADD      R4,R3,R2
   \   00000070   0140D4E5           LDRB     R4,[R4, #+1]
   \   00000074   040014E3           TST      R4,#0x4
   \   00000078   F7FFFF1A           BNE      ??atoi_6
   \   0000007C   1000BDE8           POP      {R4}
   \   00000080   00005CE3           CMP      R12,#+0
   \   00000084   00106112           RSBNE    R1,R1,#+0
   \   00000088   0100A0E1           MOV      R0,R1
   \   0000008C   1EFF2FE1           BX       LR               ;; return

   \                                 In segment CODE, align 4, keep-with-next
   \   __??Code32?? __code __interwork __atpcs int str2int(char *)
   \                     ??str2int:
   \   00000000   10002DE9           PUSH     {R4}
   \   00000004   ........           LDR      R3,??DataTable1  ;; _ctypes_
   \   00000008   0010A0E1           MOV      R1,R0
   \   0000000C   00C0D1E5           LDRB     R12,[R1, #+0]
   \   00000010   0A20A0E3           MOV      R2,#+10
   \   00000014   0000A0E3           MOV      R0,#+0
   \   00000018   03C08CE0           ADD      R12,R12,R3
   \   0000001C   01C0DCE5           LDRB     R12,[R12, #+1]
   \   00000020   08001CE3           TST      R12,#0x8
   \   00000024   0100001A           BNE      ??str2int_1
   \   00000028   050000EA           B        ??str2int_2
   \                     ??str2int_3:
   \   0000002C   011081E2           ADD      R1,R1,#+1
   \                     ??str2int_1:
   \   00000030   00C0D1E5           LDRB     R12,[R1, #+0]
   \   00000034   014083E2           ADD      R4,R3,#+1
   \   00000038   0440DCE7           LDRB     R4,[R12, +R4]
   \   0000003C   080014E3           TST      R4,#0x8
   \   00000040   F9FFFF1A           BNE      ??str2int_3
   \                     ??str2int_2:
   \   00000044   0030D1E5           LDRB     R3,[R1, #+0]
   \   00000048   240053E3           CMP      R3,#+36
   \   0000004C   1020A003           MOVEQ    R2,#+16
   \   00000050   01108102           ADDEQ    R1,R1,#+1
   \   00000054   0900000A           BEQ      ??str2int_4
   \   00000058   300053E3           CMP      R3,#+48
   \   0000005C   0130D105           LDRBEQ   R3,[R1, #+1]
   \   00000060   78005303           CMPEQ    R3,#+120
   \   00000064   0500001A           BNE      ??str2int_4
   \   00000068   1020A0E3           MOV      R2,#+16
   \   0000006C   021081E2           ADD      R1,R1,#+2
   \   00000070   020000EA           B        ??str2int_4
   \                     ??str2int_5:
   \   00000074   ........           LDRB     R3,[R1], #+1
   \   00000078   303043E2           SUB      R3,R3,#+48
   \   0000007C   923020E0           MLA      R0,R2,R0,R3
   \                     ??str2int_4:
   \   00000080   0030D1E5           LDRB     R3,[R1, #+0]
   \   00000084   300053E3           CMP      R3,#+48
   \   00000088   0100003A           BCC      ??str2int_6
   \   0000008C   3A0053E3           CMP      R3,#+58
   \   00000090   F7FFFF3A           BCC      ??str2int_5
   \                     ??str2int_6:
   \   00000094   100052E3           CMP      R2,#+16
   \   00000098   0700001A           BNE      ??str2int_7
   \   0000009C   000053E3           CMP      R3,#+0
   \   000000A0   01309313           ORRSNE   R3,R3,#0x1
   \   000000A4   0400000A           BEQ      ??str2int_7
   \   000000A8   ........           LDRB     R3,[R1], #+1
   \   000000AC   3640E0E3           MVN      R4,#+54
   \   000000B0   033084E1           ORR      R3,R4,R3
   \   000000B4   000283E0           ADD      R0,R3,R0, LSL #+4
   \   000000B8   F0FFFFEA           B        ??str2int_4
   \                     ??str2int_7:
   \   000000BC   1000BDE8           POP      {R4}
   \   000000C0   1EFF2FE1           BX       LR               ;; return

   \                                 In segment CODE, align 4, keep-with-next
   \   __??Code32?? __code __interwork __atpcs void splitfilename(wchar_t *, wchar_t *, wchar_t *)
   \                     ??splitfilename:
   \   00000000   F0412DE9           PUSH     {R4-R8,LR}
   \   00000004   0040A0E1           MOV      R4,R0
   \   00000008   0150A0E1           MOV      R5,R1
   \   0000000C   0260A0E1           MOV      R6,R2
   \   00000010   2F10A0E3           MOV      R1,#+47
   \   00000014   AE0100EF           SWI      +430
   \   00000018   0070A0E1           MOV      R7,R0
   \   0000001C   A700A0E1           LSR      R0,R7,#+1
   \   00000020   A48040E0           SUB      R8,R0,R4, LSR #+1
   \   00000024   0820A0E1           MOV      R2,R8
   \   00000028   0410A0E1           MOV      R1,R4
   \   0000002C   0500A0E1           MOV      R0,R5
   \   00000030   530100EF           SWI      +339
   \   00000034   880085E0           ADD      R0,R5,R8, LSL #+1
   \   00000038   0010A0E3           MOV      R1,#+0
   \   0000003C   B010C0E1           STRH     R1,[R0, #+0]
   \   00000040   021087E2           ADD      R1,R7,#+2
   \   00000044   0600A0E1           MOV      R0,R6
   \   00000048   520100EF           SWI      +338
   \   0000004C   F081BDE8           POP      {R4-R8,PC}       ;; return

   \                                 In segment DATA_I, align 4, align-sorted
   \   <unnamed> __data cfgmacro[9]
   \                     cfgmacro:
   \   00000000                      DS8 72
   \   00000048                      REQUIRE `?<Initializer for cfgmacro>`

   \                                 In segment CODE, align 4, keep-with-next
   \   __??Code32?? __code __interwork __atpcs void extractdir(wchar_t *, wchar_t *, char const *)
   \                     ??extractdir:
   \   00000000   F0472DE9           PUSH     {R4-R10,LR}
   \   00000004   88DF4DE2           SUB      SP,SP,#+544
   \   00000008   E8909FE5           LDR      R9,??extractdir_1  ;; `?<Constant "%%%s_EXT%%">`
   \   0000000C   E8A09FE5           LDR      R10,??extractdir_1+0x4  ;; cfgmacro
   \   00000010   0040A0E1           MOV      R4,R0
   \   00000014   0150A0E1           MOV      R5,R1
   \   00000018   0260A0E1           MOV      R6,R2
   \   0000001C   0080A0E3           MOV      R8,#+0
   \   00000020   000000EA           B        ??extractdir_2
   \                     ??extractdir_3:
   \   00000024   018088E2           ADD      R8,R8,#+1
   \                     ??extractdir_2:
   \   00000028   090058E3           CMP      R8,#+9
   \   0000002C   2300002A           BCS      ??extractdir_4
   \   00000030   88219AE7           LDR      R2,[R10, +R8, LSL #+3]
   \   00000034   0C1089E2           ADD      R1,R9,#+12
   \   00000038   0D00A0E1           MOV      R0,SP
   \   0000003C   140100EF           SWI      +276
   \   00000040   0070A0E1           MOV      R7,R0
   \   00000044   0720A0E1           MOV      R2,R7
   \   00000048   0D10A0E1           MOV      R1,SP
   \   0000004C   0600A0E1           MOV      R0,R6
   \   00000050   ........           _BLF     ??strncmpi,??strncmpi??rA
   \   00000054   000050E3           CMP      R0,#+0
   \   00000058   0300001A           BNE      ??extractdir_5
   \   0000005C   88018AE0           ADD      R0,R10,R8, LSL #+3
   \   00000060   040090E5           LDR      R0,[R0, #+4]
   \   00000064   010080E3           ORR      R0,R0,#0x1
   \   00000068   0C0000EA           B        ??extractdir_6
   \                     ??extractdir_5:
   \   0000006C   88219AE7           LDR      R2,[R10, +R8, LSL #+3]
   \   00000070   0910A0E1           MOV      R1,R9
   \   00000074   0D00A0E1           MOV      R0,SP
   \   00000078   140100EF           SWI      +276
   \   0000007C   0070A0E1           MOV      R7,R0
   \   00000080   0720A0E1           MOV      R2,R7
   \   00000084   0D10A0E1           MOV      R1,SP
   \   00000088   0600A0E1           MOV      R0,R6
   \   0000008C   ........           _BLF     ??strncmpi,??strncmpi??rA
   \   00000090   000050E3           CMP      R0,#+0
   \   00000094   E2FFFF1A           BNE      ??extractdir_3
   \   00000098   88018AE0           ADD      R0,R10,R8, LSL #+3
   \   0000009C   040090E5           LDR      R0,[R0, #+4]
   \                     ??extractdir_6:
   \   000000A0   066087E0           ADD      R6,R7,R6
   \   000000A4   010070E3           CMN      R0,#+1
   \   000000A8   0400000A           BEQ      ??extractdir_4
   \   000000AC   050100EF           SWI      +261
   \   000000B0   0010A0E1           MOV      R1,R0
   \   000000B4   20008DE2           ADD      R0,SP,#+32
   \   000000B8   520100EF           SWI      +338
   \   000000BC   010000EA           B        ??extractdir_7
   \                     ??extractdir_4:
   \   000000C0   0010A0E3           MOV      R1,#+0
   \   000000C4   B012CDE1           STRH     R1,[SP, #+32]
   \                     ??extractdir_7:
   \   000000C8   20008DE2           ADD      R0,SP,#+32
   \   000000CC   570100EF           SWI      +343
   \   000000D0   0610A0E1           MOV      R1,R6
   \   000000D4   20208DE2           ADD      R2,SP,#+32
   \   000000D8   800082E0           ADD      R0,R2,R0, LSL #+1
   \   000000DC   580100EF           SWI      +344
   \   000000E0   0520A0E1           MOV      R2,R5
   \   000000E4   0410A0E1           MOV      R1,R4
   \   000000E8   20008DE2           ADD      R0,SP,#+32
   \   000000EC   ........           BL       ??splitfilename
   \   000000F0   88DF8DE2           ADD      SP,SP,#+544
   \   000000F4   F087BDE8           POP      {R4-R10,PC}      ;; return
   \                     ??extractdir_1:
   \   000000F8   ........           DC32     `?<Constant "%%%s_EXT%%">`
   \   000000FC   ........           DC32     cfgmacro
      7          
      8          #define ELFNAME "MissedEvents v.2.3"
      9          #define LELFNAME L"Missed Events"
     10          #define LELFVERSION L"\nv2.3\nby den_po\n\nMods: Ploik & BigHercules"
     11          

   \                                 In segment DATA_I, align 4, align-sorted
     12          void (*LEDControl_W580)(int,int id,int RED,int GREEN,int BLUE, int br, int delay)=(void (*)(int,int id,int RED,int GREEN,int BLUE,int br,int delay))(0x4529BFA9);
     13          
     14          #define COLOR_GET_A(x) ((unsigned int)x>>24)
     15          #define COLOR_GET_R(x) (((unsigned int)x>>16)&0xFF)
     16          #define COLOR_GET_G(x) (((unsigned int)x>>8)&0xFF)
     17          #define COLOR_GET_B(x) ((unsigned int)x&0xFF)
     18          
     19          static char myappname[]=ELFNAME;
     20          
     21          bool disabled=false;
     22          bool disabled_by_mode=false;
     23          
     24          bool sound_disabled_by_time = false;
     25          bool vibra_disabled_by_time = false;
     26          bool flash_disabled_by_time = false;
     27          bool redled_disabled_by_time = false;
     28          bool led_disabled_by_time = false;
     29          bool screen_disabled_by_time = false;
     30          
     31          int lamp=0;
     32          int screen=0;
     33          
     34          int REDLED=0;
     35          int LED=0;
     36          int LED580=1;
     37          int LEDnum=2;
     38          
     39          wchar_t cfg_filepath[256];
     40          wchar_t cfg_filename[256];
     41          
     42          u16 timerFlash = 0;
     43          u16 timerScreen = 0;
     44          u16 timerREDLED = 0;
     45          u16 timerLED = 0;
     46          u16 timer = 0;
     47          u16 offtimer = 0;
     48          u16 offtimerScreen = 0;
     49          u16 offtimerLED = 0;
     50          u16 offtimerREDLED = 0;
     51          u16 modetimer = 0;
     52          
     53          int cfg_time1_flag = 1;
     54          TIME cfg_time1_on   = {6,30,0,0};
   \                     cfg_time1_on:
   \   00000000                      DS8 4
   \   00000004                      REQUIRE `?<Initializer for cfg_time1_on>`
   \                     timerFlash:
   \   00000004                      DS8 2
   \   00000006                      REQUIRE `?<Initializer for timerFlash>`
   \                     timerScreen:
   \   00000006                      DS8 2
   \   00000008                      REQUIRE `?<Initializer for timerScreen>`
   \                     timerREDLED:
   \   00000008                      DS8 2
   \   0000000A                      REQUIRE `?<Initializer for timerREDLED>`
   \                     timerLED:
   \   0000000A                      DS8 2
   \   0000000C                      REQUIRE `?<Initializer for timerLED>`
   \                     timer:
   \   0000000C                      DS8 2
   \   0000000E                      REQUIRE `?<Initializer for timer>`
   \                     offtimer:
   \   0000000E                      DS8 2
   \   00000010                      REQUIRE `?<Initializer for offtimer>`
   \                     offtimerScreen:
   \   00000010                      DS8 2
   \   00000012                      REQUIRE `?<Initializer for offtimerScreen>`
   \                     offtimerLED:
   \   00000012                      DS8 2
   \   00000014                      REQUIRE `?<Initializer for offtimerLED>`
   \                     offtimerREDLED:
   \   00000014                      DS8 2
   \   00000016                      REQUIRE `?<Initializer for offtimerREDLED>`
   \                     modetimer:
   \   00000016                      DS8 2
   \   00000018                      REQUIRE `?<Initializer for modetimer>`
   \                     LEDControl_W580:
   \   00000018                      DS8 4
   \   0000001C                      REQUIRE `?<Initializer for LEDControl_W580>`
   \                     lamp:
   \   0000001C                      DS8 4
   \   00000020                      REQUIRE `?<Initializer for lamp>`
   \                     screen:
   \   00000020                      DS8 4
   \   00000024                      REQUIRE `?<Initializer for screen>`
   \                     REDLED:
   \   00000024                      DS8 4
   \   00000028                      REQUIRE `?<Initializer for REDLED>`
   \                     LED:
   \   00000028                      DS8 4
   \   0000002C                      REQUIRE `?<Initializer for LED>`
   \                     LED580:
   \   0000002C                      DS8 4
   \   00000030                      REQUIRE `?<Initializer for LED580>`
   \                     LEDnum:
   \   00000030                      DS8 4
   \   00000034                      REQUIRE `?<Initializer for LEDnum>`
   \                     cfg_time1_flag:
   \   00000034                      DS8 4
   \   00000038                      REQUIRE `?<Initializer for cfg_time1_flag>`
     55          TIME cfg_time1_off  = {23,0,0,0};
     56          
     57          int cfg_time2_flag = 1;
   \                     cfg_time2_flag:
   \   00000038                      DS8 4
   \   0000003C                      REQUIRE `?<Initializer for cfg_time2_flag>`
     58          TIME cfg_time2_on   = {6,30,0,0};
     59          TIME cfg_time2_off  = {23,0,0,0};
     60          
     61          int number = 0x7ffffff;
   \                     number:
   \   0000003C                      DS8 4
   \   00000040                      REQUIRE `?<Initializer for number>`
     62          
     63          int skipevents;
   \                     skipevents:
   \   00000040                      DS8 4
   \   00000044                      REQUIRE `?<Initializer for skipevents>`
     64          int checkevents;
   \                     checkevents:
   \   00000044                      DS8 4
   \   00000048                      REQUIRE `?<Initializer for checkevents>`
     65          
     66          enum
     67          {
     68            WAIT = 0,
     69            MISS = 1
     70          };
     71          
     72          int state = WAIT;
   \                     state:
   \   00000048                      DS8 4
   \   0000004C                      REQUIRE `?<Initializer for state>`
   \                     disabled:
   \   0000004C                      DS8 1
   \   0000004D                      REQUIRE `?<Initializer for disabled>`
   \                     disabled_by_mode:
   \   0000004D                      DS8 1
   \   0000004E                      REQUIRE `?<Initializer for disabled_by_mode>`
   \                     sound_disabled_by_time:
   \   0000004E                      DS8 1
   \   0000004F                      REQUIRE `?<Initializer for sound_disabled_by_time>`
   \                     vibra_disabled_by_time:
   \   0000004F                      DS8 1
   \   00000050                      REQUIRE `?<Initializer for vibra_disabled_by_time>`
   \                     flash_disabled_by_time:
   \   00000050                      DS8 1
   \   00000051                      REQUIRE `?<Initializer for flash_disabled_by_time>`
   \                     redled_disabled_by_time:
   \   00000051                      DS8 1
   \   00000052                      REQUIRE `?<Initializer for redled_disabled_by_time>`
   \                     led_disabled_by_time:
   \   00000052                      DS8 1
   \   00000053                      REQUIRE `?<Initializer for led_disabled_by_time>`
   \                     screen_disabled_by_time:
   \   00000053                      DS8 1
   \   00000054                      REQUIRE `?<Initializer for screen_disabled_by_time>`
   \   00000054                      DS8 20
   \   00000068                      REQUIRE `?<Initializer for myappname>`
   \                     cfg_filepath:
   \   00000068                      DS8 512
   \   00000268                      REQUIRE `?<Initializer for cfg_filepath>`
   \                     cfg_filename:
   \   00000268                      DS8 512
   \   00000468                      REQUIRE `?<Initializer for cfg_filename>`

   \                                 In segment DATA_I, align 4, align-sorted
   \                     cfg_time1_off:
   \   00000000                      DS8 4
   \   00000004                      REQUIRE `?<Initializer for cfg_time1_off>`

   \                                 In segment DATA_I, align 4, align-sorted
   \                     cfg_time2_on:
   \   00000000                      DS8 4
   \   00000004                      REQUIRE `?<Initializer for cfg_time2_on>`

   \                                 In segment DATA_I, align 4, align-sorted
   \                     cfg_time2_off:
   \   00000000                      DS8 4
   \   00000004                      REQUIRE `?<Initializer for cfg_time2_off>`
     73          

   \                                 In segment CODE, align 4, keep-with-next
     74          int timecmp(const TIME *t1, const TIME *t2)
     75          {
     76              if(t1->hour > t2->hour) return 1;
   \                     ??timecmp:
   \   00000000   0020D0E5           LDRB     R2,[R0, #+0]
   \   00000004   0030D1E5           LDRB     R3,[R1, #+0]
   \   00000008   020053E1           CMP      R3,R2
   \   0000000C   0100002A           BCS      ??timecmp_1
   \                     ??timecmp_2:
   \   00000010   0100A0E3           MOV      R0,#+1
   \   00000014   1EFF2FE1           BX       LR
     77              if(t1->hour < t2->hour) return -1;
   \                     ??timecmp_1:
   \   00000018   030052E1           CMP      R2,R3
   \   0000001C   0500003A           BCC      ??timecmp_3
     78              if(t1->min > t2->min) return 1;
   \   00000020   0100D0E5           LDRB     R0,[R0, #+1]
   \   00000024   0110D1E5           LDRB     R1,[R1, #+1]
   \   00000028   000051E1           CMP      R1,R0
   \   0000002C   F7FFFF3A           BCC      ??timecmp_2
     79              if(t1->min < t2->min) return -1;
   \   00000030   010050E1           CMP      R0,R1
   \   00000034   0100002A           BCS      ??timecmp_4
   \                     ??timecmp_3:
   \   00000038   0000E0E3           MVN      R0,#+0
   \   0000003C   1EFF2FE1           BX       LR
     80              return 0;
   \                     ??timecmp_4:
   \   00000040   0000A0E3           MOV      R0,#+0
   \   00000044   1EFF2FE1           BX       LR               ;; return
     81          }
     82          

   \                                 In segment CODE, align 4, keep-with-next
     83          void onTimerREDLED(u16 timerID, LPARAM lparam)
     84          {
   \                     ??onTimerREDLED:
   \   00000000   70402DE9           PUSH     {R4-R6,LR}
     85            if(REDLED == 0)
   \   00000004   ........           LDR      R4,??DataTable32  ;; ??onTimerREDLED
   \   00000008   ........           LDR      R6,??DataTable43  ;; cfg_time1_on
   \   0000000C   0050A0E3           MOV      R5,#+0
   \   00000010   240096E5           LDR      R0,[R6, #+36]
   \   00000014   000050E3           CMP      R0,#+0
   \   00000018   0500001A           BNE      ??onTimerREDLED_1
     86            {
     87              REDLED = 1;
   \   0000001C   0100A0E3           MOV      R0,#+1
   \   00000020   240086E5           STR      R0,[R6, #+36]
     88              RedLED_On(0);
   \   00000024   0000A0E3           MOV      R0,#+0
   \   00000028   070300EF           SWI      +775
     89              Timer_ReSet(&timerREDLED,cfg_redled_ontime,onTimerREDLED,0);
   \   0000002C   28009FE5           LDR      R0,??onTimerREDLED_2  ;; cfg_redled_ontime
   \   00000030   030000EA           B        ??onTimerREDLED_3
     90            }
     91            else
     92            {
     93              REDLED = 0;
   \                     ??onTimerREDLED_1:
   \   00000034   245086E5           STR      R5,[R6, #+36]
     94              RedLED_Off(0);
   \   00000038   0000A0E3           MOV      R0,#+0
   \   0000003C   080300EF           SWI      +776
     95              Timer_ReSet(&timerREDLED,cfg_redled_offtime,onTimerREDLED,0);
   \   00000040   18009FE5           LDR      R0,??onTimerREDLED_2+0x4  ;; cfg_redled_offtime
   \                     ??onTimerREDLED_3:
   \   00000044   0530A0E1           MOV      R3,R5
   \   00000048   0420A0E1           MOV      R2,R4
   \   0000004C   001090E5           LDR      R1,[R0, #+0]
   \   00000050   080086E2           ADD      R0,R6,#+8
   \   00000054   280100EF           SWI      +296
     96            }
     97          }
   \   00000058   7080BDE8           POP      {R4-R6,PC}       ;; return
   \                     ??onTimerREDLED_2:
   \   0000005C   ........           DC32     cfg_redled_ontime
   \   00000060   ........           DC32     cfg_redled_offtime
     98          

   \                                 In segment CODE, align 4, keep-with-next
     99          void onTimerLED(u16 timerID, LPARAM lparam)
    100          {
    101            if(cfg_phone_type == 1)
   \                     ??onTimerLED:
   \   00000000   5C019FE5           LDR      R0,??onTimerLED_1  ;; cfg_led_blink_speed
   \   00000004   ........           LDR      R2,??DataTable31  ;; ??onTimerLED
   \   00000008   F0402DE9           PUSH     {R4-R7,LR}
   \   0000000C   ........           LDR      R4,??DataTable43  ;; cfg_time1_on
   \   00000010   04D04DE2           SUB      SP,SP,#+4
   \   00000014   005090E5           LDR      R5,[R0, #+0]
   \   00000018   ........           LDR      R0,??DataTable16  ;; cfg_phone_type
   \   0000001C   0030A0E3           MOV      R3,#+0
   \   00000020   000090E5           LDR      R0,[R0, #+0]
   \   00000024   010050E3           CMP      R0,#+1
   \   00000028   2F00001A           BNE      ??onTimerLED_2
    102            {
    103              Timer_ReSet(&timerLED,cfg_led_blink_speed,onTimerLED,0);
   \   0000002C   0510A0E1           MOV      R1,R5
   \   00000030   0A0084E2           ADD      R0,R4,#+10
   \   00000034   280100EF           SWI      +296
    104              if (cfg_led580_blink_mode == 2)
   \   00000038   28019FE5           LDR      R0,??onTimerLED_1+0x4  ;; cfg_led580_color
   \   0000003C   FF10A0E3           MOV      R1,#+255
   \   00000040   000090E5           LDR      R0,[R0, #+0]
   \   00000044   205801E0           AND      R5,R1,R0, LSR #+16
   \   00000048   206401E0           AND      R6,R1,R0, LSR #+8
   \   0000004C   FF7000E2           AND      R7,R0,#0xFF
   \   00000050   14019FE5           LDR      R0,??onTimerLED_1+0x8  ;; cfg_led580_blink_mode
   \   00000054   001090E5           LDR      R1,[R0, #+0]
   \   00000058   2C0094E5           LDR      R0,[R4, #+44]
   \   0000005C   020051E3           CMP      R1,#+2
   \   00000060   010020E2           EOR      R0,R0,#0x1
   \   00000064   2C0084E5           STR      R0,[R4, #+44]
   \   00000068   01002DE9           PUSH     {R0}
   \   0000006C   0000A0E3           MOV      R0,#+0
   \   00000070   01002DE9           PUSH     {R0}
   \   00000074   1400001A           BNE      ??onTimerLED_3
    105              {
    106                LEDControl_W580(1, 0, COLOR_GET_R(cfg_led580_color),COLOR_GET_G(cfg_led580_color),COLOR_GET_B(cfg_led580_color),0,LED580 ^= 1);
   \   00000078   0700A0E1           MOV      R0,R7
   \   0000007C   01002DE9           PUSH     {R0}
   \   00000080   18C094E5           LDR      R12,[R4, #+24]
   \   00000084   0630A0E1           MOV      R3,R6
   \   00000088   0520A0E1           MOV      R2,R5
   \   0000008C   0010A0E3           MOV      R1,#+0
   \   00000090   0100A0E3           MOV      R0,#+1
   \   00000094   3CFF2FE1           BLX      R12
    107                LEDControl_W580(1, 1, COLOR_GET_R(cfg_led580_color),COLOR_GET_G(cfg_led580_color),COLOR_GET_B(cfg_led580_color),0,LED580);
   \   00000098   2C0094E5           LDR      R0,[R4, #+44]
   \   0000009C   0630A0E1           MOV      R3,R6
   \   000000A0   01002DE9           PUSH     {R0}
   \   000000A4   0520A0E1           MOV      R2,R5
   \   000000A8   0110A0E3           MOV      R1,#+1
   \   000000AC   0000A0E3           MOV      R0,#+0
   \   000000B0   01002DE9           PUSH     {R0}
   \   000000B4   80002DE9           PUSH     {R7}
   \   000000B8   184094E5           LDR      R4,[R4, #+24]
   \   000000BC   0100A0E3           MOV      R0,#+1
   \   000000C0   34FF2FE1           BLX      R4
   \   000000C4   18D08DE2           ADD      SP,SP,#+24
   \   000000C8   F180BDE8           POP      {R0,R4-R7,PC}
    108              }
    109              else
    110              {
    111                LEDControl_W580(1, cfg_led580_blink_mode, COLOR_GET_R(cfg_led580_color),COLOR_GET_G(cfg_led580_color),COLOR_GET_B(cfg_led580_color),0,LED580 ^= 1);
   \                     ??onTimerLED_3:
   \   000000CC   80002DE9           PUSH     {R7}
   \   000000D0   184094E5           LDR      R4,[R4, #+24]
   \   000000D4   0630A0E1           MOV      R3,R6
   \   000000D8   0520A0E1           MOV      R2,R5
   \   000000DC   0100A0E3           MOV      R0,#+1
   \   000000E0   34FF2FE1           BLX      R4
   \   000000E4   0CD08DE2           ADD      SP,SP,#+12
   \   000000E8   F180BDE8           POP      {R0,R4-R7,PC}
    112              }
    113            }
    114            else if(cfg_phone_type == 2)
   \                     ??onTimerLED_2:
   \   000000EC   020050E3           CMP      R0,#+2
   \   000000F0   F180BD18           POPNE    {R0,R4-R7,PC}
    115            {
    116              Timer_ReSet(&timerLED,100,onTimerLED,0);
   \   000000F4   6410A0E3           MOV      R1,#+100
   \   000000F8   0A0084E2           ADD      R0,R4,#+10
   \   000000FC   280100EF           SWI      +296
    117              if (cfg_led_blink_mode)
   \   00000100   68009FE5           LDR      R0,??onTimerLED_1+0xC  ;; cfg_led_blink_mode
   \   00000104   000090E5           LDR      R0,[R0, #+0]
   \   00000108   000050E3           CMP      R0,#+0
   \   0000010C   0C00000A           BEQ      ??onTimerLED_4
    118              {
    119                OrangeLED_Control(1,LEDnum,0,cfg_led_blink_speed);
   \   00000110   301094E5           LDR      R1,[R4, #+48]
   \   00000114   0530A0E1           MOV      R3,R5
   \   00000118   0020A0E3           MOV      R2,#+0
   \   0000011C   0100A0E3           MOV      R0,#+1
   \   00000120   DC0200EF           SWI      +732
    120                if (LEDnum == 2) LEDnum=0;
   \   00000124   300094E5           LDR      R0,[R4, #+48]
    121                else LEDnum++;
    122                OrangeLED_Control(1,LEDnum,100,cfg_led_blink_speed);
   \   00000128   0530A0E1           MOV      R3,R5
   \   0000012C   020050E3           CMP      R0,#+2
   \   00000130   0010A003           MOVEQ    R1,#+0
   \   00000134   01108012           ADDNE    R1,R0,#+1
   \   00000138   301084E5           STR      R1,[R4, #+48]
   \   0000013C   6420A0E3           MOV      R2,#+100
   \   00000140   040000EA           B        ??onTimerLED_5
    123              }
    124              else
    125                OrangeLED_Control(1,0,LED^=0x64,cfg_led_blink_speed);
   \                     ??onTimerLED_4:
   \   00000144   280094E5           LDR      R0,[R4, #+40]
   \   00000148   0530A0E1           MOV      R3,R5
   \   0000014C   642020E2           EOR      R2,R0,#0x64
   \   00000150   282084E5           STR      R2,[R4, #+40]
   \   00000154   0010A0E3           MOV      R1,#+0
   \                     ??onTimerLED_5:
   \   00000158   0100A0E3           MOV      R0,#+1
   \   0000015C   DC0200EF           SWI      +732
    126            }
    127          }
   \   00000160   F180BDE8           POP      {R0,R4-R7,PC}    ;; return
   \                     ??onTimerLED_1:
   \   00000164   ........           DC32     cfg_led_blink_speed
   \   00000168   ........           DC32     cfg_led580_color
   \   0000016C   ........           DC32     cfg_led580_blink_mode
   \   00000170   ........           DC32     cfg_led_blink_mode
    128          

   \                                 In segment CODE, align 4, keep-with-next
    129          void onTimerFlash(u16 timerID, LPARAM lparam)
    130          {
   \                     ??onTimerFlash:
   \   00000000   10402DE9           PUSH     {R4,LR}
    131            switch(GetChipID()&CHIPID_MASK)
   \   00000004   ........           LDR      R4,??DataTable43  ;; cfg_time1_on
   \   00000008   4E0200EF           SWI      +590
   \   0000000C   FE0C00E2           AND      R0,R0,#0xFE00
   \   00000010   700C50E2           SUBS     R0,R0,#+28672
   \   00000014   400D5012           SUBSNE   R0,R0,#+4096
   \   00000018   0200000A           BEQ      ??onTimerFlash_1
   \   0000001C   600D50E2           SUBS     R0,R0,#+6144
   \   00000020   0300000A           BEQ      ??onTimerFlash_2
   \   00000024   060000EA           B        ??onTimerFlash_3
    132            {
    133             case CHIPID_DB2000:
    134             case CHIPID_DB2010:
    135             {
    136              SetLampLevel(lamp^=0x50);
   \                     ??onTimerFlash_1:
   \   00000028   1C0094E5           LDR      R0,[R4, #+28]
   \   0000002C   500020E2           EOR      R0,R0,#0x50
   \   00000030   010000EA           B        ??onTimerFlash_4
    137             }
    138             break;
    139             case CHIPID_DB2020:
    140             {
    141              SetLampLevel(lamp^=1);
   \                     ??onTimerFlash_2:
   \   00000034   1C0094E5           LDR      R0,[R4, #+28]
   \   00000038   010020E2           EOR      R0,R0,#0x1
   \                     ??onTimerFlash_4:
   \   0000003C   1C0084E5           STR      R0,[R4, #+28]
   \   00000040   780100EF           SWI      +376
    142             }
    143             break;
    144            }
    145            Timer_ReSet(&timerFlash,cfg_flash_blink_speed,onTimerFlash,0);
   \                     ??onTimerFlash_3:
   \   00000044   ........           LDR      R0,??DataTable27  ;; cfg_flash_blink_speed
   \   00000048   ........           LDR      R2,??DataTable28  ;; ??onTimerFlash
   \   0000004C   001090E5           LDR      R1,[R0, #+0]
   \   00000050   0030A0E3           MOV      R3,#+0
   \   00000054   040084E2           ADD      R0,R4,#+4
   \   00000058   280100EF           SWI      +296
    146          }
   \   0000005C   1080BDE8           POP      {R4,PC}          ;; return
    147          

   \                                 In segment CODE, align 4, keep-with-next
    148          void onTimerScreen(u16 timerID, LPARAM lparam)
    149          {
    150              IndicationDevice_Backlight_FadeToLevel(0,screen ^= cfg_screen_level);
   \                     ??onTimerScreen:
   \   00000000   ........           LDR      R1,??DataTable19  ;; cfg_screen_level
   \   00000004   10402DE9           PUSH     {R4,LR}
   \   00000008   001091E5           LDR      R1,[R1, #+0]
   \   0000000C   ........           LDR      R4,??DataTable43  ;; cfg_time1_on
   \   00000010   200094E5           LDR      R0,[R4, #+32]
   \   00000014   001021E0           EOR      R1,R1,R0
   \   00000018   201084E5           STR      R1,[R4, #+32]
   \   0000001C   0000A0E3           MOV      R0,#+0
   \   00000020   6F0100EF           SWI      +367
    151              Timer_ReSet(&timerScreen,cfg_screen_blink_speed,onTimerScreen,0);
   \   00000024   ........           LDR      R0,??DataTable29  ;; cfg_screen_blink_speed
   \   00000028   ........           LDR      R2,??DataTable30  ;; ??onTimerScreen
   \   0000002C   001090E5           LDR      R1,[R0, #+0]
   \   00000030   0030A0E3           MOV      R3,#+0
   \   00000034   060084E2           ADD      R0,R4,#+6
   \   00000038   280100EF           SWI      +296
    152          }
   \   0000003C   1080BDE8           POP      {R4,PC}          ;; return
    153          

   \                                 In segment CODE, align 4, keep-with-next
    154          void offTimerREDLED(u16 timerID, LPARAM lparam)
    155          {
   \                     ??offTimerREDLED:
   \   00000000   30402DE9           PUSH     {R4,R5,LR}
    156             if(timerREDLED)
   \   00000004   ........           LDR      R5,??DataTable43  ;; cfg_time1_on
   \   00000008   0040A0E3           MOV      R4,#+0
   \   0000000C   B800D5E1           LDRH     R0,[R5, #+8]
   \   00000010   000050E3           CMP      R0,#+0
   \   00000014   0400000A           BEQ      ??offTimerREDLED_1
    157             {
    158               Timer_Kill(&timerREDLED);
   \   00000018   080085E2           ADD      R0,R5,#+8
   \   0000001C   2A0100EF           SWI      +298
    159               timerREDLED = 0;
   \   00000020   B840C5E1           STRH     R4,[R5, #+8]
    160               RedLED_Off(0);
   \   00000024   0000A0E3           MOV      R0,#+0
   \   00000028   080300EF           SWI      +776
    161             }
    162             REDLED = 0;
   \                     ??offTimerREDLED_1:
   \   0000002C   244085E5           STR      R4,[R5, #+36]
    163          }
   \   00000030   3080BDE8           POP      {R4,R5,PC}       ;; return
    164          

   \                                 In segment CODE, align 4, keep-with-next
    165          void offTimerLED(u16 timerID, LPARAM lparam)
    166          {
   \                     ??offTimerLED:
   \   00000000   70402DE9           PUSH     {R4-R6,LR}
    167             if(timerLED)
   \   00000004   ........           LDR      R5,??DataTable43  ;; cfg_time1_on
   \   00000008   0040A0E3           MOV      R4,#+0
   \   0000000C   BA00D5E1           LDRH     R0,[R5, #+10]
   \   00000010   000050E3           CMP      R0,#+0
   \   00000014   0200000A           BEQ      ??offTimerLED_1
    168             {
    169               Timer_Kill(&timerLED);
   \   00000018   0A0085E2           ADD      R0,R5,#+10
   \   0000001C   2A0100EF           SWI      +298
    170               timerLED = 0;
   \   00000020   BA40C5E1           STRH     R4,[R5, #+10]
    171             }
    172             if(cfg_phone_type == 1)
   \                     ??offTimerLED_1:
   \   00000024   ........           LDR      R0,??DataTable16  ;; cfg_phone_type
   \   00000028   000090E5           LDR      R0,[R0, #+0]
   \   0000002C   010050E3           CMP      R0,#+1
   \   00000030   1600001A           BNE      ??offTimerLED_2
    173             {
    174               LEDControl_W580(1,0,0,0,0,0,1);
   \   00000034   01002DE9           PUSH     {R0}
   \   00000038   0000A0E3           MOV      R0,#+0
   \   0000003C   01002DE9           PUSH     {R0}
   \   00000040   01002DE9           PUSH     {R0}
   \   00000044   186095E5           LDR      R6,[R5, #+24]
   \   00000048   0030A0E1           MOV      R3,R0
   \   0000004C   0020A0E1           MOV      R2,R0
   \   00000050   0010A0E1           MOV      R1,R0
   \   00000054   0100A0E3           MOV      R0,#+1
   \   00000058   36FF2FE1           BLX      R6
    175               LEDControl_W580(1,1,0,0,0,0,1);
   \   0000005C   0100A0E3           MOV      R0,#+1
   \   00000060   01002DE9           PUSH     {R0}
   \   00000064   0110A0E3           MOV      R1,#+1
   \   00000068   0400A0E1           MOV      R0,R4
   \   0000006C   01002DE9           PUSH     {R0}
   \   00000070   01002DE9           PUSH     {R0}
   \   00000074   186095E5           LDR      R6,[R5, #+24]
   \   00000078   0030A0E1           MOV      R3,R0
   \   0000007C   0020A0E1           MOV      R2,R0
   \   00000080   0100A0E1           MOV      R0,R1
   \   00000084   36FF2FE1           BLX      R6
   \   00000088   18D08DE2           ADD      SP,SP,#+24
   \   0000008C   0A0000EA           B        ??offTimerLED_3
    176             }
    177             else if(cfg_phone_type == 2)
   \                     ??offTimerLED_2:
   \   00000090   020050E3           CMP      R0,#+2
   \   00000094   0800001A           BNE      ??offTimerLED_3
    178             {
    179               for(int i=0;i<3;i++)
   \   00000098   0060A0E3           MOV      R6,#+0
    180               OrangeLED_Control(1,i,0,50);
   \                     ??offTimerLED_4:
   \   0000009C   3230A0E3           MOV      R3,#+50
   \   000000A0   0020A0E3           MOV      R2,#+0
   \   000000A4   0610A0E1           MOV      R1,R6
   \   000000A8   0100A0E3           MOV      R0,#+1
   \   000000AC   DC0200EF           SWI      +732
   \   000000B0   016086E2           ADD      R6,R6,#+1
   \   000000B4   030056E3           CMP      R6,#+3
   \   000000B8   F7FFFFBA           BLT      ??offTimerLED_4
    181             }
    182             LEDnum = 0;
   \                     ??offTimerLED_3:
   \   000000BC   304085E5           STR      R4,[R5, #+48]
    183             LED    = 0;
   \   000000C0   284085E5           STR      R4,[R5, #+40]
    184             LED580 = 1;
   \   000000C4   0100A0E3           MOV      R0,#+1
   \   000000C8   2C0085E5           STR      R0,[R5, #+44]
    185          }
   \   000000CC   7080BDE8           POP      {R4-R6,PC}       ;; return
    186          

   \                                 In segment CODE, align 4, keep-with-next
    187          void offTimerFlash(u16 timerID, LPARAM lparam)
    188          {
   \                     ??offTimerFlash:
   \   00000000   10402DE9           PUSH     {R4,LR}
    189            if(timerFlash)
   \   00000004   ........           LDR      R4,??DataTable43  ;; cfg_time1_on
   \   00000008   B400D4E1           LDRH     R0,[R4, #+4]
   \   0000000C   000050E3           CMP      R0,#+0
   \   00000010   1080BD08           POPEQ    {R4,PC}
    190            {
    191              Timer_Kill(&timerFlash);
   \   00000014   040084E2           ADD      R0,R4,#+4
   \   00000018   2A0100EF           SWI      +298
    192              timerFlash = 0;
   \   0000001C   0000A0E3           MOV      R0,#+0
   \   00000020   B400C4E1           STRH     R0,[R4, #+4]
    193              SetLampLevel(0);
   \   00000024   780100EF           SWI      +376
    194            }
    195          }
   \   00000028   1080BDE8           POP      {R4,PC}          ;; return
    196          

   \                                 In segment CODE, align 4, keep-with-next
    197          void offTimerScreen(u16 timerID, LPARAM lparam)
    198          {
   \                     ??offTimerScreen:
   \   00000000   30402DE9           PUSH     {R4,R5,LR}
    199            if(timerScreen)
   \   00000004   ........           LDR      R5,??DataTable43  ;; cfg_time1_on
   \   00000008   0040A0E3           MOV      R4,#+0
   \   0000000C   B600D5E1           LDRH     R0,[R5, #+6]
   \   00000010   000050E3           CMP      R0,#+0
   \   00000014   0600000A           BEQ      ??offTimerScreen_1
    200            {
    201              Timer_Kill(&timerScreen);
   \   00000018   060085E2           ADD      R0,R5,#+6
   \   0000001C   2A0100EF           SWI      +298
    202              IndicationDevice_Backlight_FadeToLevel(0,cfg_screen_level);
   \   00000020   ........           LDR      R0,??DataTable19  ;; cfg_screen_level
   \   00000024   001090E5           LDR      R1,[R0, #+0]
   \   00000028   0000A0E3           MOV      R0,#+0
   \   0000002C   6F0100EF           SWI      +367
    203              timerScreen = 0;
   \   00000030   B640C5E1           STRH     R4,[R5, #+6]
    204            }
    205            screen = 0;
   \                     ??offTimerScreen_1:
   \   00000034   204085E5           STR      R4,[R5, #+32]
    206          }
   \   00000038   3080BDE8           POP      {R4,R5,PC}       ;; return
    207          

   \                                 In segment CODE, align 4, keep-with-next
    208          void offModeTimer(u16 timerID, LPARAM lparam)
    209          {
    210              disabled_by_mode = true;
   \                     ??offModeTimer:
   \   00000000   08009FE5           LDR      R0,??offModeTimer_1  ;; cfg_time1_on + 77
   \   00000004   0110A0E3           MOV      R1,#+1
   \   00000008   0010C0E5           STRB     R1,[R0, #+0]
    211          }
   \   0000000C   1EFF2FE1           BX       LR               ;; return
   \                     ??offModeTimer_1:
   \   00000010   ........           DC32     cfg_time1_on + 77
    212          

   \                                 In segment CODE, align 4, keep-with-next
    213          void onTimer(u16 timerID, LPARAM lparam)
    214          {
   \                     ??onTimer:
   \   00000000   F04F2DE9           PUSH     {R4-R11,LR}
    215              bool time1_limit = false;
    216              bool time2_limit = false;
    217          
    218              if(cfg_time1_limit)
   \   00000004   ........           LDR      R6,??DataTable34  ;; cfg_time1_on
   \   00000008   ACA59FE5           LDR      R10,??onTimer_1  ;; SYNC
   \   0000000C   0150A0E1           MOV      R5,R1
   \   00000010   A8159FE5           LDR      R1,??onTimer_1+0x4  ;; cfg_time1_limit
   \   00000014   10D04DE2           SUB      SP,SP,#+16
   \   00000018   001091E5           LDR      R1,[R1, #+0]
   \   0000001C   0040A0E3           MOV      R4,#+0
   \   00000020   0070A0E3           MOV      R7,#+0
   \   00000024   0490A0E1           MOV      R9,R4
   \   00000028   0C108DE5           STR      R1,[SP, #+12]
   \   0000002C   0180A0E3           MOV      R8,#+1
   \   00000030   000051E3           CMP      R1,#+0
   \   00000034   1A00000A           BEQ      ??onTimer_2
    219              {
    220                  DATETIME dt;
    221                  REQUEST_DATEANDTIME_GET(SYNC, &dt);
   \   00000038   00009AE5           LDR      R0,[R10, #+0]
    222                  if(cfg_time1_flag == 1)
   \   0000003C   ........           LDR      R11,??DataTable35  ;; cfg_time1_off
   \   00000040   0D10A0E1           MOV      R1,SP
   \   00000044   6E0100EF           SWI      +366
   \   00000048   340096E5           LDR      R0,[R6, #+52]
   \   0000004C   0610A0E1           MOV      R1,R6
   \   00000050   010050E3           CMP      R0,#+1
   \   00000054   04008DE2           ADD      R0,SP,#+4
   \   00000058   0800001A           BNE      ??onTimer_3
    223                  {
    224                      if((timecmp(&(dt.time),&cfg_time1_on) < 0) && (timecmp(&(dt.time),&cfg_time1_off) >= 0)) time1_limit = true;
   \   0000005C   ........           BL       ??timecmp
   \   00000060   000050E3           CMP      R0,#+0
   \   00000064   0E00005A           BPL      ??onTimer_2
   \   00000068   0B10A0E1           MOV      R1,R11
   \   0000006C   04008DE2           ADD      R0,SP,#+4
   \   00000070   ........           BL       ??timecmp
   \   00000074   000050E3           CMP      R0,#+0
   \   00000078   0900004A           BMI      ??onTimer_2
   \   0000007C   070000EA           B        ??onTimer_4
    225                  }
    226                  else
    227                  {
    228                      if((timecmp(&(dt.time),&cfg_time1_on) < 0) || (timecmp(&(dt.time),&cfg_time1_off) >= 0)) time1_limit = true;
   \                     ??onTimer_3:
   \   00000080   ........           BL       ??timecmp
   \   00000084   000050E3           CMP      R0,#+0
   \   00000088   0400004A           BMI      ??onTimer_4
   \   0000008C   0B10A0E1           MOV      R1,R11
   \   00000090   04008DE2           ADD      R0,SP,#+4
   \   00000094   ........           BL       ??timecmp
   \   00000098   000050E3           CMP      R0,#+0
   \   0000009C   0000004A           BMI      ??onTimer_2
   \                     ??onTimer_4:
   \   000000A0   0170A0E3           MOV      R7,#+1
    229                  }
    230              }
    231          
    232              if(cfg_time2_limit)
   \                     ??onTimer_2:
   \   000000A4   18059FE5           LDR      R0,??onTimer_1+0x8  ;; cfg_time2_limit
   \   000000A8   00B090E5           LDR      R11,[R0, #+0]
   \   000000AC   00005BE3           CMP      R11,#+0
   \   000000B0   1A00000A           BEQ      ??onTimer_5
    233              {
    234                  DATETIME dt;
    235                  REQUEST_DATEANDTIME_GET(SYNC, &dt);
   \   000000B4   00009AE5           LDR      R0,[R10, #+0]
    236                  if(cfg_time2_flag == 1)
   \   000000B8   ........           LDR      R10,??DataTable37  ;; cfg_time2_off
   \   000000BC   0D10A0E1           MOV      R1,SP
   \   000000C0   6E0100EF           SWI      +366
   \   000000C4   380096E5           LDR      R0,[R6, #+56]
   \   000000C8   ........           LDR      R1,??DataTable36  ;; cfg_time2_on
   \   000000CC   010050E3           CMP      R0,#+1
   \   000000D0   04008DE2           ADD      R0,SP,#+4
   \   000000D4   0800001A           BNE      ??onTimer_6
    237                  {
    238                      if((timecmp(&(dt.time),&cfg_time2_on) < 0) && (timecmp(&(dt.time),&cfg_time2_off) >= 0)) time2_limit = true;
   \   000000D8   ........           BL       ??timecmp
   \   000000DC   000050E3           CMP      R0,#+0
   \   000000E0   0E00005A           BPL      ??onTimer_5
   \   000000E4   0A10A0E1           MOV      R1,R10
   \   000000E8   04008DE2           ADD      R0,SP,#+4
   \   000000EC   ........           BL       ??timecmp
   \   000000F0   000050E3           CMP      R0,#+0
   \   000000F4   0900004A           BMI      ??onTimer_5
   \   000000F8   070000EA           B        ??onTimer_7
    239                  }
    240                  else
    241                  {
    242                      if((timecmp(&(dt.time),&cfg_time2_on) < 0) || (timecmp(&(dt.time),&cfg_time2_off) >= 0)) time2_limit = true;
   \                     ??onTimer_6:
   \   000000FC   ........           BL       ??timecmp
   \   00000100   000050E3           CMP      R0,#+0
   \   00000104   0400004A           BMI      ??onTimer_7
   \   00000108   0A10A0E1           MOV      R1,R10
   \   0000010C   04008DE2           ADD      R0,SP,#+4
   \   00000110   ........           BL       ??timecmp
   \   00000114   000050E3           CMP      R0,#+0
   \   00000118   0000004A           BMI      ??onTimer_5
   \                     ??onTimer_7:
   \   0000011C   0190A0E3           MOV      R9,#+1
    243                  }
    244              }
    245          
    246              if((!cfg_time1_limit) && (!cfg_time2_limit))
   \                     ??onTimer_5:
   \   00000120   0C009DE5           LDR      R0,[SP, #+12]
   \   00000124   000050E3           CMP      R0,#+0
   \   00000128   00005B03           CMPEQ    R11,#+0
   \   0000012C   0600001A           BNE      ??onTimer_8
    247              {
    248                sound_disabled_by_time  =
    249                vibra_disabled_by_time  =
    250                flash_disabled_by_time  =
    251                redled_disabled_by_time =
    252                led_disabled_by_time    =
    253                screen_disabled_by_time = false;
   \   00000130   5300C6E5           STRB     R0,[R6, #+83]
   \   00000134   5200C6E5           STRB     R0,[R6, #+82]
   \   00000138   5100C6E5           STRB     R0,[R6, #+81]
   \   0000013C   5000C6E5           STRB     R0,[R6, #+80]
   \   00000140   0010A0E3           MOV      R1,#+0
   \   00000144   4E10C6E5           STRB     R1,[R6, #+78]
   \   00000148   490000EA           B        ??onTimer_9
    254              }
    255              else
    256              {
    257                sound_disabled_by_time  =
    258                vibra_disabled_by_time  =
    259                flash_disabled_by_time  =
    260                redled_disabled_by_time =
    261                led_disabled_by_time    =
    262                screen_disabled_by_time = true;
   \                     ??onTimer_8:
   \   0000014C   5380C6E5           STRB     R8,[R6, #+83]
   \   00000150   5280C6E5           STRB     R8,[R6, #+82]
   \   00000154   5180C6E5           STRB     R8,[R6, #+81]
   \   00000158   5080C6E5           STRB     R8,[R6, #+80]
   \   0000015C   0100A0E3           MOV      R0,#+1
   \   00000160   0010A0E1           MOV      R1,R0
    263          
    264                if(!time1_limit)
   \   00000164   000057E3           CMP      R7,#+0
   \   00000168   1B00001A           BNE      ??onTimer_10
    265                {
    266                  sound_disabled_by_time  = (cfg_time1_sound)  ? false : true;
   \   0000016C   54249FE5           LDR      R2,??onTimer_1+0xC  ;; cfg_time1_sound
   \   00000170   002092E5           LDR      R2,[R2, #+0]
   \   00000174   000052E3           CMP      R2,#+0
    267                  vibra_disabled_by_time  = (cfg_time1_vibra)  ? false : true;
   \   00000178   4C249FE5           LDR      R2,??onTimer_1+0x10  ;; cfg_time1_vibra
   \   0000017C   0010A013           MOVNE    R1,#+0
   \   00000180   002092E5           LDR      R2,[R2, #+0]
   \   00000184   000052E3           CMP      R2,#+0
    268                  flash_disabled_by_time  = (cfg_time1_flash)  ? false : true;
   \   00000188   40249FE5           LDR      R2,??onTimer_1+0x14  ;; cfg_time1_flash
   \   0000018C   0000A013           MOVNE    R0,#+0
   \   00000190   002092E5           LDR      R2,[R2, #+0]
   \   00000194   000052E3           CMP      R2,#+0
   \   00000198   0020A013           MOVNE    R2,#+0
   \   0000019C   5020C615           STRBNE   R2,[R6, #+80]
    269                  redled_disabled_by_time = (cfg_time1_redled) ? false : true;
   \   000001A0   2C249FE5           LDR      R2,??onTimer_1+0x18  ;; cfg_time1_redled
   \   000001A4   002092E5           LDR      R2,[R2, #+0]
   \   000001A8   000052E3           CMP      R2,#+0
   \   000001AC   0020A013           MOVNE    R2,#+0
   \   000001B0   5120C615           STRBNE   R2,[R6, #+81]
    270                  led_disabled_by_time    = (cfg_time1_leds)   ? false : true;
   \   000001B4   1C249FE5           LDR      R2,??onTimer_1+0x1C  ;; cfg_time1_leds
   \   000001B8   002092E5           LDR      R2,[R2, #+0]
   \   000001BC   000052E3           CMP      R2,#+0
   \   000001C0   0020A013           MOVNE    R2,#+0
   \   000001C4   5220C615           STRBNE   R2,[R6, #+82]
    271                  screen_disabled_by_time = (cfg_time1_screen) ? false : true;
   \   000001C8   0C249FE5           LDR      R2,??onTimer_1+0x20  ;; cfg_time1_screen
   \   000001CC   002092E5           LDR      R2,[R2, #+0]
   \   000001D0   000052E3           CMP      R2,#+0
   \   000001D4   0020A013           MOVNE    R2,#+0
   \   000001D8   5320C615           STRBNE   R2,[R6, #+83]
   \                     ??onTimer_10:
   \   000001DC   4E10C6E5           STRB     R1,[R6, #+78]
    272                }
    273                if(!time2_limit)
   \   000001E0   000059E3           CMP      R9,#+0
   \   000001E4   2200001A           BNE      ??onTimer_9
    274                {
    275                  sound_disabled_by_time  = (cfg_time2_sound)  ? false : true;
   \   000001E8   F0039FE5           LDR      R0,??onTimer_1+0x24  ;; cfg_time2_sound
    276                  vibra_disabled_by_time  = (cfg_time2_vibra)  ? false : true;
    277                  flash_disabled_by_time  = (cfg_time2_flash)  ? false : true;
   \   000001EC   F0139FE5           LDR      R1,??onTimer_1+0x28  ;; cfg_time2_flash
   \   000001F0   000090E5           LDR      R0,[R0, #+0]
   \   000001F4   001091E5           LDR      R1,[R1, #+0]
   \   000001F8   000050E3           CMP      R0,#+0
   \   000001FC   0000A013           MOVNE    R0,#+0
   \   00000200   0100A003           MOVEQ    R0,#+1
   \   00000204   4E00C6E5           STRB     R0,[R6, #+78]
   \   00000208   D8039FE5           LDR      R0,??onTimer_1+0x2C  ;; cfg_time2_vibra
   \   0000020C   000090E5           LDR      R0,[R0, #+0]
   \   00000210   000050E3           CMP      R0,#+0
   \   00000214   0000A013           MOVNE    R0,#+0
   \   00000218   0100A003           MOVEQ    R0,#+1
   \   0000021C   000051E3           CMP      R1,#+0
   \   00000220   0010A013           MOVNE    R1,#+0
   \   00000224   0110A003           MOVEQ    R1,#+1
   \   00000228   5010C6E5           STRB     R1,[R6, #+80]
    278                  redled_disabled_by_time = (cfg_time2_redled) ? false : true;
   \   0000022C   B8139FE5           LDR      R1,??onTimer_1+0x30  ;; cfg_time2_redled
   \   00000230   001091E5           LDR      R1,[R1, #+0]
   \   00000234   000051E3           CMP      R1,#+0
   \   00000238   0010A013           MOVNE    R1,#+0
   \   0000023C   0110A003           MOVEQ    R1,#+1
   \   00000240   5110C6E5           STRB     R1,[R6, #+81]
    279                  led_disabled_by_time    = (cfg_time2_leds)   ? false : true;
   \   00000244   A4139FE5           LDR      R1,??onTimer_1+0x34  ;; cfg_time2_leds
   \   00000248   001091E5           LDR      R1,[R1, #+0]
   \   0000024C   000051E3           CMP      R1,#+0
   \   00000250   0010A013           MOVNE    R1,#+0
   \   00000254   0110A003           MOVEQ    R1,#+1
   \   00000258   5210C6E5           STRB     R1,[R6, #+82]
    280                  screen_disabled_by_time = (cfg_time2_screen) ? false : true;
   \   0000025C   90139FE5           LDR      R1,??onTimer_1+0x38  ;; cfg_time2_screen
   \   00000260   001091E5           LDR      R1,[R1, #+0]
   \   00000264   000051E3           CMP      R1,#+0
   \   00000268   0010A013           MOVNE    R1,#+0
   \   0000026C   5310C615           STRBNE   R1,[R6, #+83]
   \   00000270   5380C605           STRBEQ   R8,[R6, #+83]
   \                     ??onTimer_9:
   \   00000274   4F00C6E5           STRB     R0,[R6, #+79]
    281                }
    282              }
    283          
    284              if(cfg_mode)
   \   00000278   78039FE5           LDR      R0,??onTimer_1+0x3C  ;; cfg_mode
   \   0000027C   009090E5           LDR      R9,[R0, #+0]
   \   00000280   000059E3           CMP      R9,#+0
   \   00000284   0A00000A           BEQ      ??onTimer_11
    285              {
    286                  char* me=MissedEvents();
   \   00000288   A78100EF           SWI      +33191
    287                  char mestatus=*me;
    288                  if( !(mestatus & checkevents) )
   \   0000028C   0000D0E5           LDRB     R0,[R0, #+0]
   \   00000290   441096E5           LDR      R1,[R6, #+68]
   \   00000294   000011E1           TST      R1,R0
   \   00000298   0700001A           BNE      ??onTimer_12
    289                  {
    290                      if(modetimer)
   \   0000029C   B601D6E1           LDRH     R0,[R6, #+22]
   \   000002A0   000050E3           CMP      R0,#+0
   \   000002A4   0200000A           BEQ      ??onTimer_11
    291                      {
    292                          Timer_Kill(&modetimer);
   \   000002A8   160086E2           ADD      R0,R6,#+22
   \   000002AC   2A0100EF           SWI      +298
    293                          modetimer = 0;
   \   000002B0   B641C6E1           STRH     R4,[R6, #+22]
    294                      }
    295                      disabled_by_mode = false;
   \                     ??onTimer_11:
   \   000002B4   0000A0E3           MOV      R0,#+0
   \   000002B8   4D00C6E5           STRB     R0,[R6, #+77]
    296                  }
    297              }
    298              else disabled_by_mode = false;
    299          
    300              if((!disabled) && (!disabled_by_mode))
   \                     ??onTimer_12:
   \   000002BC   4C00D6E5           LDRB     R0,[R6, #+76]
   \   000002C0   4D10D6E5           LDRB     R1,[R6, #+77]
   \   000002C4   ........           LDR      R7,??DataTable47  ;; ??onTimer
   \   000002C8   000091E1           ORRS     R0,R1,R0
   \   000002CC   AA00001A           BNE      ??onTimer_13
    301              {
    302                  char* me=MissedEvents();
   \   000002D0   A78100EF           SWI      +33191
    303                  char mestatus=*me;
    304                  if( mestatus & checkevents )
   \   000002D4   0000D0E5           LDRB     R0,[R0, #+0]
   \   000002D8   441096E5           LDR      R1,[R6, #+68]
   \   000002DC   000011E1           TST      R1,R0
   \   000002E0   AA00000A           BEQ      ??onTimer_14
    305                  {
    306                      if(state == WAIT)
   \   000002E4   480096E5           LDR      R0,[R6, #+72]
   \   000002E8   000050E3           CMP      R0,#+0
   \   000002EC   1900001A           BNE      ??onTimer_15
    307                      {
    308                          state = MISS;
    309                          Timer_ReSet(&timer,cfg_pretime*1000,onTimer,lparam);
   \   000002F0   ........           LDR      R0,??DataTable39  ;; cfg_pretime
   \   000002F4   488086E5           STR      R8,[R6, #+72]
   \   000002F8   008090E5           LDR      R8,[R0, #+0]
   \   000002FC   0530A0E1           MOV      R3,R5
   \   00000300   0720A0E1           MOV      R2,R7
   \   00000304   FA0FA0E3           MOV      R0,#+1000
   \   00000308   900801E0           MUL      R1,R0,R8
   \   0000030C   0C0086E2           ADD      R0,R6,#+12
   \   00000310   280100EF           SWI      +296
    310                          if(cfg_mode == 1) modetimer=Timer_Set((cfg_pretime + cfg_duration*60)*1000,offModeTimer,0);
   \   00000314   E0029FE5           LDR      R0,??onTimer_1+0x40  ;; cfg_duration
   \   00000318   010059E3           CMP      R9,#+1
   \   0000031C   000090E5           LDR      R0,[R0, #+0]
   \   00000320   0800001A           BNE      ??onTimer_16
   \   00000324   D4129FE5           LDR      R1,??onTimer_1+0x44  ;; ??offModeTimer
   \   00000328   3C30A0E3           MOV      R3,#+60
   \   0000032C   938020E0           MLA      R0,R3,R0,R8
   \   00000330   FA3FA0E3           MOV      R3,#+1000
   \   00000334   930000E0           MUL      R0,R3,R0
   \   00000338   0020A0E3           MOV      R2,#+0
   \   0000033C   290100EF           SWI      +297
   \   00000340   B601C6E1           STRH     R0,[R6, #+22]
   \   00000344   FF8FBDE8           POP      {R0-R11,PC}
    311                          if(cfg_mode == 2) number = cfg_duration;
   \                     ??onTimer_16:
   \   00000348   020059E3           CMP      R9,#+2
   \   0000034C   FF8FBD18           POPNE    {R0-R11,PC}
   \   00000350   3C0086E5           STR      R0,[R6, #+60]
   \   00000354   FF8FBDE8           POP      {R0-R11,PC}
    312                          return;
    313                      }
    314                      if(cfg_mode == 2)
   \                     ??onTimer_15:
   \   00000358   020059E3           CMP      R9,#+2
   \   0000035C   0400001A           BNE      ??onTimer_17
    315                      {
    316                          if(--number <= 0) disabled_by_mode = true;
   \   00000360   3C0096E5           LDR      R0,[R6, #+60]
   \   00000364   010040E2           SUB      R0,R0,#+1
   \   00000368   3C0086E5           STR      R0,[R6, #+60]
   \   0000036C   010050E3           CMP      R0,#+1
   \   00000370   4D80C6B5           STRBLT   R8,[R6, #+77]
    317                      }
    318                      if((!GetSilent() || (cfg_silent==1)) && (cfg_sound==1) && (!sound_disabled_by_time))
   \                     ??onTimer_17:
   \   00000374   4B0200EF           SWI      +587
   \   00000378   000050E3           CMP      R0,#+0
   \   0000037C   0300000A           BEQ      ??onTimer_18
   \   00000380   7C029FE5           LDR      R0,??onTimer_1+0x48  ;; cfg_silent
   \   00000384   000090E5           LDR      R0,[R0, #+0]
   \   00000388   010050E3           CMP      R0,#+1
   \   0000038C   0C00001A           BNE      ??onTimer_19
   \                     ??onTimer_18:
   \   00000390   ........           LDR      R0,??DataTable38  ;; cfg_sound
   \   00000394   000090E5           LDR      R0,[R0, #+0]
   \   00000398   010050E3           CMP      R0,#+1
   \   0000039C   4E00D605           LDRBEQ   R0,[R6, #+78]
   \   000003A0   00005003           CMPEQ    R0,#+0
   \   000003A4   0600001A           BNE      ??onTimer_19
    319                      {
    320                          char vol;
    321                          GetAudioSettings(2,&vol);
   \   000003A8   08108DE2           ADD      R1,SP,#+8
   \   000003AC   0200A0E3           MOV      R0,#+2
   \   000003B0   4D0200EF           SWI      +589
    322                          PlayFileV(cfg_filepath,cfg_filename,vol);
   \   000003B4   0820DDE5           LDRB     R2,[SP, #+8]
   \   000003B8   9A1F86E2           ADD      R1,R6,#+616
   \   000003BC   680086E2           ADD      R0,R6,#+104
   \   000003C0   4A0200EF           SWI      +586
    323                      }
    324                      if(GetVibrator(0,0) && (cfg_vibra==1) && (!vibra_disabled_by_time))
   \                     ??onTimer_19:
   \   000003C4   0010A0E3           MOV      R1,#+0
   \   000003C8   0100A0E1           MOV      R0,R1
   \   000003CC   4C0200EF           SWI      +588
   \   000003D0   000050E3           CMP      R0,#+0
   \   000003D4   1100000A           BEQ      ??onTimer_20
   \   000003D8   28029FE5           LDR      R0,??onTimer_1+0x4C  ;; cfg_vibra
   \   000003DC   000090E5           LDR      R0,[R0, #+0]
   \   000003E0   010050E3           CMP      R0,#+1
   \   000003E4   4F00D605           LDRBEQ   R0,[R6, #+79]
   \   000003E8   00005003           CMPEQ    R0,#+0
   \   000003EC   0B00001A           BNE      ??onTimer_20
    325                      {
    326                          PAudioControl pAC = AudioControl_Init();
   \   000003F0   DF0100EF           SWI      +479
    327                          if( !pAC ) pAC = *GetAudioControlPtr();
   \   000003F4   000050E3           CMP      R0,#+0
   \   000003F8   0100001A           BNE      ??onTimer_21
   \   000003FC   D18100EF           SWI      +33233
   \   00000400   000090E5           LDR      R0,[R0, #+0]
    328                          AudioControl_Vibrate(pAC, 400, 50, cfg_vibra_time*1000);
   \                     ??onTimer_21:
   \   00000404   00129FE5           LDR      R1,??onTimer_1+0x50  ;; cfg_vibra_time
   \   00000408   FA2FA0E3           MOV      R2,#+1000
   \   0000040C   001091E5           LDR      R1,[R1, #+0]
   \   00000410   920103E0           MUL      R3,R2,R1
   \   00000414   3220A0E3           MOV      R2,#+50
   \   00000418   641FA0E3           MOV      R1,#+400
   \   0000041C   D20100EF           SWI      +466
    329                      }
    330                      if((cfg_flash==1) && (!flash_disabled_by_time))
   \                     ??onTimer_20:
   \   00000420   E8019FE5           LDR      R0,??onTimer_1+0x54  ;; cfg_flash
   \   00000424   000090E5           LDR      R0,[R0, #+0]
   \   00000428   010050E3           CMP      R0,#+1
   \   0000042C   5000D605           LDRBEQ   R0,[R6, #+80]
   \   00000430   00005003           CMPEQ    R0,#+0
   \   00000434   0D00001A           BNE      ??onTimer_22
    331                      {
    332                          timerFlash=Timer_Set(cfg_flash_blink_speed,onTimerFlash,0);
   \   00000438   ........           LDR      R0,??DataTable27  ;; cfg_flash_blink_speed
   \   0000043C   ........           LDR      R1,??DataTable28  ;; ??onTimerFlash
   \   00000440   000090E5           LDR      R0,[R0, #+0]
   \   00000444   0020A0E3           MOV      R2,#+0
   \   00000448   290100EF           SWI      +297
    333                          offtimer=Timer_Set(cfg_flash_time*1000,offTimerFlash,0);
   \   0000044C   C0119FE5           LDR      R1,??onTimer_1+0x58  ;; ??offTimerFlash
   \   00000450   B400C6E1           STRH     R0,[R6, #+4]
   \   00000454   BC019FE5           LDR      R0,??onTimer_1+0x5C  ;; cfg_flash_time
   \   00000458   FA3FA0E3           MOV      R3,#+1000
   \   0000045C   000090E5           LDR      R0,[R0, #+0]
   \   00000460   0420A0E1           MOV      R2,R4
   \   00000464   930000E0           MUL      R0,R3,R0
   \   00000468   290100EF           SWI      +297
   \   0000046C   BE00C6E1           STRH     R0,[R6, #+14]
    334                      }
    335                      if((cfg_screen==1) && (!screen_disabled_by_time))
   \                     ??onTimer_22:
   \   00000470   A4019FE5           LDR      R0,??onTimer_1+0x60  ;; cfg_screen
   \   00000474   000090E5           LDR      R0,[R0, #+0]
   \   00000478   010050E3           CMP      R0,#+1
   \   0000047C   5300D605           LDRBEQ   R0,[R6, #+83]
   \   00000480   00005003           CMPEQ    R0,#+0
   \   00000484   1600001A           BNE      ??onTimer_23
    336                      {
    337                          BOOK * ScreenSaverBook = FindBook(get_IsScreenSaverBook());
   \   00000488   418100EF           SWI      +33089
   \   0000048C   300100EF           SWI      +304
    338                          if (ScreenSaverBook)
   \   00000490   000050E3           CMP      R0,#+0
   \   00000494   0400000A           BEQ      ??onTimer_24
    339                          {
    340                            UI_Event_toBookID(UI_SCREENSAVER_DEACTIVATE_EVENT,BookObj_GetBookID(ScreenSaverBook));
   \   00000498   FA0100EF           SWI      +506
   \   0000049C   0010A0E1           MOV      R1,R0
   \   000004A0   78019FE5           LDR      R0,??onTimer_1+0x64  ;; UI_SCREENSAVER_DEACTIVATE_EVENT
   \   000004A4   000090E5           LDR      R0,[R0, #+0]
   \   000004A8   AA0100EF           SWI      +426
    341                          }
    342                          timerScreen=Timer_Set(cfg_screen_blink_speed,onTimerScreen,0);
   \                     ??onTimer_24:
   \   000004AC   ........           LDR      R0,??DataTable29  ;; cfg_screen_blink_speed
   \   000004B0   ........           LDR      R1,??DataTable30  ;; ??onTimerScreen
   \   000004B4   000090E5           LDR      R0,[R0, #+0]
   \   000004B8   0020A0E3           MOV      R2,#+0
   \   000004BC   290100EF           SWI      +297
    343                          offtimerScreen=Timer_Set(cfg_screen_time*1000,offTimerScreen,0);
   \   000004C0   5C119FE5           LDR      R1,??onTimer_1+0x68  ;; ??offTimerScreen
   \   000004C4   B600C6E1           STRH     R0,[R6, #+6]
   \   000004C8   58019FE5           LDR      R0,??onTimer_1+0x6C  ;; cfg_screen_time
   \   000004CC   FA3FA0E3           MOV      R3,#+1000
   \   000004D0   000090E5           LDR      R0,[R0, #+0]
   \   000004D4   0420A0E1           MOV      R2,R4
   \   000004D8   930000E0           MUL      R0,R3,R0
   \   000004DC   290100EF           SWI      +297
   \   000004E0   B001C6E1           STRH     R0,[R6, #+16]
    344                      }
    345                      if((cfg_led==1) && (!led_disabled_by_time))
   \                     ??onTimer_23:
   \   000004E4   40019FE5           LDR      R0,??onTimer_1+0x70  ;; cfg_led
   \   000004E8   000090E5           LDR      R0,[R0, #+0]
   \   000004EC   010050E3           CMP      R0,#+1
   \   000004F0   5200D605           LDRBEQ   R0,[R6, #+82]
   \   000004F4   00005003           CMPEQ    R0,#+0
   \   000004F8   0C00001A           BNE      ??onTimer_25
    346                      {
    347                          timerLED=Timer_Set(70,onTimerLED,0);
   \   000004FC   ........           LDR      R1,??DataTable31  ;; ??onTimerLED
   \   00000500   0020A0E3           MOV      R2,#+0
   \   00000504   4600A0E3           MOV      R0,#+70
   \   00000508   290100EF           SWI      +297
    348                          offtimerLED=Timer_Set(cfg_led_time*1000,offTimerLED,0);
   \   0000050C   1C119FE5           LDR      R1,??onTimer_1+0x74  ;; ??offTimerLED
   \   00000510   BA00C6E1           STRH     R0,[R6, #+10]
   \   00000514   18019FE5           LDR      R0,??onTimer_1+0x78  ;; cfg_led_time
   \   00000518   FA3FA0E3           MOV      R3,#+1000
   \   0000051C   000090E5           LDR      R0,[R0, #+0]
   \   00000520   0420A0E1           MOV      R2,R4
   \   00000524   930000E0           MUL      R0,R3,R0
   \   00000528   290100EF           SWI      +297
   \   0000052C   B201C6E1           STRH     R0,[R6, #+18]
    349                      }
    350                      if((cfg_redled==1) && (!redled_disabled_by_time))
   \                     ??onTimer_25:
   \   00000530   00019FE5           LDR      R0,??onTimer_1+0x7C  ;; cfg_redled
   \   00000534   000090E5           LDR      R0,[R0, #+0]
   \   00000538   010050E3           CMP      R0,#+1
   \   0000053C   5100D605           LDRBEQ   R0,[R6, #+81]
   \   00000540   00005003           CMPEQ    R0,#+0
   \   00000544   0C00001A           BNE      ??onTimer_13
    351                      {
    352                          timerREDLED=Timer_Set(70,onTimerREDLED,0);
   \   00000548   ........           LDR      R1,??DataTable32  ;; ??onTimerREDLED
   \   0000054C   0020A0E3           MOV      R2,#+0
   \   00000550   4600A0E3           MOV      R0,#+70
   \   00000554   290100EF           SWI      +297
    353                          offtimerREDLED=Timer_Set(cfg_redled_time*1000,offTimerREDLED,0);
   \   00000558   DC109FE5           LDR      R1,??onTimer_1+0x80  ;; ??offTimerREDLED
   \   0000055C   B800C6E1           STRH     R0,[R6, #+8]
   \   00000560   D8009FE5           LDR      R0,??onTimer_1+0x84  ;; cfg_redled_time
   \   00000564   FA3FA0E3           MOV      R3,#+1000
   \   00000568   000090E5           LDR      R0,[R0, #+0]
   \   0000056C   0420A0E1           MOV      R2,R4
   \   00000570   930000E0           MUL      R0,R3,R0
   \   00000574   290100EF           SWI      +297
   \   00000578   B401C6E1           STRH     R0,[R6, #+20]
    354                      }
    355                  }
    356                  else
    357                  {
    358                      state = WAIT;
    359                  }
    360          #ifdef DEBUG
    361                  if( mestatus & ~(skipevents|checkevents))
    362                  {
    363                      u16 temp[256];
    364                      snwprintf(temp, MAXELEMS(temp), _T(" \n%x: %x"), me, mestatus &~(skipevents|checkevents));
    365                      MessageBox(EMPTY_TEXTID, TextID_Create(temp,ENC_UCS2,MAXELEMS(temp)), NOIMAGE, 1, 0, 0);
    366                      skipevents|=mestatus;
    367                  }
    368          #endif
    369              }
    370              if(state == WAIT)
   \                     ??onTimer_13:
   \   0000057C   480096E5           LDR      R0,[R6, #+72]
   \   00000580   000050E3           CMP      R0,#+0
   \   00000584   0300001A           BNE      ??onTimer_26
    371              {
    372                  Timer_ReSet(&timer,cfg_checkperiod*1000,onTimer,lparam);
   \                     ??onTimer_27:
   \   00000588   ........           LDR      R0,??DataTable46  ;; cfg_checkperiod
   \   0000058C   020000EA           B        ??onTimer_28
    373              }
   \                     ??onTimer_14:
   \   00000590   484086E5           STR      R4,[R6, #+72]
   \   00000594   FBFFFFEA           B        ??onTimer_27
    374              else
    375              {
    376                  Timer_ReSet(&timer,cfg_period*1000,onTimer,lparam);
   \                     ??onTimer_26:
   \   00000598   A4009FE5           LDR      R0,??onTimer_1+0x88  ;; cfg_period
   \                     ??onTimer_28:
   \   0000059C   0530A0E1           MOV      R3,R5
   \   000005A0   000090E5           LDR      R0,[R0, #+0]
   \   000005A4   0720A0E1           MOV      R2,R7
   \   000005A8   FA4FA0E3           MOV      R4,#+1000
   \   000005AC   940001E0           MUL      R1,R4,R0
   \   000005B0   0C0086E2           ADD      R0,R6,#+12
   \   000005B4   280100EF           SWI      +296
   \   000005B8   FF8FBDE8           POP      {R0-R11,PC}      ;; return
   \                     ??onTimer_1:
   \   000005BC   ........           DC32     SYNC
   \   000005C0   ........           DC32     cfg_time1_limit
   \   000005C4   ........           DC32     cfg_time2_limit
   \   000005C8   ........           DC32     cfg_time1_sound
   \   000005CC   ........           DC32     cfg_time1_vibra
   \   000005D0   ........           DC32     cfg_time1_flash
   \   000005D4   ........           DC32     cfg_time1_redled
   \   000005D8   ........           DC32     cfg_time1_leds
   \   000005DC   ........           DC32     cfg_time1_screen
   \   000005E0   ........           DC32     cfg_time2_sound
   \   000005E4   ........           DC32     cfg_time2_flash
   \   000005E8   ........           DC32     cfg_time2_vibra
   \   000005EC   ........           DC32     cfg_time2_redled
   \   000005F0   ........           DC32     cfg_time2_leds
   \   000005F4   ........           DC32     cfg_time2_screen
   \   000005F8   ........           DC32     cfg_mode
   \   000005FC   ........           DC32     cfg_duration
   \   00000600   ........           DC32     ??offModeTimer
   \   00000604   ........           DC32     cfg_silent
   \   00000608   ........           DC32     cfg_vibra
   \   0000060C   ........           DC32     cfg_vibra_time
   \   00000610   ........           DC32     cfg_flash
   \   00000614   ........           DC32     ??offTimerFlash
   \   00000618   ........           DC32     cfg_flash_time
   \   0000061C   ........           DC32     cfg_screen
   \   00000620   ........           DC32     UI_SCREENSAVER_DEACTIVATE_EVENT
   \   00000624   ........           DC32     ??offTimerScreen
   \   00000628   ........           DC32     cfg_screen_time
   \   0000062C   ........           DC32     cfg_led
   \   00000630   ........           DC32     ??offTimerLED
   \   00000634   ........           DC32     cfg_led_time
   \   00000638   ........           DC32     cfg_redled
   \   0000063C   ........           DC32     ??offTimerREDLED
   \   00000640   ........           DC32     cfg_redled_time
   \   00000644   ........           DC32     cfg_period
    377              }
    378          }
    379          

   \                                 In segment CODE, align 4, keep-with-next
    380          int UpdateParams(void)
    381          {
    382            wchar_t temp[256];
    383            char* err=NULL;
    384            FSTAT _fstat;
    385            TIME zero_time   = {0,0,0,0};
   \                     ??UpdateParams:
   \   00000000   08229FE5           LDR      R2,??UpdateParams_1  ;; cfg_music_file
   \   00000004   F04F2DE9           PUSH     {R4-R11,LR}
   \   00000008   04429FE5           LDR      R4,??UpdateParams_1+0x4  ;; `?<Constant {'\\000', '\\000', '\\000', '\\000'}>`
   \   0000000C   ........           LDR      R5,??DataTable34  ;; cfg_time1_on
    386          
    387            extractdir(cfg_filepath, cfg_filename, cfg_music_file);
    388          
    389            cfg_time1_on  = cfg_on_time1;
    390            cfg_time1_off = cfg_off_time1;
   \   00000010   ........           LDR      R6,??DataTable35  ;; cfg_time1_off
   \   00000014   FC719FE5           LDR      R7,??UpdateParams_1+0x8  ;; cfg_off_time1
    391          
    392            cfg_time2_on  = cfg_on_time2;
   \   00000018   ........           LDR      R8,??DataTable36  ;; cfg_time2_on
   \   0000001C   F8919FE5           LDR      R9,??UpdateParams_1+0xC  ;; cfg_on_time2
    393            cfg_time2_off = cfg_off_time2;
   \   00000020   ........           LDR      R10,??DataTable37  ;; cfg_time2_off
   \   00000024   F4B19FE5           LDR      R11,??UpdateParams_1+0x10  ;; cfg_off_time2
   \   00000028   88DF4DE2           SUB      SP,SP,#+544
   \   0000002C   0010D4E5           LDRB     R1,[R4, #0]
   \   00000030   0D00A0E1           MOV      R0,SP
   \   00000034   0010C0E5           STRB     R1,[R0, #+0]
   \   00000038   0110D4E5           LDRB     R1,[R4, #+1]
   \   0000003C   0110C0E5           STRB     R1,[R0, #+1]
   \   00000040   0210D4E5           LDRB     R1,[R4, #+2]
   \   00000044   0210C0E5           STRB     R1,[R0, #+2]
   \   00000048   0310D4E5           LDRB     R1,[R4, #+3]
   \   0000004C   0310C0E5           STRB     R1,[R0, #+3]
   \   00000050   9A1F85E2           ADD      R1,R5,#+616
   \   00000054   680085E2           ADD      R0,R5,#+104
   \   00000058   ........           BL       ??extractdir
   \   0000005C   C0019FE5           LDR      R0,??UpdateParams_1+0x14  ;; cfg_on_time1
   \   00000060   0010D0E5           LDRB     R1,[R0, #0]
   \   00000064   0010C5E5           STRB     R1,[R5, #+0]
   \   00000068   0110D0E5           LDRB     R1,[R0, #+1]
   \   0000006C   0110C5E5           STRB     R1,[R5, #+1]
   \   00000070   0210D0E5           LDRB     R1,[R0, #+2]
   \   00000074   0210C5E5           STRB     R1,[R5, #+2]
   \   00000078   0310D0E5           LDRB     R1,[R0, #+3]
   \   0000007C   0000D7E5           LDRB     R0,[R7, #0]
   \   00000080   0310C5E5           STRB     R1,[R5, #+3]
   \   00000084   0000C6E5           STRB     R0,[R6, #+0]
   \   00000088   0100D7E5           LDRB     R0,[R7, #+1]
   \   0000008C   0D10A0E1           MOV      R1,SP
   \   00000090   0100C6E5           STRB     R0,[R6, #+1]
   \   00000094   0200D7E5           LDRB     R0,[R7, #+2]
   \   00000098   0200C6E5           STRB     R0,[R6, #+2]
   \   0000009C   0300D7E5           LDRB     R0,[R7, #+3]
   \   000000A0   0300C6E5           STRB     R0,[R6, #+3]
   \   000000A4   0000D9E5           LDRB     R0,[R9, #0]
   \   000000A8   0000C8E5           STRB     R0,[R8, #+0]
   \   000000AC   0100D9E5           LDRB     R0,[R9, #+1]
   \   000000B0   0100C8E5           STRB     R0,[R8, #+1]
   \   000000B4   0200D9E5           LDRB     R0,[R9, #+2]
   \   000000B8   0200C8E5           STRB     R0,[R8, #+2]
   \   000000BC   0300D9E5           LDRB     R0,[R9, #+3]
   \   000000C0   0300C8E5           STRB     R0,[R8, #+3]
   \   000000C4   0000DBE5           LDRB     R0,[R11, #0]
   \   000000C8   0000CAE5           STRB     R0,[R10, #+0]
   \   000000CC   0100DBE5           LDRB     R0,[R11, #+1]
   \   000000D0   0100CAE5           STRB     R0,[R10, #+1]
   \   000000D4   0200DBE5           LDRB     R0,[R11, #+2]
   \   000000D8   0200CAE5           STRB     R0,[R10, #+2]
   \   000000DC   0300DBE5           LDRB     R0,[R11, #+3]
   \   000000E0   0300CAE5           STRB     R0,[R10, #+3]
   \   000000E4   0500A0E1           MOV      R0,R5
    394          
    395            if(timecmp(&cfg_time1_on, &zero_time) == 0) cfg_time1_on.hour = 24;
   \   000000E8   ........           BL       ??timecmp
   \   000000EC   000050E3           CMP      R0,#+0
   \   000000F0   1800A003           MOVEQ    R0,#+24
   \   000000F4   0000C505           STRBEQ   R0,[R5, #+0]
    396            cfg_time1_flag = timecmp(&cfg_time1_on, &cfg_time1_off);
   \   000000F8   0610A0E1           MOV      R1,R6
   \   000000FC   0500A0E1           MOV      R0,R5
   \   00000100   ........           BL       ??timecmp
   \   00000104   340085E5           STR      R0,[R5, #+52]
    397          
    398            if(timecmp(&cfg_time2_on, &zero_time) == 0) cfg_time2_on.hour = 24;
   \   00000108   0D10A0E1           MOV      R1,SP
   \   0000010C   0800A0E1           MOV      R0,R8
   \   00000110   ........           BL       ??timecmp
   \   00000114   000050E3           CMP      R0,#+0
   \   00000118   1800A003           MOVEQ    R0,#+24
   \   0000011C   0000C805           STRBEQ   R0,[R8, #+0]
    399            cfg_time2_flag = timecmp(&cfg_time2_on, &cfg_time2_off);
   \   00000120   0A10A0E1           MOV      R1,R10
   \   00000124   0800A0E1           MOV      R0,R8
   \   00000128   ........           BL       ??timecmp
   \   0000012C   380085E5           STR      R0,[R5, #+56]
    400          
    401            if(cfg_sound && (fstat(cfg_filepath,cfg_filename,&_fstat)!=0))
   \   00000130   ........           LDR      R0,??DataTable38  ;; cfg_sound
   \   00000134   000090E5           LDR      R0,[R0, #+0]
   \   00000138   000050E3           CMP      R0,#+0
   \   0000013C   0600000A           BEQ      ??UpdateParams_2
   \   00000140   812F8DE2           ADD      R2,SP,#+516
   \   00000144   9A1F85E2           ADD      R1,R5,#+616
   \   00000148   680085E2           ADD      R0,R5,#+104
   \   0000014C   1C0100EF           SWI      +284
   \   00000150   000050E3           CMP      R0,#+0
    402              #ifndef ENG
    403                err="   !";
   \   00000154   54308412           ADDNE    R3,R4,#+84
   \   00000158   1200001A           BNE      ??UpdateParams_3
    404              #else
    405                err="Notification file not found!";
    406              #endif
    407            else
    408              if(cfg_pretime < cfg_checkperiod) err="PRE_TIME < CHECK";
   \                     ??UpdateParams_2:
   \   0000015C   ........           LDR      R0,??DataTable39  ;; cfg_pretime
   \   00000160   ........           LDR      R1,??DataTable46  ;; cfg_checkperiod
   \   00000164   000090E5           LDR      R0,[R0, #+0]
   \   00000168   001091E5           LDR      R1,[R1, #+0]
   \   0000016C   010050E1           CMP      R0,R1
   \   00000170   40308432           ADDCC    R3,R4,#+64
   \   00000174   0B00003A           BCC      ??UpdateParams_3
    409            else
    410              if(timecmp(&cfg_on_time1, &cfg_off_time1) == 0) err="ON_TIME1==OFF_TIME1";
   \   00000178   A4009FE5           LDR      R0,??UpdateParams_1+0x14  ;; cfg_on_time1
   \   0000017C   0710A0E1           MOV      R1,R7
   \   00000180   ........           BL       ??timecmp
   \   00000184   000050E3           CMP      R0,#+0
   \   00000188   2C308402           ADDEQ    R3,R4,#+44
   \   0000018C   0500000A           BEQ      ??UpdateParams_3
    411            else
    412              if(timecmp(&cfg_on_time2, &cfg_off_time2) == 0) err="ON_TIME2==OFF_TIME2";
   \   00000190   0B10A0E1           MOV      R1,R11
   \   00000194   0900A0E1           MOV      R0,R9
   \   00000198   ........           BL       ??timecmp
   \   0000019C   000050E3           CMP      R0,#+0
   \   000001A0   1700001A           BNE      ??UpdateParams_4
   \   000001A4   183084E2           ADD      R3,R4,#+24
    413          
    414            if(err)
   \                     ??UpdateParams_3:
   \   000001A8   000053E3           CMP      R3,#+0
   \   000001AC   1400000A           BEQ      ??UpdateParams_4
    415            {
    416              snwprintf(temp, MAXELEMS(temp), _T("Error!\n%s"),err);
   \   000001B0   042084E2           ADD      R2,R4,#+4
   \   000001B4   401FA0E3           MOV      R1,#+256
   \   000001B8   04008DE2           ADD      R0,SP,#+4
   \   000001BC   150100EF           SWI      +277
    417              MessageBox(EMPTY_TEXTID,TextID_Create(temp,ENC_UCS2,MAXELEMS(temp)),NOIMAGE,1,0,0);
   \   000001C0   402FA0E3           MOV      R2,#+256
   \   000001C4   0010A0E3           MOV      R1,#+0
   \   000001C8   04008DE2           ADD      R0,SP,#+4
   \   000001CC   5D0100EF           SWI      +349
   \   000001D0   0010A0E1           MOV      R1,R0
   \   000001D4   0000A0E3           MOV      R0,#+0
   \   000001D8   01002DE9           PUSH     {R0}
   \   000001DC   01002DE9           PUSH     {R0}
   \   000001E0   0130A0E3           MOV      R3,#+1
   \   000001E4   FF20A0E3           MOV      R2,#+255
   \   000001E8   FF2C82E3           ORR      R2,R2,#0xFF00
   \   000001EC   9004E0E3           MVN      R0,#-1879048192
   \   000001F0   570200EF           SWI      +599
    418              return 1;
   \   000001F4   0100A0E3           MOV      R0,#+1
   \   000001F8   08D08DE2           ADD      SP,SP,#+8
   \   000001FC   88DF8DE2           ADD      SP,SP,#+544
   \   00000200   F08FBDE8           POP      {R4-R11,PC}
    419            }
    420            return 0;
   \                     ??UpdateParams_4:
   \   00000204   0000A0E3           MOV      R0,#+0
   \   00000208   88DF8DE2           ADD      SP,SP,#+544
   \   0000020C   F08FBDE8           POP      {R4-R11,PC}      ;; return
   \                     ??UpdateParams_1:
   \   00000210   ........           DC32     cfg_music_file
   \   00000214   ........           DC32     `?<Constant {'\\000', '\\000', '\\000', '\\000'}>`
   \   00000218   ........           DC32     cfg_off_time1
   \   0000021C   ........           DC32     cfg_on_time2
   \   00000220   ........           DC32     cfg_off_time2
   \   00000224   ........           DC32     cfg_on_time1
    421          }
    422          

   \                                 In segment CODE, align 4, keep-with-next
    423          void elf_exit(void)
    424          {
   \                     ??elf_exit:
   \   00000000   00402DE9           PUSH     {LR}
    425                  kill_data(&ELF_BEGIN, (void(*)(void*))mfree_adr());
   \   00000004   048100EF           SWI      +33028
   \   00000008   0010A0E1           MOV      R1,R0
   \   0000000C   04009FE5           LDR      R0,??elf_exit_1  ;; ELF_BEGIN
   \   00000010   0040BDE8           POP      {LR}             ;; Pop
   \   00000014   ........           _BF      kill_data,??kill_data??rA  ;; tailcall
   \                     ??elf_exit_1:
   \   00000018   ........           DC32     ELF_BEGIN
    426          }
    427          

   \                                 In segment CODE, align 4, keep-with-next
    428          void bookOnDestroy(BOOK * book)
    429          {
   \                     ??bookOnDestroy:
   \   00000000   10402DE9           PUSH     {R4,LR}
    430          
    431                  Timer_Kill(&timer);
   \   00000004   ........           LDR      R4,??DataTable43  ;; cfg_time1_on
   \   00000008   0C0084E2           ADD      R0,R4,#+12
   \   0000000C   2A0100EF           SWI      +298
    432                  if(timerFlash) offTimerFlash(0,0);
   \   00000010   B400D4E1           LDRH     R0,[R4, #+4]
   \   00000014   000050E3           CMP      R0,#+0
   \   00000018   0200000A           BEQ      ??bookOnDestroy_1
   \   0000001C   0010A0E3           MOV      R1,#+0
   \   00000020   0000A0E3           MOV      R0,#+0
   \   00000024   ........           BL       ??offTimerFlash
    433                  if(timerScreen) offTimerScreen(0,0);
   \                     ??bookOnDestroy_1:
   \   00000028   B600D4E1           LDRH     R0,[R4, #+6]
   \   0000002C   000050E3           CMP      R0,#+0
   \   00000030   0200000A           BEQ      ??bookOnDestroy_2
   \   00000034   0010A0E3           MOV      R1,#+0
   \   00000038   0000A0E3           MOV      R0,#+0
   \   0000003C   ........           BL       ??offTimerScreen
    434                  if(offtimer) Timer_Kill(&offtimer);
   \                     ??bookOnDestroy_2:
   \   00000040   BE00D4E1           LDRH     R0,[R4, #+14]
   \   00000044   000050E3           CMP      R0,#+0
   \   00000048   0100000A           BEQ      ??bookOnDestroy_3
   \   0000004C   0E0084E2           ADD      R0,R4,#+14
   \   00000050   2A0100EF           SWI      +298
    435                  if(timerREDLED) offTimerREDLED(0,0);
   \                     ??bookOnDestroy_3:
   \   00000054   B800D4E1           LDRH     R0,[R4, #+8]
   \   00000058   000050E3           CMP      R0,#+0
   \   0000005C   0200000A           BEQ      ??bookOnDestroy_4
   \   00000060   0010A0E3           MOV      R1,#+0
   \   00000064   0000A0E3           MOV      R0,#+0
   \   00000068   ........           BL       ??offTimerREDLED
    436                  if(timerLED) offTimerLED(0,0);
   \                     ??bookOnDestroy_4:
   \   0000006C   BA00D4E1           LDRH     R0,[R4, #+10]
   \   00000070   000050E3           CMP      R0,#+0
   \   00000074   0200000A           BEQ      ??bookOnDestroy_5
   \   00000078   0010A0E3           MOV      R1,#+0
   \   0000007C   0000A0E3           MOV      R0,#+0
   \   00000080   ........           BL       ??offTimerLED
    437                  if(offtimerREDLED) Timer_Kill(&offtimerREDLED);
   \                     ??bookOnDestroy_5:
   \   00000084   B401D4E1           LDRH     R0,[R4, #+20]
   \   00000088   000050E3           CMP      R0,#+0
   \   0000008C   0100000A           BEQ      ??bookOnDestroy_6
   \   00000090   140084E2           ADD      R0,R4,#+20
   \   00000094   2A0100EF           SWI      +298
    438                  if(offtimerLED) Timer_Kill(&offtimerLED);
   \                     ??bookOnDestroy_6:
   \   00000098   B201D4E1           LDRH     R0,[R4, #+18]
   \   0000009C   000050E3           CMP      R0,#+0
   \   000000A0   0100000A           BEQ      ??bookOnDestroy_7
   \   000000A4   120084E2           ADD      R0,R4,#+18
   \   000000A8   2A0100EF           SWI      +298
    439                  if(offtimerScreen) Timer_Kill(&offtimerScreen);
   \                     ??bookOnDestroy_7:
   \   000000AC   B001D4E1           LDRH     R0,[R4, #+16]
   \   000000B0   000050E3           CMP      R0,#+0
   \   000000B4   0100000A           BEQ      ??bookOnDestroy_8
   \   000000B8   100084E2           ADD      R0,R4,#+16
   \   000000BC   2A0100EF           SWI      +298
    440                  if(modetimer) Timer_Kill(&modetimer);
   \                     ??bookOnDestroy_8:
   \   000000C0   B601D4E1           LDRH     R0,[R4, #+22]
   \   000000C4   000050E3           CMP      R0,#+0
   \   000000C8   0100000A           BEQ      ??bookOnDestroy_9
   \   000000CC   160084E2           ADD      R0,R4,#+22
   \   000000D0   2A0100EF           SWI      +298
    441                  StatusIndication_ShowNotes(EMPTY_TEXTID);
   \                     ??bookOnDestroy_9:
   \   000000D4   9004E0E3           MVN      R0,#-1879048192
   \   000000D8   430100EF           SWI      +323
    442                  SUBPROC(elf_exit);
   \   000000DC   ........           LDR      R0,??DataTable44  ;; ??elf_exit
   \   000000E0   080100EF           SWI      +264
    443          }
   \   000000E4   1080BDE8           POP      {R4,PC}          ;; return
    444          

   \                                 In segment CODE, align 4, keep-with-next
    445          int onExit(void* r0,BOOK* b)
    446          {
   \                     ??onExit:
   \   00000000   00402DE9           PUSH     {LR}
   \   00000004   0100A0E1           MOV      R0,R1
    447                  FreeBook(b);
   \   00000008   2F0100EF           SWI      +303
    448                  return 1;
   \   0000000C   0100A0E3           MOV      R0,#+1
   \   00000010   0080BDE8           POP      {PC}             ;; return
    449          }
    450          

   \                                 In segment CODE, align 4, keep-with-next
    451          int onAbout(void* mess,BOOK* b)
    452          {
   \                     ??onAbout:
   \   00000000   30402DE9           PUSH     {R4,R5,LR}
    453                  MessageBox(EMPTY_TEXTID,TextID_Create( LELFNAME LELFVERSION,ENC_UCS2,TEXTID_ANY_LEN),NOIMAGE, 1 ,5000, *(BOOK**)mess);
   \   00000004   0010A0E3           MOV      R1,#+0
   \   00000008   0040A0E1           MOV      R4,R0
   \   0000000C   3C009FE5           LDR      R0,??onAbout_1   ;; `?<Constant L"\\x4d\\x69\\x73\\x73\\x65\\x64\\x20\\x45\\`
   \   00000010   FF50A0E3           MOV      R5,#+255
   \   00000014   FF5C85E3           ORR      R5,R5,#0xFF00
   \   00000018   0520A0E1           MOV      R2,R5
   \   0000001C   5D0100EF           SWI      +349
   \   00000020   001094E5           LDR      R1,[R4, #+0]
   \   00000024   0130A0E3           MOV      R3,#+1
   \   00000028   02002DE9           PUSH     {R1}
   \   0000002C   0520A0E1           MOV      R2,R5
   \   00000030   8810A0E3           MOV      R1,#+136
   \   00000034   4C1D81E3           ORR      R1,R1,#0x1300
   \   00000038   02002DE9           PUSH     {R1}
   \   0000003C   0010A0E1           MOV      R1,R0
   \   00000040   9004E0E3           MVN      R0,#-1879048192
   \   00000044   570200EF           SWI      +599
    454                  return 1;
   \   00000048   0100A0E3           MOV      R0,#+1
   \   0000004C   3680BDE8           POP      {R1,R2,R4,R5,PC}  ;; return
   \                     ??onAbout_1:
   \   00000050   ........           DC32     `?<Constant L"\\x4d\\x69\\x73\\x73\\x65\\x64\\x20\\x45\\`
    455          }
    456          
    457          enum
    458          {
    459                  CALLMANAGER_IDLE            =0,
    460                  CALLMANAGER_CALL_CONNECTED  =1,
    461                  CALLMANAGER_CALL_SETUP      =2,
    462                  CALLMANAGER_CALL_ALERT      =4,
    463                  CALLMANAGER_CALL_WAITING    =5,
    464                  CALLMANAGER_CALL_TERMINATED =6
    465          };
    466          

   \                                 In segment CODE, align 4, keep-with-next
    467          int OnCallManagerEvent(void* r0,BOOK* b)
    468          {
    469                  switch(((CALLMANAGER_EVENT_DATA*)r0)->CallState)
   \                     ??OnCallManagerEvent:
   \   00000000   0200D0E5           LDRB     R0,[R0, #+2]
   \   00000004   ........           LDR      R1,??DataTable43  ;; cfg_time1_on
   \   00000008   020050E2           SUBS     R0,R0,#+2
   \   0000000C   02005012           SUBSNE   R0,R0,#+2
   \   00000010   0200000A           BEQ      ??OnCallManagerEvent_1
   \   00000014   020050E2           SUBS     R0,R0,#+2
   \   00000018   0200000A           BEQ      ??OnCallManagerEvent_2
   \   0000001C   030000EA           B        ??OnCallManagerEvent_3
    470                  {
    471                  case CALLMANAGER_CALL_SETUP:
    472                  case CALLMANAGER_CALL_ALERT:
    473                          disabled=true;
   \                     ??OnCallManagerEvent_1:
   \   00000020   0100A0E3           MOV      R0,#+1
   \   00000024   000000EA           B        ??OnCallManagerEvent_4
    474                          break;
    475                  case CALLMANAGER_CALL_TERMINATED:
    476                          disabled=false;
   \                     ??OnCallManagerEvent_2:
   \   00000028   0000A0E3           MOV      R0,#+0
   \                     ??OnCallManagerEvent_4:
   \   0000002C   4C00C1E5           STRB     R0,[R1, #+76]
    477                          break;
    478                  }
    479                  return 1;
   \                     ??OnCallManagerEvent_3:
   \   00000030   0100A0E3           MOV      R0,#+1
   \   00000034   1EFF2FE1           BX       LR               ;; return
    480          }
    481          

   \                                 In segment CODE, align 4, keep-with-next
    482          static int onReconfigElf(void *mess ,BOOK *book)
    483          {
   \                     ??onReconfigElf:
   \   00000000   30402DE9           PUSH     {R4,R5,LR}
   \   00000004   0040A0E1           MOV      R4,R0
    484            RECONFIG_EVENT_DATA *reconf=(RECONFIG_EVENT_DATA *)mess;
    485            int result=0;
    486            if (wstrcmpi(reconf->path,successed_config_path)==0 && wstrcmpi(reconf->name,successed_config_name)==0)
   \   00000008   40009FE5           LDR      R0,??onReconfigElf_1  ;; successed_config_path
   \   0000000C   0050A0E3           MOV      R5,#+0
   \   00000010   001090E5           LDR      R1,[R0, #+0]
   \   00000014   0400A0E1           MOV      R0,R4
   \   00000018   9F0200EF           SWI      +671
   \   0000001C   000050E3           CMP      R0,#+0
   \   00000020   0800001A           BNE      ??onReconfigElf_2
   \   00000024   28009FE5           LDR      R0,??onReconfigElf_1+0x4  ;; successed_config_name
   \   00000028   001090E5           LDR      R1,[R0, #+0]
   \   0000002C   800084E2           ADD      R0,R4,#+128
   \   00000030   9F0200EF           SWI      +671
   \   00000034   000050E3           CMP      R0,#+0
   \   00000038   0200001A           BNE      ??onReconfigElf_2
    487            {
    488              InitConfig();
   \   0000003C   ........           _BLF     ??InitConfig,??InitConfig??rA
    489              UpdateParams();
   \   00000040   ........           BL       ??UpdateParams
    490              result=1;
   \   00000044   0150A0E3           MOV      R5,#+1
    491            }
    492            return(result);
   \                     ??onReconfigElf_2:
   \   00000048   0500A0E1           MOV      R0,R5
   \   0000004C   3080BDE8           POP      {R4,R5,PC}       ;; return
   \                     ??onReconfigElf_1:
   \   00000050   ........           DC32     successed_config_path
   \   00000054   ........           DC32     successed_config_name
    493          }
    494          

   \                                 In segment DYN_PAGE, align 4, align-sorted
    495          const PAGE_MSG evtlist[] @ "DYN_PAGE"=
   \                     evtlist:
   \   00000000   E5030000....       DC32 997, ??onExit, 998, ??onAbout, 996, ??onReconfigElf, 442
   \              ....E6030000
   \              ........E403
   \              0000........
   \              BA010000    
   \   0000001C   ........4000       DC32 ??OnCallManagerEvent, 64, 0H
   \              000000000000
    496          {
    497            ELF_TERMINATE_EVENT,      onExit,
    498            ELF_SHOW_INFO_EVENT,      onAbout,
    499            ELF_RECONFIG_EVENT,       onReconfigElf,
    500            ON_CALLMANAGER_EVENT_TAG, OnCallManagerEvent,
    501            NIL_EVENT_TAG,            NULL
    502          };
    503          

   \                                 In segment DATA_C, align 4, align-sorted
   \                     `?<Constant L"\\x4d\\x69\\x73\\x73\\x65\\x64\\x45\\x76\\`:
   \   00000000   4D0069007300       DC8 4DH, 0, 69H, 0, 73H, 0, 73H, 0
   \              7300        
   \   00000008   650064004500       DC8 65H, 0, 64H, 0, 45H, 0, 76H, 0
   \              7600        
   \   00000010   65006E007400       DC8 65H, 0, 6EH, 0, 74H, 0, 73H, 0
   \              7300        
   \   00000018   0A0043043604       DC8 0AH, 0, 43H, 4, 36H, 4, 35H, 4
   \              3504        
   \   00000020   200037043004       DC8 20H, 0, 37H, 4, 30H, 4, 3FH, 4
   \              3F04        
   \   00000028   430449043504       DC8 43H, 4, 49H, 4, 35H, 4, 3DH, 4
   \              3D04        
   \   00000030   0000               DC8 0, 0
   \   00000032   0000               DC8 0, 0
   \   00000034   ........0000       DC32 `?<Constant "MissedEvents_base_page">`, 0H, evtlist
   \              0000........
    504          const PAGE_DESC defaultpage = {"MissedEvents_base_page",0,evtlist};
    505          

   \                                 In segment CODE, align 4, keep-with-next
    506          int isMissedEventsBook(BOOK * book)
    507          {
    508                  if(!strcmp(book->xbook->name,myappname)) return true;
   \                     ??isMissedEventsBook:
   \   00000000   20109FE5           LDR      R1,??isMissedEventsBook_1  ;; cfg_time1_on + 84
   \   00000004   00402DE9           PUSH     {LR}
   \   00000008   000090E5           LDR      R0,[R0, #+0]
   \   0000000C   040090E5           LDR      R0,[R0, #+4]
   \   00000010   590100EF           SWI      +345
   \   00000014   000050E3           CMP      R0,#+0
   \   00000018   0100A003           MOVEQ    R0,#+1
   \   0000001C   0080BD08           POPEQ    {PC}
    509                  return false;
   \   00000020   0000A0E3           MOV      R0,#+0
   \   00000024   0080BDE8           POP      {PC}             ;; return
   \                     ??isMissedEventsBook_1:
   \   00000028   ........           DC32     cfg_time1_on + 84
    510          }
    511          

   \                                 In segment CODE, align 4, keep-with-next
    512          int main(wchar_t* filename)
    513          {
   \                     main:
   \   00000000   F0432DE9           PUSH     {R4-R9,LR}
    514                  BOOK* alreadyrunned=FindBook(isMissedEventsBook);
    515                  if(alreadyrunned)
   \   00000004   88519FE5           LDR      R5,??main_0      ;; `?<Constant L"\\x4d\\x69\\x73\\x73\\x65\\x64\\x45\\x76\\`
   \   00000008   ........           LDR      R4,??DataTable44  ;; ??elf_exit
   \   0000000C   0060A0E1           MOV      R6,R0
   \   00000010   80019FE5           LDR      R0,??main_0+0x4  ;; ??isMissedEventsBook
   \   00000014   300100EF           SWI      +304
   \   00000018   000050E3           CMP      R0,#+0
   \   0000001C   1300000A           BEQ      ??main_1
    516                  {
    517                      #ifndef ENG
    518                          MessageBox(EMPTY_TEXTID, STR("MissedEvents\n "), NOIMAGE, 1 ,5000, 0);
   \   00000020   FF60A0E3           MOV      R6,#+255
   \   00000024   FF6C86E3           ORR      R6,R6,#0xFF00
   \   00000028   0620A0E1           MOV      R2,R6
   \   0000002C   0010A0E3           MOV      R1,#+0
   \   00000030   0500A0E1           MOV      R0,R5
   \   00000034   5D0100EF           SWI      +349
   \   00000038   0010A0E3           MOV      R1,#+0
   \   0000003C   02002DE9           PUSH     {R1}
   \   00000040   0130A0E3           MOV      R3,#+1
   \   00000044   0620A0E1           MOV      R2,R6
   \   00000048   8810A0E3           MOV      R1,#+136
   \   0000004C   4C1D81E3           ORR      R1,R1,#0x1300
   \   00000050   02002DE9           PUSH     {R1}
   \   00000054   0010A0E1           MOV      R1,R0
   \   00000058   9004E0E3           MVN      R0,#-1879048192
   \   0000005C   570200EF           SWI      +599
    519                      #else
    520                          MessageBox(EMPTY_TEXTID, STR("MissedEvents\nalready runned"), NOIMAGE, 1 ,5000, 0);
    521                      #endif
    522                      SUBPROC(elf_exit);
   \   00000060   0400A0E1           MOV      R0,R4
   \   00000064   080100EF           SWI      +264
   \   00000068   08D08DE2           ADD      SP,SP,#+8
   \   0000006C   050000EA           B        ??main_2
    523                  }
    524                   else
    525                  {
    526                          InitConfig();
   \                     ??main_1:
   \   00000070   ........           _BLF     ??InitConfig,??InitConfig??rA
    527                          if(UpdateParams())
   \   00000074   ........           BL       ??UpdateParams
   \   00000078   000050E3           CMP      R0,#+0
   \   0000007C   0300000A           BEQ      ??main_3
    528                          {
    529                              SUBPROC(elf_exit);
   \   00000080   0400A0E1           MOV      R0,R4
   \   00000084   080100EF           SWI      +264
    530                              return 0;
   \                     ??main_2:
   \   00000088   0000A0E3           MOV      R0,#+0
   \   0000008C   F083BDE8           POP      {R4-R9,PC}
    531                          }
    532          
    533                          switch(GetChipID()&CHIPID_MASK)
   \                     ??main_3:
   \   00000090   ........           LDR      R7,??DataTable45  ;; cfg_time1_on
   \   00000094   0080A0E3           MOV      R8,#+0
   \   00000098   4E0200EF           SWI      +590
   \   0000009C   FE0C00E2           AND      R0,R0,#0xFE00
   \   000000A0   0008A0E1           MOV      R0,R0, LSL #+16
   \   000000A4   4008A0E1           MOV      R0,R0, ASR #+16
   \   000000A8   800C70E3           CMN      R0,#+32768
   \   000000AC   0700000A           BEQ      ??main_4
   \   000000B0   680C70E3           CMN      R0,#+26624
   \   000000B4   E00D7013           CMNNE    R0,#+14336
   \   000000B8   A00D7013           CMNNE    R0,#+10240
   \   000000BC   600D7013           CMNNE    R0,#+6144
   \   000000C0   400D7013           CMNNE    R0,#+4096
   \   000000C4   0400000A           BEQ      ??main_5
   \   000000C8   700C50E3           CMP      R0,#+28672
   \   000000CC   0600001A           BNE      ??main_6
    534                          {
    535                          case CHIPID_DB2000:
    536                          case CHIPID_DB2010:
    537                                  skipevents=0;
   \                     ??main_4:
   \   000000D0   408087E5           STR      R8,[R7, #+64]
    538                                  checkevents=1|2|4|8;//MISSED_CALL|MISSED_SMS|MISSED_EMAIL|MISSED_MMS
   \   000000D4   0F00A0E3           MOV      R0,#+15
   \   000000D8   020000EA           B        ??main_7
    539                                  break;
    540                          case CHIPID_DB2020:
    541                          case CHIPID_DB3150:
    542                          case CHIPID_DB3200:
    543                          case CHIPID_DB3210:
    544                          case CHIPID_DB3350:
    545                                  skipevents=1|2;//KEYLOCKED|NOSOUND
   \                     ??main_5:
   \   000000DC   0300A0E3           MOV      R0,#+3
   \   000000E0   400087E5           STR      R0,[R7, #+64]
    546                                  checkevents=4|8|0x10|0x20;//MISSED_CALL|MISSED_SMS|MISSED_EMAIL|MISSED_MMS
   \   000000E4   3C00A0E3           MOV      R0,#+60
   \                     ??main_7:
   \   000000E8   440087E5           STR      R0,[R7, #+68]
    547                          }
    548          
    549                          BOOK *myBook=(BOOK*)malloc(sizeof(BOOK));
   \                     ??main_6:
   \   000000EC   1800A0E3           MOV      R0,#+24
   \   000000F0   030100EF           SWI      +259
   \   000000F4   0090A0E1           MOV      R9,R0
    550                          memset(myBook,0,sizeof(BOOK));
   \   000000F8   1820A0E3           MOV      R2,#+24
   \   000000FC   0010A0E3           MOV      R1,#+0
   \   00000100   120100EF           SWI      +274
    551                          if(!CreateBook(myBook,bookOnDestroy,&defaultpage,myappname,-1,0))
   \   00000104   90109FE5           LDR      R1,??main_0+0x8  ;; ??bookOnDestroy
   \   00000108   0800A0E1           MOV      R0,R8
   \   0000010C   01002DE9           PUSH     {R0}
   \   00000110   543087E2           ADD      R3,R7,#+84
   \   00000114   342085E2           ADD      R2,R5,#+52
   \   00000118   0000E0E1           MVN      R0,R0
   \   0000011C   01002DE9           PUSH     {R0}
   \   00000120   0900A0E1           MOV      R0,R9
   \   00000124   2B0100EF           SWI      +299
   \   00000128   000050E3           CMP      R0,#+0
   \   0000012C   08D08DE2           ADD      SP,SP,#+8
   \   00000130   0400001A           BNE      ??main_8
    552                          {
    553                            delete myBook;
   \   00000134   0900A0E1           MOV      R0,R9
   \   00000138   ........           _BLF     `??operator delete`,`??operator delete??rA`
    554                            SUBPROC(elf_exit);
   \   0000013C   0400A0E1           MOV      R0,R4
   \   00000140   080100EF           SWI      +264
    555                            return 0;
   \   00000144   100000EA           B        ??main_9
    556                          }
    557          
    558                          timer=Timer_Set(cfg_checkperiod*1000, onTimer, 0);
   \                     ??main_8:
   \   00000148   ........           LDR      R0,??DataTable46  ;; cfg_checkperiod
   \   0000014C   ........           LDR      R1,??DataTable47  ;; ??onTimer
   \   00000150   000090E5           LDR      R0,[R0, #+0]
   \   00000154   FA3FA0E3           MOV      R3,#+1000
   \   00000158   930000E0           MUL      R0,R3,R0
   \   0000015C   0020A0E3           MOV      R2,#+0
   \   00000160   290100EF           SWI      +297
   \   00000164   BC00C7E1           STRH     R0,[R7, #+12]
    559                          if(!wstrwstr(filename,GetDir(DIR_ELFS_DAEMONS)))
   \   00000168   1200A0E3           MOV      R0,#+18
   \   0000016C   050100EF           SWI      +261
   \   00000170   0010A0E1           MOV      R1,R0
   \   00000174   0600A0E1           MOV      R0,R6
   \   00000178   9E0200EF           SWI      +670
   \   0000017C   000050E3           CMP      R0,#+0
   \   00000180   0100001A           BNE      ??main_9
    560                            StatusIndication_ShowNotes(EMPTY_TEXTID);
   \   00000184   9004E0E3           MVN      R0,#-1879048192
   \   00000188   430100EF           SWI      +323
    561                  }
    562          
    563                  return 0;
   \                     ??main_9:
   \   0000018C   0000A0E3           MOV      R0,#+0
   \   00000190   F083BDE8           POP      {R4-R9,PC}       ;; return
   \                     ??main_0:
   \   00000194   ........           DC32     `?<Constant L"\\x4d\\x69\\x73\\x73\\x65\\x64\\x45\\x76\\`
   \   00000198   ........           DC32     ??isMissedEventsBook
   \   0000019C   ........           DC32     ??bookOnDestroy
    564          }

   \                                 In segment CODE, align 4, keep-with-next
   \                     ??DataTable1:
   \   00000000   ........           DC32     _ctypes_

   \                                 In segment CODE, align 4, keep-with-next
   \                     ??DataTable16:
   \   00000000   ........           DC32     cfg_phone_type

   \                                 In segment CODE, align 4, keep-with-next
   \                     ??DataTable19:
   \   00000000   ........           DC32     cfg_screen_level

   \                                 In segment CODE, align 4, keep-with-next
   \                     ??DataTable27:
   \   00000000   ........           DC32     cfg_flash_blink_speed

   \                                 In segment CODE, align 4, keep-with-next
   \                     ??DataTable28:
   \   00000000   ........           DC32     ??onTimerFlash

   \                                 In segment CODE, align 4, keep-with-next
   \                     ??DataTable29:
   \   00000000   ........           DC32     cfg_screen_blink_speed

   \                                 In segment CODE, align 4, keep-with-next
   \                     ??DataTable30:
   \   00000000   ........           DC32     ??onTimerScreen

   \                                 In segment CODE, align 4, keep-with-next
   \                     ??DataTable31:
   \   00000000   ........           DC32     ??onTimerLED

   \                                 In segment CODE, align 4, keep-with-next
   \                     ??DataTable32:
   \   00000000   ........           DC32     ??onTimerREDLED

   \                                 In segment CODE, align 4, keep-with-next
   \                     ??DataTable34:
   \   00000000   ........           DC32     cfg_time1_on

   \                                 In segment CODE, align 4, keep-with-next
   \                     ??DataTable35:
   \   00000000   ........           DC32     cfg_time1_off

   \                                 In segment CODE, align 4, keep-with-next
   \                     ??DataTable36:
   \   00000000   ........           DC32     cfg_time2_on

   \                                 In segment CODE, align 4, keep-with-next
   \                     ??DataTable37:
   \   00000000   ........           DC32     cfg_time2_off

   \                                 In segment CODE, align 4, keep-with-next
   \                     ??DataTable38:
   \   00000000   ........           DC32     cfg_sound

   \                                 In segment CODE, align 4, keep-with-next
   \                     ??DataTable39:
   \   00000000   ........           DC32     cfg_pretime

   \                                 In segment CODE, align 4, keep-with-next
   \                     ??DataTable43:
   \   00000000   ........           DC32     cfg_time1_on

   \                                 In segment CODE, align 4, keep-with-next
   \                     ??DataTable44:
   \   00000000   ........           DC32     ??elf_exit

   \                                 In segment CODE, align 4, keep-with-next
   \                     ??DataTable45:
   \   00000000   ........           DC32     cfg_time1_on

   \                                 In segment CODE, align 4, keep-with-next
   \                     ??DataTable46:
   \   00000000   ........           DC32     cfg_checkperiod

   \                                 In segment CODE, align 4, keep-with-next
   \                     ??DataTable47:
   \   00000000   ........           DC32     ??onTimer

   \                                 In segment DATA_ID, align 4, align-sorted
   \                     `?<Initializer for cfgmacro>`:
   \   00000000   ........0000       DC32 `?<Constant "AUDIO">`, 0, `?<Constant "IMAGE">`, 2
   \              0000........
   \              02000000    
   \   00000010   ........0400       DC32 `?<Constant "VIDEO">`, 4, `?<Constant "THEME">`, 6
   \              0000........
   \              06000000    
   \   00000020   ........0800       DC32 `?<Constant "OTHER">`, 8, `?<Constant "ELFS">`, 16
   \              0000........
   \              10000000    
   \   00000030   ........1200       DC32 `?<Constant "ELFS_DAEMONS">`, 18, `?<Constant "ELFS_CONFIG">`, 20
   \              0000........
   \              14000000    
   \   00000040   ........1600       DC32 `?<Constant "INI">`, 22
   \              0000        

   \                                 In segment DATA_ID, align 4, align-sorted
   \                     `?<Initializer for cfg_time1_on>`:
   \   00000000   061E0000           DC8 6, 30, 0, 0
   \                     `?<Initializer for timerFlash>`:
   \   00000004   0000               DC16 0
   \                     `?<Initializer for timerScreen>`:
   \   00000006   0000               DC16 0
   \                     `?<Initializer for timerREDLED>`:
   \   00000008   0000               DC16 0
   \                     `?<Initializer for timerLED>`:
   \   0000000A   0000               DC16 0
   \                     `?<Initializer for timer>`:
   \   0000000C   0000               DC16 0
   \                     `?<Initializer for offtimer>`:
   \   0000000E   0000               DC16 0
   \                     `?<Initializer for offtimerScreen>`:
   \   00000010   0000               DC16 0
   \                     `?<Initializer for offtimerLED>`:
   \   00000012   0000               DC16 0
   \                     `?<Initializer for offtimerREDLED>`:
   \   00000014   0000               DC16 0
   \                     `?<Initializer for modetimer>`:
   \   00000016   0000               DC16 0
   \                     `?<Initializer for LEDControl_W580>`:
   \   00000018   A9BF2945           DC32 4529BFA9H
   \                     `?<Initializer for lamp>`:
   \   0000001C   00000000           DC32 0
   \                     `?<Initializer for screen>`:
   \   00000020   00000000           DC32 0
   \                     `?<Initializer for REDLED>`:
   \   00000024   00000000           DC32 0
   \                     `?<Initializer for LED>`:
   \   00000028   00000000           DC32 0
   \                     `?<Initializer for LED580>`:
   \   0000002C   01000000           DC32 1
   \                     `?<Initializer for LEDnum>`:
   \   00000030   02000000           DC32 2
   \                     `?<Initializer for cfg_time1_flag>`:
   \   00000034   01000000           DC32 1
   \                     `?<Initializer for cfg_time2_flag>`:
   \   00000038   01000000           DC32 1
   \                     `?<Initializer for number>`:
   \   0000003C   FFFFFF07           DC32 134217727
   \                     `?<Initializer for skipevents>`:
   \   00000040   00000000           DC8 0, 0, 0, 0
   \                     `?<Initializer for checkevents>`:
   \   00000044   00000000           DC8 0, 0, 0, 0
   \                     `?<Initializer for state>`:
   \   00000048   00000000           DC32 0
   \                     `?<Initializer for disabled>`:
   \   0000004C   00                 DC8 0
   \                     `?<Initializer for disabled_by_mode>`:
   \   0000004D   00                 DC8 0
   \                     `?<Initializer for sound_disabled_by_time>`:
   \   0000004E   00                 DC8 0
   \                     `?<Initializer for vibra_disabled_by_time>`:
   \   0000004F   00                 DC8 0
   \                     `?<Initializer for flash_disabled_by_time>`:
   \   00000050   00                 DC8 0
   \                     `?<Initializer for redled_disabled_by_time>`:
   \   00000051   00                 DC8 0
   \                     `?<Initializer for led_disabled_by_time>`:
   \   00000052   00                 DC8 0
   \                     `?<Initializer for screen_disabled_by_time>`:
   \   00000053   00                 DC8 0
   \                     `?<Initializer for myappname>`:
   \   00000054   4D6973736564       DC8 "MissedEvents v.2.3"
   \              4576656E7473
   \              20762E322E33
   \              00          
   \   00000067   00                 DC8 0
   \                     `?<Initializer for cfg_filepath>`:
   \   00000068   000000000000       DC8 0, 0, 0, 0, 0, 0, 0, 0, 0, 0, 0, 0, 0, 0, 0, 0
   \              000000000000
   \              00000000    
   \   00000078   000000000000       DC8 0, 0, 0, 0, 0, 0, 0, 0, 0, 0, 0, 0, 0, 0, 0, 0
   \              000000000000
   \              00000000    
   \   00000088   000000000000       DC8 0, 0, 0, 0, 0, 0, 0, 0, 0, 0, 0, 0, 0, 0, 0, 0
   \              000000000000
   \              00000000    
   \   00000098   000000000000       DC8 0, 0, 0, 0, 0, 0, 0, 0, 0, 0, 0, 0, 0, 0, 0, 0
   \              000000000000
   \              00000000    
   \   000000A8   000000000000       DC8 0, 0, 0, 0, 0, 0, 0, 0, 0, 0, 0, 0, 0, 0, 0, 0
   \              000000000000
   \              00000000    
   \   000000B8   000000000000       DC8 0, 0, 0, 0, 0, 0, 0, 0, 0, 0, 0, 0, 0, 0, 0, 0
   \              000000000000
   \              00000000    
   \   000000C8   000000000000       DC8 0, 0, 0, 0, 0, 0, 0, 0, 0, 0, 0, 0, 0, 0, 0, 0
   \              000000000000
   \              00000000    
   \   000000D8   000000000000       DC8 0, 0, 0, 0, 0, 0, 0, 0, 0, 0, 0, 0, 0, 0, 0, 0
   \              000000000000
   \              00000000    
   \   000000E8   000000000000       DC8 0, 0, 0, 0, 0, 0, 0, 0, 0, 0, 0, 0, 0, 0, 0, 0
   \              000000000000
   \              00000000    
   \   000000F8   000000000000       DC8 0, 0, 0, 0, 0, 0, 0, 0, 0, 0, 0, 0, 0, 0, 0, 0
   \              000000000000
   \              00000000    
   \   00000108   000000000000       DC8 0, 0, 0, 0, 0, 0, 0, 0, 0, 0, 0, 0, 0, 0, 0, 0
   \              000000000000
   \              00000000    
   \   00000118   000000000000       DC8 0, 0, 0, 0, 0, 0, 0, 0, 0, 0, 0, 0, 0, 0, 0, 0
   \              000000000000
   \              00000000    
   \   00000128   000000000000       DC8 0, 0, 0, 0, 0, 0, 0, 0, 0, 0, 0, 0, 0, 0, 0, 0
   \              000000000000
   \              00000000    
   \   00000138   000000000000       DC8 0, 0, 0, 0, 0, 0, 0, 0, 0, 0, 0, 0, 0, 0, 0, 0
   \              000000000000
   \              00000000    
   \   00000148   000000000000       DC8 0, 0, 0, 0, 0, 0, 0, 0, 0, 0, 0, 0, 0, 0, 0, 0
   \              000000000000
   \              00000000    
   \   00000158   000000000000       DC8 0, 0, 0, 0, 0, 0, 0, 0, 0, 0, 0, 0, 0, 0, 0, 0
   \              000000000000
   \              00000000    
   \   00000168   000000000000       DC8 0, 0, 0, 0, 0, 0, 0, 0, 0, 0, 0, 0, 0, 0, 0, 0
   \              000000000000
   \              00000000    
   \   00000178   000000000000       DC8 0, 0, 0, 0, 0, 0, 0, 0, 0, 0, 0, 0, 0, 0, 0, 0
   \              000000000000
   \              00000000    
   \   00000188   000000000000       DC8 0, 0, 0, 0, 0, 0, 0, 0, 0, 0, 0, 0, 0, 0, 0, 0
   \              000000000000
   \              00000000    
   \   00000198   000000000000       DC8 0, 0, 0, 0, 0, 0, 0, 0, 0, 0, 0, 0, 0, 0, 0, 0
   \              000000000000
   \              00000000    
   \   000001A8   000000000000       DC8 0, 0, 0, 0, 0, 0, 0, 0, 0, 0, 0, 0, 0, 0, 0, 0
   \              000000000000
   \              00000000    
   \   000001B8   000000000000       DC8 0, 0, 0, 0, 0, 0, 0, 0, 0, 0, 0, 0, 0, 0, 0, 0
   \              000000000000
   \              00000000    
   \   000001C8   000000000000       DC8 0, 0, 0, 0, 0, 0, 0, 0, 0, 0, 0, 0, 0, 0, 0, 0
   \              000000000000
   \              00000000    
   \   000001D8   000000000000       DC8 0, 0, 0, 0, 0, 0, 0, 0, 0, 0, 0, 0, 0, 0, 0, 0
   \              000000000000
   \              00000000    
   \   000001E8   000000000000       DC8 0, 0, 0, 0, 0, 0, 0, 0, 0, 0, 0, 0, 0, 0, 0, 0
   \              000000000000
   \              00000000    
   \   000001F8   000000000000       DC8 0, 0, 0, 0, 0, 0, 0, 0, 0, 0, 0, 0, 0, 0, 0, 0
   \              000000000000
   \              00000000    
   \   00000208   000000000000       DC8 0, 0, 0, 0, 0, 0, 0, 0, 0, 0, 0, 0, 0, 0, 0, 0
   \              000000000000
   \              00000000    
   \   00000218   000000000000       DC8 0, 0, 0, 0, 0, 0, 0, 0, 0, 0, 0, 0, 0, 0, 0, 0
   \              000000000000
   \              00000000    
   \   00000228   000000000000       DC8 0, 0, 0, 0, 0, 0, 0, 0, 0, 0, 0, 0, 0, 0, 0, 0
   \              000000000000
   \              00000000    
   \   00000238   000000000000       DC8 0, 0, 0, 0, 0, 0, 0, 0, 0, 0, 0, 0, 0, 0, 0, 0
   \              000000000000
   \              00000000    
   \   00000248   000000000000       DC8 0, 0, 0, 0, 0, 0, 0, 0, 0, 0, 0, 0, 0, 0, 0, 0
   \              000000000000
   \              00000000    
   \   00000258   000000000000       DC8 0, 0, 0, 0, 0, 0, 0, 0, 0, 0, 0, 0, 0, 0, 0, 0
   \              000000000000
   \              00000000    
   \                     `?<Initializer for cfg_filename>`:
   \   00000268   000000000000       DC8 0, 0, 0, 0, 0, 0, 0, 0, 0, 0, 0, 0, 0, 0, 0, 0
   \              000000000000
   \              00000000    
   \   00000278   000000000000       DC8 0, 0, 0, 0, 0, 0, 0, 0, 0, 0, 0, 0, 0, 0, 0, 0
   \              000000000000
   \              00000000    
   \   00000288   000000000000       DC8 0, 0, 0, 0, 0, 0, 0, 0, 0, 0, 0, 0, 0, 0, 0, 0
   \              000000000000
   \              00000000    
   \   00000298   000000000000       DC8 0, 0, 0, 0, 0, 0, 0, 0, 0, 0, 0, 0, 0, 0, 0, 0
   \              000000000000
   \              00000000    
   \   000002A8   000000000000       DC8 0, 0, 0, 0, 0, 0, 0, 0, 0, 0, 0, 0, 0, 0, 0, 0
   \              000000000000
   \              00000000    
   \   000002B8   000000000000       DC8 0, 0, 0, 0, 0, 0, 0, 0, 0, 0, 0, 0, 0, 0, 0, 0
   \              000000000000
   \              00000000    
   \   000002C8   000000000000       DC8 0, 0, 0, 0, 0, 0, 0, 0, 0, 0, 0, 0, 0, 0, 0, 0
   \              000000000000
   \              00000000    
   \   000002D8   000000000000       DC8 0, 0, 0, 0, 0, 0, 0, 0, 0, 0, 0, 0, 0, 0, 0, 0
   \              000000000000
   \              00000000    
   \   000002E8   000000000000       DC8 0, 0, 0, 0, 0, 0, 0, 0, 0, 0, 0, 0, 0, 0, 0, 0
   \              000000000000
   \              00000000    
   \   000002F8   000000000000       DC8 0, 0, 0, 0, 0, 0, 0, 0, 0, 0, 0, 0, 0, 0, 0, 0
   \              000000000000
   \              00000000    
   \   00000308   000000000000       DC8 0, 0, 0, 0, 0, 0, 0, 0, 0, 0, 0, 0, 0, 0, 0, 0
   \              000000000000
   \              00000000    
   \   00000318   000000000000       DC8 0, 0, 0, 0, 0, 0, 0, 0, 0, 0, 0, 0, 0, 0, 0, 0
   \              000000000000
   \              00000000    
   \   00000328   000000000000       DC8 0, 0, 0, 0, 0, 0, 0, 0, 0, 0, 0, 0, 0, 0, 0, 0
   \              000000000000
   \              00000000    
   \   00000338   000000000000       DC8 0, 0, 0, 0, 0, 0, 0, 0, 0, 0, 0, 0, 0, 0, 0, 0
   \              000000000000
   \              00000000    
   \   00000348   000000000000       DC8 0, 0, 0, 0, 0, 0, 0, 0, 0, 0, 0, 0, 0, 0, 0, 0
   \              000000000000
   \              00000000    
   \   00000358   000000000000       DC8 0, 0, 0, 0, 0, 0, 0, 0, 0, 0, 0, 0, 0, 0, 0, 0
   \              000000000000
   \              00000000    
   \   00000368   000000000000       DC8 0, 0, 0, 0, 0, 0, 0, 0, 0, 0, 0, 0, 0, 0, 0, 0
   \              000000000000
   \              00000000    
   \   00000378   000000000000       DC8 0, 0, 0, 0, 0, 0, 0, 0, 0, 0, 0, 0, 0, 0, 0, 0
   \              000000000000
   \              00000000    
   \   00000388   000000000000       DC8 0, 0, 0, 0, 0, 0, 0, 0, 0, 0, 0, 0, 0, 0, 0, 0
   \              000000000000
   \              00000000    
   \   00000398   000000000000       DC8 0, 0, 0, 0, 0, 0, 0, 0, 0, 0, 0, 0, 0, 0, 0, 0
   \              000000000000
   \              00000000    
   \   000003A8   000000000000       DC8 0, 0, 0, 0, 0, 0, 0, 0, 0, 0, 0, 0, 0, 0, 0, 0
   \              000000000000
   \              00000000    
   \   000003B8   000000000000       DC8 0, 0, 0, 0, 0, 0, 0, 0, 0, 0, 0, 0, 0, 0, 0, 0
   \              000000000000
   \              00000000    
   \   000003C8   000000000000       DC8 0, 0, 0, 0, 0, 0, 0, 0, 0, 0, 0, 0, 0, 0, 0, 0
   \              000000000000
   \              00000000    
   \   000003D8   000000000000       DC8 0, 0, 0, 0, 0, 0, 0, 0, 0, 0, 0, 0, 0, 0, 0, 0
   \              000000000000
   \              00000000    
   \   000003E8   000000000000       DC8 0, 0, 0, 0, 0, 0, 0, 0, 0, 0, 0, 0, 0, 0, 0, 0
   \              000000000000
   \              00000000    
   \   000003F8   000000000000       DC8 0, 0, 0, 0, 0, 0, 0, 0, 0, 0, 0, 0, 0, 0, 0, 0
   \              000000000000
   \              00000000    
   \   00000408   000000000000       DC8 0, 0, 0, 0, 0, 0, 0, 0, 0, 0, 0, 0, 0, 0, 0, 0
   \              000000000000
   \              00000000    
   \   00000418   000000000000       DC8 0, 0, 0, 0, 0, 0, 0, 0, 0, 0, 0, 0, 0, 0, 0, 0
   \              000000000000
   \              00000000    
   \   00000428   000000000000       DC8 0, 0, 0, 0, 0, 0, 0, 0, 0, 0, 0, 0, 0, 0, 0, 0
   \              000000000000
   \              00000000    
   \   00000438   000000000000       DC8 0, 0, 0, 0, 0, 0, 0, 0, 0, 0, 0, 0, 0, 0, 0, 0
   \              000000000000
   \              00000000    
   \   00000448   000000000000       DC8 0, 0, 0, 0, 0, 0, 0, 0, 0, 0, 0, 0, 0, 0, 0, 0
   \              000000000000
   \              00000000    
   \   00000458   000000000000       DC8 0, 0, 0, 0, 0, 0, 0, 0, 0, 0, 0, 0, 0, 0, 0, 0
   \              000000000000
   \              00000000    

   \                                 In segment DATA_ID, align 4, align-sorted
   \                     `?<Initializer for cfg_time1_off>`:
   \   00000000   17000000           DC8 23, 0, 0, 0

   \                                 In segment DATA_ID, align 4, align-sorted
   \                     `?<Initializer for cfg_time2_on>`:
   \   00000000   061E0000           DC8 6, 30, 0, 0

   \                                 In segment DATA_ID, align 4, align-sorted
   \                     `?<Initializer for cfg_time2_off>`:
   \   00000000   17000000           DC8 23, 0, 0, 0

   \                                 In segment DATA_C, align 4, align-sorted
   \                     `?<Constant {'\\000', '\\000', '\\000', '\\000'}>`:
   \   00000000   00000000           DC8 0, 0, 0, 0
   \   00000004   450072007200       DC8 45H, 0, 72H, 0, 72H, 0, 6FH, 0
   \              6F00        
   \   0000000C   720021000A00       DC8 72H, 0, 21H, 0, 0AH, 0, 25H, 0
   \              2500        
   \   00000014   73000000           DC8 73H, 0, 0, 0
   \   00000018   4F4E5F54494D       DC8 "ON_TIME2==OFF_TIME2"
   \              45323D3D4F46
   \              465F54494D45
   \              3200        
   \   0000002C   4F4E5F54494D       DC8 "ON_TIME1==OFF_TIME1"
   \              45313D3D4F46
   \              465F54494D45
   \              3100        
   \   00000040   5052455F5449       DC8 "PRE_TIME < CHECK"
   \              4D45203C2043
   \              4845434B00  
   \   00000051   000000             DC8 0, 0, 0
   \   00000054   C7E2F3EAEEE2       DC8 "   !"
   \              EEE920F4E0E9
   \              EB20EDE520ED
   \              E0E9E4E5ED21
   \              00          
   \   0000006D   000000             DC8 0, 0, 0

   \                                 In segment DATA_C, align 4, align-sorted
   \                     `?<Constant "VIDEO">`:
   \   00000000   564944454F00       DC8 "VIDEO"
   \   00000006   0000               DC8 0, 0

   \                                 In segment DATA_C, align 4, align-sorted
   \                     `?<Constant "IMAGE">`:
   \   00000000   494D41474500       DC8 "IMAGE"
   \   00000006   0000               DC8 0, 0

   \                                 In segment DATA_C, align 4, align-sorted
   \                     `?<Constant "AUDIO">`:
   \   00000000   415544494F00       DC8 "AUDIO"
   \   00000006   0000               DC8 0, 0

   \                                 In segment DATA_C, align 4, align-sorted
   \                     `?<Constant L"\\x4d\\x69\\x73\\x73\\x65\\x64\\x20\\x45\\`:
   \   00000000   4D0069007300       DC8 4DH, 0, 69H, 0, 73H, 0, 73H, 0
   \              7300        
   \   00000008   650064002000       DC8 65H, 0, 64H, 0, 20H, 0, 45H, 0
   \              4500        
   \   00000010   760065006E00       DC8 76H, 0, 65H, 0, 6EH, 0, 74H, 0
   \              7400        
   \   00000018   73000A007600       DC8 73H, 0, 0AH, 0, 76H, 0, 32H, 0
   \              3200        
   \   00000020   2E0033000A00       DC8 2EH, 0, 33H, 0, 0AH, 0, 62H, 0
   \              6200        
   \   00000028   790020006400       DC8 79H, 0, 20H, 0, 64H, 0, 65H, 0
   \              6500        
   \   00000030   6E005F007000       DC8 6EH, 0, 5FH, 0, 70H, 0, 6FH, 0
   \              6F00        
   \   00000038   0A000A004D00       DC8 0AH, 0, 0AH, 0, 4DH, 0, 6FH, 0
   \              6F00        
   \   00000040   640073003A00       DC8 64H, 0, 73H, 0, 3AH, 0, 20H, 0
   \              2000        
   \   00000048   50006C006F00       DC8 50H, 0, 6CH, 0, 6FH, 0, 69H, 0
   \              6900        
   \   00000050   6B0020002600       DC8 6BH, 0, 20H, 0, 26H, 0, 20H, 0
   \              2000        
   \   00000058   420069006700       DC8 42H, 0, 69H, 0, 67H, 0, 48H, 0
   \              4800        
   \   00000060   650072006300       DC8 65H, 0, 72H, 0, 63H, 0, 75H, 0
   \              7500        
   \   00000068   6C0065007300       DC8 6CH, 0, 65H, 0, 73H, 0, 0, 0
   \              0000        

   \                                 In segment DATA_C, align 4, align-sorted
   \                     `?<Constant "%%%s_EXT%%">`:
   \   00000000   252525735F45       DC8 "%%%s_EXT%%"
   \              5854252500  
   \   0000000B   00                 DC8 0
   \   0000000C   252525735F49       DC8 "%%%s_INT%%"
   \              4E54252500  
   \   00000017   00                 DC8 0

   \                                 In segment DATA_C, align 4, align-sorted
   \                     `?<Constant "MissedEvents_base_page">`:
   \   00000000   4D6973736564       DC8 "MissedEvents_base_page"
   \              4576656E7473
   \              5F626173655F
   \              7061676500  
   \   00000017   00                 DC8 0

   \                                 In segment DATA_C, align 4, align-sorted
   \                     `?<Constant "INI">`:
   \   00000000   494E4900           DC8 "INI"

   \                                 In segment DATA_C, align 4, align-sorted
   \                     `?<Constant "ELFS_CONFIG">`:
   \   00000000   454C46535F43       DC8 "ELFS_CONFIG"
   \              4F4E46494700

   \                                 In segment DATA_C, align 4, align-sorted
   \                     `?<Constant "ELFS_DAEMONS">`:
   \   00000000   454C46535F44       DC8 "ELFS_DAEMONS"
   \              41454D4F4E53
   \              00          
   \   0000000D   000000             DC8 0, 0, 0

   \                                 In segment DATA_C, align 4, align-sorted
   \                     `?<Constant "ELFS">`:
   \   00000000   454C465300         DC8 "ELFS"
   \   00000005   000000             DC8 0, 0, 0

   \                                 In segment DATA_C, align 4, align-sorted
   \                     `?<Constant "OTHER">`:
   \   00000000   4F5448455200       DC8 "OTHER"
   \   00000006   0000               DC8 0, 0

   \                                 In segment DATA_C, align 4, align-sorted
   \                     `?<Constant "THEME">`:
   \   00000000   5448454D4500       DC8 "THEME"
   \   00000006   0000               DC8 0, 0
    565          
    566          /*
    567            Revision history
    568            2.3
    569               +    
    570            2.2
    571               +   AudioControl_Init
    572               +   .
    573            2.1
    574               +   
    575            2.0.9
    576               +   AudioControl_Vibrate  Vibra
    577            2.0.7
    578               +  //
    579            2.0.6
    580              +     .
    581              +         
    582                        .
    583                   ,      ,
    584                       ,    .
    585              +   .
    586            2.0.5
    587              +      .
    588            2.0.4
    589              +       ,    .
    590            2.0.3
    591              +     .
    592              +    W580
    593            2.0.2
    594              +    ,      .
    595            2.0.1
    596              +     .
    597              +  
    598              +  
    599              +    . (   Release_en)
    600            2.0
    601              +   bcfg
    602          
    603          */

   Maximum stack usage in bytes:

     Function                       CSTACK
     --------                       ------
     OnCallManagerEvent(void *, BOOK *)
                                        0
     UpdateParams()                   588
     atoi(char const *)                 4
     bookOnDestroy(BOOK *)              8
     elf_exit()                         4
     extractdir(wchar_t *, wchar_t *, char const *)
                                      576
     isMissedEventsBook(BOOK *)         4
     main(wchar_t *)                   36
     offModeTimer(u16, LPARAM)          0
     offTimerFlash(u16, LPARAM)         8
     offTimerLED(u16, LPARAM)          40
     offTimerREDLED(u16, LPARAM)       12
     offTimerScreen(u16, LPARAM)       12
     onAbout(void *, BOOK *)           20
     onExit(void *, BOOK *)             4
     onReconfigElf(void *, BOOK *)     12
     onTimer(u16, LPARAM)              52
     onTimerFlash(u16, LPARAM)          8
     onTimerLED(u16, LPARAM)           48
     onTimerREDLED(u16, LPARAM)        16
     onTimerScreen(u16, LPARAM)         8
     splitfilename(wchar_t *, wchar_t *, wchar_t *)
                                       24
     str2int(char *)                    4
     timecmp(TIME const *, TIME const *)
                                        0


   Segment part sizes:

     Function/Label                 Bytes
     --------------                 -----
     atoi(char const *)              144
     str2int(char *)                 196
     splitfilename(wchar_t *, wchar_t *, wchar_t *)
                                      80
     cfgmacro                         72
     extractdir(wchar_t *, wchar_t *, char const *)
                                     256
     cfg_time1_on                   1128
     cfg_time1_off                     4
     cfg_time2_on                      4
     cfg_time2_off                     4
     timecmp(TIME const *, TIME const *)
                                      72
     onTimerREDLED(u16, LPARAM)      100
     onTimerLED(u16, LPARAM)         372
     onTimerFlash(u16, LPARAM)        96
     onTimerScreen(u16, LPARAM)       64
     offTimerREDLED(u16, LPARAM)      52
     offTimerLED(u16, LPARAM)        208
     offTimerFlash(u16, LPARAM)       44
     offTimerScreen(u16, LPARAM)      60
     offModeTimer(u16, LPARAM)        20
     onTimer(u16, LPARAM)           1608
     UpdateParams()                  552
     elf_exit()                       28
     bookOnDestroy(BOOK *)           232
     onExit(void *, BOOK *)           20
     onAbout(void *, BOOK *)          84
     OnCallManagerEvent(void *, BOOK *)
                                      56
     onReconfigElf(void *, BOOK *)    88
     evtlist                          40
     ?<Constant L"\x4d\x69\x73\x73\x65\x64\x45\x76\
                                      64
     isMissedEventsBook(BOOK *)       44
     main(wchar_t *)                 416
     ??DataTable1                      4
     ??DataTable16                     4
     ??DataTable19                     4
     ??DataTable27                     4
     ??DataTable28                     4
     ??DataTable29                     4
     ??DataTable30                     4
     ??DataTable31                     4
     ??DataTable32                     4
     ??DataTable34                     4
     ??DataTable35                     4
     ??DataTable36                     4
     ??DataTable37                     4
     ??DataTable38                     4
     ??DataTable39                     4
     ??DataTable43                     4
     ??DataTable44                     4
     ??DataTable45                     4
     ??DataTable46                     4
     ??DataTable47                     4
     ?<Initializer for cfgmacro>      72
     ?<Initializer for cfg_time1_on>
                                    1128
     ?<Initializer for cfg_time1_off>
                                       4
     ?<Initializer for cfg_time2_on>
                                       4
     ?<Initializer for cfg_time2_off>
                                       4
     ?<Constant {'\000', '\000', '\000', '\000'}>
                                     112
     ?<Constant "VIDEO">               8
     ?<Constant "IMAGE">               8
     ?<Constant "AUDIO">               8
     ?<Constant L"\x4d\x69\x73\x73\x65\x64\x20\x45\
                                     112
     ?<Constant "%%%s_EXT%%">         24
     ?<Constant "MissedEvents_base_page">
                                      24
     ?<Constant "INI">                 4
     ?<Constant "ELFS_CONFIG">        12
     ?<Constant "ELFS_DAEMONS">       16
     ?<Constant "ELFS">                8
     ?<Constant "OTHER">               8
     ?<Constant "THEME">               8
      Others                         156

 
 5 116 bytes in segment CODE
   416 bytes in segment DATA_C
 1 212 bytes in segment DATA_I
 1 212 bytes in segment DATA_ID
    40 bytes in segment DYN_PAGE
    12 bytes in segment INITTAB
 
 4 972 bytes of CODE  memory (+ 156 bytes shared)
 1 668 bytes of CONST memory
 1 212 bytes of DATA  memory

Errors: none
Warnings: none
