##############################################################################
#                                                                            #
# IAR ARM ANSI C/C++ Compiler V4.42A/W32 EVALUATION    10/Jun/2013  22:51:20 #
# Copyright 1999-2005 IAR Systems. All rights reserved.                      #
#                                                                            #
#    Cpu mode        =  interwork                                            #
#    Endian          =  little                                               #
#    Stack alignment =  4                                                    #
#    Source file     =  Z:\home\perk11\www\perk11.info\svn\SE\SoftEdit\book. #
#                       cpp                                                  #
#    Command line    =  Z:\home\perk11\www\perk11.info\svn\SE\SoftEdit\book. #
#                       cpp -D NDEBUG -lC Z:\home\perk11\www\perk11.info\svn #
#                       \SE\SoftEdit\Release\List\ -o                        #
#                       Z:\home\perk11\www\perk11.info\svn\SE\SoftEdit\Relea #
#                       se\Obj\ -s9 --cpu_mode arm --endian little --cpu     #
#                       ARM926EJ-S --stack_align 4 --interwork -e --fpu      #
#                       None --eec++ --dlib_config                           #
#                       Z:\home\perk11\IAR2\arm\LIB\dl5tpainl8n.h -I         #
#                       Z:\home\perk11\IAR2\arm\INC\ --inline_threshold=2    #
#    List file       =  Z:\home\perk11\www\perk11.info\svn\SE\SoftEdit\Relea #
#                       se\List\book.lst                                     #
#    Object file     =  Z:\home\perk11\www\perk11.info\svn\SE\SoftEdit\Relea #
#                       se\Obj\book.r79                                      #
#                                                                            #
#                                                                            #
##############################################################################

Z:\home\perk11\www\perk11.info\svn\SE\SoftEdit\book.cpp
      1          #include "..\\include\Lib_Clara.h" 
      2          #include "..\\include\Dir.h" 
      3          #include "header\structs.h"
      4          #include "header\extern.h"
      5          #include "revision.h"
      6          int isSBook(BOOK *);
      7          void destroylists();
      8          #define SID_NULL 0x6FFFFFFF
      9          

   \                                 In segment CODE, align 4, keep-with-next
     10          int isSBook(BOOK *bk)
     11          {
     12            if (strcmp(bk->xbook->name,"Softkeys")==0)return 1;
   \                     ??isSBook:
   \   00000000   20109FE5           LDR      R1,??isSBook_1   ;; `?<Constant "Softkeys">`
   \   00000004   00402DE9           PUSH     {LR}
   \   00000008   000090E5           LDR      R0,[R0, #+0]
   \   0000000C   040090E5           LDR      R0,[R0, #+4]
   \   00000010   590100EF           SWI      +345
   \   00000014   000050E3           CMP      R0,#+0
   \   00000018   0100A003           MOVEQ    R0,#+1
   \   0000001C   0080BD08           POPEQ    {PC}
     13           return 0;
   \   00000020   0000A0E3           MOV      R0,#+0
   \   00000024   0080BDE8           POP      {PC}             ;; return
   \                     ??isSBook_1:
   \   00000028   ........           DC32     `?<Constant "Softkeys">`
     14          }
     15          

   \                                 In segment CODE, align 4, keep-with-next
     16          int isSoftEditBook(BOOK *bk)
     17          {
     18            if (strcmp(bk->xbook->name,"SoftEdit")==0)return 1;
   \                     ??isSoftEditBook:
   \   00000000   ........           LDR      R1,??DataTable1  ;; `?<Constant "SoftEdit">`
   \   00000004   00402DE9           PUSH     {LR}
   \   00000008   000090E5           LDR      R0,[R0, #+0]
   \   0000000C   040090E5           LDR      R0,[R0, #+4]
   \   00000010   590100EF           SWI      +345
   \   00000014   000050E3           CMP      R0,#+0
   \   00000018   0100A003           MOVEQ    R0,#+1
   \   0000001C   0080BD08           POPEQ    {PC}
     19            return 0;
   \   00000020   0000A0E3           MOV      R0,#+0
   \   00000024   0080BDE8           POP      {PC}             ;; return
     20          };
     21          

   \                                 In segment CODE, align 4, keep-with-next
     22          void elf_exit(void)
     23          {
   \                     ??elf_exit:
   \   00000000   00402DE9           PUSH     {LR}
     24            kill_data(&ELF_BEGIN, (void(*)(void*))mfree_adr());
   \   00000004   048100EF           SWI      +33028
   \   00000008   0010A0E1           MOV      R1,R0
   \   0000000C   04009FE5           LDR      R0,??elf_exit_1  ;; ELF_BEGIN
   \   00000010   0040BDE8           POP      {LR}             ;; Pop
   \   00000014   ........           _BF      kill_data,??kill_data??rA  ;; tailcall
   \                     ??elf_exit_1:
   \   00000018   ........           DC32     ELF_BEGIN
     25          };
     26          

   \                                 In segment CODE, align 4, keep-with-next
     27          static void onMyBookClose(BOOK * book)
     28          {
     29            SKBOOK *sk=(SKBOOK*)FindBook(isSBook);
   \                     ??onMyBookClose:
   \   00000000   38009FE5           LDR      R0,??onMyBookClose_1  ;; ??isSBook
   \   00000004   00402DE9           PUSH     {LR}
   \   00000008   300100EF           SWI      +304
   \   0000000C   0010B0E1           MOVS     R1,R0
     30            if (sk)
   \   00000010   0600000A           BEQ      ??onMyBookClose_2
     31            {
     32              if (sk->version==VERSION_)
   \   00000014   380091E5           LDR      R0,[R1, #+56]
   \   00000018   24209FE5           LDR      R2,??onMyBookClose_1+0x4  ;; 0xaaaa01
   \   0000001C   020050E1           CMP      R0,R2
   \   00000020   0200001A           BNE      ??onMyBookClose_2
     33              {
     34                sk->SetWorkState(true);
   \   00000024   341091E5           LDR      R1,[R1, #+52]
   \   00000028   0100A0E3           MOV      R0,#+1
   \   0000002C   31FF2FE1           BLX      R1
     35              }
     36            }
     37            destroylists();
   \                     ??onMyBookClose_2:
   \   00000030   ........           _BLF     ??destroylists,??destroylists??rA
     38            SUBPROC(elf_exit);
   \   00000034   0C009FE5           LDR      R0,??onMyBookClose_1+0x8  ;; ??elf_exit
   \   00000038   080100EF           SWI      +264
     39          };
   \   0000003C   0080BDE8           POP      {PC}             ;; return
   \                     ??onMyBookClose_1:
   \   00000040   ........           DC32     ??isSBook
   \   00000044   01AAAA00           DC32     0xaaaa01
   \   00000048   ........           DC32     ??elf_exit
     40          

   \                                 In segment CODE, align 4, keep-with-next
     41          static int TerminateElf(void *mess ,BOOK *book)
     42          {
   \                     ??TerminateElf:
   \   00000000   00402DE9           PUSH     {LR}
   \   00000004   0100A0E1           MOV      R0,R1
     43            FreeBook(book);
   \   00000008   2F0100EF           SWI      +303
     44            return(1);
   \   0000000C   0100A0E3           MOV      R0,#+1
   \   00000010   0080BDE8           POP      {PC}             ;; return
     45          };
     46          

   \                                 In segment CODE, align 4, keep-with-next
     47          static int ShowAuthorInfo(void *mess ,BOOK *book)
     48          {
     49            MSG * msg = (MSG *)mess;
     50            wchar_t text[100];
     51            snwprintf(text,99,L"SoftEdit\n© UltraShot\n\nrevision %d", __SVN_REVISION__ );
   \                     ??ShowAuthorInfo:
   \   00000000   68209FE5           LDR      R2,??ShowAuthorInfo_1  ;; `?<Constant L"\\x53\\x6f\\x66\\x74\\x45\\x64\\x69\\x74\\`
   \   00000004   30402DE9           PUSH     {R4,R5,LR}
   \   00000008   C8D04DE2           SUB      SP,SP,#+200
   \   0000000C   0040A0E1           MOV      R4,R0
   \   00000010   5530A0E3           MOV      R3,#+85
   \   00000014   E03E83E3           ORR      R3,R3,#0xE00
   \   00000018   6310A0E3           MOV      R1,#+99
   \   0000001C   0D00A0E1           MOV      R0,SP
   \   00000020   150100EF           SWI      +277
     52            MessageBox(SID_NULL,TextID_Create(text,ENC_UCS2,TEXTID_ANY_LEN), NOIMAGE, 1, 5000,msg->book);
   \   00000024   FF50A0E3           MOV      R5,#+255
   \   00000028   FF5C85E3           ORR      R5,R5,#0xFF00
   \   0000002C   0520A0E1           MOV      R2,R5
   \   00000030   0010A0E3           MOV      R1,#+0
   \   00000034   0D00A0E1           MOV      R0,SP
   \   00000038   5D0100EF           SWI      +349
   \   0000003C   001094E5           LDR      R1,[R4, #+0]
   \   00000040   0130A0E3           MOV      R3,#+1
   \   00000044   02002DE9           PUSH     {R1}
   \   00000048   0520A0E1           MOV      R2,R5
   \   0000004C   8810A0E3           MOV      R1,#+136
   \   00000050   4C1D81E3           ORR      R1,R1,#0x1300
   \   00000054   02002DE9           PUSH     {R1}
   \   00000058   0010A0E1           MOV      R1,R0
   \   0000005C   9004E0E3           MVN      R0,#-1879048192
   \   00000060   570200EF           SWI      +599
     53            return(1);
   \   00000064   0100A0E3           MOV      R0,#+1
   \   00000068   D0D08DE2           ADD      SP,SP,#+208
   \   0000006C   3080BDE8           POP      {R4,R5,PC}       ;; return
   \                     ??ShowAuthorInfo_1:
   \   00000070   ........           DC32     `?<Constant L"\\x53\\x6f\\x66\\x74\\x45\\x64\\x69\\x74\\`
     54          };
     55          

   \                                 In segment DYN_PAGE, align 4, align-sorted
     56          const PAGE_MSG bk_msglst_base[] @ "DYN_PAGE"  =
   \                     bk_msglst_base:
   \   00000000   E5030000....       DC32 997, ??TerminateElf, 998, ??ShowAuthorInfo, 64, 0H
   \              ....E6030000
   \              ........4000
   \              000000000000
     57          {
     58            ELF_TERMINATE_EVENT,     TerminateElf,
     59            ELF_SHOW_INFO_EVENT,     ShowAuthorInfo,
     60            NIL_EVENT_TAG,           NULL
     61          };
     62          

   \                                 In segment DATA_C, align 4, align-sorted
   \                     `?<Constant "SoftEdit">`:
   \   00000000   536F66744564       DC8 "SoftEdit"
   \              697400      
   \   00000009   000000             DC8 0, 0, 0
   \   0000000C   ........0000       DC32 `?<Constant "SoftEdit_Base_Page">`, 0H, bk_msglst_base
   \              0000........
     63          const PAGE_DESC bk_base = {"SoftEdit_Base_Page",0,bk_msglst_base};
     64          

   \                                 In segment CODE, align 4, keep-with-next
     65          MyBOOK *CreateOurBook()
     66          {
   \                     ??CreateOurBook:
   \   00000000   10402DE9           PUSH     {R4,LR}
     67            MyBOOK * myBook=new MyBOOK;
   \   00000004   4800A0E3           MOV      R0,#+72
   \   00000008   ........           _BLF     `??operator new`,`??operator new??rA`
   \   0000000C   0040A0E1           MOV      R4,R0
     68            memset(myBook,0,sizeof(MyBOOK));
   \   00000010   4820A0E3           MOV      R2,#+72
   \   00000014   0010A0E3           MOV      R1,#+0
   \   00000018   120100EF           SWI      +274
     69            if (!CreateBook(&myBook->book,onMyBookClose,&bk_base,"SoftEdit",-1,0))
   \   0000001C   ........           LDR      R0,??DataTable1  ;; `?<Constant "SoftEdit">`
   \   00000020   0010A0E3           MOV      R1,#+0
   \   00000024   02002DE9           PUSH     {R1}
   \   00000028   0030A0E1           MOV      R3,R0
   \   0000002C   0C2080E2           ADD      R2,R0,#+12
   \   00000030   0400A0E1           MOV      R0,R4
   \   00000034   0110E0E1           MVN      R1,R1
   \   00000038   02002DE9           PUSH     {R1}
   \   0000003C   1C109FE5           LDR      R1,??CreateOurBook_1  ;; ??onMyBookClose
   \   00000040   2B0100EF           SWI      +299
   \   00000044   000050E3           CMP      R0,#+0
   \   00000048   08D08DE2           ADD      SP,SP,#+8
   \   0000004C   0400A0E1           MOV      R0,R4
   \   00000050   1080BD18           POPNE    {R4,PC}
     70            {
     71              delete(myBook);
   \   00000054   ........           _BLF     `??operator delete`,`??operator delete??rA`
     72              return 0;
   \   00000058   0000A0E3           MOV      R0,#+0
   \   0000005C   1080BDE8           POP      {R4,PC}
   \                     ??CreateOurBook_1:
   \   00000060   ........           DC32     ??onMyBookClose
     73            }
     74            return myBook;
     75          };

   \                                 In segment CODE, align 4, keep-with-next
   \                     ??DataTable1:
   \   00000000   ........           DC32     `?<Constant "SoftEdit">`

   \                                 In segment DATA_C, align 4, align-sorted
   \                     `?<Constant "SoftEdit_Base_Page">`:
   \   00000000   536F66744564       DC8 "SoftEdit_Base_Page"
   \              69745F426173
   \              655F50616765
   \              00          
   \   00000013   00                 DC8 0

   \                                 In segment DATA_C, align 4, align-sorted
   \                     `?<Constant "Softkeys">`:
   \   00000000   536F66746B65       DC8 "Softkeys"
   \              797300      
   \   00000009   000000             DC8 0, 0, 0

   \                                 In segment DATA_C, align 4, align-sorted
   \                     `?<Constant L"\\x53\\x6f\\x66\\x74\\x45\\x64\\x69\\x74\\`:
   \   00000000   53006F006600       DC8 53H, 0, 6FH, 0, 66H, 0, 74H, 0
   \              7400        
   \   00000008   450064006900       DC8 45H, 0, 64H, 0, 69H, 0, 74H, 0
   \              7400        
   \   00000010   0A00A9002000       DC8 0AH, 0, 0A9H, 0, 20H, 0, 55H, 0
   \              5500        
   \   00000018   6C0074007200       DC8 6CH, 0, 74H, 0, 72H, 0, 61H, 0
   \              6100        
   \   00000020   530068006F00       DC8 53H, 0, 68H, 0, 6FH, 0, 74H, 0
   \              7400        
   \   00000028   0A000A007200       DC8 0AH, 0, 0AH, 0, 72H, 0, 65H, 0
   \              6500        
   \   00000030   760069007300       DC8 76H, 0, 69H, 0, 73H, 0, 69H, 0
   \              6900        
   \   00000038   6F006E002000       DC8 6FH, 0, 6EH, 0, 20H, 0, 25H, 0
   \              2500        
   \   00000040   64000000           DC8 64H, 0, 0, 0

   Maximum stack usage in bytes:

     Function                       CSTACK
     --------                       ------
     CreateOurBook()                   16
     ShowAuthorInfo(void *, BOOK *)   220
     TerminateElf(void *, BOOK *)       4
     elf_exit()                         4
     isSBook(BOOK *)                    4
     isSoftEditBook(BOOK *)             4
     onMyBookClose(BOOK *)              4


   Segment part sizes:

     Function/Label                 Bytes
     --------------                 -----
     isSBook(BOOK *)                  44
     isSoftEditBook(BOOK *)           40
     elf_exit()                       28
     onMyBookClose(BOOK *)            76
     TerminateElf(void *, BOOK *)     20
     ShowAuthorInfo(void *, BOOK *)  116
     bk_msglst_base                   24
     ?<Constant "SoftEdit">           24
     CreateOurBook()                 100
     ??DataTable1                      4
     ?<Constant "SoftEdit_Base_Page">
                                      20
     ?<Constant "Softkeys">           12
     ?<Constant L"\x53\x6f\x66\x74\x45\x64\x69\x74\
                                      68
      Others                          76

 
 504 bytes in segment CODE
 124 bytes in segment DATA_C
  24 bytes in segment DYN_PAGE
 
 428 bytes of CODE  memory (+ 76 bytes shared)
 148 bytes of CONST memory

Errors: none
Warnings: none
