##############################################################################
#                                                                            #
# IAR ARM ANSI C/C++ Compiler V4.42A/W32 EVALUATION    10/Jun/2013  22:51:51 #
# Copyright 1999-2005 IAR Systems. All rights reserved.                      #
#                                                                            #
#    Cpu mode        =  interwork                                            #
#    Endian          =  little                                               #
#    Stack alignment =  4                                                    #
#    Source file     =  Z:\home\perk11\www\perk11.info\svn\SE\SoftEdit\menu. #
#                       cpp                                                  #
#    Command line    =  Z:\home\perk11\www\perk11.info\svn\SE\SoftEdit\menu. #
#                       cpp -D NDEBUG -lC Z:\home\perk11\www\perk11.info\svn #
#                       \SE\SoftEdit\Release\List\ -o                        #
#                       Z:\home\perk11\www\perk11.info\svn\SE\SoftEdit\Relea #
#                       se\Obj\ -s9 --cpu_mode arm --endian little --cpu     #
#                       ARM926EJ-S --stack_align 4 --interwork -e --fpu      #
#                       None --eec++ --dlib_config                           #
#                       Z:\home\perk11\IAR2\arm\LIB\dl5tpainl8n.h -I         #
#                       Z:\home\perk11\IAR2\arm\INC\ --inline_threshold=2    #
#    List file       =  Z:\home\perk11\www\perk11.info\svn\SE\SoftEdit\Relea #
#                       se\List\menu.lst                                     #
#    Object file     =  Z:\home\perk11\www\perk11.info\svn\SE\SoftEdit\Relea #
#                       se\Obj\menu.r79                                      #
#                                                                            #
#                                                                            #
##############################################################################

Z:\home\perk11\www\perk11.info\svn\SE\SoftEdit\menu.cpp
      1          #include "..\\include\Lib_Clara.h" 
      2          #include "..\\include\Dir.h" 
      3          #include "header\structs.h"
      4          #include "header\extern.h"
      5          #include "..\\include\var_arg.h"
      6          #include "revision.h"
      7          
      8          extern const PAGE_DESC bk_main;
      9          extern const PAGE_DESC bk_keycode_input;
     10          extern const PAGE_DESC bk_StringInput;
     11          extern const PAGE_DESC bk_skin;
     12          
     13          int GetStrID(wchar_t *txt);
     14          int GetIconID(wchar_t *txt);
     15          int onLBMessage(GUI_MESSAGE * msg);
     16          int onLBMessage2(GUI_MESSAGE * msg);
     17          
     18          int isSBook(BOOK *);
     19          int isSoftEditBook(BOOK *bk);
     20          void savecustomcfg(wchar_t *path, wchar_t *name);
     21          void openeditor(BOOK *bk);
     22          
     23          bool smthchanged=false;

   \                                 In segment CODE, align 4, keep-with-next
     24          void TryToUpdate()
     25          {
     26            SKBOOK *sk=(SKBOOK*)FindBook(isSBook);
   \                     ??TryToUpdate:
   \   00000000   2C009FE5           LDR      R0,??TryToUpdate_1  ;; ??isSBook
   \   00000004   00402DE9           PUSH     {LR}
   \   00000008   300100EF           SWI      +304
     27            if (sk)
   \   0000000C   000050E3           CMP      R0,#+0
     28            {
     29              if (sk->upd)
   \   00000010   2C009015           LDRNE    R0,[R0, #+44]
   \   00000014   00005013           CMPNE    R0,#+0
   \   00000018   0080BD08           POPEQ    {PC}
     30              {
     31                elfload((wchar_t const*)sk->upd(),0,0,0);
   \   0000001C   30FF2FE1           BLX      R0
   \   00000020   0030A0E3           MOV      R3,#+0
   \   00000024   0020A0E3           MOV      R2,#+0
   \   00000028   0210A0E1           MOV      R1,R2
   \   0000002C   0D0100EF           SWI      +269
     32              }
     33            }
     34          };
   \   00000030   0080BDE8           POP      {PC}             ;; return
   \                     ??TryToUpdate_1:
   \   00000034   ........           DC32     ??isSBook
     35          

   \                                 In segment CODE, align 4, keep-with-next
     36          void RemoveItem(int index)
     37          {
   \                     ??RemoveItem:
   \   00000000   0010A0E1           MOV      R1,R0
     38            if (!customsofts)return;
   \   00000004   ........           LDR      R0,??DataTable12  ;; customsofts
   \   00000008   30402DE9           PUSH     {R4,R5,LR}
   \   0000000C   000090E5           LDR      R0,[R0, #+0]
   \   00000010   000050E3           CMP      R0,#+0
   \   00000014   3080BD08           POPEQ    {R4,R5,PC}
     39            if (index<customsofts->FirstFree && index>=0)
   \   00000018   B220D0E1           LDRH     R2,[R0, #+2]
   \   0000001C   020051E1           CMP      R1,R2
   \   00000020   3080BDA8           POPGE    {R4,R5,PC}
   \   00000024   000051E3           CMP      R1,#+0
   \   00000028   3080BD48           POPMI    {R4,R5,PC}
     40            {
     41              ITEM *it=(ITEM*)List_RemoveAt(customsofts,index);
   \   0000002C   790100EF           SWI      +377
   \   00000030   0040B0E1           MOVS     R4,R0
     42              if (it)
   \   00000034   3080BD08           POPEQ    {R4,R5,PC}
     43              {
     44                DELETE(it->name);
   \   00000038   000094E5           LDR      R0,[R4, #+0]
   \   0000003C   0050A0E3           MOV      R5,#+0
   \   00000040   000050E3           CMP      R0,#+0
   \   00000044   0100000A           BEQ      ??RemoveItem_1
   \   00000048   ........           _BLF     `??operator delete`,`??operator delete??rA`
   \   0000004C   005084E5           STR      R5,[R4, #+0]
     45                DELETE(it->lsi);
   \                     ??RemoveItem_1:
   \   00000050   040094E5           LDR      R0,[R4, #+4]
   \   00000054   000050E3           CMP      R0,#+0
   \   00000058   0100000A           BEQ      ??RemoveItem_2
   \   0000005C   ........           _BLF     `??operator delete`,`??operator delete??rA`
   \   00000060   045084E5           STR      R5,[R4, #+4]
     46                DELETE(it->msi);
   \                     ??RemoveItem_2:
   \   00000064   080094E5           LDR      R0,[R4, #+8]
   \   00000068   000050E3           CMP      R0,#+0
   \   0000006C   0100000A           BEQ      ??RemoveItem_3
   \   00000070   ........           _BLF     `??operator delete`,`??operator delete??rA`
   \   00000074   085084E5           STR      R5,[R4, #+8]
     47                DELETE(it->rsi);
   \                     ??RemoveItem_3:
   \   00000078   0C0094E5           LDR      R0,[R4, #+12]
   \   0000007C   000050E3           CMP      R0,#+0
   \   00000080   0100000A           BEQ      ??RemoveItem_4
   \   00000084   ........           _BLF     `??operator delete`,`??operator delete??rA`
   \   00000088   0C5084E5           STR      R5,[R4, #+12]
     48                if (it->keys)
   \                     ??RemoveItem_4:
   \   0000008C   140094E5           LDR      R0,[R4, #+20]
   \   00000090   000050E3           CMP      R0,#+0
   \   00000094   0B00000A           BEQ      ??RemoveItem_5
   \   00000098   040000EA           B        ??RemoveItem_6
     49                {
     50                  while (it->keys->FirstFree)
     51                  {
     52                    KEY *k=(KEY*)List_RemoveAt(it->keys,0);
   \                     ??RemoveItem_7:
   \   0000009C   0010A0E3           MOV      R1,#+0
   \   000000A0   790100EF           SWI      +377
     53                    DELETE(k);
   \   000000A4   000050E3           CMP      R0,#+0
   \   000000A8   0000000A           BEQ      ??RemoveItem_6
   \   000000AC   ........           _BLF     `??operator delete`,`??operator delete??rA`
     54                  }
   \                     ??RemoveItem_6:
   \   000000B0   140094E5           LDR      R0,[R4, #+20]
   \   000000B4   B210D0E1           LDRH     R1,[R0, #+2]
   \   000000B8   000051E3           CMP      R1,#+0
   \   000000BC   F6FFFF1A           BNE      ??RemoveItem_7
     55                  List_Destroy(it->keys);
   \   000000C0   6A0100EF           SWI      +362
     56                  it->keys=0;
   \   000000C4   145084E5           STR      R5,[R4, #+20]
     57                }
     58                DELETE(it);
   \                     ??RemoveItem_5:
   \   000000C8   0400A0E1           MOV      R0,R4
   \   000000CC   ........           _BLF     `??operator delete`,`??operator delete??rA`
   \   000000D0   3080BDE8           POP      {R4,R5,PC}       ;; return
     59              }
     60            }
     61          };
     62          

   \                                 In segment CODE, align 4, keep-with-next
     63          void OnDelGui( BOOK* bk, GUI* )
     64          {
   \                     ??OnDelGui:
   \   00000000   F0412DE9           PUSH     {R4-R8,LR}
   \   00000004   04D04DE2           SUB      SP,SP,#+4
     65            MyBOOK *mbk=(MyBOOK *)bk;
     66            int item=ListMenu_GetSelectedItem(mbk->lst);
     67            if (mbk->curit==0)
   \   00000008   ........           LDR      R5,??DataTable11  ;; `?<Constant L"\\x44\\x45\\x46\\x41\\x55\\x4c\\x54">`
   \   0000000C   0040A0E1           MOV      R4,R0
   \   00000010   1C0094E5           LDR      R0,[R4, #+28]
   \   00000014   3E0100EF           SWI      +318
   \   00000018   0060A0E1           MOV      R6,R0
   \   0000001C   280094E5           LDR      R0,[R4, #+40]
   \   00000020   000050E3           CMP      R0,#+0
   \   00000024   2500001A           BNE      ??OnDelGui_1
     68            {
     69              mbk->main_lastindex=item;   
     70              if (customsofts)
   \   00000028   ........           LDR      R7,??DataTable12  ;; customsofts
   \   0000002C   306084E5           STR      R6,[R4, #+48]
   \   00000030   000097E5           LDR      R0,[R7, #+0]
   \   00000034   000050E3           CMP      R0,#+0
   \   00000038   1400000A           BEQ      ??OnDelGui_2
     71              {
     72                ITEM *it=(ITEM*)List_Get(customsofts,item);
   \   0000003C   0610A0E1           MOV      R1,R6
   \   00000040   AD0100EF           SWI      +429
   \   00000044   0080A0E1           MOV      R8,R0
     73                if (item>=0 && item<(customsofts->FirstFree))
   \   00000048   000056E3           CMP      R6,#+0
   \   0000004C   0F00004A           BMI      ??OnDelGui_2
   \   00000050   000097E5           LDR      R0,[R7, #+0]
   \   00000054   B200D0E1           LDRH     R0,[R0, #+2]
   \   00000058   000056E1           CMP      R6,R0
   \   0000005C   0B0000AA           BGE      ??OnDelGui_2
     74                {
     75                  if (wstrcmp(it->name,L"DEFAULT") && wstrcmp(it->name,L"StandbyBook"))
   \   00000060   000098E5           LDR      R0,[R8, #+0]
   \   00000064   0510A0E1           MOV      R1,R5
   \   00000068   560100EF           SWI      +342
   \   0000006C   000050E3           CMP      R0,#+0
   \   00000070   0600000A           BEQ      ??OnDelGui_2
   \   00000074   000098E5           LDR      R0,[R8, #+0]
   \   00000078   101085E2           ADD      R1,R5,#+16
   \   0000007C   560100EF           SWI      +342
   \   00000080   000050E3           CMP      R0,#+0
   \   00000084   0100000A           BEQ      ??OnDelGui_2
     76                  {
     77                    RemoveItem(item);
   \   00000088   0600A0E1           MOV      R0,R6
   \   0000008C   ........           BL       ??RemoveItem
     78                  }
     79                }
     80              }
     81              ListMenu_SetItemCount(mbk->lst,customsofts->FirstFree+1);
   \                     ??OnDelGui_2:
   \   00000090   000097E5           LDR      R0,[R7, #+0]
   \   00000094   B200D0E1           LDRH     R0,[R0, #+2]
   \   00000098   011080E2           ADD      R1,R0,#+1
   \   0000009C   1C0094E5           LDR      R0,[R4, #+28]
   \   000000A0   C10100EF           SWI      +449
     82              BookObj_Hide(bk,0);
   \   000000A4   0010A0E3           MOV      R1,#+0
   \   000000A8   0400A0E1           MOV      R0,R4
   \   000000AC   710100EF           SWI      +369
     83              BookObj_Show(bk,0);
   \   000000B0   0010A0E3           MOV      R1,#+0
   \   000000B4   0400A0E1           MOV      R0,R4
   \   000000B8   720100EF           SWI      +370
     84              smthchanged=true;
   \   000000BC   7C0000EA           B        ??OnDelGui_3
     85            }
     86            else
     87            {
     88              mbk->opt_lastindex=item;
   \                     ??OnDelGui_1:
   \   000000C0   346084E5           STR      R6,[R4, #+52]
     89              if (item==0)
   \   000000C4   FF70A0E3           MOV      R7,#+255
   \   000000C8   FF7C87E3           ORR      R7,R7,#0xFF00
   \   000000CC   0080A0E3           MOV      R8,#+0
   \   000000D0   000056E3           CMP      R6,#+0
   \   000000D4   1C00001A           BNE      ??OnDelGui_4
     90              {
     91                if (wstrcmp(mbk->curit->name,L"DEFAULT") && wstrcmp(mbk->curit->name,L"StandbyBook"))
   \   000000D8   000090E5           LDR      R0,[R0, #+0]
   \   000000DC   0510A0E1           MOV      R1,R5
   \   000000E0   560100EF           SWI      +342
   \   000000E4   000050E3           CMP      R0,#+0
   \   000000E8   7100000A           BEQ      ??OnDelGui_3
   \   000000EC   280094E5           LDR      R0,[R4, #+40]
   \   000000F0   101085E2           ADD      R1,R5,#+16
   \   000000F4   000090E5           LDR      R0,[R0, #+0]
   \   000000F8   560100EF           SWI      +342
   \   000000FC   000050E3           CMP      R0,#+0
   \   00000100   6B00000A           BEQ      ??OnDelGui_3
     92                {
     93                  DELETE(mbk->curit->name);
   \   00000104   280094E5           LDR      R0,[R4, #+40]
   \   00000108   000090E5           LDR      R0,[R0, #+0]
   \   0000010C   000050E3           CMP      R0,#+0
   \   00000110   0400000A           BEQ      ??OnDelGui_5
   \   00000114   280094E5           LDR      R0,[R4, #+40]
   \   00000118   000090E5           LDR      R0,[R0, #+0]
   \   0000011C   ........           _BLF     `??operator delete`,`??operator delete??rA`
   \   00000120   280094E5           LDR      R0,[R4, #+40]
   \   00000124   008080E5           STR      R8,[R0, #+0]
     94                  ListMenu_SetItemSecondLineText(mbk->lst,item,TextID_Create(L"-empty-",ENC_UCS2,TEXTID_ANY_LEN));
   \                     ??OnDelGui_5:
   \   00000128   0720A0E1           MOV      R2,R7
   \   0000012C   0010A0E3           MOV      R1,#+0
   \   00000130   280085E2           ADD      R0,R5,#+40
   \   00000134   5D0100EF           SWI      +349
   \   00000138   0020A0E1           MOV      R2,R0
   \   0000013C   0810A0E1           MOV      R1,R8
   \                     ??OnDelGui_6:
   \   00000140   1C0094E5           LDR      R0,[R4, #+28]
   \   00000144   A60200EF           SWI      +678
   \   00000148   590000EA           B        ??OnDelGui_3
     95                }
     96              }
     97              if (item==1)
   \                     ??OnDelGui_4:
   \   0000014C   010056E3           CMP      R6,#+1
   \   00000150   0E00001A           BNE      ??OnDelGui_7
     98              {
     99                DELETE(mbk->curit->lsi);
   \   00000154   040090E5           LDR      R0,[R0, #+4]
   \   00000158   000050E3           CMP      R0,#+0
   \   0000015C   0400000A           BEQ      ??OnDelGui_8
   \   00000160   280094E5           LDR      R0,[R4, #+40]
   \   00000164   040090E5           LDR      R0,[R0, #+4]
   \   00000168   ........           _BLF     `??operator delete`,`??operator delete??rA`
   \   0000016C   280094E5           LDR      R0,[R4, #+40]
   \   00000170   048080E5           STR      R8,[R0, #+4]
    100                ListMenu_SetItemSecondLineText(mbk->lst,item,TextID_Create(L"-empty-",ENC_UCS2,TEXTID_ANY_LEN));
   \                     ??OnDelGui_8:
   \   00000174   0720A0E1           MOV      R2,R7
   \   00000178   0010A0E3           MOV      R1,#+0
   \   0000017C   280085E2           ADD      R0,R5,#+40
   \   00000180   5D0100EF           SWI      +349
   \   00000184   0020A0E1           MOV      R2,R0
   \   00000188   0110A0E3           MOV      R1,#+1
   \   0000018C   EBFFFFEA           B        ??OnDelGui_6
    101              }
    102              if (item==2)
   \                     ??OnDelGui_7:
   \   00000190   020056E3           CMP      R6,#+2
   \   00000194   0E00001A           BNE      ??OnDelGui_9
    103              {
    104                DELETE(mbk->curit->msi);
   \   00000198   080090E5           LDR      R0,[R0, #+8]
   \   0000019C   000050E3           CMP      R0,#+0
   \   000001A0   0400000A           BEQ      ??OnDelGui_10
   \   000001A4   280094E5           LDR      R0,[R4, #+40]
   \   000001A8   080090E5           LDR      R0,[R0, #+8]
   \   000001AC   ........           _BLF     `??operator delete`,`??operator delete??rA`
   \   000001B0   280094E5           LDR      R0,[R4, #+40]
   \   000001B4   088080E5           STR      R8,[R0, #+8]
    105                ListMenu_SetItemSecondLineText(mbk->lst,item,TextID_Create(L"-empty-",ENC_UCS2,TEXTID_ANY_LEN));
   \                     ??OnDelGui_10:
   \   000001B8   0720A0E1           MOV      R2,R7
   \   000001BC   0010A0E3           MOV      R1,#+0
   \   000001C0   280085E2           ADD      R0,R5,#+40
   \   000001C4   5D0100EF           SWI      +349
   \   000001C8   0020A0E1           MOV      R2,R0
   \   000001CC   0210A0E3           MOV      R1,#+2
   \                     ??OnDelGui_11:
   \   000001D0   DAFFFFEA           B        ??OnDelGui_6
    106              }
    107              if (item==3)
   \                     ??OnDelGui_9:
   \   000001D4   030056E3           CMP      R6,#+3
   \   000001D8   0E00001A           BNE      ??OnDelGui_12
    108              {
    109                DELETE(mbk->curit->rsi);
   \   000001DC   0C0090E5           LDR      R0,[R0, #+12]
   \   000001E0   000050E3           CMP      R0,#+0
   \   000001E4   0400000A           BEQ      ??OnDelGui_13
   \   000001E8   280094E5           LDR      R0,[R4, #+40]
   \   000001EC   0C0090E5           LDR      R0,[R0, #+12]
   \   000001F0   ........           _BLF     `??operator delete`,`??operator delete??rA`
   \   000001F4   280094E5           LDR      R0,[R4, #+40]
   \   000001F8   0C8080E5           STR      R8,[R0, #+12]
    110                ListMenu_SetItemSecondLineText(mbk->lst,item,TextID_Create(L"-empty-",ENC_UCS2,TEXTID_ANY_LEN));
   \                     ??OnDelGui_13:
   \   000001FC   0720A0E1           MOV      R2,R7
   \   00000200   0010A0E3           MOV      R1,#+0
   \   00000204   280085E2           ADD      R0,R5,#+40
   \   00000208   5D0100EF           SWI      +349
   \   0000020C   0020A0E1           MOV      R2,R0
   \   00000210   0310A0E3           MOV      R1,#+3
   \   00000214   C9FFFFEA           B        ??OnDelGui_6
    111              }
    112              else if (item==4)
   \                     ??OnDelGui_12:
   \   00000218   040056E3           CMP      R6,#+4
   \   0000021C   0A00001A           BNE      ??OnDelGui_14
    113              {
    114                int icon_id=NOIMAGE;;
   \   00000220   00708DE5           STR      R7,[SP, #+0]
    115                int ids;
    116                mbk->curit->style=0;
   \   00000224   280094E5           LDR      R0,[R4, #+40]
    117                iconidname2id(IDN_CHECKBOX_UNCHECKED_ICON,-1,&icon_id);
   \   00000228   0D20A0E1           MOV      R2,SP
   \   0000022C   108080E5           STR      R8,[R0, #+16]
   \   00000230   0810E0E1           MVN      R1,R8
   \   00000234   380085E2           ADD      R0,R5,#+56
   \   00000238   860200EF           SWI      +646
    118                ids= 0x78000000 + icon_id;
    119                ListMenu_SetItemSecondLineText(mbk->lst,item,ids);
   \   0000023C   00009DE5           LDR      R0,[SP, #+0]
   \   00000240   0410A0E3           MOV      R1,#+4
   \   00000244   782480E2           ADD      R2,R0,#+2013265920
   \   00000248   BCFFFFEA           B        ??OnDelGui_6
    120              }
    121              else if (item>4)
   \                     ??OnDelGui_14:
   \   0000024C   050056E3           CMP      R6,#+5
   \   00000250   170000BA           BLT      ??OnDelGui_3
    122              {
    123                int key=-1;
    124                int index=item-5;
    125                if (mbk->curit->keys==0 && index==0)
   \   00000254   140090E5           LDR      R0,[R0, #+20]
   \   00000258   051046E2           SUB      R1,R6,#+5
   \   0000025C   000050E3           CMP      R0,#+0
   \   00000260   00005103           CMPEQ    R1,#+0
   \   00000264   1200000A           BEQ      ??OnDelGui_3
    126                {
    127                  key=-1;
    128                }
    129                else if (mbk->curit->keys)
   \   00000268   280094E5           LDR      R0,[R4, #+40]
   \   0000026C   140090E5           LDR      R0,[R0, #+20]
   \   00000270   000050E3           CMP      R0,#+0
   \   00000274   0E00000A           BEQ      ??OnDelGui_3
    130                {
    131                  if (mbk->curit->keys->FirstFree==index)
   \   00000278   280094E5           LDR      R0,[R4, #+40]
   \   0000027C   140090E5           LDR      R0,[R0, #+20]
   \   00000280   B200D0E1           LDRH     R0,[R0, #+2]
   \   00000284   010050E1           CMP      R0,R1
    132                  {
    133                    key=-1;
    134                  }
    135                  else
    136                  {
    137                    key=index;
    138                  }
    139                }
    140                if (key!=-1)
   \   00000288   01007113           CMNNE    R1,#+1
   \   0000028C   0800000A           BEQ      ??OnDelGui_3
    141                {
    142                  KEY *k=(KEY*)List_RemoveAt(mbk->curit->keys, key);
   \   00000290   280094E5           LDR      R0,[R4, #+40]
   \   00000294   140090E5           LDR      R0,[R0, #+20]
   \   00000298   790100EF           SWI      +377
    143                  DELETE(k);
   \   0000029C   000050E3           CMP      R0,#+0
   \   000002A0   0000000A           BEQ      ??OnDelGui_15
   \   000002A4   ........           _BLF     `??operator delete`,`??operator delete??rA`
    144                  BookObj_CallPage(bk,&bk_main);
   \                     ??OnDelGui_15:
   \   000002A8   441F85E2           ADD      R1,R5,#+272
   \   000002AC   0400A0E1           MOV      R0,R4
   \   000002B0   B80200EF           SWI      +696
   \                     ??OnDelGui_3:
   \   000002B4   08009FE5           LDR      R0,??OnDelGui_16  ;; g_save + 4
   \   000002B8   0110A0E3           MOV      R1,#+1
   \   000002BC   0010C0E5           STRB     R1,[R0, #+0]
    145                }
    146              }
    147              smthchanged=true;
    148            }
    149          }
   \   000002C0   F181BDE8           POP      {R0,R4-R8,PC}    ;; return
   \                     ??OnDelGui_16:
   \   000002C4   ........           DC32     g_save + 4

   \                                 In segment DATA_Z, align 4, align-sorted
    150          GUI *g_save=0;
   \                     g_save:
   \   00000000                      DS8 4
   \                     smthchanged:
   \   00000004                      DS8 1
    151          

   \                                 In segment CODE, align 4, keep-with-next
    152          void OnYesExitGui( BOOK* bk, GUI* )
    153          {
   \                     ??OnYesExitGui:
   \   00000000   10402DE9           PUSH     {R4,LR}
   \   00000004   0040A0E1           MOV      R4,R0
    154            GUIObject_Destroy(g_save);
   \   00000008   ........           LDR      R0,??DataTable6  ;; g_save
   \   0000000C   000090E5           LDR      R0,[R0, #+0]
   \   00000010   CE0100EF           SWI      +462
    155            savecustomcfg(GetDir(MEM_EXTERNAL+DIR_ELFS_CONFIG), L"AdvSoftkeys.cfg");
   \   00000014   1400A0E3           MOV      R0,#+20
   \   00000018   050100EF           SWI      +261
   \   0000001C   ........           LDR      R1,??DataTable8  ;; `?<Constant L"\\x41\\x64\\x76\\x53\\x6f\\x66\\x74\\x6b\\`
   \   00000020   ........           _BLF     ??savecustomcfg,??savecustomcfg??rA
    156            TryToUpdate();
   \   00000024   ........           BL       ??TryToUpdate
    157            FreeBook(bk);
   \   00000028   0400A0E1           MOV      R0,R4
   \   0000002C   2F0100EF           SWI      +303
    158          };
   \   00000030   1080BDE8           POP      {R4,PC}          ;; return
    159          

   \                                 In segment CODE, align 4, keep-with-next
    160          void OnBackExitGui( BOOK* bk, GUI* )
    161          {
   \                     ??OnBackExitGui:
   \   00000000   10402DE9           PUSH     {R4,LR}
   \   00000004   0040A0E1           MOV      R4,R0
    162            GUIObject_Destroy(g_save);
   \   00000008   ........           LDR      R0,??DataTable6  ;; g_save
   \   0000000C   000090E5           LDR      R0,[R0, #+0]
   \   00000010   CE0100EF           SWI      +462
    163            FreeBook(bk);
   \   00000014   0400A0E1           MOV      R0,R4
   \   00000018   2F0100EF           SWI      +303
    164          };
   \   0000001C   1080BDE8           POP      {R4,PC}          ;; return
    165              

   \                                 In segment CODE, align 4, keep-with-next
    166          void Escape(MyBOOK *mbk, bool save)
    167          {
   \                     ??Escape:
   \   00000000   F0412DE9           PUSH     {R4-R8,LR}
   \   00000004   0040A0E1           MOV      R4,R0
    168            if (mbk->curit==0)
   \   00000008   280094E5           LDR      R0,[R4, #+40]
   \   0000000C   000050E3           CMP      R0,#+0
   \   00000010   3800001A           BNE      ??Escape_1
    169            {
    170              if (smthchanged)
   \   00000014   ........           LDR      R5,??DataTable6  ;; g_save
   \   00000018   0400D5E5           LDRB     R0,[R5, #+4]
   \   0000001C   000050E3           CMP      R0,#+0
   \   00000020   2F00000A           BEQ      ??Escape_2
    171              {
    172                g_save=CreateYesNoQuestionVA(0,
    173                                             VAR_BOOK(&mbk->book),
    174                                             VAR_YESNO_PRE_QUESTION(TextID_Create(L"Options were changed.",ENC_UCS2,TEXTID_ANY_LEN)),
    175                                             VAR_YESNO_QUESTION(TextID_Create(L"Do you want to save?",ENC_UCS2,TEXTID_ANY_LEN)),
    176                                             0);
   \   00000024   F4609FE5           LDR      R6,??Escape_3    ;; `?<Constant L"\\x4f\\x70\\x74\\x69\\x6f\\x6e\\x73\\x20\\`
   \   00000028   FF70A0E3           MOV      R7,#+255
   \   0000002C   FF7C87E3           ORR      R7,R7,#0xFF00
   \   00000030   0720A0E1           MOV      R2,R7
   \   00000034   0010A0E3           MOV      R1,#+0
   \   00000038   2C0086E2           ADD      R0,R6,#+44
   \   0000003C   5D0100EF           SWI      +349
   \   00000040   0080A0E1           MOV      R8,R0
   \   00000044   0720A0E1           MOV      R2,R7
   \   00000048   0010A0E3           MOV      R1,#+0
   \   0000004C   0600A0E1           MOV      R0,R6
   \   00000050   5D0100EF           SWI      +349
   \   00000054   C8309FE5           LDR      R3,??Escape_3+0x4  ;; VAR_ARG_YESNO_PRE_QUESTION
   \   00000058   0010A0E3           MOV      R1,#+0
   \   0000005C   02002DE9           PUSH     {R1}
   \   00000060   C0109FE5           LDR      R1,??Escape_3+0x8  ;; VAR_ARG_YESNO_QUESTION
   \   00000064   00012DE9           PUSH     {R8}
   \   00000068   02002DE9           PUSH     {R1}
   \   0000006C   B8109FE5           LDR      R1,??Escape_3+0xC  ;; VAR_ARG_BOOK
   \   00000070   01002DE9           PUSH     {R0}
   \   00000074   0420A0E1           MOV      R2,R4
    177                GUIObject_SoftKeys_SetAction(g_save,ACTION_YES,OnYesExitGui);
    178                GUIObject_SoftKeys_SetAction(g_save,ACTION_NO,OnBackExitGui);
   \   00000078   B0409FE5           LDR      R4,??Escape_3+0x10  ;; ??OnBackExitGui
   \   0000007C   0000A0E3           MOV      R0,#+0
   \   00000080   A50200EF           SWI      +677
   \   00000084   A8209FE5           LDR      R2,??Escape_3+0x14  ;; ??OnYesExitGui
   \   00000088   000085E5           STR      R0,[R5, #+0]
   \   0000008C   A4009FE5           LDR      R0,??Escape_3+0x18  ;; ACTION_YES
   \   00000090   001090E5           LDR      R1,[R0, #+0]
   \   00000094   000095E5           LDR      R0,[R5, #+0]
   \   00000098   0118A0E1           MOV      R1,R1, LSL #+16
   \   0000009C   2118A0E1           MOV      R1,R1, LSR #+16
   \   000000A0   4B0100EF           SWI      +331
   \   000000A4   90009FE5           LDR      R0,??Escape_3+0x1C  ;; ACTION_NO
   \   000000A8   0420A0E1           MOV      R2,R4
   \   000000AC   001090E5           LDR      R1,[R0, #+0]
   \   000000B0   000095E5           LDR      R0,[R5, #+0]
   \   000000B4   0118A0E1           MOV      R1,R1, LSL #+16
   \   000000B8   2118A0E1           MOV      R1,R1, LSR #+16
   \   000000BC   4B0100EF           SWI      +331
    179                GUIObject_SoftKeys_SetAction(g_save,ACTION_BACK,OnBackExitGui);
   \   000000C0   ........           LDR      R0,??DataTable13  ;; ACTION_BACK
   \   000000C4   0420A0E1           MOV      R2,R4
   \   000000C8   001090E5           LDR      R1,[R0, #+0]
   \   000000CC   000095E5           LDR      R0,[R5, #+0]
   \   000000D0   0118A0E1           MOV      R1,R1, LSL #+16
   \   000000D4   2118A0E1           MOV      R1,R1, LSR #+16
   \   000000D8   4B0100EF           SWI      +331
   \   000000DC   10D08DE2           ADD      SP,SP,#+16
   \   000000E0   F081BDE8           POP      {R4-R8,PC}
    180              }
    181              else
    182              {
    183                GUIObject_Destroy(g_save);
   \                     ??Escape_2:
   \   000000E4   000095E5           LDR      R0,[R5, #+0]
   \   000000E8   CE0100EF           SWI      +462
    184                FreeBook(&mbk->book);
   \   000000EC   0400A0E1           MOV      R0,R4
   \   000000F0   2F0100EF           SWI      +303
   \   000000F4   F081BDE8           POP      {R4-R8,PC}
    185              }
    186            }
    187            else
    188            {
    189              FREE_GUI(mbk->lst);
   \                     ??Escape_1:
   \   000000F8   1C0094E5           LDR      R0,[R4, #+28]
   \   000000FC   000050E3           CMP      R0,#+0
   \   00000100   0200000A           BEQ      ??Escape_4
   \   00000104   CE0100EF           SWI      +462
   \   00000108   1C0084E5           STR      R0,[R4, #+28]
    190              mbk->curit=0;
   \   0000010C   0000A0E3           MOV      R0,#+0
   \                     ??Escape_4:
   \   00000110   280084E5           STR      R0,[R4, #+40]
    191              openeditor(&mbk->book);
   \   00000114   0400A0E1           MOV      R0,R4
   \   00000118   ........           BL       ??openeditor
    192            }
    193          };
   \   0000011C   F081BDE8           POP      {R4-R8,PC}       ;; return
   \                     ??Escape_3:
   \   00000120   ........           DC32     `?<Constant L"\\x4f\\x70\\x74\\x69\\x6f\\x6e\\x73\\x20\\`
   \   00000124   ........           DC32     VAR_ARG_YESNO_PRE_QUESTION
   \   00000128   ........           DC32     VAR_ARG_YESNO_QUESTION
   \   0000012C   ........           DC32     VAR_ARG_BOOK
   \   00000130   ........           DC32     ??OnBackExitGui
   \   00000134   ........           DC32     ??OnYesExitGui
   \   00000138   ........           DC32     ACTION_YES
   \   0000013C   ........           DC32     ACTION_NO
    194          

   \                                 In segment CODE, align 4, keep-with-next
    195          void OnBackGui( BOOK* bk, GUI* )
    196          {
    197            Escape((MyBOOK*)bk, false);
   \                     ??OnBackGui:
   \   00000000   0010A0E3           MOV      R1,#+0
   \   00000004   ........           B        ??Escape         ;; tailcall
    198          };
    199          

   \                                 In segment CODE, align 4, keep-with-next
    200          void onSkin( BOOK* bk, GUI* )
    201          {
    202            BookObj_CallPage(bk,&bk_skin);
   \                     ??onSkin:
   \   00000000   08109FE5           LDR      R1,??onSkin_1    ;; bk_skin
   \   00000004   00402DE9           PUSH     {LR}
   \   00000008   B80200EF           SWI      +696
    203          };
   \   0000000C   0080BDE8           POP      {PC}             ;; return
   \                     ??onSkin_1:
   \   00000010   ........           DC32     bk_skin
    204          

   \                                 In segment CODE, align 4, keep-with-next
    205          void OnAuthor( BOOK* bk, GUI* )
    206          {
    207            wchar_t text[100];
    208            snwprintf(text,99,L"SoftEdit\n© UltraShot\n\nrevision %d", __SVN_REVISION__ );
   \                     ??OnAuthor:
   \   00000000   60209FE5           LDR      R2,??OnAuthor_1  ;; `?<Constant L"\\x53\\x6f\\x66\\x74\\x45\\x64\\x69\\x74\\`
   \   00000004   30402DE9           PUSH     {R4,R5,LR}
   \   00000008   C8D04DE2           SUB      SP,SP,#+200
   \   0000000C   0040A0E1           MOV      R4,R0
   \   00000010   5530A0E3           MOV      R3,#+85
   \   00000014   E03E83E3           ORR      R3,R3,#0xE00
   \   00000018   6310A0E3           MOV      R1,#+99
   \   0000001C   0D00A0E1           MOV      R0,SP
   \   00000020   150100EF           SWI      +277
    209            MessageBox(SID_NULL,TextID_Create(text,ENC_UCS2,TEXTID_ANY_LEN), NOIMAGE, 1, 5000, bk);
   \   00000024   FF50A0E3           MOV      R5,#+255
   \   00000028   FF5C85E3           ORR      R5,R5,#0xFF00
   \   0000002C   0520A0E1           MOV      R2,R5
   \   00000030   0010A0E3           MOV      R1,#+0
   \   00000034   0D00A0E1           MOV      R0,SP
   \   00000038   5D0100EF           SWI      +349
   \   0000003C   10002DE9           PUSH     {R4}
   \   00000040   8810A0E3           MOV      R1,#+136
   \   00000044   4C1D81E3           ORR      R1,R1,#0x1300
   \   00000048   02002DE9           PUSH     {R1}
   \   0000004C   0130A0E3           MOV      R3,#+1
   \   00000050   0520A0E1           MOV      R2,R5
   \   00000054   0010A0E1           MOV      R1,R0
   \   00000058   9004E0E3           MVN      R0,#-1879048192
   \   0000005C   570200EF           SWI      +599
    210          };
   \   00000060   D0D08DE2           ADD      SP,SP,#+208
   \   00000064   3080BDE8           POP      {R4,R5,PC}       ;; return
   \                     ??OnAuthor_1:
   \   00000068   ........           DC32     `?<Constant L"\\x53\\x6f\\x66\\x74\\x45\\x64\\x69\\x74\\`
    211          

   \                                 In segment CODE, align 4, keep-with-next
    212          void onSave( BOOK* bk, GUI* )
    213          {
   \                     ??onSave:
   \   00000000   00402DE9           PUSH     {LR}
    214            savecustomcfg(GetDir(MEM_EXTERNAL+DIR_ELFS_CONFIG), L"AdvSoftkeys.cfg");
   \   00000004   1400A0E3           MOV      R0,#+20
   \   00000008   050100EF           SWI      +261
   \   0000000C   ........           LDR      R1,??DataTable8  ;; `?<Constant L"\\x41\\x64\\x76\\x53\\x6f\\x66\\x74\\x6b\\`
   \   00000010   0040BDE8           POP      {LR}             ;; Pop
   \   00000014   ........           _BF      ??savecustomcfg,??savecustomcfg??rA  ;; tailcall
    215          };
    216          

   \                                 In segment CODE, align 4, keep-with-next
    217          void OnSelectGui( BOOK* bk, GUI* )
    218          {
   \                     ??OnSelectGui:
   \   00000000   F0432DE9           PUSH     {R4-R9,LR}
   \   00000004   04D04DE2           SUB      SP,SP,#+4
    219            MyBOOK *mbk=(MyBOOK *)bk;
    220            int item=ListMenu_GetSelectedItem(mbk->lst);
    221            if (mbk->curit==0)
   \   00000008   F8629FE5           LDR      R6,??OnSelectGui_1  ;; g_save
   \   0000000C   0040A0E1           MOV      R4,R0
   \   00000010   1C0094E5           LDR      R0,[R4, #+28]
   \   00000014   0150A0E3           MOV      R5,#+1
   \   00000018   3E0100EF           SWI      +318
   \   0000001C   0070A0E1           MOV      R7,R0
   \   00000020   280094E5           LDR      R0,[R4, #+40]
   \   00000024   000050E3           CMP      R0,#+0
   \   00000028   3F00001A           BNE      ??OnSelectGui_2
    222            {
    223              if (customsofts)
   \   0000002C   ........           LDR      R8,??DataTable12  ;; customsofts
   \   00000030   000098E5           LDR      R0,[R8, #+0]
   \   00000034   000050E3           CMP      R0,#+0
   \   00000038   2000000A           BEQ      ??OnSelectGui_3
    224              {
    225                if (item>=0 && item<(customsofts->FirstFree+1))
   \   0000003C   000057E3           CMP      R7,#+0
   \   00000040   F183BD48           POPMI    {R0,R4-R9,PC}
   \   00000044   B200D0E1           LDRH     R0,[R0, #+2]
   \   00000048   010080E2           ADD      R0,R0,#+1
   \   0000004C   000057E1           CMP      R7,R0
   \   00000050   F183BDA8           POPGE    {R0,R4-R9,PC}
    226                {
    227                  mbk->main_lastindex=item;
   \   00000054   307084E5           STR      R7,[R4, #+48]
    228                  if (item==customsofts->FirstFree)
   \   00000058   000098E5           LDR      R0,[R8, #+0]
   \   0000005C   B200D0E1           LDRH     R0,[R0, #+2]
   \   00000060   000057E1           CMP      R7,R0
   \   00000064   0900001A           BNE      ??OnSelectGui_4
    229                  {
    230                    smthchanged=true;
   \   00000068   0450C6E5           STRB     R5,[R6, #+4]
    231                    ITEM *it = new ITEM;
   \   0000006C   1800A0E3           MOV      R0,#+24
   \   00000070   ........           _BLF     `??operator new`,`??operator new??rA`
   \   00000074   0050A0E1           MOV      R5,R0
    232                    memset(it,0,sizeof(ITEM));
   \   00000078   1820A0E3           MOV      R2,#+24
   \   0000007C   0010A0E3           MOV      R1,#+0
   \   00000080   120100EF           SWI      +274
    233                    List_InsertLast(customsofts, it);
   \   00000084   000098E5           LDR      R0,[R8, #+0]
   \   00000088   0510A0E1           MOV      R1,R5
   \   0000008C   B00100EF           SWI      +432
    234                  }
    235                  mbk->curit=(ITEM*)List_Get(customsofts,item);
   \                     ??OnSelectGui_4:
   \   00000090   000098E5           LDR      R0,[R8, #+0]
   \   00000094   0710A0E1           MOV      R1,R7
   \   00000098   AD0100EF           SWI      +429
   \   0000009C   280084E5           STR      R0,[R4, #+40]
    236                  FREE_GUI(mbk->lst);
   \                     ??OnSelectGui_5:
   \   000000A0   1C0094E5           LDR      R0,[R4, #+28]
   \   000000A4   000050E3           CMP      R0,#+0
   \   000000A8   0100000A           BEQ      ??OnSelectGui_6
   \   000000AC   CE0100EF           SWI      +462
   \   000000B0   1C0084E5           STR      R0,[R4, #+28]
    237                  openeditor(bk);
   \                     ??OnSelectGui_6:
   \   000000B4   0400A0E1           MOV      R0,R4
   \   000000B8   ........           BL       ??openeditor
   \   000000BC   F183BDE8           POP      {R0,R4-R9,PC}
    238                }
    239              }
    240              else
    241              {
    242                ITEM *it = new ITEM;
   \                     ??OnSelectGui_3:
   \   000000C0   1800A0E3           MOV      R0,#+24
   \   000000C4   ........           _BLF     `??operator new`,`??operator new??rA`
   \   000000C8   0090A0E1           MOV      R9,R0
    243                memset(it,0,sizeof(ITEM));
   \   000000CC   1820A0E3           MOV      R2,#+24
   \   000000D0   0010A0E3           MOV      R1,#+0
   \   000000D4   120100EF           SWI      +274
    244                if (!customsofts)customsofts=List_Create();
   \   000000D8   000098E5           LDR      R0,[R8, #+0]
   \   000000DC   000050E3           CMP      R0,#+0
   \   000000E0   0100001A           BNE      ??OnSelectGui_7
   \   000000E4   690100EF           SWI      +361
   \   000000E8   000088E5           STR      R0,[R8, #+0]
    245                List_InsertLast(customsofts, it);
   \                     ??OnSelectGui_7:
   \   000000EC   000098E5           LDR      R0,[R8, #+0]
   \   000000F0   0910A0E1           MOV      R1,R9
   \   000000F4   B00100EF           SWI      +432
    246                mbk->curit=(ITEM*)List_Get(customsofts,item);
   \   000000F8   000098E5           LDR      R0,[R8, #+0]
   \   000000FC   0710A0E1           MOV      R1,R7
   \   00000100   AD0100EF           SWI      +429
   \   00000104   280084E5           STR      R0,[R4, #+40]
    247                FREE_GUI(mbk->lst);
   \   00000108   1C0094E5           LDR      R0,[R4, #+28]
   \   0000010C   000050E3           CMP      R0,#+0
   \   00000110   0100000A           BEQ      ??OnSelectGui_8
   \   00000114   CE0100EF           SWI      +462
   \   00000118   1C0084E5           STR      R0,[R4, #+28]
    248                openeditor(bk);
   \                     ??OnSelectGui_8:
   \   0000011C   0400A0E1           MOV      R0,R4
   \   00000120   ........           BL       ??openeditor
    249                smthchanged=true;
   \   00000124   0450C6E5           STRB     R5,[R6, #+4]
   \   00000128   F183BDE8           POP      {R0,R4-R9,PC}
    250              }
    251            }
    252            else
    253            {
    254              smthchanged=true;
    255              mbk->opt_lastindex=item;
    256              if (item==0)
   \                     ??OnSelectGui_2:
   \   0000012C   D8119FE5           LDR      R1,??OnSelectGui_1+0x4  ;; bk_StringInput
   \   00000130   0450C6E5           STRB     R5,[R6, #+4]
   \   00000134   347084E5           STR      R7,[R4, #+52]
   \   00000138   6420A0E3           MOV      R2,#+100
   \   0000013C   0060A0E3           MOV      R6,#+0
   \   00000140   000057E3           CMP      R7,#+0
   \   00000144   0300001A           BNE      ??OnSelectGui_9
    257              {
    258                mbk->inputType=IT_STRING;
   \   00000148   3C5084E5           STR      R5,[R4, #+60]
    259                mbk->maxint=100;
   \   0000014C   402084E5           STR      R2,[R4, #+64]
    260                mbk->StringInputType=0;
   \   00000150   386084E5           STR      R6,[R4, #+56]
    261                BookObj_CallPage(&mbk->book,&bk_StringInput);
   \   00000154   040000EA           B        ??OnSelectGui_10
    262              }
    263              if (item==1)
   \                     ??OnSelectGui_9:
   \   00000158   010057E3           CMP      R7,#+1
   \   0000015C   0500001A           BNE      ??OnSelectGui_11
    264              {
    265                mbk->inputType=IT_STRING;
   \   00000160   3C5084E5           STR      R5,[R4, #+60]
    266                mbk->maxint=100;
   \   00000164   402084E5           STR      R2,[R4, #+64]
    267                mbk->StringInputType=1;
   \   00000168   385084E5           STR      R5,[R4, #+56]
    268                BookObj_CallPage(&mbk->book,&bk_StringInput);
   \                     ??OnSelectGui_10:
   \   0000016C   0400A0E1           MOV      R0,R4
   \   00000170   B80200EF           SWI      +696
   \   00000174   F183BDE8           POP      {R0,R4-R9,PC}
    269              }
    270              if (item==2)
   \                     ??OnSelectGui_11:
   \   00000178   0200A0E3           MOV      R0,#+2
   \   0000017C   020057E3           CMP      R7,#+2
    271              {
    272                mbk->inputType=IT_STRING;
   \   00000180   3C508405           STREQ    R5,[R4, #+60]
    273                mbk->maxint=100;
   \   00000184   40208405           STREQ    R2,[R4, #+64]
    274                mbk->StringInputType=2;
   \   00000188   0400000A           BEQ      ??OnSelectGui_12
    275                BookObj_CallPage(&mbk->book,&bk_StringInput);
    276              }
    277              if (item==3)
   \   0000018C   030057E3           CMP      R7,#+3
   \   00000190   0400001A           BNE      ??OnSelectGui_13
    278              {
    279                mbk->inputType=IT_STRING;
   \   00000194   3C5084E5           STR      R5,[R4, #+60]
    280                mbk->maxint=100;
   \   00000198   402084E5           STR      R2,[R4, #+64]
    281                mbk->StringInputType=3;
   \   0000019C   0300A0E3           MOV      R0,#+3
   \                     ??OnSelectGui_12:
   \   000001A0   380084E5           STR      R0,[R4, #+56]
    282                BookObj_CallPage(&mbk->book,&bk_StringInput);
   \   000001A4   540000EA           B        ??OnSelectGui_14
    283              }
    284              else if (item==4)
   \                     ??OnSelectGui_13:
   \   000001A8   040057E3           CMP      R7,#+4
   \   000001AC   2600001A           BNE      ??OnSelectGui_15
    285              {
    286                int icon_id=NOIMAGE;;
    287                int ids;
    288                if (mbk->curit->style==0)
   \   000001B0   ........           LDR      R3,??DataTable11  ;; `?<Constant L"\\x44\\x45\\x46\\x41\\x55\\x4c\\x54">`
   \   000001B4   FF20A0E3           MOV      R2,#+255
   \   000001B8   FF2C82E3           ORR      R2,R2,#0xFF00
   \   000001BC   00208DE5           STR      R2,[SP, #+0]
   \   000001C0   281094E5           LDR      R1,[R4, #+40]
   \   000001C4   101091E5           LDR      R1,[R1, #+16]
   \   000001C8   000051E3           CMP      R1,#+0
   \   000001CC   0800001A           BNE      ??OnSelectGui_16
    289                {
    290                  mbk->curit->style=1;
   \   000001D0   280094E5           LDR      R0,[R4, #+40]
    291                  iconidname2id(IDN_CHECKBOX_CHECKED_ICON,-1,&icon_id);
   \   000001D4   0D20A0E1           MOV      R2,SP
   \   000001D8   105080E5           STR      R5,[R0, #+16]
   \   000001DC   001065E2           RSB      R1,R5,#+0
   \   000001E0   540083E2           ADD      R0,R3,#+84
   \                     ??OnSelectGui_17:
   \   000001E4   860200EF           SWI      +646
    292                  ids= 0x78000000 + icon_id;
   \   000001E8   00009DE5           LDR      R0,[SP, #+0]
   \   000001EC   780480E2           ADD      R0,R0,#+2013265920
   \   000001F0   0E0000EA           B        ??OnSelectGui_18
    293                }
    294                else if (mbk->curit->style==2)
   \                     ??OnSelectGui_16:
   \   000001F4   281094E5           LDR      R1,[R4, #+40]
   \   000001F8   101091E5           LDR      R1,[R1, #+16]
   \   000001FC   020051E3           CMP      R1,#+2
   \   00000200   0500001A           BNE      ??OnSelectGui_19
    295                {
    296                  mbk->curit->style=0;
   \   00000204   280094E5           LDR      R0,[R4, #+40]
    297                  iconidname2id(IDN_CHECKBOX_UNCHECKED_ICON,-1,&icon_id);
   \   00000208   0D20A0E1           MOV      R2,SP
   \   0000020C   106080E5           STR      R6,[R0, #+16]
   \   00000210   001065E2           RSB      R1,R5,#+0
   \   00000214   380083E2           ADD      R0,R3,#+56
   \   00000218   F1FFFFEA           B        ??OnSelectGui_17
    298                  ids= 0x78000000 + icon_id;
    299                }
    300                else
    301                {
    302                  mbk->curit->style=2;
   \                     ??OnSelectGui_19:
   \   0000021C   281094E5           LDR      R1,[R4, #+40]
   \   00000220   100081E5           STR      R0,[R1, #+16]
    303                  ids=TextID_Create(L"standart",ENC_UCS2,TEXTID_ANY_LEN);
   \   00000224   0010A0E3           MOV      R1,#+0
   \   00000228   800083E2           ADD      R0,R3,#+128
   \   0000022C   5D0100EF           SWI      +349
    304                }
    305                ListMenu_SetItemSecondLineText(mbk->lst,item,ids);
   \                     ??OnSelectGui_18:
   \   00000230   0020A0E1           MOV      R2,R0
   \   00000234   1C0094E5           LDR      R0,[R4, #+28]
   \   00000238   0410A0E3           MOV      R1,#+4
   \   0000023C   A60200EF           SWI      +678
    306                mbk->opt_lastindex=item;
   \   00000240   0400A0E3           MOV      R0,#+4
   \   00000244   340084E5           STR      R0,[R4, #+52]
    307                FREE_GUI(mbk->lst);
   \   00000248   94FFFFEA           B        ??OnSelectGui_5
    308                openeditor(bk);
    309              }
    310              else if (item>4)
   \                     ??OnSelectGui_15:
   \   0000024C   050057E3           CMP      R7,#+5
   \   00000250   F183BDB8           POPLT    {R0,R4-R9,PC}
    311              {
    312                KEY *key=0;
    313                int index=item-5;
    314                if (mbk->curit->keys==0 && index==0)
   \   00000254   280094E5           LDR      R0,[R4, #+40]
   \   00000258   051047E2           SUB      R1,R7,#+5
   \   0000025C   140090E5           LDR      R0,[R0, #+20]
   \   00000260   000050E3           CMP      R0,#+0
   \   00000264   00005103           CMPEQ    R1,#+0
   \   00000268   1100001A           BNE      ??OnSelectGui_20
    315                {
    316                  key = new KEY;
   \                     ??OnSelectGui_21:
   \   0000026C   0800A0E3           MOV      R0,#+8
   \   00000270   ........           _BLF     `??operator new`,`??operator new??rA`
   \   00000274   0050A0E1           MOV      R5,R0
    317                  memset(key,0,sizeof(KEY));
   \   00000278   0820A0E3           MOV      R2,#+8
   \   0000027C   0010A0E3           MOV      R1,#+0
   \   00000280   120100EF           SWI      +274
    318                  if (!mbk->curit->keys)mbk->curit->keys=List_Create();
   \   00000284   280094E5           LDR      R0,[R4, #+40]
   \   00000288   140090E5           LDR      R0,[R0, #+20]
   \   0000028C   000050E3           CMP      R0,#+0
   \   00000290   0200001A           BNE      ??OnSelectGui_22
   \   00000294   690100EF           SWI      +361
   \   00000298   281094E5           LDR      R1,[R4, #+40]
   \   0000029C   140081E5           STR      R0,[R1, #+20]
    319                  List_InsertLast(mbk->curit->keys, key);
   \                     ??OnSelectGui_22:
   \   000002A0   280094E5           LDR      R0,[R4, #+40]
   \   000002A4   0510A0E1           MOV      R1,R5
   \   000002A8   140090E5           LDR      R0,[R0, #+20]
   \   000002AC   B00100EF           SWI      +432
   \   000002B0   0C0000EA           B        ??OnSelectGui_23
    320                }
    321                else if (mbk->curit->keys)
   \                     ??OnSelectGui_20:
   \   000002B4   280094E5           LDR      R0,[R4, #+40]
   \   000002B8   140090E5           LDR      R0,[R0, #+20]
   \   000002BC   000050E3           CMP      R0,#+0
   \   000002C0   F183BD08           POPEQ    {R0,R4-R9,PC}
    322                {
    323                  if (mbk->curit->keys->FirstFree==index)
   \   000002C4   280094E5           LDR      R0,[R4, #+40]
   \   000002C8   140090E5           LDR      R0,[R0, #+20]
   \   000002CC   B200D0E1           LDRH     R0,[R0, #+2]
   \   000002D0   010050E1           CMP      R0,R1
   \   000002D4   E4FFFF0A           BEQ      ??OnSelectGui_21
    324                  {
    325                    key = new KEY;
    326                    memset(key,0,sizeof(KEY));
    327                    if (!mbk->curit->keys)mbk->curit->keys=List_Create();
    328                    List_InsertLast(mbk->curit->keys, key);
    329                  }
    330                  else
    331                  {
    332                    key=(KEY*)List_Get(mbk->curit->keys, index);
   \   000002D8   280094E5           LDR      R0,[R4, #+40]
   \   000002DC   140090E5           LDR      R0,[R0, #+20]
   \   000002E0   AD0100EF           SWI      +429
   \   000002E4   0050A0E1           MOV      R5,R0
    333                  }
    334                }
    335                if (key)
   \                     ??OnSelectGui_23:
   \   000002E8   000055E3           CMP      R5,#+0
   \   000002EC   F183BD08           POPEQ    {R0,R4-R9,PC}
    336                {
    337                  mbk->key_stage=0;
    338                  mbk->curkey=key;
    339                  BookObj_CallPage(&mbk->book,&bk_keycode_input);
   \   000002F0   18109FE5           LDR      R1,??OnSelectGui_1+0x8  ;; bk_keycode_input
   \   000002F4   446084E5           STR      R6,[R4, #+68]
   \   000002F8   2C5084E5           STR      R5,[R4, #+44]
   \                     ??OnSelectGui_14:
   \   000002FC   0400A0E1           MOV      R0,R4
   \   00000300   B80200EF           SWI      +696
    340                }
    341              }
    342            }
    343          };
   \   00000304   F183BDE8           POP      {R0,R4-R9,PC}    ;; return
   \                     ??OnSelectGui_1:
   \   00000308   ........           DC32     g_save
   \   0000030C   ........           DC32     bk_StringInput
   \   00000310   ........           DC32     bk_keycode_input
    344          
    345          
    346          

   \                                 In segment CODE, align 4, keep-with-next
    347          GUI_LIST * CreateGuiList(BOOK * book)
    348          {
   \                     ??CreateGuiList:
   \   00000000   F0412DE9           PUSH     {R4-R8,LR}
   \   00000004   C8D04DE2           SUB      SP,SP,#+200
   \   00000008   0050A0E1           MOV      R5,R0
    349            GUI_LIST * lo=0;
    350            if (lo=CreateListMenu(book,0))
   \   0000000C   0010A0E3           MOV      R1,#+0
   \   00000010   C00100EF           SWI      +448
   \   00000014   0040B0E1           MOVS     R4,R0
   \   00000018   9C00000A           BEQ      ??CreateGuiList_1
    351            {
    352              MyBOOK *bk=(MyBOOK*)book;
    353              if (!bk->curit)
   \   0000001C   280095E5           LDR      R0,[R5, #+40]
   \   00000020   ........           LDR      R6,??DataTable11  ;; `?<Constant L"\\x44\\x45\\x46\\x41\\x55\\x4c\\x54">`
   \   00000024   FF70A0E3           MOV      R7,#+255
   \   00000028   FF7C87E3           ORR      R7,R7,#0xFF00
   \   0000002C   000050E3           CMP      R0,#+0
   \   00000030   5900001A           BNE      ??CreateGuiList_2
    354              {
    355                GUIObject_SoftKeys_SetAction(lo,1, onSave);
   \   00000034   60229FE5           LDR      R2,??CreateGuiList_3  ;; ??onSave
   \   00000038   0110A0E3           MOV      R1,#+1
   \   0000003C   0400A0E1           MOV      R0,R4
   \   00000040   4B0100EF           SWI      +331
    356                GUIObject_SoftKeys_SetText(lo,1,TextID_Create(L"Save",ENC_UCS2,TEXTID_ANY_LEN));
   \   00000044   0720A0E1           MOV      R2,R7
   \   00000048   0010A0E3           MOV      R1,#+0
   \   0000004C   940086E2           ADD      R0,R6,#+148
   \   00000050   5D0100EF           SWI      +349
   \   00000054   0020A0E1           MOV      R2,R0
   \   00000058   0110A0E3           MOV      R1,#+1
   \   0000005C   0400A0E1           MOV      R0,R4
   \   00000060   4C0100EF           SWI      +332
    357                GUIObject_SoftKeys_SetAction(lo,2, onSkin);
   \   00000064   34229FE5           LDR      R2,??CreateGuiList_3+0x4  ;; ??onSkin
   \   00000068   0210A0E3           MOV      R1,#+2
   \   0000006C   0400A0E1           MOV      R0,R4
   \   00000070   4B0100EF           SWI      +331
    358                GUIObject_SoftKeys_SetText(lo,2,TextID_Create(L"Skin",ENC_UCS2,TEXTID_ANY_LEN));
   \   00000074   0720A0E1           MOV      R2,R7
   \   00000078   0010A0E3           MOV      R1,#+0
   \   0000007C   A00086E2           ADD      R0,R6,#+160
   \   00000080   5D0100EF           SWI      +349
   \   00000084   0020A0E1           MOV      R2,R0
   \   00000088   0210A0E3           MOV      R1,#+2
   \   0000008C   0400A0E1           MOV      R0,R4
   \   00000090   4C0100EF           SWI      +332
    359                GUIObject_SoftKeys_SetAction(lo,ACTION_HELP, OnAuthor);
   \   00000094   08029FE5           LDR      R0,??CreateGuiList_3+0x8  ;; ACTION_HELP
   \   00000098   08229FE5           LDR      R2,??CreateGuiList_3+0xC  ;; ??OnAuthor
   \   0000009C   008090E5           LDR      R8,[R0, #+0]
   \   000000A0   0400A0E1           MOV      R0,R4
   \   000000A4   0818A0E1           MOV      R1,R8, LSL #+16
   \   000000A8   2118A0E1           MOV      R1,R1, LSR #+16
   \   000000AC   4B0100EF           SWI      +331
    360                GUIObject_SoftKeys_SetText(lo,ACTION_HELP, GetStrID(L"JAVA_APP_NR_ABOUT"));
   \   000000B0   AC0086E2           ADD      R0,R6,#+172
   \   000000B4   ........           _BLF     ??GetStrID,??GetStrID??rA
   \   000000B8   0818A0E1           MOV      R1,R8, LSL #+16
    361                GUIObject_SetTitleText(lo,TextID_Create(L"SoftEdit",ENC_UCS2,TEXTID_ANY_LEN));
    362                if (customsofts)
   \   000000BC   ........           LDR      R8,??DataTable12  ;; customsofts
   \   000000C0   0020A0E1           MOV      R2,R0
   \   000000C4   2118A0E1           MOV      R1,R1, LSR #+16
   \   000000C8   0400A0E1           MOV      R0,R4
   \   000000CC   4C0100EF           SWI      +332
   \   000000D0   0720A0E1           MOV      R2,R7
   \   000000D4   0010A0E3           MOV      R1,#+0
   \   000000D8   CC719FE5           LDR      R7,??CreateGuiList_3+0x10  ;; ??onLBMessage
   \   000000DC   D00086E2           ADD      R0,R6,#+208
   \   000000E0   5D0100EF           SWI      +349
   \   000000E4   0010A0E1           MOV      R1,R0
   \   000000E8   0400A0E1           MOV      R0,R4
   \   000000EC   330100EF           SWI      +307
   \   000000F0   000098E5           LDR      R0,[R8, #+0]
   \   000000F4   000050E3           CMP      R0,#+0
   \   000000F8   1A00000A           BEQ      ??CreateGuiList_4
    363                {
    364                  if (customsofts->FirstFree)
   \   000000FC   B200D0E1           LDRH     R0,[R0, #+2]
   \   00000100   000050E3           CMP      R0,#+0
   \   00000104   0D00000A           BEQ      ??CreateGuiList_5
    365                  {
    366                    ListMenu_SetItemCount(lo,customsofts->FirstFree+1);
   \   00000108   011080E2           ADD      R1,R0,#+1
   \   0000010C   0400A0E1           MOV      R0,R4
   \   00000110   C10100EF           SWI      +449
    367                    if (bk->main_lastindex>=0 && bk->main_lastindex<customsofts->FirstFree+1)
   \   00000114   300095E5           LDR      R0,[R5, #+48]
   \   00000118   000050E3           CMP      R0,#+0
   \   0000011C   0500004A           BMI      ??CreateGuiList_6
   \   00000120   001098E5           LDR      R1,[R8, #+0]
   \   00000124   B210D1E1           LDRH     R1,[R1, #+2]
   \   00000128   011081E2           ADD      R1,R1,#+1
   \   0000012C   010050E1           CMP      R0,R1
    368                    {
    369                      ListMenu_SetCursorToItem(lo,bk->main_lastindex);
   \   00000130   0010A0B1           MOVLT    R1,R0
   \   00000134   0F0000BA           BLT      ??CreateGuiList_7
    370                    }
    371                    else
    372                    {
    373                      ListMenu_SetCursorToItem(lo,0);
   \                     ??CreateGuiList_6:
   \   00000138   0010A0E3           MOV      R1,#+0
   \                     ??CreateGuiList_8:
   \   0000013C   0D0000EA           B        ??CreateGuiList_7
    374                    }
    375                    ListMenu_SetOnMessage(lo,onLBMessage);
    376                  }
    377                  else
    378                  {
    379                    ListMenu_SetNoItemText(lo,GetStrID(L"MP_AUDIO_NO_ITEMS_TXT"));
   \                     ??CreateGuiList_5:
   \   00000140   E40086E2           ADD      R0,R6,#+228
   \   00000144   ........           _BLF     ??GetStrID,??GetStrID??rA
   \   00000148   0010A0E1           MOV      R1,R0
   \   0000014C   0400A0E1           MOV      R0,R4
   \   00000150   880200EF           SWI      +648
    380                    ListMenu_SetItemCount(lo,1);
   \   00000154   0110A0E3           MOV      R1,#+1
   \   00000158   0400A0E1           MOV      R0,R4
   \   0000015C   C10100EF           SWI      +449
    381                    ListMenu_SetCursorToItem(lo,0);
   \   00000160   0010A0E3           MOV      R1,#+0
   \   00000164   030000EA           B        ??CreateGuiList_7
    382                    ListMenu_SetOnMessage(lo,onLBMessage);
    383                  }
    384                }
    385                else
    386                {
    387                  ListMenu_SetItemCount(lo,1);
   \                     ??CreateGuiList_4:
   \   00000168   0110A0E3           MOV      R1,#+1
   \   0000016C   0400A0E1           MOV      R0,R4
   \   00000170   C10100EF           SWI      +449
    388                  ListMenu_SetCursorToItem(lo,0);
   \   00000174   0010A0E3           MOV      R1,#+0
   \                     ??CreateGuiList_7:
   \   00000178   0400A0E1           MOV      R0,R4
   \   0000017C   350100EF           SWI      +309
    389                  ListMenu_SetOnMessage(lo,onLBMessage);
   \   00000180   0710A0E1           MOV      R1,R7
   \   00000184   0400A0E1           MOV      R0,R4
   \   00000188   740100EF           SWI      +372
    390                }
    391                ListMenu_SetItemStyle(lo,0);
   \   0000018C   0010A0E3           MOV      R1,#+0
   \   00000190   0400A0E1           MOV      R0,R4
   \   00000194   3F0100EF           SWI      +319
   \   00000198   270000EA           B        ??CreateGuiList_9
    392              }
    393              else
    394              {
    395                wchar_t text[100];
    396                if (bk->curit->name)
   \                     ??CreateGuiList_2:
   \   0000019C   000090E5           LDR      R0,[R0, #+0]
   \   000001A0   000050E3           CMP      R0,#+0
    397                {
    398                  wstrcpy(text,bk->curit->name);
   \   000001A4   28009515           LDRNE    R0,[R5, #+40]
    399                }
    400                else
    401                {
    402                  wstrcpy(text,L"-empty-");
   \   000001A8   28108602           ADDEQ    R1,R6,#+40
   \   000001AC   00109015           LDRNE    R1,[R0, #+0]
   \   000001B0   0D00A0E1           MOV      R0,SP
   \   000001B4   520100EF           SWI      +338
    403                }
    404                GUIObject_SetTitleText(lo,TextID_Create(text,ENC_UCS2,TEXTID_ANY_LEN));
   \   000001B8   0720A0E1           MOV      R2,R7
   \   000001BC   0010A0E3           MOV      R1,#+0
   \   000001C0   0D00A0E1           MOV      R0,SP
   \   000001C4   5D0100EF           SWI      +349
   \   000001C8   0010A0E1           MOV      R1,R0
   \   000001CC   0400A0E1           MOV      R0,R4
   \   000001D0   330100EF           SWI      +307
    405                int howmany=0;
    406                if (bk->curit->keys)
   \   000001D4   281095E5           LDR      R1,[R5, #+40]
   \   000001D8   0000A0E3           MOV      R0,#+0
   \   000001DC   141091E5           LDR      R1,[R1, #+20]
   \   000001E0   000051E3           CMP      R1,#+0
    407                {
    408                  howmany=howmany+bk->curit->keys->FirstFree;
   \   000001E4   B200D111           LDRHNE   R0,[R1, #+2]
    409                }
    410                howmany=howmany+6;
   \   000001E8   066080E2           ADD      R6,R0,#+6
    411                ListMenu_SetItemCount(lo,howmany);
   \   000001EC   0610A0E1           MOV      R1,R6
   \   000001F0   0400A0E1           MOV      R0,R4
   \   000001F4   C10100EF           SWI      +449
    412                if (bk->opt_lastindex>0 && bk->opt_lastindex<howmany)
   \   000001F8   340095E5           LDR      R0,[R5, #+52]
   \   000001FC   010050E3           CMP      R0,#+1
   \   00000200   020000BA           BLT      ??CreateGuiList_10
   \   00000204   060050E1           CMP      R0,R6
    413                {
    414                  ListMenu_SetCursorToItem(lo,bk->opt_lastindex);
   \   00000208   0010A0B1           MOVLT    R1,R0
   \   0000020C   020000BA           BLT      ??CreateGuiList_11
    415                }
    416                else if (bk->opt_lastindex>howmany)
   \                     ??CreateGuiList_10:
   \   00000210   000056E1           CMP      R6,R0
    417                {
    418                  ListMenu_SetCursorToItem(lo,howmany);
   \   00000214   0610A0B1           MOVLT    R1,R6
    419                }
    420                else
    421                {
    422                  ListMenu_SetCursorToItem(lo,0);
   \   00000218   0010A0A3           MOVGE    R1,#+0
   \                     ??CreateGuiList_11:
   \   0000021C   0400A0E1           MOV      R0,R4
   \   00000220   350100EF           SWI      +309
    423                }
    424                ListMenu_SetItemStyle(lo,3);
   \   00000224   0310A0E3           MOV      R1,#+3
   \   00000228   0400A0E1           MOV      R0,R4
   \   0000022C   3F0100EF           SWI      +319
    425                ListMenu_SetOnMessage(lo,onLBMessage2);
   \   00000230   78109FE5           LDR      R1,??CreateGuiList_3+0x14  ;; ??onLBMessage2
   \   00000234   0400A0E1           MOV      R0,R4
   \   00000238   740100EF           SWI      +372
    426              }
    427              GUIObject_SoftKeys_SetAction(lo,ACTION_BACK, OnBackGui);
   \                     ??CreateGuiList_9:
   \   0000023C   ........           LDR      R0,??DataTable13  ;; ACTION_BACK
   \   00000240   6C209FE5           LDR      R2,??CreateGuiList_3+0x18  ;; ??OnBackGui
   \   00000244   001090E5           LDR      R1,[R0, #+0]
   \   00000248   0400A0E1           MOV      R0,R4
   \   0000024C   0118A0E1           MOV      R1,R1, LSL #+16
   \   00000250   2118A0E1           MOV      R1,R1, LSR #+16
   \   00000254   4B0100EF           SWI      +331
    428              GUIObject_SoftKeys_SetAction(lo,ACTION_SELECT1, OnSelectGui);
   \   00000258   58009FE5           LDR      R0,??CreateGuiList_3+0x1C  ;; ACTION_SELECT1
   \   0000025C   58209FE5           LDR      R2,??CreateGuiList_3+0x20  ;; ??OnSelectGui
   \   00000260   001090E5           LDR      R1,[R0, #+0]
   \   00000264   0400A0E1           MOV      R0,R4
   \   00000268   0118A0E1           MOV      R1,R1, LSL #+16
   \   0000026C   2118A0E1           MOV      R1,R1, LSR #+16
   \   00000270   4B0100EF           SWI      +331
    429              GUIObject_SoftKeys_SetAction(lo,ACTION_DELETE, OnDelGui);
   \   00000274   44009FE5           LDR      R0,??CreateGuiList_3+0x24  ;; ACTION_DELETE
   \   00000278   44209FE5           LDR      R2,??CreateGuiList_3+0x28  ;; ??OnDelGui
   \   0000027C   001090E5           LDR      R1,[R0, #+0]
   \   00000280   0400A0E1           MOV      R0,R4
   \   00000284   0118A0E1           MOV      R1,R1, LSL #+16
   \   00000288   2118A0E1           MOV      R1,R1, LSR #+16
   \   0000028C   4B0100EF           SWI      +331
    430            }
    431            return(lo);
   \                     ??CreateGuiList_1:
   \   00000290   0400A0E1           MOV      R0,R4
   \   00000294   C8D08DE2           ADD      SP,SP,#+200
   \   00000298   F081BDE8           POP      {R4-R8,PC}       ;; return
   \                     ??CreateGuiList_3:
   \   0000029C   ........           DC32     ??onSave
   \   000002A0   ........           DC32     ??onSkin
   \   000002A4   ........           DC32     ACTION_HELP
   \   000002A8   ........           DC32     ??OnAuthor
   \   000002AC   ........           DC32     ??onLBMessage
   \   000002B0   ........           DC32     ??onLBMessage2
   \   000002B4   ........           DC32     ??OnBackGui
   \   000002B8   ........           DC32     ACTION_SELECT1
   \   000002BC   ........           DC32     ??OnSelectGui
   \   000002C0   ........           DC32     ACTION_DELETE
   \   000002C4   ........           DC32     ??OnDelGui
    432          };
    433          

   \                                 In segment CODE, align 4, keep-with-next
    434          void openeditor(BOOK *bk)
    435          {
   \                     ??openeditor:
   \   00000000   10402DE9           PUSH     {R4,LR}
   \   00000004   0040A0E1           MOV      R4,R0
    436            MyBOOK *mbk=(MyBOOK*)bk;
    437            mbk->lst=CreateGuiList(bk);
   \   00000008   ........           BL       ??CreateGuiList
   \   0000000C   1C0084E5           STR      R0,[R4, #+28]
    438            GUIObject_Show(mbk->lst);
   \   00000010   340100EF           SWI      +308
    439          };
   \   00000014   1080BDE8           POP      {R4,PC}          ;; return
    440          

   \                                 In segment CODE, align 4, keep-with-next
    441          static int main_OnEnter(void *, BOOK *bk)
    442          {
   \                     ??main_OnEnter:
   \   00000000   00402DE9           PUSH     {LR}
   \   00000004   0100A0E1           MOV      R0,R1
    443            openeditor(bk);
   \   00000008   ........           BL       ??openeditor
    444            return 1;
   \   0000000C   0100A0E3           MOV      R0,#+1
   \   00000010   0080BDE8           POP      {PC}             ;; return
    445          };
    446          

   \                                 In segment DYN_PAGE, align 4, align-sorted
    447          const PAGE_MSG bk_msglst_main[] @ "DYN_PAGE"  =
   \                     bk_msglst_main:
   \   00000000   42000000....       DC32 66, ??main_OnEnter, 64, 0H
   \              ....40000000
   \              00000000    
    448          {
    449            PAGE_ENTER_EVENT_TAG,    main_OnEnter,
    450            NIL_EVENT_TAG,           NULL
    451          };
    452          

   \                                 In segment DATA_C, align 4, align-sorted
   \                     `?<Constant L"\\x44\\x45\\x46\\x41\\x55\\x4c\\x54">`:
   \   00000000   440045004600       DC8 44H, 0, 45H, 0, 46H, 0, 41H, 0
   \              4100        
   \   00000008   55004C005400       DC8 55H, 0, 4CH, 0, 54H, 0, 0, 0
   \              0000        
   \   00000010   530074006100       DC8 53H, 0, 74H, 0, 61H, 0, 6EH, 0
   \              6E00        
   \   00000018   640062007900       DC8 64H, 0, 62H, 0, 79H, 0, 42H, 0
   \              4200        
   \   00000020   6F006F006B00       DC8 6FH, 0, 6FH, 0, 6BH, 0, 0, 0
   \              0000        
   \   00000028   2D0065006D00       DC8 2DH, 0, 65H, 0, 6DH, 0, 70H, 0
   \              7000        
   \   00000030   740079002D00       DC8 74H, 0, 79H, 0, 2DH, 0, 0, 0
   \              0000        
   \   00000038   430048004500       DC8 43H, 0, 48H, 0, 45H, 0, 43H, 0
   \              4300        
   \   00000040   4B0042004F00       DC8 4BH, 0, 42H, 0, 4FH, 0, 58H, 0
   \              5800        
   \   00000048   5F0049004300       DC8 5FH, 0, 49H, 0, 43H, 0, 4EH, 0
   \              4E00        
   \   00000050   0000               DC8 0, 0
   \   00000052   0000               DC8 0, 0
   \   00000054   430048004500       DC8 43H, 0, 48H, 0, 45H, 0, 43H, 0
   \              4300        
   \   0000005C   4B004D004100       DC8 4BH, 0, 4DH, 0, 41H, 0, 52H, 0
   \              5200        
   \   00000064   4B005F004900       DC8 4BH, 0, 5FH, 0, 49H, 0, 4EH, 0
   \              4E00        
   \   0000006C   5F0042004F00       DC8 5FH, 0, 42H, 0, 4FH, 0, 58H, 0
   \              5800        
   \   00000074   5F0049004300       DC8 5FH, 0, 49H, 0, 43H, 0, 4EH, 0
   \              4E00        
   \   0000007C   0000               DC8 0, 0
   \   0000007E   0000               DC8 0, 0
   \   00000080   730074006100       DC8 73H, 0, 74H, 0, 61H, 0, 6EH, 0
   \              6E00        
   \   00000088   640061007200       DC8 64H, 0, 61H, 0, 72H, 0, 74H, 0
   \              7400        
   \   00000090   0000               DC8 0, 0
   \   00000092   0000               DC8 0, 0
   \   00000094   530061007600       DC8 53H, 0, 61H, 0, 76H, 0, 65H, 0
   \              6500        
   \   0000009C   0000               DC8 0, 0
   \   0000009E   0000               DC8 0, 0
   \   000000A0   53006B006900       DC8 53H, 0, 6BH, 0, 69H, 0, 6EH, 0
   \              6E00        
   \   000000A8   0000               DC8 0, 0
   \   000000AA   0000               DC8 0, 0
   \   000000AC   4A0041005600       DC8 4AH, 0, 41H, 0, 56H, 0, 41H, 0
   \              4100        
   \   000000B4   5F0041005000       DC8 5FH, 0, 41H, 0, 50H, 0, 50H, 0
   \              5000        
   \   000000BC   5F004E005200       DC8 5FH, 0, 4EH, 0, 52H, 0, 5FH, 0
   \              5F00        
   \   000000C4   410042004F00       DC8 41H, 0, 42H, 0, 4FH, 0, 55H, 0
   \              5500        
   \   000000CC   54000000           DC8 54H, 0, 0, 0
   \   000000D0   53006F006600       DC8 53H, 0, 6FH, 0, 66H, 0, 74H, 0
   \              7400        
   \   000000D8   450064006900       DC8 45H, 0, 64H, 0, 69H, 0, 74H, 0
   \              7400        
   \   000000E0   0000               DC8 0, 0
   \   000000E2   0000               DC8 0, 0
   \   000000E4   4D0050005F00       DC8 4DH, 0, 50H, 0, 5FH, 0, 41H, 0
   \              4100        
   \   000000EC   550044004900       DC8 55H, 0, 44H, 0, 49H, 0, 4FH, 0
   \              4F00        
   \   000000F4   5F004E004F00       DC8 5FH, 0, 4EH, 0, 4FH, 0, 5FH, 0
   \              5F00        
   \   000000FC   490054004500       DC8 49H, 0, 54H, 0, 45H, 0, 4DH, 0
   \              4D00        
   \   00000104   53005F005400       DC8 53H, 0, 5FH, 0, 54H, 0, 58H, 0
   \              5800        
   \   0000010C   54000000           DC8 54H, 0, 0, 0
    453          const PAGE_DESC bk_main = {"Softkeys_Main",0,bk_msglst_main};
   \                     bk_main:
   \   00000110   ........0000       DC32 `?<Constant "Softkeys_Main">`, 0H, bk_msglst_main
   \              0000........

   \                                 In segment CODE, align 4, keep-with-next
   \                     ??DataTable6:
   \   00000000   ........           DC32     g_save

   \                                 In segment CODE, align 4, keep-with-next
   \                     ??DataTable8:
   \   00000000   ........           DC32     `?<Constant L"\\x41\\x64\\x76\\x53\\x6f\\x66\\x74\\x6b\\`

   \                                 In segment CODE, align 4, keep-with-next
   \                     ??DataTable11:
   \   00000000   ........           DC32     `?<Constant L"\\x44\\x45\\x46\\x41\\x55\\x4c\\x54">`

   \                                 In segment CODE, align 4, keep-with-next
   \                     ??DataTable12:
   \   00000000   ........           DC32     customsofts

   \                                 In segment CODE, align 4, keep-with-next
   \                     ??DataTable13:
   \   00000000   ........           DC32     ACTION_BACK

   \                                 In segment DATA_C, align 4, align-sorted
   \                     `?<Constant "Softkeys_Main">`:
   \   00000000   536F66746B65       DC8 "Softkeys_Main"
   \              79735F4D6169
   \              6E00        
   \   0000000E   0000               DC8 0, 0

   \                                 In segment DATA_C, align 4, align-sorted
   \                     `?<Constant L"\\x41\\x64\\x76\\x53\\x6f\\x66\\x74\\x6b\\`:
   \   00000000   410064007600       DC8 41H, 0, 64H, 0, 76H, 0, 53H, 0
   \              5300        
   \   00000008   6F0066007400       DC8 6FH, 0, 66H, 0, 74H, 0, 6BH, 0
   \              6B00        
   \   00000010   650079007300       DC8 65H, 0, 79H, 0, 73H, 0, 2EH, 0
   \              2E00        
   \   00000018   630066006700       DC8 63H, 0, 66H, 0, 67H, 0, 0, 0
   \              0000        

   \                                 In segment DATA_C, align 4, align-sorted
   \                     `?<Constant L"\\x4f\\x70\\x74\\x69\\x6f\\x6e\\x73\\x20\\`:
   \   00000000   4F0070007400       DC8 4FH, 0, 70H, 0, 74H, 0, 69H, 0
   \              6900        
   \   00000008   6F006E007300       DC8 6FH, 0, 6EH, 0, 73H, 0, 20H, 0
   \              2000        
   \   00000010   770065007200       DC8 77H, 0, 65H, 0, 72H, 0, 65H, 0
   \              6500        
   \   00000018   200063006800       DC8 20H, 0, 63H, 0, 68H, 0, 61H, 0
   \              6100        
   \   00000020   6E0067006500       DC8 6EH, 0, 67H, 0, 65H, 0, 64H, 0
   \              6400        
   \   00000028   2E000000           DC8 2EH, 0, 0, 0
   \   0000002C   44006F002000       DC8 44H, 0, 6FH, 0, 20H, 0, 79H, 0
   \              7900        
   \   00000034   6F0075002000       DC8 6FH, 0, 75H, 0, 20H, 0, 77H, 0
   \              7700        
   \   0000003C   61006E007400       DC8 61H, 0, 6EH, 0, 74H, 0, 20H, 0
   \              2000        
   \   00000044   74006F002000       DC8 74H, 0, 6FH, 0, 20H, 0, 73H, 0
   \              7300        
   \   0000004C   610076006500       DC8 61H, 0, 76H, 0, 65H, 0, 3FH, 0
   \              3F00        
   \   00000054   0000               DC8 0, 0
   \   00000056   0000               DC8 0, 0

   \                                 In segment DATA_C, align 4, align-sorted
   \                     `?<Constant L"\\x53\\x6f\\x66\\x74\\x45\\x64\\x69\\x74\\`:
   \   00000000   53006F006600       DC8 53H, 0, 6FH, 0, 66H, 0, 74H, 0
   \              7400        
   \   00000008   450064006900       DC8 45H, 0, 64H, 0, 69H, 0, 74H, 0
   \              7400        
   \   00000010   0A00A9002000       DC8 0AH, 0, 0A9H, 0, 20H, 0, 55H, 0
   \              5500        
   \   00000018   6C0074007200       DC8 6CH, 0, 74H, 0, 72H, 0, 61H, 0
   \              6100        
   \   00000020   530068006F00       DC8 53H, 0, 68H, 0, 6FH, 0, 74H, 0
   \              7400        
   \   00000028   0A000A007200       DC8 0AH, 0, 0AH, 0, 72H, 0, 65H, 0
   \              6500        
   \   00000030   760069007300       DC8 76H, 0, 69H, 0, 73H, 0, 69H, 0
   \              6900        
   \   00000038   6F006E002000       DC8 6FH, 0, 6EH, 0, 20H, 0, 25H, 0
   \              2500        
   \   00000040   64000000           DC8 64H, 0, 0, 0

   Maximum stack usage in bytes:

     Function                     CSTACK
     --------                     ------
     CreateGuiList(BOOK *)          224
     Escape(MyBOOK *, bool)          40
     OnAuthor(BOOK *, GUI *)        220
     OnBackExitGui(BOOK *, GUI *)     8
     OnBackGui(BOOK *, GUI *)         4
     OnDelGui(BOOK *, GUI *)         28
     OnSelectGui(BOOK *, GUI *)      32
     OnYesExitGui(BOOK *, GUI *)      8
     RemoveItem(int)                 12
     TryToUpdate()                    4
     main_OnEnter(void *, BOOK *)     4
     onSave(BOOK *, GUI *)            4
     onSkin(BOOK *, GUI *)            4
     openeditor(BOOK *)               8


   Segment part sizes:

     Function/Label                 Bytes
     --------------                 -----
     TryToUpdate()                    56
     RemoveItem(int)                 212
     OnDelGui(BOOK *, GUI *)         712
     g_save                            5
     OnYesExitGui(BOOK *, GUI *)      52
     OnBackExitGui(BOOK *, GUI *)     32
     Escape(MyBOOK *, bool)          320
     OnBackGui(BOOK *, GUI *)          8
     onSkin(BOOK *, GUI *)            20
     OnAuthor(BOOK *, GUI *)         108
     onSave(BOOK *, GUI *)            24
     OnSelectGui(BOOK *, GUI *)      788
     CreateGuiList(BOOK *)           712
     openeditor(BOOK *)               24
     main_OnEnter(void *, BOOK *)     20
     bk_msglst_main                   16
     ?<Constant L"\x44\x45\x46\x41\x55\x4c\x54">
                                     284
     ??DataTable6                      4
     ??DataTable8                      4
     ??DataTable11                     4
     ??DataTable12                     4
     ??DataTable13                     4
     ?<Constant "Softkeys_Main">      16
     ?<Constant L"\x41\x64\x76\x53\x6f\x66\x74\x6b\
                                      32
     ?<Constant L"\x4f\x70\x74\x69\x6f\x6e\x73\x20\
                                      88
     ?<Constant L"\x53\x6f\x66\x74\x45\x64\x69\x74\
                                      68
      Others                         116

 
 3 212 bytes in segment CODE
   488 bytes in segment DATA_C
     5 bytes in segment DATA_Z
    16 bytes in segment DYN_PAGE
    12 bytes in segment INITTAB
 
 3 108 bytes of CODE  memory (+ 116 bytes shared)
   504 bytes of CONST memory
     5 bytes of DATA  memory

Errors: none
Warnings: none
