##############################################################################
#                                                                            #
# IAR ARM ANSI C/C++ Compiler V4.42A/W32 EVALUATION    10/Jun/2013  23:05:14 #
# Copyright 1999-2005 IAR Systems. All rights reserved.                      #
#                                                                            #
#    Cpu mode        =  interwork                                            #
#    Endian          =  little                                               #
#    Stack alignment =  4                                                    #
#    Source file     =  Z:\home\perk11\www\perk11.info\svn\SE\SCalka\main.c  #
#    Command line    =  Z:\home\perk11\www\perk11.info\svn\SE\SCalka\main.c  #
#                       -D NO_AP_ASSERT -D NDEBUG -D OLDFUNCTIONS -lCN       #
#                       Z:\home\perk11\www\perk11.info\svn\SE\SCalka\Release #
#                       \List\ -la Z:\home\perk11\www\perk11.info\svn\SE\SCa #
#                       lka\Release\List\ -o Z:\home\perk11\www\perk11.info\ #
#                       svn\SE\SCalka\Release\Obj\ -s9 --no_unroll           #
#                       --no_code_motion --cpu_mode arm --endian little      #
#                       --cpu ARM926EJ-S --stack_align 4 --interwork -e      #
#                       --fpu None --eec++ --dlib_config                     #
#                       Z:\home\perk11\IAR2\arm\LIB\dl5tpainl8n.h -I         #
#                       Z:\home\perk11\IAR2\arm\INC\ --inline_threshold=2    #
#    List file       =  Z:\home\perk11\www\perk11.info\svn\SE\SCalka\Release #
#                       \List\main.lst                                       #
#    Object file     =  Z:\home\perk11\www\perk11.info\svn\SE\SCalka\Release #
#                       \Obj\main.r79                                        #
#                                                                            #
#                                                                            #
##############################################################################

Z:\home\perk11\www\perk11.info\svn\SE\SCalka\main.c
      1          #include "..\\include\Lib_Clara.h"
      2          #include "..\\include\Dir.h"
      3          #include "main.h"
      4          #include "calc_menu.h"
      5          #include "calc_object.h"
      6          

   \                                 In segment DYN_PAGE, align 4, align-sorted
      7          const PAGE_MSG bk_msglst_base[] @ "DYN_PAGE"  = 
   \                     bk_msglst_base:
   \   00000000   E5030000....       DC32 997, ??MainPageOnTerminate, 64, 0H
   \              ....40000000
   \              00000000    
      8          {
      9            ELF_TERMINATE_EVENT,     MainPageOnTerminate,
     10            NIL_EVENT_TAG,           NULL
     11          };
     12          

   \                                 In segment DYN_PAGE, align 4, align-sorted
     13          const PAGE_MSG bk_msglst_main[] @ "DYN_PAGE"  = 
   \                     bk_msglst_main:
   \   00000000   42000000....       DC32 66, ??MainPageOnCreate, 67, ??MainPageOnClose, 64, 0H
   \              ....43000000
   \              ........4000
   \              000000000000
     14          {
     15            PAGE_ENTER_EVENT_TAG,    MainPageOnCreate,
     16            PAGE_EXIT_EVENT_TAG,     MainPageOnClose,
     17            NIL_EVENT_TAG,           NULL
     18          };
     19          

   \                                 In segment DATA_C, align 4, align-sorted
   \                     `?<Constant "SCalka">`:
   \   00000000   5343616C6B61       DC8 "SCalka"
   \              00          
   \   00000007   00                 DC8 0
   \   00000008   ........0000       DC32 `?<Constant "SCalka_Base_Page">`, 0H, bk_msglst_base
   \              0000........
   \   00000014   ........0000       DC32 `?<Constant "SCalka_Main_Page">`, 0H, bk_msglst_main
   \              0000........
     20          const PAGE_DESC bk_base = {"SCalka_Base_Page",0,bk_msglst_base};
     21          const PAGE_DESC bk_main = {"SCalka_Main_Page",0,bk_msglst_main};
     22          
     23          #pragma segment="ELFBEGIN"

   \                                 In segment CODE, align 4, keep-with-next
     24          void elf_exit(void){
   \                     ??elf_exit:
   \   00000000   00402DE9           PUSH     {LR}
     25            kill_data(__segment_begin("ELFBEGIN"), (void(*)(void*))mfree_adr());
   \   00000004   048100EF           SWI      +33028
   \   00000008   0010A0E1           MOV      R1,R0
   \   0000000C   04009FE5           LDR      R0,??elf_exit_1  ;; SFB(ELFBEGIN)
   \   00000010   0040BDE8           POP      {LR}             ;; Pop
   \   00000014   ........           _BF      kill_data,??kill_data??rA  ;; tailcall
   \                     ??elf_exit_1:
   \   00000018   ........           DC32     SFB(ELFBEGIN)
     26          }
     27          
     28          

   \                                 In segment CODE, align 4, keep-with-next
     29          void win12512unicode(wchar_t *ws, const char *s, int len)
     30          {
   \                     ??win12512unicode:
   \   00000000   040000EA           B        ??win12512unicode_1
     31            int c;
     32            while((c=*s++)&&((len--)>0))
     33            {
     34              if (c==0xA8) c=0x401;
     35              if (c==0xAA) c=0x404;
     36              if (c==0xAF) c=0x407;
     37              if (c==0xB8) c=0x451;
     38              if (c==0xBA) c=0x454;
     39              if (c==0xBF) c=0x457;
     40              if ((c>=0xC0)&&(c<0x100)) c+=0x350;
   \                     ??win12512unicode_2:
   \   00000004   C00053E3           CMP      R3,#+192
   \   00000008   010000BA           BLT      ??win12512unicode_3
   \   0000000C   400F53E3           CMP      R3,#+256
   \   00000010   D43F83B2           ADDLT    R3,R3,#+848
     41              *ws++=c;
   \                     ??win12512unicode_3:
   \   00000014   ........           STRH     R3,[R0], #+2
   \                     ??win12512unicode_1:
   \   00000018   ........           LDRB     R3,[R1], #+1
   \   0000001C   000053E3           CMP      R3,#+0
   \   00000020   1900000A           BEQ      ??win12512unicode_4
   \   00000024   02C0A0E1           MOV      R12,R2
   \   00000028   01204CE2           SUB      R2,R12,#+1
   \   0000002C   01005CE3           CMP      R12,#+1
   \   00000030   150000BA           BLT      ??win12512unicode_4
   \   00000034   A80053E3           CMP      R3,#+168
   \   00000038   0200001A           BNE      ??win12512unicode_5
   \   0000003C   0130A0E3           MOV      R3,#+1
   \                     ??win12512unicode_6:
   \   00000040   403E83E3           ORR      R3,R3,#0x400
   \   00000044   F2FFFFEA           B        ??win12512unicode_3
   \                     ??win12512unicode_5:
   \   00000048   AA0053E3           CMP      R3,#+170
   \   0000004C   0430A003           MOVEQ    R3,#+4
   \   00000050   FAFFFF0A           BEQ      ??win12512unicode_6
   \   00000054   AF0053E3           CMP      R3,#+175
   \   00000058   0100001A           BNE      ??win12512unicode_7
   \   0000005C   0730A0E3           MOV      R3,#+7
   \                     ??win12512unicode_8:
   \   00000060   F6FFFFEA           B        ??win12512unicode_6
   \                     ??win12512unicode_7:
   \   00000064   B80053E3           CMP      R3,#+184
   \   00000068   5130A003           MOVEQ    R3,#+81
   \   0000006C   F3FFFF0A           BEQ      ??win12512unicode_6
   \   00000070   BA0053E3           CMP      R3,#+186
   \   00000074   5430A003           MOVEQ    R3,#+84
   \   00000078   F0FFFF0A           BEQ      ??win12512unicode_6
   \   0000007C   BF0053E3           CMP      R3,#+191
   \   00000080   DFFFFF1A           BNE      ??win12512unicode_2
   \   00000084   5730A0E3           MOV      R3,#+87
   \   00000088   ECFFFFEA           B        ??win12512unicode_6
     42            }
     43            *ws=0;
   \                     ??win12512unicode_4:
   \   0000008C   0010A0E3           MOV      R1,#+0
   \   00000090   B010C0E1           STRH     R1,[R0, #+0]
     44          }
   \   00000094   1EFF2FE1           BX       LR               ;; return
     45          

   \                                 In segment CODE, align 4, keep-with-next
     46          char *unicode2win1251(char *s, wchar_t *ws, int len)
     47          {
   \                     ??unicode2win1251:
   \   00000000   10002DE9           PUSH     {R4}
     48            char *d=s;
   \   00000004   0030A0E1           MOV      R3,R0
   \   00000008   060000EA           B        ??unicode2win1251_1
     49            int c;
     50            while((c=*ws++)&&((len--)>0))
     51            {
     52              if (c==0x401) c=0xA8;
     53              if (c==0x404) c=0xAA;
     54              if (c==0x407) c=0xAF;
     55              if (c==0x451) c=0xB8;
     56              if (c==0x454) c=0xBA;
     57              if (c==0x457) c=0xBF;
     58              if ((c>=0x410)&&(c<0x450)) c-=0x350;
   \                     ??unicode2win1251_2:
   \   0000000C   410E5CE3           CMP      R12,#+1040
   \   00000010   030000BA           BLT      ??unicode2win1251_3
   \   00000014   450E5CE3           CMP      R12,#+1104
   \   00000018   4F40E0B3           MVNLT    R4,#+79
   \   0000001C   C04FC4B3           BICLT    R4,R4,#0x300
   \   00000020   0CC084B0           ADDLT    R12,R4,R12
     59              *s++=c;
   \                     ??unicode2win1251_3:
   \   00000024   ........           STRB     R12,[R0], #+1
   \                     ??unicode2win1251_1:
   \   00000028   ........           LDRH     R12,[R1], #+2
   \   0000002C   00005CE3           CMP      R12,#+0
   \   00000030   1D00000A           BEQ      ??unicode2win1251_4
   \   00000034   0240A0E1           MOV      R4,R2
   \   00000038   012044E2           SUB      R2,R4,#+1
   \   0000003C   010054E3           CMP      R4,#+1
   \   00000040   190000BA           BLT      ??unicode2win1251_4
   \   00000044   0140A0E3           MOV      R4,#+1
   \   00000048   404E84E3           ORR      R4,R4,#0x400
   \   0000004C   04005CE1           CMP      R12,R4
   \   00000050   A8C0A003           MOVEQ    R12,#+168
   \   00000054   F2FFFF0A           BEQ      ??unicode2win1251_3
   \   00000058   034084E2           ADD      R4,R4,#+3
   \   0000005C   04005CE1           CMP      R12,R4
   \   00000060   AAC0A003           MOVEQ    R12,#+170
   \   00000064   EEFFFF0A           BEQ      ??unicode2win1251_3
   \   00000068   034084E3           ORR      R4,R4,#0x3
   \   0000006C   04005CE1           CMP      R12,R4
   \   00000070   AFC0A003           MOVEQ    R12,#+175
   \   00000074   EAFFFF0A           BEQ      ??unicode2win1251_3
   \   00000078   4A4084E2           ADD      R4,R4,#+74
   \   0000007C   04005CE1           CMP      R12,R4
   \   00000080   B8C0A003           MOVEQ    R12,#+184
   \   00000084   E6FFFF0A           BEQ      ??unicode2win1251_3
   \   00000088   034084E2           ADD      R4,R4,#+3
   \   0000008C   04005CE1           CMP      R12,R4
   \   00000090   BAC0A003           MOVEQ    R12,#+186
   \   00000094   E2FFFF0A           BEQ      ??unicode2win1251_3
   \   00000098   034084E3           ORR      R4,R4,#0x3
   \   0000009C   04005CE1           CMP      R12,R4
   \   000000A0   D9FFFF1A           BNE      ??unicode2win1251_2
   \   000000A4   BFC0A0E3           MOV      R12,#+191
   \   000000A8   DDFFFFEA           B        ??unicode2win1251_3
     60            }
     61            *s=0;
   \                     ??unicode2win1251_4:
   \   000000AC   0010A0E3           MOV      R1,#+0
   \   000000B0   0010C0E5           STRB     R1,[R0, #+0]
     62            return(d);
   \   000000B4   1000BDE8           POP      {R4}
   \   000000B8   0300A0E1           MOV      R0,R3
   \   000000BC   1EFF2FE1           BX       LR               ;; return
     63          }
     64          
     65          // при закрытии книги

   \                                 In segment CODE, align 4, keep-with-next
     66          static void onMyBookClose(BOOK * book)
     67          {
     68            SUBPROC(elf_exit);
   \                     ??onMyBookClose:
   \   00000000   ........           LDR      R0,??DataTable3  ;; ??elf_exit
   \   00000004   00402DE9           PUSH     {LR}
   \   00000008   080100EF           SWI      +264
     69          }
   \   0000000C   0080BDE8           POP      {PC}             ;; return
     70          

   \                                 In segment CODE, align 4, keep-with-next
     71          int isScalkaBook(BOOK * struc)
     72          {
     73            return(struc->onClose==onMyBookClose);
   \                     ??isScalkaBook:
   \   00000000   040090E5           LDR      R0,[R0, #+4]
   \   00000004   ........           LDR      R1,??DataTable2  ;; ??onMyBookClose
   \   00000008   010050E1           CMP      R0,R1
   \   0000000C   0100A003           MOVEQ    R0,#+1
   \   00000010   1EFF2F01           BXEQ     LR
   \   00000014   0000A0E3           MOV      R0,#+0
   \   00000018   1EFF2FE1           BX       LR               ;; return
     74          }
     75          

   \                                 In segment CODE, align 4, keep-with-next
     76          void CloseMyBook(BOOK * bk, void *)
     77          {
   \                     ??CloseMyBook:
   \   00000000   00402DE9           PUSH     {LR}
     78            FreeBook(bk);
   \   00000004   2F0100EF           SWI      +303
     79          };
   \   00000008   0080BDE8           POP      {PC}             ;; return
     80          

   \                                 In segment CODE, align 4, keep-with-next
     81          static int MainPageOnCreate(void *, BOOK *bk)
     82          {
   \                     ??MainPageOnCreate:
   \   00000000   30402DE9           PUSH     {R4,R5,LR}
   \   00000004   0140A0E1           MOV      R4,R1
     83            MyBOOK *mbk=(MyBOOK *)bk;
     84            ReadCalcSettings();
   \   00000008   ........           _BLF     ??ReadCalcSettings,??ReadCalcSettings??rA
     85            GUI * si=CreateCalkGUI(bk);
   \   0000000C   0400A0E1           MOV      R0,R4
   \   00000010   ........           _BLF     ??CreateCalkGUI,??CreateCalkGUI??rA
   \   00000014   0050A0E1           MOV      R5,R0
     86            GUIObject_Show(si);
   \   00000018   340100EF           SWI      +308
     87            mbk->si=si;
   \   0000001C   185084E5           STR      R5,[R4, #+24]
     88            return (1);
   \   00000020   0100A0E3           MOV      R0,#+1
   \   00000024   3080BDE8           POP      {R4,R5,PC}       ;; return
     89          }
     90          

   \                                 In segment CODE, align 4, keep-with-next
     91          static int MainPageOnClose(void *, BOOK *bk)
     92          {
   \                     ??MainPageOnClose:
   \   00000000   10402DE9           PUSH     {R4,LR}
   \   00000004   0140A0E1           MOV      R4,R1
     93            MyBOOK *mbk=(MyBOOK *)bk;
     94            WriteCalcSettings();
   \   00000008   ........           _BLF     ??WriteCalcSettings,??WriteCalcSettings??rA
     95            FREE_GUI(mbk->si);
   \   0000000C   180094E5           LDR      R0,[R4, #+24]
   \   00000010   000050E3           CMP      R0,#+0
   \   00000014   0100000A           BEQ      ??MainPageOnClose_1
   \   00000018   CE0100EF           SWI      +462
   \   0000001C   180084E5           STR      R0,[R4, #+24]
     96            return (1);
   \                     ??MainPageOnClose_1:
   \   00000020   0100A0E3           MOV      R0,#+1
   \   00000024   1080BDE8           POP      {R4,PC}          ;; return
     97          }
     98          

   \                                 In segment CODE, align 4, keep-with-next
     99          static int MainPageOnTerminate(void *, BOOK *bk)
    100          {
   \                     ??MainPageOnTerminate:
   \   00000000   00402DE9           PUSH     {LR}
   \   00000004   0100A0E1           MOV      R0,R1
    101              FreeBook(bk);
   \   00000008   2F0100EF           SWI      +303
    102              return 1;
   \   0000000C   0100A0E3           MOV      R0,#+1
   \   00000010   0080BDE8           POP      {PC}             ;; return
    103          }
    104          

   \                                 In segment CODE, align 4, keep-with-next
    105          int main()
    106          {
   \                     main:
   \   00000000   10402DE9           PUSH     {R4,LR}
    107            MyBOOK * myBook=new MyBOOK;
   \   00000004   3400A0E3           MOV      R0,#+52
   \   00000008   ........           _BLF     `??operator new`,`??operator new??rA`
   \   0000000C   0040A0E1           MOV      R4,R0
    108            memset(myBook,0,sizeof(MyBOOK));
   \   00000010   3420A0E3           MOV      R2,#+52
   \   00000014   0010A0E3           MOV      R1,#+0
   \   00000018   120100EF           SWI      +274
    109            if (!CreateBook((BOOK*)myBook,onMyBookClose,&bk_base,"SCalka",-1,0))
   \   0000001C   58009FE5           LDR      R0,??main_0      ;; `?<Constant "SCalka">`
   \   00000020   0010A0E3           MOV      R1,#+0
   \   00000024   02002DE9           PUSH     {R1}
   \   00000028   0030A0E1           MOV      R3,R0
   \   0000002C   082080E2           ADD      R2,R0,#+8
   \   00000030   0400A0E1           MOV      R0,R4
   \   00000034   0110E0E1           MVN      R1,R1
   \   00000038   02002DE9           PUSH     {R1}
   \   0000003C   ........           LDR      R1,??DataTable2  ;; ??onMyBookClose
   \   00000040   2B0100EF           SWI      +299
   \   00000044   000050E3           CMP      R0,#+0
   \   00000048   08D08DE2           ADD      SP,SP,#+8
   \   0000004C   0500001A           BNE      ??main_1
    110            {
    111              delete myBook;
   \   00000050   0400A0E1           MOV      R0,R4
   \   00000054   ........           _BLF     `??operator delete`,`??operator delete??rA`
    112              SUBPROC(elf_exit);
   \   00000058   ........           LDR      R0,??DataTable3  ;; ??elf_exit
   \   0000005C   080100EF           SWI      +264
    113              return (0);    
   \   00000060   0000A0E3           MOV      R0,#+0
   \   00000064   1080BDE8           POP      {R4,PC}
    114            }
    115            BookObj_GotoPage((BOOK *)myBook,&bk_main);
   \                     ??main_1:
   \   00000068   10109FE5           LDR      R1,??main_0+0x4  ;; `?<Constant "SCalka">` + 20
   \   0000006C   0400A0E1           MOV      R0,R4
   \   00000070   2D0100EF           SWI      +301
    116            return 0;
   \   00000074   0000A0E3           MOV      R0,#+0
   \   00000078   1080BDE8           POP      {R4,PC}          ;; return
   \                     ??main_0:
   \   0000007C   ........           DC32     `?<Constant "SCalka">`
   \   00000080   ........           DC32     `?<Constant "SCalka">` + 20
    117          }

   \                                 In segment CODE, align 4, keep-with-next
   \                     ??DataTable2:
   \   00000000   ........           DC32     ??onMyBookClose

   \                                 In segment CODE, align 4, keep-with-next
   \                     ??DataTable3:
   \   00000000   ........           DC32     ??elf_exit

   \                                 In segment ELFBEGIN, align 1

   \                                 In segment DATA_C, align 4, align-sorted
   \                     `?<Constant "SCalka_Base_Page">`:
   \   00000000   5343616C6B61       DC8 "SCalka_Base_Page"
   \              5F426173655F
   \              5061676500  
   \   00000011   000000             DC8 0, 0, 0

   \                                 In segment DATA_C, align 4, align-sorted
   \                     `?<Constant "SCalka_Main_Page">`:
   \   00000000   5343616C6B61       DC8 "SCalka_Main_Page"
   \              5F4D61696E5F
   \              5061676500  
   \   00000011   000000             DC8 0, 0, 0

   Maximum stack usage in bytes:

     Function                       CSTACK
     --------                       ------
     CloseMyBook(BOOK *, void *)        4
     MainPageOnClose(void *, BOOK *)
                                        8
     MainPageOnCreate(void *, BOOK *)
                                       12
     MainPageOnTerminate(void *, BOOK *)
                                        4
     elf_exit()                         4
     isScalkaBook(BOOK *)               0
     main()                            16
     onMyBookClose(BOOK *)              4
     unicode2win1251(char *, wchar_t *, int)
                                        4
     win12512unicode(wchar_t *, char const *, int)
                                        0


   Segment part sizes:

     Function/Label                 Bytes
     --------------                 -----
     bk_msglst_base                   16
     bk_msglst_main                   24
     ?<Constant "SCalka">             32
     elf_exit()                       28
     win12512unicode(wchar_t *, char const *, int)
                                     152
     unicode2win1251(char *, wchar_t *, int)
                                     192
     onMyBookClose(BOOK *)            16
     isScalkaBook(BOOK *)             28
     CloseMyBook(BOOK *, void *)      12
     MainPageOnCreate(void *, BOOK *)
                                      40
     MainPageOnClose(void *, BOOK *)
                                      40
     MainPageOnTerminate(void *, BOOK *)
                                      20
     main()                          132
     ??DataTable2                      4
     ??DataTable3                      4
     ?<Constant "SCalka_Base_Page">   20
     ?<Constant "SCalka_Main_Page">   20
      Others                         112

 
 780 bytes in segment CODE
  72 bytes in segment DATA_C
  40 bytes in segment DYN_PAGE
 
 668 bytes of CODE  memory (+ 112 bytes shared)
 112 bytes of CONST memory

Errors: none
Warnings: none
