##############################################################################
#                                                                            #
# IAR ARM ANSI C/C++ Compiler V4.42A/W32 EVALUATION    10/Jun/2013  22:43:43 #
# Copyright 1999-2005 IAR Systems. All rights reserved.                      #
#                                                                            #
#    Cpu mode        =  interwork                                            #
#    Endian          =  little                                               #
#    Stack alignment =  4                                                    #
#    Source file     =  Z:\home\perk11\www\perk11.info\svn\SE\Management     #
#                       headset\main.c                                       #
#    Command line    =  "Z:\home\perk11\www\perk11.info\svn\SE\Management    #
#                       headset\main.c" -D NDEBUG -lC                        #
#                       "Z:\home\perk11\www\perk11.info\svn\SE\Management    #
#                       headset\Release\List\" -lA                           #
#                       "Z:\home\perk11\www\perk11.info\svn\SE\Management    #
#                       headset\Release\List\" -o                            #
#                       "Z:\home\perk11\www\perk11.info\svn\SE\Management    #
#                       headset\Release\Obj\" -s9 --no_unroll --no_inline    #
#                       --cpu_mode arm --endian little --cpu ARM926EJ-S      #
#                       --stack_align 4 --interwork -e --fpu None --eec++    #
#                       --dlib_config Z:\home\perk11\IAR2\arm\LIB\dl5tpainl8 #
#                       n.h -I Z:\home\perk11\IAR2\arm\INC\                  #
#    List file       =  Z:\home\perk11\www\perk11.info\svn\SE\Management     #
#                       headset\Release\List\main.lst                        #
#    Object file     =  Z:\home\perk11\www\perk11.info\svn\SE\Management     #
#                       headset\Release\Obj\main.r79                         #
#                                                                            #
#                                                                            #
##############################################################################

Z:\home\perk11\www\perk11.info\svn\SE\Management headset\main.c
      1          #include "..\\include\Lib_Clara.h"

   \                                 In segment CODE, align 4, keep-with-next
   \   __??Code32?? __code __interwork __atpcs LPARAM::LPARAM(int)
   \                     ??LPARAM:
   \   00000000   001080E5           STR      R1,[R0, #+0]
   \   00000004   1EFF2FE1           BX       LR               ;; return
      2          #include "..\\include\Dir.h"
      3          #include "..\\include\cfg_items.h"
      4          #include "config_data.h"
      5          #include "conf_loader.h"
      6          
      7          #define ELFNAME "Management"
      8          #define ABOUT L"Management\nv.3\n\n(c)Ploik & BigHercules"
      9          
     10          enum mode_t {
     11              SHORT_PRESS  = 0,
     12              LONG_PRESS   = 1,
     13              DOUBLE_PRESS = 2
     14          };
     15          

   \                                 In segment DATA_I, align 4, align-sorted
     16          static char myappname[]=ELFNAME;
   \                     myappname:
   \   00000000                      DS8 12
   \   0000000C                      REQUIRE `?<Initializer for myappname>`
     17          

   \                                 In segment DATA_Z, align 4, align-sorted
     18          BOOK * AP = 0;
     19          BOOK * FM = 0;
     20          
     21          int dbl   = 0;
     22          u16 timer = 0;
   \                     timer:
   \   00000000                      DS8 2
     23          u16 timer_call_off = 0;
   \                     timer_call_off:
   \   00000002                      DS8 2
   \                     AP:
   \   00000004                      DS8 4
   \                     FM:
   \   00000008                      DS8 4
   \                     dbl:
   \   0000000C                      DS8 4

   \                                 In segment DATA_Z, align 4, align-sorted
     24          int Connect = 0;
   \                     Connect:
   \   00000000                      DS8 4
     25          
     26          int NewKey(int key, int r1 , int mode, LPARAM, DISP_OBJ*);
     27          int ControlKey(int key, int r1 , int mode, LPARAM, DISP_OBJ*);
     28          

   \                                 In segment CODE, align 4, keep-with-next
     29          int isMTCallBook(BOOK *bk)
     30          {
     31            if (strcmp(bk->xbook->name,"MTCallBook")==0) { return 1; }
   \                     ??isMTCallBook:
   \   00000000   20109FE5           LDR      R1,??isMTCallBook_1  ;; `?<Constant "MTCallBook">`
   \   00000004   00402DE9           PUSH     {LR}
   \   00000008   000090E5           LDR      R0,[R0, #+0]
   \   0000000C   040090E5           LDR      R0,[R0, #+4]
   \   00000010   590100EF           SWI      +345
   \   00000014   000050E3           CMP      R0,#+0
   \   00000018   0100A003           MOVEQ    R0,#+1
   \   0000001C   0080BD08           POPEQ    {PC}
     32            else { return 0; }
   \   00000020   0000A0E3           MOV      R0,#+0
   \   00000024   0080BDE8           POP      {PC}             ;; return
   \                     ??isMTCallBook_1:
   \   00000028   ........           DC32     `?<Constant "MTCallBook">`
     33          };
     34          

   \                                 In segment CODE, align 4, keep-with-next
     35          int OnAccChangedEvent(void* r0,BOOK* b)
     36          {
   \                     ??OnAccChangedEvent:
   \   00000000   10402DE9           PUSH     {R4,LR}
     37            AP = FindBook(get_IsAudioPlayerBook());
   \   00000004   ........           LDR      R4,??DataTable27  ;; timer
   \   00000008   8B8200EF           SWI      +33419
   \   0000000C   300100EF           SWI      +304
   \   00000010   040084E5           STR      R0,[R4, #+4]
     38            FM = FindBook(get_IsFmRadioBook());
   \   00000014   8A8200EF           SWI      +33418
   \   00000018   300100EF           SWI      +304
   \   0000001C   080084E5           STR      R0,[R4, #+8]
     39            
     40           //if (PHF_GetState ())
     41            //{
     42            if(!AP && !FM && turn_on==1)
   \   00000020   040094E5           LDR      R0,[R4, #+4]
   \   00000024   000050E3           CMP      R0,#+0
   \   00000028   08009405           LDREQ    R0,[R4, #+8]
   \   0000002C   00005003           CMPEQ    R0,#+0
   \   00000030   0A00001A           BNE      ??OnAccChangedEvent_1
   \   00000034   2C009FE5           LDR      R0,??OnAccChangedEvent_2  ;; turn_on
   \   00000038   000090E5           LDR      R0,[R0, #+0]
   \   0000003C   010050E3           CMP      R0,#+1
   \   00000040   0600001A           BNE      ??OnAccChangedEvent_1
     43            {
     44              if(turn_on_pr==0)
   \   00000044   20009FE5           LDR      R0,??OnAccChangedEvent_2+0x4  ;; turn_on_pr
   \   00000048   000090E5           LDR      R0,[R0, #+0]
   \   0000004C   000050E3           CMP      R0,#+0
     45              {
     46                 UI_Event(UI_MEDIAPLAYER_CONTROL_EVENT);
   \   00000050   ........           LDREQ    R0,??DataTable17  ;; UI_MEDIAPLAYER_CONTROL_EVENT
     47              }
     48               else
     49              {
     50                 UI_Event(UI_FMRADIO_CONTROL_EVENT);
   \   00000054   ........           LDRNE    R0,??DataTable18  ;; UI_FMRADIO_CONTROL_EVENT
   \   00000058   000090E5           LDR      R0,[R0, #+0]
   \   0000005C   A80100EF           SWI      +424
     51              }
     52             //}
     53           }
     54              return (1);      
   \                     ??OnAccChangedEvent_1:
   \   00000060   0100A0E3           MOV      R0,#+1
   \   00000064   1080BDE8           POP      {R4,PC}          ;; return
   \                     ??OnAccChangedEvent_2:
   \   00000068   ........           DC32     turn_on
   \   0000006C   ........           DC32     turn_on_pr
     55          }
     56          

   \                                 In segment CODE, align 4, keep-with-next
     57          int OffAccChangedEvent(void* r0,BOOK* b)
     58          {
   \                     ??OffAccChangedEvent:
   \   00000000   10402DE9           PUSH     {R4,LR}
     59            AP = FindBook(get_IsAudioPlayerBook());
   \   00000004   ........           LDR      R4,??DataTable27  ;; timer
   \   00000008   8B8200EF           SWI      +33419
   \   0000000C   300100EF           SWI      +304
   \   00000010   040084E5           STR      R0,[R4, #+4]
     60            FM = FindBook(get_IsFmRadioBook());
   \   00000014   8A8200EF           SWI      +33418
   \   00000018   300100EF           SWI      +304
   \   0000001C   080084E5           STR      R0,[R4, #+8]
     61            
     62            if(AP && FM && turn_off==1)
   \   00000020   040094E5           LDR      R0,[R4, #+4]
   \   00000024   000050E3           CMP      R0,#+0
   \   00000028   08009415           LDRNE    R0,[R4, #+8]
   \   0000002C   00005013           CMPNE    R0,#+0
   \   00000030   0400000A           BEQ      ??OffAccChangedEvent_1
   \   00000034   14009FE5           LDR      R0,??OffAccChangedEvent_2  ;; turn_off
   \   00000038   000090E5           LDR      R0,[R0, #+0]
   \   0000003C   010050E3           CMP      R0,#+1
   \   00000040   0000001A           BNE      ??OffAccChangedEvent_1
     63            {
     64              GoMusic();
   \   00000044   470200EF           SWI      +583
     65            }
     66              return (1);    
   \                     ??OffAccChangedEvent_1:
   \   00000048   0100A0E3           MOV      R0,#+1
   \   0000004C   1080BDE8           POP      {R4,PC}          ;; return
   \                     ??OffAccChangedEvent_2:
   \   00000050   ........           DC32     turn_off
     67          }
     68          

   \                                 In segment CODE, align 4, keep-with-next
     69          int isManagementBook(BOOK * book)
     70          {
     71                  if(!strcmp(book->xbook->name,myappname)) return true;
   \                     ??isManagementBook:
   \   00000000   20109FE5           LDR      R1,??isManagementBook_1  ;; myappname
   \   00000004   00402DE9           PUSH     {LR}
   \   00000008   000090E5           LDR      R0,[R0, #+0]
   \   0000000C   040090E5           LDR      R0,[R0, #+4]
   \   00000010   590100EF           SWI      +345
   \   00000014   000050E3           CMP      R0,#+0
   \   00000018   0100A003           MOVEQ    R0,#+1
   \   0000001C   0080BD08           POPEQ    {PC}
     72                  return false;
   \   00000020   0000A0E3           MOV      R0,#+0
   \   00000024   0080BDE8           POP      {PC}             ;; return
   \                     ??isManagementBook_1:
   \   00000028   ........           DC32     myappname
     73          }
     74          
     75          BOOK * ManagementBook;
     76          

   \                                 In segment CODE, align 4, keep-with-next
     77          int TerminateElf(void * ,BOOK* book)
     78          {
   \                     ??TerminateElf:
   \   00000000   00402DE9           PUSH     {LR}
   \   00000004   0100A0E1           MOV      R0,R1
     79                  FreeBook(book);
   \   00000008   2F0100EF           SWI      +303
     80                  return(1);
   \   0000000C   0100A0E3           MOV      R0,#+1
   \   00000010   0080BDE8           POP      {PC}             ;; return
     81          }
     82          
     83          typedef struct
     84          {
     85                  BOOK * book;
     86          }MSG;
     87          

   \                                 In segment CODE, align 4, keep-with-next
     88          int ShowAuthorInfo(void *mess ,BOOK* book)
     89          {
   \                     ??ShowAuthorInfo:
   \   00000000   30402DE9           PUSH     {R4,R5,LR}
     90                   MSG * msg = (MSG*)mess;
     91                   MessageBox(EMPTY_TEXTID, TextID_Create(ABOUT, ENC_UCS2, TEXTID_ANY_LEN), NOIMAGE, 1, 5000, msg->book);
   \   00000004   0010A0E3           MOV      R1,#+0
   \   00000008   0040A0E1           MOV      R4,R0
   \   0000000C   3C009FE5           LDR      R0,??ShowAuthorInfo_1  ;; `?<Constant L"\\x4d\\x61\\x6e\\x61\\x67\\x65\\x6d\\x65\\`
   \   00000010   FF50A0E3           MOV      R5,#+255
   \   00000014   FF5C85E3           ORR      R5,R5,#0xFF00
   \   00000018   0520A0E1           MOV      R2,R5
   \   0000001C   5D0100EF           SWI      +349
   \   00000020   001094E5           LDR      R1,[R4, #+0]
   \   00000024   0130A0E3           MOV      R3,#+1
   \   00000028   02002DE9           PUSH     {R1}
   \   0000002C   0520A0E1           MOV      R2,R5
   \   00000030   8810A0E3           MOV      R1,#+136
   \   00000034   4C1D81E3           ORR      R1,R1,#0x1300
   \   00000038   02002DE9           PUSH     {R1}
   \   0000003C   0010A0E1           MOV      R1,R0
   \   00000040   9004E0E3           MVN      R0,#-1879048192
   \   00000044   570200EF           SWI      +599
     92                   return(1);
   \   00000048   0100A0E3           MOV      R0,#+1
   \   0000004C   3680BDE8           POP      {R1,R2,R4,R5,PC}  ;; return
   \                     ??ShowAuthorInfo_1:
   \   00000050   ........           DC32     `?<Constant L"\\x4d\\x61\\x6e\\x61\\x67\\x65\\x6d\\x65\\`
     93          }
     94          

   \                                 In segment CODE, align 4, keep-with-next
     95          void onTimer_Call (u16 timerID, LPARAM lparam)
     96          {
   \                     ??onTimer_Call:
   \   00000000   00402DE9           PUSH     {LR}
   \   00000004   04D04DE2           SUB      SP,SP,#+4
     97              ModifyKeyHook(NewKey,KEY_HOOK_ADD,NULL);
   \   00000008   0010A0E3           MOV      R1,#+0
   \   0000000C   0D00A0E1           MOV      R0,SP
   \   00000010   ........           _BLF     ??LPARAM,??LPARAM??rA
   \   00000014   00209DE5           LDR      R2,[SP, #+0]
   \   00000018   ........           LDR      R0,??DataTable40  ;; ??NewKey
   \   0000001C   0110A0E3           MOV      R1,#+1
   \   00000020   070100EF           SWI      +263
     98          }
   \   00000024   0180BDE8           POP      {R0,PC}          ;; return
     99          
    100          enum
    101          {
    102                   CALLMANAGER_IDLE            =0,
    103                   CALLMANAGER_CALL_CONNECTED  =1, /*Поднятие трубки*/
    104                   CALLMANAGER_CALL_SETUP      =2, /*Нажатие вызвать*/
    105                   CALLMANAGER_CALL_ALERT      =4, /*Входящий вызов*/
    106                   CALLMANAGER_CALL_WAITING    =5,
    107                   CALLMANAGER_CALL_TERMINATED =6  /*Завершение соединения*/
    108          };
    109          

   \                                 In segment CODE, align 4, keep-with-next
    110          int OnCallManagerEvent(void* r0,BOOK* b)
    111          {
   \                     ??OnCallManagerEvent:
   \   00000000   F0402DE9           PUSH     {R4-R7,LR}
   \   00000004   0CD04DE2           SUB      SP,SP,#+12
   \   00000008   0040A0E1           MOV      R4,R0
    112             int eventdata;
    113             
    114             switch (GetChipID()&CHIPID_MASK)
   \   0000000C   4E0200EF           SWI      +590
   \   00000010   FE0C00E2           AND      R0,R0,#0xFE00
   \   00000014   0008A0E1           MOV      R0,R0, LSL #+16
   \   00000018   4008A0E1           MOV      R0,R0, ASR #+16
   \   0000001C   800C70E3           CMN      R0,#+32768
   \   00000020   680C7013           CMNNE    R0,#+26624
   \   00000024   0600000A           BEQ      ??OnCallManagerEvent_1
   \   00000028   E00D70E3           CMN      R0,#+14336
   \   0000002C   A00D7013           CMNNE    R0,#+10240
   \   00000030   600D7013           CMNNE    R0,#+6144
   \   00000034   400D7013           CMNNE    R0,#+4096
   \   00000038   0300000A           BEQ      ??OnCallManagerEvent_2
   \   0000003C   700C50E3           CMP      R0,#+28672
   \   00000040   0200001A           BNE      ??OnCallManagerEvent_3
    115             {
    116             case CHIPID_DB2000:
    117             case CHIPID_DB2010:
    118             case CHIPID_DB2020:
    119                           eventdata= (((CALLMANAGER_EVENT_DATA*)r0)->CallState);
   \                     ??OnCallManagerEvent_1:
   \   00000044   0250D4E5           LDRB     R5,[R4, #+2]
   \   00000048   000000EA           B        ??OnCallManagerEvent_3
    120                           break;
    121             case CHIPID_DB3150:
    122             case CHIPID_DB3200:
    123             case CHIPID_DB3210:
    124             case CHIPID_DB3350:
    125                           eventdata=(((CALLMANAGER_EVENT_DATA_A2*)r0)->CallState);
   \                     ??OnCallManagerEvent_2:
   \   0000004C   0A50D4E5           LDRB     R5,[R4, #+10]
    126             }
    127                  switch (eventdata)
   \                     ??OnCallManagerEvent_3:
   \   00000050   ........           LDR      R6,??DataTable40  ;; ??NewKey
   \   00000054   ........           LDR      R4,??DataTable35  ;; timer
   \   00000058   ........           LDR      R7,??DataTable37  ;; ??ControlKey
   \   0000005C   015055E2           SUBS     R5,R5,#+1
   \   00000060   0600000A           BEQ      ??OnCallManagerEvent_4
   \   00000064   015055E2           SUBS     R5,R5,#+1
   \   00000068   2400000A           BEQ      ??OnCallManagerEvent_5
   \   0000006C   025055E2           SUBS     R5,R5,#+2
   \   00000070   0B00000A           BEQ      ??OnCallManagerEvent_6
   \   00000074   025055E2           SUBS     R5,R5,#+2
   \   00000078   2B00000A           BEQ      ??OnCallManagerEvent_7
   \   0000007C   060000EA           B        ??OnCallManagerEvent_8
    128                  {
    129                   /*Поднятие трубки*/
    130                   case CALLMANAGER_CALL_CONNECTED:
    131                   {
    132                     ModifyKeyHook(ControlKey,KEY_HOOK_REMOVE,NULL);
   \                     ??OnCallManagerEvent_4:
   \   00000080   0010A0E3           MOV      R1,#+0
   \   00000084   0D00A0E1           MOV      R0,SP
   \   00000088   ........           _BLF     ??LPARAM,??LPARAM??rA
   \   0000008C   00209DE5           LDR      R2,[SP, #+0]
   \   00000090   0010A0E3           MOV      R1,#+0
   \   00000094   0700A0E1           MOV      R0,R7
   \   00000098   070100EF           SWI      +263
   \                     ??OnCallManagerEvent_8:
   \   0000009C   0100A0E3           MOV      R0,#+1
   \   000000A0   FE80BDE8           POP      {R1-R7,PC}
    133                   }
    134                   break;
    135                   /*Входящий вызов*/
    136                   case CALLMANAGER_CALL_ALERT:
    137                   {
    138                    ModifyKeyHook(NewKey,KEY_HOOK_REMOVE,NULL);
   \                     ??OnCallManagerEvent_6:
   \   000000A4   0010A0E3           MOV      R1,#+0
   \   000000A8   08008DE2           ADD      R0,SP,#+8
   \   000000AC   ........           _BLF     ??LPARAM,??LPARAM??rA
   \   000000B0   08209DE5           LDR      R2,[SP, #+8]
   \   000000B4   0010A0E3           MOV      R1,#+0
   \   000000B8   0600A0E1           MOV      R0,R6
   \   000000BC   070100EF           SWI      +263
    139                    ModifyKeyHook(ControlKey,KEY_HOOK_ADD,NULL);
   \   000000C0   0010A0E3           MOV      R1,#+0
   \   000000C4   04008DE2           ADD      R0,SP,#+4
   \   000000C8   ........           _BLF     ??LPARAM,??LPARAM??rA
   \   000000CC   04209DE5           LDR      R2,[SP, #+4]
   \   000000D0   0110A0E3           MOV      R1,#+1
   \   000000D4   0700A0E1           MOV      R0,R7
   \   000000D8   070100EF           SWI      +263
    140                    if(timer)
   \   000000DC   B000D4E1           LDRH     R0,[R4, #+0]
   \   000000E0   000050E3           CMP      R0,#+0
   \   000000E4   1F00000A           BEQ      ??OnCallManagerEvent_9
    141                    {
    142                     Timer_Kill(&timer);
   \                     ??OnCallManagerEvent_10:
   \   000000E8   0400A0E1           MOV      R0,R4
   \   000000EC   2A0100EF           SWI      +298
    143                     timer = 0;
   \   000000F0   0000A0E3           MOV      R0,#+0
   \   000000F4   B000C4E1           STRH     R0,[R4, #+0]
    144                     dbl = 0;
   \   000000F8   0C0084E5           STR      R0,[R4, #+12]
   \   000000FC   E6FFFFEA           B        ??OnCallManagerEvent_8
    145                    }
    146                   }
    147                   break;
    148                   /*Нажатие вызвать*/
    149                   case CALLMANAGER_CALL_SETUP:
    150                   {
    151                    ModifyKeyHook(NewKey,KEY_HOOK_REMOVE,NULL);
   \                     ??OnCallManagerEvent_5:
   \   00000100   0010A0E3           MOV      R1,#+0
   \   00000104   0D00A0E1           MOV      R0,SP
   \   00000108   ........           _BLF     ??LPARAM,??LPARAM??rA
   \   0000010C   00209DE5           LDR      R2,[SP, #+0]
   \   00000110   0010A0E3           MOV      R1,#+0
   \   00000114   0600A0E1           MOV      R0,R6
   \   00000118   070100EF           SWI      +263
    152                    if(timer)
   \   0000011C   B000D4E1           LDRH     R0,[R4, #+0]
   \   00000120   000050E3           CMP      R0,#+0
   \   00000124   EFFFFF1A           BNE      ??OnCallManagerEvent_10
   \   00000128   DBFFFFEA           B        ??OnCallManagerEvent_8
    153                    {
    154                     Timer_Kill(&timer);
    155                     timer = 0;
    156                     dbl = 0;
    157                    }
    158                   }
    159                   break;
    160                   /*Завершение соединения*/
    161                   case CALLMANAGER_CALL_TERMINATED:
    162                   {
    163                    ModifyKeyHook(ControlKey,KEY_HOOK_REMOVE,NULL);
   \                     ??OnCallManagerEvent_7:
   \   0000012C   0010A0E3           MOV      R1,#+0
   \   00000130   0D00A0E1           MOV      R0,SP
   \   00000134   ........           _BLF     ??LPARAM,??LPARAM??rA
   \   00000138   00209DE5           LDR      R2,[SP, #+0]
   \   0000013C   0010A0E3           MOV      R1,#+0
   \   00000140   0700A0E1           MOV      R0,R7
   \   00000144   070100EF           SWI      +263
    164                    timer_call_off=Timer_Set(2000,onTimer_Call,0);
   \   00000148   0010A0E3           MOV      R1,#+0
   \   0000014C   04008DE2           ADD      R0,SP,#+4
   \   00000150   ........           _BLF     ??LPARAM,??LPARAM??rA
   \   00000154   04209DE5           LDR      R2,[SP, #+4]
   \   00000158   10109FE5           LDR      R1,??OnCallManagerEvent_11  ;; ??onTimer_Call
   \   0000015C   7D0EA0E3           MOV      R0,#+2000
   \   00000160   290100EF           SWI      +297
   \   00000164   B200C4E1           STRH     R0,[R4, #+2]
    165                   }
    166                break;
    167              }
    168            return 1;
   \                     ??OnCallManagerEvent_9:
   \   00000168   0100A0E3           MOV      R0,#+1
   \   0000016C   FE80BDE8           POP      {R1-R7,PC}       ;; return
   \                     ??OnCallManagerEvent_11:
   \   00000170   ........           DC32     ??onTimer_Call
    169          }
    170          
    171          

   \                                 In segment CODE, align 4, keep-with-next
    172          int CheckConfig()
    173          {
   \                     ??CheckConfig:
   \   00000000   F0432DE9           PUSH     {R4-R9,LR}
    174            wchar_t temp[256];
    175            char* err=NULL;
    176          
    177            int radio_short_press  = 0;
    178            int radio_long_press   = 0;
    179            int radio_double_press = 0;
    180            int player_short_press  = 0;
    181            int player_long_press   = 0;
    182            int player_double_press = 0;
    183          
    184            int radio_short_on_press  = 0;
    185            int radio_long_on_press   = 0;
    186            int player_short_on_press  = 0;
    187            int player_long_on_press   = 0;
    188            
    189            switch(radioOn)
   \   00000004   ........           LDR      R9,??DataTable20  ;; radioOn
   \   00000008   80DF4DE2           SUB      SP,SP,#+512
   \   0000000C   009099E5           LDR      R9,[R9, #+0]
   \   00000010   0000A0E3           MOV      R0,#+0
   \   00000014   0010A0E3           MOV      R1,#+0
   \   00000018   0020A0E1           MOV      R2,R0
   \   0000001C   0030A0E1           MOV      R3,R0
   \   00000020   00C0A0E1           MOV      R12,R0
   \   00000024   0040A0E1           MOV      R4,R0
   \   00000028   0070A0E1           MOV      R7,R0
   \   0000002C   0080A0E1           MOV      R8,R0
   \   00000030   0050A0E1           MOV      R5,R0
   \   00000034   0060A0E1           MOV      R6,R0
   \   00000038   000059E3           CMP      R9,#+0
   \   0000003C   0200000A           BEQ      ??CheckConfig_1
   \   00000040   019059E2           SUBS     R9,R9,#+1
   \   00000044   0180A003           MOVEQ    R8,#+1
   \   00000048   000000EA           B        ??CheckConfig_2
    190            {
    191              case SHORT_PRESS: radio_short_on_press++;  break;
   \                     ??CheckConfig_1:
   \   0000004C   0170A0E3           MOV      R7,#+1
    192              case LONG_PRESS:  radio_long_on_press++;   break;
    193            }
    194            
    195            switch(radioOff)
   \                     ??CheckConfig_2:
   \   00000050   ........           LDR      R9,??DataTable26  ;; radioOff
   \   00000054   009099E5           LDR      R9,[R9, #+0]
   \   00000058   000059E3           CMP      R9,#+0
   \   0000005C   0400000A           BEQ      ??CheckConfig_3
   \   00000060   019059E2           SUBS     R9,R9,#+1
   \   00000064   0400000A           BEQ      ??CheckConfig_4
   \   00000068   019059E2           SUBS     R9,R9,#+1
   \   0000006C   0120A003           MOVEQ    R2,#+1
   \   00000070   020000EA           B        ??CheckConfig_5
    196            {
    197              case SHORT_PRESS: radio_short_press++;     break;
   \                     ??CheckConfig_3:
   \   00000074   0100A0E3           MOV      R0,#+1
   \   00000078   000000EA           B        ??CheckConfig_5
    198              case LONG_PRESS:  radio_long_press++;      break;
   \                     ??CheckConfig_4:
   \   0000007C   0110A0E3           MOV      R1,#+1
    199              case DOUBLE_PRESS: radio_double_press++;   break;
    200            }
    201          
    202            switch(radioNext)
   \                     ??CheckConfig_5:
   \   00000080   ........           LDR      R9,??DataTable24  ;; radioNext
   \   00000084   009099E5           LDR      R9,[R9, #+0]
   \   00000088   000059E3           CMP      R9,#+0
   \   0000008C   0400000A           BEQ      ??CheckConfig_6
   \   00000090   019059E2           SUBS     R9,R9,#+1
   \   00000094   0400000A           BEQ      ??CheckConfig_7
   \   00000098   019059E2           SUBS     R9,R9,#+1
   \   0000009C   01208202           ADDEQ    R2,R2,#+1
   \   000000A0   020000EA           B        ??CheckConfig_8
    203            {
    204              case SHORT_PRESS: radio_short_press++;     break;
   \                     ??CheckConfig_6:
   \   000000A4   010080E2           ADD      R0,R0,#+1
   \   000000A8   000000EA           B        ??CheckConfig_8
    205              case LONG_PRESS: radio_long_press++;       break;
   \                     ??CheckConfig_7:
   \   000000AC   011081E2           ADD      R1,R1,#+1
    206              case DOUBLE_PRESS: radio_double_press++;   break;
    207            }
    208          
    209            switch(radioPrev)
   \                     ??CheckConfig_8:
   \   000000B0   ........           LDR      R9,??DataTable25  ;; radioPrev
   \   000000B4   009099E5           LDR      R9,[R9, #+0]
   \   000000B8   000059E3           CMP      R9,#+0
   \   000000BC   0400000A           BEQ      ??CheckConfig_9
   \   000000C0   019059E2           SUBS     R9,R9,#+1
   \   000000C4   0400000A           BEQ      ??CheckConfig_10
   \   000000C8   019059E2           SUBS     R9,R9,#+1
   \   000000CC   01208202           ADDEQ    R2,R2,#+1
   \   000000D0   020000EA           B        ??CheckConfig_11
    210            {
    211              case SHORT_PRESS: radio_short_press++;     break;
   \                     ??CheckConfig_9:
   \   000000D4   010080E2           ADD      R0,R0,#+1
   \   000000D8   000000EA           B        ??CheckConfig_11
    212              case LONG_PRESS: radio_long_press++;       break;
   \                     ??CheckConfig_10:
   \   000000DC   011081E2           ADD      R1,R1,#+1
    213              case DOUBLE_PRESS: radio_double_press++;   break;
    214            }
    215          
    216            switch(playerOn)
   \                     ??CheckConfig_11:
   \   000000E0   ........           LDR      R9,??DataTable19  ;; playerOn
   \   000000E4   009099E5           LDR      R9,[R9, #+0]
   \   000000E8   000059E3           CMP      R9,#+0
   \   000000EC   0200000A           BEQ      ??CheckConfig_12
   \   000000F0   019059E2           SUBS     R9,R9,#+1
   \   000000F4   0160A003           MOVEQ    R6,#+1
   \   000000F8   000000EA           B        ??CheckConfig_13
    217            {
    218              case SHORT_PRESS: player_short_on_press++; break;
   \                     ??CheckConfig_12:
   \   000000FC   0150A0E3           MOV      R5,#+1
    219              case LONG_PRESS: player_long_on_press++;   break;
    220            }
    221            
    222            switch(playerOff)
   \                     ??CheckConfig_13:
   \   00000100   ........           LDR      R9,??DataTable23  ;; playerOff
   \   00000104   009099E5           LDR      R9,[R9, #+0]
   \   00000108   000059E3           CMP      R9,#+0
   \   0000010C   0400000A           BEQ      ??CheckConfig_14
   \   00000110   019059E2           SUBS     R9,R9,#+1
   \   00000114   0400000A           BEQ      ??CheckConfig_15
   \   00000118   019059E2           SUBS     R9,R9,#+1
   \   0000011C   0140A003           MOVEQ    R4,#+1
   \   00000120   020000EA           B        ??CheckConfig_16
    223            {
    224              case SHORT_PRESS: player_short_press++;    break;
   \                     ??CheckConfig_14:
   \   00000124   0130A0E3           MOV      R3,#+1
   \   00000128   000000EA           B        ??CheckConfig_16
    225              case LONG_PRESS: player_long_press++;      break;
   \                     ??CheckConfig_15:
   \   0000012C   01C0A0E3           MOV      R12,#+1
    226              case DOUBLE_PRESS: player_double_press++;  break;
    227            }
    228          
    229            switch(playerNext)
   \                     ??CheckConfig_16:
   \   00000130   ........           LDR      R9,??DataTable21  ;; playerNext
   \   00000134   009099E5           LDR      R9,[R9, #+0]
   \   00000138   000059E3           CMP      R9,#+0
   \   0000013C   0400000A           BEQ      ??CheckConfig_17
   \   00000140   019059E2           SUBS     R9,R9,#+1
   \   00000144   0400000A           BEQ      ??CheckConfig_18
   \   00000148   019059E2           SUBS     R9,R9,#+1
   \   0000014C   01408402           ADDEQ    R4,R4,#+1
   \   00000150   020000EA           B        ??CheckConfig_19
    230            {
    231              case SHORT_PRESS: player_short_press++;    break;
   \                     ??CheckConfig_17:
   \   00000154   013083E2           ADD      R3,R3,#+1
   \   00000158   000000EA           B        ??CheckConfig_19
    232              case LONG_PRESS: player_long_press++;      break;
   \                     ??CheckConfig_18:
   \   0000015C   01C08CE2           ADD      R12,R12,#+1
    233              case DOUBLE_PRESS: player_double_press++;  break;
    234            }
    235          
    236            switch(playerPrev)
   \                     ??CheckConfig_19:
   \   00000160   ........           LDR      R9,??DataTable22  ;; playerPrev
   \   00000164   009099E5           LDR      R9,[R9, #+0]
   \   00000168   000059E3           CMP      R9,#+0
   \   0000016C   0400000A           BEQ      ??CheckConfig_20
   \   00000170   019059E2           SUBS     R9,R9,#+1
   \   00000174   0400000A           BEQ      ??CheckConfig_21
   \   00000178   019059E2           SUBS     R9,R9,#+1
   \   0000017C   01408402           ADDEQ    R4,R4,#+1
   \   00000180   020000EA           B        ??CheckConfig_22
    237            {
    238              case SHORT_PRESS: player_short_press++;    break;
   \                     ??CheckConfig_20:
   \   00000184   013083E2           ADD      R3,R3,#+1
   \   00000188   000000EA           B        ??CheckConfig_22
    239              case LONG_PRESS: player_long_press++;      break;
   \                     ??CheckConfig_21:
   \   0000018C   01C08CE2           ADD      R12,R12,#+1
    240              case DOUBLE_PRESS: player_double_press++;  break;
    241            }
    242          
    243            if((radio_short_press > 1) || (radio_long_press > 1) || (radio_double_press > 1))
   \                     ??CheckConfig_22:
   \   00000190   A8909FE5           LDR      R9,??CheckConfig_23  ;; `?<Constant "\\315\\345\\357\\360\\340\\342\\350\\353\\3`
   \   00000194   020050E3           CMP      R0,#+2
   \   00000198   020051B3           CMPLT    R1,#+2
   \   0000019C   020052B3           CMPLT    R2,#+2
    244            err="Неправильно сконфигурировано управление радио!";
   \   000001A0   0930A0A1           MOVGE    R3,R9
   \   000001A4   0B0000AA           BGE      ??CheckConfig_24
    245          
    246            else if((player_short_press > 1) || (player_long_press > 1) || (player_double_press > 1))
   \   000001A8   020053E3           CMP      R3,#+2
   \   000001AC   02005CB3           CMPLT    R12,#+2
   \   000001B0   020054B3           CMPLT    R4,#+2
    247            err="Неправильно сконфигурировано управление плеером!";
   \   000001B4   303089A2           ADDGE    R3,R9,#+48
   \   000001B8   060000AA           BGE      ??CheckConfig_24
    248          
    249            else if((radio_short_on_press ==  1 && player_short_on_press ==  1) || (radio_long_on_press == 1 && player_long_on_press ==  1))
   \   000001BC   010057E3           CMP      R7,#+1
   \   000001C0   01005503           CMPEQ    R5,#+1
   \   000001C4   0200000A           BEQ      ??CheckConfig_25
   \   000001C8   010058E3           CMP      R8,#+1
   \   000001CC   01005603           CMPEQ    R6,#+1
   \   000001D0   1700001A           BNE      ??CheckConfig_26
    250            err="Неправильно сконфигурирован запуск кнопкой!";
   \                     ??CheckConfig_25:
   \   000001D4   643089E2           ADD      R3,R9,#+100
    251                
    252            if(err)
   \                     ??CheckConfig_24:
   \   000001D8   000053E3           CMP      R3,#+0
   \   000001DC   1400000A           BEQ      ??CheckConfig_26
    253            {
    254              snwprintf(temp, MAXELEMS(temp), _T("Error!\n%s"),err);
   \   000001E0   902089E2           ADD      R2,R9,#+144
   \   000001E4   401FA0E3           MOV      R1,#+256
   \   000001E8   0D00A0E1           MOV      R0,SP
   \   000001EC   150100EF           SWI      +277
    255              MessageBox(EMPTY_TEXTID,TextID_Create(temp,ENC_UCS2,MAXELEMS(temp)),NOIMAGE,1,0,0);
   \   000001F0   402FA0E3           MOV      R2,#+256
   \   000001F4   0010A0E3           MOV      R1,#+0
   \   000001F8   0D00A0E1           MOV      R0,SP
   \   000001FC   5D0100EF           SWI      +349
   \   00000200   0010A0E1           MOV      R1,R0
   \   00000204   0000A0E3           MOV      R0,#+0
   \   00000208   01002DE9           PUSH     {R0}
   \   0000020C   01002DE9           PUSH     {R0}
   \   00000210   0130A0E3           MOV      R3,#+1
   \   00000214   FF20A0E3           MOV      R2,#+255
   \   00000218   FF2C82E3           ORR      R2,R2,#0xFF00
   \   0000021C   9004E0E3           MVN      R0,#-1879048192
   \   00000220   570200EF           SWI      +599
    256              return 1;
   \   00000224   0100A0E3           MOV      R0,#+1
   \   00000228   08D08DE2           ADD      SP,SP,#+8
   \   0000022C   80DF8DE2           ADD      SP,SP,#+512
   \   00000230   F083BDE8           POP      {R4-R9,PC}
    257            }
    258            return 0;
   \                     ??CheckConfig_26:
   \   00000234   0000A0E3           MOV      R0,#+0
   \   00000238   80DF8DE2           ADD      SP,SP,#+512
   \   0000023C   F083BDE8           POP      {R4-R9,PC}       ;; return
   \                     ??CheckConfig_23:
   \   00000240   ........           DC32     `?<Constant "\\315\\345\\357\\360\\340\\342\\350\\353\\3`
    259          }
    260          

   \                                 In segment CODE, align 4, keep-with-next
    261          static int onReconfigElf(void *mess ,BOOK *book)
    262          {
   \                     ??onReconfigElf:
   \   00000000   30402DE9           PUSH     {R4,R5,LR}
   \   00000004   0040A0E1           MOV      R4,R0
    263            RECONFIG_EVENT_DATA *reconf=(RECONFIG_EVENT_DATA *)mess;
    264            int result=0;
    265            if (wstrcmpi(reconf->path,successed_config_path)==0 && wstrcmpi(reconf->name,successed_config_name)==0)
   \   00000008   40009FE5           LDR      R0,??onReconfigElf_1  ;; successed_config_path
   \   0000000C   0050A0E3           MOV      R5,#+0
   \   00000010   001090E5           LDR      R1,[R0, #+0]
   \   00000014   0400A0E1           MOV      R0,R4
   \   00000018   9F0200EF           SWI      +671
   \   0000001C   000050E3           CMP      R0,#+0
   \   00000020   0800001A           BNE      ??onReconfigElf_2
   \   00000024   28009FE5           LDR      R0,??onReconfigElf_1+0x4  ;; successed_config_name
   \   00000028   001090E5           LDR      R1,[R0, #+0]
   \   0000002C   800084E2           ADD      R0,R4,#+128
   \   00000030   9F0200EF           SWI      +671
   \   00000034   000050E3           CMP      R0,#+0
   \   00000038   0200001A           BNE      ??onReconfigElf_2
    266            {
    267              InitConfig();
   \   0000003C   ........           _BLF     ??InitConfig,??InitConfig??rA
    268              CheckConfig();
   \   00000040   ........           BL       ??CheckConfig
    269              result=1;
   \   00000044   0150A0E3           MOV      R5,#+1
    270            }
    271            return(result);
   \                     ??onReconfigElf_2:
   \   00000048   0500A0E1           MOV      R0,R5
   \   0000004C   3080BDE8           POP      {R4,R5,PC}       ;; return
   \                     ??onReconfigElf_1:
   \   00000050   ........           DC32     successed_config_path
   \   00000054   ........           DC32     successed_config_name
    272          }
    273          

   \                                 In segment DYN_PAGE, align 4, align-sorted
    274          const PAGE_MSG Management_PageEvents[]@ "DYN_PAGE" =
   \                     Management_PageEvents:
   \   00000000   E5030000....       DC32 997, ??TerminateElf, 998, ??ShowAuthorInfo, 996, ??onReconfigElf
   \              ....E6030000
   \              ........E403
   \              0000........
   \   00000018   BA010000....       DC32 442, ??OnCallManagerEvent, 131, ??OnAccChangedEvent, 132
   \              ....83000000
   \              ........8400
   \              0000        
   \   0000002C   ........4000       DC32 ??OffAccChangedEvent, 64, 0H
   \              000000000000

   \                                 In segment DATA_I, align 4, align-sorted
   \                     ManagementBook:
   \   00000000                      DS8 4
   \   00000004                      REQUIRE `?<Initializer for ManagementBook>`
    275          {
    276                   ELF_TERMINATE_EVENT,                          TerminateElf,
    277                   ELF_SHOW_INFO_EVENT,                          ShowAuthorInfo,
    278                   ELF_RECONFIG_EVENT,                           onReconfigElf,
    279                   ON_CALLMANAGER_EVENT_TAG,                     OnCallManagerEvent,
    280                   ACCESSORIES_ACCESSORY_CONNECTED_EVENT_TAG,    OnAccChangedEvent,
    281                   ACCESSORIES_ACCESSORY_DISCONNECTED_EVENT_TAG, OffAccChangedEvent,
    282                   NIL_EVENT_TAG,                                NULL
    283          };
    284          
    285          PAGE_DESC base_page ={"Management_BasePage",0,Management_PageEvents};
   \                     base_page:
   \   00000004                      DS8 12
   \   00000010                      REQUIRE `?<Initializer for base_page>`
    286          
    287          

   \                                 In segment CODE, align 4, keep-with-next
    288          void elf_exit(void)
    289          {
   \                     ??elf_exit:
   \   00000000   00402DE9           PUSH     {LR}
    290                   kill_data(&ELF_BEGIN, (void(*)(void*))mfree_adr());
   \   00000004   048100EF           SWI      +33028
   \   00000008   0010A0E1           MOV      R1,R0
   \   0000000C   04009FE5           LDR      R0,??elf_exit_1  ;; ELF_BEGIN
   \   00000010   0040BDE8           POP      {LR}             ;; Pop
   \   00000014   ........           _BF      kill_data,??kill_data??rA  ;; tailcall
   \                     ??elf_exit_1:
   \   00000018   ........           DC32     ELF_BEGIN
    291          }
    292          
    293          

   \                                 In segment CODE, align 4, keep-with-next
    294          void MakeAction(int mode)
    295          {
   \                     ??MakeAction:
   \   00000000   F0402DE9           PUSH     {R4-R7,LR}
    296            if (!AP && !FM)
   \   00000004   ........           LDR      R7,??DataTable27  ;; timer
   \   00000008   0040A0E1           MOV      R4,R0
   \   0000000C   ........           LDR      R0,??DataTable17  ;; UI_MEDIAPLAYER_CONTROL_EVENT
   \   00000010   005090E5           LDR      R5,[R0, #+0]
   \   00000014   040097E5           LDR      R0,[R7, #+4]
   \   00000018   000050E3           CMP      R0,#+0
   \   0000001C   1100001A           BNE      ??MakeAction_1
   \   00000020   080097E5           LDR      R0,[R7, #+8]
   \   00000024   ........           LDR      R1,??DataTable18  ;; UI_FMRADIO_CONTROL_EVENT
   \   00000028   000050E3           CMP      R0,#+0
   \   0000002C   006091E5           LDR      R6,[R1, #+0]
   \   00000030   2000001A           BNE      ??MakeAction_2
    297            {
    298              if(mode == playerOn)   UI_Event(UI_MEDIAPLAYER_CONTROL_EVENT);
   \   00000034   ........           LDR      R0,??DataTable19  ;; playerOn
   \   00000038   000090E5           LDR      R0,[R0, #+0]
   \   0000003C   000054E1           CMP      R4,R0
   \   00000040   0100001A           BNE      ??MakeAction_3
   \   00000044   0500A0E1           MOV      R0,R5
   \   00000048   A80100EF           SWI      +424
    299              if(mode == radioOn)    UI_Event(UI_FMRADIO_CONTROL_EVENT);
   \                     ??MakeAction_3:
   \   0000004C   ........           LDR      R0,??DataTable20  ;; radioOn
   \   00000050   000090E5           LDR      R0,[R0, #+0]
   \   00000054   000054E1           CMP      R4,R0
   \   00000058   F080BD18           POPNE    {R4-R7,PC}
   \   0000005C   0600A0E1           MOV      R0,R6
   \   00000060   A80100EF           SWI      +424
   \   00000064   F080BDE8           POP      {R4-R7,PC}
    300            }
    301            else if (AP)
    302            {
    303              if(mode == playerNext) UI_Event(UI_MEDIAPLAYER_NEXT_TRACK_EVENT);
   \                     ??MakeAction_1:
   \   00000068   ........           LDR      R0,??DataTable21  ;; playerNext
   \   0000006C   000090E5           LDR      R0,[R0, #+0]
   \   00000070   000054E1           CMP      R4,R0
   \   00000074   0200001A           BNE      ??MakeAction_4
   \   00000078   88009FE5           LDR      R0,??MakeAction_5  ;; UI_MEDIAPLAYER_NEXT_TRACK_EVENT
   \   0000007C   000090E5           LDR      R0,[R0, #+0]
   \   00000080   A80100EF           SWI      +424
    304              if(mode == playerPrev) UI_Event(UI_MEDIAPLAYER_PREV_TRACK_EVENT);
   \                     ??MakeAction_4:
   \   00000084   ........           LDR      R0,??DataTable22  ;; playerPrev
   \   00000088   000090E5           LDR      R0,[R0, #+0]
   \   0000008C   000054E1           CMP      R4,R0
   \   00000090   0200001A           BNE      ??MakeAction_6
   \   00000094   70009FE5           LDR      R0,??MakeAction_5+0x4  ;; UI_MEDIAPLAYER_PREV_TRACK_EVENT
   \   00000098   000090E5           LDR      R0,[R0, #+0]
   \   0000009C   A80100EF           SWI      +424
    305              if(mode == playerOff)  UI_Event(UI_MEDIAPLAYER_CONTROL_EVENT);
   \                     ??MakeAction_6:
   \   000000A0   ........           LDR      R0,??DataTable23  ;; playerOff
   \   000000A4   000090E5           LDR      R0,[R0, #+0]
   \   000000A8   000054E1           CMP      R4,R0
   \   000000AC   F080BD18           POPNE    {R4-R7,PC}
   \   000000B0   0500A0E1           MOV      R0,R5
   \   000000B4   110000EA           B        ??MakeAction_7
    306              return;
    307            }
    308            else if (FM)
    309            {
    310              if(mode == radioNext)  SwitchRadioStationFromList(FM, 0);
   \                     ??MakeAction_2:
   \   000000B8   ........           LDR      R1,??DataTable24  ;; radioNext
   \   000000BC   001091E5           LDR      R1,[R1, #+0]
   \   000000C0   010054E1           CMP      R4,R1
   \   000000C4   0100001A           BNE      ??MakeAction_8
   \   000000C8   0010A0E3           MOV      R1,#+0
   \   000000CC   8D0200EF           SWI      +653
    311              if(mode == radioPrev)  SwitchRadioStationFromList(FM, 1);
   \                     ??MakeAction_8:
   \   000000D0   ........           LDR      R0,??DataTable25  ;; radioPrev
   \   000000D4   000090E5           LDR      R0,[R0, #+0]
   \   000000D8   000054E1           CMP      R4,R0
   \   000000DC   0200001A           BNE      ??MakeAction_9
   \   000000E0   080097E5           LDR      R0,[R7, #+8]
   \   000000E4   0110A0E3           MOV      R1,#+1
   \   000000E8   8D0200EF           SWI      +653
    312              if(mode == radioOff)   UI_Event(UI_FMRADIO_CONTROL_EVENT);
   \                     ??MakeAction_9:
   \   000000EC   ........           LDR      R0,??DataTable26  ;; radioOff
   \   000000F0   000090E5           LDR      R0,[R0, #+0]
   \   000000F4   000054E1           CMP      R4,R0
   \   000000F8   F080BD18           POPNE    {R4-R7,PC}
   \   000000FC   0600A0E1           MOV      R0,R6
   \                     ??MakeAction_7:
   \   00000100   A80100EF           SWI      +424
   \   00000104   F080BDE8           POP      {R4-R7,PC}       ;; return
   \                     ??MakeAction_5:
   \   00000108   ........           DC32     UI_MEDIAPLAYER_NEXT_TRACK_EVENT
   \   0000010C   ........           DC32     UI_MEDIAPLAYER_PREV_TRACK_EVENT
    313            }
    314          }
    315          

   \                                 In segment CODE, align 4, keep-with-next
    316          void onTimer(u16 timerID, LPARAM lparam)
    317          {
   \                     ??onTimer:
   \   00000000   10402DE9           PUSH     {R4,LR}
    318            if (dbl==1)
   \   00000004   ........           LDR      R4,??DataTable27  ;; timer
   \   00000008   0C0094E5           LDR      R0,[R4, #+12]
   \   0000000C   010050E3           CMP      R0,#+1
    319            {
    320              MakeAction(SHORT_PRESS);
   \   00000010   0000A003           MOVEQ    R0,#+0
    321            }
    322            else
    323            {
    324              MakeAction(DOUBLE_PRESS);
   \   00000014   0200A013           MOVNE    R0,#+2
   \   00000018   ........           BL       ??MakeAction
    325            }
    326            dbl=0;
   \   0000001C   0000A0E3           MOV      R0,#+0
   \   00000020   0C0084E5           STR      R0,[R4, #+12]
    327          }
   \   00000024   1080BDE8           POP      {R4,PC}          ;; return
    328          

   \                                 In segment CODE, align 4, keep-with-next
    329          int NewKey(int key, int r1 , int mode, LPARAM, DISP_OBJ*)
    330          {
   \                     ??NewKey:
   \   00000000   70402DE9           PUSH     {R4-R6,LR}
    331            AP = FindBook(get_IsAudioPlayerBook());
   \   00000004   ........           LDR      R5,??DataTable35  ;; timer
   \   00000008   04D04DE2           SUB      SP,SP,#+4
   \   0000000C   0060A0E1           MOV      R6,R0
   \   00000010   0240A0E1           MOV      R4,R2
   \   00000014   8B8200EF           SWI      +33419
   \   00000018   300100EF           SWI      +304
   \   0000001C   040085E5           STR      R0,[R5, #+4]
    332            FM = FindBook(get_IsFmRadioBook());
   \   00000020   8A8200EF           SWI      +33418
   \   00000024   300100EF           SWI      +304
   \   00000028   080085E5           STR      R0,[R5, #+8]
    333            if (key==KeyControl)
   \   0000002C   ........           LDR      R0,??DataTable32  ;; KeyControl
   \   00000030   000090E5           LDR      R0,[R0, #+0]
   \   00000034   000056E1           CMP      R6,R0
   \   00000038   1A00001A           BNE      ??NewKey_1
    334            {
    335              if (mode==KBD_SHORT_RELEASE)
   \   0000003C   ........           LDR      R0,??DataTable33  ;; KBD_SHORT_RELEASE
   \   00000040   000090E5           LDR      R0,[R0, #+0]
   \   00000044   000054E1           CMP      R4,R0
   \   00000048   0E00001A           BNE      ??NewKey_2
    336              {
    337                if (!dbl) timer=Timer_Set(detectTime,onTimer,0);
   \   0000004C   0C0095E5           LDR      R0,[R5, #+12]
   \   00000050   000050E3           CMP      R0,#+0
   \   00000054   0800001A           BNE      ??NewKey_3
   \   00000058   0010A0E3           MOV      R1,#+0
   \   0000005C   0D00A0E1           MOV      R0,SP
   \   00000060   ........           _BLF     ??LPARAM,??LPARAM??rA
   \   00000064   44009FE5           LDR      R0,??NewKey_4    ;; detectTime
   \   00000068   00209DE5           LDR      R2,[SP, #+0]
   \   0000006C   000090E5           LDR      R0,[R0, #+0]
   \   00000070   3C109FE5           LDR      R1,??NewKey_4+0x4  ;; ??onTimer
   \   00000074   290100EF           SWI      +297
   \   00000078   B000C5E1           STRH     R0,[R5, #+0]
    338                dbl++;
   \                     ??NewKey_3:
   \   0000007C   0C0095E5           LDR      R0,[R5, #+12]
   \   00000080   010080E2           ADD      R0,R0,#+1
   \   00000084   0C0085E5           STR      R0,[R5, #+12]
    339              }
    340              if (mode==KBD_LONG_PRESS)
   \                     ??NewKey_2:
   \   00000088   ........           LDR      R0,??DataTable34  ;; KBD_LONG_PRESS
   \   0000008C   000090E5           LDR      R0,[R0, #+0]
   \   00000090   000054E1           CMP      R4,R0
   \   00000094   0100001A           BNE      ??NewKey_5
    341              {
    342                MakeAction(LONG_PRESS);
   \   00000098   0100A0E3           MOV      R0,#+1
   \   0000009C   ........           BL       ??MakeAction
    343              }
    344              return(-1);
   \                     ??NewKey_5:
   \   000000A0   0000E0E3           MVN      R0,#+0
   \   000000A4   7280BDE8           POP      {R1,R4-R6,PC}
    345            }
    346            return(0);
   \                     ??NewKey_1:
   \   000000A8   0000A0E3           MOV      R0,#+0
   \   000000AC   7280BDE8           POP      {R1,R4-R6,PC}    ;; return
   \                     ??NewKey_4:
   \   000000B0   ........           DC32     detectTime
   \   000000B4   ........           DC32     ??onTimer
    347          }
    348          

   \                                 In segment CODE, align 4, keep-with-next
    349          int ControlKey(int key, int r1 , int mode, LPARAM, DISP_OBJ*)
    350          {
   \                     ??ControlKey:
   \   00000000   70402DE9           PUSH     {R4-R6,LR}
   \   00000004   0240A0E1           MOV      R4,R2
   \   00000008   0060A0E1           MOV      R6,R0
    351            BOOK *bk = FindBook(isMTCallBook);
   \   0000000C   54009FE5           LDR      R0,??ControlKey_1  ;; ??isMTCallBook
   \   00000010   300100EF           SWI      +304
   \   00000014   0050A0E1           MOV      R5,R0
    352            if (key==KeyControl)
   \   00000018   ........           LDR      R0,??DataTable32  ;; KeyControl
   \   0000001C   000090E5           LDR      R0,[R0, #+0]
   \   00000020   000056E1           CMP      R6,R0
   \   00000024   0D00001A           BNE      ??ControlKey_2
    353            {
    354              if (mode==KBD_SHORT_RELEASE)
   \   00000028   ........           LDR      R0,??DataTable33  ;; KBD_SHORT_RELEASE
   \   0000002C   000090E5           LDR      R0,[R0, #+0]
   \   00000030   000054E1           CMP      R4,R0
   \   00000034   0100001A           BNE      ??ControlKey_3
    355              {
    356                IncommingCall_Accept(bk);
   \   00000038   0500A0E1           MOV      R0,R5
   \   0000003C   680300EF           SWI      +872
    357              }
    358              if (mode==KBD_LONG_PRESS)
   \                     ??ControlKey_3:
   \   00000040   ........           LDR      R0,??DataTable34  ;; KBD_LONG_PRESS
   \   00000044   000090E5           LDR      R0,[R0, #+0]
   \   00000048   000054E1           CMP      R4,R0
   \   0000004C   0100001A           BNE      ??ControlKey_4
    359              {
    360                IncommingCall_Reject(bk);
   \   00000050   0500A0E1           MOV      R0,R5
   \   00000054   250300EF           SWI      +805
    361              }
    362              return(-1);
   \                     ??ControlKey_4:
   \   00000058   0000E0E3           MVN      R0,#+0
   \   0000005C   7080BDE8           POP      {R4-R6,PC}
    363            }
    364            return(0);
   \                     ??ControlKey_2:
   \   00000060   0000A0E3           MOV      R0,#+0
   \   00000064   7080BDE8           POP      {R4-R6,PC}       ;; return
   \                     ??ControlKey_1:
   \   00000068   ........           DC32     ??isMTCallBook
    365          }

   \                                 In segment CODE, align 4, keep-with-next
    366          void onCloseManagementBook(BOOK * book)
    367          {
   \                     ??onCloseManagementBook:
   \   00000000   10402DE9           PUSH     {R4,LR}
    368            ModifyKeyHook(NewKey,KEY_HOOK_REMOVE,NULL);
    369            ModifyKeyHook(ControlKey,KEY_HOOK_REMOVE,NULL);
    370            if(timer) Timer_Kill(&timer);
   \   00000004   ........           LDR      R4,??DataTable35  ;; timer
   \   00000008   08D04DE2           SUB      SP,SP,#+8
   \   0000000C   0010A0E3           MOV      R1,#+0
   \   00000010   0D00A0E1           MOV      R0,SP
   \   00000014   ........           _BLF     ??LPARAM,??LPARAM??rA
   \   00000018   00209DE5           LDR      R2,[SP, #+0]
   \   0000001C   ........           LDR      R0,??DataTable40  ;; ??NewKey
   \   00000020   0010A0E3           MOV      R1,#+0
   \   00000024   070100EF           SWI      +263
   \   00000028   0010A0E3           MOV      R1,#+0
   \   0000002C   04008DE2           ADD      R0,SP,#+4
   \   00000030   ........           _BLF     ??LPARAM,??LPARAM??rA
   \   00000034   04209DE5           LDR      R2,[SP, #+4]
   \   00000038   ........           LDR      R0,??DataTable37  ;; ??ControlKey
   \   0000003C   0010A0E3           MOV      R1,#+0
   \   00000040   070100EF           SWI      +263
   \   00000044   B000D4E1           LDRH     R0,[R4, #+0]
   \   00000048   000050E3           CMP      R0,#+0
   \   0000004C   0100000A           BEQ      ??onCloseManagementBook_1
   \   00000050   0400A0E1           MOV      R0,R4
   \   00000054   2A0100EF           SWI      +298
    371            if(timer_call_off) Timer_Kill(&timer_call_off);
   \                     ??onCloseManagementBook_1:
   \   00000058   B200D4E1           LDRH     R0,[R4, #+2]
   \   0000005C   000050E3           CMP      R0,#+0
   \   00000060   0100000A           BEQ      ??onCloseManagementBook_2
   \   00000064   020084E2           ADD      R0,R4,#+2
   \   00000068   2A0100EF           SWI      +298
    372            SUBPROC(elf_exit);
   \                     ??onCloseManagementBook_2:
   \   0000006C   ........           LDR      R0,??DataTable39  ;; ??elf_exit
   \   00000070   080100EF           SWI      +264
    373          }
   \   00000074   1380BDE8           POP      {R0,R1,R4,PC}    ;; return
    374          

   \                                 In segment CODE, align 4, keep-with-next
    375          int main (void)
    376          {
    377            BOOK* alreadyrunned=FindBook(isManagementBook);
    378            if(alreadyrunned)
   \                     main:
   \   00000000   F4009FE5           LDR      R0,??main_0      ;; ??isManagementBook
   \   00000004   70402DE9           PUSH     {R4-R6,LR}
   \   00000008   F0409FE5           LDR      R4,??main_0+0x4  ;; `?<Constant L"\\x4d\\x61\\x6e\\x61\\x67\\x65\\x6d\\x65\\_1`
   \   0000000C   ........           LDR      R5,??DataTable39  ;; ??elf_exit
   \   00000010   04D04DE2           SUB      SP,SP,#+4
   \   00000014   300100EF           SWI      +304
   \   00000018   000050E3           CMP      R0,#+0
   \   0000001C   1300000A           BEQ      ??main_1
    379            {
    380              MessageBox(EMPTY_TEXTID, STR("Management headset\nуже запущен"), NOIMAGE, 1 ,5000, 0);
   \   00000020   FF60A0E3           MOV      R6,#+255
   \   00000024   FF6C86E3           ORR      R6,R6,#0xFF00
   \   00000028   0620A0E1           MOV      R2,R6
   \   0000002C   0010A0E3           MOV      R1,#+0
   \   00000030   0400A0E1           MOV      R0,R4
   \   00000034   5D0100EF           SWI      +349
   \   00000038   0010A0E3           MOV      R1,#+0
   \   0000003C   02002DE9           PUSH     {R1}
   \   00000040   0130A0E3           MOV      R3,#+1
   \   00000044   0620A0E1           MOV      R2,R6
   \   00000048   8810A0E3           MOV      R1,#+136
   \   0000004C   4C1D81E3           ORR      R1,R1,#0x1300
   \   00000050   02002DE9           PUSH     {R1}
   \   00000054   0010A0E1           MOV      R1,R0
   \   00000058   9004E0E3           MVN      R0,#-1879048192
   \   0000005C   570200EF           SWI      +599
    381              SUBPROC(elf_exit);
   \   00000060   0500A0E1           MOV      R0,R5
   \   00000064   080100EF           SWI      +264
   \   00000068   08D08DE2           ADD      SP,SP,#+8
   \   0000006C   200000EA           B        ??main_2
    382            }
    383            else
    384            {
    385              InitConfig();
   \                     ??main_1:
   \   00000070   ........           _BLF     ??InitConfig,??InitConfig??rA
    386              if(CheckConfig())
   \   00000074   ........           BL       ??CheckConfig
   \   00000078   000050E3           CMP      R0,#+0
   \   0000007C   1100001A           BNE      ??main_3
    387              {
    388                SUBPROC(elf_exit);
    389                return 0;
    390              }
    391              
    392              ManagementBook = new BOOK;
   \   00000080   7C609FE5           LDR      R6,??main_0+0x8  ;; ManagementBook
   \   00000084   1800A0E3           MOV      R0,#+24
   \   00000088   ........           _BLF     `??operator new`,`??operator new??rA`
    393              if(!CreateBook(ManagementBook, onCloseManagementBook, &base_page, ELFNAME, -1, 0))
   \   0000008C   74109FE5           LDR      R1,??main_0+0xC  ;; ??onCloseManagementBook
   \   00000090   000086E5           STR      R0,[R6, #+0]
   \   00000094   0000A0E3           MOV      R0,#+0
   \   00000098   01002DE9           PUSH     {R0}
   \   0000009C   403084E2           ADD      R3,R4,#+64
   \   000000A0   042086E2           ADD      R2,R6,#+4
   \   000000A4   0000E0E1           MVN      R0,R0
   \   000000A8   01002DE9           PUSH     {R0}
   \   000000AC   000096E5           LDR      R0,[R6, #+0]
   \   000000B0   2B0100EF           SWI      +299
   \   000000B4   000050E3           CMP      R0,#+0
   \   000000B8   08D08DE2           ADD      SP,SP,#+8
   \   000000BC   0500001A           BNE      ??main_4
    394              {
    395                delete ManagementBook;
   \   000000C0   000096E5           LDR      R0,[R6, #+0]
   \   000000C4   ........           _BLF     `??operator delete`,`??operator delete??rA`
    396                SUBPROC(elf_exit);
   \                     ??main_3:
   \   000000C8   0500A0E1           MOV      R0,R5
   \   000000CC   080100EF           SWI      +264
    397                return 0;
   \   000000D0   0000A0E3           MOV      R0,#+0
   \   000000D4   7280BDE8           POP      {R1,R4-R6,PC}
    398              }
    399              ModifyKeyHook(NewKey,KEY_HOOK_ADD,NULL);
   \                     ??main_4:
   \   000000D8   0010A0E3           MOV      R1,#+0
   \   000000DC   0D00A0E1           MOV      R0,SP
   \   000000E0   ........           _BLF     ??LPARAM,??LPARAM??rA
   \   000000E4   00209DE5           LDR      R2,[SP, #+0]
   \   000000E8   ........           LDR      R0,??DataTable40  ;; ??NewKey
   \   000000EC   0110A0E3           MOV      R1,#+1
   \   000000F0   070100EF           SWI      +263
    400            }
    401            return(0);
   \                     ??main_2:
   \   000000F4   0000A0E3           MOV      R0,#+0
   \   000000F8   7280BDE8           POP      {R1,R4-R6,PC}
   \                     ??main_0:
   \   000000FC   ........           DC32     ??isManagementBook
   \   00000100   ........           DC32     `?<Constant L"\\x4d\\x61\\x6e\\x61\\x67\\x65\\x6d\\x65\\_1`
   \   00000104   ........           DC32     ManagementBook
   \   00000108   ........           DC32     ??onCloseManagementBook
    402          }

   \                                 In segment CODE, align 4, keep-with-next
   \                     ??DataTable17:
   \   00000000   ........           DC32     UI_MEDIAPLAYER_CONTROL_EVENT

   \                                 In segment CODE, align 4, keep-with-next
   \                     ??DataTable18:
   \   00000000   ........           DC32     UI_FMRADIO_CONTROL_EVENT

   \                                 In segment CODE, align 4, keep-with-next
   \                     ??DataTable19:
   \   00000000   ........           DC32     playerOn

   \                                 In segment CODE, align 4, keep-with-next
   \                     ??DataTable20:
   \   00000000   ........           DC32     radioOn

   \                                 In segment CODE, align 4, keep-with-next
   \                     ??DataTable21:
   \   00000000   ........           DC32     playerNext

   \                                 In segment CODE, align 4, keep-with-next
   \                     ??DataTable22:
   \   00000000   ........           DC32     playerPrev

   \                                 In segment CODE, align 4, keep-with-next
   \                     ??DataTable23:
   \   00000000   ........           DC32     playerOff

   \                                 In segment CODE, align 4, keep-with-next
   \                     ??DataTable24:
   \   00000000   ........           DC32     radioNext

   \                                 In segment CODE, align 4, keep-with-next
   \                     ??DataTable25:
   \   00000000   ........           DC32     radioPrev

   \                                 In segment CODE, align 4, keep-with-next
   \                     ??DataTable26:
   \   00000000   ........           DC32     radioOff

   \                                 In segment CODE, align 4, keep-with-next
   \                     ??DataTable27:
   \   00000000   ........           DC32     timer

   \                                 In segment CODE, align 4, keep-with-next
   \                     ??DataTable32:
   \   00000000   ........           DC32     KeyControl

   \                                 In segment CODE, align 4, keep-with-next
   \                     ??DataTable33:
   \   00000000   ........           DC32     KBD_SHORT_RELEASE

   \                                 In segment CODE, align 4, keep-with-next
   \                     ??DataTable34:
   \   00000000   ........           DC32     KBD_LONG_PRESS

   \                                 In segment CODE, align 4, keep-with-next
   \                     ??DataTable35:
   \   00000000   ........           DC32     timer

   \                                 In segment CODE, align 4, keep-with-next
   \                     ??DataTable37:
   \   00000000   ........           DC32     ??ControlKey

   \                                 In segment CODE, align 4, keep-with-next
   \                     ??DataTable39:
   \   00000000   ........           DC32     ??elf_exit

   \                                 In segment CODE, align 4, keep-with-next
   \                     ??DataTable40:
   \   00000000   ........           DC32     ??NewKey

   \                                 In segment DATA_ID, align 4, align-sorted
   \                     `?<Initializer for myappname>`:
   \   00000000   4D616E616765       DC8 "Management"
   \              6D656E7400  
   \   0000000B   00                 DC8 0

   \                                 In segment DATA_ID, align 4, align-sorted
   \                     `?<Initializer for ManagementBook>`:
   \   00000000   00000000           DC8 0, 0, 0, 0
   \                     `?<Initializer for base_page>`:
   \   00000004   ........0000       DC32 `?<Constant "Management_BasePage">`, 0H, Management_PageEvents
   \              0000........

   \                                 In segment DATA_C, align 4, align-sorted
   \                     `?<Constant "Management_BasePage">`:
   \   00000000   4D616E616765       DC8 "Management_BasePage"
   \              6D656E745F42
   \              617365506167
   \              6500        

   \                                 In segment DATA_C, align 4, align-sorted
   \                     `?<Constant "MTCallBook">`:
   \   00000000   4D5443616C6C       DC8 "MTCallBook"
   \              426F6F6B00  
   \   0000000B   00                 DC8 0

   \                                 In segment DATA_C, align 4, align-sorted
   \                     `?<Constant L"\\x4d\\x61\\x6e\\x61\\x67\\x65\\x6d\\x65\\`:
   \   00000000   4D0061006E00       DC8 4DH, 0, 61H, 0, 6EH, 0, 61H, 0
   \              6100        
   \   00000008   670065006D00       DC8 67H, 0, 65H, 0, 6DH, 0, 65H, 0
   \              6500        
   \   00000010   6E0074000A00       DC8 6EH, 0, 74H, 0, 0AH, 0, 76H, 0
   \              7600        
   \   00000018   2E0033000A00       DC8 2EH, 0, 33H, 0, 0AH, 0, 0AH, 0
   \              0A00        
   \   00000020   280063002900       DC8 28H, 0, 63H, 0, 29H, 0, 50H, 0
   \              5000        
   \   00000028   6C006F006900       DC8 6CH, 0, 6FH, 0, 69H, 0, 6BH, 0
   \              6B00        
   \   00000030   200026002000       DC8 20H, 0, 26H, 0, 20H, 0, 42H, 0
   \              4200        
   \   00000038   690067004800       DC8 69H, 0, 67H, 0, 48H, 0, 65H, 0
   \              6500        
   \   00000040   720063007500       DC8 72H, 0, 63H, 0, 75H, 0, 6CH, 0
   \              6C00        
   \   00000048   650073000000       DC8 65H, 0, 73H, 0, 0, 0
   \   0000004E   0000               DC8 0, 0

   \                                 In segment DATA_C, align 4, align-sorted
   \                     `?<Constant "\\315\\345\\357\\360\\340\\342\\350\\353\\3`:
   \   00000000   CDE5EFF0E0E2       DC8 "\315\345\357\360\340\342\350\353\374\355\356 \361\352\356\355\364\350\343\363\360\350\360\356\342\340\355\356 \363\357\360\340\342\353\345\355\350\345 \360\340\344\350\356!"
   \              E8EBFCEDEE20
   \              F1EAEEEDF4E8
   \              E3F3F0E8F0EE
   \              E2E0EDEE20F3
   \              EFF0E0E2EBE5
   \              EDE8E520F0E0
   \              E4E8EE2100  
   \   0000002F   00                 DC8 0
   \   00000030   CDE5EFF0E0E2       DC8 "\315\345\357\360\340\342\350\353\374\355\356 \361\352\356\355\364\350\343\363\360\350\360\356\342\340\355\356 \363\357\360\340\342\353\345\355\350\345 \357\353\345\345\360\356\354!"
   \              E8EBFCEDEE20
   \              F1EAEEEDF4E8
   \              E3F3F0E8F0EE
   \              E2E0EDEE20F3
   \              EFF0E0E2EBE5
   \              EDE8E520EFEB
   \              E5E5F0EEEC21
   \              00          
   \   00000061   000000             DC8 0, 0, 0
   \   00000064   CDE5EFF0E0E2       DC8 "\315\345\357\360\340\342\350\353\374\355\356 \361\352\356\355\364\350\343\363\360\350\360\356\342\340\355 \347\340\357\363\361\352 \352\355\356\357\352\356\351!"
   \              E8EBFCEDEE20
   \              F1EAEEEDF4E8
   \              E3F3F0E8F0EE
   \              E2E0ED20E7E0
   \              EFF3F1EA20EA
   \              EDEEEFEAEEE9
   \              2100        
   \   00000090   450072007200       DC8 45H, 0, 72H, 0, 72H, 0, 6FH, 0
   \              6F00        
   \   00000098   720021000A00       DC8 72H, 0, 21H, 0, 0AH, 0, 25H, 0
   \              2500        
   \   000000A0   73000000           DC8 73H, 0, 0, 0

   \                                 In segment DATA_C, align 4, align-sorted
   \                     `?<Constant L"\\x4d\\x61\\x6e\\x61\\x67\\x65\\x6d\\x65\\_1`:
   \   00000000   4D0061006E00       DC8 4DH, 0, 61H, 0, 6EH, 0, 61H, 0
   \              6100        
   \   00000008   670065006D00       DC8 67H, 0, 65H, 0, 6DH, 0, 65H, 0
   \              6500        
   \   00000010   6E0074002000       DC8 6EH, 0, 74H, 0, 20H, 0, 68H, 0
   \              6800        
   \   00000018   650061006400       DC8 65H, 0, 61H, 0, 64H, 0, 73H, 0
   \              7300        
   \   00000020   650074000A00       DC8 65H, 0, 74H, 0, 0AH, 0, 0F3H, 0
   \              F300        
   \   00000028   E600E5002000       DC8 0E6H, 0, 0E5H, 0, 20H, 0, 0E7H, 0
   \              E700        
   \   00000030   E000EF00F300       DC8 0E0H, 0, 0EFH, 0, 0F3H, 0, 0F9H, 0
   \              F900        
   \   00000038   E500ED000000       DC8 0E5H, 0, 0EDH, 0, 0, 0
   \   0000003E   0000               DC8 0, 0
   \   00000040   4D616E616765       DC8 "Management"
   \              6D656E7400  
   \   0000004B   00                 DC8 0

   Maximum stack usage in bytes:

     Function                       CSTACK
     --------                       ------
     CheckConfig()                    548
     ControlKey(int, int, int, LPARAM, DISP_OBJ *)
                                       16
     LPARAM::LPARAM(int)                0
     MakeAction(int)                   20
     NewKey(int, int, int, LPARAM, DISP_OBJ *)
                                       20
     OffAccChangedEvent(void *, BOOK *)
                                        8
     OnAccChangedEvent(void *, BOOK *)
                                        8
     OnCallManagerEvent(void *, BOOK *)
                                       32
     ShowAuthorInfo(void *, BOOK *)    20
     TerminateElf(void *, BOOK *)       4
     elf_exit()                         4
     isMTCallBook(BOOK *)               4
     isManagementBook(BOOK *)           4
     main()                            28
     onCloseManagementBook(BOOK *)     16
     onReconfigElf(void *, BOOK *)     12
     onTimer(u16, LPARAM)               8
     onTimer_Call(u16, LPARAM)          8


   Segment part sizes:

     Function/Label                 Bytes
     --------------                 -----
     LPARAM::LPARAM(int)               8
     myappname                        12
     timer                            16
     Connect                           4
     isMTCallBook(BOOK *)             44
     OnAccChangedEvent(void *, BOOK *)
                                     112
     OffAccChangedEvent(void *, BOOK *)
                                      84
     isManagementBook(BOOK *)         44
     TerminateElf(void *, BOOK *)     20
     ShowAuthorInfo(void *, BOOK *)   84
     onTimer_Call(u16, LPARAM)        40
     OnCallManagerEvent(void *, BOOK *)
                                     372
     CheckConfig()                   580
     onReconfigElf(void *, BOOK *)    88
     Management_PageEvents            56
     ManagementBook                   16
     elf_exit()                       28
     MakeAction(int)                 272
     onTimer(u16, LPARAM)             40
     NewKey(int, int, int, LPARAM, DISP_OBJ *)
                                     184
     ControlKey(int, int, int, LPARAM, DISP_OBJ *)
                                     108
     onCloseManagementBook(BOOK *)   120
     main()                          268
     ??DataTable17                     4
     ??DataTable18                     4
     ??DataTable19                     4
     ??DataTable20                     4
     ??DataTable21                     4
     ??DataTable22                     4
     ??DataTable23                     4
     ??DataTable24                     4
     ??DataTable25                     4
     ??DataTable26                     4
     ??DataTable27                     4
     ??DataTable32                     4
     ??DataTable33                     4
     ??DataTable34                     4
     ??DataTable35                     4
     ??DataTable37                     4
     ??DataTable39                     4
     ??DataTable40                     4
     ?<Initializer for myappname>     12
     ?<Initializer for ManagementBook>
                                      16
     ?<Constant "Management_BasePage">
                                      20
     ?<Constant "MTCallBook">         12
     ?<Constant L"\x4d\x61\x6e\x61\x67\x65\x6d\x65\
                                      80
     ?<Constant "\315\345\357\360\340\342\350\353\3
                                     164
     ?<Constant L"\x4d\x61\x6e\x61\x67\x65\x6d\x65\_1
                                      76
      Others                         152

 
 2 696 bytes in segment CODE
   352 bytes in segment DATA_C
    28 bytes in segment DATA_I
    28 bytes in segment DATA_ID
    20 bytes in segment DATA_Z
    56 bytes in segment DYN_PAGE
    24 bytes in segment INITTAB
 
 2 560 bytes of CODE  memory (+ 160 bytes shared)
   436 bytes of CONST memory
    48 bytes of DATA  memory

Errors: none
Warnings: none
