//////////////////////////////////////////////////////////////////////////////
//                                                                           /
// IAR ARM ANSI C/C++ Compiler V4.42A/W32 EVALUATION   10/Jun/2013  23:10:14 /
// Copyright 1999-2005 IAR Systems. All rights reserved.                     /
//                                                                           /
//    Cpu mode        =  interwork                                           /
//    Endian          =  little                                              /
//    Stack alignment =  4                                                   /
//    Source file     =  Z:\home\perk11\www\perk11.info\svn\SE\WalkmanDispla /
//                       y\main.cpp                                          /
//    Command line    =  Z:\home\perk11\www\perk11.info\svn\SE\WalkmanDispla /
//                       y\main.cpp -D NDEBUG -D RUS -D OLDFUNCTIONS -lC     /
//                       Z:\home\perk11\www\perk11.info\svn\SE\WalkmanDispla /
//                       y\Release_RU\List\ -lA Z:\home\perk11\www\perk11.in /
//                       fo\svn\SE\WalkmanDisplay\Release_RU\List\ -o        /
//                       Z:\home\perk11\www\perk11.info\svn\SE\WalkmanDispla /
//                       y\Release_RU\Obj\ -s9 --cpu_mode arm --endian       /
//                       little --cpu ARM926EJ-S --stack_align 4             /
//                       --interwork -e --enable_multibytes --fpu None       /
//                       --eec++ --dlib_config Z:\home\perk11\IAR2\arm\LIB\d /
//                       l5tpainl8n.h -I Z:\home\perk11\IAR2\arm\INC\        /
//                       --inline_threshold=2                                /
//    List file       =  Z:\home\perk11\www\perk11.info\svn\SE\WalkmanDispla /
//                       y\Release_RU\List\main.s79                          /
//                                                                           /
//                                                                           /
//////////////////////////////////////////////////////////////////////////////

        NAME main

        RTMODEL "StackAlign4", "USED"
        RTMODEL "__cpu_mode", "__pcs__interwork"
        RTMODEL "__data_model", "absolute"
        RTMODEL "__endian", "little"
        RTMODEL "__rt_version", "6"

        RSEG CSTACK:DATA:NOROOT(2)

        ERROR
//NOTE: This module defines or uses C++ features that are not
//      accessible from assembler code. Assembling this file will
//      not produce an equivalent object file to the one produced
//      by the C++ compiler.

        EXTERN ??div32_a

        PUBWEAK `?*?DATA_ID`
`?<Constant L"\\x41e\\x444\\x43e\\x440\\x43c\\x43b\\x4` EQU 0
        MULTWEAK ??AddHook??rA
        MULTWEAK ??CAccelCtrl??rA
        MULTWEAK ??CBook??rA
        PUBLIC ??CMyBook
        FUNCTION ??CMyBook,0203H
        LOCFRAME CSTACK, 20, STACK
        MULTWEAK ??CMyBook??rT
??DataTable0 EQU 0
??DataTable10 EQU 0
??DataTable11 EQU 0
??DataTable14 EQU 0
??DataTable15 EQU 0
??DataTable16 EQU 0
??DataTable17 EQU 0
??DataTable18 EQU 0
??DataTable23 EQU 0
??DataTable24 EQU 0
??DataTable25 EQU 0
??DataTable27 EQU 0
??DataTable28 EQU 0
??DataTable33 EQU 0
??DataTable34 EQU 0
??DataTable35 EQU 0
??DataTable36 EQU 0
??DataTable37 EQU 0
??DataTable4 EQU 0
??DataTable41 EQU 0
??DataTable42 EQU 0
??DataTable43 EQU 0
??DataTable45 EQU 0
??DataTable46 EQU 0
??DataTable47 EQU 0
??DataTable49 EQU 0
??DataTable6 EQU 0
??DataTable7 EQU 0
??DataTable8 EQU 0
        PUBLIC ??DrawLine
        FUNCTION ??DrawLine,0203H
        LOCFRAME CSTACK, 88, STACK
        PUBLIC ??DrawLine2
        FUNCTION ??DrawLine2,0203H
        LOCFRAME CSTACK, 88, STACK
        MULTWEAK ??DrawLine2??rT
        MULTWEAK ??DrawLine??rT
        PUBLIC ??DrawProgress
        FUNCTION ??DrawProgress,0203H
        LOCFRAME CSTACK, 84, STACK
        MULTWEAK ??DrawProgress??rT
        PUBLIC ??FindGuiInBook
        FUNCTION ??FindGuiInBook,0203H
        LOCFRAME CSTACK, 20, STACK
        MULTWEAK ??FindGuiInBook??rT
        PUBLIC ??GetRedraw
        FUNCTION ??GetRedraw,0603H
        LOCFRAME CSTACK, 4, STACK
        MULTWEAK ??GetRedraw??rT
        PUBLIC ??GetSize
        FUNCTION ??GetSize,0203H
        LOCFRAME CSTACK, 8, STACK
        MULTWEAK ??GetSize??rT
        MULTWEAK ??InitConfig??rA
        MULTWEAK ??Lang_Initialize??rA
        MULTWEAK ??Lang_Remove??rA
        PUBLIC ??NewKey
        FUNCTION ??NewKey,0603H
        LOCFRAME CSTACK, 12, STACK
        MULTWEAK ??NewKey??rT
        PUBLIC ??PageHook
        FUNCTION ??PageHook,0603H
        LOCFRAME CSTACK, 16, STACK
        MULTWEAK ??PageHook??rT
        PUBLIC ??ReturnRedraw
        FUNCTION ??ReturnRedraw,0203H
        LOCFRAME CSTACK, 4, STACK
        MULTWEAK ??ReturnRedraw??rT
        PUBLIC ??SB_ELF_Killed
        FUNCTION ??SB_ELF_Killed,0603H
        LOCFRAME CSTACK, 20, STACK
        MULTWEAK ??SB_ELF_Killed??rT
        MULTWEAK ??SaveConfigData??rA
        PUBLIC ??Send_REDRAW_RELEASE
        FUNCTION ??Send_REDRAW_RELEASE,0203H
        LOCFRAME CSTACK, 8, STACK
        MULTWEAK ??Send_REDRAW_RELEASE??rT
        PUBLIC ??ShowAuthorInfo
        FUNCTION ??ShowAuthorInfo,0603H
        LOCFRAME CSTACK, 20, STACK
        MULTWEAK ??ShowAuthorInfo??rT
        PUBLIC ??Softkey_SetOnRedraw
        FUNCTION ??Softkey_SetOnRedraw,0203H
        LOCFRAME CSTACK, 8, STACK
        MULTWEAK ??Softkey_SetOnRedraw??rT
        PUBLIC ??TerminateElf
        FUNCTION ??TerminateElf,0603H
        LOCFRAME CSTACK, 8, STACK
        MULTWEAK ??TerminateElf??rT
        MULTWEAK ??TrackDesc_Compare??rA
        MULTWEAK ??TrackDesc_Free??rA
        MULTWEAK ??TrackDesc_Get??rA
        MULTWEAK ??__fAdd??rA
        MULTWEAK ??__fDiv??rA
        MULTWEAK ??__fMul??rA
        MULTWEAK ??__fSub??rA
        MULTWEAK ??__floatToLong??rA
        MULTWEAK ??__longToFloat??rA
        MULTWEAK ??__ulongToFloat??rA
        PUBLIC ??__vtbl
        PUBLIC ??checkConsts
        FUNCTION ??checkConsts,0203H
        LOCFRAME CSTACK, 20, STACK
        MULTWEAK ??checkConsts??rT
        PUBLIC ??checkfile_
        FUNCTION ??checkfile_,0203H
        LOCFRAME CSTACK, 44, STACK
        MULTWEAK ??checkfile_??rT
        MULTWEAK ??decoder_Init??rA
        MULTWEAK ??deinit_resources??rA
        MULTWEAK `??delete ~CAccelCtrl??rA`
        MULTWEAK ??destroy??rA
        PUBLIC ??elf_exit
        FUNCTION ??elf_exit,0603H
        LOCFRAME CSTACK, 4, STACK
        MULTWEAK ??elf_exit??rT
        PUBLIC ??getimgID
        FUNCTION ??getimgID,0603H
        MULTWEAK ??getimgID??rT
        MULTWEAK ??getorientation??rA
        MULTWEAK ??getstatus??rA
        MULTWEAK ??init_resources??rA
        PUBLIC ??isBrowserItemBook
        FUNCTION ??isBrowserItemBook,0603H
        LOCFRAME CSTACK, 4, STACK
        MULTWEAK ??isBrowserItemBook??rT
        PUBLIC ??isKeylockBook
        FUNCTION ??isKeylockBook,0203H
        LOCFRAME CSTACK, 4, STACK
        MULTWEAK ??isKeylockBook??rT
        PUBLIC ??isVolCtrl
        FUNCTION ??isVolCtrl,0603H
        LOCFRAME CSTACK, 4, STACK
        MULTWEAK ??isVolCtrl??rT
        PUBLIC ??isWalkmanDisplayBook
        FUNCTION ??isWalkmanDisplayBook,0603H
        LOCFRAME CSTACK, 4, STACK
        MULTWEAK ??isWalkmanDisplayBook??rT
        MULTWEAK ??kill_data??rA
        MULTWEAK ??main??rT
        PUBLIC `??new CMyBook`
        FUNCTION `??new CMyBook`,0203H
        LOCFRAME CSTACK, 4, STACK
        MULTWEAK `??new CMyBook??rT`
        PUBLIC ??onAccel
        FUNCTION ??onAccel,0603H
        LOCFRAME CSTACK, 20, STACK
        MULTWEAK ??onAccel??rT
        PUBLIC ??onBcfgConfig
        FUNCTION ??onBcfgConfig,0603H
        LOCFRAME CSTACK, 20, STACK
        MULTWEAK ??onBcfgConfig??rT
        PUBLIC ??onClose
        FUNCTION ??onClose,0603H
        LOCFRAME CSTACK, 16, STACK
        MULTWEAK ??onClose??rT
        PUBLIC ??onKeylock
        FUNCTION ??onKeylock,0603H
        LOCFRAME CSTACK, 20, STACK
        MULTWEAK ??onKeylock??rT
        PUBLIC ??onPlay
        FUNCTION ??onPlay,0603H
        LOCFRAME CSTACK, 12, STACK
        MULTWEAK ??onPlay??rT
        PUBLIC ??onPlayerClosed
        FUNCTION ??onPlayerClosed,0603H
        LOCFRAME CSTACK, 12, STACK
        MULTWEAK ??onPlayerClosed??rT
        PUBLIC ??onPlayerOpened
        FUNCTION ??onPlayerOpened,0603H
        LOCFRAME CSTACK, 12, STACK
        MULTWEAK ??onPlayerOpened??rT
        PUBLIC ??onReconfig
        FUNCTION ??onReconfig,0603H
        LOCFRAME CSTACK, 24, STACK
        MULTWEAK ??onReconfig??rT
        PUBLIC ??onStyleChanged
        FUNCTION ??onStyleChanged,0603H
        LOCFRAME CSTACK, 36, STACK
        MULTWEAK ??onStyleChanged??rT
        PUBLIC ??onTimer
        FUNCTION ??onTimer,0603H
        LOCFRAME CSTACK, 8, STACK
        MULTWEAK ??onTimer??rT
        PUBLIC ??onUnlock
        FUNCTION ??onUnlock,0603H
        LOCFRAME CSTACK, 4, STACK
        MULTWEAK ??onUnlock??rT
        PUBLIC ??onVolumeChange
        FUNCTION ??onVolumeChange,0603H
        LOCFRAME CSTACK, 8, STACK
        MULTWEAK ??onVolumeChange??rT
        MULTWEAK `??operator delete??rA`
        MULTWEAK `??operator new??rA`
        MULTWEAK `??operator new[]??rA`
        MULTWEAK ??rA??div32_a
        PUBLIC ??set_horizontal
        FUNCTION ??set_horizontal,0203H
        LOCFRAME CSTACK, 16, STACK
        MULTWEAK ??set_horizontal??rT
        PUBLIC ??set_vertical
        FUNCTION ??set_vertical,0203H
        LOCFRAME CSTACK, 16, STACK
        MULTWEAK ??set_vertical??rT
        MULTWEAK ??skin_InitConfig??rA
        PUBLIC ??softredraw
        FUNCTION ??softredraw,0603H
        LOCFRAME CSTACK, 24, STACK
        MULTWEAK ??softredraw??rT
        PUBLIC ??walkman_Redraw
        FUNCTION ??walkman_Redraw,0603H
        LOCFRAME CSTACK, 212, STACK
        MULTWEAK ??walkman_Redraw??rT
        PUBWEAK ?init?tab?DATA_I
        PUBWEAK ?init?tab?DATA_Z
        MULTWEAK `?~CBook??rA`
        PUBWEAK `?~CMyBook`
        FUNCTION `?~CMyBook`,0603H
        LOCFRAME CSTACK, 12, STACK
        PUBLIC AccelCtrl
        PUBLIC ELF_KILL_RECEIVED
        PUBLIC RedrawUsed
        PUBLIC ScreenHeight
        PUBLIC ScreenWidth
        PUBLIC SoftSize
        PUBLIC Softkey_DD
        PUBLIC Softkey_DO
        PUBLIC Softkey_DefaultRedraw
        PUBLIC StatusSize
        PUBLIC accel_wrk
        PUBLIC curmode
        PUBLIC currenttrack
        PUBLIC extFolder
        PUBLIC g_DO
        PUBLIC gvigcdisp
        PUBLIC hMGC
        PUBLIC imggc
        PUBLIC inMenu
        PUBLIC intFolder
        PUBLIC main
        FUNCTION main,0a03H
        LOCFRAME CSTACK, 24, STACK
        PUBLIC missedconsts
        PUBLIC modes
        PUBLIC oldredr
        PUBLIC skin_str
        PUBLIC test
        PUBLIC timer
        PUBLIC v_MPA_ID
        PUBLIC working
        
        CFI Names cfiNames0
        CFI StackFrame CFA R13 HUGEDATA
        CFI Resource R0:32, R1:32, R2:32, R3:32, R4:32, R5:32, R6:32, R7:32
        CFI Resource R8:32, R9:32, R10:32, R11:32, R12:32, CPSR:32, R13:32
        CFI Resource R14:32, SPSR:32
        CFI VirtualResource ?RET:32
        CFI EndNames cfiNames0
        
        CFI Common cfiCommon0 Using cfiNames0
        CFI CodeAlign 2
        CFI DataAlign 4
        CFI ReturnAddress ?RET CODE
        CFI CFA R13+0
        CFI R0 Undefined
        CFI R1 Undefined
        CFI R2 Undefined
        CFI R3 Undefined
        CFI R4 SameValue
        CFI R5 SameValue
        CFI R6 SameValue
        CFI R7 SameValue
        CFI R8 SameValue
        CFI R9 SameValue
        CFI R10 SameValue
        CFI R11 SameValue
        CFI R12 Undefined
        CFI CPSR SameValue
        CFI R14 Undefined
        CFI SPSR SameValue
        CFI ?RET R14
        CFI EndCommon cfiCommon0
        
        
        CFI Common cfiCommon1 Using cfiNames0
        CFI CodeAlign 4
        CFI DataAlign 4
        CFI ReturnAddress ?RET CODE
        CFI CFA R13+0
        CFI R0 Undefined
        CFI R1 Undefined
        CFI R2 Undefined
        CFI R3 Undefined
        CFI R4 SameValue
        CFI R5 SameValue
        CFI R6 SameValue
        CFI R7 SameValue
        CFI R8 SameValue
        CFI R9 SameValue
        CFI R10 SameValue
        CFI R11 SameValue
        CFI R12 Undefined
        CFI CPSR SameValue
        CFI R14 Undefined
        CFI SPSR SameValue
        CFI ?RET R14
        CFI EndCommon cfiCommon1
        






















__fAdd              SYMBOL "__fAdd"
__fDiv              SYMBOL "__fDiv"
__fMul              SYMBOL "__fMul"
__fSub              SYMBOL "__fSub"
__floatToLong       SYMBOL "__floatToLong"
__longToFloat       SYMBOL "__longToFloat"
__ulongToFloat      SYMBOL "__ulongToFloat"
kill_data           SYMBOL "kill_data"
??AddHook??rA       SYMBOL "??rA", ??AddHook
??CAccelCtrl??rA    SYMBOL "??rA", ??CAccelCtrl
??CBook??rA         SYMBOL "??rA", ??CBook
`?<Name CMyBook 425>` SYMBOL "CMyBook"

??CMyBook??rT       SYMBOL "??rT", ??CMyBook


??DrawLine2??rT     SYMBOL "??rT", ??DrawLine2
??DrawLine??rT      SYMBOL "??rT", ??DrawLine

??DrawProgress??rT  SYMBOL "??rT", ??DrawProgress

??FindGuiInBook??rT SYMBOL "??rT", ??FindGuiInBook

??GetRedraw??rT     SYMBOL "??rT", ??GetRedraw

??GetSize??rT       SYMBOL "??rT", ??GetSize
??InitConfig??rA    SYMBOL "??rA", ??InitConfig
??Lang_Initialize??rA SYMBOL "??rA", ??Lang_Initialize
??Lang_Remove??rA   SYMBOL "??rA", ??Lang_Remove

??NewKey??rT        SYMBOL "??rT", ??NewKey

??PageHook??rT      SYMBOL "??rT", ??PageHook

??ReturnRedraw??rT  SYMBOL "??rT", ??ReturnRedraw

??SB_ELF_Killed??rT SYMBOL "??rT", ??SB_ELF_Killed
??SaveConfigData??rA SYMBOL "??rA", ??SaveConfigData

??Send_REDRAW_RELEASE??rT SYMBOL "??rT", ??Send_REDRAW_RELEASE

??ShowAuthorInfo??rT SYMBOL "??rT", ??ShowAuthorInfo

??Softkey_SetOnRedraw??rT SYMBOL "??rT", ??Softkey_SetOnRedraw

??TerminateElf??rT  SYMBOL "??rT", ??TerminateElf
??TrackDesc_Compare??rA SYMBOL "??rA", ??TrackDesc_Compare
??TrackDesc_Free??rA SYMBOL "??rA", ??TrackDesc_Free
??TrackDesc_Get??rA SYMBOL "??rA", ??TrackDesc_Get
??__fAdd??rA        SYMBOL "??rA", __fAdd
??__fDiv??rA        SYMBOL "??rA", __fDiv
??__fMul??rA        SYMBOL "??rA", __fMul
??__fSub??rA        SYMBOL "??rA", __fSub
??__floatToLong??rA SYMBOL "??rA", __floatToLong
??__longToFloat??rA SYMBOL "??rA", __longToFloat
??__ulongToFloat??rA SYMBOL "??rA", __ulongToFloat
??__vtbl            SYMBOL "__vtbl", `?<Name CMyBook 425>`

??checkConsts??rT   SYMBOL "??rT", ??checkConsts

??checkfile_??rT    SYMBOL "??rT", ??checkfile_
??decoder_Init??rA  SYMBOL "??rA", ??decoder_Init
??deinit_resources??rA SYMBOL "??rA", ??deinit_resources
`??delete ~CAccelCtrl??rA` SYMBOL "??rA", `??delete ~CAccelCtrl`
??destroy??rA       SYMBOL "??rA", ??destroy

??elf_exit??rT      SYMBOL "??rT", ??elf_exit

??getimgID??rT      SYMBOL "??rT", ??getimgID
??getorientation??rA SYMBOL "??rA", ??getorientation
??getstatus??rA     SYMBOL "??rA", ??getstatus
??init_resources??rA SYMBOL "??rA", ??init_resources

??isBrowserItemBook??rT SYMBOL "??rT", ??isBrowserItemBook

??isKeylockBook??rT SYMBOL "??rT", ??isKeylockBook

??isVolCtrl??rT     SYMBOL "??rT", ??isVolCtrl

??isWalkmanDisplayBook??rT SYMBOL "??rT", ??isWalkmanDisplayBook
??kill_data??rA     SYMBOL "??rA", kill_data
main                SYMBOL "main"
??main??rT          SYMBOL "??rT", main

`??new CMyBook??rT` SYMBOL "??rT", `??new CMyBook`

??onAccel??rT       SYMBOL "??rT", ??onAccel

??onBcfgConfig??rT  SYMBOL "??rT", ??onBcfgConfig

??onClose??rT       SYMBOL "??rT", ??onClose

??onKeylock??rT     SYMBOL "??rT", ??onKeylock

??onPlay??rT        SYMBOL "??rT", ??onPlay

??onPlayerClosed??rT SYMBOL "??rT", ??onPlayerClosed

??onPlayerOpened??rT SYMBOL "??rT", ??onPlayerOpened

??onReconfig??rT    SYMBOL "??rT", ??onReconfig

??onStyleChanged??rT SYMBOL "??rT", ??onStyleChanged

??onTimer??rT       SYMBOL "??rT", ??onTimer

??onUnlock??rT      SYMBOL "??rT", ??onUnlock

??onVolumeChange??rT SYMBOL "??rT", ??onVolumeChange
`??operator delete??rA` SYMBOL "??rA", `??operator delete`
`??operator new??rA` SYMBOL "??rA", `??operator new`
`??operator new[]??rA` SYMBOL "??rA", `??operator new[]`

??set_horizontal??rT SYMBOL "??rT", ??set_horizontal

??set_vertical??rT  SYMBOL "??rT", ??set_vertical
??skin_InitConfig??rA SYMBOL "??rA", ??skin_InitConfig

??softredraw??rT    SYMBOL "??rT", ??softredraw

??walkman_Redraw??rT SYMBOL "??rT", ??walkman_Redraw
`?~CBook??rA`       SYMBOL "??rA", `?~CBook`

        EXTERN ??AddHook
        FUNCTION ??AddHook,0202H
        EXTERN ??CAccelCtrl
        FUNCTION ??CAccelCtrl,0202H
        EXTERN ??CBook
        FUNCTION ??CBook,0202H
        EXTERN ??InitConfig
        FUNCTION ??InitConfig,0202H
        EXTERN ??Lang_Initialize
        FUNCTION ??Lang_Initialize,0202H
        EXTERN ??Lang_Remove
        FUNCTION ??Lang_Remove,0202H
        EXTERN ??SaveConfigData
        FUNCTION ??SaveConfigData,0202H
        EXTERN ??TrackDesc_Compare
        FUNCTION ??TrackDesc_Compare,0202H
        EXTERN ??TrackDesc_Free
        FUNCTION ??TrackDesc_Free,0202H
        EXTERN ??TrackDesc_Get
        FUNCTION ??TrackDesc_Get,0202H
        EXTERN ??decoder_Init
        FUNCTION ??decoder_Init,0202H
        EXTERN ??deinit_resources
        FUNCTION ??deinit_resources,0202H
        EXTERN `??delete ~CAccelCtrl`
        FUNCTION `??delete ~CAccelCtrl`,0202H
        EXTERN ??destroy
        FUNCTION ??destroy,0202H
        EXTERN ??getorientation
        FUNCTION ??getorientation,0202H
        EXTERN ??getstatus
        FUNCTION ??getstatus,0202H
        EXTERN ??init_resources
        FUNCTION ??init_resources,0202H
        EXTERN `??operator delete`
        FUNCTION `??operator delete`,0202H
        EXTERN `??operator new`
        FUNCTION `??operator new`,0202H
        EXTERN `??operator new[]`
        FUNCTION `??operator new[]`,0202H
        EXTERN ??skin_InitConfig
        FUNCTION ??skin_InitConfig,0202H
        EXTERN `?~CBook`
        FUNCTION `?~CBook`,0202H
        EXTERN ELF_BEGIN
        EXTERN MyBook
        EXTERN ProgressBar_Show
        EXTERN ProgressBar_Show_h
        EXTERN ProgressBar_bColor
        EXTERN ProgressBar_bColor_h
        EXTERN ProgressBar_cColor
        EXTERN ProgressBar_cColor_h
        EXTERN ProgressBar_highlight
        EXTERN ProgressBar_highlight_h
        EXTERN ProgressBar_oColor
        EXTERN ProgressBar_oColor_h
        EXTERN UI_KEYLOCK_ACTIVATE_EVENT
        EXTERN UI_KEYLOCK_DEACTIVATE_EVENT
        EXTERN UI_MEDIAPLAYER_AUDIO_PLAYING_TIME_EVENT
        EXTERN UI_MEDIAPLAYER_DESTROYED_EVENT
        EXTERN UI_MEDIAPLAYER_PLAY_PRESSED_EVENT
        EXTERN VolumeBar_Show
        EXTERN VolumeBar_bColor
        EXTERN VolumeBar_cColor
        EXTERN VolumeBar_highlight
        EXTERN VolumeBar_oColor
        EXTERN __fAdd
        FUNCTION __fAdd,010202H
        EXTERN __fDiv
        FUNCTION __fDiv,010202H
        EXTERN __fMul
        FUNCTION __fMul,010202H
        EXTERN __fSub
        FUNCTION __fSub,010202H
        EXTERN __floatToLong
        FUNCTION __floatToLong,0202H
        EXTERN __longToFloat
        FUNCTION __longToFloat,0202H
        EXTERN __ulongToFloat
        FUNCTION __ulongToFloat,0202H
        EXTERN album_color
        EXTERN album_color_h
        EXTERN album_ct
        EXTERN album_ct_h
        EXTERN album_font
        EXTERN album_font_h
        EXTERN album_hl
        EXTERN album_hl_h
        EXTERN album_rc
        EXTERN album_rc_h
        EXTERN album_scolor
        EXTERN album_scolor_h
        EXTERN album_show
        EXTERN album_show_h
        EXTERN alicn_rect
        EXTERN alicn_rect_h
        EXTERN alicn_show
        EXTERN alicn_show_h
        EXTERN aricn_rect
        EXTERN aricn_rect_h
        EXTERN aricn_show
        EXTERN aricn_show_h
        EXTERN artist_color
        EXTERN artist_color_h
        EXTERN artist_ct
        EXTERN artist_ct_h
        EXTERN artist_font
        EXTERN artist_font_h
        EXTERN artist_hl
        EXTERN artist_hl_h
        EXTERN artist_rc
        EXTERN artist_rc_h
        EXTERN artist_scolor
        EXTERN artist_scolor_h
        EXTERN artist_show
        EXTERN artist_show_h
        EXTERN bitrate_color
        EXTERN bitrate_color_h
        EXTERN bitrate_ct
        EXTERN bitrate_ct_h
        EXTERN bitrate_font
        EXTERN bitrate_font_h
        EXTERN bitrate_hl
        EXTERN bitrate_hl_h
        EXTERN bitrate_mask
        EXTERN bitrate_mask_h
        EXTERN bitrate_rc
        EXTERN bitrate_rc_h
        EXTERN bitrate_scolor
        EXTERN bitrate_scolor_h
        EXTERN bitrate_show
        EXTERN bitrate_show_h
        EXTERN bitrate_vbr
        EXTERN bitrate_vbr_h
        EXTERN centerimg_rect
        EXTERN centerimg_rect_h
        EXTERN centerimg_show
        EXTERN centerimg_show_h
        EXTERN cfg_orient
        EXTERN ch_color
        EXTERN ch_color_h
        EXTERN ch_ct
        EXTERN ch_ct_h
        EXTERN ch_font
        EXTERN ch_font_h
        EXTERN ch_hl
        EXTERN ch_hl_h
        EXTERN ch_rc
        EXTERN ch_rc_h
        EXTERN ch_scolor
        EXTERN ch_scolor_h
        EXTERN ch_show
        EXTERN ch_show_h
        EXTERN cover_h_
        EXTERN cover_rect
        EXTERN cover_rect_h
        EXTERN cover_v_
        EXTERN ctime_color
        EXTERN ctime_color_h
        EXTERN ctime_ct
        EXTERN ctime_ct_h
        EXTERN ctime_font
        EXTERN ctime_font_h
        EXTERN ctime_hl
        EXTERN ctime_hl_h
        EXTERN ctime_mask
        EXTERN ctime_mask_h
        EXTERN ctime_rc
        EXTERN ctime_rc_h
        EXTERN ctime_scolor
        EXTERN ctime_scolor_h
        EXTERN ctime_show
        EXTERN ctime_show_h
        EXTERN downimg_rect
        EXTERN downimg_rect_h
        EXTERN downimg_show
        EXTERN downimg_show_h
        EXTERN eq_preset_rect
        EXTERN eq_preset_rect_h
        EXTERN eq_preset_show
        EXTERN eq_preset_show_h
        EXTERN freq_color
        EXTERN freq_color_h
        EXTERN freq_ct
        EXTERN freq_ct_h
        EXTERN freq_font
        EXTERN freq_font_h
        EXTERN freq_hl
        EXTERN freq_hl_h
        EXTERN freq_mask
        EXTERN freq_mask_h
        EXTERN freq_rc
        EXTERN freq_rc_h
        EXTERN freq_scolor
        EXTERN freq_scolor_h
        EXTERN freq_show
        EXTERN freq_show_h
        EXTERN ftime_color
        EXTERN ftime_color_h
        EXTERN ftime_ct
        EXTERN ftime_ct_h
        EXTERN ftime_font
        EXTERN ftime_font_h
        EXTERN ftime_hl
        EXTERN ftime_hl_h
        EXTERN ftime_mask
        EXTERN ftime_mask_h
        EXTERN ftime_rc
        EXTERN ftime_rc_h
        EXTERN ftime_scolor
        EXTERN ftime_scolor_h
        EXTERN ftime_show
        EXTERN ftime_show_h
        EXTERN genre_color
        EXTERN genre_color_h
        EXTERN genre_ct
        EXTERN genre_ct_h
        EXTERN genre_font
        EXTERN genre_font_h
        EXTERN genre_hl
        EXTERN genre_hl_h
        EXTERN genre_rc
        EXTERN genre_rc_h
        EXTERN genre_scolor
        EXTERN genre_scolor_h
        EXTERN genre_show
        EXTERN genre_show_h
        EXTERN hidesoftkeys
        EXTERN images
        EXTERN key_rotation
        EXTERN key_rotation_mode
        EXTERN kill_data
        FUNCTION kill_data,0202H
        EXTERN leftimg_rect
        EXTERN leftimg_rect_h
        EXTERN leftimg_show
        EXTERN leftimg_show_h
        EXTERN ltime_color
        EXTERN ltime_color_h
        EXTERN ltime_ct
        EXTERN ltime_ct_h
        EXTERN ltime_font
        EXTERN ltime_font_h
        EXTERN ltime_hl
        EXTERN ltime_hl_h
        EXTERN ltime_mask
        EXTERN ltime_mask_h
        EXTERN ltime_rc
        EXTERN ltime_rc_h
        EXTERN ltime_scolor
        EXTERN ltime_scolor_h
        EXTERN ltime_show
        EXTERN ltime_show_h
        EXTERN main_icons
        EXTERN media_images
        EXTERN navigimg
        EXTERN navigimg_rect
        EXTERN navigimg_rect_h
        EXTERN navigimg_show
        EXTERN navigimg_show_h
        EXTERN nowmusic
        EXTERN pauseicn
        EXTERN pbrect
        EXTERN pbrect_h
        EXTERN phone
        EXTERN playicn
        EXTERN playnow_h
        EXTERN playview_h
        EXTERN pls_rect
        EXTERN pls_rect_h
        EXTERN pls_show
        EXTERN pls_show_h
        EXTERN presets
        EXTERN repeat_rect
        EXTERN repeat_rect_h
        EXTERN repeat_show
        EXTERN repeat_show_h
        EXTERN restr_CoverAlbum
        EXTERN rightimg_rect
        EXTERN rightimg_rect_h
        EXTERN rightimg_show
        EXTERN rightimg_show_h
        EXTERN shuffle_rect
        EXTERN shuffle_rect_h
        EXTERN shuffle_show
        EXTERN shuffle_show_h
        EXTERN standartwnd
        EXTERN stereo_rect
        EXTERN stereo_rect_h
        EXTERN stereo_show
        EXTERN stereo_show_h
        EXTERN stopicn
        EXTERN successed_config_name
        EXTERN successed_config_path
        EXTERN successed_skin_name
        EXTERN successed_skin_path
        EXTERN ticn_rect
        EXTERN ticn_rect_h
        EXTERN ticn_show
        EXTERN ticn_show_h
        EXTERN title_color
        EXTERN title_color_h
        EXTERN title_ct
        EXTERN title_ct_h
        EXTERN title_font
        EXTERN title_font_h
        EXTERN title_hl
        EXTERN title_hl_h
        EXTERN title_rc
        EXTERN title_rc_h
        EXTERN title_scolor
        EXTERN title_scolor_h
        EXTERN title_show
        EXTERN title_show_h
        EXTERN trackn_color
        EXTERN trackn_color_h
        EXTERN trackn_ct
        EXTERN trackn_ct_h
        EXTERN trackn_font
        EXTERN trackn_font_h
        EXTERN trackn_hl
        EXTERN trackn_hl_h
        EXTERN trackn_mask
        EXTERN trackn_mask_h
        EXTERN trackn_rc
        EXTERN trackn_rc_h
        EXTERN trackn_scolor
        EXTERN trackn_scolor_h
        EXTERN trackn_show
        EXTERN trackn_show_h
        EXTERN tracks_color
        EXTERN tracks_color_h
        EXTERN tracks_ct
        EXTERN tracks_ct_h
        EXTERN tracks_font
        EXTERN tracks_font_h
        EXTERN tracks_hl
        EXTERN tracks_hl_h
        EXTERN tracks_mask
        EXTERN tracks_mask_h
        EXTERN tracks_rc
        EXTERN tracks_rc_h
        EXTERN tracks_scolor
        EXTERN tracks_scolor_h
        EXTERN tracks_show
        EXTERN tracks_show_h
        EXTERN upimg_rect
        EXTERN upimg_rect_h
        EXTERN upimg_show
        EXTERN upimg_show_h
        EXTERN use_accel
        EXTERN use_pauseicn
        EXTERN use_vbr
        EXTERN volrect
        EXTERN year_color
        EXTERN year_color_h
        EXTERN year_ct
        EXTERN year_ct_h
        EXTERN year_font
        EXTERN year_font_h
        EXTERN year_hl
        EXTERN year_hl_h
        EXTERN year_rc
        EXTERN year_rc_h
        EXTERN year_scolor
        EXTERN year_scolor_h
        EXTERN year_show
        EXTERN year_show_h

// Z:\home\perk11\www\perk11.info\svn\SE\WalkmanDisplay\main.cpp
//    1 #include "..\deleaker\mem2.h"
//    2 #include "..\include\Lib_Clara.h"
//    3 #include "..\include\Dir.h"
//    4 #include "header\cl.h"
//    5 #include "header\accelctrl.h"
//    6 #include "header\wdisplay.h"
//    7 #include "header\images.h"
//    8 #include "..\include\cfg_items.h"
//    9 #include "header\conf_loader.h"
//   10 #include "header\config_data.h"
//   11 #include "header\skin_data.h"
//   12 #include "header\skin_loader.h"
//   13 //#include "gvi.h"
//   14 
//   15 #include "header\rus.h"
//   16 #include "header\eng.h"
//   17 
//   18 
//   19 #define PROJECT_ABOUT "WalkmanDisplay v2.1\n© Fernandodks, UltraShot"
//   20 #define PROJECT_NAME "WalkmanDisplay"
//   21 #define PROJECT_BASEPAGE_NAME "WalkmanDisplay_Base_Page"
//   22 
//   23 #define MP_STATUS_STOP 0
//   24 #define MP_STATUS_PLAY 1 
//   25 #define MP_STATUS_PAUSE 2
//   26 #define MP_STATUS_FORWARD 3
//   27 #define MP_STATUS_REWIND 5
//   28 
//   29 DISP_DESC *Softkey_DD;
//   30 DISP_OBJ *Softkey_DO;
//   31 DISP_OBJ_ONREDRAW_METHOD Softkey_DefaultRedraw;
//   32 
//   33 
//   34 #ifndef NDEBUG
//   35 PROCESS proc_bench;
//   36 int bench_n=0;
//   37 #endif
//   38 
//   39 extern MyBOOK *MyBook;
//   40 extern wchar_t playview_h;
//   41 extern wchar_t browserview_h;
//   42 extern wchar_t playnow_h;
//   43 extern wchar_t imageID;
//   44 extern wchar_t cover_h_;
//   45 extern wchar_t cover_v_;
//   46 
//   47 extern wchar_t playicn;
//   48 extern wchar_t stopicn;
//   49 extern wchar_t pauseicn;
//   50 extern MUSIC nowmusic;
//   51 
//   52 extern wchar_t v_MPA_ID;
//   53 extern bool accel_wrk;
//   54 
//   55 bool RedrawUsed=false;
//   56 TRACK_DESC *currenttrack=0;

        RSEG DATA_Z:DATA:SORT:NOROOT(2)
//   57 wchar_t intFolder[512];
intFolder:
        DS8 1024
//   58 wchar_t extFolder[512];
extFolder:
        DS8 1024

        RSEG CODE:CODE:NOROOT(2)
        CFI Block cfiBlock0 Using cfiCommon0
        CFI NoFunction
        THUMB
`??new CMyBook??rT`:
        BX       PC
        Nop      
        CFI EndBlock cfiBlock0
        REQUIRE `??new CMyBook`

        RSEG CODE:CODE:NOROOT(2)
        CFI Block cfiBlock1 Using cfiCommon1
        CFI Function `??new CMyBook`
        ARM
// __??Code32?? __code __interwork __atpcs CMyBook &CMyBook::new CMyBook()
`??new CMyBook`:
        PUSH     {LR}
        CFI ?RET Frame(CFA, -4)
        CFI CFA R13+4
        MOV      R0,#+44
        _BLF     `??operator new`,`??operator new??rA`
        CMP      R0,#+0
        POPEQ    {PC}
        POP      {LR}             ;; Pop
        CFI ?RET R14
        CFI CFA R13+0
        B        ??CMyBook        ;; tailcall
        CFI EndBlock cfiBlock1

        RSEG CODE:CODE:NOROOT(2)
        CFI Block cfiBlock2 Using cfiCommon0
        CFI NoFunction
        THUMB
??elf_exit??rT:
        BX       PC
        Nop      
        CFI EndBlock cfiBlock2
        REQUIRE ??elf_exit
//   59 DISP_OBJ* g_DO=0;
//   60 CAccelCtrl *AccelCtrl=0;
//   61 bool working=false;
//   62 bool accel_wrk=true;
//   63 int curmode=2;
//   64 wchar_t v_MPA_ID=NOIMAGE;
//   65 int StatusSize=18;
//   66 int SoftSize=26;
//   67 int ScreenHeight;
//   68 int ScreenWidth;
//   69 bool ELF_KILL_RECEIVED=false;
//   70 wchar_t skin_str[512];
//   71 bool inMenu=false;
//   72 wchar_t *modes[]={
//   73   L"Stereo",
//   74   L"Joint Stereo",
//   75   L"Dual Channel",
//   76   L"Single Channel"
//   77 };
//   78 
//   79 void decoder_Init(wchar_t *path, wchar_t *name);
//   80 void TrackDesc_Free(TRACK_DESC *track_desc);
//   81 TRACK_DESC * TrackDesc_Get(BOOK *bk);
//   82 void onAccel(void*,int,int);
//   83 void init_resources(wchar_t*);
//   84 void deinit_resources();
//   85 int NewKey(int key,int,int mode, LPARAM, DISP_OBJ*);
//   86 GUI *FindGuiInBook(BOOK *bk, char *name);
//   87 void walkman_Redraw(DISP_OBJ* DO,int a,int b,int c);
//   88 void set_vertical();
//   89 void set_horizontal();
//   90 
//   91 typedef int (*GetInfo)(void *, int id, wchar_t *path, int bufsize1, wchar_t *fname, int bufsize2);
//   92 typedef struct
//   93 {
//   94   char dummy[0x2C];
//   95   GetInfo GetINFO;
//   96 }CSkinManager_Table;
//   97 
//   98 typedef struct
//   99 {
//  100   CSkinManager_Table *SkinManager_Table;
//  101 }CSkinManager;
//  102 
//  103 typedef struct
//  104 {
//  105   char dummy[0xB0];
//  106   CSkinManager *SkinManager;
//  107 }WBOOK;
//  108 
//  109 #pragma pack(1)
//  110 
//  111 
//  112 typedef struct
//  113 {
//  114   char dummy6[0x70];
//  115   int artist_str;
//  116   int title_str;
//  117   int album_str;
//  118   int fulltime;
//  119   char dummy7[8];
//  120   int currenttime;
//  121 }MM_INFO;
//  122 typedef struct
//  123 {
//  124   char dummy[0xB6];
//  125   char dummy2[0xC];
//  126   char status;
//  127   char dummy3[0x11];
//  128   wchar_t artist_icn;
//  129   wchar_t title_icn;
//  130   wchar_t album_icn;
//  131   char dummy4[0x74];
//  132   wchar_t prev_icn;
//  133   wchar_t prev_icn2;
//  134   wchar_t next_icn;
//  135   wchar_t next_icn2;
//  136   wchar_t play_icn;
//  137   wchar_t stop_icn;
//  138   char dummy5[0x42];
//  139   MM_INFO mm_info;
//  140 }DISP_OBJ_;
//  141 
//  142 typedef struct
//  143 {
//  144   char dummy[0x126];
//  145   char dummy2[0x20];
//  146   wchar_t up;
//  147   wchar_t down;
//  148 }ARROWS;
//  149 
//  150 typedef struct
//  151 {
//  152   char dummy[0x19];
//  153   char status;
//  154   char dummy_[0x1A];
//  155   char preset;
//  156   char dummy2[0x27];
//  157   wchar_t pos;
//  158   char dummy3[14];
//  159   BOOK_PLAYER_TRACK_DESC *dsc;
//  160   char dummy5[2];
//  161   wchar_t pos2;
//  162   wchar_t pos3;
//  163   char dummy6[22];
//  164   int tracks_count;
//  165   char dummy7[8];
//  166   char RepeatMode;
//  167   char ShuffleMode;
//  168   char unk_[6];
//  169   char StereoWidening;
//  170 }WALKMAN_BOOK;
//  171 
//  172 typedef struct
//  173 {
//  174   char dummy[0x22B];
//  175   char status;
//  176 }DISP_OBJ_NOWPLAYING;
//  177 
//  178 #pragma pack()

        RSEG CODE:CODE:NOROOT(2)
        CFI Block cfiBlock3 Using cfiCommon1
        CFI Function ??elf_exit
        ARM
//  179 void elf_exit(void)
//  180 {
??elf_exit:
        PUSH     {LR}
        CFI ?RET Frame(CFA, -4)
        CFI CFA R13+4
//  181   trace_done();
//  182   kill_data(&ELF_BEGIN, (void(*)(void*))mfree_adr());
        SWI      +33028
        MOV      R1,R0
        LDR      R0,??elf_exit_1  ;; ELF_BEGIN
        POP      {LR}             ;; Pop
        CFI ?RET R14
        CFI CFA R13+0
        _BF      kill_data,??kill_data??rA  ;; tailcall
        DATA
??elf_exit_1:
        DC32     ELF_BEGIN
        CFI EndBlock cfiBlock3
//  183 };

        RSEG CODE:CODE:NOROOT(2)
        CFI Block cfiBlock4 Using cfiCommon0
        CFI NoFunction
        THUMB
??TerminateElf??rT:
        BX       PC
        Nop      
        CFI EndBlock cfiBlock4
        REQUIRE ??TerminateElf
//  184 
//  185 class CMyBook:public CBook
//  186 {
//  187 public:
//  188   CMyBook();
//  189   void onClose();
//  190 };
//  191 
//  192 
//  193 #pragma optimize = s 9

        RSEG CODE:CODE:NOROOT(2)
        CFI Block cfiBlock5 Using cfiCommon1
        CFI Function ??TerminateElf
        ARM
//  194 __EVENT( TerminateElf )
//  195 {
//  196   ELF_KILL_RECEIVED=true;
??TerminateElf:
        LDR      R0,??TerminateElf_1  ;; v_MPA_ID + 83
        PUSH     {R4,LR}
        CFI ?RET Frame(CFA, -4)
        CFI R4 Frame(CFA, -8)
        CFI CFA R13+8
        MOV      R4,R1
        MOV      R1,#+1
        STRB     R1,[R0, #+0]
//  197   if (BOOK*bk=FindBook(get_IsAudioPlayerBook()))
        SWI      +33419
        SWI      +304
        CMP      R0,#+0
        BEQ      ??TerminateElf_2
//  198   {
//  199     BookObj_KillBook(bk);
        SWI      +300
//  200   }
//  201   ((CMyBook*)book)->destroy();
??TerminateElf_2:
        MOV      R0,R4
        _BLF     ??destroy,??destroy??rA
//  202   return(1);
        MOV      R0,#+1
        POP      {R4,PC}          ;; return
        DATA
??TerminateElf_1:
        DC32     v_MPA_ID + 83
        CFI EndBlock cfiBlock5
//  203 };

        RSEG CODE:CODE:NOROOT(2)
        CFI Block cfiBlock6 Using cfiCommon0
        CFI NoFunction
        THUMB
??ShowAuthorInfo??rT:
        BX       PC
        Nop      
        CFI EndBlock cfiBlock6
        REQUIRE ??ShowAuthorInfo
//  204 
//  205 #pragma optimize = s 9

        RSEG CODE:CODE:NOROOT(2)
        CFI Block cfiBlock7 Using cfiCommon1
        CFI Function ??ShowAuthorInfo
        ARM
//  206 __EVENT( ShowAuthorInfo )
//  207 {
??ShowAuthorInfo:
        PUSH     {R4,R5,LR}
        CFI ?RET Frame(CFA, -4)
        CFI R5 Frame(CFA, -8)
        CFI R4 Frame(CFA, -12)
        CFI CFA R13+12
//  208   MessageBox(EMPTY_TEXTID,STR(PROJECT_ABOUT), NOIMAGE, 1, 5000, ((BOOKMANMSG*)msg)->bookmanbook);
        MOV      R1,#+0
        MOV      R4,R0
        LDR      R0,??ShowAuthorInfo_1  ;; `?<Constant L"\\x57\\x61\\x6c\\x6b\\x6d\\x61\\x6e\\x44\\`
        MOV      R5,#+255
        ORR      R5,R5,#0xFF00
        MOV      R2,R5
        SWI      +349
        LDR      R1,[R4, #+0]
        MOV      R3,#+1
        PUSH     {R1}
        CFI CFA R13+16
        MOV      R2,R5
        MOV      R1,#+136
        ORR      R1,R1,#0x1300
        PUSH     {R1}
        CFI CFA R13+20
        MOV      R1,R0
        MVN      R0,#-1879048192
        SWI      +599
//  209   return(1);
        MOV      R0,#+1
        POP      {R1,R2,R4,R5,PC}  ;; return
        DATA
??ShowAuthorInfo_1:
        DC32     `?<Constant L"\\x57\\x61\\x6c\\x6b\\x6d\\x61\\x6e\\x44\\`
        CFI EndBlock cfiBlock7
//  210 };

        RSEG CODE:CODE:NOROOT(2)
        CFI Block cfiBlock8 Using cfiCommon0
        CFI NoFunction
        THUMB
??onPlayerClosed??rT:
        BX       PC
        Nop      
        CFI EndBlock cfiBlock8
        REQUIRE ??onPlayerClosed
//  211 
//  212 void Send_REDRAW_RELEASE();
//  213 void ReturnRedraw();
//  214 
//  215 bool TrackDesc_Compare(TRACK_DESC *t1, TRACK_DESC *t2);
//  216 

        RSEG CODE:CODE:NOROOT(2)
        CFI Block cfiBlock9 Using cfiCommon1
        CFI Function ??onPlayerClosed
        ARM
//  217 __EVENT( onPlayerClosed )
//  218 {
??onPlayerClosed:
        PUSH     {R4,R5,LR}
        CFI ?RET Frame(CFA, -4)
        CFI R5 Frame(CFA, -8)
        CFI R4 Frame(CFA, -12)
        CFI CFA R13+12
//  219   if (ELF_KILL_RECEIVED)
        LDR      R4,??DataTable32  ;; v_MPA_ID
        LDRB     R0,[R4, #+83]
        CMP      R0,#+0
//  220     return 0;
        MOVNE    R0,#+0
        POPNE    {R4,R5,PC}
//  221   ModifyKeyHook(NewKey, KEY_HOOK_REMOVE, NULL);
        LDR      R0,??DataTable1  ;; ??NewKey
        MOV      R2,#+0
        MOV      R1,R2
        SWI      +263
//  222   if (RedrawUsed)
        LDRB     R0,[R4, #+80]
        MOV      R5,#+0
        CMP      R0,#+0
        BEQ      ??onPlayerClosed_1
//  223   {
//  224     Send_REDRAW_RELEASE();
        BL       ??Send_REDRAW_RELEASE
//  225     ReturnRedraw();
        BL       ??ReturnRedraw
//  226   }
//  227   curmode=VERT;
??onPlayerClosed_1:
        MOV      R0,#+2
        STR      R0,[R4, #+44]
//  228   deinit_resources();
        _BLF     ??deinit_resources,??deinit_resources??rA
//  229   working=false;
        MOV      R0,#+0
        STRB     R0,[R4, #+81]
//  230   if (AccelCtrl)
        LDR      R0,[R4, #+40]
        CMP      R0,#+0
        BEQ      ??onPlayerClosed_2
//  231   {
//  232     if (AccelCtrl->getstatus()==ACC_ACTIVE)
        _BLF     ??getstatus,??getstatus??rA
        CMP      R0,#+1
        BNE      ??onPlayerClosed_3
//  233     {
//  234       if (use_accel!=2)
        LDR      R0,??DataTable2  ;; use_accel
        LDR      R0,[R0, #+0]
        CMP      R0,#+2
        BEQ      ??onPlayerClosed_3
//  235         AccelCtrl->AddHook(onAccel,0);
        LDR      R1,??DataTable3  ;; ??onAccel
        LDR      R0,[R4, #+40]
        MOV      R2,#+0
        _BLF     ??AddHook,??AddHook??rA
//  236     }
//  237     delete(AccelCtrl);
??onPlayerClosed_3:
        LDR      R0,[R4, #+40]
        _BLF     `??delete ~CAccelCtrl`,`??delete ~CAccelCtrl??rA`
//  238     AccelCtrl=0;
        STR      R5,[R4, #+40]
//  239   }
//  240   if (currenttrack)
??onPlayerClosed_2:
        LDR      R0,[R4, #+32]
        CMP      R0,#+0
        BEQ      ??onPlayerClosed_4
//  241     TrackDesc_Free(currenttrack);
        _BLF     ??TrackDesc_Free,??TrackDesc_Free??rA
//  242   currenttrack=0;
??onPlayerClosed_4:
        STR      R5,[R4, #+32]
//  243   g_DO=0;
        STR      R5,[R4, #+36]
//  244   return 0;
        MOV      R0,#+0
        POP      {R4,R5,PC}       ;; return
        CFI EndBlock cfiBlock9
//  245 };

        RSEG CODE:CODE:NOROOT(2)
        DATA
??DataTable1:
        DC32     ??NewKey

        RSEG CODE:CODE:NOROOT(2)
        DATA
??DataTable2:
        DC32     use_accel

        RSEG CODE:CODE:NOROOT(2)
        DATA
??DataTable3:
        DC32     ??onAccel

        RSEG CODE:CODE:NOROOT(2)
        CFI Block cfiBlock10 Using cfiCommon0
        CFI NoFunction
        THUMB
??onPlayerOpened??rT:
        BX       PC
        Nop      
        CFI EndBlock cfiBlock10
        REQUIRE ??onPlayerOpened
//  246 
//  247 DISP_OBJ_ONREDRAW_METHOD oldredr;
//  248 
//  249 #pragma optimize = z 9

        RSEG CODE:CODE:NOROOT(2)
        CFI Block cfiBlock11 Using cfiCommon1
        CFI Function ??onPlayerOpened
        ARM
//  250 __EVENT( onPlayerOpened )
//  251 {
??onPlayerOpened:
        PUSH     {R4,R5,LR}
        CFI ?RET Frame(CFA, -4)
        CFI R5 Frame(CFA, -8)
        CFI R4 Frame(CFA, -12)
        CFI CFA R13+12
//  252   if (working)
        LDR      R5,??DataTable32  ;; v_MPA_ID
        MOV      R4,R0
        LDRB     R0,[R5, #+81]
        CMP      R0,#+0
        POPEQ    {R4,R5,PC}
//  253   {
//  254     if (FindBook(get_IsAudioPlayerBook()))
        SWI      +33419
        SWI      +304
        CMP      R0,#+0
        POPEQ    {R4,R5,PC}
//  255     {
//  256       DISP_OBJ *DO=(DISP_OBJ*)msg;
//  257       g_DO=DO;
        STR      R4,[R5, #+36]
//  258       DISP_DESC_SetOnRedraw(DispObject_GetDESC(DO), walkman_Redraw);
        MOV      R0,R4
        SWI      +543
        LDR      R1,??DataTable5  ;; ??walkman_Redraw
        SWI      +552
//  259     }
//  260   }
//  261   return 0;
        MOV      R0,#+0
        POP      {R4,R5,PC}       ;; return
        CFI EndBlock cfiBlock11
//  262 };

        RSEG CODE:CODE:NOROOT(2)
        DATA
??DataTable5:
        DC32     ??walkman_Redraw

        RSEG CODE:CODE:NOROOT(2)
        CFI Block cfiBlock12 Using cfiCommon0
        CFI NoFunction
        THUMB
??isKeylockBook??rT:
        BX       PC
        Nop      
        CFI EndBlock cfiBlock12
        REQUIRE ??isKeylockBook
//  263 
//  264 #pragma optimize = s 9

        RSEG CODE:CODE:NOROOT(2)
        CFI Block cfiBlock13 Using cfiCommon1
        CFI Function ??isKeylockBook
        ARM
//  265 __NEEDED_BOOK(isKeylockBook)
//  266 {
//  267   if (!strcmp(book->xbook->name, "ScreensaverBook"))
??isKeylockBook:
        LDR      R1,??isKeylockBook_1  ;; `?<Constant "ScreensaverBook">`
        PUSH     {LR}
        CFI ?RET Frame(CFA, -4)
        CFI CFA R13+4
        LDR      R0,[R0, #+0]
        LDR      R0,[R0, #+4]
        SWI      +345
        CMP      R0,#+0
//  268     return 1;
        MOVEQ    R0,#+1
        POPEQ    {PC}
//  269   return 0;
        MOV      R0,#+0
        POP      {PC}             ;; return
        DATA
??isKeylockBook_1:
        DC32     `?<Constant "ScreensaverBook">`
        CFI EndBlock cfiBlock13
//  270 };

        RSEG CODE:CODE:NOROOT(2)
        CFI Block cfiBlock14 Using cfiCommon0
        CFI NoFunction
        THUMB
??onKeylock??rT:
        BX       PC
        Nop      
        CFI EndBlock cfiBlock14
        REQUIRE ??onKeylock
//  271 
//  272 

        RSEG CODE:CODE:NOROOT(2)
        CFI Block cfiBlock15 Using cfiCommon1
        CFI Function ??onKeylock
        ARM
//  273 __EVENT(onKeylock)
//  274 {
??onKeylock:
        PUSH     {R4-R7,LR}
        CFI ?RET Frame(CFA, -4)
        CFI R7 Frame(CFA, -8)
        CFI R6 Frame(CFA, -12)
        CFI R5 Frame(CFA, -16)
        CFI R4 Frame(CFA, -20)
        CFI CFA R13+20
//  275   if (working)
        LDR      R4,??DataTable30  ;; v_MPA_ID
        LDRB     R0,[R4, #+81]
        CMP      R0,#+0
        POPEQ    {R4-R7,PC}
//  276   {
//  277     BOOK *bk=FindBook(get_IsAudioPlayerBook());
        SWI      +33419
        SWI      +304
        MOV      R5,R0
//  278     if (bk==Display_GetTopBook(0) && curmode==HOR)
        MOV      R0,#+0
        SWI      +795
        CMP      R5,R0
        LDREQ    R0,[R4, #+44]
        CMPEQ    R0,#+1
        BNE      ??onKeylock_1
//  279     {
//  280       if (DISPBASE_GetFocused(0)!=g_DO)
        MOV      R0,#+0
        SWI      +541
        MOV      R1,R0
        LDR      R0,[R4, #+36]
        CMP      R1,R0
        BEQ      ??onKeylock_2
//  281       {
//  282         MediaPlayer_ShowNowPlaying(g_DO,1);
        MOV      R1,#+1
        SWI      +877
//  283       }
//  284       GUI *g=FindGuiInBook(bk,"MediaPlayer_Audio");
??onKeylock_2:
        LDR      R1,??DataTable31  ;; `?<Constant "MediaPlayer_Audio">`
        MOV      R0,R5
        BL       ??FindGuiInBook
        MOV      R6,R0
//  285       DISP_OBJ_WALKMAN *d=(DISP_OBJ_WALKMAN*)GUIObject_GetDispObject(g);
        SWI      +360
        MOV      R7,R0
//  286       GUIObject_SetStyle(g,2);
        MOV      R1,#+2
        MOV      R0,R6
        SWI      +310
//  287       d->imageID=v_MPA_ID;
        LDRH     R0,[R4, #+0]
//  288       GUIObject_SetTitleType(g, 0);
        MOV      R1,#+0
        STRB     R0,[R7, #+182]
        LSR      R0,R0,#+8
        STRB     R0,[R7, #+183]
        MOV      R0,R6
        SWI      +641
//  289       GUIObject_ShowSoftkeys(g);
        MOV      R0,R6
        SWI      +674
//  290       DispObject_InvalidateRect(GUIObject_GetDispObject(g),0);
        MOV      R0,R6
        SWI      +360
        MOV      R1,#+0
        SWI      +495
//  291       
//  292       
//  293       BookObj_Hide(bk,0);
        MOV      R1,#+0
        MOV      R0,R5
        SWI      +369
//  294       BookObj_Show(bk,0);
        MOV      R1,#+0
        MOV      R0,R5
        SWI      +370
//  295       
//  296       curmode=VERT;
        MOV      R0,#+2
        STR      R0,[R4, #+44]
//  297     }
//  298   }
//  299   return 0;
??onKeylock_1:
        MOV      R0,#+0
        POP      {R4-R7,PC}       ;; return
        CFI EndBlock cfiBlock15
//  300 };

        RSEG CODE:CODE:NOROOT(2)
        CFI Block cfiBlock16 Using cfiCommon0
        CFI NoFunction
        THUMB
??onPlay??rT:
        BX       PC
        Nop      
        CFI EndBlock cfiBlock16
        REQUIRE ??onPlay
//  301 

        RSEG CODE:CODE:NOROOT(2)
        CFI Block cfiBlock17 Using cfiCommon1
        CFI Function ??onPlay
        ARM
//  302 __EVENT( onPlay )
//  303 {
??onPlay:
        PUSH     {R4,R5,LR}
        CFI ?RET Frame(CFA, -4)
        CFI R5 Frame(CFA, -8)
        CFI R4 Frame(CFA, -12)
        CFI CFA R13+12
//  304   if (working)
        LDR      R4,??DataTable32  ;; v_MPA_ID
        LDRB     R0,[R4, #+81]
        CMP      R0,#+0
        POPEQ    {R4,R5,PC}
//  305   {
//  306     if (FindBook(get_IsAudioPlayerBook()))
        SWI      +33419
        SWI      +304
        CMP      R0,#+0
        POPEQ    {R4,R5,PC}
//  307     {
//  308       TRACK_DESC *ntrack=TrackDesc_Get(FindBook(get_IsAudioPlayerBook()));
        SWI      +33419
        SWI      +304
        _BLF     ??TrackDesc_Get,??TrackDesc_Get??rA
        MOV      R5,R0
//  309       if (TrackDesc_Compare(currenttrack,ntrack)==false)
        LDR      R0,[R4, #+32]
        MOV      R1,R5
        _BLF     ??TrackDesc_Compare,??TrackDesc_Compare??rA
        CMP      R0,#+0
        BNE      ??onPlay_1
//  310       {
//  311         TrackDesc_Free(currenttrack);
        LDR      R0,[R4, #+32]
        _BLF     ??TrackDesc_Free,??TrackDesc_Free??rA
//  312         currenttrack=ntrack;
        STR      R5,[R4, #+32]
//  313         decoder_Init(currenttrack->path,currenttrack->name);
        LDR      R1,[R5, #+4]
        LDR      R0,[R5, #+0]
        _BLF     ??decoder_Init,??decoder_Init??rA
//  314         nowmusic.hdr.LengthInSeconds=currenttrack->fulltime;
        LDR      R1,[R4, #+32]
        LDR      R0,??DataTable9  ;; nowmusic + 8
        LDR      R1,[R1, #+8]
        STR      R1,[R0, #+0]
        B        ??onPlay_2
//  315       }
//  316       else
//  317       {
//  318         TrackDesc_Free(ntrack);
??onPlay_1:
        MOV      R0,R5
        _BLF     ??TrackDesc_Free,??TrackDesc_Free??rA
//  319       }
//  320       if (g_DO)
??onPlay_2:
        LDR      R0,[R4, #+36]
        CMP      R0,#+0
        POPEQ    {R4,R5,PC}
//  321         DispObject_InvalidateRect(g_DO,0);
        MOV      R1,#+0
        SWI      +495
//  322     }
//  323   }
//  324   return 0;
        MOV      R0,#+0
        POP      {R4,R5,PC}       ;; return
        CFI EndBlock cfiBlock17
//  325 };

        RSEG CODE:CODE:NOROOT(2)
        DATA
??DataTable9:
        DC32     nowmusic + 8

        RSEG CODE:CODE:NOROOT(2)
        CFI Block cfiBlock18 Using cfiCommon0
        CFI NoFunction
        THUMB
??onUnlock??rT:
        BX       PC
        Nop      
        CFI EndBlock cfiBlock18
        REQUIRE ??onUnlock
//  326 

        RSEG CODE:CODE:NOROOT(2)
        CFI Block cfiBlock19 Using cfiCommon1
        CFI Function ??onUnlock
        ARM
//  327 __EVENT( onUnlock )
//  328 {
//  329   if (working)
??onUnlock:
        LDR      R0,??onUnlock_1  ;; v_MPA_ID + 81
        PUSH     {LR}
        CFI ?RET Frame(CFA, -4)
        CFI CFA R13+4
        LDRB     R0,[R0, #+0]
        CMP      R0,#+0
        POPEQ    {PC}
//  330   {
//  331     if (FindBook(get_IsAudioPlayerBook()))
        SWI      +33419
        SWI      +304
        CMP      R0,#+0
        POPEQ    {PC}
//  332     {
//  333       if (BookObj_GetDisplayOrientation(FindBook(get_IsAudioPlayerBook())))
        SWI      +33419
        SWI      +304
        SWI      +793
        CMP      R0,#+0
        POPEQ    {PC}
//  334       {
//  335         set_horizontal();
        BL       ??set_horizontal
//  336       }
//  337     }
//  338   }
//  339   return 0;
        MOV      R0,#+0
        POP      {PC}             ;; return
        DATA
??onUnlock_1:
        DC32     v_MPA_ID + 81
        CFI EndBlock cfiBlock19
//  340 };

        RSEG CODE:CODE:NOROOT(2)
        CFI Block cfiBlock20 Using cfiCommon0
        CFI NoFunction
        THUMB
??onReconfig??rT:
        BX       PC
        Nop      
        CFI EndBlock cfiBlock20
        REQUIRE ??onReconfig
//  341 

        RSEG CODE:CODE:NOROOT(2)
        CFI Block cfiBlock21 Using cfiCommon1
        CFI Function ??onReconfig
        ARM
//  342 __EVENT( onReconfig )
//  343 {
??onReconfig:
        PUSH     {R4-R7,LR}
        CFI ?RET Frame(CFA, -4)
        CFI R7 Frame(CFA, -8)
        CFI R6 Frame(CFA, -12)
        CFI R5 Frame(CFA, -16)
        CFI R4 Frame(CFA, -20)
        CFI CFA R13+20
//  344     // Ïåðåêîíôèãóðèðóåìñÿ
//  345   RECONFIG_EVENT_DATA *reconf=(RECONFIG_EVENT_DATA *)msg;
//  346   debug_printf("\nWalkmanDisplay: onReconfig: %ls/%ls asked. Our skin bcfg: %ls/%ls\n", reconf->path,reconf->name,successed_skin_path,successed_skin_name);
        LDR      R5,??DataTable20  ;; successed_skin_path
        LDR      R6,??DataTable21  ;; successed_skin_name
        MOV      R4,R0
        MOV      R0,R6
        PUSH     {R0}
        CFI CFA R13+24
        MOV      R3,R5
        ADD      R2,R4,#+128
        LDR      R0,??onReconfig_1  ;; `?<Constant "\\nWalkmanDisplay: onRe...">`
        MOV      R1,R4
        SWI      +433
//  347   int result=0;
//  348   // Åñëè êîíôèã íàø, ïåðåãðóçèì åãî
//  349   if (wstrcmpi(reconf->path,successed_config_path)==0 && wstrcmpi(reconf->name,successed_config_name)==0)
        LDR      R0,??DataTable12  ;; successed_config_path
        MOV      R7,#+0
        LDR      R1,[R0, #+0]
        MOV      R0,R4
        SWI      +671
        CMP      R0,#+0
        ADD      SP,SP,#+4
        CFI CFA R13+20
        BNE      ??onReconfig_2
        LDR      R0,??DataTable13  ;; successed_config_name
        LDR      R1,[R0, #+0]
        ADD      R0,R4,#+128
        SWI      +671
        CMP      R0,#+0
        BNE      ??onReconfig_2
//  350   {
//  351     InitConfig();
        _BLF     ??InitConfig,??InitConfig??rA
//  352     result=1;
        MOV      R7,#+1
//  353   }
//  354   if (wstrcmpi(reconf->path,successed_skin_path)==0 && wstrcmpi(reconf->name,successed_skin_name)==0)
??onReconfig_2:
        MOV      R1,R5
        MOV      R0,R4
        SWI      +671
        CMP      R0,#+0
        BNE      ??onReconfig_3
        MOV      R1,R6
        ADD      R0,R4,#+128
        SWI      +671
        CMP      R0,#+0
        BNE      ??onReconfig_3
//  355   {
//  356     skin_InitConfig(reconf->path, 1);
        MOV      R1,#+1
        MOV      R0,R4
        _BLF     ??skin_InitConfig,??skin_InitConfig??rA
//  357     result=1;
        MOV      R7,#+1
//  358   }
//  359   return(result);
??onReconfig_3:
        MOV      R0,R7
        POP      {R4-R7,PC}       ;; return
        DATA
??onReconfig_1:
        DC32     `?<Constant "\\nWalkmanDisplay: onRe...">`
        CFI EndBlock cfiBlock21
//  360 };

        RSEG CODE:CODE:NOROOT(2)
        DATA
??DataTable12:
        DC32     successed_config_path

        RSEG CODE:CODE:NOROOT(2)
        DATA
??DataTable13:
        DC32     successed_config_name

        RSEG CODE:CODE:NOROOT(2)
        CFI Block cfiBlock22 Using cfiCommon0
        CFI NoFunction
        THUMB
??onStyleChanged??rT:
        BX       PC
        Nop      
        CFI EndBlock cfiBlock22
        REQUIRE ??onStyleChanged
//  361 
//  362 
//  363 #define EVENT_HOOK(a,b) a,b,
//  364 #define EVENT_HOOK_TABLE(x) const PAGE_MSG x[]@ "DYN_PAGE" = {
//  365 #define EVENT_HOOK_TABLE_END 0,0}
//  366 
//  367 extern GC* hMGC;
//  368 extern GVI_GC imggc;

        RSEG DATA_Z:DATA:SORT:NOROOT(0)
//  369 bool test=false;
test:
        DS8 1

        RSEG CODE:CODE:NOROOT(2)
        CFI Block cfiBlock23 Using cfiCommon1
        CFI Function ??onStyleChanged
        ARM
//  370 __EVENT ( onStyleChanged )
//  371 {
??onStyleChanged:
        PUSH     {R4-R9,LR}
        CFI ?RET Frame(CFA, -4)
        CFI R9 Frame(CFA, -8)
        CFI R8 Frame(CFA, -12)
        CFI R7 Frame(CFA, -16)
        CFI R6 Frame(CFA, -20)
        CFI R5 Frame(CFA, -24)
        CFI R4 Frame(CFA, -28)
        CFI CFA R13+28
//  372   if (working)
        LDR      R4,??DataTable30  ;; v_MPA_ID
        LDRB     R0,[R4, #+81]
        CMP      R0,#+0
        POPEQ    {R4-R9,PC}
//  373   {
//  374     WBOOK *wb=(WBOOK*)FindBook(get_IsAudioPlayerBook());
        SWI      +33419
        SWI      +304
        MOVS     R7,R0
//  375     if (wb)
        BEQ      ??onStyleChanged_1
//  376     {
//  377       wchar_t *str=new wchar_t[0x100];
        MOV      R0,#+512
        _BLF     `??operator new[]`,`??operator new[]??rA`
        MOV      R5,R0
//  378       wchar_t *str2=new wchar_t[0x100];
        MOV      R0,#+512
        _BLF     `??operator new[]`,`??operator new[]??rA`
//  379       GetInfo SkinManager_GetSkinInfo=wb->SkinManager->SkinManager_Table->GetINFO;
//  380       
//  381       SkinManager_GetSkinInfo(wb->SkinManager,1,str,0xFF,str2,0xFF);
        LDR      R8,[R7, #+176]
        MOV      R6,R0
        MOV      R0,#+255
        PUSH     {R0}
        CFI CFA R13+32
        MOV      R3,#+255
        MOV      R2,R5
        MOV      R1,#+1
        MOV      R0,R6
        PUSH     {R0}
        CFI CFA R13+36
        MOV      R0,R8
        LDR      R8,[R8, #+0]
        LDR      R8,[R8, #+44]
        BLX      R8
//  382       if (wstrcmp(skin_str,str)!=0)
        MOV      R1,R5
        ADD      R0,R4,#+88
        SWI      +342
        CMP      R0,#+0
        ADD      SP,SP,#+8
        CFI CFA R13+28
        BEQ      ??onStyleChanged_2
//  383       {
//  384         wstrcpy(skin_str,str);
//  385         skin_InitConfig(skin_str, 0);
//  386         deinit_resources();
//  387         init_resources(skin_str);
//  388         
//  389         GUI *g=FindGuiInBook((BOOK*)wb,"MediaPlayer_Audio");
        LDR      R8,??DataTable31  ;; `?<Constant "MediaPlayer_Audio">`
        MOV      R1,R5
        ADD      R0,R4,#+88
        SWI      +338
        MOV      R1,#+0
        ADD      R0,R4,#+88
        _BLF     ??skin_InitConfig,??skin_InitConfig??rA
        _BLF     ??deinit_resources,??deinit_resources??rA
        ADD      R0,R4,#+88
        _BLF     ??init_resources,??init_resources??rA
        MOV      R1,R8
        MOV      R0,R7
        BL       ??FindGuiInBook
//  390         DISP_OBJ_WALKMAN *d=(DISP_OBJ_WALKMAN*)GUIObject_GetDispObject(g);
        SWI      +360
        MOV      R9,R0
//  391         
//  392         if (d->imageID!=NOIMAGE)
        LDRB     R0,[R9, #+183]
        LDRB     R1,[R9, #+182]
        ORR      R0,R1,R0, LSL #+8
        MOV      R1,#+255
        ORR      R1,R1,#0xFF00
        CMP      R0,R1
//  393           v_MPA_ID=d->imageID;
        STRHNE   R0,[R4, #+0]
//  394         
//  395         if (BookObj_GetDisplayOrientation((BOOK*)wb))
        MOV      R0,R7
        SWI      +793
        CMP      R0,#+0
        BEQ      ??onStyleChanged_3
//  396           d->imageID=playview_h;
        LDR      R0,??DataTable29  ;; playview_h
        LDRH     R0,[R0, #+0]
        STRB     R0,[R9, #+182]
        LSR      R0,R0,#+8
        STRB     R0,[R9, #+183]
//  397         DispObject_InvalidateRect((DISP_OBJ*)d, 0);
??onStyleChanged_3:
        MOV      R1,#+0
        MOV      R0,R9
        SWI      +495
//  398         if (hMGC)
        LDR      R0,[R4, #+68]
        CMP      R0,#+0
        BEQ      ??onStyleChanged_4
//  399           GC_FreeGC(hMGC);
        SWI      +918
//  400         hMGC=0;
        MOV      R0,#+0
??onStyleChanged_4:
        STR      R0,[R4, #+68]
//  401         imggc=0;
        STR      R0,[R4, #+72]
//  402         debug_printf("\nWalkmanDisplay: onStyleChanged. New skin: %ls\n", skin_str);
        ADD      R1,R4,#+88
        ADD      R0,R8,#+20
        SWI      +433
//  403       }
//  404       delete(str);
??onStyleChanged_2:
        MOV      R0,R5
        _BLF     `??operator delete`,`??operator delete??rA`
//  405       delete(str2);
        MOV      R0,R6
        _BLF     `??operator delete`,`??operator delete??rA`
//  406     }
//  407   }
//  408   return 0;
??onStyleChanged_1:
        MOV      R0,#+0
        POP      {R4-R9,PC}       ;; return
        CFI EndBlock cfiBlock23
//  409 };

        RSEG CODE:CODE:NOROOT(2)
        CFI Block cfiBlock24 Using cfiCommon0
        CFI NoFunction
        THUMB
??ReturnRedraw??rT:
        BX       PC
        Nop      
        CFI EndBlock cfiBlock24
        REQUIRE ??ReturnRedraw
//  410 

        RSEG CODE:CODE:NOROOT(2)
        CFI Block cfiBlock25 Using cfiCommon1
        CFI Function ??ReturnRedraw
        ARM
//  411 void ReturnRedraw()
//  412 { 
//  413   if (RedrawUsed==true)
??ReturnRedraw:
        LDR      R0,??DataTable32  ;; v_MPA_ID
        PUSH     {LR}
        CFI ?RET Frame(CFA, -4)
        CFI CFA R13+4
        LDRB     R1,[R0, #+80]
        CMP      R1,#+0
        POPEQ    {PC}
//  414   {
//  415     RedrawUsed=false;
        MOV      R1,#+0
        STRB     R1,[R0, #+80]
//  416     DISP_DESC_SetOnRedraw(Softkey_DD, Softkey_DefaultRedraw);
        LDR      R1,[R0, #+28]
        LDR      R0,[R0, #+20]
        SWI      +552
//  417     debug_printf("\nWalkmanDisplay: own redraw deinstalled\n");
        LDR      R0,??ReturnRedraw_1  ;; `?<Constant "\\nWalkmanDisplay: own ...">`
        SWI      +433
//  418   }
//  419 };
        POP      {PC}             ;; return
        DATA
??ReturnRedraw_1:
        DC32     `?<Constant "\\nWalkmanDisplay: own ...">`
        CFI EndBlock cfiBlock25

        RSEG CODE:CODE:NOROOT(2)
        CFI Block cfiBlock26 Using cfiCommon0
        CFI NoFunction
        THUMB
??SB_ELF_Killed??rT:
        BX       PC
        Nop      
        CFI EndBlock cfiBlock26
        REQUIRE ??SB_ELF_Killed
//  420 
//  421 
//  422 void softredraw(DISP_OBJ*,int,int,int);

        RSEG CODE:CODE:NOROOT(2)
        CFI Block cfiBlock27 Using cfiCommon1
        CFI Function ??SB_ELF_Killed
        ARM
//  423 int SB_ELF_Killed(void *mess ,BOOK* book)
//  424 {
??SB_ELF_Killed:
        PUSH     {R4-R7,LR}
        CFI ?RET Frame(CFA, -4)
        CFI R7 Frame(CFA, -8)
        CFI R6 Frame(CFA, -12)
        CFI R5 Frame(CFA, -16)
        CFI R4 Frame(CFA, -20)
        CFI CFA R13+20
//  425   REDRAW_RELEASE_MESSAGE * sbm=(REDRAW_RELEASE_MESSAGE*)mess;
//  426   REDRAW_RELEASE_MESSAGE *res=0;
//  427   if (sbm->SK_NewOnRedraw==Softkey_DefaultRedraw)
        LDR      R5,??DataTable32  ;; v_MPA_ID
        MOV      R4,R0
        LDR      R0,[R4, #+20]
        LDR      R1,[R5, #+28]
        CMP      R0,R1
        BNE      ??SB_ELF_Killed_1
//  428   {
//  429     if (!res)
//  430     {
//  431       res=new REDRAW_RELEASE_MESSAGE;
        MOV      R0,#+24
        _BLF     `??operator new`,`??operator new??rA`
        MOV      R6,R0
//  432       memcpy(res,sbm,sizeof(REDRAW_RELEASE_MESSAGE));
        MOV      R2,#+24
        MOV      R1,R4
        SWI      +275
//  433     }
//  434     if (sbm->SK_OldOnRedraw!=EMPTY_REDRAW_METHOD) Softkey_DefaultRedraw=sbm->SK_OldOnRedraw;
        LDR      R0,[R4, #+16]
//  435     DISP_DESC_SetOnRedraw(DispObject_GetDESC(Softkey_DO),softredraw);
        LDR      R4,??DataTable19  ;; ??softredraw
        MVN      R7,#+0
        CMP      R0,R7
        STRNE    R0,[R5, #+28]
        LDR      R0,[R5, #+24]
        SWI      +543
        MOV      R1,R4
        SWI      +552
//  436     res->SK_OldOnRedraw=EMPTY_REDRAW_METHOD;
        STR      R7,[R6, #+16]
//  437     res->SK_NewOnRedraw=softredraw;
        STR      R4,[R6, #+20]
//  438   }
//  439   if (res)
        CMP      R6,#+0
        BEQ      ??SB_ELF_Killed_1
//  440   {
//  441     UI_Event_wData(SBY_REDRAW_RELEASE_EVENT ,res,(void (*)(void*))mfree_adr());
        SWI      +33028
        MOV      R2,R0
        MOV      R1,R6
        MOV      R0,#+227
        ORR      R0,R0,#0x300
        SWI      +425
//  442     return BLOCK_EVENT_GLOBALLY;
        MOV      R0,#+154
        ORR      R0,R0,#0x200
        POP      {R4-R7,PC}
//  443   }
//  444   return 0;
??SB_ELF_Killed_1:
        MOV      R0,#+0
        POP      {R4-R7,PC}       ;; return
        CFI EndBlock cfiBlock27
//  445 };

        RSEG CODE:CODE:NOROOT(2)
        DATA
??DataTable19:
        DC32     ??softredraw

        RSEG CODE:CODE:NOROOT(2)
        CFI Block cfiBlock28 Using cfiCommon0
        CFI NoFunction
        THUMB
??onBcfgConfig??rT:
        BX       PC
        Nop      
        CFI EndBlock cfiBlock28
        REQUIRE ??onBcfgConfig
//  446 

        RSEG CODE:CODE:NOROOT(2)
        CFI Block cfiBlock29 Using cfiCommon1
        CFI Function ??onBcfgConfig
        ARM
//  447 __EVENT( onBcfgConfig )
//  448 {
??onBcfgConfig:
        PUSH     {R4-R7,LR}
        CFI ?RET Frame(CFA, -4)
        CFI R7 Frame(CFA, -8)
        CFI R6 Frame(CFA, -12)
        CFI R5 Frame(CFA, -16)
        CFI R4 Frame(CFA, -20)
        CFI CFA R13+20
//  449   if (successed_skin_path && successed_skin_name)
//  450   {
//  451     FILEITEM *fli=FILEITEM_Create();
//  452     FILEITEM_SetPathAndContentType(fli,successed_skin_path);
        LDR      R5,??DataTable20  ;; successed_skin_path
//  453     FILEITEM_SetFnameAndContentType(fli,successed_skin_name);
        LDR      R6,??DataTable21  ;; successed_skin_name
        SWI      +691
        MOV      R4,R0
        MOV      R1,R5
        SWI      +725
        MOV      R1,R6
        MOV      R0,R4
        SWI      +724
//  454     int bookid=BookObj_GetBookID(&MyBook->bk);
        LDR      R0,??DataTable22  ;; MyBook
        LDR      R0,[R0, #+0]
        SWI      +506
//  455     SUB_EXECUTE*se=DataBrowser_CreateSubExecute(bookid, fli);
        MOV      R1,R4
        SWI      +718
        MOV      R7,R0
//  456     DataBrowser_ExecuteSubroutine(se,1,0);
        MOV      R2,#+0
        MOV      R1,#+1
        SWI      +719
//  457     DataBrowser_ExecuteSubroutine(se,0x2D,0);
        MOV      R2,#+0
        MOV      R1,#+45
        MOV      R0,R7
        SWI      +719
//  458     debug_printf("\nWalkmanDisplay: onBcfgConfig: executing data browser's subroutine for %ls/%ls\n", successed_skin_path, successed_skin_name);
        LDR      R0,??onBcfgConfig_1  ;; `?<Constant "\\nWalkmanDisplay: onBc...">`
        MOV      R2,R6
        MOV      R1,R5
        SWI      +433
//  459     FILEITEM_Destroy(fli);
        MOV      R0,R4
        SWI      +692
//  460   }
//  461   else
//  462   {
//  463     MessageBox(EMPTY_TEXTID,TextID_Create(lng_msgSkinNotLoaded,ENC_UCS2,TEXTID_ANY_LEN),NOIMAGE,1,0,0);
//  464   }
//  465   return 1;
        MOV      R0,#+1
        POP      {R4-R7,PC}       ;; return
        DATA
??onBcfgConfig_1:
        DC32     `?<Constant "\\nWalkmanDisplay: onBc...">`
        CFI EndBlock cfiBlock29
//  466 }

        RSEG CODE:CODE:NOROOT(2)
        DATA
??DataTable20:
        DC32     successed_skin_path

        RSEG CODE:CODE:NOROOT(2)
        DATA
??DataTable21:
        DC32     successed_skin_name

        RSEG CODE:CODE:NOROOT(2)
        DATA
??DataTable22:
        DC32     MyBook

        RSEG CODE:CODE:NOROOT(2)
        CFI Block cfiBlock30 Using cfiCommon0
        CFI NoFunction
        THUMB
??onTimer??rT:
        BX       PC
        Nop      
        CFI EndBlock cfiBlock30
        REQUIRE ??onTimer
//  467 
//  468 u16 timer;

        RSEG CODE:CODE:NOROOT(2)
        CFI Block cfiBlock31 Using cfiCommon1
        CFI Function ??onTimer
        ARM
//  469 void onTimer(u16 timerID, LPARAM lparam)
//  470 {
??onTimer:
        PUSH     {R4,LR}
        CFI ?RET Frame(CFA, -4)
        CFI R4 Frame(CFA, -8)
        CFI CFA R13+8
//  471   BOOK *bk=FindBook(get_IsAudioPlayerBook());
//  472   if (bk)
        LDR      R4,??DataTable32  ;; v_MPA_ID
        SWI      +33419
        SWI      +304
        CMP      R0,#+0
        BEQ      ??onTimer_1
//  473   {
//  474     if (BookObj_GetDisplayOrientation(bk))
        SWI      +793
        CMP      R0,#+0
        BEQ      ??onTimer_1
//  475     {
//  476       DispObject_InvalidateRect(g_DO,(RECT*)&volrect);
        LDR      R1,??DataTable26  ;; volrect
        LDR      R0,[R4, #+36]
        SWI      +495
//  477     }
//  478   }
//  479   Timer_Kill(&timer);
??onTimer_1:
        ADD      R0,R4,#+2
        SWI      +298
//  480   timer=0;
        MOV      R0,#+0
        STRH     R0,[R4, #+2]
//  481 };
        POP      {R4,PC}          ;; return
        CFI EndBlock cfiBlock31

        RSEG CODE:CODE:NOROOT(2)
        CFI Block cfiBlock32 Using cfiCommon0
        CFI NoFunction
        THUMB
??onVolumeChange??rT:
        BX       PC
        Nop      
        CFI EndBlock cfiBlock32
        REQUIRE ??onVolumeChange

        RSEG CODE:CODE:NOROOT(2)
        CFI Block cfiBlock33 Using cfiCommon1
        CFI Function ??onVolumeChange
        ARM
//  482 __EVENT( onVolumeChange )
//  483 {
??onVolumeChange:
        PUSH     {R4,LR}
        CFI ?RET Frame(CFA, -4)
        CFI R4 Frame(CFA, -8)
        CFI CFA R13+8
//  484   if (working && g_DO)
        LDR      R4,??DataTable32  ;; v_MPA_ID
        LDRB     R0,[R4, #+81]
        CMP      R0,#+0
        LDRNE    R0,[R4, #+36]
        CMPNE    R0,#+0
        POPEQ    {R4,PC}
//  485   {
//  486     BOOK *bk=FindBook(get_IsAudioPlayerBook());
        SWI      +33419
        SWI      +304
//  487     if (bk)
        CMP      R0,#+0
        POPEQ    {R4,PC}
//  488     {
//  489       if (BookObj_GetDisplayOrientation(bk))
        SWI      +793
        CMP      R0,#+0
        POPEQ    {R4,PC}
//  490       {
//  491         DispObject_InvalidateRect(g_DO,(RECT*)&volrect);
        LDR      R1,??DataTable26  ;; volrect
        LDR      R0,[R4, #+36]
        SWI      +495
//  492         if (timer==0)
        LDRH     R3,[R4, #+2]
        LDR      R1,??onVolumeChange_1  ;; ??onTimer
        MOV      R0,#+184
        ORR      R0,R0,#0xB00
        MOV      R2,#+0
        CMP      R3,#+0
        BNE      ??onVolumeChange_2
//  493           timer=Timer_Set(3000, onTimer, 0);
        SWI      +297
        STRH     R0,[R4, #+2]
        MOV      R0,#+0
        POP      {R4,PC}
//  494         else
//  495           Timer_ReSet(&timer, 3000, onTimer, 0);
??onVolumeChange_2:
        MOV      R3,#+0
        MOV      R2,R1
        MOV      R1,R0
        ADD      R0,R4,#+2
        SWI      +296
//  496       }
//  497     }
//  498   }
//  499   return 0;
        MOV      R0,#+0
        POP      {R4,PC}          ;; return
        DATA
??onVolumeChange_1:
        DC32     ??onTimer
        CFI EndBlock cfiBlock33
//  500 };

        RSEG CODE:CODE:NOROOT(2)
        DATA
??DataTable26:
        DC32     volrect

        RSEG CODE:CODE:NOROOT(2)
        CFI Block cfiBlock34 Using cfiCommon0
        CFI NoFunction
        THUMB
??FindGuiInBook??rT:
        BX       PC
        Nop      
        CFI EndBlock cfiBlock34
        REQUIRE ??FindGuiInBook
//  501 
//  502 //0x29CF - UI_MEDIAPLAYER_VISUALIZATION_OPTIONS_CHANGED_EVENT

        RSEG DYN_PAGE:CONST:SORT:NOROOT(2)
//  503 EVENT_HOOK_TABLE(BasePageEvents)
BasePageEvents:
        DATA
        DC32 996, ??onReconfig, 997, ??TerminateElf, 998, ??ShowAuthorInfo, 995
        DC32 ??SB_ELF_Killed, 473, ??onPlayerClosed, 470, ??onPlay, 106
        DC32 ??onVolumeChange, 109, ??onVolumeChange, 373, ??onStyleChanged
        DC32 993, ??onPlayerOpened, 994, ??onBcfgConfig, 432, ??onKeylock, 433
        DC32 ??onUnlock, 0, 0H

        RSEG DATA_C:CONST:SORT:NOROOT(2)
`?<Constant L"\\x57\\x61\\x6c\\x6b\\x6d\\x61\\x6e\\x44\\`:
        DATA
        DC8 57H, 0, 61H, 0, 6CH, 0, 6BH, 0
        DC8 6DH, 0, 61H, 0, 6EH, 0, 44H, 0
        DC8 69H, 0, 73H, 0, 70H, 0, 6CH, 0
        DC8 61H, 0, 79H, 0, 20H, 0, 76H, 0
        DC8 32H, 0, 2EH, 0, 31H, 0, 0AH, 0
        DC8 0A9H, 0, 20H, 0, 46H, 0, 65H, 0
        DC8 72H, 0, 6EH, 0, 61H, 0, 6EH, 0
        DC8 64H, 0, 6FH, 0, 64H, 0, 6BH, 0
        DC8 73H, 0, 2CH, 0, 20H, 0, 55H, 0
        DC8 6CH, 0, 74H, 0, 72H, 0, 61H, 0
        DC8 53H, 0, 68H, 0, 6FH, 0, 74H, 0
        DC8 0, 0
        DC8 0, 0

        RSEG DATA_C:CONST:SORT:NOROOT(2)
`?<Constant "ScreensaverBook">`:
        DATA
        DC8 "ScreensaverBook"

        RSEG DATA_C:CONST:SORT:NOROOT(2)
`?<Constant "MediaPlayer_Audio">`:
        DATA
        DC8 "MediaPlayer_Audio"
        DC8 0, 0
        DC8 "\012WalkmanDisplay: onStyleChanged. New skin: %ls\012"
        DC8 "\012WalkmanDisplay: horizontal mode setted\012"
        DC8 0, 0, 0
        DC8 "\012WalkmanDisplay: vertical mode setted\012"
        DC8 0
        DC8 23H, 4, 20H, 0, 32H, 4, 30H, 4
        DC8 48H, 4, 35H, 4, 33H, 4, 3EH, 4
        DC8 20H, 0, 42H, 4, 35H, 4, 3BH, 4
        DC8 35H, 4, 44H, 4, 3EH, 4, 3DH, 4
        DC8 30H, 4, 20H, 0, 3FH, 4, 3BH, 4
        DC8 35H, 4, 35H, 4, 40H, 4, 20H, 0
        DC8 3DH, 4, 35H, 4, 20H, 0, 57H, 0
        DC8 61H, 0, 6CH, 0, 6BH, 0, 6DH, 0
        DC8 61H, 0, 6EH, 0, 20H, 0, 32H, 0
        DC8 2EH, 0, 30H, 0, 2EH, 0, 20H, 0
        DC8 18H, 4, 37H, 4, 32H, 4, 38H, 4
        DC8 3DH, 4, 38H, 4, 42H, 4, 35H, 4
        DC8 2CH, 0, 20H, 0, 3DH, 4, 3EH, 4
        DC8 20H, 0, 57H, 0, 61H, 0, 6CH, 0
        DC8 6BH, 0, 6DH, 0, 61H, 0, 6EH, 0
        DC8 20H, 0, 31H, 0, 2EH, 0, 34H, 0
        DC8 20H, 0, 3DH, 4, 35H, 4, 20H, 0
        DC8 3FH, 4, 3EH, 4, 34H, 4, 34H, 4
        DC8 35H, 4, 40H, 4, 36H, 4, 38H, 4
        DC8 32H, 4, 30H, 4, 35H, 4, 42H, 4
        DC8 41H, 4, 4FH, 4, 2EH, 0, 20H, 0
        DC8 18H, 4, 41H, 4, 3FH, 4, 3EH, 4
        DC8 3BH, 4, 4CH, 4, 37H, 4, 43H, 4
        DC8 39H, 4, 42H, 4, 35H, 4, 20H, 0
        DC8 50H, 0, 6CH, 0, 61H, 0, 79H, 0
        DC8 65H, 0, 72H, 0, 4DH, 0, 6FH, 0
        DC8 64H, 0, 20H, 0, 3BH, 0, 2DH, 0
        DC8 29H, 0, 0, 0
        DC8 57H, 0, 35H, 0, 38H, 0, 30H, 0
        DC8 2FH, 0, 57H, 0, 38H, 0, 35H, 0
        DC8 30H, 0, 20H, 0, 3EH, 4, 31H, 4
        DC8 3DH, 4, 30H, 4, 40H, 4, 43H, 4
        DC8 36H, 4, 35H, 4, 3DH, 4, 2EH, 0
        DC8 20H, 0, 21H, 4, 3EH, 4, 45H, 4
        DC8 40H, 4, 30H, 4, 3DH, 4, 35H, 4
        DC8 3DH, 4, 3EH, 4, 2EH, 0, 0, 0
        DC8 57H, 0, 36H, 0, 31H, 0, 30H, 0
        DC8 2FH, 0, 57H, 0, 36H, 0, 36H, 0
        DC8 30H, 0, 2FH, 0, 57H, 0, 38H, 0
        DC8 38H, 0, 30H, 0, 20H, 0, 3EH, 4
        DC8 31H, 4, 3DH, 4, 30H, 4, 40H, 4
        DC8 43H, 4, 36H, 4, 35H, 4, 3DH, 4
        DC8 2EH, 0, 20H, 0, 21H, 4, 3EH, 4
        DC8 45H, 4, 40H, 4, 30H, 4, 3DH, 4
        DC8 35H, 4, 3DH, 4, 3EH, 4, 2EH, 0
        DC8 0, 0
        DC8 0, 0
        DC8 57H, 0, 61H, 0, 6CH, 0, 6BH, 0
        DC8 6DH, 0, 61H, 0, 6EH, 0, 44H, 0
        DC8 69H, 0, 73H, 0, 70H, 0, 6CH, 0
        DC8 61H, 0, 79H, 0, 20H, 0, 43H, 4
        DC8 36H, 4, 35H, 4, 20H, 0, 37H, 4
        DC8 30H, 4, 3FH, 4, 43H, 4, 49H, 4
        DC8 35H, 4, 3DH, 4, 0, 0
        DC8 0, 0
        DC8 0AH, 57H, 61H, 6CH, 6BH, 6DH, 61H, 6EH
        DC8 44H, 69H, 73H, 70H, 6CH, 61H, 79H, 3AH
        DC8 20H, 69H, 6EH, 74H, 65H, 72H, 6EH, 61H
        DC8 6CH, 20H, 62H, 65H, 6EH, 63H, 68H, 6DH
        DC8 61H, 72H, 6BH, 20H, 77H, 61H, 73H, 6EH
        DC8 27H, 74H, 20H, 72H, 75H, 6EH, 6EH, 65H
        DC8 64H, 20H, 62H, 65H, 63H, 61H, 75H, 73H
        DC8 65H, 20H, 6FH, 66H, 20H, 72H, 65H, 6CH
        DC8 65H, 61H, 73H, 65H, 20H, 63H, 6FH, 6EH
        DC8 66H, 69H, 67H, 75H, 72H, 61H, 74H, 69H
        DC8 6FH, 6EH, 2CH, 20H, 73H, 6FH, 20H, 6EH
        DC8 6FH, 20H, 65H, 78H, 65H, 63H, 75H, 74H
        DC8 69H, 6FH, 6EH, 20H, 74H, 69H, 6DH, 65H
        DC8 20H, 63H, 61H, 6CH, 63H, 75H, 6CH, 61H
        DC8 74H, 69H, 6FH, 6EH, 73H, 20H, 77H, 69H
        DC8 6CH, 6CH, 20H, 62H, 65H, 20H, 70H, 65H
        DC8 72H, 66H, 6FH, 72H, 6DH, 65H, 64H, 0AH
        DC8 0
        DC8 0, 0, 0
        DC8 0AH, 57H, 61H, 6CH, 6BH, 6DH, 61H, 6EH
        DC8 44H, 69H, 73H, 70H, 6CH, 61H, 79H, 3AH
        DC8 20H, 65H, 6EH, 63H, 6FH, 64H, 69H, 6EH
        DC8 67H, 2EH, 62H, 69H, 6EH, 20H, 66H, 6FH
        DC8 75H, 6EH, 64H, 65H, 64H, 2EH, 20H, 57H
        DC8 69H, 6CH, 6CH, 20H, 62H, 65H, 20H, 75H
        DC8 73H, 65H, 64H, 20H, 69H, 6EH, 20H, 69H
        DC8 64H, 33H, 20H, 76H, 31H, 20H, 70H, 61H
        DC8 72H, 73H, 65H, 72H, 0AH, 0
        DC8 0, 0
        DC8 0AH, 57H, 61H, 6CH, 6BH, 6DH, 61H, 6EH
        DC8 44H, 69H, 73H, 70H, 6CH, 61H, 79H, 3AH
        DC8 20H, 65H, 6EH, 63H, 6FH, 64H, 69H, 6EH
        DC8 67H, 2EH, 62H, 69H, 6EH, 20H, 6DH, 69H
        DC8 73H, 73H, 65H, 64H, 2EH, 20H, 73H, 74H
        DC8 72H, 32H, 77H, 73H, 74H, 72H, 20H, 77H
        DC8 69H, 6CH, 6CH, 20H, 62H, 65H, 20H, 75H
        DC8 73H, 65H, 64H, 20H, 69H, 6EH, 20H, 69H
        DC8 64H, 33H, 20H, 76H, 31H, 20H, 70H, 61H
        DC8 72H, 73H, 65H, 72H, 0AH, 0
        DC8 0, 0
        DC8 "\012WalkmanDisplay: initial loading finished\012"
        DC8 0

        RSEG DATA_C:CONST:SORT:NOROOT(2)
`?<Constant "\\nWalkmanDisplay: onRe...">`:
        DATA
        DC8 0AH, 57H, 61H, 6CH, 6BH, 6DH, 61H, 6EH
        DC8 44H, 69H, 73H, 70H, 6CH, 61H, 79H, 3AH
        DC8 20H, 6FH, 6EH, 52H, 65H, 63H, 6FH, 6EH
        DC8 66H, 69H, 67H, 3AH, 20H, 25H, 6CH, 73H
        DC8 2FH, 25H, 6CH, 73H, 20H, 61H, 73H, 6BH
        DC8 65H, 64H, 2EH, 20H, 4FH, 75H, 72H, 20H
        DC8 73H, 6BH, 69H, 6EH, 20H, 62H, 63H, 66H
        DC8 67H, 3AH, 20H, 25H, 6CH, 73H, 2FH, 25H
        DC8 6CH, 73H, 0AH, 0

        RSEG DATA_C:CONST:SORT:NOROOT(2)
`?<Constant "\\nWalkmanDisplay: onBc...">`:
        DATA
        DC8 0AH, 57H, 61H, 6CH, 6BH, 6DH, 61H, 6EH
        DC8 44H, 69H, 73H, 70H, 6CH, 61H, 79H, 3AH
        DC8 20H, 6FH, 6EH, 42H, 63H, 66H, 67H, 43H
        DC8 6FH, 6EH, 66H, 69H, 67H, 3AH, 20H, 65H
        DC8 78H, 65H, 63H, 75H, 74H, 69H, 6EH, 67H
        DC8 20H, 64H, 61H, 74H, 61H, 20H, 62H, 72H
        DC8 6FH, 77H, 73H, 65H, 72H, 27H, 73H, 20H
        DC8 73H, 75H, 62H, 72H, 6FH, 75H, 74H, 69H
        DC8 6EH, 65H, 20H, 66H, 6FH, 72H, 20H, 25H
        DC8 6CH, 73H, 2FH, 25H, 6CH, 73H, 0AH, 0

        RSEG DATA_C:CONST:SORT:NOROOT(2)
`?<Constant "\\nWalkmanDisplay: own ...">`:
        DATA
        DC8 "\012WalkmanDisplay: own redraw deinstalled\012"
        DC8 0, 0, 0

        RSEG DATA_C:CONST:SORT:NOROOT(2)
`?<Constant "\\nWalkmanDisplay: old ...">`:
        DATA
        DC8 "\012WalkmanDisplay: old redraw: %X\012"
        DC8 0, 0, 0

        RSEG DATA_C:CONST:SORT:NOROOT(2)
`?<Constant "BrowserItemBook">`:
        DATA
        DC8 "BrowserItemBook"

        RSEG DATA_C:CONST:SORT:NOROOT(2)
`?<Constant "\\nWalkmanDisplay: page...">`:
        DATA
        DC8 "\012WalkmanDisplay: pagehook called from %s\012"
        DC8 0, 0
//  504   EVENT_HOOK(ELF_RECONFIG_EVENT, onReconfig)
//  505   EVENT_HOOK(ELF_TERMINATE_EVENT , TerminateElf)
//  506   EVENT_HOOK(ELF_SHOW_INFO_EVENT  , ShowAuthorInfo)
//  507   EVENT_HOOK(SBY_REDRAW_RELEASE_EVENT  , SB_ELF_Killed)
//  508   EVENT_HOOK(UI_MEDIAPLAYER_DESTROYED_EVENT_TAG , onPlayerClosed)
//  509   EVENT_HOOK(UI_MEDIAPLAYER_PLAY_PRESSED_EVENT_TAG, onPlay)
//  510   EVENT_HOOK(VOLUMEUPKEY_SHORT_PRESS_EVENT_TAG, onVolumeChange)
//  511   EVENT_HOOK(VOLUMEDOWNKEY_SHORT_PRESS_EVENT_TAG, onVolumeChange)
//  512   EVENT_HOOK(SESSION_DESTROYED_EVENT_TAG,onStyleChanged)
//  513   EVENT_HOOK(993, onPlayerOpened)
//  514   EVENT_HOOK(994, onBcfgConfig)
//  515   EVENT_HOOK(UI_KEYLOCK_ACTIVATE_EVENT_TAG, onKeylock)
//  516   EVENT_HOOK(UI_KEYLOCK_DEACTIVATE_EVENT_TAG, onUnlock)
//  517 EVENT_HOOK_TABLE_END;
//  518 

        RSEG DATA_C:CONST:SORT:NOROOT(2)
`?<Constant "WalkmanDisplay">`:
        DATA
        DC8 "WalkmanDisplay"
        DC8 0
// __vtbl_entry const __data CMyBook::__vtbl[2]
??__vtbl:
        DC32 `?~CMyBook`, ??onClose
        DC8 2FH, 0, 57H, 0, 61H, 0, 6CH, 0
        DC8 6BH, 0, 6DH, 0, 61H, 0, 6EH, 0
        DC8 44H, 0, 69H, 0, 73H, 0, 70H, 0
        DC8 6CH, 0, 61H, 0, 79H, 0, 2FH, 0
        DC8 0, 0
        DC8 0, 0
        DC32 `?<Constant "WalkmanDisplay_Base_Page">`, 0H, BasePageEvents

        RSEG DATA_C:CONST:SORT:NOROOT(2)
`?<Constant L"\\x41e\\x442\\x441\\x443\\x442\\x441\\x4`:
        DATA
        DC8 1EH, 4, 42H, 4, 41H, 4, 43H, 4
        DC8 42H, 4, 41H, 4, 42H, 4, 32H, 4
        DC8 43H, 4, 4EH, 4, 49H, 4, 38H, 4
        DC8 35H, 4, 20H, 0, 3AH, 4, 3EH, 4
        DC8 3DH, 4, 41H, 4, 42H, 4, 30H, 4
        DC8 3DH, 4, 42H, 4, 4BH, 4, 3AH, 0
        DC8 20H, 0, 0AH, 0, 0, 0
        DC8 0, 0
        DC8 55H, 0, 49H, 0, 5FH, 0, 4DH, 0
        DC8 45H, 0, 44H, 0, 49H, 0, 41H, 0
        DC8 50H, 0, 4CH, 0, 41H, 0, 59H, 0
        DC8 45H, 0, 52H, 0, 5FH, 0, 44H, 0
        DC8 45H, 0, 53H, 0, 54H, 0, 52H, 0
        DC8 4FH, 0, 59H, 0, 45H, 0, 44H, 0
        DC8 5FH, 0, 45H, 0, 56H, 0, 45H, 0
        DC8 4EH, 0, 54H, 0, 0AH, 0, 0, 0
        DC8 55H, 0, 49H, 0, 5FH, 0, 4DH, 0
        DC8 45H, 0, 44H, 0, 49H, 0, 41H, 0
        DC8 50H, 0, 4CH, 0, 41H, 0, 59H, 0
        DC8 45H, 0, 52H, 0, 5FH, 0, 50H, 0
        DC8 4CH, 0, 41H, 0, 59H, 0, 5FH, 0
        DC8 50H, 0, 52H, 0, 45H, 0, 53H, 0
        DC8 53H, 0, 45H, 0, 44H, 0, 5FH, 0
        DC8 45H, 0, 56H, 0, 45H, 0, 4EH, 0
        DC8 54H, 0, 0AH, 0, 0, 0
        DC8 0, 0
        DC8 55H, 0, 49H, 0, 5FH, 0, 4DH, 0
        DC8 45H, 0, 44H, 0, 49H, 0, 41H, 0
        DC8 50H, 0, 4CH, 0, 41H, 0, 59H, 0
        DC8 45H, 0, 52H, 0, 5FH, 0, 41H, 0
        DC8 55H, 0, 44H, 0, 49H, 0, 4FH, 0
        DC8 5FH, 0, 50H, 0, 4CH, 0, 41H, 0
        DC8 59H, 0, 49H, 0, 4EH, 0, 47H, 0
        DC8 5FH, 0, 54H, 0, 49H, 0, 4DH, 0
        DC8 45H, 0, 5FH, 0, 45H, 0, 56H, 0
        DC8 45H, 0, 4EH, 0, 54H, 0, 0AH, 0
        DC8 0, 0
        DC8 0, 0
        DC8 55H, 0, 49H, 0, 5FH, 0, 4BH, 0
        DC8 45H, 0, 59H, 0, 4CH, 0, 4FH, 0
        DC8 43H, 0, 4BH, 0, 5FH, 0, 44H, 0
        DC8 45H, 0, 41H, 0, 43H, 0, 54H, 0
        DC8 49H, 0, 56H, 0, 41H, 0, 54H, 0
        DC8 45H, 0, 5FH, 0, 45H, 0, 56H, 0
        DC8 45H, 0, 4EH, 0, 54H, 0, 0AH, 0
        DC8 0, 0
        DC8 0, 0
        DC8 55H, 0, 49H, 0, 5FH, 0, 4BH, 0
        DC8 45H, 0, 59H, 0, 4CH, 0, 4FH, 0
        DC8 43H, 0, 4BH, 0, 5FH, 0, 41H, 0
        DC8 43H, 0, 54H, 0, 49H, 0, 56H, 0
        DC8 41H, 0, 54H, 0, 45H, 0, 5FH, 0
        DC8 45H, 0, 56H, 0, 45H, 0, 4EH, 0
        DC8 54H, 0, 0AH, 0, 0, 0
        DC8 0, 0

        RSEG DATA_C:CONST:SORT:NOROOT(2)
`?<Constant "\\nWalkmanDisplay: own ...">_1`:
        DATA
        DC8 "\012WalkmanDisplay: own softkey redraw setted\012"

        RSEG DATA_C:CONST:SORT:NOROOT(2)
`?<Constant L"\\x44\\x75\\x61\\x6c\\x20\\x43\\x68\\x61\\`:
        DATA
        DC8 44H, 0, 75H, 0, 61H, 0, 6CH, 0
        DC8 20H, 0, 43H, 0, 68H, 0, 61H, 0
        DC8 6EH, 0, 6EH, 0, 65H, 0, 6CH, 0
        DC8 0, 0
        DC8 0, 0

        RSEG DATA_C:CONST:SORT:NOROOT(2)
`?<Constant L"\\x53\\x74\\x65\\x72\\x65\\x6f">`:
        DATA
        DC8 53H, 0, 74H, 0, 65H, 0, 72H, 0
        DC8 65H, 0, 6FH, 0, 0, 0
        DC8 0, 0

        RSEG DATA_C:CONST:SORT:NOROOT(2)
`?<Constant L"\\x4a\\x6f\\x69\\x6e\\x74\\x20\\x53\\x74\\`:
        DATA
        DC8 4AH, 0, 6FH, 0, 69H, 0, 6EH, 0
        DC8 74H, 0, 20H, 0, 53H, 0, 74H, 0
        DC8 65H, 0, 72H, 0, 65H, 0, 6FH, 0
        DC8 0, 0
        DC8 0, 0

        RSEG DATA_C:CONST:SORT:NOROOT(2)
`?<Constant L"\\x53\\x69\\x6e\\x67\\x6c\\x65\\x20\\x43\\`:
        DATA
        DC8 53H, 0, 69H, 0, 6EH, 0, 67H, 0
        DC8 6CH, 0, 65H, 0, 20H, 0, 43H, 0
        DC8 68H, 0, 61H, 0, 6EH, 0, 6EH, 0
        DC8 65H, 0, 6CH, 0, 0, 0
        DC8 0, 0

        RSEG DATA_C:CONST:SORT:NOROOT(2)
`?<Constant "WalkmanDisplay_Base_Page">`:
        DATA
        DC8 "WalkmanDisplay_Base_Page"
        DC8 0, 0, 0
//  519 const PAGE_DESC base_page ={PROJECT_BASEPAGE_NAME,0,BasePageEvents};
//  520 
//  521 #pragma optimize = s 9

        RSEG CODE:CODE:NOROOT(2)
        CFI Block cfiBlock35 Using cfiCommon1
        CFI Function ??FindGuiInBook
        ARM
//  522 GUI *FindGuiInBook(BOOK *bk, char *name)
//  523 {
??FindGuiInBook:
        PUSH     {R4-R7,LR}
        CFI ?RET Frame(CFA, -4)
        CFI R7 Frame(CFA, -8)
        CFI R6 Frame(CFA, -12)
        CFI R5 Frame(CFA, -16)
        CFI R4 Frame(CFA, -20)
        CFI CFA R13+20
//  524   LIST *lst=bk->xguilist->guilist;
        LDR      R0,[R0, #+20]
        MOV      R4,R1
        LDR      R5,[R0, #+4]
//  525   for (int x=0;x<lst->FirstFree;x++)
        MOV      R6,#+0
        B        ??FindGuiInBook_1
??FindGuiInBook_2:
        ADD      R6,R6,#+1
??FindGuiInBook_1:
        LDRH     R0,[R5, #+2]
        CMP      R6,R0
        BGE      ??FindGuiInBook_3
//  526   {
//  527     GUI * g=(GUI*)List_Get(lst,x);
        MOV      R1,R6
        MOV      R0,R5
        SWI      +429
        MOV      R7,R0
//  528     if (strcmp(DISP_OBJ_GetName(GUIObject_GetDispObject(g)),name)==0)
        SWI      +360
        SWI      +545
        MOV      R1,R4
        SWI      +345
        CMP      R0,#+0
        BNE      ??FindGuiInBook_2
//  529       return g;
        MOV      R0,R7
        POP      {R4-R7,PC}
//  530   }
//  531   return 0;
??FindGuiInBook_3:
        MOV      R0,#+0
        POP      {R4-R7,PC}       ;; return
        CFI EndBlock cfiBlock35
//  532 };

        RSEG CODE:CODE:NOROOT(2)
        CFI Block cfiBlock36 Using cfiCommon0
        CFI NoFunction
        THUMB
??set_horizontal??rT:
        BX       PC
        Nop      
        CFI EndBlock cfiBlock36
        REQUIRE ??set_horizontal
//  533 
//  534 #pragma optimize = z 9

        RSEG CODE:CODE:NOROOT(2)
        CFI Block cfiBlock37 Using cfiCommon1
        CFI Function ??set_horizontal
        ARM
//  535 void set_horizontal()
//  536 {
??set_horizontal:
        PUSH     {R4-R6,LR}
        CFI ?RET Frame(CFA, -4)
        CFI R6 Frame(CFA, -8)
        CFI R5 Frame(CFA, -12)
        CFI R4 Frame(CFA, -16)
        CFI CFA R13+16
//  537   if (working)
        LDR      R4,??DataTable32  ;; v_MPA_ID
        LDRB     R0,[R4, #+81]
        CMP      R0,#+0
        POPEQ    {R4-R6,PC}
//  538   {
//  539     debug_printf("\nWalkmanDisplay: horizontal mode setted\n");
        LDR      R6,??DataTable31  ;; `?<Constant "MediaPlayer_Audio">`
        ADD      R0,R6,#+68
        SWI      +433
//  540     BOOK *mybook=FindBook(get_IsAudioPlayerBook());
        SWI      +33419
        SWI      +304
        MOV      R5,R0
//  541     if (Display_GetTopBook(0)==mybook)
        MOV      R0,#+0
        SWI      +795
        CMP      R0,R5
        BNE      ??set_horizontal_1
//  542     {
//  543       BookObj_SetDisplayOrientation(mybook, 1);
        MOV      R1,#+1
        MOV      R0,R5
        SWI      +794
//  544       
//  545       GUI *g=FindGuiInBook(mybook,"MediaPlayer_Audio");
        MOV      R1,R6
        MOV      R0,R5
        BL       ??FindGuiInBook
        MOV      R6,R0
//  546       DISP_OBJ_WALKMAN *d=(DISP_OBJ_WALKMAN*)GUIObject_GetDispObject(g);
        SWI      +360
//  547       d->imageID=playview_h;
        LDR      R1,??DataTable29  ;; playview_h
        LDRH     R1,[R1, #+0]
        STRB     R1,[R0, #+182]
        LSR      R1,R1,#+8
        STRB     R1,[R0, #+183]
//  548       GUIObject_SetStyle(g,4);
        MOV      R1,#+4
        MOV      R0,R6
        SWI      +310
//  549       GUIObject_SetTitleType(g, 1);
        MOV      R1,#+1
        MOV      R0,R6
        SWI      +641
//  550       DispObject_InvalidateRect(GUIObject_GetDispObject(g),0);
        MOV      R0,R6
        SWI      +360
        MOV      R1,#+0
        SWI      +495
//  551       
//  552       BookObj_Hide(mybook, 0);
        MOV      R1,#+0
        MOV      R0,R5
        SWI      +369
//  553       BookObj_Show(mybook, 0);
        MOV      R1,#+0
        MOV      R0,R5
        SWI      +370
//  554     }
//  555     curmode=HOR;
??set_horizontal_1:
        MOV      R0,#+1
        STR      R0,[R4, #+44]
//  556   }
//  557 };
        POP      {R4-R6,PC}       ;; return
        CFI EndBlock cfiBlock37

        RSEG CODE:CODE:NOROOT(2)
        DATA
??DataTable29:
        DC32     playview_h

        RSEG CODE:CODE:NOROOT(2)
        CFI Block cfiBlock38 Using cfiCommon0
        CFI NoFunction
        THUMB
??set_vertical??rT:
        BX       PC
        Nop      
        CFI EndBlock cfiBlock38
        REQUIRE ??set_vertical
//  558 
//  559 #pragma optimize = z 9

        RSEG CODE:CODE:NOROOT(2)
        CFI Block cfiBlock39 Using cfiCommon1
        CFI Function ??set_vertical
        ARM
//  560 void set_vertical()
//  561 {
??set_vertical:
        PUSH     {R4-R6,LR}
        CFI ?RET Frame(CFA, -4)
        CFI R6 Frame(CFA, -8)
        CFI R5 Frame(CFA, -12)
        CFI R4 Frame(CFA, -16)
        CFI CFA R13+16
//  562   if (working)
        LDR      R4,??DataTable30  ;; v_MPA_ID
        LDRB     R0,[R4, #+81]
        CMP      R0,#+0
        POPEQ    {R4-R6,PC}
//  563   {
//  564     debug_printf("\nWalkmanDisplay: vertical mode setted\n");
        LDR      R5,??DataTable31  ;; `?<Constant "MediaPlayer_Audio">`
        ADD      R0,R5,#+112
        SWI      +433
//  565     BOOK *mybook=FindBook(get_IsAudioPlayerBook());
        SWI      +33419
        SWI      +304
        MOV      R6,R0
//  566     if (Display_GetTopBook(0)==mybook)
        MOV      R0,#+0
        SWI      +795
        CMP      R0,R6
        POPNE    {R4-R6,PC}
//  567     {
//  568       MediaPlayer_ShowNowPlaying(g_DO, 1);
        LDR      R0,[R4, #+36]
        MOV      R1,#+1
        SWI      +877
//  569       BookObj_SetDisplayOrientation(mybook, 0);
        MOV      R1,#+0
        MOV      R0,R6
        SWI      +794
//  570       
//  571       GUI *g=FindGuiInBook(mybook,"MediaPlayer_Audio");
        MOV      R1,R5
        MOV      R0,R6
        BL       ??FindGuiInBook
        MOV      R5,R0
//  572       DISP_OBJ_WALKMAN *d=(DISP_OBJ_WALKMAN*)GUIObject_GetDispObject(g);
        SWI      +360
//  573       d->imageID=v_MPA_ID;
        LDRH     R1,[R4, #+0]
        STRB     R1,[R0, #+182]
        LSR      R1,R1,#+8
        STRB     R1,[R0, #+183]
//  574       GUIObject_SetStyle(g,2);
        MOV      R1,#+2
        MOV      R0,R5
        SWI      +310
//  575       GUIObject_SetTitleType(g, 1);
        MOV      R1,#+1
        MOV      R0,R5
        SWI      +641
//  576       
//  577       DispObject_InvalidateRect(GUIObject_GetDispObject(g),0);
        MOV      R0,R5
        SWI      +360
        MOV      R1,#+0
        SWI      +495
//  578       BookObj_Hide(mybook, 0);
        MOV      R1,#+0
        MOV      R0,R6
        SWI      +369
//  579       BookObj_Show(mybook, 0);
        MOV      R1,#+0
        MOV      R0,R6
        SWI      +370
//  580       curmode=VERT;
        MOV      R0,#+2
        STR      R0,[R4, #+44]
//  581     }
//  582   }
//  583 };
        POP      {R4-R6,PC}       ;; return
        CFI EndBlock cfiBlock39

        RSEG CODE:CODE:NOROOT(2)
        DATA
??DataTable30:
        DC32     v_MPA_ID

        RSEG CODE:CODE:NOROOT(2)
        DATA
??DataTable31:
        DC32     `?<Constant "MediaPlayer_Audio">`

        RSEG CODE:CODE:NOROOT(2)
        CFI Block cfiBlock40 Using cfiCommon0
        CFI NoFunction
        THUMB
??onAccel??rT:
        BX       PC
        Nop      
        CFI EndBlock cfiBlock40
        REQUIRE ??onAccel
//  584 
//  585 #pragma optimize = z 9

        RSEG CODE:CODE:NOROOT(2)
        CFI Block cfiBlock41 Using cfiCommon1
        CFI Function ??onAccel
        ARM
//  586 void onAccel(void* cac, int x, int y)
//  587 {
??onAccel:
        PUSH     {R4-R7,LR}
        CFI ?RET Frame(CFA, -4)
        CFI R7 Frame(CFA, -8)
        CFI R6 Frame(CFA, -12)
        CFI R5 Frame(CFA, -16)
        CFI R4 Frame(CFA, -20)
        CFI CFA R13+20
//  588   CAccelCtrl*cac_=(CAccelCtrl*)cac;
//  589   if(working && accel_wrk && isKeylocked()==0)
        LDR      R4,??DataTable32  ;; v_MPA_ID
        MOV      R5,R0
        LDRB     R0,[R4, #+81]
        MOV      R6,R1
        LDRB     R1,[R4, #+82]
        MOV      R7,R2
        TST      R1,R0
        POPEQ    {R4-R7,PC}
        SWI      +439
        CMP      R0,#+0
        POPNE    {R4-R7,PC}
//  590   {
//  591     int mode=cac_->getorientation(x,y);
        MOV      R2,R7
        MOV      R1,R6
        MOV      R0,R5
        _BLF     ??getorientation,??getorientation??rA
        MOV      R5,R0
//  592     WALKMAN_BOOK *wb=(WALKMAN_BOOK*)FindBook(get_IsAudioPlayerBook()); 
        SWI      +33419
        SWI      +304
//  593     if (wb->status==MP_STATUS_FORWARD || wb->status==MP_STATUS_REWIND)
        LDRB     R0,[R0, #+25]
        CMP      R0,#+3
        CMPNE    R0,#+5
        POPEQ    {R4-R7,PC}
//  594     {
//  595       return;
//  596     }
//  597     if (mode==HOR && curmode!=HOR)
        LDR      R0,[R4, #+44]
        CMP      R5,#+1
        BNE      ??onAccel_1
        CMP      R0,#+1
        POPEQ    {R4-R7,PC}
//  598     {
//  599       set_horizontal();
        BL       ??set_horizontal
        POP      {R4-R7,PC}
//  600     }
//  601     else if (mode==VERT && curmode!=VERT)
??onAccel_1:
        CMP      R5,#+2
        POPNE    {R4-R7,PC}
        CMP      R0,#+2
        POPEQ    {R4-R7,PC}
//  602     {
//  603       set_vertical();
        BL       ??set_vertical
        POP      {R4-R7,PC}       ;; return
        CFI EndBlock cfiBlock41
//  604     }
//  605   }
//  606 };

        RSEG CODE:CODE:NOROOT(2)
        DATA
??DataTable32:
        DC32     v_MPA_ID

        RSEG CODE:CODE:NOROOT(2)
        CFI Block cfiBlock42 Using cfiCommon0
        CFI NoFunction
        THUMB
??DrawLine??rT:
        BX       PC
        Nop      
        CFI EndBlock cfiBlock42
        REQUIRE ??DrawLine
//  607 
//  608 #pragma optimize = z 9

        RSEG CODE:CODE:NOROOT(2)
        CFI Block cfiBlock43 Using cfiCommon1
        CFI Function ??DrawLine
        ARM
//  609 void DrawLine(int font,wchar_t *NAME,int CEN, int XPos, int YPos, int XPos2, int YPos2, int NormalColor, int borderColor, bool clean, int type)
//  610 {
??DrawLine:
        PUSH     {R0,R4-R11,LR}
        CFI ?RET Frame(CFA, -4)
        CFI R11 Frame(CFA, -8)
        CFI R10 Frame(CFA, -12)
        CFI R9 Frame(CFA, -16)
        CFI R8 Frame(CFA, -20)
        CFI R7 Frame(CFA, -24)
        CFI R6 Frame(CFA, -28)
        CFI R5 Frame(CFA, -32)
        CFI R4 Frame(CFA, -36)
        CFI CFA R13+40
        LDR      R8,[SP, #+44]
        LDR      R5,[SP, #+48]
        LDR      R6,[SP, #+56]
        MOV      R10,R0
        MOV      R0,R1
        MOV      R4,R2
        MOV      R9,R3
//  611   if (!NAME)
        CMP      R0,#+0
        POPEQ    {R0,R4-R11,PC}
//  612     return;
//  613   int width=0;
//  614   int strID=TextID_Create(NAME,ENC_UCS2,TEXTID_ANY_LEN);
        MOV      R2,#+255
        ORR      R2,R2,#0xFF00
        MOV      R1,#+0
        SWI      +349
        MOV      R7,R0
//  615   SetFont(font);
        MOV      R0,R10
        SWI      +497
//  616   if (CEN==2)
        CMP      R4,#+2
        BNE      ??DrawLine_1
//  617   {
//  618     XPos=-500;
        MVN      R9,#+243
        BIC      R9,R9,#0x100
//  619     width=Display_GetWidth(0);
//  620     XPos2=width+500;
        MOV      R0,#+0
        SWI      +601
        ADD      R8,R0,#+500
        B        ??DrawLine_2
//  621   }
//  622   else if (CEN==0)
??DrawLine_1:
        CMP      R4,#+0
//  623   {
//  624     XPos2=XPos+500;
        ADDEQ    R8,R9,#+500
        BEQ      ??DrawLine_2
//  625   }
//  626   else if (CEN==1)
        CMP      R4,#+1
//  627   {
//  628     XPos=-500;
        MVNEQ    R9,#+243
        BICEQ    R9,R9,#0x100
//  629   }
//  630   if (type==0)
??DrawLine_2:
        LDR      R1,[SP, #+40]
        ADD      R10,R9,#+1
        SUB      R1,R1,#+1
        STR      R1,[SP, #+0]
        LDR      R0,[SP, #+40]
        ADD      R11,R0,#+1
        LDR      R0,[SP, #+64]
        CMP      R0,#+0
        BNE      ??DrawLine_3
        MOV      R0,R6
        PUSH     {R0}
        CFI CFA R13+44
        PUSH     {R0}
        CFI CFA R13+48
        MOV      R3,R1
        SUB      R2,R9,#+1
        MOV      R1,R4
        MOV      R0,#+0
        PUSH     {R0}
        CFI CFA R13+52
        PUSH     {R0}
        CFI CFA R13+56
        SUB      R0,R5,#+1
        PUSH     {R0}
        CFI CFA R13+60
        SUB      R0,R8,#+1
        PUSH     {R0}
        CFI CFA R13+64
        MOV      R0,R7
//  631   {
//  632     DrawString(strID,CEN,XPos-1,YPos-1,XPos2-1,YPos2-1,0,0,borderColor,borderColor);
        SWI      +493
//  633     DrawString(strID,CEN,XPos,YPos-1,XPos2,YPos2-1,0,0,borderColor,borderColor);
        MOV      R0,R6
        PUSH     {R0}
        CFI CFA R13+68
        PUSH     {R0}
        CFI CFA R13+72
        MOV      R2,R9
        MOV      R1,R4
        MOV      R0,#+0
        PUSH     {R0}
        CFI CFA R13+76
        PUSH     {R0}
        CFI CFA R13+80
        SUB      R0,R5,#+1
        PUSH     {R0}
        CFI CFA R13+84
        MOV      R0,R8
        PUSH     {R0}
        CFI CFA R13+88
        LDR      R3,[SP, #+48]
        MOV      R0,R7
        SWI      +493
        ADD      SP,SP,#+48
        CFI CFA R13+40
//  634     DrawString(strID,CEN,XPos+1,YPos-1,XPos2+1,YPos2-1,0,0,borderColor,borderColor);
        MOV      R0,R6
        PUSH     {R0}
        CFI CFA R13+44
        PUSH     {R0}
        CFI CFA R13+48
        MOV      R2,R10
        MOV      R1,R4
        MOV      R0,#+0
        PUSH     {R0}
        CFI CFA R13+52
        PUSH     {R0}
        CFI CFA R13+56
        SUB      R0,R5,#+1
        PUSH     {R0}
        CFI CFA R13+60
        ADD      R0,R8,#+1
        PUSH     {R0}
        CFI CFA R13+64
        LDR      R3,[SP, #+24]
        MOV      R0,R7
        SWI      +493
//  635     
//  636     DrawString(strID,CEN,XPos-1,YPos,XPos2-1,YPos2,0,0,borderColor,borderColor);
        MOV      R0,R6
        PUSH     {R0}
        CFI CFA R13+68
        PUSH     {R0}
        CFI CFA R13+72
        SUB      R2,R9,#+1
        MOV      R1,R4
        MOV      R0,#+0
        PUSH     {R0}
        CFI CFA R13+76
        PUSH     {R0}
        CFI CFA R13+80
        MOV      R0,R5
        PUSH     {R0}
        CFI CFA R13+84
        SUB      R0,R8,#+1
        PUSH     {R0}
        CFI CFA R13+88
        LDR      R3,[SP, #+88]
        MOV      R0,R7
        SWI      +493
        ADD      SP,SP,#+48
        CFI CFA R13+40
//  637     DrawString(strID,CEN,XPos+1,YPos,XPos2+1,YPos2,0,0,borderColor,borderColor);
        MOV      R0,R6
        PUSH     {R0}
        CFI CFA R13+44
        PUSH     {R0}
        CFI CFA R13+48
        MOV      R2,R10
        MOV      R1,R4
        MOV      R0,#+0
        PUSH     {R0}
        CFI CFA R13+52
        PUSH     {R0}
        CFI CFA R13+56
        MOV      R0,R5
        PUSH     {R0}
        CFI CFA R13+60
        ADD      R0,R8,#+1
        PUSH     {R0}
        CFI CFA R13+64
        LDR      R3,[SP, #+64]
        MOV      R0,R7
        SWI      +493
//  638     
//  639     DrawString(strID,CEN,XPos-1,YPos+1,XPos2-1,YPos2+1,0,0,borderColor,borderColor);
        MOV      R0,R6
        PUSH     {R0}
        CFI CFA R13+68
        PUSH     {R0}
        CFI CFA R13+72
        MOV      R3,R11
        SUB      R2,R9,#+1
        MOV      R1,R4
        MOV      R0,#+0
        PUSH     {R0}
        CFI CFA R13+76
        PUSH     {R0}
        CFI CFA R13+80
        ADD      R0,R5,#+1
        PUSH     {R0}
        CFI CFA R13+84
        SUB      R0,R8,#+1
        PUSH     {R0}
        CFI CFA R13+88
        MOV      R0,R7
        SWI      +493
        ADD      SP,SP,#+48
        CFI CFA R13+40
//  640     DrawString(strID,CEN,XPos,YPos+1,XPos2,YPos2+1,0,0,borderColor,borderColor);
        MOV      R0,R6
        PUSH     {R0}
        CFI CFA R13+44
        PUSH     {R0}
        CFI CFA R13+48
        MOV      R3,R11
        MOV      R2,R9
        MOV      R1,R4
        MOV      R0,#+0
        PUSH     {R0}
        CFI CFA R13+52
        PUSH     {R0}
        CFI CFA R13+56
        ADD      R0,R5,#+1
        PUSH     {R0}
        CFI CFA R13+60
        MOV      R0,R8
        PUSH     {R0}
        CFI CFA R13+64
        MOV      R0,R7
        SWI      +493
//  641     DrawString(strID,CEN,XPos+1,YPos+1,XPos2+1,YPos2+1,0,0,borderColor,borderColor);
        MOV      R0,R6
        PUSH     {R0}
        CFI CFA R13+68
        PUSH     {R6}
        CFI CFA R13+72
        MOV      R3,R11
        MOV      R0,#+0
        PUSH     {R0}
        CFI CFA R13+76
        PUSH     {R0}
        CFI CFA R13+80
        MOV      R2,R10
        ADD      R0,R5,#+1
        PUSH     {R0}
        CFI CFA R13+84
        ADD      R0,R8,#+1
        PUSH     {R0}
        CFI CFA R13+88
??DrawLine_4:
        MOV      R1,R4
        MOV      R0,R7
        SWI      +493
        ADD      SP,SP,#+48
        CFI CFA R13+40
        B        ??DrawLine_5
//  642   }
//  643   else if (type==1)
??DrawLine_3:
        CMP      R0,#+1
        BNE      ??DrawLine_6
//  644   {
//  645     DrawString(strID,CEN,XPos+1,YPos,XPos2,YPos2,0,0,borderColor,borderColor);
        MOV      R0,R6
        PUSH     {R0}
        CFI CFA R13+44
        PUSH     {R0}
        CFI CFA R13+48
        MOV      R2,R10
        MOV      R1,R4
        MOV      R0,#+0
        PUSH     {R0}
        CFI CFA R13+52
        PUSH     {R0}
        CFI CFA R13+56
        MOV      R0,R5
        PUSH     {R0}
        CFI CFA R13+60
        MOV      R0,R8
        PUSH     {R0}
        CFI CFA R13+64
        LDR      R3,[SP, #+64]
        MOV      R0,R7
        SWI      +493
//  646     DrawString(strID,CEN,XPos,YPos+1,XPos2,YPos2,0,0,borderColor,borderColor);
        MOV      R0,R6
        PUSH     {R0}
        CFI CFA R13+68
        PUSH     {R0}
        CFI CFA R13+72
        MOV      R3,R11
        MOV      R2,R9
        MOV      R1,R4
        MOV      R0,#+0
        PUSH     {R0}
        CFI CFA R13+76
        PUSH     {R0}
        CFI CFA R13+80
        MOV      R0,R5
        PUSH     {R0}
        CFI CFA R13+84
        MOV      R0,R8
        PUSH     {R0}
        CFI CFA R13+88
        MOV      R0,R7
        SWI      +493
        ADD      SP,SP,#+48
        CFI CFA R13+40
//  647     DrawString(strID,CEN,XPos-1,YPos,XPos2,YPos2,0,0,borderColor,borderColor);
        MOV      R0,R6
        PUSH     {R0}
        CFI CFA R13+44
        PUSH     {R0}
        CFI CFA R13+48
        SUB      R2,R9,#+1
        MOV      R1,R4
        MOV      R0,#+0
        PUSH     {R0}
        CFI CFA R13+52
        PUSH     {R0}
        CFI CFA R13+56
        MOV      R0,R5
        PUSH     {R0}
        CFI CFA R13+60
        MOV      R0,R8
        PUSH     {R0}
        CFI CFA R13+64
        LDR      R3,[SP, #+64]
        MOV      R0,R7
        SWI      +493
//  648     DrawString(strID,CEN,XPos,YPos-1,XPos2,YPos2,0,0,borderColor,borderColor);
        MOV      R0,R6
        PUSH     {R0}
        CFI CFA R13+68
        PUSH     {R6}
        CFI CFA R13+72
        MOV      R2,R9
        MOV      R0,#+0
        PUSH     {R0}
        CFI CFA R13+76
        PUSH     {R0}
        CFI CFA R13+80
        MOV      R0,R5
        PUSH     {R0}
        CFI CFA R13+84
        MOV      R0,R8
        PUSH     {R0}
        CFI CFA R13+88
        LDR      R3,[SP, #+48]
        B        ??DrawLine_4
        CFI CFA R13+40
//  649   }
//  650   else if (type==2)
??DrawLine_6:
        CMP      R0,#+2
        BNE      ??DrawLine_5
//  651   {
//  652     DrawString(strID,CEN,XPos+1,YPos+1,XPos2+1,YPos2+1,0,0,borderColor,borderColor);
        MOV      R0,R6
        PUSH     {R0}
        CFI CFA R13+44
        PUSH     {R6}
        CFI CFA R13+48
        MOV      R3,R11
        MOV      R0,#+0
        PUSH     {R0}
        CFI CFA R13+52
        PUSH     {R0}
        CFI CFA R13+56
        MOV      R2,R10
        MOV      R1,R4
        ADD      R0,R5,#+1
        PUSH     {R0}
        CFI CFA R13+60
        ADD      R0,R8,#+1
        PUSH     {R0}
        CFI CFA R13+64
        MOV      R0,R7
        SWI      +493
        ADD      SP,SP,#+24
        CFI CFA R13+40
//  653   }
//  654   
//  655   DrawString(strID,CEN,XPos,YPos,XPos2,YPos2,0,1,NormalColor,NormalColor);
??DrawLine_5:
        LDR      R0,[SP, #+52]
        MOV      R2,R9
        PUSH     {R0}
        CFI CFA R13+44
        PUSH     {R0}
        CFI CFA R13+48
        MOV      R1,R4
        MOV      R0,#+1
        PUSH     {R0}
        CFI CFA R13+52
        MOV      R0,#+0
        PUSH     {R0}
        CFI CFA R13+56
        PUSH     {R5}
        CFI CFA R13+60
        PUSH     {R8}
        CFI CFA R13+64
        LDR      R3,[SP, #+64]
        MOV      R0,R7
        SWI      +493
//  656   
//  657   if (clean)
        LDRB     R0,[SP, #+84]
        ADD      SP,SP,#+24
        CFI CFA R13+40
        CMP      R0,#+0
        POPEQ    {R0,R4-R11,PC}
//  658     TextID_Destroy(strID);
        MOV      R0,R7
        SWI      +353
        POP      {R0,R4-R11,PC}   ;; return
        CFI EndBlock cfiBlock43
//  659 };

        RSEG CODE:CODE:NOROOT(2)
        CFI Block cfiBlock44 Using cfiCommon0
        CFI NoFunction
        THUMB
??DrawLine2??rT:
        BX       PC
        Nop      
        CFI EndBlock cfiBlock44
        REQUIRE ??DrawLine2
//  660 
//  661 #pragma optimize = z 9

        RSEG CODE:CODE:NOROOT(2)
        CFI Block cfiBlock45 Using cfiCommon1
        CFI Function ??DrawLine2
        ARM
//  662 void DrawLine2(int font, int strID,int CEN, int XPos, int YPos, int XPos2, int YPos2, int NormalColor, int borderColor, int clean, int type)
//  663 {
??DrawLine2:
        PUSH     {R0,R4-R11,LR}
        CFI ?RET Frame(CFA, -4)
        CFI R11 Frame(CFA, -8)
        CFI R10 Frame(CFA, -12)
        CFI R9 Frame(CFA, -16)
        CFI R8 Frame(CFA, -20)
        CFI R7 Frame(CFA, -24)
        CFI R6 Frame(CFA, -28)
        CFI R5 Frame(CFA, -32)
        CFI R4 Frame(CFA, -36)
        CFI CFA R13+40
        LDR      R7,[SP, #+44]
        LDR      R8,[SP, #+48]
        LDR      R9,[SP, #+56]
        MOV      R4,R1
        MOV      R5,R2
        MOV      R6,R3
//  664   int width=0;
//  665   SetFont(font);
        SWI      +497
//  666     if (CEN==2)
        CMP      R5,#+2
        BNE      ??DrawLine2_1
//  667   {
//  668     XPos=-500;
        MVN      R6,#+243
        BIC      R6,R6,#0x100
//  669     width=Display_GetWidth(0);
//  670     XPos2=width+500;
        MOV      R0,#+0
        SWI      +601
        ADD      R7,R0,#+500
        B        ??DrawLine2_2
//  671   }
//  672   else if (CEN==0)
??DrawLine2_1:
        CMP      R5,#+0
//  673   {
//  674     XPos2=XPos+500;
        ADDEQ    R7,R6,#+500
        BEQ      ??DrawLine2_2
//  675   }
//  676   else if (CEN==1)
        CMP      R5,#+1
//  677   {
//  678     XPos=-500;
        MVNEQ    R6,#+243
        BICEQ    R6,R6,#0x100
//  679   }
//  680   if (type==0)
??DrawLine2_2:
        LDR      R1,[SP, #+40]
        ADD      R10,R6,#+1
        SUB      R1,R1,#+1
        STR      R1,[SP, #+0]
        LDR      R0,[SP, #+40]
        ADD      R11,R0,#+1
        LDR      R0,[SP, #+64]
        CMP      R0,#+0
        BNE      ??DrawLine2_3
        MOV      R0,R9
        PUSH     {R0}
        CFI CFA R13+44
        PUSH     {R0}
        CFI CFA R13+48
        MOV      R3,R1
        SUB      R2,R6,#+1
        MOV      R1,R5
        MOV      R0,#+0
        PUSH     {R0}
        CFI CFA R13+52
        PUSH     {R0}
        CFI CFA R13+56
        SUB      R0,R8,#+1
        PUSH     {R0}
        CFI CFA R13+60
        SUB      R0,R7,#+1
        PUSH     {R0}
        CFI CFA R13+64
        MOV      R0,R4
//  681   {
//  682     DrawString(strID,CEN,XPos-1,YPos-1,XPos2-1,YPos2-1,0,0,borderColor,borderColor);
        SWI      +493
//  683     DrawString(strID,CEN,XPos,YPos-1,XPos2,YPos2-1,0,0,borderColor,borderColor);
        MOV      R0,R9
        PUSH     {R0}
        CFI CFA R13+68
        PUSH     {R0}
        CFI CFA R13+72
        MOV      R2,R6
        MOV      R1,R5
        MOV      R0,#+0
        PUSH     {R0}
        CFI CFA R13+76
        PUSH     {R0}
        CFI CFA R13+80
        SUB      R0,R8,#+1
        PUSH     {R0}
        CFI CFA R13+84
        MOV      R0,R7
        PUSH     {R0}
        CFI CFA R13+88
        LDR      R3,[SP, #+48]
        MOV      R0,R4
        SWI      +493
        ADD      SP,SP,#+48
        CFI CFA R13+40
//  684     DrawString(strID,CEN,XPos+1,YPos-1,XPos2+1,YPos2-1,0,0,borderColor,borderColor);
        MOV      R0,R9
        PUSH     {R0}
        CFI CFA R13+44
        PUSH     {R0}
        CFI CFA R13+48
        MOV      R2,R10
        MOV      R1,R5
        MOV      R0,#+0
        PUSH     {R0}
        CFI CFA R13+52
        PUSH     {R0}
        CFI CFA R13+56
        SUB      R0,R8,#+1
        PUSH     {R0}
        CFI CFA R13+60
        ADD      R0,R7,#+1
        PUSH     {R0}
        CFI CFA R13+64
        LDR      R3,[SP, #+24]
        MOV      R0,R4
        SWI      +493
//  685     
//  686     DrawString(strID,CEN,XPos-1,YPos,XPos2-1,YPos2,0,0,borderColor,borderColor);
        MOV      R0,R9
        PUSH     {R0}
        CFI CFA R13+68
        PUSH     {R0}
        CFI CFA R13+72
        SUB      R2,R6,#+1
        MOV      R1,R5
        MOV      R0,#+0
        PUSH     {R0}
        CFI CFA R13+76
        PUSH     {R0}
        CFI CFA R13+80
        MOV      R0,R8
        PUSH     {R0}
        CFI CFA R13+84
        SUB      R0,R7,#+1
        PUSH     {R0}
        CFI CFA R13+88
        LDR      R3,[SP, #+88]
        MOV      R0,R4
        SWI      +493
        ADD      SP,SP,#+48
        CFI CFA R13+40
//  687     DrawString(strID,CEN,XPos+1,YPos,XPos2+1,YPos2,0,0,borderColor,borderColor);
        MOV      R0,R9
        PUSH     {R0}
        CFI CFA R13+44
        PUSH     {R0}
        CFI CFA R13+48
        MOV      R2,R10
        MOV      R1,R5
        MOV      R0,#+0
        PUSH     {R0}
        CFI CFA R13+52
        PUSH     {R0}
        CFI CFA R13+56
        MOV      R0,R8
        PUSH     {R0}
        CFI CFA R13+60
        ADD      R0,R7,#+1
        PUSH     {R0}
        CFI CFA R13+64
        LDR      R3,[SP, #+64]
        MOV      R0,R4
        SWI      +493
//  688     
//  689     DrawString(strID,CEN,XPos-1,YPos+1,XPos2-1,YPos2+1,0,0,borderColor,borderColor);
        MOV      R0,R9
        PUSH     {R0}
        CFI CFA R13+68
        PUSH     {R0}
        CFI CFA R13+72
        MOV      R3,R11
        SUB      R2,R6,#+1
        MOV      R1,R5
        MOV      R0,#+0
        PUSH     {R0}
        CFI CFA R13+76
        PUSH     {R0}
        CFI CFA R13+80
        ADD      R0,R8,#+1
        PUSH     {R0}
        CFI CFA R13+84
        SUB      R0,R7,#+1
        PUSH     {R0}
        CFI CFA R13+88
        MOV      R0,R4
        SWI      +493
        ADD      SP,SP,#+48
        CFI CFA R13+40
//  690     DrawString(strID,CEN,XPos,YPos+1,XPos2,YPos2+1,0,0,borderColor,borderColor);
        MOV      R0,R9
        PUSH     {R0}
        CFI CFA R13+44
        PUSH     {R0}
        CFI CFA R13+48
        MOV      R3,R11
        MOV      R2,R6
        MOV      R1,R5
        MOV      R0,#+0
        PUSH     {R0}
        CFI CFA R13+52
        PUSH     {R0}
        CFI CFA R13+56
        ADD      R0,R8,#+1
        PUSH     {R0}
        CFI CFA R13+60
        MOV      R0,R7
        PUSH     {R0}
        CFI CFA R13+64
        MOV      R0,R4
        SWI      +493
//  691     DrawString(strID,CEN,XPos+1,YPos+1,XPos2+1,YPos2+1,0,0,borderColor,borderColor);
        MOV      R0,R9
        PUSH     {R0}
        CFI CFA R13+68
        PUSH     {R9}
        CFI CFA R13+72
        MOV      R3,R11
        MOV      R0,#+0
        PUSH     {R0}
        CFI CFA R13+76
        PUSH     {R0}
        CFI CFA R13+80
        MOV      R2,R10
        ADD      R0,R8,#+1
        PUSH     {R0}
        CFI CFA R13+84
        ADD      R0,R7,#+1
        PUSH     {R0}
        CFI CFA R13+88
??DrawLine2_4:
        MOV      R1,R5
        MOV      R0,R4
        SWI      +493
        ADD      SP,SP,#+48
        CFI CFA R13+40
        B        ??DrawLine2_5
//  692   }
//  693   else if (type==1)
??DrawLine2_3:
        CMP      R0,#+1
        BNE      ??DrawLine2_6
//  694   {
//  695     DrawString(strID,CEN,XPos+1,YPos,XPos2,YPos2,0,0,borderColor,borderColor);
        MOV      R0,R9
        PUSH     {R0}
        CFI CFA R13+44
        PUSH     {R0}
        CFI CFA R13+48
        MOV      R2,R10
        MOV      R1,R5
        MOV      R0,#+0
        PUSH     {R0}
        CFI CFA R13+52
        PUSH     {R0}
        CFI CFA R13+56
        MOV      R0,R8
        PUSH     {R0}
        CFI CFA R13+60
        MOV      R0,R7
        PUSH     {R0}
        CFI CFA R13+64
        LDR      R3,[SP, #+64]
        MOV      R0,R4
        SWI      +493
//  696     DrawString(strID,CEN,XPos,YPos+1,XPos2,YPos2,0,0,borderColor,borderColor);
        MOV      R0,R9
        PUSH     {R0}
        CFI CFA R13+68
        PUSH     {R0}
        CFI CFA R13+72
        MOV      R3,R11
        MOV      R2,R6
        MOV      R1,R5
        MOV      R0,#+0
        PUSH     {R0}
        CFI CFA R13+76
        PUSH     {R0}
        CFI CFA R13+80
        MOV      R0,R8
        PUSH     {R0}
        CFI CFA R13+84
        MOV      R0,R7
        PUSH     {R0}
        CFI CFA R13+88
        MOV      R0,R4
        SWI      +493
        ADD      SP,SP,#+48
        CFI CFA R13+40
//  697     DrawString(strID,CEN,XPos-1,YPos,XPos2,YPos2,0,0,borderColor,borderColor);
        MOV      R0,R9
        PUSH     {R0}
        CFI CFA R13+44
        PUSH     {R0}
        CFI CFA R13+48
        SUB      R2,R6,#+1
        MOV      R1,R5
        MOV      R0,#+0
        PUSH     {R0}
        CFI CFA R13+52
        PUSH     {R0}
        CFI CFA R13+56
        MOV      R0,R8
        PUSH     {R0}
        CFI CFA R13+60
        MOV      R0,R7
        PUSH     {R0}
        CFI CFA R13+64
        LDR      R3,[SP, #+64]
        MOV      R0,R4
        SWI      +493
//  698     DrawString(strID,CEN,XPos,YPos-1,XPos2,YPos2,0,0,borderColor,borderColor);
        MOV      R0,R9
        PUSH     {R0}
        CFI CFA R13+68
        PUSH     {R9}
        CFI CFA R13+72
        MOV      R2,R6
        MOV      R0,#+0
        PUSH     {R0}
        CFI CFA R13+76
        PUSH     {R0}
        CFI CFA R13+80
        MOV      R0,R8
        PUSH     {R0}
        CFI CFA R13+84
        MOV      R0,R7
        PUSH     {R0}
        CFI CFA R13+88
        LDR      R3,[SP, #+48]
        B        ??DrawLine2_4
        CFI CFA R13+40
//  699   }
//  700   else if (type==2)
??DrawLine2_6:
        CMP      R0,#+2
        BNE      ??DrawLine2_5
//  701   {
//  702     DrawString(strID,CEN,XPos+1,YPos+1,XPos2+1,YPos2+1,0,0,borderColor,borderColor);
        MOV      R0,R9
        PUSH     {R0}
        CFI CFA R13+44
        PUSH     {R9}
        CFI CFA R13+48
        MOV      R3,R11
        MOV      R0,#+0
        PUSH     {R0}
        CFI CFA R13+52
        PUSH     {R0}
        CFI CFA R13+56
        MOV      R2,R10
        MOV      R1,R5
        ADD      R0,R8,#+1
        PUSH     {R0}
        CFI CFA R13+60
        ADD      R0,R7,#+1
        PUSH     {R0}
        CFI CFA R13+64
        MOV      R0,R4
        SWI      +493
        ADD      SP,SP,#+24
        CFI CFA R13+40
//  703   }
//  704   DrawString(strID,CEN,XPos,YPos,XPos2,YPos2,0,0,NormalColor,NormalColor);
??DrawLine2_5:
        LDR      R0,[SP, #+52]
        MOV      R2,R6
        PUSH     {R0}
        CFI CFA R13+44
        PUSH     {R0}
        CFI CFA R13+48
        MOV      R1,R5
        MOV      R0,#+0
        PUSH     {R0}
        CFI CFA R13+52
        PUSH     {R0}
        CFI CFA R13+56
        PUSH     {R8}
        CFI CFA R13+60
        PUSH     {R7}
        CFI CFA R13+64
        LDR      R3,[SP, #+64]
        MOV      R0,R4
        SWI      +493
//  705   
//  706   if (clean)
        LDR      R0,[SP, #+84]
        ADD      SP,SP,#+24
        CFI CFA R13+40
        CMP      R0,#+0
        POPEQ    {R0,R4-R11,PC}
//  707     TextID_Destroy(strID);
        MOV      R0,R4
        SWI      +353
//  708 };
        POP      {R0,R4-R11,PC}   ;; return
        CFI EndBlock cfiBlock45

        RSEG CODE:CODE:NOROOT(2)
        CFI Block cfiBlock46 Using cfiCommon0
        CFI NoFunction
        THUMB
??DrawProgress??rT:
        BX       PC
        Nop      
        CFI EndBlock cfiBlock46
        REQUIRE ??DrawProgress
//  709 
//  710 #pragma optimize = z 9

        RSEG CODE:CODE:NOROOT(2)
        CFI Block cfiBlock47 Using cfiCommon1
        CFI Function ??DrawProgress
        ARM
//  711 void DrawProgress(int bColor, int cColor, int oColor, RECT rect, int progress, int time, signed int PlusY, int type)
//  712 {
??DrawProgress:
        PUSH     {R3}
        CFI CFA R13+4
        PUSH     {R1,R2,R4-R11,LR}
        CFI ?RET Frame(CFA, -8)
        CFI R11 Frame(CFA, -12)
        CFI R10 Frame(CFA, -16)
        CFI R9 Frame(CFA, -20)
        CFI R8 Frame(CFA, -24)
        CFI R7 Frame(CFA, -28)
        CFI R6 Frame(CFA, -32)
        CFI R5 Frame(CFA, -36)
        CFI R4 Frame(CFA, -40)
        CFI CFA R13+48
        SUB      SP,SP,#+8
        CFI CFA R13+56
//  713   // Îáû÷íûé ïðîãðåññáàð
//  714   if (type)
        LDRH     R1,[SP, #+58]
        LDR      R4,[SP, #+68]
        LDRH     R5,[SP, #+54]
        LDRH     R6,[SP, #+52]
        STR      R1,[SP, #+0]
        LDRH     R1,[SP, #+56]
        MOV      R7,R0
        LDR      R0,[SP, #+72]
        STR      R1,[SP, #+4]
        CMP      R0,#+0
        BEQ      ??DrawProgress_1
//  715   {
//  716     DrawRect(rect.x1+1,rect.y1+PlusY,rect.x2-1,rect.y1+PlusY+1, bColor, bColor);
        MOV      R0,R7
        PUSH     {R0}
        CFI CFA R13+60
        PUSH     {R0}
        CFI CFA R13+64
        SUB      R8,R5,#+1
        ADD      R9,R4,R1
        ADD      R10,R6,#+1
        ADD      R3,R9,#+1
        MOV      R2,R8
        MOV      R1,R9
        MOV      R0,R10
        SWI      +492
//  717     DrawRect(rect.x2-1,rect.y1+PlusY,rect.x2,rect.y2+PlusY, bColor, bColor);
        LDR      R0,[SP, #+8]
        MOV      R2,R5
        ADD      R11,R4,R0
        MOV      R0,R7
        PUSH     {R0}
        CFI CFA R13+68
        PUSH     {R0}
        CFI CFA R13+72
        MOV      R3,R11
        MOV      R1,R9
        MOV      R0,R8
        SWI      +492
//  718     
//  719     DrawRect(rect.x1,rect.y1+PlusY,rect.x1+1,rect.y2+PlusY, bColor, bColor);
        MOV      R0,R7
        PUSH     {R0}
        CFI CFA R13+76
        PUSH     {R0}
        CFI CFA R13+80
        MOV      R3,R11
        MOV      R2,R10
        MOV      R1,R9
        MOV      R0,R6
        SWI      +492
//  720     DrawRect(rect.x1+1,rect.y2+PlusY-1,rect.x2-1,rect.y2+PlusY, bColor, bColor);
        MOV      R0,R7
        PUSH     {R0}
        CFI CFA R13+84
        PUSH     {R7}
        CFI CFA R13+88
        MOV      R3,R11
        MOV      R2,R8
        SUB      R1,R11,#+1
        MOV      R0,R10
        SWI      +492
        MOV      R3,#+1
        MOV      R2,#+1
        MOV      R1,R2
        MOV      R0,R1
        ADD      SP,SP,#+32
        CFI CFA R13+56
        B        ??DrawProgress_2
//  721   }
//  722   DrawRect(rect.x1+ (type ? 1 : 0),rect.y1+(type ? 1 : 0)+PlusY,rect.x2-(type ? 1 : 0),rect.y2-(type ? 1 : 0)+PlusY, oColor, oColor);
??DrawProgress_1:
        MOV      R3,#+0
        MOV      R2,#+0
        MOV      R1,R2
??DrawProgress_2:
        LDR      R7,[SP, #+12]
        SUB      R2,R5,R2
        PUSH     {R7}
        CFI CFA R13+60
        PUSH     {R7}
        CFI CFA R13+64
        LDR      R7,[SP, #+8]
        ADD      R0,R0,R6
        SUB      R3,R7,R3
        LDR      R7,[SP, #+12]
        ADD      R3,R4,R3
        ADD      R1,R1,R7
        ADD      R1,R4,R1
        SWI      +492
//  723   float Length;
//  724   float CurLength=(float)progress;
//  725   float inLength=(float)time;
//  726   float Procent=(float)CurLength/inLength;
//  727   float size=(float)((float)rect.x2-(float)rect.x1);
//  728   float start = (float)rect.x1;
//  729   Length = start+((Procent)*size);
        LDRH     R0,[SP, #+60]
        _BLF     __ulongToFloat,??__ulongToFloat??rA
        MOV      R7,R0
        MOV      R0,R5
        _BLF     __ulongToFloat,??__ulongToFloat??rA
        MOV      R1,R7
        _BLF     __fSub,??__fSub??rA
        MOV      R5,R0
        LDR      R0,[SP, #+68]
        _BLF     __longToFloat,??__longToFloat??rA
        MOV      R8,R0
        LDR      R0,[SP, #+72]
        _BLF     __longToFloat,??__longToFloat??rA
        MOV      R1,R0
        MOV      R0,R8
        _BLF     __fDiv,??__fDiv??rA
        MOV      R1,R5
        _BLF     __fMul,??__fMul??rA
        MOV      R1,R7
        _BLF     __fAdd,??__fAdd??rA
//  730   DrawRect(rect.x1+(type ? 1 : 0), rect.y1+(type ? 1 : 0)+PlusY,(int)Length - (type ? 1 : 0),rect.y2-(type ? 1 : 0)+PlusY,cColor,cColor);
        LDR      R1,[SP, #+80]
        ADD      SP,SP,#+8
        CFI CFA R13+56
        LDR      R2,[SP, #+8]
        CMP      R1,#+0
        PUSH     {R2}
        CFI CFA R13+60
        PUSH     {R2}
        CFI CFA R13+64
        LDR      R2,[SP, #+8]
        MOVNE    R1,#+1
        MOVEQ    R1,#+0
        MOV      R5,R1
        MOV      R7,R1
        MOV      R8,R1
        SUB      R1,R2,R1
        ADD      R9,R4,R1
        _BLF     __floatToLong,??__floatToLong??rA
        SUB      R2,R0,R5
        LDR      R0,[SP, #+12]
        MOV      R3,R9
        ADD      R0,R7,R0
        ADD      R1,R4,R0
        ADD      R0,R8,R6
        SWI      +492
//  731 };
        ADD      SP,SP,#+24
        CFI CFA R13+40
        POP      {R4-R11,LR}
        CFI R4 SameValue
        CFI R5 SameValue
        CFI R6 SameValue
        CFI R7 SameValue
        CFI R8 SameValue
        CFI R9 SameValue
        CFI R10 SameValue
        CFI R11 SameValue
        CFI ?RET R14
        CFI CFA R13+4
        ADD      SP,SP,#+4
        CFI CFA R13+0
        BX       LR               ;; return
        CFI EndBlock cfiBlock47

        RSEG CODE:CODE:NOROOT(2)
        CFI Block cfiBlock48 Using cfiCommon0
        CFI NoFunction
        THUMB
??isVolCtrl??rT:
        BX       PC
        Nop      
        CFI EndBlock cfiBlock48
        REQUIRE ??isVolCtrl
//  732 

        RSEG CODE:CODE:NOROOT(2)
        CFI Block cfiBlock49 Using cfiCommon1
        CFI Function ??isVolCtrl
        ARM
//  733 int isVolCtrl(BOOK *bk)
//  734 {
??isVolCtrl:
        PUSH     {LR}
        CFI ?RET Frame(CFA, -4)
        CFI CFA R13+4
//  735   if (IsVolumeControllerBook(bk))
        SWI      +457
        CMP      R0,#+0
//  736     return 1;
        MOVNE    R0,#+1
//  737   return 0;
        POP      {PC}             ;; return
        CFI EndBlock cfiBlock49
//  738 };

        RSEG CODE:CODE:NOROOT(2)
        CFI Block cfiBlock50 Using cfiCommon0
        CFI NoFunction
        THUMB
??walkman_Redraw??rT:
        BX       PC
        Nop      
        CFI EndBlock cfiBlock50
        REQUIRE ??walkman_Redraw

        RSEG DATA_I:DATA:SORT:NOROOT(2)
v_MPA_ID:
        DS8 2
        REQUIRE `?<Initializer for v_MPA_ID>`
timer:
        DS8 2
        REQUIRE `?<Initializer for timer>`
modes:
        DS8 16
        REQUIRE `?<Initializer for modes>`
Softkey_DD:
        DS8 4
        REQUIRE `?<Initializer for Softkey_DD>`
Softkey_DO:
        DS8 4
        REQUIRE `?<Initializer for Softkey_DO>`
Softkey_DefaultRedraw:
        DS8 4
        REQUIRE `?<Initializer for Softkey_DefaultRedraw>`
currenttrack:
        DS8 4
        REQUIRE `?<Initializer for currenttrack>`
g_DO:
        DS8 4
        REQUIRE `?<Initializer for g_DO>`
AccelCtrl:
        DS8 4
        REQUIRE `?<Initializer for AccelCtrl>`
curmode:
        DS8 4
        REQUIRE `?<Initializer for curmode>`
StatusSize:
        DS8 4
        REQUIRE `?<Initializer for StatusSize>`
SoftSize:
        DS8 4
        REQUIRE `?<Initializer for SoftSize>`
ScreenHeight:
        DS8 4
        REQUIRE `?<Initializer for ScreenHeight>`
ScreenWidth:
        DS8 4
        REQUIRE `?<Initializer for ScreenWidth>`
oldredr:
        DS8 4
        REQUIRE `?<Initializer for oldredr>`
//  739 
//  740 GC* hMGC=NULL;
hMGC:
        DS8 4
        REQUIRE `?<Initializer for hMGC>`
//  741 GVI_GC imggc=NULL;
imggc:
        DS8 4
        REQUIRE `?<Initializer for imggc>`
//  742 
//  743 GVI_GC gvigcdisp=NULL;
gvigcdisp:
        DS8 4
        REQUIRE `?<Initializer for gvigcdisp>`
RedrawUsed:
        DS8 1
        REQUIRE `?<Initializer for RedrawUsed>`
working:
        DS8 1
        REQUIRE `?<Initializer for working>`
accel_wrk:
        DS8 1
        REQUIRE `?<Initializer for accel_wrk>`
ELF_KILL_RECEIVED:
        DS8 1
        REQUIRE `?<Initializer for ELF_KILL_RECEIVED>`
inMenu:
        DS8 1
        REQUIRE `?<Initializer for inMenu>`
        DS8 3
skin_str:
        DS8 1024
        REQUIRE `?<Initializer for skin_str>`
//  744 
//  745 
//  746 #define BENCH_START bench_n=0;
//  747 #define BENCH_GET bench_n
//  748 #pragma optimize= z 9

        RSEG CODE:CODE:NOROOT(2)
        CFI Block cfiBlock51 Using cfiCommon1
        CFI Function ??walkman_Redraw
        ARM
//  749 void walkman_Redraw(DISP_OBJ* DO,int a,int b,int c)
//  750 {
??walkman_Redraw:
        PUSH     {R1-R11,LR}
        CFI ?RET Frame(CFA, -4)
        CFI R11 Frame(CFA, -8)
        CFI R10 Frame(CFA, -12)
        CFI R9 Frame(CFA, -16)
        CFI R8 Frame(CFA, -20)
        CFI R7 Frame(CFA, -24)
        CFI R6 Frame(CFA, -28)
        CFI R5 Frame(CFA, -32)
        CFI R4 Frame(CFA, -36)
        CFI CFA R13+48
//  751 #ifndef NDEBUG
//  752   BENCH_START
//  753 #endif
//  754 #define putchar_(a,b,c,d,e,f) if (f && f!=NOIMAGE) \ 
//  755                               GC_PutChar(a,b,c,d,e,f)
//  756   
//  757     BOOK *audio=FindBook(get_IsAudioPlayerBook());
//  758   GC *GCanvas=(GC*)get_DisplayGC();
//  759   int orient=BookObj_GetDisplayOrientation(audio);
        LDR      R7,??walkman_Redraw_1  ;; v_MPA_ID
        SUB      SP,SP,#+132
        CFI CFA R13+180
        MOV      R4,R0
        SWI      +33419
        SWI      +304
        MOV      R5,R0
        SWI      +485
        MOV      R6,R0
        MOV      R0,R5
        SWI      +793
        MOV      R9,R0
        LDR      R0,[R7, #+32]
        CMP      R0,#+0
        BNE      ??walkman_Redraw_2
//  760   if (!currenttrack)
//  761   {
//  762     currenttrack=TrackDesc_Get(audio);
        MOV      R0,R5
        _BLF     ??TrackDesc_Get,??TrackDesc_Get??rA
        STR      R0,[R7, #+32]
//  763     decoder_Init(currenttrack->path,currenttrack->name);
        LDR      R1,[R0, #+4]
        LDR      R0,[R0, #+0]
        _BLF     ??decoder_Init,??decoder_Init??rA
//  764     nowmusic.hdr.LengthInSeconds=currenttrack->fulltime;
        LDR      R1,[R7, #+32]
        LDR      R0,??walkman_Redraw_1+0x4  ;; nowmusic + 8
        LDR      R1,[R1, #+8]
        STR      R1,[R0, #+0]
??walkman_Redraw_2:
        LDRB     R0,[R7, #+81]
        CMP      R0,#+0
        BEQ      ??walkman_Redraw_3
//  765   }
//  766   if (working)
//  767   {
//  768       //-------------------------------------------------------------------
//  769       //checking for closed menu and setting correct horizontal mode, if needed
//  770       if (inMenu==true)
        LDRB     R0,[R7, #+84]
        CMP      R0,#+0
        BEQ      ??walkman_Redraw_4
//  771       {
//  772         accel_wrk=true;
        MOV      R0,#+1
        STRB     R0,[R7, #+82]
//  773         inMenu=false;
        MOV      R0,#+0
        STRB     R0,[R7, #+84]
//  774         if (curmode==HOR)
        LDR      R0,[R7, #+44]
        CMP      R0,#+1
        BNE      ??walkman_Redraw_4
//  775         {
//  776           set_horizontal();
        BL       ??set_horizontal
//  777           BookObj_SetDisplayOrientation(audio,1);
        MOV      R1,#+1
        MOV      R0,R5
        SWI      +794
//  778         }
//  779       }
//  780       //-------------------------------------------------------------------
//  781       g_DO=DO;
??walkman_Redraw_4:
        STR      R4,[R7, #+36]
//  782       DispObject_SetLayerColor(DO, 0);
        MOV      R1,#+0
        MOV      R0,R4
        SWI      +777
??walkman_Redraw_3:
        LDRB     R0,[R7, #+81]
        MOV      R8,#+255
        ORR      R8,R8,#0xFF00
        CMP      R0,#+0
        BNE      ??walkman_Redraw_5
//  783       //-------------------------------------------------------------------
//  784   }
//  785   //-------------------------------------------------------------------
//  786   if (working==false)
//  787   { 
//  788     //-------------------------------------------------------------------
//  789     //Create new accelerometer
//  790     if (!AccelCtrl)
        LDR      R0,[R7, #+40]
        CMP      R0,#+0
        BNE      ??walkman_Redraw_6
//  791       AccelCtrl=new CAccelCtrl();
        MOV      R0,#+16
        _BLF     `??operator new`,`??operator new??rA`
        MOVS     R10,R0
        BEQ      ??walkman_Redraw_7
        _BLF     ??CAccelCtrl,??CAccelCtrl??rA
        STR      R10,[R7, #+40]
        B        ??walkman_Redraw_6
??walkman_Redraw_7:
        MOV      R0,#+0
        STR      R0,[R7, #+40]
//  792     if (use_accel!=2)
??walkman_Redraw_6:
        LDR      R0,??walkman_Redraw_1+0x8  ;; use_accel
        LDR      R0,[R0, #+0]
        CMP      R0,#+2
        BEQ      ??walkman_Redraw_8
//  793     {
//  794       AccelCtrl->AddHook(onAccel,1);
        LDR      R1,??walkman_Redraw_1+0xC  ;; ??onAccel
        LDR      R0,[R7, #+40]
        MOV      R2,#+1
        _BLF     ??AddHook,??AddHook??rA
//  795     }
//  796     //-------------------------------------------------------------------
//  797     WBOOK *wb=(WBOOK*)audio;
//  798     wchar_t *str=new wchar_t[0x100];
??walkman_Redraw_8:
        MOV      R0,#+512
        _BLF     `??operator new[]`,`??operator new[]??rA`
        MOV      R10,R0
//  799     wchar_t *str2=new wchar_t[0x100];
        MOV      R0,#+512
        _BLF     `??operator new[]`,`??operator new[]??rA`
        MOV      R11,R0
//  800     if (wb->SkinManager)
        LDR      R0,[R5, #+176]
        CMP      R0,#+0
//  801     {
//  802       if (wb->SkinManager->SkinManager_Table)
        LDRNE    R0,[R0, #+0]
        CMPNE    R0,#+0
//  803       {
//  804         if (wb->SkinManager->SkinManager_Table->GetINFO)
        LDRNE    R0,[R5, #+176]
        LDRNE    R0,[R0, #+0]
        LDRNE    R0,[R0, #+44]
        CMPNE    R0,#+0
        BEQ      ??walkman_Redraw_9
//  805         {
//  806           GetInfo SkinManager_GetSkinInfo=wb->SkinManager->SkinManager_Table->GetINFO;
//  807           
//  808           SkinManager_GetSkinInfo(wb->SkinManager,1,str,0xFF,str2,0xFF);
        MOV      R0,#+255
        PUSH     {R0}
        CFI CFA R13+184
        MOV      R3,#+255
        MOV      R2,R10
        MOV      R1,#+1
        MOV      R0,R11
        PUSH     {R0}
        CFI CFA R13+188
        LDR      R0,[R5, #+176]
        LDR      R12,[R0, #+0]
        LDR      R12,[R12, #+44]
        BLX      R12
//  809           wstrcpy(skin_str,str);
        MOV      R1,R10
        ADD      R0,R7,#+88
        SWI      +338
//  810           skin_InitConfig(skin_str, 0);
        MOV      R1,#+0
        ADD      R0,R7,#+88
        _BLF     ??skin_InitConfig,??skin_InitConfig??rA
//  811           deinit_resources();
        _BLF     ??deinit_resources,??deinit_resources??rA
//  812           init_resources(skin_str);
        ADD      R0,R7,#+88
        _BLF     ??init_resources,??init_resources??rA
//  813           goto L_SkinManager_Detected;
//  814         }
//  815       }
//  816     }
//  817     MessageBox(EMPTY_TEXTID,TextID_Create(lng_msgNotSupported,ENC_UCS2,TEXTID_ANY_LEN),NOIMAGE,1,0,0);
//  818     UI_Event_toBookID(ELF_TERMINATE_EVENT,BookObj_GetBookID(&MyBook->bk));
//  819     return;
//  820   L_SkinManager_Detected:
//  821     delete(str);
        MOV      R0,R10
        _BLF     `??operator delete`,`??operator delete??rA`
//  822     delete(str2);
        MOV      R0,R11
        _BLF     `??operator delete`,`??operator delete??rA`
//  823     //-------------------------------------------------------------------
//  824     //Fixing gui options and setting correct imageID inside, if needed
//  825     GUI *g=FindGuiInBook(audio,"MediaPlayer_Audio");
        LDR      R1,??walkman_Redraw_1+0x10  ;; `?<Constant "MediaPlayer_Audio">`
        MOV      R0,R5
        BL       ??FindGuiInBook
        MOV      R10,R0
//  826     DISP_OBJ_WALKMAN *d=(DISP_OBJ_WALKMAN*)GUIObject_GetDispObject(g);
        SWI      +360
//  827     if (orient==0)
        CMP      R9,#+0
        ADD      SP,SP,#+8
        CFI CFA R13+180
        BNE      ??walkman_Redraw_10
//  828     {
//  829       if (d->imageID!=NOIMAGE)
        LDRB     R1,[R0, #+183]
        LDRB     R0,[R0, #+182]
        ORR      R0,R0,R1, LSL #+8
        CMP      R0,R8
//  830         v_MPA_ID=d->imageID;
        STRHNE   R0,[R7, #+0]
//  831     }
//  832     GUIObject_SetStyle(g,2);
??walkman_Redraw_10:
        MOV      R1,#+2
        MOV      R0,R10
        SWI      +310
//  833     GUIObject_SetTitleType(g, 0);
        MOV      R1,#+0
        MOV      R0,R10
        SWI      +641
//  834     if (cfg_orient==1)
        LDR      R0,??walkman_Redraw_1+0x14  ;; cfg_orient
        LDR      R0,[R0, #+0]
        CMP      R0,#+1
        BNE      ??walkman_Redraw_11
//  835       set_horizontal();
        BL       ??set_horizontal
//  836     DispObject_InvalidateRect(GUIObject_GetDispObject(g),0);
??walkman_Redraw_11:
        MOV      R0,R10
        SWI      +360
        MOV      R1,#+0
        SWI      +495
//  837     //-------------------------------------------------------------------
//  838     working=true;
        MOV      R0,#+1
        STRB     R0,[R7, #+81]
//  839   }
//  840 
//  841   //-------------------------------------------------------------------
//  842   //Use standart player redraw
//  843   if (orient==0)
??walkman_Redraw_5:
        LDR      R0,??walkman_Redraw_1+0x18  ;; standartwnd
        CMP      R9,#+0
        LDR      R10,[R0, #+0]
        BNE      ??walkman_Redraw_12
//  844   {
//  845     orient=1;
        MOV      R9,#+1
//  846     if (standartwnd)
        CMP      R10,#+0
        BEQ      ??walkman_Redraw_13
//  847     {
//  848       oldredr(DO, a, b, c);
??walkman_Redraw_14:
        LDR      R3,[SP, #+140]
        LDR      R2,[SP, #+136]
        LDR      R1,[SP, #+132]
        MOV      R0,R4
        LDR      R4,[R7, #+64]
        BLX      R4
//  849       return;
        B        ??walkman_Redraw_15
//  850     }
//  851   }  
??walkman_Redraw_9:
        LDR      R0,??walkman_Redraw_1+0x1C  ;; `?<Constant "MediaPlayer_Audio">` + 152
        MOV      R2,R8
        MOV      R1,#+0
        SWI      +349
        MOV      R1,R0
        MOV      R0,#+0
        PUSH     {R0}
        CFI CFA R13+184
        PUSH     {R0}
        CFI CFA R13+188
        MOV      R3,#+1
        MOV      R2,R8
        MVN      R0,#-1879048192
        SWI      +599
        LDR      R0,??walkman_Redraw_1+0x20  ;; MyBook
        LDR      R0,[R0, #+0]
        SWI      +506
        MOV      R1,R0
        MOV      R0,#+229
        ORR      R0,R0,#0x300
        SWI      +426
        B        ??walkman_Redraw_16
        CFI CFA R13+180
//  852   else
//  853     orient=0;
??walkman_Redraw_12:
        MOV      R9,#+0
//  854   //-------------------------------------------------------------------
//  855   //If keylock is on top, need to draw vertical orientation
//  856   if (Display_GetTopBook(0)!=audio)
??walkman_Redraw_13:
        MOV      R0,#+0
        SWI      +795
        CMP      R0,R5
        BEQ      ??walkman_Redraw_17
//  857   {
//  858     orient=1;
        MOV      R9,#+1
//  859     if (standartwnd)
        CMP      R10,#+0
        BNE      ??walkman_Redraw_14
        B        ??walkman_Redraw_18
//  860     {
//  861       oldredr(DO, a, b, c);
//  862       return;
//  863     }
//  864   }
//  865   if (orient==0)/*>0 && Display_GetTopBook(0)==audio)*/
??walkman_Redraw_17:
        CMP      R9,#+0
        BNE      ??walkman_Redraw_18
//  866   {
//  867     if(imggc==0)
        LDR      R0,[R7, #+72]
        CMP      R0,#+0
        BNE      ??walkman_Redraw_19
//  868     {
//  869       //first call initialization
//  870       hMGC = GC_CreateMemoryGC(320,240, 16,0,0,0);
        PUSH     {R0}
        CFI CFA R13+184
        PUSH     {R0}
        CFI CFA R13+188
        MOV      R3,#+0
        MOV      R2,#+16
        MOV      R1,#+240
        MOV      R0,#+320
        SWI      +917
        STR      R0,[R7, #+68]
//  871       CANVAS_Get_GviGC(hMGC->pcanvas ,&imggc);
        LDR      R0,[R0, #+0]
        ADD      R1,R7,#+72
        SWI      +892
//  872       
//  873       GC_DrawFRect (hMGC, clBlack, 0,0,20,20);
        MOV      R0,#+20
        PUSH     {R0}
        CFI CFA R13+192
        PUSH     {R0}
        CFI CFA R13+196
        MOV      R3,#+0
        MOV      R2,#+0
        LDR      R0,[R7, #+68]
        MOV      R1,#-16777216
        SWI      +611
//  874       putchar_(hMGC,0,0,0,0,playnow_h);
        LDR      R0,??walkman_Redraw_1+0x24  ;; playnow_h
        LDRH     R0,[R0, #+0]
        ADD      SP,SP,#+16
        CFI CFA R13+180
        CMP      R0,#+0
        CMPNE    R0,R8
        BEQ      ??walkman_Redraw_19
        PUSH     {R0}
        CFI CFA R13+184
        MOV      R3,#+0
        MOV      R0,#+0
        PUSH     {R0}
        CFI CFA R13+188
        MOV      R2,R0
        MOV      R1,R0
        LDR      R0,[R7, #+68]
        SWI      +320
        ADD      SP,SP,#+8
        CFI CFA R13+180
//  875     }
//  876     CANVAS_Get_GviGC(GCanvas->pcanvas,&gvigcdisp);
??walkman_Redraw_19:
        LDR      R0,[R6, #+0]
        ADD      R1,R7,#+76
        SWI      +892
//  877     GVI_BitBlt(gvigcdisp, 0, 0, 320, 240, imggc, 0, 0, 204, 0, 0, 0);
        MOV      R0,#+0
        PUSH     {R0}
        CFI CFA R13+184
        PUSH     {R0}
        CFI CFA R13+188
        PUSH     {R0}
        CFI CFA R13+192
        MOV      R3,#+320
        MOV      R2,#+0
        MOV      R1,#+0
        MOV      R0,#+204
        PUSH     {R0}
        CFI CFA R13+196
        MOV      R0,#+0
        PUSH     {R0}
        CFI CFA R13+200
        PUSH     {R0}
        CFI CFA R13+204
        LDR      R0,[R7, #+72]
        PUSH     {R0}
        CFI CFA R13+208
        MOV      R0,#+240
        PUSH     {R0}
        CFI CFA R13+212
        LDR      R0,[R7, #+76]
        SWI      +893
        ADD      SP,SP,#+32
        CFI CFA R13+180
//  878   }
//  879   //-------------------------------------------------------------------
//  880   WALKMAN_BOOK *wb=(WALKMAN_BOOK*)audio;
//  881   DISP_OBJ_ *do_=(DISP_OBJ_*)DO;
//  882   
//  883   RECT gc_rc,rc;
//  884   GC_GetRect(GCanvas, &gc_rc);
??walkman_Redraw_18:
        ADD      R1,SP,#+16
//  885   rc.y1 = gc_rc.y1;
//  886   rc.y2 = gc_rc.y2;
//  887   putchar_(GCanvas, 
//  888            orient ? cover_rect.x1 : cover_rect_h.x1, 
//  889            orient ? cover_rect.y1 - StatusSize : cover_rect_h.y1,
//  890            orient ? cover_rect.x2-cover_rect.x1 : cover_rect_h.x2-cover_rect_h.x1,
//  891            orient ? cover_rect.y2-cover_rect.y1 : cover_rect_h.y2-cover_rect_h.y1,
//  892            orient ? cover_v_ : cover_h_);
        LDR      R10,??walkman_Redraw_1+0x28  ;; cover_rect_h
        LDR      R11,??walkman_Redraw_1+0x2C  ;; cover_rect
        MOV      R0,R6
        SWI      +487
        LDRH     R1,[SP, #+20]
        CMP      R9,#+0
        STRH     R1,[SP, #+4]
        LDRH     R1,[SP, #+22]
        STRH     R1,[SP, #+6]
        BEQ      ??walkman_Redraw_20
        LDR      R0,??walkman_Redraw_1+0x30  ;; cover_v_
        LDRH     R0,[R0, #+0]
        CMP      R0,#+0
        BEQ      ??walkman_Redraw_21
        LDRH     R2,[R11, #+4]
        LDRH     R1,[R11, #+6]
        LDRH     R3,[R11, #+2]
        LDR      LR,[R7, #+48]
        SUB      R12,R1,R2
        LDRH     R1,[R11, #+0]
        SUB      R2,R2,LR
??walkman_Redraw_22:
        SUB      R3,R3,R1
        PUSH     {R0}
        CFI CFA R13+184
        PUSH     {R12}
        CFI CFA R13+188
        MOV      R0,R6
        SWI      +320
        ADD      SP,SP,#+8
        CFI CFA R13+180
//  893     
//  894   putchar_(GCanvas, 
//  895            orient ? cover_rect.x1 : cover_rect_h.x1, 
//  896            orient ? cover_rect.y1 - StatusSize : cover_rect_h.y1,
//  897            orient ? cover_rect.x2-cover_rect.x1 : cover_rect_h.x2-cover_rect_h.x1,
//  898            orient ? cover_rect.y2-cover_rect.y1 : cover_rect_h.y2-cover_rect_h.y1,
//  899            nowmusic.meta.ImageID);
??walkman_Redraw_21:
        LDR      R1,??walkman_Redraw_1+0x34  ;; nowmusic + 10272
        STR      R1,[SP, #+12]
        LDRH     R0,[R1, #+0]
        CMP      R0,#+0
        CMPNE    R0,R8
        BEQ      ??walkman_Redraw_23
        CMP      R9,#+0
        BEQ      ??walkman_Redraw_24
        LDRH     R2,[R11, #+4]
        LDRH     R1,[R11, #+6]
        LDRH     R10,[R11, #+2]
        SUB      R3,R1,R2
        LDRH     R1,[R11, #+0]
        LDR      R11,[R7, #+48]
        SUB      R10,R10,R1
        SUB      R2,R2,R11
        B        ??walkman_Redraw_25
??walkman_Redraw_20:
        LDR      R0,??walkman_Redraw_1+0x38  ;; cover_h_
        LDRH     R0,[R0, #+0]
        CMP      R0,R8
        BEQ      ??walkman_Redraw_21
        LDRH     R2,[R10, #+4]
        LDRH     R1,[R10, #+6]
        LDRH     R3,[R10, #+2]
        SUB      R12,R1,R2
        LDRH     R1,[R10, #+0]
        B        ??walkman_Redraw_22
??walkman_Redraw_24:
        LDRH     R2,[R10, #+4]
        LDRH     R1,[R10, #+6]
        SUB      R3,R1,R2
        LDRH     R1,[R10, #+0]
        LDRH     R10,[R10, #+2]
        SUB      R10,R10,R1
??walkman_Redraw_25:
        PUSH     {R0}
        CFI CFA R13+184
        PUSH     {R3}
        CFI CFA R13+188
        MOV      R3,R10
        MOV      R0,R6
        SWI      +320
        ADD      SP,SP,#+8
        CFI CFA R13+180
//  900   MM_INFO *mm_info=&((DISP_OBJ_*)DO)->mm_info;
//  901 #define PHONE_AUTO 0
//  902 #define PHONE_W580 1
//  903 #define PHONE_W610 2
//  904   if (phone==PHONE_W610)
??walkman_Redraw_23:
        LDR      R0,??walkman_Redraw_1+0x3C  ;; phone
        ADD      R10,R4,#+412
        LDR      R1,[R0, #+0]
        CMP      R1,#+2
//  905     mm_info=(MM_INFO*)(((int)(mm_info))+0xC);
        ADDEQ    R10,R10,#+12
        BEQ      ??walkman_Redraw_26
//  906   else if (phone==PHONE_AUTO)
        CMP      R1,#+0
        BNE      ??walkman_Redraw_26
//  907   {
//  908     int SaveConfigData(const wchar_t *path,const wchar_t *fname);
//  909     if (mm_info->title_str>0x80000000 && mm_info->title_str<0x90000000)
        LDRB     R1,[R10, #+119]
        LDRB     R2,[R10, #+118]
        ORR      R1,R2,R1, LSL #+8
        LDRB     R2,[R10, #+117]
        ORR      R1,R2,R1, LSL #+8
        LDRB     R2,[R10, #+116]
        ORR      R1,R2,R1, LSL #+8
        CMP      R1,#-2147483647
        BCC      ??walkman_Redraw_27
        CMP      R1,#-1879048192
        BCS      ??walkman_Redraw_27
//  910     {
//  911       int *integer=(int*)&phone;
//  912       integer[0]=PHONE_W580;
        MOV      R1,#+1
        STR      R1,[R0, #+0]
//  913       MessageBox(EMPTY_TEXTID,TextID_Create(lng_msgW580detected,ENC_UCS2,TEXTID_ANY_LEN),NOIMAGE,1,0,0);
        LDR      R0,??walkman_Redraw_1+0x40  ;; `?<Constant "MediaPlayer_Audio">` + 372
        B        ??walkman_Redraw_28
//  914     }
//  915     else
//  916     {
//  917       int *integer=(int*)&phone;
//  918       integer[0]=PHONE_W610;
??walkman_Redraw_27:
        MOV      R1,#+2
        STR      R1,[R0, #+0]
//  919       MessageBox(EMPTY_TEXTID,TextID_Create(lng_msgW610detected,ENC_UCS2,TEXTID_ANY_LEN),NOIMAGE,1,0,0);
        LDR      R0,??walkman_Redraw_1+0x44  ;; `?<Constant "MediaPlayer_Audio">` + 436
??walkman_Redraw_28:
        MOV      R2,R8
        MOV      R1,#+0
        SWI      +349
        MOV      R1,#+0
        PUSH     {R1}
        CFI CFA R13+184
        PUSH     {R1}
        CFI CFA R13+188
        MOV      R3,#+1
        MOV      R2,R8
        MOV      R1,R0
        MVN      R0,#-1879048192
        SWI      +599
//  920     }
//  921     SaveConfigData(successed_config_path,successed_config_name);
        LDR      R0,??walkman_Redraw_1+0x48  ;; successed_config_name
        ADD      SP,SP,#+8
        CFI CFA R13+180
        LDR      R1,[R0, #+0]
        LDR      R0,??walkman_Redraw_1+0x4C  ;; successed_config_path
        LDR      R0,[R0, #+0]
        _BLF     ??SaveConfigData,??SaveConfigData??rA
//  922   }
//  923   int cur=mm_info->currenttime;
??walkman_Redraw_26:
        LDRB     R1,[R10, #+139]
        LDRB     R2,[R10, #+138]
//  924   
//  925   //----------------------------------------------------------------------------
//  926   //Progressbar
//  927   if (orient ? ProgressBar_Show : ProgressBar_Show_h)
        CMP      R9,#+0
        LDRNE    R0,??walkman_Redraw_1+0x50  ;; ProgressBar_Show
        ORR      R1,R2,R1, LSL #+8
        LDRB     R2,[R10, #+137]
        LDREQ    R0,??walkman_Redraw_1+0x54  ;; ProgressBar_Show_h
        ORR      R1,R2,R1, LSL #+8
        LDRB     R2,[R10, #+136]
        ORR      R1,R2,R1, LSL #+8
        STR      R1,[SP, #+8]
        LDR      R0,[R0, #+0]
        CMP      R0,#+0
        BEQ      ??walkman_Redraw_29
//  928   {
//  929     DrawProgress(orient ? ProgressBar_bColor : ProgressBar_bColor_h, 
//  930                  orient ? ProgressBar_cColor : ProgressBar_cColor_h, 
//  931                  orient ? ProgressBar_oColor : ProgressBar_oColor_h, 
//  932                  orient ? pbrect : pbrect_h, 
//  933                  cur, 
//  934                  mm_info->fulltime,
//  935                  orient ? - StatusSize : 0, 
//  936                  orient ? ProgressBar_highlight : ProgressBar_highlight_h);
        CMP      R9,#+0
        BEQ      ??walkman_Redraw_30
        LDR      R0,??walkman_Redraw_1+0x58  ;; ProgressBar_highlight
        LDR      R1,??walkman_Redraw_1+0x5C  ;; pbrect
        LDR      R3,[R0, #+0]
        LDR      R0,[R7, #+48]
        MOV      R12,#+8
        RSB      R11,R0,#+0
        ADD      R0,SP,#+24
??walkman_Redraw_31:
        SUBS     R12,R12,#+2
        LDRH     R2,[R1, R12]
        STRH     R2,[R0, R12]
        BNE      ??walkman_Redraw_31
        LDR      R0,??walkman_Redraw_1+0x60  ;; ProgressBar_oColor
        LDR      R2,[R0, #+0]
        LDR      R0,??walkman_Redraw_1+0x64  ;; ProgressBar_cColor
        LDR      R1,[R0, #+0]
        LDR      R0,??walkman_Redraw_1+0x68  ;; ProgressBar_bColor
        B        ??walkman_Redraw_32
??walkman_Redraw_30:
        LDR      R0,??walkman_Redraw_1+0x6C  ;; ProgressBar_highlight_h
        LDR      R1,??walkman_Redraw_1+0x70  ;; pbrect_h
        LDR      R3,[R0, #+0]
        MOV      R11,#+0
        ADD      R0,SP,#+24
        MOV      R12,#+8
??walkman_Redraw_33:
        SUBS     R12,R12,#+2
        LDRH     R2,[R1, R12]
        STRH     R2,[R0, R12]
        BNE      ??walkman_Redraw_33
        LDR      R0,??walkman_Redraw_1+0x74  ;; ProgressBar_oColor_h
        LDR      R2,[R0, #+0]
        LDR      R0,??walkman_Redraw_1+0x78  ;; ProgressBar_cColor_h
        LDR      R1,[R0, #+0]
        LDR      R0,??walkman_Redraw_1+0x7C  ;; ProgressBar_bColor_h
??walkman_Redraw_32:
        MOV      LR,#+8
        LDR      R0,[R0, #+0]
        PUSH     {R3}
        CFI CFA R13+184
        PUSH     {R11}
        CFI CFA R13+188
        LDRB     R3,[R10, #+127]
        LDRB     R11,[R10, #+126]
        ORR      R3,R11,R3, LSL #+8
        LDRB     R11,[R10, #+125]
        ORR      R3,R11,R3, LSL #+8
        LDRB     R11,[R10, #+124]
        ORR      R3,R11,R3, LSL #+8
        PUSH     {R3}
        CFI CFA R13+192
        LDR      R3,[SP, #+20]
        PUSH     {R3}
        CFI CFA R13+196
        ADD      R3,SP,#+40
        SUB      SP,SP,#+8
        CFI CFA R13+204
        MOV      R12,SP
??walkman_Redraw_34:
        SUBS     LR,LR,#+2
        LDRH     R11,[R3, LR]
        STRH     R11,[R12, LR]
        BNE      ??walkman_Redraw_34
        POP      {R3}
        CFI CFA R13+200
        BL       ??DrawProgress
        ADD      SP,SP,#+20
        CFI CFA R13+180
//  937   }
//  938   
//  939   //----------------------------------------------------------------------------
//  940   //Volumebar
//  941   if (orient==0)
??walkman_Redraw_29:
        CMP      R9,#+0
        BNE      ??walkman_Redraw_35
//  942   {
//  943     typedef struct
//  944     {
//  945       char dummy[0x2C];
//  946       wchar_t volume;
//  947     }VOLCONTR;
//  948     VOLCONTR *book=(VOLCONTR*)FindBook(isVolCtrl);
        LDR      R0,??walkman_Redraw_1+0x80  ;; ??isVolCtrl
        SWI      +304
//  949     if (book)
        CMP      R0,#+0
//  950     {
//  951       if (book->volume && VolumeBar_Show)
        LDRHNE   R0,[R0, #+44]
        CMPNE    R0,#+0
        LDRNE    R1,??walkman_Redraw_1+0x84  ;; VolumeBar_Show
        LDRNE    R1,[R1, #+0]
        CMPNE    R1,#+0
        BEQ      ??walkman_Redraw_36
//  952       {
//  953         DrawProgress(VolumeBar_bColor, 
//  954                      VolumeBar_cColor, 
//  955                      VolumeBar_oColor, 
//  956                      volrect, 
//  957                      book->volume, 
//  958                      15,
//  959                      0, 
//  960                      VolumeBar_highlight);
        LDR      R1,??walkman_Redraw_1+0x88  ;; VolumeBar_highlight
        MOV      R3,#+8
        LDR      R1,[R1, #+0]
        PUSH     {R1}
        CFI CFA R13+184
        MOV      R1,#+0
        PUSH     {R1}
        CFI CFA R13+188
        MOV      R1,#+15
        PUSH     {R1}
        CFI CFA R13+192
        PUSH     {R0}
        CFI CFA R13+196
        LDR      R0,??walkman_Redraw_1+0x8C  ;; volrect
        SUB      SP,SP,#+8
        CFI CFA R13+204
        MOV      R2,SP
??walkman_Redraw_37:
        SUBS     R3,R3,#+2
        LDRH     R1,[R0, R3]
        STRH     R1,[R2, R3]
        BNE      ??walkman_Redraw_37
        LDR      R0,??walkman_Redraw_1+0x90  ;; VolumeBar_oColor
        LDR      R2,[R0, #+0]
        LDR      R0,??walkman_Redraw_1+0x94  ;; VolumeBar_cColor
        LDR      R1,[R0, #+0]
        LDR      R0,??walkman_Redraw_1+0x98  ;; VolumeBar_bColor
        LDR      R0,[R0, #+0]
        POP      {R3}
        CFI CFA R13+200
        BL       ??DrawProgress
        ADD      SP,SP,#+20
        CFI CFA R13+180
??walkman_Redraw_36:
        LDR      R0,??walkman_Redraw_1+0x9C  ;; aricn_show_h
??walkman_Redraw_38:
        LDR      R11,??walkman_Redraw_1+0xA0  ;; main_icons
        LDR      R0,[R0, #+0]
        CMP      R0,#+0
        BEQ      ??walkman_Redraw_39
//  961       }
//  962     }
//  963   }
//  964   //----------------------------------------------------------------------------
//  965   wchar_t buf[50];
//  966   //----------------------------------------------------------------------------
//  967   //Artist icon
//  968   if (orient ? aricn_show : aricn_show_h)
//  969   {
//  970     putchar_(GCanvas, 
//  971             orient ? aricn_rect.x1 : aricn_rect_h.x1, 
//  972             orient ? aricn_rect.y1 - StatusSize : aricn_rect_h.y1,
//  973             orient ? aricn_rect.x2 - aricn_rect.x1 : aricn_rect_h.x2 - aricn_rect_h.x1,
//  974             orient ? aricn_rect.y2 - aricn_rect.y1 : aricn_rect_h.y2 - aricn_rect_h.y1,
//  975             ICON(main_icons[ICN_ARTIST],do_->artist_icn));
        LDRH     R0,[R11, #+0]
        CMP      R0,R8
        LDRBEQ   R1,[R4, #+213]
        LDRBEQ   R2,[R4, #+212]
        MOVNE    R1,R0
        ORREQ    R1,R2,R1, LSL #+8
        B        ??walkman_Redraw_40
??walkman_Redraw_35:
        LDR      R0,??walkman_Redraw_1+0xA4  ;; aricn_show
        B        ??walkman_Redraw_38
??walkman_Redraw_40:
        CMP      R1,#+0
        BEQ      ??walkman_Redraw_39
        CMP      R0,R8
        BNE      ??walkman_Redraw_41
        LDRB     R0,[R4, #+213]
        LDRB     R1,[R4, #+212]
        ORR      R0,R1,R0, LSL #+8
        CMP      R0,R8
        BEQ      ??walkman_Redraw_39
        LDRB     R0,[R4, #+213]
        ORR      R0,R1,R0, LSL #+8
??walkman_Redraw_41:
        CMP      R9,#+0
        BEQ      ??walkman_Redraw_42
        LDR      R3,??walkman_Redraw_1+0xA8  ;; aricn_rect
        LDRH     R2,[R3, #+4]
        LDRH     R1,[R3, #+6]
        LDR      LR,[R7, #+48]
        SUB      R12,R1,R2
        LDRH     R1,[R3, #+0]
        LDRH     R3,[R3, #+2]
        SUB      R2,R2,LR
        B        ??walkman_Redraw_43
??walkman_Redraw_42:
        LDR      R3,??walkman_Redraw_1+0xAC  ;; aricn_rect_h
        LDRH     R2,[R3, #+4]
        LDRH     R1,[R3, #+6]
        SUB      R12,R1,R2
        LDRH     R1,[R3, #+0]
        LDRH     R3,[R3, #+2]
??walkman_Redraw_43:
        SUB      R3,R3,R1
        PUSH     {R0}
        CFI CFA R13+184
        PUSH     {R12}
        CFI CFA R13+188
        MOV      R0,R6
        SWI      +320
        ADD      SP,SP,#+8
        CFI CFA R13+180
//  976   }
//  977   //----------------------------------------------------------------------------
//  978   //Album icon
//  979   if (orient ? alicn_show : alicn_show_h)
??walkman_Redraw_39:
        CMP      R9,#+0
        LDRNE    R0,??walkman_Redraw_1+0xB0  ;; alicn_show
        LDREQ    R0,??walkman_Redraw_1+0xB4  ;; alicn_show_h
        LDR      R0,[R0, #+0]
        CMP      R0,#+0
        BEQ      ??walkman_Redraw_44
//  980   {
//  981     putchar_(GCanvas, 
//  982             orient ? alicn_rect.x1 : alicn_rect_h.x1, 
//  983             orient ? alicn_rect.y1 - StatusSize: alicn_rect_h.y1,
//  984             orient ? alicn_rect.x2 - alicn_rect.x1 : alicn_rect_h.x2 - alicn_rect_h.x1,
//  985             orient ? alicn_rect.y2 - alicn_rect.y1 : alicn_rect_h.y2 - alicn_rect_h.y1,
//  986             ICON(main_icons[ICN_ALBUM],do_->album_icn));
        LDRH     R0,[R11, #+2]
        CMP      R0,R8
        LDRBEQ   R1,[R4, #+217]
        LDRBEQ   R2,[R4, #+216]
        MOVNE    R1,R0
        ORREQ    R1,R2,R1, LSL #+8
        CMP      R1,#+0
        BEQ      ??walkman_Redraw_44
        CMP      R0,R8
        BNE      ??walkman_Redraw_45
        LDRB     R0,[R4, #+217]
        LDRB     R1,[R4, #+216]
        ORR      R0,R1,R0, LSL #+8
        CMP      R0,R8
        BEQ      ??walkman_Redraw_44
        LDRB     R0,[R4, #+217]
        ORR      R0,R1,R0, LSL #+8
??walkman_Redraw_45:
        CMP      R9,#+0
        BEQ      ??walkman_Redraw_46
        LDR      R3,??walkman_Redraw_1+0xB8  ;; alicn_rect
        LDRH     R2,[R3, #+4]
        LDRH     R1,[R3, #+6]
        LDR      LR,[R7, #+48]
        SUB      R12,R1,R2
        LDRH     R1,[R3, #+0]
        LDRH     R3,[R3, #+2]
        SUB      R2,R2,LR
        B        ??walkman_Redraw_47
??walkman_Redraw_46:
        LDR      R3,??walkman_Redraw_1+0xBC  ;; alicn_rect_h
        LDRH     R2,[R3, #+4]
        LDRH     R1,[R3, #+6]
        SUB      R12,R1,R2
        LDRH     R1,[R3, #+0]
        LDRH     R3,[R3, #+2]
??walkman_Redraw_47:
        SUB      R3,R3,R1
        PUSH     {R0}
        CFI CFA R13+184
        PUSH     {R12}
        CFI CFA R13+188
        MOV      R0,R6
        SWI      +320
        ADD      SP,SP,#+8
        CFI CFA R13+180
//  987   }
//  988   //----------------------------------------------------------------------------
//  989   //Title icon
//  990   if (orient ? ticn_show : ticn_show_h)
??walkman_Redraw_44:
        CMP      R9,#+0
        LDRNE    R0,??walkman_Redraw_1+0xC0  ;; ticn_show
        LDREQ    R0,??walkman_Redraw_1+0xC4  ;; ticn_show_h
        LDR      R0,[R0, #+0]
        CMP      R0,#+0
        BEQ      ??walkman_Redraw_48
//  991   {
//  992     putchar_(GCanvas, 
//  993             orient ? ticn_rect.x1 : ticn_rect_h.x1, 
//  994             orient ? ticn_rect.y1 - StatusSize : ticn_rect_h.y1,
//  995             orient ? ticn_rect.x2 - ticn_rect.x1 : ticn_rect_h.y2 - ticn_rect_h.y1,
//  996             orient ? ticn_rect.y2 - ticn_rect.y1 : ticn_rect_h.y2 - ticn_rect_h.y1,
//  997             ICON(main_icons[ICN_TITLE],do_->title_icn));
        LDRH     R11,[R11, #+4]
        CMP      R11,R8
        LDRBEQ   R0,[R4, #+215]
        LDRBEQ   R1,[R4, #+214]
        MOVNE    R0,R11
        ORREQ    R0,R1,R0, LSL #+8
        CMP      R0,#+0
        BEQ      ??walkman_Redraw_48
        CMP      R11,R8
        BNE      ??walkman_Redraw_49
        LDRB     R0,[R4, #+215]
        LDRB     R1,[R4, #+214]
        ORR      R0,R1,R0, LSL #+8
        CMP      R0,R8
        BEQ      ??walkman_Redraw_48
        LDRB     R0,[R4, #+215]
        ORR      R11,R1,R0, LSL #+8
??walkman_Redraw_49:
        CMP      R9,#+0
        BEQ      ??walkman_Redraw_50
        LDR      R3,??walkman_Redraw_1+0xC8  ;; ticn_rect
        LDRH     R2,[R3, #+4]
        LDRH     R0,[R3, #+6]
        LDRH     R1,[R3, #+0]
        LDRH     R3,[R3, #+2]
        LDR      R4,[R7, #+48]
        SUB      R0,R0,R2
        SUB      R3,R3,R1
        SUB      R2,R2,R4
        B        ??walkman_Redraw_51
??walkman_Redraw_50:
        LDR      R1,??walkman_Redraw_1+0xCC  ;; ticn_rect_h
        LDRH     R2,[R1, #+4]
        LDRH     R0,[R1, #+6]
        LDRH     R1,[R1, #+0]
        SUB      R3,R0,R2
        MOV      R0,R3
??walkman_Redraw_51:
        PUSH     {R11}
        CFI CFA R13+184
        PUSH     {R0}
        CFI CFA R13+188
        MOV      R0,R6
        SWI      +320
        ADD      SP,SP,#+8
        CFI CFA R13+180
//  998   }
//  999   
// 1000   //----------------------------------------------------------------------------
// 1001   //Equalizer preset icon
// 1002   if (orient ? eq_preset_show : eq_preset_show_h)
??walkman_Redraw_48:
        CMP      R9,#+0
        LDRNE    R0,??walkman_Redraw_1+0xD0  ;; eq_preset_show
        LDREQ    R0,??walkman_Redraw_1+0xD4  ;; eq_preset_show_h
        LDR      R0,[R0, #+0]
        CMP      R0,#+0
        BEQ      ??walkman_Redraw_52
// 1003   {
// 1004     putchar_(GCanvas, 
// 1005              orient ? eq_preset_rect.x1 : eq_preset_rect_h.x1, 
// 1006              orient ? eq_preset_rect.y1 - StatusSize : eq_preset_rect_h.y1,
// 1007              orient ? eq_preset_rect.x2 - eq_preset_rect.x1 : eq_preset_rect_h.y2 - eq_preset_rect_h.y1,
// 1008              orient ? eq_preset_rect.y2 - eq_preset_rect.y1: eq_preset_rect_h.y2 - eq_preset_rect_h.y1,
// 1009              presets[wb->preset < 7 ? wb->preset : 6]);
        LDRB     R0,[R5, #+52]
        LDR      R4,??walkman_Redraw_1+0xD8  ;; presets
        CMP      R0,#+7
        MOVCS    R0,#+6
        ADD      R0,R4,R0, LSL #+1
        LDRH     R0,[R0, #+0]
        CMP      R0,#+0
        BEQ      ??walkman_Redraw_52
        LDRB     R0,[R5, #+52]
        CMP      R0,#+7
        MOVCS    R0,#+6
        ADD      R0,R4,R0, LSL #+1
        LDRH     R0,[R0, #+0]
        CMP      R0,R8
        BEQ      ??walkman_Redraw_52
        LDRB     R0,[R5, #+52]
        CMP      R0,#+7
        MOVCC    R11,R0
        MOVCS    R11,#+6
        CMP      R9,#+0
        BEQ      ??walkman_Redraw_53
        LDR      R3,??walkman_Redraw_1+0xDC  ;; eq_preset_rect
        LDRH     R2,[R3, #+4]
        LDRH     R0,[R3, #+6]
        LDRH     R1,[R3, #+0]
        LDRH     R3,[R3, #+2]
        LDR      R12,[R7, #+48]
        SUB      R0,R0,R2
        SUB      R3,R3,R1
        SUB      R2,R2,R12
        B        ??walkman_Redraw_54
??walkman_Redraw_53:
        LDR      R1,??walkman_Redraw_1+0xE0  ;; eq_preset_rect_h
        LDRH     R2,[R1, #+4]
        LDRH     R0,[R1, #+6]
        LDRH     R1,[R1, #+0]
        SUB      R3,R0,R2
        MOV      R0,R3
??walkman_Redraw_54:
        ADD      R4,R4,R11, LSL #+1
        LDRH     R4,[R4, #+0]
        PUSH     {R4}
        CFI CFA R13+184
        PUSH     {R0}
        CFI CFA R13+188
        MOV      R0,R6
        SWI      +320
        ADD      SP,SP,#+8
        CFI CFA R13+180
// 1010   }
// 1011   
// 1012   //----------------------------------------------------------------------------
// 1013   //Play/Stop icon
// 1014   if (orient ? pls_show : pls_show_h)
??walkman_Redraw_52:
        CMP      R9,#+0
        LDRNE    R0,??walkman_Redraw_1+0xE4  ;; pls_show
        LDREQ    R0,??walkman_Redraw_1+0xE8  ;; pls_show_h
        LDR      R0,[R0, #+0]
        CMP      R0,#+0
        BEQ      ??walkman_Redraw_55
// 1015   {
// 1016     putchar_(GCanvas, 
// 1017             orient ? pls_rect.x1 : pls_rect_h.x1, 
// 1018             orient ? pls_rect.y1 - StatusSize : pls_rect_h.y1,
// 1019             orient ? pls_rect.x2 - pls_rect.x1 : pls_rect_h.x2 - pls_rect_h.x1,
// 1020             orient ? pls_rect.y2 - pls_rect.y1 : pls_rect_h.y2 - pls_rect_h.y1,
// 1021             wb->status==MP_STATUS_PLAY ? playicn : 
// 1022               wb->status==MP_STATUS_PAUSE ? use_pauseicn ? pauseicn : stopicn : 
// 1023                 wb->status==MP_STATUS_FORWARD ? media_images[IMG_FORWARD] : 
// 1024                   wb->status==MP_STATUS_REWIND ? media_images[IMG_REWIND] : stopicn);
        LDR      R0,??walkman_Redraw_1+0xEC  ;; media_images + 2
        LDRB     R12,[R5, #+25]
        LDRH     R1,[R0, #+0]
        LDR      R0,??walkman_Redraw_1+0xF0  ;; playicn
        CMP      R12,#+1
        LDRH     R2,[R0, #+0]
        LDR      R0,??walkman_Redraw_1+0xF4  ;; media_images
        LDRH     R3,[R0, #+0]
        LDR      R0,??walkman_Redraw_1+0xF8  ;; pauseicn
        LDRH     R4,[R0, #+0]
        LDR      R0,??walkman_Redraw_1+0xFC  ;; use_pauseicn
        LDR      R11,[R0, #+0]
        LDR      R0,??walkman_Redraw_1+0x100  ;; stopicn
        LDRH     R0,[R0, #+0]
        BNE      ??walkman_Redraw_56
??walkman_Redraw_57:
        MOV      R12,R2
??walkman_Redraw_58:
        CMP      R12,#+0
        BEQ      ??walkman_Redraw_55
??walkman_Redraw_59:
        LDRB     R12,[R5, #+25]
        CMP      R12,#+1
        BNE      ??walkman_Redraw_60
        MOV      R0,R2
        B        ??walkman_Redraw_61
??walkman_Redraw_56:
        CMP      R12,#+2
        BNE      ??walkman_Redraw_62
        CMP      R11,#+0
        BEQ      ??walkman_Redraw_63
??walkman_Redraw_64:
        MOV      R12,R4
        B        ??walkman_Redraw_58
??walkman_Redraw_63:
        MOV      R12,R0
        B        ??walkman_Redraw_58
??walkman_Redraw_62:
        CMP      R12,#+3
        BNE      ??walkman_Redraw_65
??walkman_Redraw_66:
        MOV      R12,R3
        B        ??walkman_Redraw_58
??walkman_Redraw_65:
        CMP      R12,#+5
        BNE      ??walkman_Redraw_67
??walkman_Redraw_68:
        MOV      R12,R1
        B        ??walkman_Redraw_58
??walkman_Redraw_67:
        CMP      R0,#+0
        BEQ      ??walkman_Redraw_69
        CMP      R12,#+1
        BEQ      ??walkman_Redraw_57
??walkman_Redraw_69:
        CMP      R12,#+2
        BNE      ??walkman_Redraw_70
        CMP      R11,#+0
        BEQ      ??walkman_Redraw_63
        B        ??walkman_Redraw_64
??walkman_Redraw_70:
        CMP      R12,#+3
        BEQ      ??walkman_Redraw_66
        CMP      R12,#+5
        BEQ      ??walkman_Redraw_68
        CMP      R0,R8
        BNE      ??walkman_Redraw_59
        B        ??walkman_Redraw_55
??walkman_Redraw_60:
        CMP      R12,#+2
        BNE      ??walkman_Redraw_71
        CMP      R11,#+0
        BEQ      ??walkman_Redraw_61
        MOV      R0,R4
        B        ??walkman_Redraw_61
??walkman_Redraw_71:
        CMP      R12,#+3
        MOVEQ    R0,R3
        BEQ      ??walkman_Redraw_61
        CMP      R12,#+5
        MOVEQ    R0,R1
??walkman_Redraw_61:
        CMP      R9,#+0
        BEQ      ??walkman_Redraw_72
        LDR      R3,??walkman_Redraw_1+0x104  ;; pls_rect
        LDRH     R2,[R3, #+4]
        LDRH     R1,[R3, #+6]
        LDR      R11,[R7, #+48]
        SUB      R4,R1,R2
        LDRH     R1,[R3, #+0]
        LDRH     R3,[R3, #+2]
        SUB      R2,R2,R11
        B        ??walkman_Redraw_73
??walkman_Redraw_72:
        LDR      R3,??walkman_Redraw_1+0x108  ;; pls_rect_h
        LDRH     R2,[R3, #+4]
        LDRH     R1,[R3, #+6]
        SUB      R4,R1,R2
        LDRH     R1,[R3, #+0]
        LDRH     R3,[R3, #+2]
??walkman_Redraw_73:
        SUB      R3,R3,R1
        PUSH     {R0}
        CFI CFA R13+184
        PUSH     {R4}
        CFI CFA R13+188
        MOV      R0,R6
        SWI      +320
        ADD      SP,SP,#+8
        CFI CFA R13+180
// 1025   }
// 1026   int MIN,SEC;
// 1027   rc.y1=gc_rc.y1;
??walkman_Redraw_55:
        LDRH     R1,[SP, #+20]
// 1028   rc.y2=gc_rc.y2;
// 1029   //----------------------------------------------------------------------------
// 1030   //Current time
// 1031   if (orient ? ctime_show : ctime_show_h)
        CMP      R9,#+0
        LDRNE    R0,??walkman_Redraw_1+0x10C  ;; ctime_show
        STRH     R1,[SP, #+4]
        LDRH     R1,[SP, #+22]
        LDREQ    R0,??walkman_Redraw_1+0x110  ;; ctime_show_h
        STRH     R1,[SP, #+6]
        LDR      R0,[R0, #+0]
        CMP      R0,#+0
        BEQ      ??walkman_Redraw_74
// 1032   {
// 1033     MIN=cur/60;
// 1034     SEC=cur%60;
// 1035     snwprintf(buf,49, orient ? ctime_mask : ctime_mask_h, MIN, SEC);
        LDR      R0,[SP, #+8]
        CMP      R9,#+0
        LDRNE    R2,??walkman_Redraw_1+0x114  ;; ctime_mask
        MOV      R1,#+60
        LDREQ    R2,??walkman_Redraw_1+0x118  ;; ctime_mask_h
// 1036     
// 1037     rc.x1 = orient ? ctime_rc.x1 : ctime_rc_h.x1;
        LDR      R11,??walkman_Redraw_1+0x11C  ;; ctime_rc_h
        LDR      R4,??walkman_Redraw_1+0x120  ;; ctime_rc
        _BLF     ??div32_a,??rA??div32_a
        PUSH     {R0}
        CFI CFA R13+184
        LDR      R0,[SP, #+12]
        MOV      R1,#+60
        _BLF     ??div32_a,??rA??div32_a
        MOV      R3,R1
        MOV      R1,#+49
        ADD      R0,SP,#+36
        SWI      +277
        CMP      R9,#+0
        ADD      SP,SP,#+4
        CFI CFA R13+180
        LDRHNE   R0,[R4, #+0]
// 1038     rc.x2 = orient ? ctime_rc.x2 : ctime_rc_h.x2;
// 1039     GC_ValidateRect(GCanvas,&rc);
        MOV      R1,SP
        LDRHEQ   R0,[R11, #+0]
        STRH     R0,[SP, #+0]
        LDRHNE   R0,[R4, #+2]
        LDRHEQ   R0,[R11, #+2]
        STRH     R0,[SP, #+2]
        MOV      R0,R6
        SWI      +490
// 1040     DrawLine(orient ? ctime_font : ctime_font_h, 
// 1041              buf, 
// 1042              orient ? ctime_ct : ctime_ct_h, 
// 1043              rc.x1, 
// 1044              orient ? ctime_rc.y1 - StatusSize : ctime_rc_h.y1, 
// 1045              rc.x2,
// 1046              orient ? ctime_rc.y2 - StatusSize : ctime_rc_h.y2,
// 1047              orient ? ctime_color : ctime_color_h, 
// 1048              orient ? ctime_scolor : ctime_scolor_h,
// 1049              true,
// 1050              orient ? ctime_hl : ctime_hl_h);
        CMP      R9,#+0
        BEQ      ??walkman_Redraw_75
        LDR      R0,??walkman_Redraw_1+0x124  ;; ctime_hl
        LDRH     R2,[R4, #+6]
        LDR      R1,[R0, #+0]
        LDR      R0,??walkman_Redraw_1+0x128  ;; ctime_scolor
        LDR      R3,[R0, #+0]
        LDR      R0,??walkman_Redraw_1+0x12C  ;; ctime_color
        LDR      R12,[R0, #+0]
        LDR      R0,[R7, #+48]
        SUB      LR,R2,R0
        LDRH     R2,[R4, #+4]
        SUB      R4,R2,R0
        LDR      R0,??walkman_Redraw_1+0x130  ;; ctime_ct
        LDR      R2,[R0, #+0]
        LDR      R0,??walkman_Redraw_1+0x134  ;; ctime_font
        B        ??walkman_Redraw_76
??walkman_Redraw_75:
        LDR      R0,??walkman_Redraw_1+0x138  ;; ctime_hl_h
        LDRH     LR,[R11, #+6]
        LDR      R1,[R0, #+0]
        LDR      R0,??walkman_Redraw_1+0x13C  ;; ctime_scolor_h
        LDRH     R4,[R11, #+4]
        LDR      R3,[R0, #+0]
        LDR      R0,??walkman_Redraw_1+0x140  ;; ctime_color_h
        LDR      R12,[R0, #+0]
        LDR      R0,??walkman_Redraw_1+0x144  ;; ctime_ct_h
        LDR      R2,[R0, #+0]
        LDR      R0,??walkman_Redraw_1+0x148  ;; ctime_font_h
??walkman_Redraw_76:
        LDR      R0,[R0, #+0]
        PUSH     {R1}
        CFI CFA R13+184
        MOV      R1,#+1
        PUSH     {R1}
        CFI CFA R13+188
        PUSH     {R3}
        CFI CFA R13+192
        PUSH     {R12}
        CFI CFA R13+196
        PUSH     {LR}
        CFI CFA R13+200
        LDRH     R1,[SP, #+22]
        PUSH     {R1}
        CFI CFA R13+204
        PUSH     {R4}
        CFI CFA R13+208
        LDRH     R3,[SP, #+28]
        ADD      R1,SP,#+60
        BL       ??DrawLine
        ADD      SP,SP,#+28
        CFI CFA R13+180
// 1051   }
// 1052   //----------------------------------------------------------------------------
// 1053   //Full time
// 1054   if (orient ? ftime_show : ftime_show_h)
??walkman_Redraw_74:
        CMP      R9,#+0
        LDRNE    R0,??walkman_Redraw_1+0x14C  ;; ftime_show
        LDREQ    R0,??walkman_Redraw_1+0x150  ;; ftime_show_h
        LDR      R0,[R0, #+0]
        CMP      R0,#+0
        BEQ      ??walkman_Redraw_77
// 1055   {
// 1056     MIN=mm_info->fulltime/60;
// 1057     SEC=mm_info->fulltime%60;
// 1058     snwprintf(buf,49,orient ? ftime_mask : ftime_mask_h,MIN,SEC);
        LDRB     R0,[R10, #+127]
        LDRB     R1,[R10, #+126]
// 1059     rc.x1 = orient ? ftime_rc.x1 : ftime_rc_h.x1;
        LDR      R11,??walkman_Redraw_1+0x154  ;; ftime_rc_h
        LDR      R4,??walkman_Redraw_1+0x158  ;; ftime_rc
        ORR      R0,R1,R0, LSL #+8
        LDRB     R1,[R10, #+125]
        CMP      R9,#+0
        LDRNE    R2,??walkman_Redraw_1+0x15C  ;; ftime_mask
        ORR      R0,R1,R0, LSL #+8
        LDRB     R1,[R10, #+124]
        LDREQ    R2,??walkman_Redraw_1+0x160  ;; ftime_mask_h
        ORR      R3,R1,R0, LSL #+8
        MOV      R0,R3
        MOV      R1,#+60
        _BLF     ??div32_a,??rA??div32_a
        PUSH     {R0}
        CFI CFA R13+184
        MOV      R1,#+60
        MOV      R0,R3
        _BLF     ??div32_a,??rA??div32_a
        MOV      R3,R1
        MOV      R1,#+49
        ADD      R0,SP,#+36
        SWI      +277
        CMP      R9,#+0
        ADD      SP,SP,#+4
        CFI CFA R13+180
        LDRHNE   R0,[R4, #+0]
// 1060     rc.x2 = orient ? ftime_rc.x2 : ftime_rc_h.x2;
// 1061     GC_ValidateRect(GCanvas,&rc);
        MOV      R1,SP
        LDRHEQ   R0,[R11, #+0]
        STRH     R0,[SP, #+0]
        LDRHNE   R0,[R4, #+2]
        LDRHEQ   R0,[R11, #+2]
        STRH     R0,[SP, #+2]
        MOV      R0,R6
        SWI      +490
// 1062     DrawLine(orient ? ftime_font : ftime_font_h, 
// 1063              buf, 
// 1064              orient ? ftime_ct : ftime_ct_h, 
// 1065              rc.x1, 
// 1066              orient ? ftime_rc.y1 - StatusSize : ftime_rc_h.y1, 
// 1067              rc.x2,
// 1068              orient ? ftime_rc.y2 - StatusSize : ftime_rc_h.y2,
// 1069              orient ? ftime_color : ftime_color_h, 
// 1070              orient ? ftime_scolor : ftime_scolor_h,
// 1071              true,
// 1072              orient ? ftime_hl : ftime_hl_h);
        CMP      R9,#+0
        BEQ      ??walkman_Redraw_78
        LDR      R0,??walkman_Redraw_1+0x164  ;; ftime_hl
        LDRH     R2,[R4, #+6]
        LDR      R1,[R0, #+0]
        LDR      R0,??walkman_Redraw_1+0x168  ;; ftime_scolor
        LDR      R3,[R0, #+0]
        LDR      R0,??walkman_Redraw_1+0x16C  ;; ftime_color
        LDR      R12,[R0, #+0]
        LDR      R0,[R7, #+48]
        SUB      LR,R2,R0
        LDRH     R2,[R4, #+4]
        SUB      R4,R2,R0
        LDR      R0,??walkman_Redraw_1+0x170  ;; ftime_ct
        LDR      R2,[R0, #+0]
        LDR      R0,??walkman_Redraw_1+0x174  ;; ftime_font
        B        ??walkman_Redraw_79
??walkman_Redraw_78:
        LDR      R0,??walkman_Redraw_1+0x178  ;; ftime_hl_h
        LDRH     LR,[R11, #+6]
        LDR      R1,[R0, #+0]
        LDR      R0,??walkman_Redraw_1+0x17C  ;; ftime_scolor_h
        LDRH     R4,[R11, #+4]
        LDR      R3,[R0, #+0]
        LDR      R0,??walkman_Redraw_1+0x180  ;; ftime_color_h
        LDR      R12,[R0, #+0]
        LDR      R0,??walkman_Redraw_1+0x184  ;; ftime_ct_h
        LDR      R2,[R0, #+0]
        LDR      R0,??walkman_Redraw_1+0x188  ;; ftime_font_h
??walkman_Redraw_79:
        LDR      R0,[R0, #+0]
        PUSH     {R1}
        CFI CFA R13+184
        MOV      R1,#+1
        PUSH     {R1}
        CFI CFA R13+188
        PUSH     {R3}
        CFI CFA R13+192
        PUSH     {R12}
        CFI CFA R13+196
        PUSH     {LR}
        CFI CFA R13+200
        LDRH     R1,[SP, #+22]
        PUSH     {R1}
        CFI CFA R13+204
        PUSH     {R4}
        CFI CFA R13+208
        LDRH     R3,[SP, #+28]
        ADD      R1,SP,#+60
        BL       ??DrawLine
        ADD      SP,SP,#+28
        CFI CFA R13+180
// 1073     
// 1074   }
// 1075   //----------------------------------------------------------------------------
// 1076   //Time left
// 1077   if (orient ? ltime_show : ltime_show_h)
??walkman_Redraw_77:
        CMP      R9,#+0
        LDRNE    R0,??walkman_Redraw_1+0x18C  ;; ltime_show
        LDREQ    R0,??walkman_Redraw_1+0x190  ;; ltime_show_h
        LDR      R0,[R0, #+0]
        CMP      R0,#+0
        BEQ      ??walkman_Redraw_80
// 1078   {
// 1079     MIN=(mm_info->fulltime-cur)/60;
// 1080     SEC=(mm_info->fulltime-cur)%60;
// 1081     snwprintf(buf,49,orient ? ltime_mask : ltime_mask_h,MIN,SEC);
        LDRB     R0,[R10, #+127]
        LDRB     R1,[R10, #+126]
// 1082     rc.x1 = orient ? ltime_rc.x1 : ltime_rc_h.x1;
        LDR      R11,??walkman_Redraw_1+0x194  ;; ltime_rc_h
        LDR      R4,??walkman_Redraw_1+0x198  ;; ltime_rc
        ORR      R0,R1,R0, LSL #+8
        LDRB     R1,[R10, #+125]
        CMP      R9,#+0
        LDRNE    R2,??walkman_Redraw_1+0x19C  ;; ltime_mask
        ORR      R0,R1,R0, LSL #+8
        LDRB     R1,[R10, #+124]
        LDREQ    R2,??walkman_Redraw_1+0x1A0  ;; ltime_mask_h
        ORR      R0,R1,R0, LSL #+8
        LDR      R1,[SP, #+8]
        SUB      R3,R0,R1
        MOV      R0,R3
        MOV      R1,#+60
        _BLF     ??div32_a,??rA??div32_a
        PUSH     {R0}
        CFI CFA R13+184
        MOV      R1,#+60
        MOV      R0,R3
        _BLF     ??div32_a,??rA??div32_a
        MOV      R3,R1
        MOV      R1,#+49
        ADD      R0,SP,#+36
        SWI      +277
        CMP      R9,#+0
        ADD      SP,SP,#+4
        CFI CFA R13+180
        LDRHNE   R0,[R4, #+0]
// 1083     rc.x2 = orient ? ltime_rc.x2 : ltime_rc_h.x2;
// 1084     GC_ValidateRect(GCanvas,&rc);
        MOV      R1,SP
        LDRHEQ   R0,[R11, #+0]
        STRH     R0,[SP, #+0]
        LDRHNE   R0,[R4, #+2]
        LDRHEQ   R0,[R11, #+2]
        STRH     R0,[SP, #+2]
        MOV      R0,R6
        SWI      +490
// 1085     DrawLine(orient ? ltime_font : ltime_font_h, 
// 1086              buf, 
// 1087              orient ? ltime_ct : ltime_ct_h, 
// 1088              rc.x1, 
// 1089              orient ? ltime_rc.y1 - StatusSize : ltime_rc_h.y1, 
// 1090              rc.x2,
// 1091              orient ? ltime_rc.y2 - StatusSize : ltime_rc_h.y2,
// 1092              orient ? ltime_color : ltime_color_h, 
// 1093              orient ? ltime_scolor : ltime_scolor_h,
// 1094              true,
// 1095              orient ? ltime_hl : ltime_hl_h);
        CMP      R9,#+0
        BEQ      ??walkman_Redraw_81
        LDR      R0,??walkman_Redraw_1+0x1A4  ;; ltime_hl
        LDRH     R2,[R4, #+6]
        LDR      R1,[R0, #+0]
        LDR      R0,??walkman_Redraw_1+0x1A8  ;; ltime_scolor
        LDR      R3,[R0, #+0]
        LDR      R0,??walkman_Redraw_1+0x1AC  ;; ltime_color
        LDR      R12,[R0, #+0]
        LDR      R0,[R7, #+48]
        SUB      LR,R2,R0
        LDRH     R2,[R4, #+4]
        SUB      R4,R2,R0
        LDR      R0,??walkman_Redraw_1+0x1B0  ;; ltime_ct
        LDR      R2,[R0, #+0]
        LDR      R0,??walkman_Redraw_1+0x1B4  ;; ltime_font
        B        ??walkman_Redraw_82
        DATA
??walkman_Redraw_1:
        DC32     v_MPA_ID
        DC32     nowmusic + 8
        DC32     use_accel
        DC32     ??onAccel
        DC32     `?<Constant "MediaPlayer_Audio">`
        DC32     cfg_orient
        DC32     standartwnd
        DC32     `?<Constant "MediaPlayer_Audio">` + 152
        DC32     MyBook
        DC32     playnow_h
        DC32     cover_rect_h
        DC32     cover_rect
        DC32     cover_v_
        DC32     nowmusic + 10272
        DC32     cover_h_
        DC32     phone
        DC32     `?<Constant "MediaPlayer_Audio">` + 372
        DC32     `?<Constant "MediaPlayer_Audio">` + 436
        DC32     successed_config_name
        DC32     successed_config_path
        DC32     ProgressBar_Show
        DC32     ProgressBar_Show_h
        DC32     ProgressBar_highlight
        DC32     pbrect
        DC32     ProgressBar_oColor
        DC32     ProgressBar_cColor
        DC32     ProgressBar_bColor
        DC32     ProgressBar_highlight_h
        DC32     pbrect_h
        DC32     ProgressBar_oColor_h
        DC32     ProgressBar_cColor_h
        DC32     ProgressBar_bColor_h
        DC32     ??isVolCtrl
        DC32     VolumeBar_Show
        DC32     VolumeBar_highlight
        DC32     volrect
        DC32     VolumeBar_oColor
        DC32     VolumeBar_cColor
        DC32     VolumeBar_bColor
        DC32     aricn_show_h
        DC32     main_icons
        DC32     aricn_show
        DC32     aricn_rect
        DC32     aricn_rect_h
        DC32     alicn_show
        DC32     alicn_show_h
        DC32     alicn_rect
        DC32     alicn_rect_h
        DC32     ticn_show
        DC32     ticn_show_h
        DC32     ticn_rect
        DC32     ticn_rect_h
        DC32     eq_preset_show
        DC32     eq_preset_show_h
        DC32     presets
        DC32     eq_preset_rect
        DC32     eq_preset_rect_h
        DC32     pls_show
        DC32     pls_show_h
        DC32     media_images + 2
        DC32     playicn
        DC32     media_images
        DC32     pauseicn
        DC32     use_pauseicn
        DC32     stopicn
        DC32     pls_rect
        DC32     pls_rect_h
        DC32     ctime_show
        DC32     ctime_show_h
        DC32     ctime_mask
        DC32     ctime_mask_h
        DC32     ctime_rc_h
        DC32     ctime_rc
        DC32     ctime_hl
        DC32     ctime_scolor
        DC32     ctime_color
        DC32     ctime_ct
        DC32     ctime_font
        DC32     ctime_hl_h
        DC32     ctime_scolor_h
        DC32     ctime_color_h
        DC32     ctime_ct_h
        DC32     ctime_font_h
        DC32     ftime_show
        DC32     ftime_show_h
        DC32     ftime_rc_h
        DC32     ftime_rc
        DC32     ftime_mask
        DC32     ftime_mask_h
        DC32     ftime_hl
        DC32     ftime_scolor
        DC32     ftime_color
        DC32     ftime_ct
        DC32     ftime_font
        DC32     ftime_hl_h
        DC32     ftime_scolor_h
        DC32     ftime_color_h
        DC32     ftime_ct_h
        DC32     ftime_font_h
        DC32     ltime_show
        DC32     ltime_show_h
        DC32     ltime_rc_h
        DC32     ltime_rc
        DC32     ltime_mask
        DC32     ltime_mask_h
        DC32     ltime_hl
        DC32     ltime_scolor
        DC32     ltime_color
        DC32     ltime_ct
        DC32     ltime_font
        ARM
??walkman_Redraw_81:
        LDR      R0,??walkman_Redraw_83  ;; ltime_hl_h
        LDRH     LR,[R11, #+6]
        LDR      R1,[R0, #+0]
        LDR      R0,??walkman_Redraw_83+0x4  ;; ltime_scolor_h
        LDRH     R4,[R11, #+4]
        LDR      R3,[R0, #+0]
        LDR      R0,??walkman_Redraw_83+0x8  ;; ltime_color_h
        LDR      R12,[R0, #+0]
        LDR      R0,??walkman_Redraw_83+0xC  ;; ltime_ct_h
        LDR      R2,[R0, #+0]
        LDR      R0,??walkman_Redraw_83+0x10  ;; ltime_font_h
??walkman_Redraw_82:
        LDR      R0,[R0, #+0]
        PUSH     {R1}
        CFI CFA R13+184
        MOV      R1,#+1
        PUSH     {R1}
        CFI CFA R13+188
        PUSH     {R3}
        CFI CFA R13+192
        PUSH     {R12}
        CFI CFA R13+196
        PUSH     {LR}
        CFI CFA R13+200
        LDRH     R1,[SP, #+22]
        PUSH     {R1}
        CFI CFA R13+204
        PUSH     {R4}
        CFI CFA R13+208
        LDRH     R3,[SP, #+28]
        ADD      R1,SP,#+60
        BL       ??DrawLine
        ADD      SP,SP,#+28
        CFI CFA R13+180
// 1096   }
// 1097   //----------------------------------------------------------------------------
// 1098   //Title
// 1099   if (orient ? title_show : title_show_h)
??walkman_Redraw_80:
        CMP      R9,#+0
        LDRNE    R0,??walkman_Redraw_83+0x14  ;; title_show
        LDREQ    R0,??walkman_Redraw_83+0x18  ;; title_show_h
        LDR      R0,[R0, #+0]
        CMP      R0,#+0
        BEQ      ??walkman_Redraw_84
// 1100   {
// 1101     rc.x1 = orient ? title_rc.x1 : title_rc_h.x1;
        LDR      R11,??walkman_Redraw_83+0x1C  ;; title_rc_h
        LDR      R4,??walkman_Redraw_83+0x20  ;; title_rc
        CMP      R9,#+0
        LDRHNE   R0,[R4, #+0]
// 1102     rc.x2 = orient ? title_rc.x2 : title_rc_h.x2;
// 1103     GC_ValidateRect(GCanvas,&rc);
        MOV      R1,SP
        LDRHEQ   R0,[R11, #+0]
        STRH     R0,[SP, #+0]
        LDRHNE   R0,[R4, #+2]
        LDRHEQ   R0,[R11, #+2]
        STRH     R0,[SP, #+2]
        MOV      R0,R6
        SWI      +490
// 1104     DrawLine2(orient ? title_font : title_font_h, 
// 1105               mm_info->title_str, 
// 1106               orient ? title_ct : title_ct_h, 
// 1107               rc.x1, 
// 1108               orient ? title_rc.y1 - StatusSize : title_rc_h.y1, 
// 1109               rc.x2,
// 1110               orient ? title_rc.y2 - StatusSize : title_rc_h.y2,
// 1111               orient ? title_color : title_color_h, 
// 1112               orient ? title_scolor : title_scolor_h,
// 1113               false,
// 1114               orient ? title_hl : title_hl_h);
        CMP      R9,#+0
        BEQ      ??walkman_Redraw_85
        LDR      R0,??walkman_Redraw_83+0x24  ;; title_hl
        LDRH     R2,[R4, #+6]
        LDR      R1,[R0, #+0]
        LDR      R0,??walkman_Redraw_83+0x28  ;; title_scolor
        LDR      R3,[R0, #+0]
        LDR      R0,??walkman_Redraw_83+0x2C  ;; title_color
        LDR      R12,[R0, #+0]
        LDR      R0,[R7, #+48]
        SUB      LR,R2,R0
        LDRH     R2,[R4, #+4]
        SUB      R4,R2,R0
        LDR      R0,??walkman_Redraw_83+0x30  ;; title_ct
        LDR      R2,[R0, #+0]
        LDR      R0,??walkman_Redraw_83+0x34  ;; title_font
        B        ??walkman_Redraw_86
??walkman_Redraw_85:
        LDR      R0,??walkman_Redraw_83+0x38  ;; title_hl_h
        LDRH     LR,[R11, #+6]
        LDR      R1,[R0, #+0]
        LDR      R0,??walkman_Redraw_83+0x3C  ;; title_scolor_h
        LDRH     R4,[R11, #+4]
        LDR      R3,[R0, #+0]
        LDR      R0,??walkman_Redraw_83+0x40  ;; title_color_h
        LDR      R12,[R0, #+0]
        LDR      R0,??walkman_Redraw_83+0x44  ;; title_ct_h
        LDR      R2,[R0, #+0]
        LDR      R0,??walkman_Redraw_83+0x48  ;; title_font_h
??walkman_Redraw_86:
        LDR      R0,[R0, #+0]
        PUSH     {R1}
        CFI CFA R13+184
        MOV      R1,#+0
        PUSH     {R1}
        CFI CFA R13+188
        PUSH     {R3}
        CFI CFA R13+192
        PUSH     {R12}
        CFI CFA R13+196
        PUSH     {LR}
        CFI CFA R13+200
        LDRH     R1,[SP, #+22]
        PUSH     {R1}
        CFI CFA R13+204
        PUSH     {R4}
        CFI CFA R13+208
        LDRB     R1,[R10, #+119]
        LDRH     R3,[SP, #+28]
        LDRB     R4,[R10, #+118]
        ORR      R1,R4,R1, LSL #+8
        LDRB     R4,[R10, #+117]
        ORR      R1,R4,R1, LSL #+8
        LDRB     R4,[R10, #+116]
        ORR      R1,R4,R1, LSL #+8
        BL       ??DrawLine2
        ADD      SP,SP,#+28
        CFI CFA R13+180
// 1115   }
// 1116   //----------------------------------------------------------------------------
// 1117   //Album
// 1118   if (restr_CoverAlbum && nowmusic.meta.ImageID==NOIMAGE)
??walkman_Redraw_84:
        LDR      R0,??walkman_Redraw_83+0x4C  ;; restr_CoverAlbum
        LDR      R0,[R0, #+0]
        CMP      R0,#+0
        BEQ      ??walkman_Redraw_87
        LDR      R0,[SP, #+12]
        LDRH     R0,[R0, #+0]
        CMP      R0,R8
        BEQ      ??walkman_Redraw_88
// 1119     goto L_SkipAlbum;
// 1120   if (orient ? album_show : album_show_h)
??walkman_Redraw_87:
        CMP      R9,#+0
        LDRNE    R0,??walkman_Redraw_83+0x50  ;; album_show
        LDREQ    R0,??walkman_Redraw_83+0x54  ;; album_show_h
        LDR      R0,[R0, #+0]
        CMP      R0,#+0
        BEQ      ??walkman_Redraw_88
// 1121   {
// 1122     rc.x1 = orient ? album_rc.x1 : album_rc_h.x1;
        LDR      R11,??walkman_Redraw_83+0x58  ;; album_rc_h
        LDR      R4,??walkman_Redraw_83+0x5C  ;; album_rc
        CMP      R9,#+0
        LDRHNE   R0,[R4, #+0]
// 1123     rc.x2 = orient ? album_rc.x2 : album_rc_h.x2;
// 1124     GC_ValidateRect(GCanvas,&rc);
        MOV      R1,SP
        LDRHEQ   R0,[R11, #+0]
        STRH     R0,[SP, #+0]
        LDRHNE   R0,[R4, #+2]
        LDRHEQ   R0,[R11, #+2]
        STRH     R0,[SP, #+2]
        MOV      R0,R6
        SWI      +490
// 1125     DrawLine2(orient ? album_font : album_font_h, 
// 1126               mm_info->album_str, 
// 1127               orient ? album_ct : album_ct_h, 
// 1128               rc.x1, 
// 1129               orient ? album_rc.y1 - StatusSize : album_rc_h.y1, 
// 1130               rc.x2,
// 1131               orient ? album_rc.y2 - StatusSize : album_rc_h.y2,
// 1132               orient ? album_color : album_color_h, 
// 1133               orient ? album_scolor : album_scolor_h,
// 1134               false,
// 1135               orient ? album_hl : album_hl_h);
        CMP      R9,#+0
        BEQ      ??walkman_Redraw_89
        LDR      R0,??walkman_Redraw_83+0x60  ;; album_hl
        LDRH     R2,[R4, #+6]
        LDR      R1,[R0, #+0]
        LDR      R0,??walkman_Redraw_83+0x64  ;; album_scolor
        LDR      R3,[R0, #+0]
        LDR      R0,??walkman_Redraw_83+0x68  ;; album_color
        LDR      R12,[R0, #+0]
        LDR      R0,[R7, #+48]
        SUB      LR,R2,R0
        LDRH     R2,[R4, #+4]
        SUB      R4,R2,R0
        LDR      R0,??walkman_Redraw_90  ;; album_ct
        LDR      R2,[R0, #+0]
        LDR      R0,??walkman_Redraw_90+0x4  ;; album_font
        B        ??walkman_Redraw_91
??walkman_Redraw_89:
        LDR      R0,??walkman_Redraw_90+0x8  ;; album_hl_h
        LDRH     LR,[R11, #+6]
        LDR      R1,[R0, #+0]
        LDR      R0,??walkman_Redraw_90+0xC  ;; album_scolor_h
        LDRH     R4,[R11, #+4]
        LDR      R3,[R0, #+0]
        LDR      R0,??walkman_Redraw_90+0x10  ;; album_color_h
        LDR      R12,[R0, #+0]
        LDR      R0,??walkman_Redraw_90+0x14  ;; album_ct_h
        LDR      R2,[R0, #+0]
        LDR      R0,??walkman_Redraw_90+0x18  ;; album_font_h
??walkman_Redraw_91:
        LDR      R0,[R0, #+0]
        PUSH     {R1}
        CFI CFA R13+184
        MOV      R1,#+0
        PUSH     {R1}
        CFI CFA R13+188
        PUSH     {R3}
        CFI CFA R13+192
        PUSH     {R12}
        CFI CFA R13+196
        PUSH     {LR}
        CFI CFA R13+200
        LDRH     R1,[SP, #+22]
        PUSH     {R1}
        CFI CFA R13+204
        PUSH     {R4}
        CFI CFA R13+208
        LDRB     R1,[R10, #+123]
        LDRH     R3,[SP, #+28]
        LDRB     R4,[R10, #+122]
        ORR      R1,R4,R1, LSL #+8
        LDRB     R4,[R10, #+121]
        ORR      R1,R4,R1, LSL #+8
        LDRB     R4,[R10, #+120]
        ORR      R1,R4,R1, LSL #+8
        BL       ??DrawLine2
        ADD      SP,SP,#+28
        CFI CFA R13+180
// 1136   }
// 1137 L_SkipAlbum:
// 1138   //----------------------------------------------------------------------------
// 1139   //Artist
// 1140   if (orient ? artist_show : artist_show_h)
??walkman_Redraw_88:
        CMP      R9,#+0
        LDRNE    R0,??walkman_Redraw_90+0x1C  ;; artist_show
        LDREQ    R0,??walkman_Redraw_90+0x20  ;; artist_show_h
        LDR      R0,[R0, #+0]
        CMP      R0,#+0
        BEQ      ??walkman_Redraw_92
// 1141   {
// 1142     rc.x1 = orient ? artist_rc.x1 : artist_rc_h.x1;
        LDR      R11,??walkman_Redraw_90+0x24  ;; artist_rc_h
        LDR      R4,??walkman_Redraw_90+0x28  ;; artist_rc
        CMP      R9,#+0
        LDRHNE   R0,[R4, #+0]
// 1143     rc.x2 = orient ? artist_rc.x2 : artist_rc_h.x2;
// 1144     GC_ValidateRect(GCanvas,&rc);
        MOV      R1,SP
        LDRHEQ   R0,[R11, #+0]
        STRH     R0,[SP, #+0]
        LDRHNE   R0,[R4, #+2]
        LDRHEQ   R0,[R11, #+2]
        STRH     R0,[SP, #+2]
        MOV      R0,R6
        SWI      +490
// 1145     DrawLine2(orient ? artist_font : artist_font_h, 
// 1146               mm_info->artist_str, 
// 1147               orient ? artist_ct : artist_ct_h, 
// 1148               rc.x1, 
// 1149               orient ? artist_rc.y1 - StatusSize : artist_rc_h.y1, 
// 1150               rc.x2,
// 1151               orient ? artist_rc.y2 - StatusSize : artist_rc_h.y2,
// 1152               orient ? artist_color : artist_color_h, 
// 1153               orient ? artist_scolor : artist_scolor_h,
// 1154               false,
// 1155               orient ? artist_hl : artist_hl_h);
        CMP      R9,#+0
        BEQ      ??walkman_Redraw_93
        LDR      R0,??walkman_Redraw_90+0x2C  ;; artist_hl
        LDRH     R2,[R4, #+6]
        LDR      R1,[R0, #+0]
        LDR      R0,??walkman_Redraw_90+0x30  ;; artist_scolor
        LDR      R3,[R0, #+0]
        LDR      R0,??walkman_Redraw_90+0x34  ;; artist_color
        LDR      R12,[R0, #+0]
        LDR      R0,[R7, #+48]
        SUB      LR,R2,R0
        LDRH     R2,[R4, #+4]
        SUB      R4,R2,R0
        LDR      R0,??walkman_Redraw_90+0x38  ;; artist_ct
        LDR      R2,[R0, #+0]
        LDR      R0,??walkman_Redraw_90+0x3C  ;; artist_font
        B        ??walkman_Redraw_94
??walkman_Redraw_93:
        LDR      R0,??walkman_Redraw_90+0x40  ;; artist_hl_h
        LDRH     LR,[R11, #+6]
        LDR      R1,[R0, #+0]
        LDR      R0,??walkman_Redraw_90+0x44  ;; artist_scolor_h
        LDRH     R4,[R11, #+4]
        LDR      R3,[R0, #+0]
        LDR      R0,??walkman_Redraw_90+0x48  ;; artist_color_h
        LDR      R12,[R0, #+0]
        LDR      R0,??walkman_Redraw_90+0x4C  ;; artist_ct_h
        LDR      R2,[R0, #+0]
        LDR      R0,??walkman_Redraw_90+0x50  ;; artist_font_h
??walkman_Redraw_94:
        LDR      R0,[R0, #+0]
        PUSH     {R1}
        CFI CFA R13+184
        MOV      R1,#+0
        PUSH     {R1}
        CFI CFA R13+188
        PUSH     {R3}
        CFI CFA R13+192
        PUSH     {R12}
        CFI CFA R13+196
        PUSH     {LR}
        CFI CFA R13+200
        LDRH     R1,[SP, #+22]
        PUSH     {R1}
        CFI CFA R13+204
        PUSH     {R4}
        CFI CFA R13+208
        LDRB     R1,[R10, #+115]
        LDRH     R3,[SP, #+28]
        LDRB     R4,[R10, #+114]
        ORR      R1,R4,R1, LSL #+8
        LDRB     R4,[R10, #+113]
        ORR      R1,R4,R1, LSL #+8
        LDRB     R4,[R10, #+112]
        ORR      R1,R4,R1, LSL #+8
        BL       ??DrawLine2
        ADD      SP,SP,#+28
        CFI CFA R13+180
// 1156   }
// 1157   //----------------------------------------------------------------------------
// 1158   //Genre
// 1159   if (orient ? genre_show : genre_show_h)
??walkman_Redraw_92:
        CMP      R9,#+0
        LDRNE    R0,??walkman_Redraw_90+0x54  ;; genre_show
        LDREQ    R0,??walkman_Redraw_90+0x58  ;; genre_show_h
        LDR      R0,[R0, #+0]
        CMP      R0,#+0
        BEQ      ??walkman_Redraw_95
// 1160   {
// 1161     rc.x1 = orient ? genre_rc.x1 : genre_rc_h.x1;
        LDR      R10,??walkman_Redraw_90+0x5C  ;; genre_rc_h
        LDR      R4,??walkman_Redraw_90+0x60  ;; genre_rc
        CMP      R9,#+0
        LDRHNE   R0,[R4, #+0]
// 1162     rc.x2 = orient ? genre_rc.x2 : genre_rc_h.x2;
// 1163     GC_ValidateRect(GCanvas,&rc);
        MOV      R1,SP
        LDRHEQ   R0,[R10, #+0]
        STRH     R0,[SP, #+0]
        LDRHNE   R0,[R4, #+2]
        LDRHEQ   R0,[R10, #+2]
        STRH     R0,[SP, #+2]
        MOV      R0,R6
        SWI      +490
// 1164     DrawLine(orient ? genre_font : genre_font_h, 
// 1165              nowmusic.meta.Genre, 
// 1166              orient ? genre_ct : genre_ct_h, 
// 1167              rc.x1, 
// 1168              orient ? genre_rc.y1 - StatusSize : genre_rc_h.y1, 
// 1169              rc.x2,
// 1170              orient ? genre_rc.y2 - StatusSize : genre_rc_h.y2,
// 1171              orient ? genre_color : genre_color_h, 
// 1172              orient ? genre_scolor : genre_scolor_h,
// 1173              true,
// 1174              orient ? genre_hl : genre_hl_h);
        CMP      R9,#+0
        BEQ      ??walkman_Redraw_96
        LDR      R0,??walkman_Redraw_90+0x64  ;; genre_hl
        LDRH     R2,[R4, #+6]
        LDR      R1,[R0, #+0]
        LDR      R0,??walkman_Redraw_90+0x68  ;; genre_scolor
        LDR      R3,[R0, #+0]
        LDR      R0,??walkman_Redraw_90+0x6C  ;; genre_color
        LDR      R11,[R0, #+0]
        LDR      R0,[R7, #+48]
        SUB      R12,R2,R0
        LDRH     R2,[R4, #+4]
        SUB      R4,R2,R0
        LDR      R0,??walkman_Redraw_90+0x70  ;; genre_ct
        LDR      R2,[R0, #+0]
        LDR      R0,??walkman_Redraw_90+0x74  ;; genre_font
        B        ??walkman_Redraw_97
??walkman_Redraw_96:
        LDR      R0,??walkman_Redraw_90+0x78  ;; genre_hl_h
        LDRH     R12,[R10, #+6]
        LDR      R1,[R0, #+0]
        LDR      R0,??walkman_Redraw_90+0x7C  ;; genre_scolor_h
        LDRH     R4,[R10, #+4]
        LDR      R3,[R0, #+0]
        LDR      R0,??walkman_Redraw_90+0x80  ;; genre_color_h
        LDR      R11,[R0, #+0]
        LDR      R0,??walkman_Redraw_90+0x84  ;; genre_ct_h
        LDR      R2,[R0, #+0]
        LDR      R0,??walkman_Redraw_90+0x88  ;; genre_font_h
??walkman_Redraw_97:
        LDR      R0,[R0, #+0]
        PUSH     {R1}
        CFI CFA R13+184
        MOV      R1,#+1
        PUSH     {R1}
        CFI CFA R13+188
        PUSH     {R3}
        CFI CFA R13+192
        PUSH     {R11}
        CFI CFA R13+196
        PUSH     {R12}
        CFI CFA R13+200
        LDRH     R1,[SP, #+22]
        PUSH     {R1}
        CFI CFA R13+204
        LDR      R1,??walkman_Redraw_90+0x8C  ;; nowmusic + 8220
        PUSH     {R4}
        CFI CFA R13+208
        LDRH     R3,[SP, #+28]
        BL       ??DrawLine
        ADD      SP,SP,#+28
        CFI CFA R13+180
// 1175   }
// 1176   //----------------------------------------------------------------------------
// 1177   //Year
// 1178   if (orient ? year_show : year_show_h)
??walkman_Redraw_95:
        CMP      R9,#+0
        LDRNE    R0,??walkman_Redraw_90+0x90  ;; year_show
        LDREQ    R0,??walkman_Redraw_90+0x94  ;; year_show_h
        LDR      R0,[R0, #+0]
        CMP      R0,#+0
        BEQ      ??walkman_Redraw_98
// 1179   {
// 1180     rc.x1 = orient ? year_rc.x1 : year_rc_h.x1;
        LDR      R10,??walkman_Redraw_90+0x98  ;; year_rc_h
        LDR      R4,??walkman_Redraw_90+0x9C  ;; year_rc
        CMP      R9,#+0
        LDRHNE   R0,[R4, #+0]
// 1181     rc.x2 = orient ? year_rc.x2 : year_rc_h.x2;
// 1182     GC_ValidateRect(GCanvas,&rc);
        MOV      R1,SP
        LDRHEQ   R0,[R10, #+0]
        STRH     R0,[SP, #+0]
        LDRHNE   R0,[R4, #+2]
        LDRHEQ   R0,[R10, #+2]
        STRH     R0,[SP, #+2]
        MOV      R0,R6
        SWI      +490
// 1183     DrawLine(orient ? year_font : year_font_h, 
// 1184              nowmusic.meta.Year, 
// 1185              orient ? year_ct : year_ct_h, 
// 1186              rc.x1, 
// 1187              orient ? year_rc.y1 - StatusSize : year_rc_h.y1, 
// 1188              rc.x2,
// 1189              orient ? year_rc.y2 - StatusSize : year_rc_h.y2,
// 1190              orient ? year_color : year_color_h, 
// 1191              orient ? year_scolor : year_scolor_h,
// 1192              true,
// 1193              orient ? year_hl : year_hl_h);
        CMP      R9,#+0
        BEQ      ??walkman_Redraw_99
        LDR      R0,??walkman_Redraw_90+0xA0  ;; year_hl
        LDRH     R2,[R4, #+6]
        LDR      R1,[R0, #+0]
        LDR      R0,??walkman_Redraw_90+0xA4  ;; year_scolor
        LDR      R3,[R0, #+0]
        LDR      R0,??walkman_Redraw_90+0xA8  ;; year_color
        LDR      R11,[R0, #+0]
        LDR      R0,[R7, #+48]
        SUB      R12,R2,R0
        LDRH     R2,[R4, #+4]
        SUB      R4,R2,R0
        LDR      R0,??walkman_Redraw_90+0xAC  ;; year_ct
        LDR      R2,[R0, #+0]
        LDR      R0,??walkman_Redraw_90+0xB0  ;; year_font
        B        ??walkman_Redraw_100
??walkman_Redraw_99:
        LDR      R0,??walkman_Redraw_90+0xB4  ;; year_hl_h
        LDRH     R12,[R10, #+6]
        LDR      R1,[R0, #+0]
        LDR      R0,??walkman_Redraw_90+0xB8  ;; year_scolor_h
        LDRH     R4,[R10, #+4]
        LDR      R3,[R0, #+0]
        LDR      R0,??walkman_Redraw_90+0xBC  ;; year_color_h
        LDR      R11,[R0, #+0]
        LDR      R0,??walkman_Redraw_90+0xC0  ;; year_ct_h
        LDR      R2,[R0, #+0]
        LDR      R0,??walkman_Redraw_90+0xC4  ;; year_font_h
??walkman_Redraw_100:
        LDR      R0,[R0, #+0]
        PUSH     {R1}
        CFI CFA R13+184
        MOV      R1,#+1
        PUSH     {R1}
        CFI CFA R13+188
        PUSH     {R3}
        CFI CFA R13+192
        PUSH     {R11}
        CFI CFA R13+196
        PUSH     {R12}
        CFI CFA R13+200
        LDRH     R1,[SP, #+22]
        PUSH     {R1}
        CFI CFA R13+204
        LDR      R1,??walkman_Redraw_90+0xC8  ;; nowmusic + 6172
        PUSH     {R4}
        CFI CFA R13+208
        LDRH     R3,[SP, #+28]
        BL       ??DrawLine
        ADD      SP,SP,#+28
        CFI CFA R13+180
// 1194   }
// 1195   //----------------------------------------------------------------------------
// 1196   //Track number
// 1197   if (orient ? trackn_show : trackn_show_h)
??walkman_Redraw_98:
        CMP      R9,#+0
        LDRNE    R0,??walkman_Redraw_90+0xCC  ;; trackn_show
        LDREQ    R0,??walkman_Redraw_90+0xD0  ;; trackn_show_h
        LDR      R0,[R0, #+0]
        CMP      R0,#+0
        BEQ      ??walkman_Redraw_101
// 1198   {
// 1199     BOOK_PLAYER_2020 *bkp=(BOOK_PLAYER_2020*)audio;
// 1200     snwprintf(buf, 49, orient ? trackn_mask : trackn_mask_h, bkp->pos2+1);
        LDRH     R0,[R5, #+122]
// 1201     rc.x1 = orient ? trackn_rc.x1 : trackn_rc_h.x1;
        LDR      R10,??walkman_Redraw_90+0xD4  ;; trackn_rc_h
        LDR      R4,??walkman_Redraw_90+0xD8  ;; trackn_rc
        CMP      R9,#+0
        LDRNE    R2,??walkman_Redraw_90+0xDC  ;; trackn_mask
        ADD      R3,R0,#+1
        LDREQ    R2,??walkman_Redraw_90+0xE0  ;; trackn_mask_h
        MOV      R1,#+49
        ADD      R0,SP,#+32
        SWI      +277
        CMP      R9,#+0
        LDRHNE   R0,[R4, #+0]
// 1202     rc.x2 = orient ? trackn_rc.x2 : trackn_rc_h.x2;
// 1203     GC_ValidateRect(GCanvas,&rc);
        MOV      R1,SP
        LDRHEQ   R0,[R10, #+0]
        STRH     R0,[SP, #+0]
        LDRHNE   R0,[R4, #+2]
        LDRHEQ   R0,[R10, #+2]
        STRH     R0,[SP, #+2]
        MOV      R0,R6
        SWI      +490
// 1204     DrawLine(orient ? trackn_font : trackn_font_h, 
// 1205              buf, 
// 1206              orient ? trackn_ct : trackn_ct_h, 
// 1207              rc.x1, 
// 1208              orient ? trackn_rc.y1 - StatusSize : trackn_rc_h.y1, 
// 1209              rc.x2,
// 1210              orient ? trackn_rc.y2 - StatusSize : trackn_rc_h.y2,
// 1211              orient ? trackn_color : trackn_color_h, 
// 1212              orient ? trackn_scolor : trackn_scolor_h,
// 1213              true,
// 1214              orient ? trackn_hl : trackn_hl_h);
        CMP      R9,#+0
        BEQ      ??walkman_Redraw_102
        LDR      R0,??walkman_Redraw_90+0xE4  ;; trackn_hl
        LDRH     R2,[R4, #+6]
        LDR      R1,[R0, #+0]
        LDR      R0,??walkman_Redraw_90+0xE8  ;; trackn_scolor
        LDR      R3,[R0, #+0]
        LDR      R0,??walkman_Redraw_90+0xEC  ;; trackn_color
        LDR      R11,[R0, #+0]
        LDR      R0,[R7, #+48]
        SUB      R12,R2,R0
        LDRH     R2,[R4, #+4]
        SUB      R4,R2,R0
        LDR      R0,??walkman_Redraw_90+0xF0  ;; trackn_ct
        LDR      R2,[R0, #+0]
        LDR      R0,??walkman_Redraw_90+0xF4  ;; trackn_font
        B        ??walkman_Redraw_103
??walkman_Redraw_102:
        LDR      R0,??walkman_Redraw_90+0xF8  ;; trackn_hl_h
        LDRH     R12,[R10, #+6]
        LDR      R1,[R0, #+0]
        LDR      R0,??walkman_Redraw_90+0xFC  ;; trackn_scolor_h
        LDRH     R4,[R10, #+4]
        LDR      R3,[R0, #+0]
        LDR      R0,??walkman_Redraw_90+0x100  ;; trackn_color_h
        LDR      R11,[R0, #+0]
        LDR      R0,??walkman_Redraw_90+0x104  ;; trackn_ct_h
        LDR      R2,[R0, #+0]
        LDR      R0,??walkman_Redraw_90+0x108  ;; trackn_font_h
??walkman_Redraw_103:
        LDR      R0,[R0, #+0]
        PUSH     {R1}
        CFI CFA R13+184
        MOV      R1,#+1
        PUSH     {R1}
        CFI CFA R13+188
        PUSH     {R3}
        CFI CFA R13+192
        PUSH     {R11}
        CFI CFA R13+196
        PUSH     {R12}
        CFI CFA R13+200
        LDRH     R1,[SP, #+22]
        PUSH     {R1}
        CFI CFA R13+204
        PUSH     {R4}
        CFI CFA R13+208
        LDRH     R3,[SP, #+28]
        ADD      R1,SP,#+60
        BL       ??DrawLine
        ADD      SP,SP,#+28
        CFI CFA R13+180
// 1215   }
// 1216   //----------------------------------------------------------------------------
// 1217   //Tracks count
// 1218   if (orient ? tracks_show : tracks_show_h)
??walkman_Redraw_101:
        CMP      R9,#+0
        LDRNE    R0,??walkman_Redraw_90+0x10C  ;; tracks_show
        LDREQ    R0,??walkman_Redraw_90+0x110  ;; tracks_show_h
        LDR      R0,[R0, #+0]
        CMP      R0,#+0
        BEQ      ??walkman_Redraw_104
// 1219   {
// 1220     BOOK_PLAYER_2020 *bkp=(BOOK_PLAYER_2020*)audio;
// 1221     snwprintf(buf,49, orient ? tracks_mask : tracks_mask_h, bkp->tracks_count);
// 1222     rc.x1 = orient ? tracks_rc.x1 : tracks_rc_h.x1;
        LDR      R10,??walkman_Redraw_90+0x114  ;; tracks_rc_h
        LDR      R4,??walkman_Redraw_90+0x118  ;; tracks_rc
        LDRH     R3,[R5, #+148]
        CMP      R9,#+0
        LDRNE    R2,??walkman_Redraw_90+0x11C  ;; tracks_mask
        MOV      R1,#+49
        LDREQ    R2,??walkman_Redraw_90+0x120  ;; tracks_mask_h
        ADD      R0,SP,#+32
        SWI      +277
        CMP      R9,#+0
        LDRHNE   R0,[R4, #+0]
// 1223     rc.x2 = orient ? tracks_rc.x2 : tracks_rc_h.x2;
// 1224     GC_ValidateRect(GCanvas,&rc);
        MOV      R1,SP
        LDRHEQ   R0,[R10, #+0]
        STRH     R0,[SP, #+0]
        LDRHNE   R0,[R4, #+2]
        LDRHEQ   R0,[R10, #+2]
        STRH     R0,[SP, #+2]
        MOV      R0,R6
        SWI      +490
// 1225     DrawLine(orient ? tracks_font : tracks_font_h, 
// 1226              buf, 
// 1227              orient ? tracks_ct : tracks_ct_h, 
// 1228              rc.x1, 
// 1229              orient ? tracks_rc.y1 - StatusSize : tracks_rc_h.y1, 
// 1230              rc.x2,
// 1231              orient ? tracks_rc.y2 - StatusSize : tracks_rc_h.y2,
// 1232              orient ? tracks_color : tracks_color_h, 
// 1233              orient ? tracks_scolor : tracks_scolor_h,
// 1234              true,
// 1235              orient ? tracks_hl : tracks_hl_h);
        CMP      R9,#+0
        BEQ      ??walkman_Redraw_105
        LDR      R0,??walkman_Redraw_90+0x124  ;; tracks_hl
        LDRH     R2,[R4, #+6]
        LDR      R1,[R0, #+0]
        LDR      R0,??walkman_Redraw_90+0x128  ;; tracks_scolor
        LDR      R3,[R0, #+0]
        LDR      R0,??walkman_Redraw_90+0x12C  ;; tracks_color
        LDR      R11,[R0, #+0]
        LDR      R0,[R7, #+48]
        SUB      R12,R2,R0
        LDRH     R2,[R4, #+4]
        SUB      R4,R2,R0
        LDR      R0,??walkman_Redraw_90+0x130  ;; tracks_ct
        LDR      R2,[R0, #+0]
        LDR      R0,??walkman_Redraw_90+0x134  ;; tracks_font
        B        ??walkman_Redraw_106
??walkman_Redraw_105:
        LDR      R0,??walkman_Redraw_90+0x138  ;; tracks_hl_h
        LDRH     R12,[R10, #+6]
        LDR      R1,[R0, #+0]
        LDR      R0,??walkman_Redraw_90+0x13C  ;; tracks_scolor_h
        LDRH     R4,[R10, #+4]
        LDR      R3,[R0, #+0]
        LDR      R0,??walkman_Redraw_90+0x140  ;; tracks_color_h
        LDR      R11,[R0, #+0]
        LDR      R0,??walkman_Redraw_90+0x144  ;; tracks_ct_h
        LDR      R2,[R0, #+0]
        LDR      R0,??walkman_Redraw_90+0x148  ;; tracks_font_h
??walkman_Redraw_106:
        LDR      R0,[R0, #+0]
        PUSH     {R1}
        CFI CFA R13+184
        MOV      R1,#+1
        PUSH     {R1}
        CFI CFA R13+188
        PUSH     {R3}
        CFI CFA R13+192
        PUSH     {R11}
        CFI CFA R13+196
        PUSH     {R12}
        CFI CFA R13+200
        LDRH     R1,[SP, #+22]
        PUSH     {R1}
        CFI CFA R13+204
        PUSH     {R4}
        CFI CFA R13+208
        LDRH     R3,[SP, #+28]
        ADD      R1,SP,#+60
        BL       ??DrawLine
        ADD      SP,SP,#+28
        CFI CFA R13+180
// 1236   }
// 1237   int format=nowmusic.format;
??walkman_Redraw_104:
        LDR      R0,[SP, #+12]
        LDR      R0,[R0, #+4]
// 1238   if (format==FORMAT_MP3 || format==FORMAT_OTHER)
        CMP      R0,#+1
        CMPNE    R0,#+4
        BNE      ??walkman_Redraw_107
// 1239   {
// 1240     //----------------------------------------------------------------------------
// 1241     //Bitrate
// 1242     if (orient ? bitrate_show : bitrate_show_h)
        CMP      R9,#+0
        LDRNE    R0,??walkman_Redraw_90+0x14C  ;; bitrate_show
        LDREQ    R0,??walkman_Redraw_90+0x150  ;; bitrate_show_h
        LDR      R0,[R0, #+0]
        CMP      R0,#+0
        BEQ      ??walkman_Redraw_108
// 1243     {
// 1244       wchar_t const *vbr=0;
// 1245       if (nowmusic.hdr.VBR && use_vbr)
        LDR      R0,??walkman_Redraw_90+0x154  ;; nowmusic + 4
        LDR      R11,??walkman_Redraw_90+0x158  ;; bitrate_rc_h
        LDRB     R0,[R0, #+0]
        LDR      R10,??walkman_Redraw_90+0x15C  ;; bitrate_rc
        MOV      R4,#+0
        CMP      R0,#+0
        LDRNE    R0,??walkman_Redraw_90+0x160  ;; use_vbr
        LDRNE    R0,[R0, #+0]
        CMPNE    R0,#+0
        BEQ      ??walkman_Redraw_109
// 1246       {
// 1247         if (orient)
        CMP      R9,#+0
// 1248           vbr=&bitrate_vbr[0];
        LDRNE    R4,??walkman_Redraw_90+0x164  ;; bitrate_vbr
        BNE      ??walkman_Redraw_110
// 1249         else
// 1250           vbr=&bitrate_vbr_h[0];
        LDR      R4,??walkman_Redraw_90+0x168  ;; bitrate_vbr_h
??walkman_Redraw_111:
        LDRH     R0,[R11, #+0]
??walkman_Redraw_112:
        STRH     R0,[SP, #+0]
// 1251       }
// 1252       else
// 1253         snwprintf(buf,49, orient ? bitrate_mask : bitrate_mask_h, nowmusic.hdr.bitrate);
// 1254       rc.x1 = orient ? bitrate_rc.x1 : bitrate_rc_h.x1;
// 1255       rc.x2 = orient ? bitrate_rc.x2 : bitrate_rc_h.x2;
        LDRHEQ   R0,[R11, #+2]
        LDRHNE   R0,[R10, #+2]
        B        ??walkman_Redraw_113
??walkman_Redraw_109:
        LDR      R0,??walkman_Redraw_90+0x16C  ;; nowmusic
        CMP      R9,#+0
        LDRNE    R2,??walkman_Redraw_90+0x170  ;; bitrate_mask
        LDR      R3,[R0, #+0]
        LDREQ    R2,??walkman_Redraw_90+0x174  ;; bitrate_mask_h
        MOV      R1,#+49
        ADD      R0,SP,#+32
        SWI      +277
        CMP      R9,#+0
        BEQ      ??walkman_Redraw_111
??walkman_Redraw_110:
        LDRH     R0,[R10, #+0]
        B        ??walkman_Redraw_112
// 1256       GC_ValidateRect(GCanvas,&rc);
??walkman_Redraw_113:
        MOV      R1,SP
        STRH     R0,[SP, #+2]
        MOV      R0,R6
        SWI      +490
// 1257       DrawLine(orient ? bitrate_font : bitrate_font_h, 
// 1258                vbr ? (wchar_t*)vbr : buf, 
// 1259                orient ? bitrate_ct : bitrate_ct_h, 
// 1260                rc.x1, 
// 1261                orient ? bitrate_rc.y1 - StatusSize : bitrate_rc_h.y1, 
// 1262                rc.x2,
// 1263                orient ? bitrate_rc.y2 - StatusSize : bitrate_rc_h.y2,
// 1264                orient ? bitrate_color : bitrate_color_h, 
// 1265                orient ? bitrate_scolor : bitrate_scolor_h,
// 1266                true,
// 1267                orient ? bitrate_hl : bitrate_hl_h);
        CMP      R9,#+0
        BEQ      ??walkman_Redraw_114
        LDR      R0,??walkman_Redraw_90+0x178  ;; bitrate_hl
        LDRH     R1,[R10, #+6]
        LDR      R2,[R0, #+0]
        LDR      R0,??walkman_Redraw_90+0x17C  ;; bitrate_scolor
        LDR      R3,[R0, #+0]
        LDR      R0,??walkman_Redraw_90+0x180  ;; bitrate_color
        LDR      R12,[R0, #+0]
        LDR      R0,[R7, #+48]
        SUB      LR,R1,R0
        LDRH     R1,[R10, #+4]
        SUB      R11,R1,R0
        LDR      R0,??walkman_Redraw_90+0x184  ;; bitrate_ct
        B        ??walkman_Redraw_115
??walkman_Redraw_114:
        LDR      R0,??walkman_Redraw_90+0x188  ;; bitrate_hl_h
        LDRH     LR,[R11, #+6]
        LDR      R2,[R0, #+0]
        LDR      R0,??walkman_Redraw_90+0x18C  ;; bitrate_scolor_h
        LDRH     R11,[R11, #+4]
        LDR      R3,[R0, #+0]
        LDR      R0,??walkman_Redraw_90+0x190  ;; bitrate_color_h
        LDR      R12,[R0, #+0]
        LDR      R0,??walkman_Redraw_90+0x194  ;; bitrate_ct_h
??walkman_Redraw_115:
        CMP      R4,#+0
        LDR      R10,[R0, #+0]
        MOVNE    R1,R4
        ADDEQ    R1,SP,#+32
        CMP      R9,#+0
        LDRNE    R0,??walkman_Redraw_90+0x198  ;; bitrate_font
        LDREQ    R0,??walkman_Redraw_90+0x19C  ;; bitrate_font_h
        LDR      R0,[R0, #+0]
        PUSH     {R2}
        CFI CFA R13+184
        MOV      R2,#+1
        PUSH     {R2}
        CFI CFA R13+188
        PUSH     {R3}
        CFI CFA R13+192
        PUSH     {R12}
        CFI CFA R13+196
        PUSH     {LR}
        CFI CFA R13+200
        LDRH     R2,[SP, #+22]
        PUSH     {R2}
        CFI CFA R13+204
        PUSH     {R11}
        CFI CFA R13+208
        LDRH     R3,[SP, #+28]
        MOV      R2,R10
        BL       ??DrawLine
        ADD      SP,SP,#+28
        CFI CFA R13+180
// 1268     }
// 1269     //----------------------------------------------------------------------------
// 1270     //Frequency
// 1271     if (orient ? freq_show : freq_show_h)
??walkman_Redraw_108:
        CMP      R9,#+0
        LDRNE    R0,??walkman_Redraw_90+0x1A0  ;; freq_show
        LDREQ    R0,??walkman_Redraw_90+0x1A4  ;; freq_show_h
        LDR      R0,[R0, #+0]
        CMP      R0,#+0
        BEQ      ??walkman_Redraw_116
// 1272     {
// 1273       snwprintf(buf,49, orient ? freq_mask : freq_mask_h,nowmusic.hdr.frequency);
        LDR      R0,??walkman_Redraw_90+0x1A8  ;; nowmusic + 20
// 1274       rc.x1 = orient ? freq_rc.x1 : freq_rc_h.x1;
        LDR      R10,??walkman_Redraw_90+0x1AC  ;; freq_rc_h
        LDR      R4,??walkman_Redraw_90+0x1B0  ;; freq_rc
        LDR      R3,[R0, #+0]
        CMP      R9,#+0
        LDRNE    R2,??walkman_Redraw_90+0x1B4  ;; freq_mask
        MOV      R1,#+49
        LDREQ    R2,??walkman_Redraw_90+0x1B8  ;; freq_mask_h
        ADD      R0,SP,#+32
        SWI      +277
        CMP      R9,#+0
        LDRHNE   R0,[R4, #+0]
// 1275       rc.x2 = orient ? freq_rc.x2 : freq_rc_h.x2;
// 1276       GC_ValidateRect(GCanvas,&rc);
        MOV      R1,SP
        LDRHEQ   R0,[R10, #+0]
        STRH     R0,[SP, #+0]
        LDRHNE   R0,[R4, #+2]
        LDRHEQ   R0,[R10, #+2]
        STRH     R0,[SP, #+2]
        MOV      R0,R6
        SWI      +490
// 1277       DrawLine(orient ? freq_font : freq_font_h, 
// 1278                buf, 
// 1279                orient ? freq_ct : freq_ct_h, 
// 1280                rc.x1, 
// 1281                orient ? freq_rc.y1 - StatusSize : freq_rc_h.y1, 
// 1282                rc.x2,
// 1283                orient ? freq_rc.y2 - StatusSize : freq_rc_h.y2,
// 1284                orient ? freq_color : freq_color_h, 
// 1285                orient ? freq_scolor : freq_scolor_h,
// 1286                true,
// 1287                orient ? freq_hl : freq_hl_h);
        CMP      R9,#+0
        BEQ      ??walkman_Redraw_117
        LDR      R0,??walkman_Redraw_90+0x1BC  ;; freq_hl
        LDRH     R2,[R4, #+6]
        LDR      R1,[R0, #+0]
        LDR      R0,??walkman_Redraw_90+0x1C0  ;; freq_scolor
        LDR      R3,[R0, #+0]
        LDR      R0,??walkman_Redraw_90+0x1C4  ;; freq_color
        LDR      R11,[R0, #+0]
        LDR      R0,[R7, #+48]
        SUB      R12,R2,R0
        LDRH     R2,[R4, #+4]
        SUB      R4,R2,R0
        LDR      R0,??walkman_Redraw_90+0x1C8  ;; freq_ct
        LDR      R2,[R0, #+0]
        LDR      R0,??walkman_Redraw_90+0x1CC  ;; freq_font
        B        ??walkman_Redraw_118
??walkman_Redraw_117:
        LDR      R0,??walkman_Redraw_90+0x1D0  ;; freq_hl_h
        LDRH     R12,[R10, #+6]
        LDR      R1,[R0, #+0]
        LDR      R0,??walkman_Redraw_90+0x1D4  ;; freq_scolor_h
        LDRH     R4,[R10, #+4]
        LDR      R3,[R0, #+0]
        LDR      R0,??walkman_Redraw_90+0x1D8  ;; freq_color_h
        LDR      R11,[R0, #+0]
        LDR      R0,??walkman_Redraw_90+0x1DC  ;; freq_ct_h
        LDR      R2,[R0, #+0]
        LDR      R0,??walkman_Redraw_90+0x1E0  ;; freq_font_h
??walkman_Redraw_118:
        LDR      R0,[R0, #+0]
        PUSH     {R1}
        CFI CFA R13+184
        MOV      R1,#+1
        PUSH     {R1}
        CFI CFA R13+188
        PUSH     {R3}
        CFI CFA R13+192
        PUSH     {R11}
        CFI CFA R13+196
        PUSH     {R12}
        CFI CFA R13+200
        LDRH     R1,[SP, #+22]
        PUSH     {R1}
        CFI CFA R13+204
        PUSH     {R4}
        CFI CFA R13+208
        LDRH     R3,[SP, #+28]
        ADD      R1,SP,#+60
        BL       ??DrawLine
        ADD      SP,SP,#+28
        CFI CFA R13+180
// 1288     }
// 1289     //----------------------------------------------------------------------------
// 1290     //Channels
// 1291     if (orient ? ch_show : ch_show_h)
??walkman_Redraw_116:
        CMP      R9,#+0
        LDRNE    R0,??walkman_Redraw_90+0x1E4  ;; ch_show
        LDREQ    R0,??walkman_Redraw_90+0x1E8  ;; ch_show_h
        LDR      R0,[R0, #+0]
        CMP      R0,#+0
        BEQ      ??walkman_Redraw_107
// 1292     {
// 1293       int mode=nowmusic.hdr.mode;
        LDR      R0,??walkman_Redraw_90+0x1EC  ;; nowmusic + 24
// 1294       wchar_t *ch=0;
// 1295       if (mode<3)
// 1296       {
// 1297         ch=modes[mode];
// 1298       }
// 1299       else
// 1300       {
// 1301         ch=modes[3];
// 1302       }
// 1303       rc.x1 = orient ? ch_rc.x1 : ch_rc_h.x1;
        LDR      R11,??walkman_Redraw_90+0x1F0  ;; ch_rc_h
        LDR      R0,[R0, #+0]
        LDR      R10,??walkman_Redraw_90+0x1F4  ;; ch_rc
        CMP      R0,#+3
        LDRGE    R4,[R7, #+16]
        ADDLT    R0,R7,R0, LSL #+2
        LDRLT    R4,[R0, #+4]
        CMP      R9,#+0
        LDRHNE   R0,[R10, #+0]
// 1304       rc.x2 = orient ? ch_rc.x2 : ch_rc_h.x2;
// 1305       GC_ValidateRect(GCanvas,&rc);
        MOV      R1,SP
        LDRHEQ   R0,[R11, #+0]
        STRH     R0,[SP, #+0]
        LDRHNE   R0,[R10, #+2]
        LDRHEQ   R0,[R11, #+2]
        STRH     R0,[SP, #+2]
        MOV      R0,R6
        SWI      +490
// 1306       DrawLine(orient ? ch_font : ch_font_h, 
// 1307                ch, 
// 1308                orient ? ch_ct : ch_ct_h, 
// 1309                rc.x1, 
// 1310                orient ? ch_rc.y1 - StatusSize : ch_rc_h.y1, 
// 1311                rc.x2,
// 1312                orient ? ch_rc.y2 - StatusSize : ch_rc_h.y2,
// 1313                orient ? ch_color : ch_color_h, 
// 1314                orient ? ch_scolor : ch_scolor_h,
// 1315                true,
// 1316                orient ? ch_hl : ch_hl_h);
        CMP      R9,#+0
        BEQ      ??walkman_Redraw_119
        LDR      R0,??walkman_Redraw_90+0x1F8  ;; ch_hl
        LDRH     R2,[R10, #+6]
        LDR      R1,[R0, #+0]
        LDR      R0,??walkman_Redraw_90+0x1FC  ;; ch_scolor
        LDR      R3,[R0, #+0]
        LDR      R0,??walkman_Redraw_90+0x200  ;; ch_color
        LDR      R12,[R0, #+0]
        LDR      R0,[R7, #+48]
        SUB      LR,R2,R0
        LDRH     R2,[R10, #+4]
        SUB      R10,R2,R0
        LDR      R0,??walkman_Redraw_90+0x204  ;; ch_ct
        LDR      R2,[R0, #+0]
        LDR      R0,??walkman_Redraw_90+0x208  ;; ch_font
        B        ??walkman_Redraw_120
??walkman_Redraw_119:
        LDR      R0,??walkman_Redraw_90+0x20C  ;; ch_hl_h
        LDRH     LR,[R11, #+6]
        LDR      R1,[R0, #+0]
        LDR      R0,??walkman_Redraw_90+0x210  ;; ch_scolor_h
        LDRH     R10,[R11, #+4]
        LDR      R3,[R0, #+0]
        LDR      R0,??walkman_Redraw_90+0x214  ;; ch_color_h
        LDR      R12,[R0, #+0]
        LDR      R0,??walkman_Redraw_90+0x218  ;; ch_ct_h
        LDR      R2,[R0, #+0]
        LDR      R0,??walkman_Redraw_90+0x21C  ;; ch_font_h
??walkman_Redraw_120:
        LDR      R0,[R0, #+0]
        PUSH     {R1}
        CFI CFA R13+184
        MOV      R1,#+1
        PUSH     {R1}
        CFI CFA R13+188
        PUSH     {R3}
        CFI CFA R13+192
        PUSH     {R12}
        CFI CFA R13+196
        PUSH     {LR}
        CFI CFA R13+200
        LDRH     R1,[SP, #+22]
        PUSH     {R1}
        CFI CFA R13+204
        PUSH     {R10}
        CFI CFA R13+208
        LDRH     R3,[SP, #+28]
        MOV      R1,R4
        BL       ??DrawLine
        ADD      SP,SP,#+28
        CFI CFA R13+180
// 1317       
// 1318     }
// 1319   }
// 1320   GC_ValidateRect(GCanvas, &gc_rc);
??walkman_Redraw_107:
        ADD      R1,SP,#+16
        MOV      R0,R6
        SWI      +490
// 1321   //----------------------------------------------------------------------------
// 1322   //Navigation image
// 1323   if (orient ? navigimg_show : navigimg_show_h)
        CMP      R9,#+0
        LDRNE    R0,??walkman_Redraw_90+0x220  ;; navigimg_show
        LDREQ    R0,??walkman_Redraw_90+0x224  ;; navigimg_show_h
        LDR      R0,[R0, #+0]
        CMP      R0,#+0
// 1324   {
// 1325     putchar_(GCanvas, 
// 1326             orient ? navigimg_rect.x1 : navigimg_rect_h.x1, 
// 1327             orient ? navigimg_rect.y1 - StatusSize: navigimg_rect_h.y1,
// 1328             orient ? navigimg_rect.x2 - navigimg_rect.x1 : navigimg_rect_h.x2 - navigimg_rect_h.x1,
// 1329             orient ? navigimg_rect.y2 - navigimg_rect.y1 : navigimg_rect_h.y2 - navigimg_rect_h.y1,
// 1330             navigimg);
        LDRNE    R0,??walkman_Redraw_90+0x228  ;; navigimg
        LDRHNE   R0,[R0, #+0]
        CMPNE    R0,#+0
        CMPNE    R0,R8
        BEQ      ??walkman_Redraw_121
        CMP      R9,#+0
        BEQ      ??walkman_Redraw_122
        LDR      R3,??walkman_Redraw_90+0x22C  ;; navigimg_rect
        LDRH     R2,[R3, #+4]
        LDRH     R1,[R3, #+6]
        LDR      R10,[R7, #+48]
        SUB      R4,R1,R2
        LDRH     R1,[R3, #+0]
        LDRH     R3,[R3, #+2]
        SUB      R2,R2,R10
        B        ??walkman_Redraw_123
??walkman_Redraw_122:
        LDR      R3,??walkman_Redraw_90+0x230  ;; navigimg_rect_h
        LDRH     R2,[R3, #+4]
        LDRH     R1,[R3, #+6]
        SUB      R4,R1,R2
        LDRH     R1,[R3, #+0]
        LDRH     R3,[R3, #+2]
??walkman_Redraw_123:
        SUB      R3,R3,R1
        PUSH     {R0}
        CFI CFA R13+184
        PUSH     {R4}
        CFI CFA R13+188
        MOV      R0,R6
        SWI      +320
        ADD      SP,SP,#+8
        CFI CFA R13+180
// 1331   }
// 1332   
// 1333   //----------------------------------------------------------------------------
// 1334   //Up arrow
// 1335   if (orient ? upimg_show : upimg_show_h)
??walkman_Redraw_121:
        LDR      R4,??walkman_Redraw_90+0x234  ;; images
        CMP      R9,#+0
        LDRNE    R0,??walkman_Redraw_90+0x238  ;; upimg_show
        LDREQ    R0,??walkman_Redraw_90+0x23C  ;; upimg_show_h
        LDR      R0,[R0, #+0]
        CMP      R0,#+0
// 1336   {
// 1337     putchar_(GCanvas, 
// 1338             orient ? upimg_rect.x1 : upimg_rect_h.x1, 
// 1339             orient ? upimg_rect.y1 - StatusSize: upimg_rect_h.y1,
// 1340             orient ? upimg_rect.x2 - upimg_rect.x1 : upimg_rect_h.x2 - upimg_rect_h.x1,
// 1341             orient ? upimg_rect.y2 - upimg_rect.y1 : upimg_rect_h.y2 - upimg_rect_h.y1,
// 1342             images[IMG_UP]);
        LDRHNE   R0,[R4, #+12]
        CMPNE    R0,#+0
        CMPNE    R0,R8
        BEQ      ??walkman_Redraw_124
        CMP      R9,#+0
        BEQ      ??walkman_Redraw_125
        LDR      R3,??walkman_Redraw_90+0x240  ;; upimg_rect
        LDRH     R2,[R3, #+4]
        LDRH     R1,[R3, #+6]
        LDR      R11,[R7, #+48]
        SUB      R10,R1,R2
        LDRH     R1,[R3, #+0]
        LDRH     R3,[R3, #+2]
        SUB      R2,R2,R11
        B        ??walkman_Redraw_126
??walkman_Redraw_125:
        LDR      R3,??walkman_Redraw_90+0x244  ;; upimg_rect_h
        LDRH     R2,[R3, #+4]
        LDRH     R1,[R3, #+6]
        SUB      R10,R1,R2
        LDRH     R1,[R3, #+0]
        LDRH     R3,[R3, #+2]
??walkman_Redraw_126:
        SUB      R3,R3,R1
        PUSH     {R0}
        CFI CFA R13+184
        PUSH     {R10}
        CFI CFA R13+188
        MOV      R0,R6
        SWI      +320
        ADD      SP,SP,#+8
        CFI CFA R13+180
// 1343   }
// 1344   //----------------------------------------------------------------------------
// 1345   //Down arrow
// 1346   if (orient ? downimg_show : downimg_show_h)
??walkman_Redraw_124:
        CMP      R9,#+0
        LDRNE    R0,??walkman_Redraw_90+0x248  ;; downimg_show
        LDREQ    R0,??walkman_Redraw_90+0x24C  ;; downimg_show_h
        LDR      R0,[R0, #+0]
        CMP      R0,#+0
// 1347   {
// 1348     putchar_(GCanvas, 
// 1349             orient ? downimg_rect.x1 : downimg_rect_h.x1, 
// 1350             orient ? downimg_rect.y1 - StatusSize: downimg_rect_h.y1,
// 1351             orient ? downimg_rect.x2 - downimg_rect.x1 : downimg_rect_h.x2 - downimg_rect_h.x1,
// 1352             orient ? downimg_rect.y2 - downimg_rect.y1 : downimg_rect_h.y2 - downimg_rect_h.y1,
// 1353             images[IMG_DOWN]);
        LDRHNE   R0,[R4, #+14]
        CMPNE    R0,#+0
        CMPNE    R0,R8
        BEQ      ??walkman_Redraw_127
        CMP      R9,#+0
        BEQ      ??walkman_Redraw_128
        LDR      R3,??walkman_Redraw_90+0x250  ;; downimg_rect
        LDRH     R2,[R3, #+4]
        LDRH     R1,[R3, #+6]
        LDR      R11,[R7, #+48]
        SUB      R10,R1,R2
        LDRH     R1,[R3, #+0]
        LDRH     R3,[R3, #+2]
        SUB      R2,R2,R11
        B        ??walkman_Redraw_129
??walkman_Redraw_128:
        LDR      R3,??walkman_Redraw_90+0x254  ;; downimg_rect_h
        LDRH     R2,[R3, #+4]
        LDRH     R1,[R3, #+6]
        SUB      R10,R1,R2
        LDRH     R1,[R3, #+0]
        LDRH     R3,[R3, #+2]
??walkman_Redraw_129:
        SUB      R3,R3,R1
        PUSH     {R0}
        CFI CFA R13+184
        PUSH     {R10}
        CFI CFA R13+188
        MOV      R0,R6
        SWI      +320
        ADD      SP,SP,#+8
        CFI CFA R13+180
// 1354   }
// 1355   //----------------------------------------------------------------------------
// 1356   //Left arrow
// 1357   if (orient ? leftimg_show : leftimg_show_h)
??walkman_Redraw_127:
        CMP      R9,#+0
        LDRNE    R0,??walkman_Redraw_90+0x258  ;; leftimg_show
        LDREQ    R0,??walkman_Redraw_90+0x25C  ;; leftimg_show_h
        LDR      R0,[R0, #+0]
        CMP      R0,#+0
        BEQ      ??walkman_Redraw_130
// 1358   {
// 1359     putchar_(GCanvas, 
// 1360              orient ? leftimg_rect.x1 : leftimg_rect_h.x1, 
// 1361              orient ? leftimg_rect.y1 - StatusSize: leftimg_rect_h.y1,
// 1362              orient ? leftimg_rect.x2 - leftimg_rect.x1 : leftimg_rect_h.x2 - leftimg_rect_h.x1,
// 1363              orient ? leftimg_rect.y2 - leftimg_rect.y1 : leftimg_rect_h.y2 - leftimg_rect_h.y1,
// 1364              wb->status==5 ? images[IMG_PREV2] : images[IMG_PREV]);
        LDRB     R1,[R5, #+25]
        LDRH     R10,[R4, #+4]
        LDRH     R0,[R4, #+0]
        CMP      R1,#+5
        BNE      ??walkman_Redraw_131
??walkman_Redraw_132:
        CMP      R10,#+0
        BNE      ??walkman_Redraw_133
        B        ??walkman_Redraw_130
??walkman_Redraw_131:
        CMP      R0,#+0
        BEQ      ??walkman_Redraw_134
        CMP      R1,#+5
        BEQ      ??walkman_Redraw_132
??walkman_Redraw_134:
        CMP      R0,R8
        BEQ      ??walkman_Redraw_130
??walkman_Redraw_133:
        CMP      R1,#+5
        MOVNE    R10,R0
        CMP      R9,#+0
        BEQ      ??walkman_Redraw_135
        LDR      R3,??walkman_Redraw_90+0x260  ;; leftimg_rect
        LDRH     R2,[R3, #+4]
        LDRH     R0,[R3, #+6]
        LDRH     R1,[R3, #+0]
        LDRH     R3,[R3, #+2]
        LDR      R11,[R7, #+48]
        SUB      R0,R0,R2
        SUB      R3,R3,R1
        SUB      R2,R2,R11
        B        ??walkman_Redraw_136
??walkman_Redraw_135:
        LDR      R3,??walkman_Redraw_90+0x264  ;; leftimg_rect_h
        LDRH     R2,[R3, #+4]
        LDRH     R0,[R3, #+6]
        LDRH     R1,[R3, #+0]
        LDRH     R3,[R3, #+2]
        SUB      R0,R0,R2
        SUB      R3,R3,R1
??walkman_Redraw_136:
        PUSH     {R10}
        CFI CFA R13+184
        PUSH     {R0}
        CFI CFA R13+188
        MOV      R0,R6
        SWI      +320
        ADD      SP,SP,#+8
        CFI CFA R13+180
// 1365   }
// 1366   //----------------------------------------------------------------------------
// 1367   //Right arrow
// 1368   if (orient ? rightimg_show : rightimg_show_h)
??walkman_Redraw_130:
        CMP      R9,#+0
        LDRNE    R0,??walkman_Redraw_90+0x268  ;; rightimg_show
        LDREQ    R0,??walkman_Redraw_90+0x26C  ;; rightimg_show_h
        LDR      R0,[R0, #+0]
        CMP      R0,#+0
        BEQ      ??walkman_Redraw_137
// 1369   {
// 1370     putchar_(GCanvas, 
// 1371              orient ? rightimg_rect.x1 : rightimg_rect_h.x1, 
// 1372              orient ? rightimg_rect.y1 - StatusSize: rightimg_rect_h.y1,
// 1373              orient ? rightimg_rect.x2 - rightimg_rect.x1 : rightimg_rect_h.x2 - rightimg_rect_h.x1,
// 1374              orient ? rightimg_rect.y2 - rightimg_rect.y1 : rightimg_rect_h.y2 - rightimg_rect_h.y1,
// 1375              wb->status==3 ? images[IMG_NEXT2] : images[IMG_NEXT]);
        LDRB     R1,[R5, #+25]
        LDRH     R10,[R4, #+6]
        LDRH     R0,[R4, #+2]
        CMP      R1,#+3
        BNE      ??walkman_Redraw_138
??walkman_Redraw_139:
        CMP      R10,#+0
        BNE      ??walkman_Redraw_140
        B        ??walkman_Redraw_137
??walkman_Redraw_138:
        CMP      R0,#+0
        BEQ      ??walkman_Redraw_141
        CMP      R1,#+3
        BEQ      ??walkman_Redraw_139
??walkman_Redraw_141:
        CMP      R0,R8
        BEQ      ??walkman_Redraw_137
??walkman_Redraw_140:
        CMP      R1,#+3
        MOVNE    R10,R0
        CMP      R9,#+0
        BEQ      ??walkman_Redraw_142
        LDR      R3,??walkman_Redraw_90+0x270  ;; rightimg_rect
        LDRH     R2,[R3, #+4]
        LDRH     R0,[R3, #+6]
        LDRH     R1,[R3, #+0]
        LDRH     R3,[R3, #+2]
        LDR      R11,[R7, #+48]
        SUB      R0,R0,R2
        SUB      R3,R3,R1
        SUB      R2,R2,R11
        B        ??walkman_Redraw_143
??walkman_Redraw_142:
        LDR      R3,??walkman_Redraw_90+0x274  ;; rightimg_rect_h
        LDRH     R2,[R3, #+4]
        LDRH     R0,[R3, #+6]
        LDRH     R1,[R3, #+0]
        LDRH     R3,[R3, #+2]
        SUB      R0,R0,R2
        SUB      R3,R3,R1
??walkman_Redraw_143:
        PUSH     {R10}
        CFI CFA R13+184
        PUSH     {R0}
        CFI CFA R13+188
        MOV      R0,R6
        SWI      +320
        ADD      SP,SP,#+8
        CFI CFA R13+180
// 1376   }
// 1377   //----------------------------------------------------------------------------
// 1378   //Play/Stop mini icon
// 1379   if (orient ? centerimg_show : centerimg_show_h)
??walkman_Redraw_137:
        CMP      R9,#+0
        LDRNE    R0,??walkman_Redraw_90+0x278  ;; centerimg_show
        LDREQ    R0,??walkman_Redraw_90+0x27C  ;; centerimg_show_h
        LDR      R0,[R0, #+0]
        CMP      R0,#+0
        BEQ      ??walkman_Redraw_144
// 1380   {
// 1381     putchar_(GCanvas, 
// 1382              orient ? centerimg_rect.x1 : centerimg_rect_h.x1, 
// 1383              orient ? centerimg_rect.y1 - StatusSize: centerimg_rect_h.y1,
// 1384              orient ? centerimg_rect.x2 - centerimg_rect.x1 : centerimg_rect_h.x2 - centerimg_rect_h.x1,
// 1385              orient ? centerimg_rect.y2 - centerimg_rect.y1 : centerimg_rect_h.y2 - centerimg_rect_h.y1,
// 1386              wb->status==1 ? images[IMG_STOP] : images[IMG_PLAY]);
        LDRB     R1,[R5, #+25]
        LDRH     R10,[R4, #+10]
        LDRH     R0,[R4, #+8]
        CMP      R1,#+1
        BNE      ??walkman_Redraw_145
??walkman_Redraw_146:
        CMP      R10,#+0
        BNE      ??walkman_Redraw_147
        B        ??walkman_Redraw_144
??walkman_Redraw_145:
        CMP      R0,#+0
        BEQ      ??walkman_Redraw_148
        CMP      R1,#+1
        BEQ      ??walkman_Redraw_146
??walkman_Redraw_148:
        CMP      R0,R8
        BEQ      ??walkman_Redraw_144
??walkman_Redraw_147:
        CMP      R1,#+1
        MOVNE    R10,R0
        CMP      R9,#+0
        BEQ      ??walkman_Redraw_149
        LDR      R3,??walkman_Redraw_90+0x280  ;; centerimg_rect
        LDRH     R2,[R3, #+4]
        LDRH     R0,[R3, #+6]
        LDRH     R1,[R3, #+0]
        LDRH     R3,[R3, #+2]
        LDR      R4,[R7, #+48]
        SUB      R0,R0,R2
        SUB      R3,R3,R1
        SUB      R2,R2,R4
        B        ??walkman_Redraw_150
??walkman_Redraw_149:
        LDR      R3,??walkman_Redraw_90+0x284  ;; centerimg_rect_h
        LDRH     R2,[R3, #+4]
        LDRH     R0,[R3, #+6]
        LDRH     R1,[R3, #+0]
        LDRH     R3,[R3, #+2]
        SUB      R0,R0,R2
        SUB      R3,R3,R1
??walkman_Redraw_150:
        PUSH     {R10}
        CFI CFA R13+184
        PUSH     {R0}
        CFI CFA R13+188
        MOV      R0,R6
        SWI      +320
        ADD      SP,SP,#+8
        CFI CFA R13+180
// 1387   }
// 1388       //----------------------------------------------------------------------------
// 1389   //Repeat icon
// 1390   if (orient ? repeat_show : repeat_show_h)
??walkman_Redraw_144:
        CMP      R9,#+0
        LDRNE    R0,??walkman_Redraw_90+0x288  ;; repeat_show
        LDREQ    R0,??walkman_Redraw_90+0x28C  ;; repeat_show_h
        LDR      R0,[R0, #+0]
        CMP      R0,#+0
        BEQ      ??walkman_Redraw_151
// 1391   {
// 1392     putchar_(GCanvas, 
// 1393              orient ? repeat_rect.x1 : repeat_rect_h.x1, 
// 1394              orient ? repeat_rect.y1 - StatusSize: repeat_rect_h.y1,
// 1395              orient ? repeat_rect.x2 - repeat_rect.x1 : repeat_rect_h.x2 - repeat_rect_h.x1,
// 1396              orient ? repeat_rect.y2 - repeat_rect.y1 : repeat_rect_h.y2 - repeat_rect_h.y1,
// 1397             wb->RepeatMode==1 ? media_images[IMG_LOOP] : media_images[IMG_LOOP_OFF]);
        LDR      R0,??walkman_Redraw_90+0x290  ;; media_images + 4
        LDRB     R1,[R5, #+152]
        LDRH     R4,[R0, #+0]
        LDR      R0,??walkman_Redraw_90+0x294  ;; media_images + 14
        CMP      R1,#+1
        LDRH     R0,[R0, #+0]
        BNE      ??walkman_Redraw_152
??walkman_Redraw_153:
        CMP      R4,#+0
        BNE      ??walkman_Redraw_154
        B        ??walkman_Redraw_151
??walkman_Redraw_152:
        CMP      R0,#+0
        BEQ      ??walkman_Redraw_155
        CMP      R1,#+1
        BEQ      ??walkman_Redraw_153
??walkman_Redraw_155:
        CMP      R0,R8
        BEQ      ??walkman_Redraw_151
??walkman_Redraw_154:
        CMP      R1,#+1
        MOVNE    R4,R0
        CMP      R9,#+0
        BEQ      ??walkman_Redraw_156
        LDR      R3,??walkman_Redraw_90+0x298  ;; repeat_rect
        LDRH     R2,[R3, #+4]
        LDRH     R0,[R3, #+6]
        LDRH     R1,[R3, #+0]
        LDRH     R3,[R3, #+2]
        LDR      R10,[R7, #+48]
        SUB      R0,R0,R2
        SUB      R3,R3,R1
        SUB      R2,R2,R10
        B        ??walkman_Redraw_157
        DATA
??walkman_Redraw_83:
        DC32     ltime_hl_h
        DC32     ltime_scolor_h
        DC32     ltime_color_h
        DC32     ltime_ct_h
        DC32     ltime_font_h
        DC32     title_show
        DC32     title_show_h
        DC32     title_rc_h
        DC32     title_rc
        DC32     title_hl
        DC32     title_scolor
        DC32     title_color
        DC32     title_ct
        DC32     title_font
        DC32     title_hl_h
        DC32     title_scolor_h
        DC32     title_color_h
        DC32     title_ct_h
        DC32     title_font_h
        DC32     restr_CoverAlbum
        DC32     album_show
        DC32     album_show_h
        DC32     album_rc_h
        DC32     album_rc
        DC32     album_hl
        DC32     album_scolor
        DC32     album_color
        ARM
??walkman_Redraw_156:
        LDR      R3,??walkman_Redraw_90+0x29C  ;; repeat_rect_h
        LDRH     R2,[R3, #+4]
        LDRH     R0,[R3, #+6]
        LDRH     R1,[R3, #+0]
        LDRH     R3,[R3, #+2]
        SUB      R0,R0,R2
        SUB      R3,R3,R1
??walkman_Redraw_157:
        PUSH     {R4}
        CFI CFA R13+184
        PUSH     {R0}
        CFI CFA R13+188
        MOV      R0,R6
        SWI      +320
        ADD      SP,SP,#+8
        CFI CFA R13+180
// 1398   }
// 1399   //----------------------------------------------------------------------------
// 1400   //Shuffle icon
// 1401     if (orient ? shuffle_show : shuffle_show_h)
??walkman_Redraw_151:
        CMP      R9,#+0
        LDRNE    R0,??walkman_Redraw_90+0x2A0  ;; shuffle_show
        LDREQ    R0,??walkman_Redraw_90+0x2A4  ;; shuffle_show_h
        LDR      R0,[R0, #+0]
        CMP      R0,#+0
        BEQ      ??walkman_Redraw_158
// 1402   {
// 1403     putchar_(GCanvas, 
// 1404             orient ? shuffle_rect.x1 : shuffle_rect_h.x1, 
// 1405             orient ? shuffle_rect.y1 - StatusSize: shuffle_rect_h.y1,
// 1406             orient ? shuffle_rect.x2 - shuffle_rect.x1 : shuffle_rect_h.x2 - shuffle_rect_h.x1,
// 1407             orient ? shuffle_rect.y2 - shuffle_rect.y1 : shuffle_rect_h.y2 - shuffle_rect_h.y1,
// 1408             wb->ShuffleMode==1 ? media_images[IMG_RANDOM] : media_images[IMG_RANDOM_OFF]);
        LDR      R0,??walkman_Redraw_90+0x2A8  ;; media_images + 8
        LDRB     R1,[R5, #+153]
        LDRH     R4,[R0, #+0]
        LDR      R0,??walkman_Redraw_90+0x2AC  ;; media_images + 10
        CMP      R1,#+1
        LDRH     R0,[R0, #+0]
        BNE      ??walkman_Redraw_159
??walkman_Redraw_160:
        CMP      R4,#+0
        BNE      ??walkman_Redraw_161
        B        ??walkman_Redraw_158
??walkman_Redraw_159:
        CMP      R0,#+0
        BEQ      ??walkman_Redraw_162
        CMP      R1,#+1
        BEQ      ??walkman_Redraw_160
??walkman_Redraw_162:
        CMP      R0,R8
        BEQ      ??walkman_Redraw_158
??walkman_Redraw_161:
        CMP      R1,#+1
        MOVNE    R4,R0
        CMP      R9,#+0
        BEQ      ??walkman_Redraw_163
        LDR      R3,??walkman_Redraw_90+0x2B0  ;; shuffle_rect
        LDRH     R2,[R3, #+4]
        LDRH     R0,[R3, #+6]
        LDRH     R1,[R3, #+0]
        LDRH     R3,[R3, #+2]
        LDR      R10,[R7, #+48]
        SUB      R0,R0,R2
        SUB      R3,R3,R1
        SUB      R2,R2,R10
        B        ??walkman_Redraw_164
??walkman_Redraw_163:
        LDR      R3,??walkman_Redraw_90+0x2B4  ;; shuffle_rect_h
        LDRH     R2,[R3, #+4]
        LDRH     R0,[R3, #+6]
        LDRH     R1,[R3, #+0]
        LDRH     R3,[R3, #+2]
        SUB      R0,R0,R2
        SUB      R3,R3,R1
??walkman_Redraw_164:
        PUSH     {R4}
        CFI CFA R13+184
        PUSH     {R0}
        CFI CFA R13+188
        MOV      R0,R6
        SWI      +320
        ADD      SP,SP,#+8
        CFI CFA R13+180
// 1409   }
// 1410   //----------------------------------------------------------------------------
// 1411   //Stereo widening icon
// 1412   if (orient ? stereo_show : stereo_show_h)
??walkman_Redraw_158:
        CMP      R9,#+0
        LDRNE    R0,??walkman_Redraw_90+0x2B8  ;; stereo_show
        LDREQ    R0,??walkman_Redraw_90+0x2BC  ;; stereo_show_h
        LDR      R0,[R0, #+0]
        CMP      R0,#+0
        BEQ      ??walkman_Redraw_15
// 1413   {
// 1414     putchar_(GCanvas, 
// 1415             orient ? stereo_rect.x1 : stereo_rect_h.x1, 
// 1416             orient ? stereo_rect.y1 - StatusSize: stereo_rect_h.y1,
// 1417             orient ? stereo_rect.x2 - stereo_rect.x1 : stereo_rect_h.x2 - stereo_rect_h.x1,
// 1418             orient ? stereo_rect.y2 - stereo_rect.y1 : stereo_rect_h.y2 - stereo_rect_h.y1,
// 1419             wb->StereoWidening==1 ? media_images[IMG_STEREOWIDENING] : media_images[IMG_STEREOWIDENING_OFF]);
        LDR      R1,??walkman_Redraw_90+0x2C0  ;; media_images + 6
        LDR      R0,??walkman_Redraw_90+0x2C4  ;; media_images + 12
        LDRH     R4,[R1, #+0]
        LDRB     R1,[R5, #+160]
        LDRH     R0,[R0, #+0]
        CMP      R1,#+1
        BNE      ??walkman_Redraw_165
??walkman_Redraw_166:
        CMP      R0,#+0
        BNE      ??walkman_Redraw_167
        B        ??walkman_Redraw_15
??walkman_Redraw_165:
        CMP      R4,#+0
        BEQ      ??walkman_Redraw_168
        CMP      R1,#+1
        BEQ      ??walkman_Redraw_166
??walkman_Redraw_168:
        CMP      R4,R8
        BEQ      ??walkman_Redraw_15
??walkman_Redraw_167:
        CMP      R1,#+1
        MOVEQ    R4,R0
        CMP      R9,#+0
        BEQ      ??walkman_Redraw_169
        LDR      R2,??walkman_Redraw_90+0x2C8  ;; stereo_rect
        LDRH     R5,[R2, #+4]
        LDRH     R0,[R2, #+6]
        LDRH     R1,[R2, #+0]
        LDRH     R2,[R2, #+2]
        SUB      R0,R0,R5
        SUB      R3,R2,R1
        LDR      R2,[R7, #+48]
        SUB      R2,R5,R2
        B        ??walkman_Redraw_170
??walkman_Redraw_169:
        LDR      R3,??walkman_Redraw_90+0x2CC  ;; stereo_rect_h
        LDRH     R2,[R3, #+4]
        LDRH     R0,[R3, #+6]
        LDRH     R1,[R3, #+0]
        LDRH     R3,[R3, #+2]
        SUB      R0,R0,R2
        SUB      R3,R3,R1
??walkman_Redraw_170:
        PUSH     {R4}
        CFI CFA R13+184
        PUSH     {R0}
        CFI CFA R13+188
        MOV      R0,R6
        SWI      +320
??walkman_Redraw_16:
        ADD      SP,SP,#+8        ;; stack cleaning
        CFI CFA R13+180
??walkman_Redraw_15:
        ADD      SP,SP,#+144      ;; stack cleaning
        CFI CFA R13+36
        POP      {R4-R11,PC}      ;; return
        DATA
??walkman_Redraw_90:
        DC32     album_ct
        DC32     album_font
        DC32     album_hl_h
        DC32     album_scolor_h
        DC32     album_color_h
        DC32     album_ct_h
        DC32     album_font_h
        DC32     artist_show
        DC32     artist_show_h
        DC32     artist_rc_h
        DC32     artist_rc
        DC32     artist_hl
        DC32     artist_scolor
        DC32     artist_color
        DC32     artist_ct
        DC32     artist_font
        DC32     artist_hl_h
        DC32     artist_scolor_h
        DC32     artist_color_h
        DC32     artist_ct_h
        DC32     artist_font_h
        DC32     genre_show
        DC32     genre_show_h
        DC32     genre_rc_h
        DC32     genre_rc
        DC32     genre_hl
        DC32     genre_scolor
        DC32     genre_color
        DC32     genre_ct
        DC32     genre_font
        DC32     genre_hl_h
        DC32     genre_scolor_h
        DC32     genre_color_h
        DC32     genre_ct_h
        DC32     genre_font_h
        DC32     nowmusic + 8220
        DC32     year_show
        DC32     year_show_h
        DC32     year_rc_h
        DC32     year_rc
        DC32     year_hl
        DC32     year_scolor
        DC32     year_color
        DC32     year_ct
        DC32     year_font
        DC32     year_hl_h
        DC32     year_scolor_h
        DC32     year_color_h
        DC32     year_ct_h
        DC32     year_font_h
        DC32     nowmusic + 6172
        DC32     trackn_show
        DC32     trackn_show_h
        DC32     trackn_rc_h
        DC32     trackn_rc
        DC32     trackn_mask
        DC32     trackn_mask_h
        DC32     trackn_hl
        DC32     trackn_scolor
        DC32     trackn_color
        DC32     trackn_ct
        DC32     trackn_font
        DC32     trackn_hl_h
        DC32     trackn_scolor_h
        DC32     trackn_color_h
        DC32     trackn_ct_h
        DC32     trackn_font_h
        DC32     tracks_show
        DC32     tracks_show_h
        DC32     tracks_rc_h
        DC32     tracks_rc
        DC32     tracks_mask
        DC32     tracks_mask_h
        DC32     tracks_hl
        DC32     tracks_scolor
        DC32     tracks_color
        DC32     tracks_ct
        DC32     tracks_font
        DC32     tracks_hl_h
        DC32     tracks_scolor_h
        DC32     tracks_color_h
        DC32     tracks_ct_h
        DC32     tracks_font_h
        DC32     bitrate_show
        DC32     bitrate_show_h
        DC32     nowmusic + 4
        DC32     bitrate_rc_h
        DC32     bitrate_rc
        DC32     use_vbr
        DC32     bitrate_vbr
        DC32     bitrate_vbr_h
        DC32     nowmusic
        DC32     bitrate_mask
        DC32     bitrate_mask_h
        DC32     bitrate_hl
        DC32     bitrate_scolor
        DC32     bitrate_color
        DC32     bitrate_ct
        DC32     bitrate_hl_h
        DC32     bitrate_scolor_h
        DC32     bitrate_color_h
        DC32     bitrate_ct_h
        DC32     bitrate_font
        DC32     bitrate_font_h
        DC32     freq_show
        DC32     freq_show_h
        DC32     nowmusic + 20
        DC32     freq_rc_h
        DC32     freq_rc
        DC32     freq_mask
        DC32     freq_mask_h
        DC32     freq_hl
        DC32     freq_scolor
        DC32     freq_color
        DC32     freq_ct
        DC32     freq_font
        DC32     freq_hl_h
        DC32     freq_scolor_h
        DC32     freq_color_h
        DC32     freq_ct_h
        DC32     freq_font_h
        DC32     ch_show
        DC32     ch_show_h
        DC32     nowmusic + 24
        DC32     ch_rc_h
        DC32     ch_rc
        DC32     ch_hl
        DC32     ch_scolor
        DC32     ch_color
        DC32     ch_ct
        DC32     ch_font
        DC32     ch_hl_h
        DC32     ch_scolor_h
        DC32     ch_color_h
        DC32     ch_ct_h
        DC32     ch_font_h
        DC32     navigimg_show
        DC32     navigimg_show_h
        DC32     navigimg
        DC32     navigimg_rect
        DC32     navigimg_rect_h
        DC32     images
        DC32     upimg_show
        DC32     upimg_show_h
        DC32     upimg_rect
        DC32     upimg_rect_h
        DC32     downimg_show
        DC32     downimg_show_h
        DC32     downimg_rect
        DC32     downimg_rect_h
        DC32     leftimg_show
        DC32     leftimg_show_h
        DC32     leftimg_rect
        DC32     leftimg_rect_h
        DC32     rightimg_show
        DC32     rightimg_show_h
        DC32     rightimg_rect
        DC32     rightimg_rect_h
        DC32     centerimg_show
        DC32     centerimg_show_h
        DC32     centerimg_rect
        DC32     centerimg_rect_h
        DC32     repeat_show
        DC32     repeat_show_h
        DC32     media_images + 4
        DC32     media_images + 14
        DC32     repeat_rect
        DC32     repeat_rect_h
        DC32     shuffle_show
        DC32     shuffle_show_h
        DC32     media_images + 8
        DC32     media_images + 10
        DC32     shuffle_rect
        DC32     shuffle_rect_h
        DC32     stereo_show
        DC32     stereo_show_h
        DC32     media_images + 6
        DC32     media_images + 12
        DC32     stereo_rect
        DC32     stereo_rect_h
        CFI EndBlock cfiBlock51
// 1420   }
// 1421   /*
// 1422 //#ifndef NDEBUG
// 1423   rc.x1 = 0;
// 1424   rc.x2 = orient ? 240 : 320;
// 1425   GC_ValidateRect(GC,&rc);
// 1426   DrawLine2(FONT_E_20B, 
// 1427             TextID_CreateIntegerID(BENCH_GET), 
// 1428             2, 
// 1429             0, 
// 1430             0, 
// 1431             orient ? 240 : 320,
// 1432             orient ? 320 : 240,
// 1433             orient ? title_color : title_color_h, 
// 1434             orient ? title_scolor : title_scolor_h,
// 1435             true,
// 1436             0);
// 1437   
// 1438     GC_ValidateRect(GC,&gc_rc);
// 1439 //#endif*/
// 1440 };

        RSEG CODE:CODE:NOROOT(2)
        CFI Block cfiBlock52 Using cfiCommon0
        CFI NoFunction
        THUMB
??getimgID??rT:
        BX       PC
        Nop      
        CFI EndBlock cfiBlock52
        REQUIRE ??getimgID
// 1441 
// 1442 int GetIconID(wchar_t *txt);
// 1443 
// 1444 #pragma optimize = z 9

        RSEG CODE:CODE:NOROOT(2)
        CFI Block cfiBlock53 Using cfiCommon1
        CFI Function ??getimgID
        ARM
// 1445 IMAGEID getimgID(IMAGEID old)
// 1446 {
// 1447   return old;
??getimgID:
        BX       LR               ;; return
        CFI EndBlock cfiBlock53
// 1448 };

        RSEG CODE:CODE:NOROOT(2)
        CFI Block cfiBlock54 Using cfiCommon0
        CFI NoFunction
        THUMB
??GetRedraw??rT:
        BX       PC
        Nop      
        CFI EndBlock cfiBlock54
        REQUIRE ??GetRedraw
// 1449 void Softkey_SetOnRedraw();

        RSEG CODE:CODE:NOROOT(2)
        CFI Block cfiBlock55 Using cfiCommon1
        CFI Function ??GetRedraw
        ARM
// 1450 void GetRedraw(DISP_OBJ_ONREDRAW_METHOD draw)
// 1451 {
// 1452   oldredr=draw;
??GetRedraw:
        LDR      R1,??DataTable52  ;; v_MPA_ID
        PUSH     {LR}
        CFI ?RET Frame(CFA, -4)
        CFI CFA R13+4
        STR      R0,[R1, #+64]
// 1453   debug_printf("\nWalkmanDisplay: old redraw: %X\n", oldredr);
        MOV      R1,R0
        LDR      R0,??GetRedraw_1  ;; `?<Constant "\\nWalkmanDisplay: old ...">`
        SWI      +433
// 1454   Softkey_SetOnRedraw();
        BL       ??Softkey_SetOnRedraw
// 1455   ModifyKeyHook(NewKey, KEY_HOOK_ADD, NULL);
        LDR      R0,??DataTable44  ;; ??NewKey
        MOV      R2,#+0
        MOV      R1,#+1
        SWI      +263
// 1456 };
        POP      {PC}             ;; return
        DATA
??GetRedraw_1:
        DC32     `?<Constant "\\nWalkmanDisplay: old ...">`
        CFI EndBlock cfiBlock55

        RSEG CODE:CODE:NOROOT(2)
        CFI Block cfiBlock56 Using cfiCommon0
        CFI NoFunction
        THUMB
??isBrowserItemBook??rT:
        BX       PC
        Nop      
        CFI EndBlock cfiBlock56
        REQUIRE ??isBrowserItemBook
// 1457 

        RSEG CODE:CODE:NOROOT(2)
        CFI Block cfiBlock57 Using cfiCommon1
        CFI Function ??isBrowserItemBook
        ARM
// 1458 int isBrowserItemBook(BOOK *bk)
// 1459 {
// 1460   if (strcmp(bk->xbook->name,"BrowserItemBook")==0)
??isBrowserItemBook:
        LDR      R1,??isBrowserItemBook_1  ;; `?<Constant "BrowserItemBook">`
        PUSH     {LR}
        CFI ?RET Frame(CFA, -4)
        CFI CFA R13+4
        LDR      R0,[R0, #+0]
        LDR      R0,[R0, #+4]
        SWI      +345
        CMP      R0,#+0
// 1461     return 1;
        MOVEQ    R0,#+1
        POPEQ    {PC}
// 1462   return 0;
        MOV      R0,#+0
        POP      {PC}             ;; return
        DATA
??isBrowserItemBook_1:
        DC32     `?<Constant "BrowserItemBook">`
        CFI EndBlock cfiBlock57
// 1463 };

        RSEG CODE:CODE:NOROOT(2)
        CFI Block cfiBlock58 Using cfiCommon0
        CFI NoFunction
        THUMB
??PageHook??rT:
        BX       PC
        Nop      
        CFI EndBlock cfiBlock58
        REQUIRE ??PageHook
// 1464 

        RSEG CODE:CODE:NOROOT(2)
        CFI Block cfiBlock59 Using cfiCommon1
        CFI Function ??PageHook
        ARM
// 1465 void PageHook(void*, BOOK *book, int id)
// 1466 {
??PageHook:
        PUSH     {R4-R6,LR}
        CFI ?RET Frame(CFA, -4)
        CFI R6 Frame(CFA, -8)
        CFI R5 Frame(CFA, -12)
        CFI R4 Frame(CFA, -16)
        CFI CFA R13+16
// 1467   if (working)
        LDR      R5,??DataTable52  ;; v_MPA_ID
        MOV      R4,R1
        LDRB     R0,[R5, #+81]
        MOV      R6,R2
        CMP      R0,#+0
        POPEQ    {R4-R6,PC}
// 1468   {
// 1469     BookObj_SetDisplayOrientation(FindBook(get_IsAudioPlayerBook()),0);
        SWI      +33419
        SWI      +304
        MOV      R1,#+0
        SWI      +794
// 1470     BookObj_SetDisplayOrientation(book,0);
        MOV      R1,#+0
        MOV      R0,R4
        SWI      +794
// 1471     if (id==4)
        CMP      R6,#+4
        BNE      ??PageHook_1
// 1472     {
// 1473       BOOK *b=Display_GetTopBook(0);
        MOV      R0,#+0
        SWI      +795
// 1474       BookObj_SetDisplayOrientation(b,0);
        MOV      R1,#+0
        SWI      +794
// 1475     }
// 1476     if (BOOK *bk=FindBook(isBrowserItemBook))
??PageHook_1:
        LDR      R0,??PageHook_2  ;; ??isBrowserItemBook
        SWI      +304
        CMP      R0,#+0
        BEQ      ??PageHook_3
// 1477     {
// 1478       BookObj_SetDisplayOrientation(bk,0);
        MOV      R1,#+0
        SWI      +794
// 1479     }
// 1480     BookObj_SetDisplayOrientation(FindBook(get_IsAudioPlayerBook()),0);
??PageHook_3:
        SWI      +33419
        SWI      +304
        MOV      R1,#+0
        SWI      +794
// 1481     BookObj_SetDisplayOrientation(book,0);
        MOV      R1,#+0
        MOV      R0,R4
        SWI      +794
// 1482     debug_printf("\nWalkmanDisplay: pagehook called from %s\n",book->xbook->name); 
        LDR      R0,[R4, #+0]
        LDR      R1,[R0, #+4]
        LDR      R0,??PageHook_2+0x4  ;; `?<Constant "\\nWalkmanDisplay: page...">`
        SWI      +433
// 1483     accel_wrk=false;
        MOV      R0,#+0
        STRB     R0,[R5, #+82]
// 1484     inMenu=true;
        MOV      R0,#+1
        STRB     R0,[R5, #+84]
// 1485   }
// 1486 };
        POP      {R4-R6,PC}       ;; return
        DATA
??PageHook_2:
        DC32     ??isBrowserItemBook
        DC32     `?<Constant "\\nWalkmanDisplay: page...">`
        CFI EndBlock cfiBlock59

        RSEG CODE:CODE:NOROOT(2)
        CFI Block cfiBlock60 Using cfiCommon0
        CFI NoFunction
        THUMB
??checkfile_??rT:
        BX       PC
        Nop      
        CFI EndBlock cfiBlock60
        REQUIRE ??checkfile_
// 1487 

        RSEG CODE:CODE:NOROOT(2)
        CFI Block cfiBlock61 Using cfiCommon1
        CFI Function ??checkfile_
        ARM
// 1488 wchar_t *checkfile_(wchar_t *name, wchar_t *skinpath)
// 1489 {
??checkfile_:
        PUSH     {R4-R6,LR}
        CFI ?RET Frame(CFA, -4)
        CFI R6 Frame(CFA, -8)
        CFI R5 Frame(CFA, -12)
        CFI R4 Frame(CFA, -16)
        CFI CFA R13+16
        SUB      SP,SP,#+28
        CFI CFA R13+44
        MOV      R4,R0
        MOV      R5,R1
// 1490   FSTAT fst;
// 1491   if (fstat(skinpath,name,&fst)==0)
        MOV      R2,SP
        MOV      R1,R4
        MOV      R0,R5
        SWI      +284
        CMP      R0,#+0
// 1492   {
// 1493     return skinpath;
        MOVEQ    R0,R5
        BEQ      ??checkfile__1
// 1494   }
// 1495   else if (fstat(extFolder,name,&fst)==0)
        LDR      R6,??DataTable38  ;; intFolder
        MOV      R5,#+1024
        MOV      R2,SP
        MOV      R1,R4
        ADD      R0,R5,R6
        SWI      +284
        CMP      R0,#+0
// 1496   {
// 1497     return extFolder;
        ADDEQ    R0,R5,R6
        BEQ      ??checkfile__1
// 1498   }
// 1499   else if (fstat(intFolder,name,&fst)==0)
        MOV      R2,SP
        MOV      R1,R4
        MOV      R0,R6
        SWI      +284
        MOV      R0,R6
// 1500   {
// 1501     return intFolder;
// 1502   }
// 1503   return intFolder;
??checkfile__1:
        ADD      SP,SP,#+28       ;; stack cleaning
        CFI CFA R13+16
        POP      {R4-R6,PC}       ;; return
        CFI EndBlock cfiBlock61
// 1504 };

        RSEG CODE:CODE:NOROOT(2)
