################################################################################
#                                                                              #
#      IAR Universal Linker V4.60I/386                                         #
#                                                                              #
#           Link time     =  10/Jun/2013  23:10:52                             #
#           Target CPU    =  ARM                                               #
#           List file     =  Z:\home\perk11\www\perk11.info\svn\SE\WalkmanDisp #
#                            lay\Release_RU\List\WalkmanDisplay.map            #
#           Output file 1 =  Z:\home\perk11\www\perk11.info\svn\SE\WalkmanDisp #
#                            lay\Release_RU\Exe\WalkmanDisplay.elf             #
#                            Format: elf, variant: -ynpra                      #
#           Command line  =  Z:\home\perk11\www\perk11.info\svn\SE\WalkmanDisp #
#                            lay\Release_RU\Obj\CurrentTrack.r79               #
#                            Z:\home\perk11\www\perk11.info\svn\SE\WalkmanDisp #
#                            lay\Release_RU\Obj\DecoderInit.r79                #
#                            Z:\home\perk11\www\perk11.info\svn\SE\WalkmanDisp #
#                            lay\Release_RU\Obj\accelctrl.r79                  #
#                            Z:\home\perk11\www\perk11.info\svn\SE\WalkmanDisp #
#                            lay\Release_RU\Obj\cl.r79                         #
#                            Z:\home\perk11\www\perk11.info\svn\SE\WalkmanDisp #
#                            lay\Release_RU\Obj\conf_loader.r79                #
#                            Z:\home\perk11\www\perk11.info\svn\SE\WalkmanDisp #
#                            lay\Release_RU\Obj\config_data.r79                #
#                            Z:\home\perk11\www\perk11.info\svn\SE\WalkmanDisp #
#                            lay\Release_RU\Obj\decoder2.r79                   #
#                            Z:\home\perk11\www\perk11.info\svn\SE\WalkmanDisp #
#                            lay\Release_RU\Obj\encoding.r79                   #
#                            Z:\home\perk11\www\perk11.info\svn\SE\WalkmanDisp #
#                            lay\Release_RU\Obj\func.r79                       #
#                            Z:\home\perk11\www\perk11.info\svn\SE\WalkmanDisp #
#                            lay\Release_RU\Obj\images.r79                     #
#                            Z:\home\perk11\www\perk11.info\svn\SE\WalkmanDisp #
#                            lay\Release_RU\Obj\main.r79                       #
#                            Z:\home\perk11\www\perk11.info\svn\SE\WalkmanDisp #
#                            lay\Release_RU\Obj\mem2.r79                       #
#                            Z:\home\perk11\www\perk11.info\svn\SE\WalkmanDisp #
#                            lay\Release_RU\Obj\migrate_2_0.r79                #
#                            Z:\home\perk11\www\perk11.info\svn\SE\WalkmanDisp #
#                            lay\Release_RU\Obj\migrate_2_0_corrupted.r79      #
#                            Z:\home\perk11\www\perk11.info\svn\SE\WalkmanDisp #
#                            lay\Release_RU\Obj\skin_data.r79                  #
#                            Z:\home\perk11\www\perk11.info\svn\SE\WalkmanDisp #
#                            lay\Release_RU\Obj\skin_loader.r79                #
#                            Z:\home\perk11\www\perk11.info\svn\SE\WalkmanDisp #
#                            lay\Release_RU\Obj\tag.r79                        #
#                            Z:\home\perk11\www\perk11.info\svn\SE\WalkmanDisp #
#                            lay\Release_RU\Obj\tag_reset.r79                  #
#                            -o                                                #
#                            Z:\home\perk11\www\perk11.info\svn\SE\WalkmanDisp #
#                            lay\Release_RU\Exe\WalkmanDisplay.elf             #
#                            -Felf -l                                          #
#                            Z:\home\perk11\www\perk11.info\svn\SE\WalkmanDisp #
#                            lay\Release_RU\List\WalkmanDisplay.map            #
#                            -xms -IZ:\home\perk11\IAR2\arm\LIB\ -f            #
#                            Z:\home\perk11\www\perk11.info\svn\SE\WalkmanDisp #
#                            lay\1.xcl                                         #
#                            (-carm -ynpra -V(CODE)CODE_AREA,12                #
#                            -V(DATA)DATA_AREA,12                              #
#                            -Z(CODE_AREA)ELFBEGIN,DATA_ID,START,CODE,DATA_C,I #
#                            NITTAB,DATA_Z,DATA_N,CONFIG_C,SKIN_C,DYN_CONST,DY #
#                            N_CONST_DESC,DYN_PAGE,DYN_PAGE_DESC=0-FFFFFFFF    #
#                            -Z(DATA_AREA)DATA_I=0-FFFFFFFF)                   #
#                            Z:\home\perk11\IAR2\arm\LIB\dl5tpainl8n.r79 -s    #
#                            main                                              #
#                                                                              #
#                        Copyright 1987-2007 IAR Systems. All rights reserved. #
################################################################################





                ****************************************
                *                                      *
                *           CROSS REFERENCE            *
                *                                      *
                ****************************************

       Program entry at : CODE_AREA 0000611C  Relocatable, from module : main




                ****************************************
                *                                      *
                *            RUNTIME MODEL             *
                *                                      *
                ****************************************

  ARMv4M                 = USED
  ARMv4T                 = USED
  ARMv5T                 = USED
  StackAlign4            = USED
  __cpu_mode             = __pcs__interwork
  __data_model           = absolute
  __dlib_file_descriptor = 1
  __endian               = little
  __rt_version           = 6
  __thumb_aware          = enabled



                ****************************************
                *                                      *
                *              MODULE MAP              *
                *                                      *
                ****************************************


  DEFINED ABSOLUTE ENTRIES
    *************************************************************************

  DEFINED ABSOLUTE ENTRIES
    *************************************************************************

  FILE NAME : Z:\home\perk11\www\perk11.info\svn\SE\WalkmanDisplay\Release_RU\Obj\CurrentTrack.r79
  PROGRAM MODULE, NAME : CurrentTrack

  SEGMENTS IN THE MODULE
  ======================
CODE
  Relative segment, address: CODE_AREA 00000560 - 00000597 (0x38 bytes), align: 2
  Segment part 3.
           ENTRY                   ADDRESS         REF BY
           =====                   =======         ======
           TrackDesc_Free(TRACK_DESC *)
                                   00000560        CMyBook::onClose() (main)
                                                   onPlay(void *, BOOK *) (main)
                                                   onPlayerClosed(void *, BOOK *) (main)
               stack 1 = 00000000 ( 00000008 )
    -------------------------------------------------------------------------
CODE
  Relative segment, address: CODE_AREA 00000598 - 000005F3 (0x5c bytes), align: 2
  Segment part 5.
           ENTRY                   ADDRESS         REF BY
           =====                   =======         ======
           TrackDesc_Compare(TRACK_DESC *, TRACK_DESC *)
                                   00000598        onPlay(void *, BOOK *) (main)
               stack 1 = 00000000 ( 0000000C )
    -------------------------------------------------------------------------
CODE
  Relative segment, address: CODE_AREA 000005F4 - 00000693 (0xa0 bytes), align: 2
  Segment part 7.
           ENTRY                   ADDRESS         REF BY
           =====                   =======         ======
           TrackDesc_Get(BOOK *)   000005F4        onPlay(void *, BOOK *) (main)
                                                   walkman_Redraw(DISP_OBJ *, int, int, int) (main)
               stack 1 = 00000000 ( 00000014 )

    *************************************************************************

  FILE NAME : Z:\home\perk11\www\perk11.info\svn\SE\WalkmanDisplay\Release_RU\Obj\DecoderInit.r79
  PROGRAM MODULE, NAME : DecoderInit

  SEGMENTS IN THE MODULE
  ======================
DATA_Z
  Relative segment, address: CODE_AREA 0000BC18 - 0000E43F (0x2828 bytes), align: 2
  Segment part 8.             Intra module refs:   Cover_Free()
                                                   decoder_Init(wchar_t *, wchar_t *)
           ENTRY                   ADDRESS         REF BY
           =====                   =======         ======
           nowmusic                0000BC18        CMyBook::onClose() (main)
                                                   Segment part 134 (main)
                                                   Segment part 47 (main)
                                                   walkman_Redraw(DISP_OBJ *, int, int, int) (main)
    -------------------------------------------------------------------------
DATA_I
  Relative segment, address: DATA_AREA 00000000 - 0000000F (0x10 bytes), align: 2
  Segment part 9.             Intra module refs:   GetType_str(int)
           ENTRY                   ADDRESS         REF BY
           =====                   =======         ======
           types                   00000000 
    -------------------------------------------------------------------------
CODE
  Relative segment, address: CODE_AREA 00000694 - 000006AF (0x1c bytes), align: 2
  Segment part 12.            Intra module refs:   GetCover(void *, wchar_t *, wchar_t *, METADATA *)
           ENTRY                   ADDRESS         REF BY
           =====                   =======         ======
           GetType_str(int)        00000694 
    -------------------------------------------------------------------------
CODE
  Relative segment, address: CODE_AREA 000006B0 - 0000081B (0x16c bytes), align: 2
  Segment part 14.            Intra module refs:   metadata_Get(wchar_t *, wchar_t *, METADATA *, int)
           ENTRY                   ADDRESS         REF BY
           =====                   =======         ======
           GetCover(void *, wchar_t *, wchar_t *, METADATA *)
                                   000006B0 
               stack 1 = 00000000 ( 00000044 )
    -------------------------------------------------------------------------
CODE
  Relative segment, address: CODE_AREA 0000081C - 00000A4F (0x234 bytes), align: 2
  Segment part 16.            Intra module refs:   decoder_Init(wchar_t *, wchar_t *)
           ENTRY                   ADDRESS         REF BY
           =====                   =======         ======
           metadata_Get(wchar_t *, wchar_t *, METADATA *, int)
                                   0000081C 
               stack 1 = 00000000 ( 00000034 )
    -------------------------------------------------------------------------
CODE
  Relative segment, address: CODE_AREA 00000A50 - 00000A7B (0x2c bytes), align: 2
  Segment part 18.            Intra module refs:   decoder_Init(wchar_t *, wchar_t *)
           ENTRY                   ADDRESS         REF BY
           =====                   =======         ======
           Cover_Free()            00000A50 
               stack 1 = 00000000 ( 0000000C )
    -------------------------------------------------------------------------
CODE
  Relative segment, address: CODE_AREA 00000A7C - 00000B17 (0x9c bytes), align: 2
  Segment part 20.            Intra module refs:   decoder_Init(wchar_t *, wchar_t *)
           ENTRY                   ADDRESS         REF BY
           =====                   =======         ======
           getFormat(wchar_t *)    00000A7C 
               stack 1 = 00000000 ( 0000000C )
    -------------------------------------------------------------------------
CODE
  Relative segment, address: CODE_AREA 00000B18 - 00000B5B (0x44 bytes), align: 2
  Segment part 22.            Intra module refs:   decoder_Init(wchar_t *, wchar_t *)
           ENTRY                   ADDRESS         REF BY
           =====                   =======         ======
           freemeta(MUSIC *)       00000B18 
               stack 1 = 00000000 ( 00000008 )
    -------------------------------------------------------------------------
CODE
  Relative segment, address: CODE_AREA 00000B5C - 00000BDB (0x80 bytes), align: 2
  Segment part 24.
           ENTRY                   ADDRESS         REF BY
           =====                   =======         ======
           decoder_Init(wchar_t *, wchar_t *)
                                   00000B5C        onPlay(void *, BOOK *) (main)
                                                   walkman_Redraw(DISP_OBJ *, int, int, int) (main)
               stack 1 = 00000000 ( 00000030 )
    -------------------------------------------------------------------------
DATA_ID
  Relative segment, address: CODE_AREA 00000000 - 0000000F (0x10 bytes), align: 2
  Segment part 10.            Intra module refs:   types
    -------------------------------------------------------------------------
INITTAB
  Relative segment, address: CODE_AREA 0000BC00 - 0000BC0B (0xc bytes), align: 2
  Segment part 30. ROOT.
           ENTRY                   ADDRESS         REF BY
           =====                   =======         ======
           ?init?tab?DATA_I        0000BC00 
    -------------------------------------------------------------------------
INITTAB
  Relative segment, address: CODE_AREA 0000BC0C - 0000BC17 (0xc bytes), align: 2
  Segment part 31. ROOT.
           ENTRY                   ADDRESS         REF BY
           =====                   =======         ======
           ?init?tab?DATA_Z        0000BC0C 
    -------------------------------------------------------------------------
DATA_C
  Relative segment, address: CODE_AREA 0000A414 - 0000A41B (0x8 bytes), align: 2
  Segment part 2.             Intra module refs:   Segment part 10
    -------------------------------------------------------------------------
DATA_C
  Relative segment, address: CODE_AREA 0000A41C - 0000A423 (0x8 bytes), align: 2
  Segment part 3.             Intra module refs:   Segment part 10
    -------------------------------------------------------------------------
DATA_C
  Relative segment, address: CODE_AREA 0000A424 - 0000A42B (0x8 bytes), align: 2
  Segment part 4.             Intra module refs:   Segment part 10
    -------------------------------------------------------------------------
DATA_C
  Relative segment, address: CODE_AREA 0000A42C - 0000A433 (0x8 bytes), align: 2
  Segment part 5.             Intra module refs:   Segment part 10
    -------------------------------------------------------------------------
DATA_C
  Relative segment, address: CODE_AREA 0000A434 - 0000A45B (0x28 bytes), align: 2
  Segment part 6.             Intra module refs:   GetCover(void *, wchar_t *, wchar_t *, METADATA *)
    -------------------------------------------------------------------------
DATA_C
  Relative segment, address: CODE_AREA 0000A45C - 0000A4DF (0x84 bytes), align: 2
  Segment part 7.             Intra module refs:   getFormat(wchar_t *)

    *************************************************************************

  FILE NAME : Z:\home\perk11\www\perk11.info\svn\SE\WalkmanDisplay\Release_RU\Obj\accelctrl.r79
  PROGRAM MODULE, NAME : accelctrl

  SEGMENTS IN THE MODULE
  ======================
CODE
  Relative segment, address: CODE_AREA 00000BDC - 00000BF7 (0x1c bytes), align: 2
  Segment part 5.
           ENTRY                   ADDRESS         REF BY
           =====                   =======         ======
           CAccelCtrl::delete ~CAccelCtrl(CAccelCtrl *)
                                   00000BDC        CMyBook::onClose() (main)
                                                   onPlayerClosed(void *, BOOK *) (main)
               stack 1 = 00000000 ( 00000008 )
    -------------------------------------------------------------------------
CODE
  Relative segment, address: CODE_AREA 00000BF8 - 00000C8F (0x98 bytes), align: 2
  Segment part 7.             Intra module refs:   Segment part 10
           ENTRY                   ADDRESS         REF BY
           =====                   =======         ======
           onAccTimer(u16, CAccelCtrl *)
                                   00000BF8 
               stack 1 = 00000000 ( 0000001C )
    -------------------------------------------------------------------------
CODE
  Relative segment, address: CODE_AREA 00000C90 - 00000CE3 (0x54 bytes), align: 2
  Segment part 9.
           ENTRY                   ADDRESS         REF BY
           =====                   =======         ======
           CAccelCtrl::CAccelCtrl()
                                   00000C90        walkman_Redraw(DISP_OBJ *, int, int, int) (main)
               stack 1 = 00000000 ( 00000008 )
    -------------------------------------------------------------------------
CODE
  Relative segment, address: CODE_AREA 00000CE4 - 00000CE7 (0x4 bytes), align: 2
  Segment part 10.            Intra module refs:   CAccelCtrl::CAccelCtrl()
                                                   onAccTimer(u16, CAccelCtrl *)
    -------------------------------------------------------------------------
CODE
  Relative segment, address: CODE_AREA 00000CE8 - 00000D43 (0x5c bytes), align: 2
  Segment part 12.            Intra module refs:   CAccelCtrl::delete ~CAccelCtrl(CAccelCtrl *)
           ENTRY                   ADDRESS         REF BY
           =====                   =======         ======
           CAccelCtrl::~CAccelCtrl()
                                   00000CE8 
               stack 1 = 00000000 ( 00000008 )
    -------------------------------------------------------------------------
CODE
  Relative segment, address: CODE_AREA 00000D44 - 00000E23 (0xe0 bytes), align: 2
  Segment part 14.            Intra module refs:   CAccelCtrl::CAccelCtrl()
           ENTRY                   ADDRESS         REF BY
           =====                   =======         ======
           CAccelCtrl::identify_phone()
                                   00000D44 
    -------------------------------------------------------------------------
CODE
  Relative segment, address: CODE_AREA 00000E24 - 00000E2B (0x8 bytes), align: 2
  Segment part 16.
           ENTRY                   ADDRESS         REF BY
           =====                   =======         ======
           CAccelCtrl::getstatus()
                                   00000E24        onPlayerClosed(void *, BOOK *) (main)
    -------------------------------------------------------------------------
CODE
  Relative segment, address: CODE_AREA 00000E2C - 00000E8F (0x64 bytes), align: 2
  Segment part 18.
           ENTRY                   ADDRESS         REF BY
           =====                   =======         ======
           CAccelCtrl::AddHook(void (__atpcs __interwork *)(void *, int, int), char)
                                   00000E2C        onPlayerClosed(void *, BOOK *) (main)
                                                   walkman_Redraw(DISP_OBJ *, int, int, int) (main)
               stack 1 = 00000000 ( 00000010 )
    -------------------------------------------------------------------------
CODE
  Relative segment, address: CODE_AREA 00000E90 - 00000EEF (0x60 bytes), align: 2
  Segment part 28.
           ENTRY                   ADDRESS         REF BY
           =====                   =======         ======
           CAccelCtrl::getorientation(int, int)
                                   00000E90        onAccel(void *, int, int) (main)

    *************************************************************************

  FILE NAME : Z:\home\perk11\www\perk11.info\svn\SE\WalkmanDisplay\Release_RU\Obj\cl.r79
  PROGRAM MODULE, NAME : cl

  SEGMENTS IN THE MODULE
  ======================
DATA_Z
  Relative segment, address: CODE_AREA 0000E440 - 0000E443 (0x4 bytes), align: 2
  Segment part 3.             Intra module refs:   CBook::CBook(char *, PAGE_DESC const *)
           ENTRY                   ADDRESS         REF BY
           =====                   =======         ======
           MyBook                  0000E440        Segment part 107 (main)
                                                   Segment part 65 (main)
                                                   walkman_Redraw(DISP_OBJ *, int, int, int) (main)
    -------------------------------------------------------------------------
CODE
  Relative segment, address: CODE_AREA 00000EF0 - 00000EFB (0xc bytes), align: 2
  Segment part 7.             Intra module refs:   CBook::CBook(char *, PAGE_DESC const *)
           LOCAL                   ADDRESS         
           =====                   =======         
           __onClose(BOOK *)       00000EF0 
               stack 1 = 00000000 ( 00000004 )
    -------------------------------------------------------------------------
CODE
  Relative segment, address: CODE_AREA 00000EFC - 00000F47 (0x4c bytes), align: 2
  Segment part 9.
           ENTRY                   ADDRESS         REF BY
           =====                   =======         ======
           CBook::CBook(char *, PAGE_DESC const *)
                                   00000EFC        CMyBook::CMyBook() (main)
               stack 1 = 00000000 ( 00000010 )
    -------------------------------------------------------------------------
CODE
  Relative segment, address: CODE_AREA 00000F48 - 00000F53 (0xc bytes), align: 2
  Segment part 11.
           ENTRY                   ADDRESS         REF BY
           =====                   =======         ======
           CBook::destroy()        00000F48        TerminateElf(void *, BOOK *) (main)
               stack 1 = 00000000 ( 00000004 )
    -------------------------------------------------------------------------
CODE
  Relative segment, address: CODE_AREA 00000F54 - 00000F6B (0x18 bytes), align: 2
  Segment part 13.            Intra module refs:   CBook::__vtbl
           ENTRY                   ADDRESS         REF BY
           =====                   =======         ======
           CBook::~CBook()         00000F54        CMyBook::~CMyBook() (main)
               stack 1 = 00000000 ( 00000004 )
    -------------------------------------------------------------------------
CODE
  Relative segment, address: CODE_AREA 00000F6C - 00000F6F (0x4 bytes), align: 2
  Segment part 15.            Intra module refs:   CBook::__vtbl
           ENTRY                   ADDRESS         REF BY
           =====                   =======         ======
           CBook::onClose()        00000F6C 
    -------------------------------------------------------------------------
DATA_C
  Relative segment, address: CODE_AREA 0000A4E0 - 0000A4E7 (0x8 bytes), align: 2
  Segment part 2.             Intra module refs:   CBook::CBook(char *, PAGE_DESC const *)
           ENTRY                   ADDRESS         REF BY
           =====                   =======         ======
           CBook::__vtbl           0000A4E0 

    *************************************************************************

  FILE NAME : Z:\home\perk11\www\perk11.info\svn\SE\WalkmanDisplay\Release_RU\Obj\conf_loader.r79
  PROGRAM MODULE, NAME : conf_loader

  SEGMENTS IN THE MODULE
  ======================
DATA_I
  Relative segment, address: DATA_AREA 00000010 - 00000017 (0x8 bytes), align: 2
  Segment part 6.             Intra module refs:   Segment part 14
           ENTRY                   ADDRESS         REF BY
           =====                   =======         ======
           successed_config_name   00000014        Segment part 53 (main)
                                                   walkman_Redraw(DISP_OBJ *, int, int, int) (main)
           successed_config_path   00000010        Segment part 52 (main)
                                                   walkman_Redraw(DISP_OBJ *, int, int, int) (main)
    -------------------------------------------------------------------------
CODE
  Relative segment, address: CODE_AREA 00000F70 - 0000106B (0xfc bytes), align: 2
  Segment part 9.             Intra module refs:   InitConfig()
           ENTRY                   ADDRESS         REF BY
           =====                   =======         ======
           LoadConfigData(wchar_t const *, wchar_t const *)
                                   00000F70 
               stack 1 = 00000000 ( 00000040 )
    -------------------------------------------------------------------------
CODE
  Relative segment, address: CODE_AREA 0000106C - 00001103 (0x98 bytes), align: 2
  Segment part 11.            Intra module refs:   InitConfig()
           ENTRY                   ADDRESS         REF BY
           =====                   =======         ======
           SaveConfigData(wchar_t const *, wchar_t const *)
                                   0000106C        walkman_Redraw(DISP_OBJ *, int, int, int) (main)
               stack 1 = 00000000 ( 00000020 )
    -------------------------------------------------------------------------
CODE
  Relative segment, address: CODE_AREA 00001104 - 00001107 (0x4 bytes), align: 2
  Segment part 12.            Intra module refs:   LoadConfigData(wchar_t const *, wchar_t const *)
                                                   SaveConfigData(wchar_t const *, wchar_t const *)
    -------------------------------------------------------------------------
CODE
  Relative segment, address: CODE_AREA 00001108 - 0000110B (0x4 bytes), align: 2
  Segment part 13.            Intra module refs:   LoadConfigData(wchar_t const *, wchar_t const *)
                                                   SaveConfigData(wchar_t const *, wchar_t const *)
    -------------------------------------------------------------------------
CODE
  Relative segment, address: CODE_AREA 0000110C - 0000110F (0x4 bytes), align: 2
  Segment part 14.            Intra module refs:   LoadConfigData(wchar_t const *, wchar_t const *)
                                                   SaveConfigData(wchar_t const *, wchar_t const *)
    -------------------------------------------------------------------------
CODE
  Relative segment, address: CODE_AREA 00001110 - 00001177 (0x68 bytes), align: 2
  Segment part 16.
           ENTRY                   ADDRESS         REF BY
           =====                   =======         ======
           InitConfig()            00001110        main (main)
                                                   onReconfig(void *, BOOK *) (main)
               stack 1 = 00000000 ( 00000008 )
    -------------------------------------------------------------------------
DATA_ID
  Relative segment, address: CODE_AREA 00000010 - 00000017 (0x8 bytes), align: 2
  Segment part 7.             Intra module refs:   Segment part 6
    -------------------------------------------------------------------------
DATA_C
  Relative segment, address: CODE_AREA 0000BBFC - 0000BBFD (0x2 bytes), align: 1
  Segment part 2.             Intra module refs:   Segment part 7
    -------------------------------------------------------------------------
DATA_C
  Relative segment, address: CODE_AREA 0000A4E8 - 0000A517 (0x30 bytes), align: 2
  Segment part 3.             Intra module refs:   LoadConfigData(wchar_t const *, wchar_t const *)
    -------------------------------------------------------------------------
DATA_C
  Relative segment, address: CODE_AREA 0000A518 - 0000A543 (0x2c bytes), align: 2
  Segment part 4.             Intra module refs:   SaveConfigData(wchar_t const *, wchar_t const *)
    -------------------------------------------------------------------------
DATA_C
  Relative segment, address: CODE_AREA 0000A544 - 0000A56B (0x28 bytes), align: 2
  Segment part 5.             Intra module refs:   InitConfig()

    *************************************************************************

  FILE NAME : Z:\home\perk11\www\perk11.info\svn\SE\WalkmanDisplay\Release_RU\Obj\config_data.r79
  PROGRAM MODULE, NAME : config_data

  SEGMENTS IN THE MODULE
  ======================
CONFIG_C
  Relative segment, address: CODE_AREA 0000F858 - 0000F883 (0x2c bytes), align: 2
  Segment part 2. ROOT.
    -------------------------------------------------------------------------
CONFIG_C
  Relative segment, address: CODE_AREA 0000F884 - 0000F887 (0x4 bytes), align: 2
  Segment part 3. ROOT.
           ENTRY                   ADDRESS         REF BY
           =====                   =======         ======
           use_pauseicn            0000F884        walkman_Redraw(DISP_OBJ *, int, int, int) (main)
    -------------------------------------------------------------------------
CONFIG_C
  Relative segment, address: CODE_AREA 0000F888 - 0000F8B3 (0x2c bytes), align: 2
  Segment part 4. ROOT.
    -------------------------------------------------------------------------
CONFIG_C
  Relative segment, address: CODE_AREA 0000F8B4 - 0000F8B7 (0x4 bytes), align: 2
  Segment part 5. ROOT.
           ENTRY                   ADDRESS         REF BY
           =====                   =======         ======
           key_rotation            0000F8B4        NewKey(int, int, int, LPARAM, DISP_OBJ *) (main)
    -------------------------------------------------------------------------
CONFIG_C
  Relative segment, address: CODE_AREA 0000F8B8 - 0000F8BB (0x4 bytes), align: 2
  Segment part 6. ROOT.
           ENTRY                   ADDRESS         REF BY
           =====                   =======         ======
           key_rotation_mode       0000F8B8        NewKey(int, int, int, LPARAM, DISP_OBJ *) (main)
    -------------------------------------------------------------------------
CONFIG_C
  Relative segment, address: CODE_AREA 0000F8BC - 0000F8E7 (0x2c bytes), align: 2
  Segment part 7. ROOT.
    -------------------------------------------------------------------------
CONFIG_C
  Relative segment, address: CODE_AREA 0000F8E8 - 0000F8EB (0x4 bytes), align: 2
  Segment part 8. ROOT.
           ENTRY                   ADDRESS         REF BY
           =====                   =======         ======
           use_accel               0000F8E8        Segment part 115 (main)
                                                   Segment part 36 (main)
                                                   walkman_Redraw(DISP_OBJ *, int, int, int) (main)
    -------------------------------------------------------------------------
CONFIG_C
  Relative segment, address: CODE_AREA 0000F8EC - 0000F94B (0x60 bytes), align: 2
  Segment part 9. ROOT.
    -------------------------------------------------------------------------
CONFIG_C
  Relative segment, address: CODE_AREA 0000F94C - 0000F977 (0x2c bytes), align: 2
  Segment part 10. ROOT.
    -------------------------------------------------------------------------
CONFIG_C
  Relative segment, address: CODE_AREA 0000F978 - 0000F97B (0x4 bytes), align: 2
  Segment part 11. ROOT.
           ENTRY                   ADDRESS         REF BY
           =====                   =======         ======
           use_albumpng            0000F978        GetCover(void *, wchar_t *, wchar_t *, METADATA *) (DecoderInit)
    -------------------------------------------------------------------------
CONFIG_C
  Relative segment, address: CODE_AREA 0000F97C - 0000F9A7 (0x2c bytes), align: 2
  Segment part 12. ROOT.
    -------------------------------------------------------------------------
CONFIG_C
  Relative segment, address: CODE_AREA 0000F9A8 - 0000F9AB (0x4 bytes), align: 2
  Segment part 13. ROOT.
           ENTRY                   ADDRESS         REF BY
           =====                   =======         ======
           img_priority            0000F9A8        init_resources(wchar_t *) (images)
    -------------------------------------------------------------------------
CONFIG_C
  Relative segment, address: CODE_AREA 0000F9AC - 0000FA0B (0x60 bytes), align: 2
  Segment part 14. ROOT.
    -------------------------------------------------------------------------
CONFIG_C
  Relative segment, address: CODE_AREA 0000FA0C - 0000FA37 (0x2c bytes), align: 2
  Segment part 15. ROOT.
    -------------------------------------------------------------------------
CONFIG_C
  Relative segment, address: CODE_AREA 0000FA38 - 0000FA3B (0x4 bytes), align: 2
  Segment part 16. ROOT.
           ENTRY                   ADDRESS         REF BY
           =====                   =======         ======
           use_vbr                 0000FA38        walkman_Redraw(DISP_OBJ *, int, int, int) (main)
    -------------------------------------------------------------------------
CONFIG_C
  Relative segment, address: CODE_AREA 0000FA3C - 0000FA67 (0x2c bytes), align: 2
  Segment part 17. ROOT.
    -------------------------------------------------------------------------
CONFIG_C
  Relative segment, address: CODE_AREA 0000FA68 - 0000FA6B (0x4 bytes), align: 2
  Segment part 18. ROOT.
           ENTRY                   ADDRESS         REF BY
           =====                   =======         ======
           skin_cfg                0000FA68        skin_InitConfig(wchar_t *, int) (skin_loader)
    -------------------------------------------------------------------------
CONFIG_C
  Relative segment, address: CODE_AREA 0000FA6C - 0000FAAB (0x40 bytes), align: 2
  Segment part 19. ROOT.
    -------------------------------------------------------------------------
CONFIG_C
  Relative segment, address: CODE_AREA 0000FAAC - 0000FAD7 (0x2c bytes), align: 2
  Segment part 20. ROOT.
    -------------------------------------------------------------------------
CONFIG_C
  Relative segment, address: CODE_AREA 0000FAD8 - 0000FB03 (0x2c bytes), align: 2
  Segment part 21. ROOT.
    -------------------------------------------------------------------------
CONFIG_C
  Relative segment, address: CODE_AREA 0000FB04 - 0000FB07 (0x4 bytes), align: 2
  Segment part 22. ROOT.
           ENTRY                   ADDRESS         REF BY
           =====                   =======         ======
           restr_CoverAlbum        0000FB04        walkman_Redraw(DISP_OBJ *, int, int, int) (main)
    -------------------------------------------------------------------------
CONFIG_C
  Relative segment, address: CODE_AREA 0000FB08 - 0000FB33 (0x2c bytes), align: 2
  Segment part 23. ROOT.
    -------------------------------------------------------------------------
CONFIG_C
  Relative segment, address: CODE_AREA 0000FB34 - 0000FB5F (0x2c bytes), align: 2
  Segment part 24. ROOT.
    -------------------------------------------------------------------------
CONFIG_C
  Relative segment, address: CODE_AREA 0000FB60 - 0000FB63 (0x4 bytes), align: 2
  Segment part 25. ROOT.
           ENTRY                   ADDRESS         REF BY
           =====                   =======         ======
           phone                   0000FB60        walkman_Redraw(DISP_OBJ *, int, int, int) (main)
    -------------------------------------------------------------------------
CONFIG_C
  Relative segment, address: CODE_AREA 0000FB64 - 0000FBC3 (0x60 bytes), align: 2
  Segment part 26. ROOT.
    -------------------------------------------------------------------------
CONFIG_C
  Relative segment, address: CODE_AREA 0000FBC4 - 0000FBEF (0x2c bytes), align: 2
  Segment part 27. ROOT.
    -------------------------------------------------------------------------
CONFIG_C
  Relative segment, address: CODE_AREA 0000FBF0 - 0000FBF3 (0x4 bytes), align: 2
  Segment part 28. ROOT.
           ENTRY                   ADDRESS         REF BY
           =====                   =======         ======
           hidesoftkeys            0000FBF0        softredraw(DISP_OBJ *, int, int, int) (main)
    -------------------------------------------------------------------------
CONFIG_C
  Relative segment, address: CODE_AREA 0000FBF4 - 0000FC73 (0x80 bytes), align: 2
  Segment part 29. ROOT.
    -------------------------------------------------------------------------
CONFIG_C
  Relative segment, address: CODE_AREA 0000FC74 - 0000FC9F (0x2c bytes), align: 2
  Segment part 30. ROOT.
    -------------------------------------------------------------------------
CONFIG_C
  Relative segment, address: CODE_AREA 0000FCA0 - 0000FCA3 (0x4 bytes), align: 2
  Segment part 31. ROOT.
           ENTRY                   ADDRESS         REF BY
           =====                   =======         ======
           cfg_orient              0000FCA0        walkman_Redraw(DISP_OBJ *, int, int, int) (main)
    -------------------------------------------------------------------------
CONFIG_C
  Relative segment, address: CODE_AREA 0000FCA4 - 0000FCE3 (0x40 bytes), align: 2
  Segment part 32. ROOT.

    *************************************************************************

  FILE NAME : Z:\home\perk11\www\perk11.info\svn\SE\WalkmanDisplay\Release_RU\Obj\decoder2.r79
  PROGRAM MODULE, NAME : decoder2

  SEGMENTS IN THE MODULE
  ======================
CODE
  Relative segment, address: CODE_AREA 00001178 - 000011EB (0x74 bytes), align: 2
  Segment part 7.             Intra module refs:   ReadMP3Information(wchar_t *, wchar_t *)
           ENTRY                   ADDRESS         REF BY
           =====                   =======         ======
           synchsafeToNormal(char *)
                                   00001178 
               stack 1 = 00000000 ( 00000008 )
    -------------------------------------------------------------------------
DATA_Z
  Relative segment, address: CODE_AREA 0000E444 - 0000E450 (0xd bytes), align: 2
  Segment part 5.             Intra module refs:   LoadVBRHeader(byte *)
                                                   Segment part 55
                                                   Segment part 58
           ENTRY                   ADDRESS         REF BY
           =====                   =======         ======
           bithdr                  0000E448 
           boolVBitRate            0000E450 
           intVFrames              0000E44C 
           lngFileSize             0000E444 
    -------------------------------------------------------------------------
CODE
  Relative segment, address: CODE_AREA 000011EC - 000013DB (0x1f0 bytes), align: 2
  Segment part 9.
           ENTRY                   ADDRESS         REF BY
           =====                   =======         ======
           ReadMP3Information(wchar_t *, wchar_t *)
                                   000011EC        decoder_Init(wchar_t *, wchar_t *) (DecoderInit)
               stack 1 = 00000000 ( 000000C4 )
    -------------------------------------------------------------------------
CODE
  Relative segment, address: CODE_AREA 000013DC - 00001407 (0x2c bytes), align: 2
  Segment part 11.            Intra module refs:   ReadMP3Information(wchar_t *, wchar_t *)
           ENTRY                   ADDRESS         REF BY
           =====                   =======         ======
           LoadMP3Header(byte *)   000013DC 
    -------------------------------------------------------------------------
CODE
  Relative segment, address: CODE_AREA 00001408 - 0000147B (0x74 bytes), align: 2
  Segment part 13.            Intra module refs:   ReadMP3Information(wchar_t *, wchar_t *)
           ENTRY                   ADDRESS         REF BY
           =====                   =======         ======
           LoadVBRHeader(byte *)   00001408 
    -------------------------------------------------------------------------
CODE
  Relative segment, address: CODE_AREA 0000147C - 000014E3 (0x68 bytes), align: 2
  Segment part 45.            Intra module refs:   ReadMP3Information(wchar_t *, wchar_t *)
           ENTRY                   ADDRESS         REF BY
           =====                   =======         ======
           IsValidHeader()         0000147C 
    -------------------------------------------------------------------------
CODE
  Relative segment, address: CODE_AREA 000014E4 - 00001537 (0x54 bytes), align: 2
  Segment part 47.            Intra module refs:   ReadMP3Information(wchar_t *, wchar_t *)
                                                   getBitrate()
                                                   getNumberOfFrames()
           ENTRY                   ADDRESS         REF BY
           =====                   =======         ======
           getFrequency()          000014E4 
               stack 1 = 00000000 ( 00000064 )
    -------------------------------------------------------------------------
CODE
  Relative segment, address: CODE_AREA 00001538 - 000015EB (0xb4 bytes), align: 2
  Segment part 49.            Intra module refs:   getBitrate()
           ENTRY                   ADDRESS         REF BY
           =====                   =======         ======
           getNumberOfFrames()     00001538 
               stack 1 = 00000000 ( 0000001C )
    -------------------------------------------------------------------------
CODE
  Relative segment, address: CODE_AREA 000015EC - 00001703 (0x118 bytes), align: 2
  Segment part 51.            Intra module refs:   ReadMP3Information(wchar_t *, wchar_t *)
                                                   getLengthInSeconds()
                                                   getNumberOfFrames()
           ENTRY                   ADDRESS         REF BY
           =====                   =======         ======
           getBitrate()            000015EC 
               stack 1 = 00000000 ( 00000198 )
    -------------------------------------------------------------------------
CODE
  Relative segment, address: CODE_AREA 00001704 - 00001707 (0x4 bytes), align: 2
  Segment part 52.            Intra module refs:   getBitrate()
                                                   getNumberOfFrames()
    -------------------------------------------------------------------------
CODE
  Relative segment, address: CODE_AREA 00001708 - 0000174F (0x48 bytes), align: 2
  Segment part 54.            Intra module refs:   ReadMP3Information(wchar_t *, wchar_t *)
           ENTRY                   ADDRESS         REF BY
           =====                   =======         ======
           getMode()               00001708 
    -------------------------------------------------------------------------
CODE
  Relative segment, address: CODE_AREA 00001750 - 00001753 (0x4 bytes), align: 2
  Segment part 55.            Intra module refs:   IsValidHeader()
                                                   LoadMP3Header(byte *)
                                                   getFrequency()
                                                   getMode()
    -------------------------------------------------------------------------
CODE
  Relative segment, address: CODE_AREA 00001754 - 0000178F (0x3c bytes), align: 2
  Segment part 57.            Intra module refs:   ReadMP3Information(wchar_t *, wchar_t *)
           ENTRY                   ADDRESS         REF BY
           =====                   =======         ======
           getLengthInSeconds()    00001754 
               stack 1 = 00000000 ( 00000008 )
    -------------------------------------------------------------------------
CODE
  Relative segment, address: CODE_AREA 00001790 - 00001793 (0x4 bytes), align: 2
  Segment part 58.            Intra module refs:   ReadMP3Information(wchar_t *, wchar_t *)
                                                   getBitrate()
                                                   getLengthInSeconds()
                                                   getNumberOfFrames()
    -------------------------------------------------------------------------
DATA_C
  Relative segment, address: CODE_AREA 0000A56C - 0000A5CF (0x64 bytes), align: 2
  Segment part 3.             Intra module refs:   getFrequency()
    -------------------------------------------------------------------------
DATA_C
  Relative segment, address: CODE_AREA 0000A5D0 - 0000A74F (0x180 bytes), align: 2
  Segment part 4.             Intra module refs:   getBitrate()

    *************************************************************************

  FILE NAME : Z:\home\perk11\www\perk11.info\svn\SE\WalkmanDisplay\Release_RU\Obj\encoding.r79
  PROGRAM MODULE, NAME : encoding

  SEGMENTS IN THE MODULE
  ======================
CODE
  Relative segment, address: CODE_AREA 00001794 - 000017E7 (0x54 bytes), align: 2
  Segment part 5.             Intra module refs:   Lang_Initialize()
           ENTRY                   ADDRESS         REF BY
           =====                   =======         ======
           checkfile(wchar_t *)    00001794 
               stack 1 = 00000000 ( 00000028 )
    -------------------------------------------------------------------------
DATA_Z
  Relative segment, address: CODE_AREA 0000E454 - 0000E457 (0x4 bytes), align: 2
  Segment part 3.             Intra module refs:   Segment part 12
           ENTRY                   ADDRESS         REF BY
           =====                   =======         ======
           fbuf                    0000E454 
    -------------------------------------------------------------------------
CODE
  Relative segment, address: CODE_AREA 000017E8 - 0000184B (0x64 bytes), align: 2
  Segment part 7.
           ENTRY                   ADDRESS         REF BY
           =====                   =======         ======
           char2unicode(wchar_t *, char const *, int)
                                   000017E8        metadata_Read(wchar_t *, wchar_t *, METADATA *, TAG_REQUEST) (tag)
               stack 1 = 00000000 ( 00000008 )
    -------------------------------------------------------------------------
CODE
  Relative segment, address: CODE_AREA 0000184C - 000018E7 (0x9c bytes), align: 2
  Segment part 9.
           ENTRY                   ADDRESS         REF BY
           =====                   =======         ======
           Lang_Initialize()       0000184C        main (main)
               stack 1 = 00000000 ( 0000002C )
    -------------------------------------------------------------------------
CODE
  Relative segment, address: CODE_AREA 000018E8 - 0000190B (0x24 bytes), align: 2
  Segment part 11.
           ENTRY                   ADDRESS         REF BY
           =====                   =======         ======
           Lang_Remove()           000018E8        CMyBook::onClose() (main)
               stack 1 = 00000000 ( 00000008 )
    -------------------------------------------------------------------------
CODE
  Relative segment, address: CODE_AREA 0000190C - 0000190F (0x4 bytes), align: 2
  Segment part 12.            Intra module refs:   Lang_Initialize()
                                                   Lang_Remove()
                                                   char2unicode(wchar_t *, char const *, int)
    -------------------------------------------------------------------------
DATA_C
  Relative segment, address: CODE_AREA 0000A750 - 0000A76B (0x1c bytes), align: 2
  Segment part 2.             Intra module refs:   Lang_Initialize()

    *************************************************************************

  FILE NAME : Z:\home\perk11\www\perk11.info\svn\SE\WalkmanDisplay\Release_RU\Obj\func.r79
  PROGRAM MODULE, NAME : func

  SEGMENTS IN THE MODULE
  ======================
ELFBEGIN
  Relative segment, address: CODE_AREA 00000000, align: 0
  Segment part 0. ROOT.
           ENTRY                   ADDRESS         REF BY
           =====                   =======         ======
           ELF_BEGIN               00000000        elf_exit() (main)
    -------------------------------------------------------------------------
CODE
  Relative segment, address: CODE_AREA 00001910 - 00001927 (0x18 bytes), align: 2
  Segment part 1. ROOT.
           ENTRY                   ADDRESS         REF BY
           =====                   =======         ======
           kill_data               00001910        elf_exit() (main)
           seqkill                 00001914 
           ASYNC                   00001924 
           SYNC                    00001920 
    -------------------------------------------------------------------------
DYN_CONST
  Relative segment, address: CODE_AREA 00016198 - 0001619B (0x4 bytes), align: 2
  Segment part 434.
           ENTRY                   ADDRESS         REF BY
           =====                   =======         ======
           UI_KEYLOCK_ACTIVATE_EVENT
                                   00016198        checkConsts() (main)
    -------------------------------------------------------------------------
DYN_CONST
  Relative segment, address: CODE_AREA 0001619C - 0001619F (0x4 bytes), align: 2
  Segment part 435.
           ENTRY                   ADDRESS         REF BY
           =====                   =======         ======
           UI_KEYLOCK_DEACTIVATE_EVENT
                                   0001619C        checkConsts() (main)
    -------------------------------------------------------------------------
DYN_CONST
  Relative segment, address: CODE_AREA 000161A0 - 000161A3 (0x4 bytes), align: 2
  Segment part 472.
           ENTRY                   ADDRESS         REF BY
           =====                   =======         ======
           UI_MEDIAPLAYER_PLAY_PRESSED_EVENT
                                   000161A0        checkConsts() (main)
    -------------------------------------------------------------------------
DYN_CONST
  Relative segment, address: CODE_AREA 000161A4 - 000161A7 (0x4 bytes), align: 2
  Segment part 475.
           ENTRY                   ADDRESS         REF BY
           =====                   =======         ======
           UI_MEDIAPLAYER_DESTROYED_EVENT
                                   000161A4        checkConsts() (main)
    -------------------------------------------------------------------------
DYN_CONST
  Relative segment, address: CODE_AREA 000161A8 - 000161AB (0x4 bytes), align: 2
  Segment part 476.
           ENTRY                   ADDRESS         REF BY
           =====                   =======         ======
           UI_MEDIAPLAYER_AUDIO_PLAYING_TIME_EVENT
                                   000161A8        checkConsts() (main)
    -------------------------------------------------------------------------
DYN_CONST_DESC
  Relative segment, address: CODE_AREA 000161AC - 000161AF (0x4 bytes), align: 2
  Segment part 681. ROOT.
    -------------------------------------------------------------------------
DYN_PAGE
  Relative segment, address: CODE_AREA 000161B0, align: 2
  Segment part 682.
    -------------------------------------------------------------------------
DYN_PAGE_DESC
  Relative segment, address: CODE_AREA 00016220 - 00016223 (0x4 bytes), align: 2
  Segment part 683. ROOT.

    *************************************************************************

  FILE NAME : Z:\home\perk11\www\perk11.info\svn\SE\WalkmanDisplay\Release_RU\Obj\images.r79
  PROGRAM MODULE, NAME : images

  SEGMENTS IN THE MODULE
  ======================
CODE
  Relative segment, address: CODE_AREA 00001928 - 0000194F (0x28 bytes), align: 2
  Segment part 36.            Intra module refs:   init_resources(wchar_t *)
           ENTRY                   ADDRESS         REF BY
           =====                   =======         ======
           GetIconID(wchar_t *)    00001928 
               stack 1 = 00000000 ( 00000008 )
    -------------------------------------------------------------------------
DATA_I
  Relative segment, address: DATA_AREA 00000018 - 00000107 (0xf0 bytes), align: 2
  Segment part 31.            Intra module refs:   Segment part 41
           ENTRY                   ADDRESS         REF BY
           =====                   =======         ======
           cover_h_                0000001C        walkman_Redraw(DISP_OBJ *, int, int, int) (main)
           cover_v_                0000001E        walkman_Redraw(DISP_OBJ *, int, int, int) (main)
           images                  00000028        walkman_Redraw(DISP_OBJ *, int, int, int) (main)
           images_fnames           00000060 
           images_offsets          00000080 
           main_icons              00000058        walkman_Redraw(DISP_OBJ *, int, int, int) (main)
           main_icons_fnames       000000FC 
           media_fnames            000000DC 
           media_images            00000048        walkman_Redraw(DISP_OBJ *, int, int, int) (main)
           media_names             000000BC 
           navigimg                00000026        walkman_Redraw(DISP_OBJ *, int, int, int) (main)
           pauseicn                00000024        walkman_Redraw(DISP_OBJ *, int, int, int) (main)
           playicn                 00000020        walkman_Redraw(DISP_OBJ *, int, int, int) (main)
           playnow_h               00000018        walkman_Redraw(DISP_OBJ *, int, int, int) (main)
           playview_h              0000001A        Segment part 75 (main)
           presets                 00000038        walkman_Redraw(DISP_OBJ *, int, int, int) (main)
           presets_names           000000A0 
           stopicn                 00000022        walkman_Redraw(DISP_OBJ *, int, int, int) (main)
    -------------------------------------------------------------------------
CODE
  Relative segment, address: CODE_AREA 00001950 - 00001FD7 (0x688 bytes), align: 2
  Segment part 38.
           ENTRY                   ADDRESS         REF BY
           =====                   =======         ======
           init_resources(wchar_t *)
                                   00001950        onStyleChanged(void *, BOOK *) (main)
                                                   walkman_Redraw(DISP_OBJ *, int, int, int) (main)
               stack 1 = 00000000 ( 000000B0 )
    -------------------------------------------------------------------------
CODE
  Relative segment, address: CODE_AREA 00001FD8 - 0000215B (0x184 bytes), align: 2
  Segment part 40.
           ENTRY                   ADDRESS         REF BY
           =====                   =======         ======
           deinit_resources()      00001FD8        CMyBook::onClose() (main)
                                                   onPlayerClosed(void *, BOOK *) (main)
                                                   onStyleChanged(void *, BOOK *) (main)
                                                   walkman_Redraw(DISP_OBJ *, int, int, int) (main)
               stack 1 = 00000000 ( 00000014 )
    -------------------------------------------------------------------------
CODE
  Relative segment, address: CODE_AREA 0000215C - 0000215F (0x4 bytes), align: 2
  Segment part 41.            Intra module refs:   deinit_resources()
                                                   init_resources(wchar_t *)
    -------------------------------------------------------------------------
DATA_ID
  Relative segment, address: CODE_AREA 00000018 - 00000107 (0xf0 bytes), align: 2
  Segment part 32.            Intra module refs:   Segment part 31
    -------------------------------------------------------------------------
DATA_C
  Relative segment, address: CODE_AREA 0000A76C - 0000A7AB (0x40 bytes), align: 2
  Segment part 2.             Intra module refs:   Segment part 32
    -------------------------------------------------------------------------
DATA_C
  Relative segment, address: CODE_AREA 0000A7AC - 0000A7D3 (0x28 bytes), align: 2
  Segment part 3.             Intra module refs:   Segment part 32
    -------------------------------------------------------------------------
DATA_C
  Relative segment, address: CODE_AREA 0000A7D4 - 0000A803 (0x30 bytes), align: 2
  Segment part 4.             Intra module refs:   Segment part 32
    -------------------------------------------------------------------------
DATA_C
  Relative segment, address: CODE_AREA 0000A804 - 0000A83B (0x38 bytes), align: 2
  Segment part 5.             Intra module refs:   Segment part 32
    -------------------------------------------------------------------------
DATA_C
  Relative segment, address: CODE_AREA 0000A83C - 0000A867 (0x2c bytes), align: 2
  Segment part 6.             Intra module refs:   Segment part 32
    -------------------------------------------------------------------------
DATA_C
  Relative segment, address: CODE_AREA 0000A868 - 0000A887 (0x20 bytes), align: 2
  Segment part 7.             Intra module refs:   Segment part 32
    -------------------------------------------------------------------------
DATA_C
  Relative segment, address: CODE_AREA 0000A888 - 0000A8A3 (0x1c bytes), align: 2
  Segment part 8.             Intra module refs:   Segment part 32
    -------------------------------------------------------------------------
DATA_C
  Relative segment, address: CODE_AREA 0000A8A4 - 0000A8C3 (0x20 bytes), align: 2
  Segment part 9.             Intra module refs:   Segment part 32
    -------------------------------------------------------------------------
DATA_C
  Relative segment, address: CODE_AREA 0000A8C4 - 0000A8DF (0x1c bytes), align: 2
  Segment part 10.            Intra module refs:   Segment part 32
    -------------------------------------------------------------------------
DATA_C
  Relative segment, address: CODE_AREA 0000A8E0 - 0000AA8F (0x1b0 bytes), align: 2
  Segment part 11.            Intra module refs:   Segment part 32
                                                   init_resources(wchar_t *)
    -------------------------------------------------------------------------
DATA_C
  Relative segment, address: CODE_AREA 0000AA90 - 0000AAB3 (0x24 bytes), align: 2
  Segment part 12.            Intra module refs:   Segment part 32
    -------------------------------------------------------------------------
DATA_C
  Relative segment, address: CODE_AREA 0000AAB4 - 0000AAD7 (0x24 bytes), align: 2
  Segment part 13.            Intra module refs:   Segment part 32
    -------------------------------------------------------------------------
DATA_C
  Relative segment, address: CODE_AREA 0000AAD8 - 0000AAFB (0x24 bytes), align: 2
  Segment part 14.            Intra module refs:   Segment part 32
    -------------------------------------------------------------------------
DATA_C
  Relative segment, address: CODE_AREA 0000AAFC - 0000AB1F (0x24 bytes), align: 2
  Segment part 15.            Intra module refs:   Segment part 32
    -------------------------------------------------------------------------
DATA_C
  Relative segment, address: CODE_AREA 0000AB20 - 0000AB43 (0x24 bytes), align: 2
  Segment part 16.            Intra module refs:   Segment part 32
    -------------------------------------------------------------------------
DATA_C
  Relative segment, address: CODE_AREA 0000AB44 - 0000AB67 (0x24 bytes), align: 2
  Segment part 17.            Intra module refs:   Segment part 32
    -------------------------------------------------------------------------
DATA_C
  Relative segment, address: CODE_AREA 0000AB68 - 0000AB87 (0x20 bytes), align: 2
  Segment part 18.            Intra module refs:   Segment part 32
    -------------------------------------------------------------------------
DATA_C
  Relative segment, address: CODE_AREA 0000AB88 - 0000ABAB (0x24 bytes), align: 2
  Segment part 19.            Intra module refs:   Segment part 32
    -------------------------------------------------------------------------
DATA_C
  Relative segment, address: CODE_AREA 0000ABAC - 0000ABCF (0x24 bytes), align: 2
  Segment part 20.            Intra module refs:   Segment part 32
    -------------------------------------------------------------------------
DATA_C
  Relative segment, address: CODE_AREA 0000ABD0 - 0000ABF7 (0x28 bytes), align: 2
  Segment part 21.            Intra module refs:   Segment part 32
    -------------------------------------------------------------------------
DATA_C
  Relative segment, address: CODE_AREA 0000ABF8 - 0000AC23 (0x2c bytes), align: 2
  Segment part 22.            Intra module refs:   Segment part 32
    -------------------------------------------------------------------------
DATA_C
  Relative segment, address: CODE_AREA 0000AC24 - 0000AC47 (0x24 bytes), align: 2
  Segment part 23.            Intra module refs:   Segment part 32
    -------------------------------------------------------------------------
DATA_C
  Relative segment, address: CODE_AREA 0000AC48 - 0000AC83 (0x3c bytes), align: 2
  Segment part 24.            Intra module refs:   Segment part 32
    -------------------------------------------------------------------------
DATA_C
  Relative segment, address: CODE_AREA 0000AC84 - 0000ACB3 (0x30 bytes), align: 2
  Segment part 25.            Intra module refs:   Segment part 32
    -------------------------------------------------------------------------
DATA_C
  Relative segment, address: CODE_AREA 0000ACB4 - 0000ACE7 (0x34 bytes), align: 2
  Segment part 26.            Intra module refs:   Segment part 32
    -------------------------------------------------------------------------
DATA_C
  Relative segment, address: CODE_AREA 0000ACE8 - 0000AD1F (0x38 bytes), align: 2
  Segment part 27.            Intra module refs:   Segment part 32
    -------------------------------------------------------------------------
DATA_C
  Relative segment, address: CODE_AREA 0000AD20 - 0000AD3F (0x20 bytes), align: 2
  Segment part 28.            Intra module refs:   Segment part 32
    -------------------------------------------------------------------------
DATA_C
  Relative segment, address: CODE_AREA 0000AD40 - 0000AD5F (0x20 bytes), align: 2
  Segment part 29.            Intra module refs:   Segment part 32
    -------------------------------------------------------------------------
DATA_C
  Relative segment, address: CODE_AREA 0000AD60 - 0000AD83 (0x24 bytes), align: 2
  Segment part 30.            Intra module refs:   Segment part 32

    *************************************************************************

  FILE NAME : Z:\home\perk11\www\perk11.info\svn\SE\WalkmanDisplay\Release_RU\Obj\main.r79
  PROGRAM MODULE, NAME : main

  SEGMENTS IN THE MODULE
  ======================
DATA_Z
  Relative segment, address: CODE_AREA 0000E458 - 0000EC57 (0x800 bytes), align: 2
  Segment part 21.            Intra module refs:   Segment part 105
           ENTRY                   ADDRESS         REF BY
           =====                   =======         ======
           extFolder               0000E858        checkfile(wchar_t *) (encoding)
           intFolder               0000E458        checkfile(wchar_t *) (encoding)
    -------------------------------------------------------------------------
CODE
  Relative segment, address: CODE_AREA 00002160 - 0000217B (0x1c bytes), align: 2
  Segment part 28.            Intra module refs:   Segment part 132
           ENTRY                   ADDRESS         REF BY
           =====                   =======         ======
           elf_exit()              00002160 
               stack 1 = 00000000 ( 00000004 )
    -------------------------------------------------------------------------
CODE
  Relative segment, address: CODE_AREA 0000217C - 000021B7 (0x3c bytes), align: 2
  Segment part 30.            Intra module refs:   Segment part 23
           ENTRY                   ADDRESS         REF BY
           =====                   =======         ======
           TerminateElf(void *, BOOK *)
                                   0000217C 
               stack 1 = 00000000 ( 00000008 )
    -------------------------------------------------------------------------
CODE
  Relative segment, address: CODE_AREA 000021B8 - 0000220B (0x54 bytes), align: 2
  Segment part 32.            Intra module refs:   Segment part 23
           ENTRY                   ADDRESS         REF BY
           =====                   =======         ======
           ShowAuthorInfo(void *, BOOK *)
                                   000021B8 
               stack 1 = 00000000 ( 00000014 )
    -------------------------------------------------------------------------
CODE
  Relative segment, address: CODE_AREA 0000220C - 000022C3 (0xb8 bytes), align: 2
  Segment part 34.            Intra module refs:   Segment part 23
           ENTRY                   ADDRESS         REF BY
           =====                   =======         ======
           onPlayerClosed(void *, BOOK *)
                                   0000220C 
               stack 1 = 00000000 ( 0000000C )
    -------------------------------------------------------------------------
CODE
  Relative segment, address: CODE_AREA 000022C4 - 000022C7 (0x4 bytes), align: 2
  Segment part 35.            Intra module refs:   onPlayerClosed(void *, BOOK *)
    -------------------------------------------------------------------------
CODE
  Relative segment, address: CODE_AREA 000022C8 - 000022CB (0x4 bytes), align: 2
  Segment part 36.            Intra module refs:   onPlayerClosed(void *, BOOK *)
    -------------------------------------------------------------------------
CODE
  Relative segment, address: CODE_AREA 000022CC - 000022CF (0x4 bytes), align: 2
  Segment part 37.            Intra module refs:   onPlayerClosed(void *, BOOK *)
    -------------------------------------------------------------------------
CODE
  Relative segment, address: CODE_AREA 000022D0 - 00002313 (0x44 bytes), align: 2
  Segment part 39.            Intra module refs:   Segment part 23
           ENTRY                   ADDRESS         REF BY
           =====                   =======         ======
           onPlayerOpened(void *, BOOK *)
                                   000022D0 
               stack 1 = 00000000 ( 0000000C )
    -------------------------------------------------------------------------
CODE
  Relative segment, address: CODE_AREA 00002314 - 00002317 (0x4 bytes), align: 2
  Segment part 40.            Intra module refs:   onPlayerOpened(void *, BOOK *)
    -------------------------------------------------------------------------
CODE
  Relative segment, address: CODE_AREA 00002318 - 000023EF (0xd8 bytes), align: 2
  Segment part 44.            Intra module refs:   Segment part 23
           ENTRY                   ADDRESS         REF BY
           =====                   =======         ======
           onKeylock(void *, BOOK *)
                                   00002318 
               stack 1 = 00000000 ( 00000014 )
    -------------------------------------------------------------------------
CODE
  Relative segment, address: CODE_AREA 000023F0 - 00002487 (0x98 bytes), align: 2
  Segment part 46.            Intra module refs:   Segment part 23
           ENTRY                   ADDRESS         REF BY
           =====                   =======         ======
           onPlay(void *, BOOK *)
                                   000023F0 
               stack 1 = 00000000 ( 0000000C )
    -------------------------------------------------------------------------
CODE
  Relative segment, address: CODE_AREA 00002488 - 0000248B (0x4 bytes), align: 2
  Segment part 47.            Intra module refs:   onPlay(void *, BOOK *)
    -------------------------------------------------------------------------
CODE
  Relative segment, address: CODE_AREA 0000248C - 000024D3 (0x48 bytes), align: 2
  Segment part 49.            Intra module refs:   Segment part 23
           ENTRY                   ADDRESS         REF BY
           =====                   =======         ======
           onUnlock(void *, BOOK *)
                                   0000248C 
               stack 1 = 00000000 ( 00000004 )
    -------------------------------------------------------------------------
CODE
  Relative segment, address: CODE_AREA 000024D4 - 00002583 (0xb0 bytes), align: 2
  Segment part 51.            Intra module refs:   Segment part 23
           ENTRY                   ADDRESS         REF BY
           =====                   =======         ======
           onReconfig(void *, BOOK *)
                                   000024D4 
               stack 1 = 00000000 ( 00000018 )
    -------------------------------------------------------------------------
CODE
  Relative segment, address: CODE_AREA 00002584 - 00002587 (0x4 bytes), align: 2
  Segment part 52.            Intra module refs:   onReconfig(void *, BOOK *)
    -------------------------------------------------------------------------
CODE
  Relative segment, address: CODE_AREA 00002588 - 0000258B (0x4 bytes), align: 2
  Segment part 53.            Intra module refs:   onReconfig(void *, BOOK *)
    -------------------------------------------------------------------------
CODE
  Relative segment, address: CODE_AREA 0000258C - 000026D7 (0x14c bytes), align: 2
  Segment part 55.            Intra module refs:   Segment part 23
           ENTRY                   ADDRESS         REF BY
           =====                   =======         ======
           onStyleChanged(void *, BOOK *)
                                   0000258C 
               stack 1 = 00000000 ( 00000024 )
    -------------------------------------------------------------------------
CODE
  Relative segment, address: CODE_AREA 000026D8 - 0000270F (0x38 bytes), align: 2
  Segment part 57.            Intra module refs:   CMyBook::onClose()
                                                   onPlayerClosed(void *, BOOK *)
           ENTRY                   ADDRESS         REF BY
           =====                   =======         ======
           ReturnRedraw()          000026D8 
               stack 1 = 00000000 ( 00000004 )
    -------------------------------------------------------------------------
CODE
  Relative segment, address: CODE_AREA 00002710 - 000027A3 (0x94 bytes), align: 2
  Segment part 59.            Intra module refs:   Segment part 23
           ENTRY                   ADDRESS         REF BY
           =====                   =======         ======
           SB_ELF_Killed(void *, BOOK *)
                                   00002710 
               stack 1 = 00000000 ( 00000014 )
    -------------------------------------------------------------------------
CODE
  Relative segment, address: CODE_AREA 000027A4 - 000027A7 (0x4 bytes), align: 2
  Segment part 60.            Intra module refs:   SB_ELF_Killed(void *, BOOK *)
    -------------------------------------------------------------------------
CODE
  Relative segment, address: CODE_AREA 000027A8 - 00002827 (0x80 bytes), align: 2
  Segment part 62.            Intra module refs:   Segment part 23
           ENTRY                   ADDRESS         REF BY
           =====                   =======         ======
           onBcfgConfig(void *, BOOK *)
                                   000027A8 
               stack 1 = 00000000 ( 00000014 )
    -------------------------------------------------------------------------
CODE
  Relative segment, address: CODE_AREA 00002828 - 0000282B (0x4 bytes), align: 2
  Segment part 63.            Intra module refs:   onBcfgConfig(void *, BOOK *)
                                                   onReconfig(void *, BOOK *)
    -------------------------------------------------------------------------
CODE
  Relative segment, address: CODE_AREA 0000282C - 0000282F (0x4 bytes), align: 2
  Segment part 64.            Intra module refs:   onBcfgConfig(void *, BOOK *)
                                                   onReconfig(void *, BOOK *)
    -------------------------------------------------------------------------
CODE
  Relative segment, address: CODE_AREA 00002830 - 00002833 (0x4 bytes), align: 2
  Segment part 65.            Intra module refs:   onBcfgConfig(void *, BOOK *)
    -------------------------------------------------------------------------
CODE
  Relative segment, address: CODE_AREA 00002834 - 00002877 (0x44 bytes), align: 2
  Segment part 67.            Intra module refs:   onVolumeChange(void *, BOOK *)
           ENTRY                   ADDRESS         REF BY
           =====                   =======         ======
           onTimer(u16, LPARAM)    00002834 
               stack 1 = 00000000 ( 00000008 )
    -------------------------------------------------------------------------
CODE
  Relative segment, address: CODE_AREA 00002878 - 00002907 (0x90 bytes), align: 2
  Segment part 69.            Intra module refs:   Segment part 23
           ENTRY                   ADDRESS         REF BY
           =====                   =======         ======
           onVolumeChange(void *, BOOK *)
                                   00002878 
               stack 1 = 00000000 ( 00000008 )
    -------------------------------------------------------------------------
CODE
  Relative segment, address: CODE_AREA 00002908 - 0000290B (0x4 bytes), align: 2
  Segment part 70.            Intra module refs:   onTimer(u16, LPARAM)
                                                   onVolumeChange(void *, BOOK *)
    -------------------------------------------------------------------------
DYN_PAGE
  Relative segment, address: CODE_AREA 000161B0 - 0001621F (0x70 bytes), align: 2
  Segment part 23.            Intra module refs:   CMyBook::__vtbl
    -------------------------------------------------------------------------
DATA_C
  Relative segment, address: CODE_AREA 0000AD84 - 0000ADDF (0x5c bytes), align: 2
  Segment part 2.             Intra module refs:   ShowAuthorInfo(void *, BOOK *)
    -------------------------------------------------------------------------
DATA_C
  Relative segment, address: CODE_AREA 0000ADE0 - 0000B167 (0x388 bytes), align: 2
  Segment part 4.             Intra module refs:   Segment part 133
                                                   Segment part 79
                                                   walkman_Redraw(DISP_OBJ *, int, int, int)
    -------------------------------------------------------------------------
DATA_C
  Relative segment, address: CODE_AREA 0000B168 - 0000B1AB (0x44 bytes), align: 2
  Segment part 5.             Intra module refs:   onReconfig(void *, BOOK *)
    -------------------------------------------------------------------------
DATA_C
  Relative segment, address: CODE_AREA 0000B1AC - 0000B1FB (0x50 bytes), align: 2
  Segment part 6.             Intra module refs:   onBcfgConfig(void *, BOOK *)
    -------------------------------------------------------------------------
DATA_C
  Relative segment, address: CODE_AREA 0000B1FC - 0000B227 (0x2c bytes), align: 2
  Segment part 7.             Intra module refs:   ReturnRedraw()
    -------------------------------------------------------------------------
DATA_C
  Relative segment, address: CODE_AREA 0000B228 - 0000B24B (0x24 bytes), align: 2
  Segment part 8.             Intra module refs:   GetRedraw(DISP_OBJ_ONREDRAW_METHOD)
    -------------------------------------------------------------------------
DATA_C
  Relative segment, address: CODE_AREA 0000B24C - 0000B25B (0x10 bytes), align: 2
  Segment part 9.             Intra module refs:   isBrowserItemBook(BOOK *)
    -------------------------------------------------------------------------
DATA_C
  Relative segment, address: CODE_AREA 0000B25C - 0000B287 (0x2c bytes), align: 2
  Segment part 10.            Intra module refs:   PageHook(void *, BOOK *, int)
    -------------------------------------------------------------------------
DATA_C
  Relative segment, address: CODE_AREA 0000B288 - 0000B2CF (0x48 bytes), align: 2
  Segment part 11.            Intra module refs:   Segment part 120
           ENTRY                   ADDRESS         REF BY
           =====                   =======         ======
           CMyBook::__vtbl         0000B298 
    -------------------------------------------------------------------------
DATA_C
  Relative segment, address: CODE_AREA 0000B2D0 - 0000B457 (0x188 bytes), align: 2
  Segment part 12.            Intra module refs:   checkConsts()
    -------------------------------------------------------------------------
DATA_C
  Relative segment, address: CODE_AREA 0000B458 - 0000B483 (0x2c bytes), align: 2
  Segment part 13.            Intra module refs:   Softkey_SetOnRedraw()
    -------------------------------------------------------------------------
DATA_C
  Relative segment, address: CODE_AREA 0000B484 - 0000B49F (0x1c bytes), align: 2
  Segment part 14.            Intra module refs:   Segment part 20
    -------------------------------------------------------------------------
DATA_C
  Relative segment, address: CODE_AREA 0000B4A0 - 0000B4AF (0x10 bytes), align: 2
  Segment part 15.            Intra module refs:   Segment part 20
    -------------------------------------------------------------------------
DATA_C
  Relative segment, address: CODE_AREA 0000B4B0 - 0000B4CB (0x1c bytes), align: 2
  Segment part 16.            Intra module refs:   Segment part 20
    -------------------------------------------------------------------------
DATA_C
  Relative segment, address: CODE_AREA 0000B4CC - 0000B4EB (0x20 bytes), align: 2
  Segment part 17.            Intra module refs:   Segment part 20
    -------------------------------------------------------------------------
DATA_C
  Relative segment, address: CODE_AREA 0000B4EC - 0000B507 (0x1c bytes), align: 2
  Segment part 18.            Intra module refs:   CMyBook::__vtbl
    -------------------------------------------------------------------------
CODE
  Relative segment, address: CODE_AREA 0000290C - 0000296B (0x60 bytes), align: 2
  Segment part 72.            Intra module refs:   onKeylock(void *, BOOK *)
                                                   onStyleChanged(void *, BOOK *)
                                                   set_horizontal()
                                                   set_vertical()
                                                   walkman_Redraw(DISP_OBJ *, int, int, int)
           ENTRY                   ADDRESS         REF BY
           =====                   =======         ======
           FindGuiInBook(BOOK *, char *)
                                   0000290C 
               stack 1 = 00000000 ( 00000014 )
    -------------------------------------------------------------------------
CODE
  Relative segment, address: CODE_AREA 0000296C - 00002A27 (0xbc bytes), align: 2
  Segment part 74.            Intra module refs:   NewKey(int, int, int, LPARAM, DISP_OBJ *)
                                                   onAccel(void *, int, int)
                                                   onUnlock(void *, BOOK *)
                                                   walkman_Redraw(DISP_OBJ *, int, int, int)
           ENTRY                   ADDRESS         REF BY
           =====                   =======         ======
           set_horizontal()        0000296C 
               stack 1 = 00000000 ( 00000010 )
    -------------------------------------------------------------------------
CODE
  Relative segment, address: CODE_AREA 00002A28 - 00002A2B (0x4 bytes), align: 2
  Segment part 75.            Intra module refs:   onStyleChanged(void *, BOOK *)
                                                   set_horizontal()
    -------------------------------------------------------------------------
CODE
  Relative segment, address: CODE_AREA 00002A2C - 00002AEF (0xc4 bytes), align: 2
  Segment part 77.            Intra module refs:   NewKey(int, int, int, LPARAM, DISP_OBJ *)
                                                   onAccel(void *, int, int)
           ENTRY                   ADDRESS         REF BY
           =====                   =======         ======
           set_vertical()          00002A2C 
               stack 1 = 00000000 ( 00000010 )
    -------------------------------------------------------------------------
CODE
  Relative segment, address: CODE_AREA 00002AF0 - 00002AF3 (0x4 bytes), align: 2
  Segment part 78.            Intra module refs:   onKeylock(void *, BOOK *)
                                                   onStyleChanged(void *, BOOK *)
                                                   set_vertical()
    -------------------------------------------------------------------------
CODE
  Relative segment, address: CODE_AREA 00002AF4 - 00002AF7 (0x4 bytes), align: 2
  Segment part 79.            Intra module refs:   onKeylock(void *, BOOK *)
                                                   onStyleChanged(void *, BOOK *)
                                                   set_horizontal()
                                                   set_vertical()
    -------------------------------------------------------------------------
CODE
  Relative segment, address: CODE_AREA 00002AF8 - 00002B87 (0x90 bytes), align: 2
  Segment part 81.            Intra module refs:   Segment part 37
                                                   walkman_Redraw(DISP_OBJ *, int, int, int)
           ENTRY                   ADDRESS         REF BY
           =====                   =======         ======
           onAccel(void *, int, int)
                                   00002AF8 
               stack 1 = 00000000 ( 00000014 )
    -------------------------------------------------------------------------
CODE
  Relative segment, address: CODE_AREA 00002B88 - 00002B8B (0x4 bytes), align: 2
  Segment part 82.            Intra module refs:   ReturnRedraw()
                                                   SB_ELF_Killed(void *, BOOK *)
                                                   onAccel(void *, int, int)
                                                   onPlay(void *, BOOK *)
                                                   onPlayerClosed(void *, BOOK *)
                                                   onPlayerOpened(void *, BOOK *)
                                                   onTimer(u16, LPARAM)
                                                   onVolumeChange(void *, BOOK *)
                                                   set_horizontal()
    -------------------------------------------------------------------------
CODE
  Relative segment, address: CODE_AREA 00002B8C - 00002FAF (0x424 bytes), align: 2
  Segment part 84.            Intra module refs:   walkman_Redraw(DISP_OBJ *, int, int, int)
           ENTRY                   ADDRESS         REF BY
           =====                   =======         ======
           DrawLine(int, wchar_t *, int, int, int, int, int, int, int, bool, int)
                                   00002B8C 
               stack 1 = 00000000 ( 00000058 )
    -------------------------------------------------------------------------
CODE
  Relative segment, address: CODE_AREA 00002FB0 - 000033AB (0x3fc bytes), align: 2
  Segment part 86.            Intra module refs:   walkman_Redraw(DISP_OBJ *, int, int, int)
           ENTRY                   ADDRESS         REF BY
           =====                   =======         ======
           DrawLine2(int, int, int, int, int, int, int, int, int, int, int)
                                   00002FB0 
               stack 1 = 00000000 ( 00000058 )
    -------------------------------------------------------------------------
CODE
  Relative segment, address: CODE_AREA 000033AC - 00003583 (0x1d8 bytes), align: 2
  Segment part 88.            Intra module refs:   walkman_Redraw(DISP_OBJ *, int, int, int)
           ENTRY                   ADDRESS         REF BY
           =====                   =======         ======
           DrawProgress(int, int, int, RECT, int, int, int, int)
                                   000033AC 
               stack 1 = 00000000 ( 00000054 )
    -------------------------------------------------------------------------
CODE
  Relative segment, address: CODE_AREA 00003584 - 00003597 (0x14 bytes), align: 2
  Segment part 90.            Intra module refs:   walkman_Redraw(DISP_OBJ *, int, int, int)
           ENTRY                   ADDRESS         REF BY
           =====                   =======         ======
           isVolCtrl(BOOK *)       00003584 
               stack 1 = 00000000 ( 00000004 )
    -------------------------------------------------------------------------
DATA_I
  Relative segment, address: DATA_AREA 00000108 - 0000055F (0x458 bytes), align: 2
  Segment part 19.            Intra module refs:   Segment part 125
                                                   Segment part 128
                                                   Segment part 78
                                                   Segment part 82
                                                   TerminateElf(void *, BOOK *)
                                                   onUnlock(void *, BOOK *)
                                                   walkman_Redraw(DISP_OBJ *, int, int, int)
           ENTRY                   ADDRESS         REF BY
           =====                   =======         ======
           AccelCtrl               00000130 
           ELF_KILL_RECEIVED       0000015B 
           RedrawUsed              00000158 
           ScreenHeight            00000140 
           ScreenWidth             00000144 
           SoftSize                0000013C 
           Softkey_DD              0000011C 
           Softkey_DO              00000120 
           Softkey_DefaultRedraw   00000124 
           StatusSize              00000138 
           accel_wrk               0000015A 
           curmode                 00000134 
           currenttrack            00000128 
           g_DO                    0000012C 
           gvigcdisp               00000154 
           hMGC                    0000014C 
           imggc                   00000150 
           inMenu                  0000015C 
           modes                   0000010C 
           oldredr                 00000148 
           skin_str                00000160 
           timer                   0000010A 
           v_MPA_ID                00000108 
           working                 00000159 
    -------------------------------------------------------------------------
CODE
  Relative segment, address: CODE_AREA 00003598 - 00005AC7 (0x2530 bytes), align: 2
  Segment part 92.            Intra module refs:   Segment part 106
                                                   Segment part 40
           ENTRY                   ADDRESS         REF BY
           =====                   =======         ======
           walkman_Redraw(DISP_OBJ *, int, int, int)
                                   00003598 
               stack 1 = 00000000 ( 000000D4 )
    -------------------------------------------------------------------------
CODE
  Relative segment, address: CODE_AREA 00005AC8 - 00005ACB (0x4 bytes), align: 2
  Segment part 94.            Intra module refs:   CMyBook::CMyBook()
           ENTRY                   ADDRESS         REF BY
           =====                   =======         ======
           getimgID(IMAGEID)       00005AC8 
    -------------------------------------------------------------------------
CODE
  Relative segment, address: CODE_AREA 00005ACC - 00005AFF (0x34 bytes), align: 2
  Segment part 96.            Intra module refs:   CMyBook::CMyBook()
           ENTRY                   ADDRESS         REF BY
           =====                   =======         ======
           GetRedraw(DISP_OBJ_ONREDRAW_METHOD)
                                   00005ACC 
               stack 1 = 00000000 ( 00000004 )
    -------------------------------------------------------------------------
CODE
  Relative segment, address: CODE_AREA 00005B00 - 00005B2B (0x2c bytes), align: 2
  Segment part 98.            Intra module refs:   PageHook(void *, BOOK *, int)
           ENTRY                   ADDRESS         REF BY
           =====                   =======         ======
           isBrowserItemBook(BOOK *)
                                   00005B00 
               stack 1 = 00000000 ( 00000004 )
    -------------------------------------------------------------------------
CODE
  Relative segment, address: CODE_AREA 00005B2C - 00005BDB (0xb0 bytes), align: 2
  Segment part 100.           Intra module refs:   CMyBook::CMyBook()
           ENTRY                   ADDRESS         REF BY
           =====                   =======         ======
           PageHook(void *, BOOK *, int)
                                   00005B2C 
               stack 1 = 00000000 ( 00000010 )
    -------------------------------------------------------------------------
CODE
  Relative segment, address: CODE_AREA 00005BDC - 00005C47 (0x6c bytes), align: 2
  Segment part 102.
           ENTRY                   ADDRESS         REF BY
           =====                   =======         ======
           checkfile_(wchar_t *, wchar_t *)
                                   00005BDC        init_resources(wchar_t *) (images)
               stack 1 = 00000000 ( 0000002C )
    -------------------------------------------------------------------------
CODE
  Relative segment, address: CODE_AREA 00005C48 - 00005CEB (0xa4 bytes), align: 2
  Segment part 104.           Intra module refs:   main
           ENTRY                   ADDRESS         REF BY
           =====                   =======         ======
           CMyBook::CMyBook()      00005C48 
               stack 1 = 00000000 ( 00000014 )
    -------------------------------------------------------------------------
CODE
  Relative segment, address: CODE_AREA 00005CEC - 00005CEF (0x4 bytes), align: 2
  Segment part 105.           Intra module refs:   CMyBook::CMyBook()
                                                   checkfile_(wchar_t *, wchar_t *)
    -------------------------------------------------------------------------
CODE
  Relative segment, address: CODE_AREA 00005CF0 - 00005CF3 (0x4 bytes), align: 2
  Segment part 106.           Intra module refs:   CMyBook::CMyBook()
    -------------------------------------------------------------------------
CODE
  Relative segment, address: CODE_AREA 00005CF4 - 00005CF7 (0x4 bytes), align: 2
  Segment part 107.           Intra module refs:   CMyBook::CMyBook()
    -------------------------------------------------------------------------
CODE
  Relative segment, address: CODE_AREA 00005CF8 - 00005D43 (0x4c bytes), align: 2
  Segment part 109.           Intra module refs:   CMyBook::onClose()
                                                   onPlayerClosed(void *, BOOK *)
           ENTRY                   ADDRESS         REF BY
           =====                   =======         ======
           Send_REDRAW_RELEASE()   00005CF8 
               stack 1 = 00000000 ( 00000008 )
    -------------------------------------------------------------------------
CODE
  Relative segment, address: CODE_AREA 00005D44 - 00005DEF (0xac bytes), align: 2
  Segment part 111.           Intra module refs:   CMyBook::__vtbl
           ENTRY                   ADDRESS         REF BY
           =====                   =======         ======
           CMyBook::onClose()      00005D44 
               stack 1 = 00000000 ( 00000010 )
    -------------------------------------------------------------------------
CODE
  Relative segment, address: CODE_AREA 00005DF0 - 00005DF3 (0x4 bytes), align: 2
  Segment part 112.           Intra module refs:   CMyBook::onClose()
                                                   GetRedraw(DISP_OBJ_ONREDRAW_METHOD)
    -------------------------------------------------------------------------
CODE
  Relative segment, address: CODE_AREA 00005DF4 - 00005EAB (0xb8 bytes), align: 2
  Segment part 114.           Intra module refs:   Segment part 112
                                                   Segment part 35
           ENTRY                   ADDRESS         REF BY
           =====                   =======         ======
           NewKey(int, int, int, LPARAM, DISP_OBJ *)
                                   00005DF4 
               stack 1 = 00000000 ( 0000000C )
    -------------------------------------------------------------------------
CODE
  Relative segment, address: CODE_AREA 00005EAC - 00005EAF (0x4 bytes), align: 2
  Segment part 115.           Intra module refs:   NewKey(int, int, int, LPARAM, DISP_OBJ *)
    -------------------------------------------------------------------------
CODE
  Relative segment, address: CODE_AREA 00005EB0 - 00005EEF (0x40 bytes), align: 2
  Segment part 117.           Intra module refs:   main
           ENTRY                   ADDRESS         REF BY
           =====                   =======         ======
           GetSize()               00005EB0 
               stack 1 = 00000000 ( 00000008 )
    -------------------------------------------------------------------------
CODE
  Relative segment, address: CODE_AREA 00005EF0 - 00005F17 (0x28 bytes), align: 2
  Segment part 119.           Intra module refs:   main
           ENTRY                   ADDRESS         REF BY
           =====                   =======         ======
           isWalkmanDisplayBook(BOOK *)
                                   00005EF0 
               stack 1 = 00000000 ( 00000004 )
    -------------------------------------------------------------------------
CODE
  Relative segment, address: CODE_AREA 00005F18 - 00005F1B (0x4 bytes), align: 2
  Segment part 120.           Intra module refs:   CMyBook::CMyBook()
                                                   isWalkmanDisplayBook(BOOK *)
    -------------------------------------------------------------------------
DATA_Z
  Relative segment, address: CODE_AREA 0000EC58 - 0000F057 (0x400 bytes), align: 2
  Segment part 24.            Intra module refs:   checkConsts()
           ENTRY                   ADDRESS         REF BY
           =====                   =======         ======
           missedconsts            0000EC58 
    -------------------------------------------------------------------------
CODE
  Relative segment, address: CODE_AREA 00005F1C - 0000601F (0x104 bytes), align: 2
  Segment part 122.           Intra module refs:   main
           ENTRY                   ADDRESS         REF BY
           =====                   =======         ======
           checkConsts()           00005F1C 
               stack 1 = 00000000 ( 00000014 )
    -------------------------------------------------------------------------
CODE
  Relative segment, address: CODE_AREA 00006020 - 000060BB (0x9c bytes), align: 2
  Segment part 124.           Intra module refs:   Segment part 129
                                                   Segment part 60
           ENTRY                   ADDRESS         REF BY
           =====                   =======         ======
           softredraw(DISP_OBJ *, int, int, int)
                                   00006020 
               stack 1 = 00000000 ( 00000018 )
    -------------------------------------------------------------------------
CODE
  Relative segment, address: CODE_AREA 000060BC - 000060BF (0x4 bytes), align: 2
  Segment part 125.           Intra module refs:   Send_REDRAW_RELEASE()
                                                   softredraw(DISP_OBJ *, int, int, int)
    -------------------------------------------------------------------------
CODE
  Relative segment, address: CODE_AREA 000060C0 - 00006113 (0x54 bytes), align: 2
  Segment part 127.           Intra module refs:   GetRedraw(DISP_OBJ_ONREDRAW_METHOD)
           ENTRY                   ADDRESS         REF BY
           =====                   =======         ======
           Softkey_SetOnRedraw()   000060C0 
               stack 1 = 00000000 ( 00000008 )
    -------------------------------------------------------------------------
CODE
  Relative segment, address: CODE_AREA 00006114 - 00006117 (0x4 bytes), align: 2
  Segment part 128.           Intra module refs:   CMyBook::onClose()
                                                   GetRedraw(DISP_OBJ_ONREDRAW_METHOD)
                                                   GetSize()
                                                   NewKey(int, int, int, LPARAM, DISP_OBJ *)
                                                   PageHook(void *, BOOK *, int)
                                                   Softkey_SetOnRedraw()
    -------------------------------------------------------------------------
CODE
  Relative segment, address: CODE_AREA 00006118 - 0000611B (0x4 bytes), align: 2
  Segment part 129.           Intra module refs:   Send_REDRAW_RELEASE()
                                                   Softkey_SetOnRedraw()
    -------------------------------------------------------------------------
CODE
  Relative segment, address: CODE_AREA 0000611C - 00006233 (0x118 bytes), align: 2
  Segment part 131.
           ENTRY                   ADDRESS         REF BY
           =====                   =======         ======
           main                    0000611C        Absolute parts (?ABS_ENTRY_MOD)
               stack 1 = 00000000 ( 00000018 )
    -------------------------------------------------------------------------
CODE
  Relative segment, address: CODE_AREA 00006234 - 00006237 (0x4 bytes), align: 2
  Segment part 132.           Intra module refs:   CMyBook::onClose()
                                                   main
    -------------------------------------------------------------------------
CODE
  Relative segment, address: CODE_AREA 00006238 - 0000623B (0x4 bytes), align: 2
  Segment part 133.           Intra module refs:   main
    -------------------------------------------------------------------------
CODE
  Relative segment, address: CODE_AREA 0000623C - 0000623F (0x4 bytes), align: 2
  Segment part 134.           Intra module refs:   main
    -------------------------------------------------------------------------
CODE
  Relative segment, address: CODE_AREA 00006240 - 0000626F (0x30 bytes), align: 2
  Segment part 166.           Intra module refs:   CMyBook::__vtbl
           ENTRY                   ADDRESS         REF BY
           =====                   =======         ======
           CMyBook::~CMyBook()     00006240 
               stack 1 = 00000000 ( 0000000C )
    -------------------------------------------------------------------------
DATA_ID
  Relative segment, address: CODE_AREA 00000108 - 0000055F (0x458 bytes), align: 2
  Segment part 20.            Intra module refs:   Segment part 19

    *************************************************************************

  FILE NAME : Z:\home\perk11\www\perk11.info\svn\SE\WalkmanDisplay\Release_RU\Obj\mem2.r79
  PROGRAM MODULE, NAME : mem2

  SEGMENTS IN THE MODULE
  ======================
CODE
  Relative segment, address: CODE_AREA 00006270 - 0000627B (0xc bytes), align: 2
  Segment part 3.
           ENTRY                   ADDRESS         REF BY
           =====                   =======         ======
           operator new(size_t)    00006270        SB_ELF_Killed(void *, BOOK *) (main)
                                                   Send_REDRAW_RELEASE() (main)
                                                   TrackDesc_Get(BOOK *) (CurrentTrack)
                                                   main (main)
                                                   walkman_Redraw(DISP_OBJ *, int, int, int) (main)
               stack 1 = 00000000 ( 00000004 )
    -------------------------------------------------------------------------
CODE
  Relative segment, address: CODE_AREA 0000627C - 00006287 (0xc bytes), align: 2
  Segment part 5.
           ENTRY                   ADDRESS         REF BY
           =====                   =======         ======
           operator new[](size_t)
                                   0000627C        GetCover(void *, wchar_t *, wchar_t *, METADATA *) (DecoderInit)
                                                   Lang_Initialize() (encoding)
                                                   LoadConfigData(wchar_t const *, wchar_t const *) (conf_loader)
                                                   LoadSkinData(wchar_t const *, wchar_t const *) (skin_loader)
                                                   ReadMP3Information(wchar_t *, wchar_t *) (decoder2)
                                                   TrackDesc_Get(BOOK *) (CurrentTrack)
                                                   onStyleChanged(void *, BOOK *) (main)
                                                   walkman_Redraw(DISP_OBJ *, int, int, int) (main)
               stack 1 = 00000000 ( 00000004 )
    -------------------------------------------------------------------------
CODE
  Relative segment, address: CODE_AREA 00006288 - 00006293 (0xc bytes), align: 2
  Segment part 7.
           ENTRY                   ADDRESS         REF BY
           =====                   =======         ======
           operator delete(void *)
                                   00006288        CAccelCtrl::delete ~CAccelCtrl(CAccelCtrl *) (accelctrl)
                                                   CBook::~CBook() (cl)
                                                   CMyBook::~CMyBook() (main)
                                                   Lang_Remove() (encoding)
                                                   LoadConfigData(wchar_t const *, wchar_t const *) (conf_loader)
                                                   LoadSkinData(wchar_t const *, wchar_t const *) (skin_loader)
                                                   ReadMP3Information(wchar_t *, wchar_t *) (decoder2)
                                                   TrackDesc_Free(TRACK_DESC *) (CurrentTrack)
                                                   onStyleChanged(void *, BOOK *) (main)
                                                   walkman_Redraw(DISP_OBJ *, int, int, int) (main)
               stack 1 = 00000000 ( 00000004 )

    *************************************************************************

  FILE NAME : Z:\home\perk11\www\perk11.info\svn\SE\WalkmanDisplay\Release_RU\Obj\migrate_2_0.r79
  PROGRAM MODULE, NAME : migrate_2_0

  SEGMENTS IN THE MODULE
  ======================
CODE
  Relative segment, address: CODE_AREA 00006294 - 00007583 (0x12f0 bytes), align: 2
  Segment part 3.
           ENTRY                   ADDRESS         REF BY
           =====                   =======         ======
           migrate_from_2_0_to_2_1(CFG_2_0 *, CFG_2_1 *)
                                   00006294        LoadSkinData(wchar_t const *, wchar_t const *) (skin_loader)
               stack 1 = 00000000 ( 00000014 )

    *************************************************************************

  FILE NAME : Z:\home\perk11\www\perk11.info\svn\SE\WalkmanDisplay\Release_RU\Obj\migrate_2_0_corrupted.r79
  PROGRAM MODULE, NAME : migrate_2_0_corrupted

  SEGMENTS IN THE MODULE
  ======================
CODE
  Relative segment, address: CODE_AREA 00007584 - 00008997 (0x1414 bytes), align: 2
  Segment part 3.
           ENTRY                   ADDRESS         REF BY
           =====                   =======         ======
           migrate_from_2_0corrupted_to_2_1(CFG_2_0_corrupted *, CFG_2_1 *)
                                   00007584        LoadSkinData(wchar_t const *, wchar_t const *) (skin_loader)
               stack 1 = 00000000 ( 00000014 )

    *************************************************************************

  FILE NAME : Z:\home\perk11\www\perk11.info\svn\SE\WalkmanDisplay\Release_RU\Obj\skin_data.r79
  PROGRAM MODULE, NAME : skin_data

  SEGMENTS IN THE MODULE
  ======================
SKIN_C
  Relative segment, address: CODE_AREA 0000FCE4 - 0000FD0F (0x2c bytes), align: 2
  Segment part 2. ROOT.
    -------------------------------------------------------------------------
SKIN_C
  Relative segment, address: CODE_AREA 0000FD10 - 0000FD3B (0x2c bytes), align: 2
  Segment part 3. ROOT.
    -------------------------------------------------------------------------
SKIN_C
  Relative segment, address: CODE_AREA 0000FD3C - 0000FD3F (0x4 bytes), align: 2
  Segment part 4. ROOT.
           ENTRY                   ADDRESS         REF BY
           =====                   =======         ======
           standartwnd             0000FD3C        walkman_Redraw(DISP_OBJ *, int, int, int) (main)
    -------------------------------------------------------------------------
SKIN_C
  Relative segment, address: CODE_AREA 0000FD40 - 0000FD6B (0x2c bytes), align: 2
  Segment part 5. ROOT.
    -------------------------------------------------------------------------
SKIN_C
  Relative segment, address: CODE_AREA 0000FD6C - 0000FD97 (0x2c bytes), align: 2
  Segment part 6. ROOT.
    -------------------------------------------------------------------------
SKIN_C
  Relative segment, address: CODE_AREA 0000FD98 - 0000FD9B (0x4 bytes), align: 2
  Segment part 7. ROOT.
           ENTRY                   ADDRESS         REF BY
           =====                   =======         ======
           title_show              0000FD98        walkman_Redraw(DISP_OBJ *, int, int, int) (main)
    -------------------------------------------------------------------------
SKIN_C
  Relative segment, address: CODE_AREA 0000FD9C - 0000FDC7 (0x2c bytes), align: 2
  Segment part 8. ROOT.
    -------------------------------------------------------------------------
SKIN_C
  Relative segment, address: CODE_AREA 0000FDC8 - 0000FDCB (0x4 bytes), align: 2
  Segment part 9. ROOT.
           ENTRY                   ADDRESS         REF BY
           =====                   =======         ======
           title_font              0000FDC8        walkman_Redraw(DISP_OBJ *, int, int, int) (main)
    -------------------------------------------------------------------------
SKIN_C
  Relative segment, address: CODE_AREA 0000FDCC - 0000FDF7 (0x2c bytes), align: 2
  Segment part 10. ROOT.
    -------------------------------------------------------------------------
SKIN_C
  Relative segment, address: CODE_AREA 0000FDF8 - 0000FDFF (0x8 bytes), align: 2
  Segment part 11. ROOT.
           ENTRY                   ADDRESS         REF BY
           =====                   =======         ======
           title_rc                0000FDF8        walkman_Redraw(DISP_OBJ *, int, int, int) (main)
    -------------------------------------------------------------------------
SKIN_C
  Relative segment, address: CODE_AREA 0000FE00 - 0000FE2B (0x2c bytes), align: 2
  Segment part 12. ROOT.
    -------------------------------------------------------------------------
SKIN_C
  Relative segment, address: CODE_AREA 0000FE2C - 0000FE2F (0x4 bytes), align: 2
  Segment part 13. ROOT.
           ENTRY                   ADDRESS         REF BY
           =====                   =======         ======
           title_color             0000FE2C        walkman_Redraw(DISP_OBJ *, int, int, int) (main)
    -------------------------------------------------------------------------
SKIN_C
  Relative segment, address: CODE_AREA 0000FE30 - 0000FE5B (0x2c bytes), align: 2
  Segment part 14. ROOT.
    -------------------------------------------------------------------------
SKIN_C
  Relative segment, address: CODE_AREA 0000FE5C - 0000FE5F (0x4 bytes), align: 2
  Segment part 15. ROOT.
           ENTRY                   ADDRESS         REF BY
           =====                   =======         ======
           title_scolor            0000FE5C        walkman_Redraw(DISP_OBJ *, int, int, int) (main)
    -------------------------------------------------------------------------
SKIN_C
  Relative segment, address: CODE_AREA 0000FE60 - 0000FE8B (0x2c bytes), align: 2
  Segment part 16. ROOT.
    -------------------------------------------------------------------------
SKIN_C
  Relative segment, address: CODE_AREA 0000FE8C - 0000FE8F (0x4 bytes), align: 2
  Segment part 17. ROOT.
           ENTRY                   ADDRESS         REF BY
           =====                   =======         ======
           title_hl                0000FE8C        walkman_Redraw(DISP_OBJ *, int, int, int) (main)
    -------------------------------------------------------------------------
SKIN_C
  Relative segment, address: CODE_AREA 0000FE90 - 0000FEEF (0x60 bytes), align: 2
  Segment part 18. ROOT.
    -------------------------------------------------------------------------
SKIN_C
  Relative segment, address: CODE_AREA 0000FEF0 - 0000FF1B (0x2c bytes), align: 2
  Segment part 19. ROOT.
    -------------------------------------------------------------------------
SKIN_C
  Relative segment, address: CODE_AREA 0000FF1C - 0000FF1F (0x4 bytes), align: 2
  Segment part 20. ROOT.
           ENTRY                   ADDRESS         REF BY
           =====                   =======         ======
           title_ct                0000FF1C        walkman_Redraw(DISP_OBJ *, int, int, int) (main)
    -------------------------------------------------------------------------
SKIN_C
  Relative segment, address: CODE_AREA 0000FF20 - 0000FF7F (0x60 bytes), align: 2
  Segment part 21. ROOT.
    -------------------------------------------------------------------------
SKIN_C
  Relative segment, address: CODE_AREA 0000FF80 - 0000FFAB (0x2c bytes), align: 2
  Segment part 22. ROOT.
    -------------------------------------------------------------------------
SKIN_C
  Relative segment, address: CODE_AREA 0000FFAC - 0000FFD7 (0x2c bytes), align: 2
  Segment part 23. ROOT.
    -------------------------------------------------------------------------
SKIN_C
  Relative segment, address: CODE_AREA 0000FFD8 - 00010003 (0x2c bytes), align: 2
  Segment part 24. ROOT.
    -------------------------------------------------------------------------
SKIN_C
  Relative segment, address: CODE_AREA 00010004 - 00010007 (0x4 bytes), align: 2
  Segment part 25. ROOT.
           ENTRY                   ADDRESS         REF BY
           =====                   =======         ======
           album_show              00010004        walkman_Redraw(DISP_OBJ *, int, int, int) (main)
    -------------------------------------------------------------------------
SKIN_C
  Relative segment, address: CODE_AREA 00010008 - 00010033 (0x2c bytes), align: 2
  Segment part 26. ROOT.
    -------------------------------------------------------------------------
SKIN_C
  Relative segment, address: CODE_AREA 00010034 - 00010037 (0x4 bytes), align: 2
  Segment part 27. ROOT.
           ENTRY                   ADDRESS         REF BY
           =====                   =======         ======
           album_font              00010034        walkman_Redraw(DISP_OBJ *, int, int, int) (main)
    -------------------------------------------------------------------------
SKIN_C
  Relative segment, address: CODE_AREA 00010038 - 00010063 (0x2c bytes), align: 2
  Segment part 28. ROOT.
    -------------------------------------------------------------------------
SKIN_C
  Relative segment, address: CODE_AREA 00010064 - 0001006B (0x8 bytes), align: 2
  Segment part 29. ROOT.
           ENTRY                   ADDRESS         REF BY
           =====                   =======         ======
           album_rc                00010064        walkman_Redraw(DISP_OBJ *, int, int, int) (main)
    -------------------------------------------------------------------------
SKIN_C
  Relative segment, address: CODE_AREA 0001006C - 00010097 (0x2c bytes), align: 2
  Segment part 30. ROOT.
    -------------------------------------------------------------------------
SKIN_C
  Relative segment, address: CODE_AREA 00010098 - 0001009B (0x4 bytes), align: 2
  Segment part 31. ROOT.
           ENTRY                   ADDRESS         REF BY
           =====                   =======         ======
           album_color             00010098        walkman_Redraw(DISP_OBJ *, int, int, int) (main)
    -------------------------------------------------------------------------
SKIN_C
  Relative segment, address: CODE_AREA 0001009C - 000100C7 (0x2c bytes), align: 2
  Segment part 32. ROOT.
    -------------------------------------------------------------------------
SKIN_C
  Relative segment, address: CODE_AREA 000100C8 - 000100CB (0x4 bytes), align: 2
  Segment part 33. ROOT.
           ENTRY                   ADDRESS         REF BY
           =====                   =======         ======
           album_scolor            000100C8        walkman_Redraw(DISP_OBJ *, int, int, int) (main)
    -------------------------------------------------------------------------
SKIN_C
  Relative segment, address: CODE_AREA 000100CC - 000100F7 (0x2c bytes), align: 2
  Segment part 34. ROOT.
    -------------------------------------------------------------------------
SKIN_C
  Relative segment, address: CODE_AREA 000100F8 - 000100FB (0x4 bytes), align: 2
  Segment part 35. ROOT.
           ENTRY                   ADDRESS         REF BY
           =====                   =======         ======
           album_hl                000100F8        walkman_Redraw(DISP_OBJ *, int, int, int) (main)
    -------------------------------------------------------------------------
SKIN_C
  Relative segment, address: CODE_AREA 000100FC - 0001015B (0x60 bytes), align: 2
  Segment part 36. ROOT.
    -------------------------------------------------------------------------
SKIN_C
  Relative segment, address: CODE_AREA 0001015C - 00010187 (0x2c bytes), align: 2
  Segment part 37. ROOT.
    -------------------------------------------------------------------------
SKIN_C
  Relative segment, address: CODE_AREA 00010188 - 0001018B (0x4 bytes), align: 2
  Segment part 38. ROOT.
           ENTRY                   ADDRESS         REF BY
           =====                   =======         ======
           album_ct                00010188        walkman_Redraw(DISP_OBJ *, int, int, int) (main)
    -------------------------------------------------------------------------
SKIN_C
  Relative segment, address: CODE_AREA 0001018C - 000101EB (0x60 bytes), align: 2
  Segment part 39. ROOT.
    -------------------------------------------------------------------------
SKIN_C
  Relative segment, address: CODE_AREA 000101EC - 00010217 (0x2c bytes), align: 2
  Segment part 40. ROOT.
    -------------------------------------------------------------------------
SKIN_C
  Relative segment, address: CODE_AREA 00010218 - 00010243 (0x2c bytes), align: 2
  Segment part 41. ROOT.
    -------------------------------------------------------------------------
SKIN_C
  Relative segment, address: CODE_AREA 00010244 - 0001026F (0x2c bytes), align: 2
  Segment part 42. ROOT.
    -------------------------------------------------------------------------
SKIN_C
  Relative segment, address: CODE_AREA 00010270 - 00010273 (0x4 bytes), align: 2
  Segment part 43. ROOT.
           ENTRY                   ADDRESS         REF BY
           =====                   =======         ======
           artist_show             00010270        walkman_Redraw(DISP_OBJ *, int, int, int) (main)
    -------------------------------------------------------------------------
SKIN_C
  Relative segment, address: CODE_AREA 00010274 - 0001029F (0x2c bytes), align: 2
  Segment part 44. ROOT.
    -------------------------------------------------------------------------
SKIN_C
  Relative segment, address: CODE_AREA 000102A0 - 000102A3 (0x4 bytes), align: 2
  Segment part 45. ROOT.
           ENTRY                   ADDRESS         REF BY
           =====                   =======         ======
           artist_font             000102A0        walkman_Redraw(DISP_OBJ *, int, int, int) (main)
    -------------------------------------------------------------------------
SKIN_C
  Relative segment, address: CODE_AREA 000102A4 - 000102CF (0x2c bytes), align: 2
  Segment part 46. ROOT.
    -------------------------------------------------------------------------
SKIN_C
  Relative segment, address: CODE_AREA 000102D0 - 000102D7 (0x8 bytes), align: 2
  Segment part 47. ROOT.
           ENTRY                   ADDRESS         REF BY
           =====                   =======         ======
           artist_rc               000102D0        walkman_Redraw(DISP_OBJ *, int, int, int) (main)
    -------------------------------------------------------------------------
SKIN_C
  Relative segment, address: CODE_AREA 000102D8 - 00010303 (0x2c bytes), align: 2
  Segment part 48. ROOT.
    -------------------------------------------------------------------------
SKIN_C
  Relative segment, address: CODE_AREA 00010304 - 00010307 (0x4 bytes), align: 2
  Segment part 49. ROOT.
           ENTRY                   ADDRESS         REF BY
           =====                   =======         ======
           artist_color            00010304        walkman_Redraw(DISP_OBJ *, int, int, int) (main)
    -------------------------------------------------------------------------
SKIN_C
  Relative segment, address: CODE_AREA 00010308 - 00010333 (0x2c bytes), align: 2
  Segment part 50. ROOT.
    -------------------------------------------------------------------------
SKIN_C
  Relative segment, address: CODE_AREA 00010334 - 00010337 (0x4 bytes), align: 2
  Segment part 51. ROOT.
           ENTRY                   ADDRESS         REF BY
           =====                   =======         ======
           artist_scolor           00010334        walkman_Redraw(DISP_OBJ *, int, int, int) (main)
    -------------------------------------------------------------------------
SKIN_C
  Relative segment, address: CODE_AREA 00010338 - 00010363 (0x2c bytes), align: 2
  Segment part 52. ROOT.
    -------------------------------------------------------------------------
SKIN_C
  Relative segment, address: CODE_AREA 00010364 - 00010367 (0x4 bytes), align: 2
  Segment part 53. ROOT.
           ENTRY                   ADDRESS         REF BY
           =====                   =======         ======
           artist_hl               00010364        walkman_Redraw(DISP_OBJ *, int, int, int) (main)
    -------------------------------------------------------------------------
SKIN_C
  Relative segment, address: CODE_AREA 00010368 - 000103C7 (0x60 bytes), align: 2
  Segment part 54. ROOT.
    -------------------------------------------------------------------------
SKIN_C
  Relative segment, address: CODE_AREA 000103C8 - 000103F3 (0x2c bytes), align: 2
  Segment part 55. ROOT.
    -------------------------------------------------------------------------
SKIN_C
  Relative segment, address: CODE_AREA 000103F4 - 000103F7 (0x4 bytes), align: 2
  Segment part 56. ROOT.
           ENTRY                   ADDRESS         REF BY
           =====                   =======         ======
           artist_ct               000103F4        walkman_Redraw(DISP_OBJ *, int, int, int) (main)
    -------------------------------------------------------------------------
SKIN_C
  Relative segment, address: CODE_AREA 000103F8 - 00010457 (0x60 bytes), align: 2
  Segment part 57. ROOT.
    -------------------------------------------------------------------------
SKIN_C
  Relative segment, address: CODE_AREA 00010458 - 00010483 (0x2c bytes), align: 2
  Segment part 58. ROOT.
    -------------------------------------------------------------------------
SKIN_C
  Relative segment, address: CODE_AREA 00010484 - 000104AF (0x2c bytes), align: 2
  Segment part 59. ROOT.
    -------------------------------------------------------------------------
SKIN_C
  Relative segment, address: CODE_AREA 000104B0 - 000104DB (0x2c bytes), align: 2
  Segment part 60. ROOT.
    -------------------------------------------------------------------------
SKIN_C
  Relative segment, address: CODE_AREA 000104DC - 000104DF (0x4 bytes), align: 2
  Segment part 61. ROOT.
           ENTRY                   ADDRESS         REF BY
           =====                   =======         ======
           year_show               000104DC        walkman_Redraw(DISP_OBJ *, int, int, int) (main)
    -------------------------------------------------------------------------
SKIN_C
  Relative segment, address: CODE_AREA 000104E0 - 0001050B (0x2c bytes), align: 2
  Segment part 62. ROOT.
    -------------------------------------------------------------------------
SKIN_C
  Relative segment, address: CODE_AREA 0001050C - 0001050F (0x4 bytes), align: 2
  Segment part 63. ROOT.
           ENTRY                   ADDRESS         REF BY
           =====                   =======         ======
           year_font               0001050C        walkman_Redraw(DISP_OBJ *, int, int, int) (main)
    -------------------------------------------------------------------------
SKIN_C
  Relative segment, address: CODE_AREA 00010510 - 0001053B (0x2c bytes), align: 2
  Segment part 64. ROOT.
    -------------------------------------------------------------------------
SKIN_C
  Relative segment, address: CODE_AREA 0001053C - 00010543 (0x8 bytes), align: 2
  Segment part 65. ROOT.
           ENTRY                   ADDRESS         REF BY
           =====                   =======         ======
           year_rc                 0001053C        walkman_Redraw(DISP_OBJ *, int, int, int) (main)
    -------------------------------------------------------------------------
SKIN_C
  Relative segment, address: CODE_AREA 00010544 - 0001056F (0x2c bytes), align: 2
  Segment part 66. ROOT.
    -------------------------------------------------------------------------
SKIN_C
  Relative segment, address: CODE_AREA 00010570 - 00010573 (0x4 bytes), align: 2
  Segment part 67. ROOT.
           ENTRY                   ADDRESS         REF BY
           =====                   =======         ======
           year_color              00010570        walkman_Redraw(DISP_OBJ *, int, int, int) (main)
    -------------------------------------------------------------------------
SKIN_C
  Relative segment, address: CODE_AREA 00010574 - 0001059F (0x2c bytes), align: 2
  Segment part 68. ROOT.
    -------------------------------------------------------------------------
SKIN_C
  Relative segment, address: CODE_AREA 000105A0 - 000105A3 (0x4 bytes), align: 2
  Segment part 69. ROOT.
           ENTRY                   ADDRESS         REF BY
           =====                   =======         ======
           year_scolor             000105A0        walkman_Redraw(DISP_OBJ *, int, int, int) (main)
    -------------------------------------------------------------------------
SKIN_C
  Relative segment, address: CODE_AREA 000105A4 - 000105CF (0x2c bytes), align: 2
  Segment part 70. ROOT.
    -------------------------------------------------------------------------
SKIN_C
  Relative segment, address: CODE_AREA 000105D0 - 000105D3 (0x4 bytes), align: 2
  Segment part 71. ROOT.
           ENTRY                   ADDRESS         REF BY
           =====                   =======         ======
           year_hl                 000105D0        walkman_Redraw(DISP_OBJ *, int, int, int) (main)
    -------------------------------------------------------------------------
SKIN_C
  Relative segment, address: CODE_AREA 000105D4 - 00010633 (0x60 bytes), align: 2
  Segment part 72. ROOT.
    -------------------------------------------------------------------------
SKIN_C
  Relative segment, address: CODE_AREA 00010634 - 0001065F (0x2c bytes), align: 2
  Segment part 73. ROOT.
    -------------------------------------------------------------------------
SKIN_C
  Relative segment, address: CODE_AREA 00010660 - 00010663 (0x4 bytes), align: 2
  Segment part 74. ROOT.
           ENTRY                   ADDRESS         REF BY
           =====                   =======         ======
           year_ct                 00010660        walkman_Redraw(DISP_OBJ *, int, int, int) (main)
    -------------------------------------------------------------------------
SKIN_C
  Relative segment, address: CODE_AREA 00010664 - 000106C3 (0x60 bytes), align: 2
  Segment part 75. ROOT.
    -------------------------------------------------------------------------
SKIN_C
  Relative segment, address: CODE_AREA 000106C4 - 000106EF (0x2c bytes), align: 2
  Segment part 76. ROOT.
    -------------------------------------------------------------------------
SKIN_C
  Relative segment, address: CODE_AREA 000106F0 - 0001071B (0x2c bytes), align: 2
  Segment part 77. ROOT.
    -------------------------------------------------------------------------
SKIN_C
  Relative segment, address: CODE_AREA 0001071C - 00010747 (0x2c bytes), align: 2
  Segment part 78. ROOT.
    -------------------------------------------------------------------------
SKIN_C
  Relative segment, address: CODE_AREA 00010748 - 0001074B (0x4 bytes), align: 2
  Segment part 79. ROOT.
           ENTRY                   ADDRESS         REF BY
           =====                   =======         ======
           genre_show              00010748        walkman_Redraw(DISP_OBJ *, int, int, int) (main)
    -------------------------------------------------------------------------
SKIN_C
  Relative segment, address: CODE_AREA 0001074C - 00010777 (0x2c bytes), align: 2
  Segment part 80. ROOT.
    -------------------------------------------------------------------------
SKIN_C
  Relative segment, address: CODE_AREA 00010778 - 0001077B (0x4 bytes), align: 2
  Segment part 81. ROOT.
           ENTRY                   ADDRESS         REF BY
           =====                   =======         ======
           genre_font              00010778        walkman_Redraw(DISP_OBJ *, int, int, int) (main)
    -------------------------------------------------------------------------
SKIN_C
  Relative segment, address: CODE_AREA 0001077C - 000107A7 (0x2c bytes), align: 2
  Segment part 82. ROOT.
    -------------------------------------------------------------------------
SKIN_C
  Relative segment, address: CODE_AREA 000107A8 - 000107AF (0x8 bytes), align: 2
  Segment part 83. ROOT.
           ENTRY                   ADDRESS         REF BY
           =====                   =======         ======
           genre_rc                000107A8        walkman_Redraw(DISP_OBJ *, int, int, int) (main)
    -------------------------------------------------------------------------
SKIN_C
  Relative segment, address: CODE_AREA 000107B0 - 000107DB (0x2c bytes), align: 2
  Segment part 84. ROOT.
    -------------------------------------------------------------------------
SKIN_C
  Relative segment, address: CODE_AREA 000107DC - 000107DF (0x4 bytes), align: 2
  Segment part 85. ROOT.
           ENTRY                   ADDRESS         REF BY
           =====                   =======         ======
           genre_color             000107DC        walkman_Redraw(DISP_OBJ *, int, int, int) (main)
    -------------------------------------------------------------------------
SKIN_C
  Relative segment, address: CODE_AREA 000107E0 - 0001080B (0x2c bytes), align: 2
  Segment part 86. ROOT.
    -------------------------------------------------------------------------
SKIN_C
  Relative segment, address: CODE_AREA 0001080C - 0001080F (0x4 bytes), align: 2
  Segment part 87. ROOT.
           ENTRY                   ADDRESS         REF BY
           =====                   =======         ======
           genre_scolor            0001080C        walkman_Redraw(DISP_OBJ *, int, int, int) (main)
    -------------------------------------------------------------------------
SKIN_C
  Relative segment, address: CODE_AREA 00010810 - 0001083B (0x2c bytes), align: 2
  Segment part 88. ROOT.
    -------------------------------------------------------------------------
SKIN_C
  Relative segment, address: CODE_AREA 0001083C - 0001083F (0x4 bytes), align: 2
  Segment part 89. ROOT.
           ENTRY                   ADDRESS         REF BY
           =====                   =======         ======
           genre_hl                0001083C        walkman_Redraw(DISP_OBJ *, int, int, int) (main)
    -------------------------------------------------------------------------
SKIN_C
  Relative segment, address: CODE_AREA 00010840 - 0001089F (0x60 bytes), align: 2
  Segment part 90. ROOT.
    -------------------------------------------------------------------------
SKIN_C
  Relative segment, address: CODE_AREA 000108A0 - 000108CB (0x2c bytes), align: 2
  Segment part 91. ROOT.
    -------------------------------------------------------------------------
SKIN_C
  Relative segment, address: CODE_AREA 000108CC - 000108CF (0x4 bytes), align: 2
  Segment part 92. ROOT.
           ENTRY                   ADDRESS         REF BY
           =====                   =======         ======
           genre_ct                000108CC        walkman_Redraw(DISP_OBJ *, int, int, int) (main)
    -------------------------------------------------------------------------
SKIN_C
  Relative segment, address: CODE_AREA 000108D0 - 0001092F (0x60 bytes), align: 2
  Segment part 93. ROOT.
    -------------------------------------------------------------------------
SKIN_C
  Relative segment, address: CODE_AREA 00010930 - 0001095B (0x2c bytes), align: 2
  Segment part 94. ROOT.
    -------------------------------------------------------------------------
SKIN_C
  Relative segment, address: CODE_AREA 0001095C - 00010987 (0x2c bytes), align: 2
  Segment part 95. ROOT.
    -------------------------------------------------------------------------
SKIN_C
  Relative segment, address: CODE_AREA 00010988 - 000109B3 (0x2c bytes), align: 2
  Segment part 96. ROOT.
    -------------------------------------------------------------------------
SKIN_C
  Relative segment, address: CODE_AREA 000109B4 - 000109B7 (0x4 bytes), align: 2
  Segment part 97. ROOT.
           ENTRY                   ADDRESS         REF BY
           =====                   =======         ======
           trackn_show             000109B4        walkman_Redraw(DISP_OBJ *, int, int, int) (main)
    -------------------------------------------------------------------------
SKIN_C
  Relative segment, address: CODE_AREA 000109B8 - 000109E3 (0x2c bytes), align: 2
  Segment part 98. ROOT.
    -------------------------------------------------------------------------
SKIN_C
  Relative segment, address: CODE_AREA 000109E4 - 000109E7 (0x4 bytes), align: 2
  Segment part 99. ROOT.
           ENTRY                   ADDRESS         REF BY
           =====                   =======         ======
           trackn_font             000109E4        walkman_Redraw(DISP_OBJ *, int, int, int) (main)
    -------------------------------------------------------------------------
SKIN_C
  Relative segment, address: CODE_AREA 000109E8 - 00010A13 (0x2c bytes), align: 2
  Segment part 100. ROOT.
    -------------------------------------------------------------------------
SKIN_C
  Relative segment, address: CODE_AREA 00010A14 - 00010A1B (0x8 bytes), align: 2
  Segment part 101. ROOT.
           ENTRY                   ADDRESS         REF BY
           =====                   =======         ======
           trackn_rc               00010A14        walkman_Redraw(DISP_OBJ *, int, int, int) (main)
    -------------------------------------------------------------------------
SKIN_C
  Relative segment, address: CODE_AREA 00010A1C - 00010A47 (0x2c bytes), align: 2
  Segment part 102. ROOT.
    -------------------------------------------------------------------------
SKIN_C
  Relative segment, address: CODE_AREA 00010A48 - 00010A4B (0x4 bytes), align: 2
  Segment part 103. ROOT.
           ENTRY                   ADDRESS         REF BY
           =====                   =======         ======
           trackn_color            00010A48        walkman_Redraw(DISP_OBJ *, int, int, int) (main)
    -------------------------------------------------------------------------
SKIN_C
  Relative segment, address: CODE_AREA 00010A4C - 00010A77 (0x2c bytes), align: 2
  Segment part 104. ROOT.
    -------------------------------------------------------------------------
SKIN_C
  Relative segment, address: CODE_AREA 00010A78 - 00010A7B (0x4 bytes), align: 2
  Segment part 105. ROOT.
           ENTRY                   ADDRESS         REF BY
           =====                   =======         ======
           trackn_scolor           00010A78        walkman_Redraw(DISP_OBJ *, int, int, int) (main)
    -------------------------------------------------------------------------
SKIN_C
  Relative segment, address: CODE_AREA 00010A7C - 00010AA7 (0x2c bytes), align: 2
  Segment part 106. ROOT.
    -------------------------------------------------------------------------
SKIN_C
  Relative segment, address: CODE_AREA 00010AA8 - 00010AAB (0x4 bytes), align: 2
  Segment part 107. ROOT.
           ENTRY                   ADDRESS         REF BY
           =====                   =======         ======
           trackn_hl               00010AA8        walkman_Redraw(DISP_OBJ *, int, int, int) (main)
    -------------------------------------------------------------------------
SKIN_C
  Relative segment, address: CODE_AREA 00010AAC - 00010B0B (0x60 bytes), align: 2
  Segment part 108. ROOT.
    -------------------------------------------------------------------------
SKIN_C
  Relative segment, address: CODE_AREA 00010B0C - 00010B37 (0x2c bytes), align: 2
  Segment part 109. ROOT.
    -------------------------------------------------------------------------
SKIN_C
  Relative segment, address: CODE_AREA 00010B38 - 00010B3B (0x4 bytes), align: 2
  Segment part 110. ROOT.
           ENTRY                   ADDRESS         REF BY
           =====                   =======         ======
           trackn_ct               00010B38        walkman_Redraw(DISP_OBJ *, int, int, int) (main)
    -------------------------------------------------------------------------
SKIN_C
  Relative segment, address: CODE_AREA 00010B3C - 00010B9B (0x60 bytes), align: 2
  Segment part 111. ROOT.
    -------------------------------------------------------------------------
SKIN_C
  Relative segment, address: CODE_AREA 00010B9C - 00010BC7 (0x2c bytes), align: 2
  Segment part 112. ROOT.
    -------------------------------------------------------------------------
SKIN_C
  Relative segment, address: CODE_AREA 00010BC8 - 00010C2B (0x64 bytes), align: 2
  Segment part 113. ROOT.
           ENTRY                   ADDRESS         REF BY
           =====                   =======         ======
           trackn_mask             00010BC8        walkman_Redraw(DISP_OBJ *, int, int, int) (main)
    -------------------------------------------------------------------------
SKIN_C
  Relative segment, address: CODE_AREA 00010C2C - 00010C57 (0x2c bytes), align: 2
  Segment part 114. ROOT.
    -------------------------------------------------------------------------
SKIN_C
  Relative segment, address: CODE_AREA 00010C58 - 00010C83 (0x2c bytes), align: 2
  Segment part 115. ROOT.
    -------------------------------------------------------------------------
SKIN_C
  Relative segment, address: CODE_AREA 00010C84 - 00010CAF (0x2c bytes), align: 2
  Segment part 116. ROOT.
    -------------------------------------------------------------------------
SKIN_C
  Relative segment, address: CODE_AREA 00010CB0 - 00010CB3 (0x4 bytes), align: 2
  Segment part 117. ROOT.
           ENTRY                   ADDRESS         REF BY
           =====                   =======         ======
           tracks_show             00010CB0        walkman_Redraw(DISP_OBJ *, int, int, int) (main)
    -------------------------------------------------------------------------
SKIN_C
  Relative segment, address: CODE_AREA 00010CB4 - 00010CDF (0x2c bytes), align: 2
  Segment part 118. ROOT.
    -------------------------------------------------------------------------
SKIN_C
  Relative segment, address: CODE_AREA 00010CE0 - 00010CE3 (0x4 bytes), align: 2
  Segment part 119. ROOT.
           ENTRY                   ADDRESS         REF BY
           =====                   =======         ======
           tracks_font             00010CE0        walkman_Redraw(DISP_OBJ *, int, int, int) (main)
    -------------------------------------------------------------------------
SKIN_C
  Relative segment, address: CODE_AREA 00010CE4 - 00010D0F (0x2c bytes), align: 2
  Segment part 120. ROOT.
    -------------------------------------------------------------------------
SKIN_C
  Relative segment, address: CODE_AREA 00010D10 - 00010D17 (0x8 bytes), align: 2
  Segment part 121. ROOT.
           ENTRY                   ADDRESS         REF BY
           =====                   =======         ======
           tracks_rc               00010D10        walkman_Redraw(DISP_OBJ *, int, int, int) (main)
    -------------------------------------------------------------------------
SKIN_C
  Relative segment, address: CODE_AREA 00010D18 - 00010D43 (0x2c bytes), align: 2
  Segment part 122. ROOT.
    -------------------------------------------------------------------------
SKIN_C
  Relative segment, address: CODE_AREA 00010D44 - 00010D47 (0x4 bytes), align: 2
  Segment part 123. ROOT.
           ENTRY                   ADDRESS         REF BY
           =====                   =======         ======
           tracks_color            00010D44        walkman_Redraw(DISP_OBJ *, int, int, int) (main)
    -------------------------------------------------------------------------
SKIN_C
  Relative segment, address: CODE_AREA 00010D48 - 00010D73 (0x2c bytes), align: 2
  Segment part 124. ROOT.
    -------------------------------------------------------------------------
SKIN_C
  Relative segment, address: CODE_AREA 00010D74 - 00010D77 (0x4 bytes), align: 2
  Segment part 125. ROOT.
           ENTRY                   ADDRESS         REF BY
           =====                   =======         ======
           tracks_scolor           00010D74        walkman_Redraw(DISP_OBJ *, int, int, int) (main)
    -------------------------------------------------------------------------
SKIN_C
  Relative segment, address: CODE_AREA 00010D78 - 00010DA3 (0x2c bytes), align: 2
  Segment part 126. ROOT.
    -------------------------------------------------------------------------
SKIN_C
  Relative segment, address: CODE_AREA 00010DA4 - 00010DA7 (0x4 bytes), align: 2
  Segment part 127. ROOT.
           ENTRY                   ADDRESS         REF BY
           =====                   =======         ======
           tracks_hl               00010DA4        walkman_Redraw(DISP_OBJ *, int, int, int) (main)
    -------------------------------------------------------------------------
SKIN_C
  Relative segment, address: CODE_AREA 00010DA8 - 00010E07 (0x60 bytes), align: 2
  Segment part 128. ROOT.
    -------------------------------------------------------------------------
SKIN_C
  Relative segment, address: CODE_AREA 00010E08 - 00010E33 (0x2c bytes), align: 2
  Segment part 129. ROOT.
    -------------------------------------------------------------------------
SKIN_C
  Relative segment, address: CODE_AREA 00010E34 - 00010E37 (0x4 bytes), align: 2
  Segment part 130. ROOT.
           ENTRY                   ADDRESS         REF BY
           =====                   =======         ======
           tracks_ct               00010E34        walkman_Redraw(DISP_OBJ *, int, int, int) (main)
    -------------------------------------------------------------------------
SKIN_C
  Relative segment, address: CODE_AREA 00010E38 - 00010E97 (0x60 bytes), align: 2
  Segment part 131. ROOT.
    -------------------------------------------------------------------------
SKIN_C
  Relative segment, address: CODE_AREA 00010E98 - 00010EC3 (0x2c bytes), align: 2
  Segment part 132. ROOT.
    -------------------------------------------------------------------------
SKIN_C
  Relative segment, address: CODE_AREA 00010EC4 - 00010F27 (0x64 bytes), align: 2
  Segment part 133. ROOT.
           ENTRY                   ADDRESS         REF BY
           =====                   =======         ======
           tracks_mask             00010EC4        walkman_Redraw(DISP_OBJ *, int, int, int) (main)
    -------------------------------------------------------------------------
SKIN_C
  Relative segment, address: CODE_AREA 00010F28 - 00010F53 (0x2c bytes), align: 2
  Segment part 134. ROOT.
    -------------------------------------------------------------------------
SKIN_C
  Relative segment, address: CODE_AREA 00010F54 - 00010F7F (0x2c bytes), align: 2
  Segment part 135. ROOT.
    -------------------------------------------------------------------------
SKIN_C
  Relative segment, address: CODE_AREA 00010F80 - 00010FAB (0x2c bytes), align: 2
  Segment part 136. ROOT.
    -------------------------------------------------------------------------
SKIN_C
  Relative segment, address: CODE_AREA 00010FAC - 00010FAF (0x4 bytes), align: 2
  Segment part 137. ROOT.
           ENTRY                   ADDRESS         REF BY
           =====                   =======         ======
           ctime_show              00010FAC        walkman_Redraw(DISP_OBJ *, int, int, int) (main)
    -------------------------------------------------------------------------
SKIN_C
  Relative segment, address: CODE_AREA 00010FB0 - 00010FDB (0x2c bytes), align: 2
  Segment part 138. ROOT.
    -------------------------------------------------------------------------
SKIN_C
  Relative segment, address: CODE_AREA 00010FDC - 00010FDF (0x4 bytes), align: 2
  Segment part 139. ROOT.
           ENTRY                   ADDRESS         REF BY
           =====                   =======         ======
           ctime_font              00010FDC        walkman_Redraw(DISP_OBJ *, int, int, int) (main)
    -------------------------------------------------------------------------
SKIN_C
  Relative segment, address: CODE_AREA 00010FE0 - 0001100B (0x2c bytes), align: 2
  Segment part 140. ROOT.
    -------------------------------------------------------------------------
SKIN_C
  Relative segment, address: CODE_AREA 0001100C - 00011013 (0x8 bytes), align: 2
  Segment part 141. ROOT.
           ENTRY                   ADDRESS         REF BY
           =====                   =======         ======
           ctime_rc                0001100C        walkman_Redraw(DISP_OBJ *, int, int, int) (main)
    -------------------------------------------------------------------------
SKIN_C
  Relative segment, address: CODE_AREA 00011014 - 0001103F (0x2c bytes), align: 2
  Segment part 142. ROOT.
    -------------------------------------------------------------------------
SKIN_C
  Relative segment, address: CODE_AREA 00011040 - 00011043 (0x4 bytes), align: 2
  Segment part 143. ROOT.
           ENTRY                   ADDRESS         REF BY
           =====                   =======         ======
           ctime_color             00011040        walkman_Redraw(DISP_OBJ *, int, int, int) (main)
    -------------------------------------------------------------------------
SKIN_C
  Relative segment, address: CODE_AREA 00011044 - 0001106F (0x2c bytes), align: 2
  Segment part 144. ROOT.
    -------------------------------------------------------------------------
SKIN_C
  Relative segment, address: CODE_AREA 00011070 - 00011073 (0x4 bytes), align: 2
  Segment part 145. ROOT.
           ENTRY                   ADDRESS         REF BY
           =====                   =======         ======
           ctime_scolor            00011070        walkman_Redraw(DISP_OBJ *, int, int, int) (main)
    -------------------------------------------------------------------------
SKIN_C
  Relative segment, address: CODE_AREA 00011074 - 0001109F (0x2c bytes), align: 2
  Segment part 146. ROOT.
    -------------------------------------------------------------------------
SKIN_C
  Relative segment, address: CODE_AREA 000110A0 - 000110A3 (0x4 bytes), align: 2
  Segment part 147. ROOT.
           ENTRY                   ADDRESS         REF BY
           =====                   =======         ======
           ctime_hl                000110A0        walkman_Redraw(DISP_OBJ *, int, int, int) (main)
    -------------------------------------------------------------------------
SKIN_C
  Relative segment, address: CODE_AREA 000110A4 - 00011103 (0x60 bytes), align: 2
  Segment part 148. ROOT.
    -------------------------------------------------------------------------
SKIN_C
  Relative segment, address: CODE_AREA 00011104 - 0001112F (0x2c bytes), align: 2
  Segment part 149. ROOT.
    -------------------------------------------------------------------------
SKIN_C
  Relative segment, address: CODE_AREA 00011130 - 00011133 (0x4 bytes), align: 2
  Segment part 150. ROOT.
           ENTRY                   ADDRESS         REF BY
           =====                   =======         ======
           ctime_ct                00011130        walkman_Redraw(DISP_OBJ *, int, int, int) (main)
    -------------------------------------------------------------------------
SKIN_C
  Relative segment, address: CODE_AREA 00011134 - 00011193 (0x60 bytes), align: 2
  Segment part 151. ROOT.
    -------------------------------------------------------------------------
SKIN_C
  Relative segment, address: CODE_AREA 00011194 - 000111BF (0x2c bytes), align: 2
  Segment part 152. ROOT.
    -------------------------------------------------------------------------
SKIN_C
  Relative segment, address: CODE_AREA 000111C0 - 00011223 (0x64 bytes), align: 2
  Segment part 153. ROOT.
           ENTRY                   ADDRESS         REF BY
           =====                   =======         ======
           ctime_mask              000111C0        walkman_Redraw(DISP_OBJ *, int, int, int) (main)
    -------------------------------------------------------------------------
SKIN_C
  Relative segment, address: CODE_AREA 00011224 - 0001124F (0x2c bytes), align: 2
  Segment part 154. ROOT.
    -------------------------------------------------------------------------
SKIN_C
  Relative segment, address: CODE_AREA 00011250 - 0001127B (0x2c bytes), align: 2
  Segment part 155. ROOT.
    -------------------------------------------------------------------------
SKIN_C
  Relative segment, address: CODE_AREA 0001127C - 000112A7 (0x2c bytes), align: 2
  Segment part 156. ROOT.
    -------------------------------------------------------------------------
SKIN_C
  Relative segment, address: CODE_AREA 000112A8 - 000112AB (0x4 bytes), align: 2
  Segment part 157. ROOT.
           ENTRY                   ADDRESS         REF BY
           =====                   =======         ======
           ftime_show              000112A8        walkman_Redraw(DISP_OBJ *, int, int, int) (main)
    -------------------------------------------------------------------------
SKIN_C
  Relative segment, address: CODE_AREA 000112AC - 000112D7 (0x2c bytes), align: 2
  Segment part 158. ROOT.
    -------------------------------------------------------------------------
SKIN_C
  Relative segment, address: CODE_AREA 000112D8 - 000112DB (0x4 bytes), align: 2
  Segment part 159. ROOT.
           ENTRY                   ADDRESS         REF BY
           =====                   =======         ======
           ftime_font              000112D8        walkman_Redraw(DISP_OBJ *, int, int, int) (main)
    -------------------------------------------------------------------------
SKIN_C
  Relative segment, address: CODE_AREA 000112DC - 00011307 (0x2c bytes), align: 2
  Segment part 160. ROOT.
    -------------------------------------------------------------------------
SKIN_C
  Relative segment, address: CODE_AREA 00011308 - 0001130F (0x8 bytes), align: 2
  Segment part 161. ROOT.
           ENTRY                   ADDRESS         REF BY
           =====                   =======         ======
           ftime_rc                00011308        walkman_Redraw(DISP_OBJ *, int, int, int) (main)
    -------------------------------------------------------------------------
SKIN_C
  Relative segment, address: CODE_AREA 00011310 - 0001133B (0x2c bytes), align: 2
  Segment part 162. ROOT.
    -------------------------------------------------------------------------
SKIN_C
  Relative segment, address: CODE_AREA 0001133C - 0001133F (0x4 bytes), align: 2
  Segment part 163. ROOT.
           ENTRY                   ADDRESS         REF BY
           =====                   =======         ======
           ftime_color             0001133C        walkman_Redraw(DISP_OBJ *, int, int, int) (main)
    -------------------------------------------------------------------------
SKIN_C
  Relative segment, address: CODE_AREA 00011340 - 0001136B (0x2c bytes), align: 2
  Segment part 164. ROOT.
    -------------------------------------------------------------------------
SKIN_C
  Relative segment, address: CODE_AREA 0001136C - 0001136F (0x4 bytes), align: 2
  Segment part 165. ROOT.
           ENTRY                   ADDRESS         REF BY
           =====                   =======         ======
           ftime_scolor            0001136C        walkman_Redraw(DISP_OBJ *, int, int, int) (main)
    -------------------------------------------------------------------------
SKIN_C
  Relative segment, address: CODE_AREA 00011370 - 0001139B (0x2c bytes), align: 2
  Segment part 166. ROOT.
    -------------------------------------------------------------------------
SKIN_C
  Relative segment, address: CODE_AREA 0001139C - 0001139F (0x4 bytes), align: 2
  Segment part 167. ROOT.
           ENTRY                   ADDRESS         REF BY
           =====                   =======         ======
           ftime_hl                0001139C        walkman_Redraw(DISP_OBJ *, int, int, int) (main)
    -------------------------------------------------------------------------
SKIN_C
  Relative segment, address: CODE_AREA 000113A0 - 000113FF (0x60 bytes), align: 2
  Segment part 168. ROOT.
    -------------------------------------------------------------------------
SKIN_C
  Relative segment, address: CODE_AREA 00011400 - 0001142B (0x2c bytes), align: 2
  Segment part 169. ROOT.
    -------------------------------------------------------------------------
SKIN_C
  Relative segment, address: CODE_AREA 0001142C - 0001142F (0x4 bytes), align: 2
  Segment part 170. ROOT.
           ENTRY                   ADDRESS         REF BY
           =====                   =======         ======
           ftime_ct                0001142C        walkman_Redraw(DISP_OBJ *, int, int, int) (main)
    -------------------------------------------------------------------------
SKIN_C
  Relative segment, address: CODE_AREA 00011430 - 0001148F (0x60 bytes), align: 2
  Segment part 171. ROOT.
    -------------------------------------------------------------------------
SKIN_C
  Relative segment, address: CODE_AREA 00011490 - 000114BB (0x2c bytes), align: 2
  Segment part 172. ROOT.
    -------------------------------------------------------------------------
SKIN_C
  Relative segment, address: CODE_AREA 000114BC - 0001151F (0x64 bytes), align: 2
  Segment part 173. ROOT.
           ENTRY                   ADDRESS         REF BY
           =====                   =======         ======
           ftime_mask              000114BC        walkman_Redraw(DISP_OBJ *, int, int, int) (main)
    -------------------------------------------------------------------------
SKIN_C
  Relative segment, address: CODE_AREA 00011520 - 0001154B (0x2c bytes), align: 2
  Segment part 174. ROOT.
    -------------------------------------------------------------------------
SKIN_C
  Relative segment, address: CODE_AREA 0001154C - 00011577 (0x2c bytes), align: 2
  Segment part 175. ROOT.
    -------------------------------------------------------------------------
SKIN_C
  Relative segment, address: CODE_AREA 00011578 - 000115A3 (0x2c bytes), align: 2
  Segment part 176. ROOT.
    -------------------------------------------------------------------------
SKIN_C
  Relative segment, address: CODE_AREA 000115A4 - 000115A7 (0x4 bytes), align: 2
  Segment part 177. ROOT.
           ENTRY                   ADDRESS         REF BY
           =====                   =======         ======
           ltime_show              000115A4        walkman_Redraw(DISP_OBJ *, int, int, int) (main)
    -------------------------------------------------------------------------
SKIN_C
  Relative segment, address: CODE_AREA 000115A8 - 000115D3 (0x2c bytes), align: 2
  Segment part 178. ROOT.
    -------------------------------------------------------------------------
SKIN_C
  Relative segment, address: CODE_AREA 000115D4 - 000115D7 (0x4 bytes), align: 2
  Segment part 179. ROOT.
           ENTRY                   ADDRESS         REF BY
           =====                   =======         ======
           ltime_font              000115D4        walkman_Redraw(DISP_OBJ *, int, int, int) (main)
    -------------------------------------------------------------------------
SKIN_C
  Relative segment, address: CODE_AREA 000115D8 - 00011603 (0x2c bytes), align: 2
  Segment part 180. ROOT.
    -------------------------------------------------------------------------
SKIN_C
  Relative segment, address: CODE_AREA 00011604 - 0001160B (0x8 bytes), align: 2
  Segment part 181. ROOT.
           ENTRY                   ADDRESS         REF BY
           =====                   =======         ======
           ltime_rc                00011604        walkman_Redraw(DISP_OBJ *, int, int, int) (main)
    -------------------------------------------------------------------------
SKIN_C
  Relative segment, address: CODE_AREA 0001160C - 00011637 (0x2c bytes), align: 2
  Segment part 182. ROOT.
    -------------------------------------------------------------------------
SKIN_C
  Relative segment, address: CODE_AREA 00011638 - 0001163B (0x4 bytes), align: 2
  Segment part 183. ROOT.
           ENTRY                   ADDRESS         REF BY
           =====                   =======         ======
           ltime_color             00011638        walkman_Redraw(DISP_OBJ *, int, int, int) (main)
    -------------------------------------------------------------------------
SKIN_C
  Relative segment, address: CODE_AREA 0001163C - 00011667 (0x2c bytes), align: 2
  Segment part 184. ROOT.
    -------------------------------------------------------------------------
SKIN_C
  Relative segment, address: CODE_AREA 00011668 - 0001166B (0x4 bytes), align: 2
  Segment part 185. ROOT.
           ENTRY                   ADDRESS         REF BY
           =====                   =======         ======
           ltime_scolor            00011668        walkman_Redraw(DISP_OBJ *, int, int, int) (main)
    -------------------------------------------------------------------------
SKIN_C
  Relative segment, address: CODE_AREA 0001166C - 00011697 (0x2c bytes), align: 2
  Segment part 186. ROOT.
    -------------------------------------------------------------------------
SKIN_C
  Relative segment, address: CODE_AREA 00011698 - 0001169B (0x4 bytes), align: 2
  Segment part 187. ROOT.
           ENTRY                   ADDRESS         REF BY
           =====                   =======         ======
           ltime_hl                00011698        walkman_Redraw(DISP_OBJ *, int, int, int) (main)
    -------------------------------------------------------------------------
SKIN_C
  Relative segment, address: CODE_AREA 0001169C - 000116FB (0x60 bytes), align: 2
  Segment part 188. ROOT.
    -------------------------------------------------------------------------
SKIN_C
  Relative segment, address: CODE_AREA 000116FC - 00011727 (0x2c bytes), align: 2
  Segment part 189. ROOT.
    -------------------------------------------------------------------------
SKIN_C
  Relative segment, address: CODE_AREA 00011728 - 0001172B (0x4 bytes), align: 2
  Segment part 190. ROOT.
           ENTRY                   ADDRESS         REF BY
           =====                   =======         ======
           ltime_ct                00011728        walkman_Redraw(DISP_OBJ *, int, int, int) (main)
    -------------------------------------------------------------------------
SKIN_C
  Relative segment, address: CODE_AREA 0001172C - 0001178B (0x60 bytes), align: 2
  Segment part 191. ROOT.
    -------------------------------------------------------------------------
SKIN_C
  Relative segment, address: CODE_AREA 0001178C - 000117B7 (0x2c bytes), align: 2
  Segment part 192. ROOT.
    -------------------------------------------------------------------------
SKIN_C
  Relative segment, address: CODE_AREA 000117B8 - 0001181B (0x64 bytes), align: 2
  Segment part 193. ROOT.
           ENTRY                   ADDRESS         REF BY
           =====                   =======         ======
           ltime_mask              000117B8        walkman_Redraw(DISP_OBJ *, int, int, int) (main)
    -------------------------------------------------------------------------
SKIN_C
  Relative segment, address: CODE_AREA 0001181C - 00011847 (0x2c bytes), align: 2
  Segment part 194. ROOT.
    -------------------------------------------------------------------------
SKIN_C
  Relative segment, address: CODE_AREA 00011848 - 00011873 (0x2c bytes), align: 2
  Segment part 195. ROOT.
    -------------------------------------------------------------------------
SKIN_C
  Relative segment, address: CODE_AREA 00011874 - 0001189F (0x2c bytes), align: 2
  Segment part 196. ROOT.
    -------------------------------------------------------------------------
SKIN_C
  Relative segment, address: CODE_AREA 000118A0 - 000118A3 (0x4 bytes), align: 2
  Segment part 197. ROOT.
           ENTRY                   ADDRESS         REF BY
           =====                   =======         ======
           bitrate_show            000118A0        walkman_Redraw(DISP_OBJ *, int, int, int) (main)
    -------------------------------------------------------------------------
SKIN_C
  Relative segment, address: CODE_AREA 000118A4 - 000118CF (0x2c bytes), align: 2
  Segment part 198. ROOT.
    -------------------------------------------------------------------------
SKIN_C
  Relative segment, address: CODE_AREA 000118D0 - 000118D3 (0x4 bytes), align: 2
  Segment part 199. ROOT.
           ENTRY                   ADDRESS         REF BY
           =====                   =======         ======
           bitrate_font            000118D0        walkman_Redraw(DISP_OBJ *, int, int, int) (main)
    -------------------------------------------------------------------------
SKIN_C
  Relative segment, address: CODE_AREA 000118D4 - 000118FF (0x2c bytes), align: 2
  Segment part 200. ROOT.
    -------------------------------------------------------------------------
SKIN_C
  Relative segment, address: CODE_AREA 00011900 - 00011907 (0x8 bytes), align: 2
  Segment part 201. ROOT.
           ENTRY                   ADDRESS         REF BY
           =====                   =======         ======
           bitrate_rc              00011900        walkman_Redraw(DISP_OBJ *, int, int, int) (main)
    -------------------------------------------------------------------------
SKIN_C
  Relative segment, address: CODE_AREA 00011908 - 00011933 (0x2c bytes), align: 2
  Segment part 202. ROOT.
    -------------------------------------------------------------------------
SKIN_C
  Relative segment, address: CODE_AREA 00011934 - 00011937 (0x4 bytes), align: 2
  Segment part 203. ROOT.
           ENTRY                   ADDRESS         REF BY
           =====                   =======         ======
           bitrate_color           00011934        walkman_Redraw(DISP_OBJ *, int, int, int) (main)
    -------------------------------------------------------------------------
SKIN_C
  Relative segment, address: CODE_AREA 00011938 - 00011963 (0x2c bytes), align: 2
  Segment part 204. ROOT.
    -------------------------------------------------------------------------
SKIN_C
  Relative segment, address: CODE_AREA 00011964 - 00011967 (0x4 bytes), align: 2
  Segment part 205. ROOT.
           ENTRY                   ADDRESS         REF BY
           =====                   =======         ======
           bitrate_scolor          00011964        walkman_Redraw(DISP_OBJ *, int, int, int) (main)
    -------------------------------------------------------------------------
SKIN_C
  Relative segment, address: CODE_AREA 00011968 - 00011993 (0x2c bytes), align: 2
  Segment part 206. ROOT.
    -------------------------------------------------------------------------
SKIN_C
  Relative segment, address: CODE_AREA 00011994 - 00011997 (0x4 bytes), align: 2
  Segment part 207. ROOT.
           ENTRY                   ADDRESS         REF BY
           =====                   =======         ======
           bitrate_hl              00011994        walkman_Redraw(DISP_OBJ *, int, int, int) (main)
    -------------------------------------------------------------------------
SKIN_C
  Relative segment, address: CODE_AREA 00011998 - 000119F7 (0x60 bytes), align: 2
  Segment part 208. ROOT.
    -------------------------------------------------------------------------
SKIN_C
  Relative segment, address: CODE_AREA 000119F8 - 00011A23 (0x2c bytes), align: 2
  Segment part 209. ROOT.
    -------------------------------------------------------------------------
SKIN_C
  Relative segment, address: CODE_AREA 00011A24 - 00011A27 (0x4 bytes), align: 2
  Segment part 210. ROOT.
           ENTRY                   ADDRESS         REF BY
           =====                   =======         ======
           bitrate_ct              00011A24        walkman_Redraw(DISP_OBJ *, int, int, int) (main)
    -------------------------------------------------------------------------
SKIN_C
  Relative segment, address: CODE_AREA 00011A28 - 00011A87 (0x60 bytes), align: 2
  Segment part 211. ROOT.
    -------------------------------------------------------------------------
SKIN_C
  Relative segment, address: CODE_AREA 00011A88 - 00011AB3 (0x2c bytes), align: 2
  Segment part 212. ROOT.
    -------------------------------------------------------------------------
SKIN_C
  Relative segment, address: CODE_AREA 00011AB4 - 00011B17 (0x64 bytes), align: 2
  Segment part 213. ROOT.
           ENTRY                   ADDRESS         REF BY
           =====                   =======         ======
           bitrate_mask            00011AB4        walkman_Redraw(DISP_OBJ *, int, int, int) (main)
    -------------------------------------------------------------------------
SKIN_C
  Relative segment, address: CODE_AREA 00011B18 - 00011B43 (0x2c bytes), align: 2
  Segment part 214. ROOT.
    -------------------------------------------------------------------------
SKIN_C
  Relative segment, address: CODE_AREA 00011B44 - 00011BA7 (0x64 bytes), align: 2
  Segment part 215. ROOT.
           ENTRY                   ADDRESS         REF BY
           =====                   =======         ======
           bitrate_vbr             00011B44        walkman_Redraw(DISP_OBJ *, int, int, int) (main)
    -------------------------------------------------------------------------
SKIN_C
  Relative segment, address: CODE_AREA 00011BA8 - 00011BD3 (0x2c bytes), align: 2
  Segment part 216. ROOT.
    -------------------------------------------------------------------------
SKIN_C
  Relative segment, address: CODE_AREA 00011BD4 - 00011BFF (0x2c bytes), align: 2
  Segment part 217. ROOT.
    -------------------------------------------------------------------------
SKIN_C
  Relative segment, address: CODE_AREA 00011C00 - 00011C2B (0x2c bytes), align: 2
  Segment part 218. ROOT.
    -------------------------------------------------------------------------
SKIN_C
  Relative segment, address: CODE_AREA 00011C2C - 00011C2F (0x4 bytes), align: 2
  Segment part 219. ROOT.
           ENTRY                   ADDRESS         REF BY
           =====                   =======         ======
           freq_show               00011C2C        walkman_Redraw(DISP_OBJ *, int, int, int) (main)
    -------------------------------------------------------------------------
SKIN_C
  Relative segment, address: CODE_AREA 00011C30 - 00011C5B (0x2c bytes), align: 2
  Segment part 220. ROOT.
    -------------------------------------------------------------------------
SKIN_C
  Relative segment, address: CODE_AREA 00011C5C - 00011C5F (0x4 bytes), align: 2
  Segment part 221. ROOT.
           ENTRY                   ADDRESS         REF BY
           =====                   =======         ======
           freq_font               00011C5C        walkman_Redraw(DISP_OBJ *, int, int, int) (main)
    -------------------------------------------------------------------------
SKIN_C
  Relative segment, address: CODE_AREA 00011C60 - 00011C8B (0x2c bytes), align: 2
  Segment part 222. ROOT.
    -------------------------------------------------------------------------
SKIN_C
  Relative segment, address: CODE_AREA 00011C8C - 00011C93 (0x8 bytes), align: 2
  Segment part 223. ROOT.
           ENTRY                   ADDRESS         REF BY
           =====                   =======         ======
           freq_rc                 00011C8C        walkman_Redraw(DISP_OBJ *, int, int, int) (main)
    -------------------------------------------------------------------------
SKIN_C
  Relative segment, address: CODE_AREA 00011C94 - 00011CBF (0x2c bytes), align: 2
  Segment part 224. ROOT.
    -------------------------------------------------------------------------
SKIN_C
  Relative segment, address: CODE_AREA 00011CC0 - 00011CC3 (0x4 bytes), align: 2
  Segment part 225. ROOT.
           ENTRY                   ADDRESS         REF BY
           =====                   =======         ======
           freq_color              00011CC0        walkman_Redraw(DISP_OBJ *, int, int, int) (main)
    -------------------------------------------------------------------------
SKIN_C
  Relative segment, address: CODE_AREA 00011CC4 - 00011CEF (0x2c bytes), align: 2
  Segment part 226. ROOT.
    -------------------------------------------------------------------------
SKIN_C
  Relative segment, address: CODE_AREA 00011CF0 - 00011CF3 (0x4 bytes), align: 2
  Segment part 227. ROOT.
           ENTRY                   ADDRESS         REF BY
           =====                   =======         ======
           freq_scolor             00011CF0        walkman_Redraw(DISP_OBJ *, int, int, int) (main)
    -------------------------------------------------------------------------
SKIN_C
  Relative segment, address: CODE_AREA 00011CF4 - 00011D1F (0x2c bytes), align: 2
  Segment part 228. ROOT.
    -------------------------------------------------------------------------
SKIN_C
  Relative segment, address: CODE_AREA 00011D20 - 00011D23 (0x4 bytes), align: 2
  Segment part 229. ROOT.
           ENTRY                   ADDRESS         REF BY
           =====                   =======         ======
           freq_hl                 00011D20        walkman_Redraw(DISP_OBJ *, int, int, int) (main)
    -------------------------------------------------------------------------
SKIN_C
  Relative segment, address: CODE_AREA 00011D24 - 00011D83 (0x60 bytes), align: 2
  Segment part 230. ROOT.
    -------------------------------------------------------------------------
SKIN_C
  Relative segment, address: CODE_AREA 00011D84 - 00011DAF (0x2c bytes), align: 2
  Segment part 231. ROOT.
    -------------------------------------------------------------------------
SKIN_C
  Relative segment, address: CODE_AREA 00011DB0 - 00011DB3 (0x4 bytes), align: 2
  Segment part 232. ROOT.
           ENTRY                   ADDRESS         REF BY
           =====                   =======         ======
           freq_ct                 00011DB0        walkman_Redraw(DISP_OBJ *, int, int, int) (main)
    -------------------------------------------------------------------------
SKIN_C
  Relative segment, address: CODE_AREA 00011DB4 - 00011E13 (0x60 bytes), align: 2
  Segment part 233. ROOT.
    -------------------------------------------------------------------------
SKIN_C
  Relative segment, address: CODE_AREA 00011E14 - 00011E3F (0x2c bytes), align: 2
  Segment part 234. ROOT.
    -------------------------------------------------------------------------
SKIN_C
  Relative segment, address: CODE_AREA 00011E40 - 00011EA3 (0x64 bytes), align: 2
  Segment part 235. ROOT.
           ENTRY                   ADDRESS         REF BY
           =====                   =======         ======
           freq_mask               00011E40        walkman_Redraw(DISP_OBJ *, int, int, int) (main)
    -------------------------------------------------------------------------
SKIN_C
  Relative segment, address: CODE_AREA 00011EA4 - 00011ECF (0x2c bytes), align: 2
  Segment part 236. ROOT.
    -------------------------------------------------------------------------
SKIN_C
  Relative segment, address: CODE_AREA 00011ED0 - 00011EFB (0x2c bytes), align: 2
  Segment part 237. ROOT.
    -------------------------------------------------------------------------
SKIN_C
  Relative segment, address: CODE_AREA 00011EFC - 00011F27 (0x2c bytes), align: 2
  Segment part 238. ROOT.
    -------------------------------------------------------------------------
SKIN_C
  Relative segment, address: CODE_AREA 00011F28 - 00011F2B (0x4 bytes), align: 2
  Segment part 239. ROOT.
           ENTRY                   ADDRESS         REF BY
           =====                   =======         ======
           ch_show                 00011F28        walkman_Redraw(DISP_OBJ *, int, int, int) (main)
    -------------------------------------------------------------------------
SKIN_C
  Relative segment, address: CODE_AREA 00011F2C - 00011F57 (0x2c bytes), align: 2
  Segment part 240. ROOT.
    -------------------------------------------------------------------------
SKIN_C
  Relative segment, address: CODE_AREA 00011F58 - 00011F5B (0x4 bytes), align: 2
  Segment part 241. ROOT.
           ENTRY                   ADDRESS         REF BY
           =====                   =======         ======
           ch_font                 00011F58        walkman_Redraw(DISP_OBJ *, int, int, int) (main)
    -------------------------------------------------------------------------
SKIN_C
  Relative segment, address: CODE_AREA 00011F5C - 00011F87 (0x2c bytes), align: 2
  Segment part 242. ROOT.
    -------------------------------------------------------------------------
SKIN_C
  Relative segment, address: CODE_AREA 00011F88 - 00011F8F (0x8 bytes), align: 2
  Segment part 243. ROOT.
           ENTRY                   ADDRESS         REF BY
           =====                   =======         ======
           ch_rc                   00011F88        walkman_Redraw(DISP_OBJ *, int, int, int) (main)
    -------------------------------------------------------------------------
SKIN_C
  Relative segment, address: CODE_AREA 00011F90 - 00011FBB (0x2c bytes), align: 2
  Segment part 244. ROOT.
    -------------------------------------------------------------------------
SKIN_C
  Relative segment, address: CODE_AREA 00011FBC - 00011FBF (0x4 bytes), align: 2
  Segment part 245. ROOT.
           ENTRY                   ADDRESS         REF BY
           =====                   =======         ======
           ch_color                00011FBC        walkman_Redraw(DISP_OBJ *, int, int, int) (main)
    -------------------------------------------------------------------------
SKIN_C
  Relative segment, address: CODE_AREA 00011FC0 - 00011FEB (0x2c bytes), align: 2
  Segment part 246. ROOT.
    -------------------------------------------------------------------------
SKIN_C
  Relative segment, address: CODE_AREA 00011FEC - 00011FEF (0x4 bytes), align: 2
  Segment part 247. ROOT.
           ENTRY                   ADDRESS         REF BY
           =====                   =======         ======
           ch_scolor               00011FEC        walkman_Redraw(DISP_OBJ *, int, int, int) (main)
    -------------------------------------------------------------------------
SKIN_C
  Relative segment, address: CODE_AREA 00011FF0 - 0001201B (0x2c bytes), align: 2
  Segment part 248. ROOT.
    -------------------------------------------------------------------------
SKIN_C
  Relative segment, address: CODE_AREA 0001201C - 0001201F (0x4 bytes), align: 2
  Segment part 249. ROOT.
           ENTRY                   ADDRESS         REF BY
           =====                   =======         ======
           ch_hl                   0001201C        walkman_Redraw(DISP_OBJ *, int, int, int) (main)
    -------------------------------------------------------------------------
SKIN_C
  Relative segment, address: CODE_AREA 00012020 - 0001207F (0x60 bytes), align: 2
  Segment part 250. ROOT.
    -------------------------------------------------------------------------
SKIN_C
  Relative segment, address: CODE_AREA 00012080 - 000120AB (0x2c bytes), align: 2
  Segment part 251. ROOT.
    -------------------------------------------------------------------------
SKIN_C
  Relative segment, address: CODE_AREA 000120AC - 000120AF (0x4 bytes), align: 2
  Segment part 252. ROOT.
           ENTRY                   ADDRESS         REF BY
           =====                   =======         ======
           ch_ct                   000120AC        walkman_Redraw(DISP_OBJ *, int, int, int) (main)
    -------------------------------------------------------------------------
SKIN_C
  Relative segment, address: CODE_AREA 000120B0 - 0001210F (0x60 bytes), align: 2
  Segment part 253. ROOT.
    -------------------------------------------------------------------------
SKIN_C
  Relative segment, address: CODE_AREA 00012110 - 0001213B (0x2c bytes), align: 2
  Segment part 254. ROOT.
    -------------------------------------------------------------------------
SKIN_C
  Relative segment, address: CODE_AREA 0001213C - 00012167 (0x2c bytes), align: 2
  Segment part 255. ROOT.
    -------------------------------------------------------------------------
SKIN_C
  Relative segment, address: CODE_AREA 00012168 - 00012193 (0x2c bytes), align: 2
  Segment part 256. ROOT.
    -------------------------------------------------------------------------
SKIN_C
  Relative segment, address: CODE_AREA 00012194 - 00012197 (0x4 bytes), align: 2
  Segment part 257. ROOT.
           ENTRY                   ADDRESS         REF BY
           =====                   =======         ======
           ProgressBar_Show        00012194        walkman_Redraw(DISP_OBJ *, int, int, int) (main)
    -------------------------------------------------------------------------
SKIN_C
  Relative segment, address: CODE_AREA 00012198 - 000121C3 (0x2c bytes), align: 2
  Segment part 258. ROOT.
    -------------------------------------------------------------------------
SKIN_C
  Relative segment, address: CODE_AREA 000121C4 - 000121CB (0x8 bytes), align: 2
  Segment part 259. ROOT.
           ENTRY                   ADDRESS         REF BY
           =====                   =======         ======
           pbrect                  000121C4        walkman_Redraw(DISP_OBJ *, int, int, int) (main)
    -------------------------------------------------------------------------
SKIN_C
  Relative segment, address: CODE_AREA 000121CC - 000121F7 (0x2c bytes), align: 2
  Segment part 260. ROOT.
    -------------------------------------------------------------------------
SKIN_C
  Relative segment, address: CODE_AREA 000121F8 - 000121FB (0x4 bytes), align: 2
  Segment part 261. ROOT.
           ENTRY                   ADDRESS         REF BY
           =====                   =======         ======
           ProgressBar_cColor      000121F8        walkman_Redraw(DISP_OBJ *, int, int, int) (main)
    -------------------------------------------------------------------------
SKIN_C
  Relative segment, address: CODE_AREA 000121FC - 00012227 (0x2c bytes), align: 2
  Segment part 262. ROOT.
    -------------------------------------------------------------------------
SKIN_C
  Relative segment, address: CODE_AREA 00012228 - 0001222B (0x4 bytes), align: 2
  Segment part 263. ROOT.
           ENTRY                   ADDRESS         REF BY
           =====                   =======         ======
           ProgressBar_oColor      00012228        walkman_Redraw(DISP_OBJ *, int, int, int) (main)
    -------------------------------------------------------------------------
SKIN_C
  Relative segment, address: CODE_AREA 0001222C - 00012257 (0x2c bytes), align: 2
  Segment part 264. ROOT.
    -------------------------------------------------------------------------
SKIN_C
  Relative segment, address: CODE_AREA 00012258 - 0001225B (0x4 bytes), align: 2
  Segment part 265. ROOT.
           ENTRY                   ADDRESS         REF BY
           =====                   =======         ======
           ProgressBar_bColor      00012258        walkman_Redraw(DISP_OBJ *, int, int, int) (main)
    -------------------------------------------------------------------------
SKIN_C
  Relative segment, address: CODE_AREA 0001225C - 00012287 (0x2c bytes), align: 2
  Segment part 266. ROOT.
    -------------------------------------------------------------------------
SKIN_C
  Relative segment, address: CODE_AREA 00012288 - 0001228B (0x4 bytes), align: 2
  Segment part 267. ROOT.
           ENTRY                   ADDRESS         REF BY
           =====                   =======         ======
           ProgressBar_highlight   00012288        walkman_Redraw(DISP_OBJ *, int, int, int) (main)
    -------------------------------------------------------------------------
SKIN_C
  Relative segment, address: CODE_AREA 0001228C - 000122B7 (0x2c bytes), align: 2
  Segment part 268. ROOT.
    -------------------------------------------------------------------------
SKIN_C
  Relative segment, address: CODE_AREA 000122B8 - 000122E3 (0x2c bytes), align: 2
  Segment part 269. ROOT.
    -------------------------------------------------------------------------
SKIN_C
  Relative segment, address: CODE_AREA 000122E4 - 0001230F (0x2c bytes), align: 2
  Segment part 270. ROOT.
    -------------------------------------------------------------------------
SKIN_C
  Relative segment, address: CODE_AREA 00012310 - 00012313 (0x4 bytes), align: 2
  Segment part 271. ROOT.
           ENTRY                   ADDRESS         REF BY
           =====                   =======         ======
           cover_show              00012310 
    -------------------------------------------------------------------------
SKIN_C
  Relative segment, address: CODE_AREA 00012314 - 0001233F (0x2c bytes), align: 2
  Segment part 272. ROOT.
    -------------------------------------------------------------------------
SKIN_C
  Relative segment, address: CODE_AREA 00012340 - 00012347 (0x8 bytes), align: 2
  Segment part 273. ROOT.
           ENTRY                   ADDRESS         REF BY
           =====                   =======         ======
           cover_rect              00012340        walkman_Redraw(DISP_OBJ *, int, int, int) (main)
    -------------------------------------------------------------------------
SKIN_C
  Relative segment, address: CODE_AREA 00012348 - 00012373 (0x2c bytes), align: 2
  Segment part 274. ROOT.
    -------------------------------------------------------------------------
SKIN_C
  Relative segment, address: CODE_AREA 00012374 - 0001239F (0x2c bytes), align: 2
  Segment part 275. ROOT.
    -------------------------------------------------------------------------
SKIN_C
  Relative segment, address: CODE_AREA 000123A0 - 000123CB (0x2c bytes), align: 2
  Segment part 276. ROOT.
    -------------------------------------------------------------------------
SKIN_C
  Relative segment, address: CODE_AREA 000123CC - 000123F7 (0x2c bytes), align: 2
  Segment part 277. ROOT.
    -------------------------------------------------------------------------
SKIN_C
  Relative segment, address: CODE_AREA 000123F8 - 000123FB (0x4 bytes), align: 2
  Segment part 278. ROOT.
           ENTRY                   ADDRESS         REF BY
           =====                   =======         ======
           ticn_show               000123F8        walkman_Redraw(DISP_OBJ *, int, int, int) (main)
    -------------------------------------------------------------------------
SKIN_C
  Relative segment, address: CODE_AREA 000123FC - 00012427 (0x2c bytes), align: 2
  Segment part 279. ROOT.
    -------------------------------------------------------------------------
SKIN_C
  Relative segment, address: CODE_AREA 00012428 - 0001242F (0x8 bytes), align: 2
  Segment part 280. ROOT.
           ENTRY                   ADDRESS         REF BY
           =====                   =======         ======
           ticn_rect               00012428        walkman_Redraw(DISP_OBJ *, int, int, int) (main)
    -------------------------------------------------------------------------
SKIN_C
  Relative segment, address: CODE_AREA 00012430 - 0001245B (0x2c bytes), align: 2
  Segment part 281. ROOT.
    -------------------------------------------------------------------------
SKIN_C
  Relative segment, address: CODE_AREA 0001245C - 00012487 (0x2c bytes), align: 2
  Segment part 282. ROOT.
    -------------------------------------------------------------------------
SKIN_C
  Relative segment, address: CODE_AREA 00012488 - 000124B3 (0x2c bytes), align: 2
  Segment part 283. ROOT.
    -------------------------------------------------------------------------
SKIN_C
  Relative segment, address: CODE_AREA 000124B4 - 000124B7 (0x4 bytes), align: 2
  Segment part 284. ROOT.
           ENTRY                   ADDRESS         REF BY
           =====                   =======         ======
           alicn_show              000124B4        walkman_Redraw(DISP_OBJ *, int, int, int) (main)
    -------------------------------------------------------------------------
SKIN_C
  Relative segment, address: CODE_AREA 000124B8 - 000124E3 (0x2c bytes), align: 2
  Segment part 285. ROOT.
    -------------------------------------------------------------------------
SKIN_C
  Relative segment, address: CODE_AREA 000124E4 - 000124EB (0x8 bytes), align: 2
  Segment part 286. ROOT.
           ENTRY                   ADDRESS         REF BY
           =====                   =======         ======
           alicn_rect              000124E4        walkman_Redraw(DISP_OBJ *, int, int, int) (main)
    -------------------------------------------------------------------------
SKIN_C
  Relative segment, address: CODE_AREA 000124EC - 00012517 (0x2c bytes), align: 2
  Segment part 287. ROOT.
    -------------------------------------------------------------------------
SKIN_C
  Relative segment, address: CODE_AREA 00012518 - 00012543 (0x2c bytes), align: 2
  Segment part 288. ROOT.
    -------------------------------------------------------------------------
SKIN_C
  Relative segment, address: CODE_AREA 00012544 - 0001256F (0x2c bytes), align: 2
  Segment part 289. ROOT.
    -------------------------------------------------------------------------
SKIN_C
  Relative segment, address: CODE_AREA 00012570 - 00012573 (0x4 bytes), align: 2
  Segment part 290. ROOT.
           ENTRY                   ADDRESS         REF BY
           =====                   =======         ======
           aricn_show              00012570        walkman_Redraw(DISP_OBJ *, int, int, int) (main)
    -------------------------------------------------------------------------
SKIN_C
  Relative segment, address: CODE_AREA 00012574 - 0001259F (0x2c bytes), align: 2
  Segment part 291. ROOT.
    -------------------------------------------------------------------------
SKIN_C
  Relative segment, address: CODE_AREA 000125A0 - 000125A7 (0x8 bytes), align: 2
  Segment part 292. ROOT.
           ENTRY                   ADDRESS         REF BY
           =====                   =======         ======
           aricn_rect              000125A0        walkman_Redraw(DISP_OBJ *, int, int, int) (main)
    -------------------------------------------------------------------------
SKIN_C
  Relative segment, address: CODE_AREA 000125A8 - 000125D3 (0x2c bytes), align: 2
  Segment part 293. ROOT.
    -------------------------------------------------------------------------
SKIN_C
  Relative segment, address: CODE_AREA 000125D4 - 000125FF (0x2c bytes), align: 2
  Segment part 294. ROOT.
    -------------------------------------------------------------------------
SKIN_C
  Relative segment, address: CODE_AREA 00012600 - 0001262B (0x2c bytes), align: 2
  Segment part 295. ROOT.
    -------------------------------------------------------------------------
SKIN_C
  Relative segment, address: CODE_AREA 0001262C - 0001262F (0x4 bytes), align: 2
  Segment part 296. ROOT.
           ENTRY                   ADDRESS         REF BY
           =====                   =======         ======
           pls_show                0001262C        walkman_Redraw(DISP_OBJ *, int, int, int) (main)
    -------------------------------------------------------------------------
SKIN_C
  Relative segment, address: CODE_AREA 00012630 - 0001265B (0x2c bytes), align: 2
  Segment part 297. ROOT.
    -------------------------------------------------------------------------
SKIN_C
  Relative segment, address: CODE_AREA 0001265C - 00012663 (0x8 bytes), align: 2
  Segment part 298. ROOT.
           ENTRY                   ADDRESS         REF BY
           =====                   =======         ======
           pls_rect                0001265C        walkman_Redraw(DISP_OBJ *, int, int, int) (main)
    -------------------------------------------------------------------------
SKIN_C
  Relative segment, address: CODE_AREA 00012664 - 0001268F (0x2c bytes), align: 2
  Segment part 299. ROOT.
    -------------------------------------------------------------------------
SKIN_C
  Relative segment, address: CODE_AREA 00012690 - 000126BB (0x2c bytes), align: 2
  Segment part 300. ROOT.
    -------------------------------------------------------------------------
SKIN_C
  Relative segment, address: CODE_AREA 000126BC - 000126E7 (0x2c bytes), align: 2
  Segment part 301. ROOT.
    -------------------------------------------------------------------------
SKIN_C
  Relative segment, address: CODE_AREA 000126E8 - 000126EB (0x4 bytes), align: 2
  Segment part 302. ROOT.
           ENTRY                   ADDRESS         REF BY
           =====                   =======         ======
           eq_preset_show          000126E8        walkman_Redraw(DISP_OBJ *, int, int, int) (main)
    -------------------------------------------------------------------------
SKIN_C
  Relative segment, address: CODE_AREA 000126EC - 00012717 (0x2c bytes), align: 2
  Segment part 303. ROOT.
    -------------------------------------------------------------------------
SKIN_C
  Relative segment, address: CODE_AREA 00012718 - 0001271F (0x8 bytes), align: 2
  Segment part 304. ROOT.
           ENTRY                   ADDRESS         REF BY
           =====                   =======         ======
           eq_preset_rect          00012718        walkman_Redraw(DISP_OBJ *, int, int, int) (main)
    -------------------------------------------------------------------------
SKIN_C
  Relative segment, address: CODE_AREA 00012720 - 0001274B (0x2c bytes), align: 2
  Segment part 305. ROOT.
    -------------------------------------------------------------------------
SKIN_C
  Relative segment, address: CODE_AREA 0001274C - 00012777 (0x2c bytes), align: 2
  Segment part 306. ROOT.
    -------------------------------------------------------------------------
SKIN_C
  Relative segment, address: CODE_AREA 00012778 - 000127A3 (0x2c bytes), align: 2
  Segment part 307. ROOT.
    -------------------------------------------------------------------------
SKIN_C
  Relative segment, address: CODE_AREA 000127A4 - 000127A7 (0x4 bytes), align: 2
  Segment part 308. ROOT.
           ENTRY                   ADDRESS         REF BY
           =====                   =======         ======
           shuffle_show            000127A4        walkman_Redraw(DISP_OBJ *, int, int, int) (main)
    -------------------------------------------------------------------------
SKIN_C
  Relative segment, address: CODE_AREA 000127A8 - 000127D3 (0x2c bytes), align: 2
  Segment part 309. ROOT.
    -------------------------------------------------------------------------
SKIN_C
  Relative segment, address: CODE_AREA 000127D4 - 000127DB (0x8 bytes), align: 2
  Segment part 310. ROOT.
           ENTRY                   ADDRESS         REF BY
           =====                   =======         ======
           shuffle_rect            000127D4        walkman_Redraw(DISP_OBJ *, int, int, int) (main)
    -------------------------------------------------------------------------
SKIN_C
  Relative segment, address: CODE_AREA 000127DC - 00012807 (0x2c bytes), align: 2
  Segment part 311. ROOT.
    -------------------------------------------------------------------------
SKIN_C
  Relative segment, address: CODE_AREA 00012808 - 00012833 (0x2c bytes), align: 2
  Segment part 312. ROOT.
    -------------------------------------------------------------------------
SKIN_C
  Relative segment, address: CODE_AREA 00012834 - 0001285F (0x2c bytes), align: 2
  Segment part 313. ROOT.
    -------------------------------------------------------------------------
SKIN_C
  Relative segment, address: CODE_AREA 00012860 - 00012863 (0x4 bytes), align: 2
  Segment part 314. ROOT.
           ENTRY                   ADDRESS         REF BY
           =====                   =======         ======
           repeat_show             00012860        walkman_Redraw(DISP_OBJ *, int, int, int) (main)
    -------------------------------------------------------------------------
SKIN_C
  Relative segment, address: CODE_AREA 00012864 - 0001288F (0x2c bytes), align: 2
  Segment part 315. ROOT.
    -------------------------------------------------------------------------
SKIN_C
  Relative segment, address: CODE_AREA 00012890 - 00012897 (0x8 bytes), align: 2
  Segment part 316. ROOT.
           ENTRY                   ADDRESS         REF BY
           =====                   =======         ======
           repeat_rect             00012890        walkman_Redraw(DISP_OBJ *, int, int, int) (main)
    -------------------------------------------------------------------------
SKIN_C
  Relative segment, address: CODE_AREA 00012898 - 000128C3 (0x2c bytes), align: 2
  Segment part 317. ROOT.
    -------------------------------------------------------------------------
SKIN_C
  Relative segment, address: CODE_AREA 000128C4 - 000128EF (0x2c bytes), align: 2
  Segment part 318. ROOT.
    -------------------------------------------------------------------------
SKIN_C
  Relative segment, address: CODE_AREA 000128F0 - 0001291B (0x2c bytes), align: 2
  Segment part 319. ROOT.
    -------------------------------------------------------------------------
SKIN_C
  Relative segment, address: CODE_AREA 0001291C - 0001291F (0x4 bytes), align: 2
  Segment part 320. ROOT.
           ENTRY                   ADDRESS         REF BY
           =====                   =======         ======
           stereo_show             0001291C        walkman_Redraw(DISP_OBJ *, int, int, int) (main)
    -------------------------------------------------------------------------
SKIN_C
  Relative segment, address: CODE_AREA 00012920 - 0001294B (0x2c bytes), align: 2
  Segment part 321. ROOT.
    -------------------------------------------------------------------------
SKIN_C
  Relative segment, address: CODE_AREA 0001294C - 00012953 (0x8 bytes), align: 2
  Segment part 322. ROOT.
           ENTRY                   ADDRESS         REF BY
           =====                   =======         ======
           stereo_rect             0001294C        walkman_Redraw(DISP_OBJ *, int, int, int) (main)
    -------------------------------------------------------------------------
SKIN_C
  Relative segment, address: CODE_AREA 00012954 - 0001297F (0x2c bytes), align: 2
  Segment part 323. ROOT.
    -------------------------------------------------------------------------
SKIN_C
  Relative segment, address: CODE_AREA 00012980 - 000129AB (0x2c bytes), align: 2
  Segment part 324. ROOT.
    -------------------------------------------------------------------------
SKIN_C
  Relative segment, address: CODE_AREA 000129AC - 000129D7 (0x2c bytes), align: 2
  Segment part 325. ROOT.
    -------------------------------------------------------------------------
SKIN_C
  Relative segment, address: CODE_AREA 000129D8 - 00012A03 (0x2c bytes), align: 2
  Segment part 326. ROOT.
    -------------------------------------------------------------------------
SKIN_C
  Relative segment, address: CODE_AREA 00012A04 - 00012A2F (0x2c bytes), align: 2
  Segment part 327. ROOT.
    -------------------------------------------------------------------------
SKIN_C
  Relative segment, address: CODE_AREA 00012A30 - 00012A33 (0x4 bytes), align: 2
  Segment part 328. ROOT.
           ENTRY                   ADDRESS         REF BY
           =====                   =======         ======
           navigimg_show           00012A30        walkman_Redraw(DISP_OBJ *, int, int, int) (main)
    -------------------------------------------------------------------------
SKIN_C
  Relative segment, address: CODE_AREA 00012A34 - 00012A5F (0x2c bytes), align: 2
  Segment part 329. ROOT.
    -------------------------------------------------------------------------
SKIN_C
  Relative segment, address: CODE_AREA 00012A60 - 00012A67 (0x8 bytes), align: 2
  Segment part 330. ROOT.
           ENTRY                   ADDRESS         REF BY
           =====                   =======         ======
           navigimg_rect           00012A60        walkman_Redraw(DISP_OBJ *, int, int, int) (main)
    -------------------------------------------------------------------------
SKIN_C
  Relative segment, address: CODE_AREA 00012A68 - 00012A93 (0x2c bytes), align: 2
  Segment part 331. ROOT.
    -------------------------------------------------------------------------
SKIN_C
  Relative segment, address: CODE_AREA 00012A94 - 00012ABF (0x2c bytes), align: 2
  Segment part 332. ROOT.
    -------------------------------------------------------------------------
SKIN_C
  Relative segment, address: CODE_AREA 00012AC0 - 00012AEB (0x2c bytes), align: 2
  Segment part 333. ROOT.
    -------------------------------------------------------------------------
SKIN_C
  Relative segment, address: CODE_AREA 00012AEC - 00012AEF (0x4 bytes), align: 2
  Segment part 334. ROOT.
           ENTRY                   ADDRESS         REF BY
           =====                   =======         ======
           leftimg_show            00012AEC        walkman_Redraw(DISP_OBJ *, int, int, int) (main)
    -------------------------------------------------------------------------
SKIN_C
  Relative segment, address: CODE_AREA 00012AF0 - 00012B1B (0x2c bytes), align: 2
  Segment part 335. ROOT.
    -------------------------------------------------------------------------
SKIN_C
  Relative segment, address: CODE_AREA 00012B1C - 00012B23 (0x8 bytes), align: 2
  Segment part 336. ROOT.
           ENTRY                   ADDRESS         REF BY
           =====                   =======         ======
           leftimg_rect            00012B1C        walkman_Redraw(DISP_OBJ *, int, int, int) (main)
    -------------------------------------------------------------------------
SKIN_C
  Relative segment, address: CODE_AREA 00012B24 - 00012B4F (0x2c bytes), align: 2
  Segment part 337. ROOT.
    -------------------------------------------------------------------------
SKIN_C
  Relative segment, address: CODE_AREA 00012B50 - 00012B7B (0x2c bytes), align: 2
  Segment part 338. ROOT.
    -------------------------------------------------------------------------
SKIN_C
  Relative segment, address: CODE_AREA 00012B7C - 00012BA7 (0x2c bytes), align: 2
  Segment part 339. ROOT.
    -------------------------------------------------------------------------
SKIN_C
  Relative segment, address: CODE_AREA 00012BA8 - 00012BAB (0x4 bytes), align: 2
  Segment part 340. ROOT.
           ENTRY                   ADDRESS         REF BY
           =====                   =======         ======
           rightimg_show           00012BA8        walkman_Redraw(DISP_OBJ *, int, int, int) (main)
    -------------------------------------------------------------------------
SKIN_C
  Relative segment, address: CODE_AREA 00012BAC - 00012BD7 (0x2c bytes), align: 2
  Segment part 341. ROOT.
    -------------------------------------------------------------------------
SKIN_C
  Relative segment, address: CODE_AREA 00012BD8 - 00012BDF (0x8 bytes), align: 2
  Segment part 342. ROOT.
           ENTRY                   ADDRESS         REF BY
           =====                   =======         ======
           rightimg_rect           00012BD8        walkman_Redraw(DISP_OBJ *, int, int, int) (main)
    -------------------------------------------------------------------------
SKIN_C
  Relative segment, address: CODE_AREA 00012BE0 - 00012C0B (0x2c bytes), align: 2
  Segment part 343. ROOT.
    -------------------------------------------------------------------------
SKIN_C
  Relative segment, address: CODE_AREA 00012C0C - 00012C37 (0x2c bytes), align: 2
  Segment part 344. ROOT.
    -------------------------------------------------------------------------
SKIN_C
  Relative segment, address: CODE_AREA 00012C38 - 00012C63 (0x2c bytes), align: 2
  Segment part 345. ROOT.
    -------------------------------------------------------------------------
SKIN_C
  Relative segment, address: CODE_AREA 00012C64 - 00012C67 (0x4 bytes), align: 2
  Segment part 346. ROOT.
           ENTRY                   ADDRESS         REF BY
           =====                   =======         ======
           centerimg_show          00012C64        walkman_Redraw(DISP_OBJ *, int, int, int) (main)
    -------------------------------------------------------------------------
SKIN_C
  Relative segment, address: CODE_AREA 00012C68 - 00012C93 (0x2c bytes), align: 2
  Segment part 347. ROOT.
    -------------------------------------------------------------------------
SKIN_C
  Relative segment, address: CODE_AREA 00012C94 - 00012C9B (0x8 bytes), align: 2
  Segment part 348. ROOT.
           ENTRY                   ADDRESS         REF BY
           =====                   =======         ======
           centerimg_rect          00012C94        walkman_Redraw(DISP_OBJ *, int, int, int) (main)
    -------------------------------------------------------------------------
SKIN_C
  Relative segment, address: CODE_AREA 00012C9C - 00012CC7 (0x2c bytes), align: 2
  Segment part 349. ROOT.
    -------------------------------------------------------------------------
SKIN_C
  Relative segment, address: CODE_AREA 00012CC8 - 00012CF3 (0x2c bytes), align: 2
  Segment part 350. ROOT.
    -------------------------------------------------------------------------
SKIN_C
  Relative segment, address: CODE_AREA 00012CF4 - 00012D1F (0x2c bytes), align: 2
  Segment part 351. ROOT.
    -------------------------------------------------------------------------
SKIN_C
  Relative segment, address: CODE_AREA 00012D20 - 00012D23 (0x4 bytes), align: 2
  Segment part 352. ROOT.
           ENTRY                   ADDRESS         REF BY
           =====                   =======         ======
           upimg_show              00012D20        walkman_Redraw(DISP_OBJ *, int, int, int) (main)
    -------------------------------------------------------------------------
SKIN_C
  Relative segment, address: CODE_AREA 00012D24 - 00012D4F (0x2c bytes), align: 2
  Segment part 353. ROOT.
    -------------------------------------------------------------------------
SKIN_C
  Relative segment, address: CODE_AREA 00012D50 - 00012D57 (0x8 bytes), align: 2
  Segment part 354. ROOT.
           ENTRY                   ADDRESS         REF BY
           =====                   =======         ======
           upimg_rect              00012D50        walkman_Redraw(DISP_OBJ *, int, int, int) (main)
    -------------------------------------------------------------------------
SKIN_C
  Relative segment, address: CODE_AREA 00012D58 - 00012D83 (0x2c bytes), align: 2
  Segment part 355. ROOT.
    -------------------------------------------------------------------------
SKIN_C
  Relative segment, address: CODE_AREA 00012D84 - 00012DAF (0x2c bytes), align: 2
  Segment part 356. ROOT.
    -------------------------------------------------------------------------
SKIN_C
  Relative segment, address: CODE_AREA 00012DB0 - 00012DDB (0x2c bytes), align: 2
  Segment part 357. ROOT.
    -------------------------------------------------------------------------
SKIN_C
  Relative segment, address: CODE_AREA 00012DDC - 00012DDF (0x4 bytes), align: 2
  Segment part 358. ROOT.
           ENTRY                   ADDRESS         REF BY
           =====                   =======         ======
           downimg_show            00012DDC        walkman_Redraw(DISP_OBJ *, int, int, int) (main)
    -------------------------------------------------------------------------
SKIN_C
  Relative segment, address: CODE_AREA 00012DE0 - 00012E0B (0x2c bytes), align: 2
  Segment part 359. ROOT.
    -------------------------------------------------------------------------
SKIN_C
  Relative segment, address: CODE_AREA 00012E0C - 00012E13 (0x8 bytes), align: 2
  Segment part 360. ROOT.
           ENTRY                   ADDRESS         REF BY
           =====                   =======         ======
           downimg_rect            00012E0C        walkman_Redraw(DISP_OBJ *, int, int, int) (main)
    -------------------------------------------------------------------------
SKIN_C
  Relative segment, address: CODE_AREA 00012E14 - 00012E3F (0x2c bytes), align: 2
  Segment part 361. ROOT.
    -------------------------------------------------------------------------
SKIN_C
  Relative segment, address: CODE_AREA 00012E40 - 00012E6B (0x2c bytes), align: 2
  Segment part 362. ROOT.
    -------------------------------------------------------------------------
SKIN_C
  Relative segment, address: CODE_AREA 00012E6C - 00012E97 (0x2c bytes), align: 2
  Segment part 363. ROOT.
    -------------------------------------------------------------------------
SKIN_C
  Relative segment, address: CODE_AREA 00012E98 - 00012EC3 (0x2c bytes), align: 2
  Segment part 364. ROOT.
    -------------------------------------------------------------------------
SKIN_C
  Relative segment, address: CODE_AREA 00012EC4 - 00012EEF (0x2c bytes), align: 2
  Segment part 365. ROOT.
    -------------------------------------------------------------------------
SKIN_C
  Relative segment, address: CODE_AREA 00012EF0 - 00012F1B (0x2c bytes), align: 2
  Segment part 366. ROOT.
    -------------------------------------------------------------------------
SKIN_C
  Relative segment, address: CODE_AREA 00012F1C - 00012F1F (0x4 bytes), align: 2
  Segment part 367. ROOT.
           ENTRY                   ADDRESS         REF BY
           =====                   =======         ======
           title_show_h            00012F1C        walkman_Redraw(DISP_OBJ *, int, int, int) (main)
    -------------------------------------------------------------------------
SKIN_C
  Relative segment, address: CODE_AREA 00012F20 - 00012F4B (0x2c bytes), align: 2
  Segment part 368. ROOT.
    -------------------------------------------------------------------------
SKIN_C
  Relative segment, address: CODE_AREA 00012F4C - 00012F4F (0x4 bytes), align: 2
  Segment part 369. ROOT.
           ENTRY                   ADDRESS         REF BY
           =====                   =======         ======
           title_font_h            00012F4C        walkman_Redraw(DISP_OBJ *, int, int, int) (main)
    -------------------------------------------------------------------------
SKIN_C
  Relative segment, address: CODE_AREA 00012F50 - 00012F7B (0x2c bytes), align: 2
  Segment part 370. ROOT.
    -------------------------------------------------------------------------
SKIN_C
  Relative segment, address: CODE_AREA 00012F7C - 00012F83 (0x8 bytes), align: 2
  Segment part 371. ROOT.
           ENTRY                   ADDRESS         REF BY
           =====                   =======         ======
           title_rc_h              00012F7C        walkman_Redraw(DISP_OBJ *, int, int, int) (main)
    -------------------------------------------------------------------------
SKIN_C
  Relative segment, address: CODE_AREA 00012F84 - 00012FAF (0x2c bytes), align: 2
  Segment part 372. ROOT.
    -------------------------------------------------------------------------
SKIN_C
  Relative segment, address: CODE_AREA 00012FB0 - 00012FB3 (0x4 bytes), align: 2
  Segment part 373. ROOT.
           ENTRY                   ADDRESS         REF BY
           =====                   =======         ======
           title_color_h           00012FB0        walkman_Redraw(DISP_OBJ *, int, int, int) (main)
    -------------------------------------------------------------------------
SKIN_C
  Relative segment, address: CODE_AREA 00012FB4 - 00012FDF (0x2c bytes), align: 2
  Segment part 374. ROOT.
    -------------------------------------------------------------------------
SKIN_C
  Relative segment, address: CODE_AREA 00012FE0 - 00012FE3 (0x4 bytes), align: 2
  Segment part 375. ROOT.
           ENTRY                   ADDRESS         REF BY
           =====                   =======         ======
           title_scolor_h          00012FE0        walkman_Redraw(DISP_OBJ *, int, int, int) (main)
    -------------------------------------------------------------------------
SKIN_C
  Relative segment, address: CODE_AREA 00012FE4 - 0001300F (0x2c bytes), align: 2
  Segment part 376. ROOT.
    -------------------------------------------------------------------------
SKIN_C
  Relative segment, address: CODE_AREA 00013010 - 00013013 (0x4 bytes), align: 2
  Segment part 377. ROOT.
           ENTRY                   ADDRESS         REF BY
           =====                   =======         ======
           title_hl_h              00013010        walkman_Redraw(DISP_OBJ *, int, int, int) (main)
    -------------------------------------------------------------------------
SKIN_C
  Relative segment, address: CODE_AREA 00013014 - 00013073 (0x60 bytes), align: 2
  Segment part 378. ROOT.
    -------------------------------------------------------------------------
SKIN_C
  Relative segment, address: CODE_AREA 00013074 - 0001309F (0x2c bytes), align: 2
  Segment part 379. ROOT.
    -------------------------------------------------------------------------
SKIN_C
  Relative segment, address: CODE_AREA 000130A0 - 000130A3 (0x4 bytes), align: 2
  Segment part 380. ROOT.
           ENTRY                   ADDRESS         REF BY
           =====                   =======         ======
           title_ct_h              000130A0        walkman_Redraw(DISP_OBJ *, int, int, int) (main)
    -------------------------------------------------------------------------
SKIN_C
  Relative segment, address: CODE_AREA 000130A4 - 00013103 (0x60 bytes), align: 2
  Segment part 381. ROOT.
    -------------------------------------------------------------------------
SKIN_C
  Relative segment, address: CODE_AREA 00013104 - 0001312F (0x2c bytes), align: 2
  Segment part 382. ROOT.
    -------------------------------------------------------------------------
SKIN_C
  Relative segment, address: CODE_AREA 00013130 - 0001315B (0x2c bytes), align: 2
  Segment part 383. ROOT.
    -------------------------------------------------------------------------
SKIN_C
  Relative segment, address: CODE_AREA 0001315C - 00013187 (0x2c bytes), align: 2
  Segment part 384. ROOT.
    -------------------------------------------------------------------------
SKIN_C
  Relative segment, address: CODE_AREA 00013188 - 0001318B (0x4 bytes), align: 2
  Segment part 385. ROOT.
           ENTRY                   ADDRESS         REF BY
           =====                   =======         ======
           album_show_h            00013188        walkman_Redraw(DISP_OBJ *, int, int, int) (main)
    -------------------------------------------------------------------------
SKIN_C
  Relative segment, address: CODE_AREA 0001318C - 000131B7 (0x2c bytes), align: 2
  Segment part 386. ROOT.
    -------------------------------------------------------------------------
SKIN_C
  Relative segment, address: CODE_AREA 000131B8 - 000131BB (0x4 bytes), align: 2
  Segment part 387. ROOT.
           ENTRY                   ADDRESS         REF BY
           =====                   =======         ======
           album_font_h            000131B8        walkman_Redraw(DISP_OBJ *, int, int, int) (main)
    -------------------------------------------------------------------------
SKIN_C
  Relative segment, address: CODE_AREA 000131BC - 000131E7 (0x2c bytes), align: 2
  Segment part 388. ROOT.
    -------------------------------------------------------------------------
SKIN_C
  Relative segment, address: CODE_AREA 000131E8 - 000131EF (0x8 bytes), align: 2
  Segment part 389. ROOT.
           ENTRY                   ADDRESS         REF BY
           =====                   =======         ======
           album_rc_h              000131E8        walkman_Redraw(DISP_OBJ *, int, int, int) (main)
    -------------------------------------------------------------------------
SKIN_C
  Relative segment, address: CODE_AREA 000131F0 - 0001321B (0x2c bytes), align: 2
  Segment part 390. ROOT.
    -------------------------------------------------------------------------
SKIN_C
  Relative segment, address: CODE_AREA 0001321C - 0001321F (0x4 bytes), align: 2
  Segment part 391. ROOT.
           ENTRY                   ADDRESS         REF BY
           =====                   =======         ======
           album_color_h           0001321C        walkman_Redraw(DISP_OBJ *, int, int, int) (main)
    -------------------------------------------------------------------------
SKIN_C
  Relative segment, address: CODE_AREA 00013220 - 0001324B (0x2c bytes), align: 2
  Segment part 392. ROOT.
    -------------------------------------------------------------------------
SKIN_C
  Relative segment, address: CODE_AREA 0001324C - 0001324F (0x4 bytes), align: 2
  Segment part 393. ROOT.
           ENTRY                   ADDRESS         REF BY
           =====                   =======         ======
           album_scolor_h          0001324C        walkman_Redraw(DISP_OBJ *, int, int, int) (main)
    -------------------------------------------------------------------------
SKIN_C
  Relative segment, address: CODE_AREA 00013250 - 0001327B (0x2c bytes), align: 2
  Segment part 394. ROOT.
    -------------------------------------------------------------------------
SKIN_C
  Relative segment, address: CODE_AREA 0001327C - 0001327F (0x4 bytes), align: 2
  Segment part 395. ROOT.
           ENTRY                   ADDRESS         REF BY
           =====                   =======         ======
           album_hl_h              0001327C        walkman_Redraw(DISP_OBJ *, int, int, int) (main)
    -------------------------------------------------------------------------
SKIN_C
  Relative segment, address: CODE_AREA 00013280 - 000132DF (0x60 bytes), align: 2
  Segment part 396. ROOT.
    -------------------------------------------------------------------------
SKIN_C
  Relative segment, address: CODE_AREA 000132E0 - 0001330B (0x2c bytes), align: 2
  Segment part 397. ROOT.
    -------------------------------------------------------------------------
SKIN_C
  Relative segment, address: CODE_AREA 0001330C - 0001330F (0x4 bytes), align: 2
  Segment part 398. ROOT.
           ENTRY                   ADDRESS         REF BY
           =====                   =======         ======
           album_ct_h              0001330C        walkman_Redraw(DISP_OBJ *, int, int, int) (main)
    -------------------------------------------------------------------------
SKIN_C
  Relative segment, address: CODE_AREA 00013310 - 0001336F (0x60 bytes), align: 2
  Segment part 399. ROOT.
    -------------------------------------------------------------------------
SKIN_C
  Relative segment, address: CODE_AREA 00013370 - 0001339B (0x2c bytes), align: 2
  Segment part 400. ROOT.
    -------------------------------------------------------------------------
SKIN_C
  Relative segment, address: CODE_AREA 0001339C - 000133C7 (0x2c bytes), align: 2
  Segment part 401. ROOT.
    -------------------------------------------------------------------------
SKIN_C
  Relative segment, address: CODE_AREA 000133C8 - 000133F3 (0x2c bytes), align: 2
  Segment part 402. ROOT.
    -------------------------------------------------------------------------
SKIN_C
  Relative segment, address: CODE_AREA 000133F4 - 000133F7 (0x4 bytes), align: 2
  Segment part 403. ROOT.
           ENTRY                   ADDRESS         REF BY
           =====                   =======         ======
           artist_show_h           000133F4        walkman_Redraw(DISP_OBJ *, int, int, int) (main)
    -------------------------------------------------------------------------
SKIN_C
  Relative segment, address: CODE_AREA 000133F8 - 00013423 (0x2c bytes), align: 2
  Segment part 404. ROOT.
    -------------------------------------------------------------------------
SKIN_C
  Relative segment, address: CODE_AREA 00013424 - 00013427 (0x4 bytes), align: 2
  Segment part 405. ROOT.
           ENTRY                   ADDRESS         REF BY
           =====                   =======         ======
           artist_font_h           00013424        walkman_Redraw(DISP_OBJ *, int, int, int) (main)
    -------------------------------------------------------------------------
SKIN_C
  Relative segment, address: CODE_AREA 00013428 - 00013453 (0x2c bytes), align: 2
  Segment part 406. ROOT.
    -------------------------------------------------------------------------
SKIN_C
  Relative segment, address: CODE_AREA 00013454 - 0001345B (0x8 bytes), align: 2
  Segment part 407. ROOT.
           ENTRY                   ADDRESS         REF BY
           =====                   =======         ======
           artist_rc_h             00013454        walkman_Redraw(DISP_OBJ *, int, int, int) (main)
    -------------------------------------------------------------------------
SKIN_C
  Relative segment, address: CODE_AREA 0001345C - 00013487 (0x2c bytes), align: 2
  Segment part 408. ROOT.
    -------------------------------------------------------------------------
SKIN_C
  Relative segment, address: CODE_AREA 00013488 - 0001348B (0x4 bytes), align: 2
  Segment part 409. ROOT.
           ENTRY                   ADDRESS         REF BY
           =====                   =======         ======
           artist_color_h          00013488        walkman_Redraw(DISP_OBJ *, int, int, int) (main)
    -------------------------------------------------------------------------
SKIN_C
  Relative segment, address: CODE_AREA 0001348C - 000134B7 (0x2c bytes), align: 2
  Segment part 410. ROOT.
    -------------------------------------------------------------------------
SKIN_C
  Relative segment, address: CODE_AREA 000134B8 - 000134BB (0x4 bytes), align: 2
  Segment part 411. ROOT.
           ENTRY                   ADDRESS         REF BY
           =====                   =======         ======
           artist_scolor_h         000134B8        walkman_Redraw(DISP_OBJ *, int, int, int) (main)
    -------------------------------------------------------------------------
SKIN_C
  Relative segment, address: CODE_AREA 000134BC - 000134E7 (0x2c bytes), align: 2
  Segment part 412. ROOT.
    -------------------------------------------------------------------------
SKIN_C
  Relative segment, address: CODE_AREA 000134E8 - 000134EB (0x4 bytes), align: 2
  Segment part 413. ROOT.
           ENTRY                   ADDRESS         REF BY
           =====                   =======         ======
           artist_hl_h             000134E8        walkman_Redraw(DISP_OBJ *, int, int, int) (main)
    -------------------------------------------------------------------------
SKIN_C
  Relative segment, address: CODE_AREA 000134EC - 0001354B (0x60 bytes), align: 2
  Segment part 414. ROOT.
    -------------------------------------------------------------------------
SKIN_C
  Relative segment, address: CODE_AREA 0001354C - 00013577 (0x2c bytes), align: 2
  Segment part 415. ROOT.
    -------------------------------------------------------------------------
SKIN_C
  Relative segment, address: CODE_AREA 00013578 - 0001357B (0x4 bytes), align: 2
  Segment part 416. ROOT.
           ENTRY                   ADDRESS         REF BY
           =====                   =======         ======
           artist_ct_h             00013578        walkman_Redraw(DISP_OBJ *, int, int, int) (main)
    -------------------------------------------------------------------------
SKIN_C
  Relative segment, address: CODE_AREA 0001357C - 000135DB (0x60 bytes), align: 2
  Segment part 417. ROOT.
    -------------------------------------------------------------------------
SKIN_C
  Relative segment, address: CODE_AREA 000135DC - 00013607 (0x2c bytes), align: 2
  Segment part 418. ROOT.
    -------------------------------------------------------------------------
SKIN_C
  Relative segment, address: CODE_AREA 00013608 - 00013633 (0x2c bytes), align: 2
  Segment part 419. ROOT.
    -------------------------------------------------------------------------
SKIN_C
  Relative segment, address: CODE_AREA 00013634 - 0001365F (0x2c bytes), align: 2
  Segment part 420. ROOT.
    -------------------------------------------------------------------------
SKIN_C
  Relative segment, address: CODE_AREA 00013660 - 00013663 (0x4 bytes), align: 2
  Segment part 421. ROOT.
           ENTRY                   ADDRESS         REF BY
           =====                   =======         ======
           year_show_h             00013660        walkman_Redraw(DISP_OBJ *, int, int, int) (main)
    -------------------------------------------------------------------------
SKIN_C
  Relative segment, address: CODE_AREA 00013664 - 0001368F (0x2c bytes), align: 2
  Segment part 422. ROOT.
    -------------------------------------------------------------------------
SKIN_C
  Relative segment, address: CODE_AREA 00013690 - 00013693 (0x4 bytes), align: 2
  Segment part 423. ROOT.
           ENTRY                   ADDRESS         REF BY
           =====                   =======         ======
           year_font_h             00013690        walkman_Redraw(DISP_OBJ *, int, int, int) (main)
    -------------------------------------------------------------------------
SKIN_C
  Relative segment, address: CODE_AREA 00013694 - 000136BF (0x2c bytes), align: 2
  Segment part 424. ROOT.
    -------------------------------------------------------------------------
SKIN_C
  Relative segment, address: CODE_AREA 000136C0 - 000136C7 (0x8 bytes), align: 2
  Segment part 425. ROOT.
           ENTRY                   ADDRESS         REF BY
           =====                   =======         ======
           year_rc_h               000136C0        walkman_Redraw(DISP_OBJ *, int, int, int) (main)
    -------------------------------------------------------------------------
SKIN_C
  Relative segment, address: CODE_AREA 000136C8 - 000136F3 (0x2c bytes), align: 2
  Segment part 426. ROOT.
    -------------------------------------------------------------------------
SKIN_C
  Relative segment, address: CODE_AREA 000136F4 - 000136F7 (0x4 bytes), align: 2
  Segment part 427. ROOT.
           ENTRY                   ADDRESS         REF BY
           =====                   =======         ======
           year_color_h            000136F4        walkman_Redraw(DISP_OBJ *, int, int, int) (main)
    -------------------------------------------------------------------------
SKIN_C
  Relative segment, address: CODE_AREA 000136F8 - 00013723 (0x2c bytes), align: 2
  Segment part 428. ROOT.
    -------------------------------------------------------------------------
SKIN_C
  Relative segment, address: CODE_AREA 00013724 - 00013727 (0x4 bytes), align: 2
  Segment part 429. ROOT.
           ENTRY                   ADDRESS         REF BY
           =====                   =======         ======
           year_scolor_h           00013724        walkman_Redraw(DISP_OBJ *, int, int, int) (main)
    -------------------------------------------------------------------------
SKIN_C
  Relative segment, address: CODE_AREA 00013728 - 00013753 (0x2c bytes), align: 2
  Segment part 430. ROOT.
    -------------------------------------------------------------------------
SKIN_C
  Relative segment, address: CODE_AREA 00013754 - 00013757 (0x4 bytes), align: 2
  Segment part 431. ROOT.
           ENTRY                   ADDRESS         REF BY
           =====                   =======         ======
           year_hl_h               00013754        walkman_Redraw(DISP_OBJ *, int, int, int) (main)
    -------------------------------------------------------------------------
SKIN_C
  Relative segment, address: CODE_AREA 00013758 - 000137B7 (0x60 bytes), align: 2
  Segment part 432. ROOT.
    -------------------------------------------------------------------------
SKIN_C
  Relative segment, address: CODE_AREA 000137B8 - 000137E3 (0x2c bytes), align: 2
  Segment part 433. ROOT.
    -------------------------------------------------------------------------
SKIN_C
  Relative segment, address: CODE_AREA 000137E4 - 000137E7 (0x4 bytes), align: 2
  Segment part 434. ROOT.
           ENTRY                   ADDRESS         REF BY
           =====                   =======         ======
           year_ct_h               000137E4        walkman_Redraw(DISP_OBJ *, int, int, int) (main)
    -------------------------------------------------------------------------
SKIN_C
  Relative segment, address: CODE_AREA 000137E8 - 00013847 (0x60 bytes), align: 2
  Segment part 435. ROOT.
    -------------------------------------------------------------------------
SKIN_C
  Relative segment, address: CODE_AREA 00013848 - 00013873 (0x2c bytes), align: 2
  Segment part 436. ROOT.
    -------------------------------------------------------------------------
SKIN_C
  Relative segment, address: CODE_AREA 00013874 - 0001389F (0x2c bytes), align: 2
  Segment part 437. ROOT.
    -------------------------------------------------------------------------
SKIN_C
  Relative segment, address: CODE_AREA 000138A0 - 000138CB (0x2c bytes), align: 2
  Segment part 438. ROOT.
    -------------------------------------------------------------------------
SKIN_C
  Relative segment, address: CODE_AREA 000138CC - 000138CF (0x4 bytes), align: 2
  Segment part 439. ROOT.
           ENTRY                   ADDRESS         REF BY
           =====                   =======         ======
           genre_show_h            000138CC        walkman_Redraw(DISP_OBJ *, int, int, int) (main)
    -------------------------------------------------------------------------
SKIN_C
  Relative segment, address: CODE_AREA 000138D0 - 000138FB (0x2c bytes), align: 2
  Segment part 440. ROOT.
    -------------------------------------------------------------------------
SKIN_C
  Relative segment, address: CODE_AREA 000138FC - 000138FF (0x4 bytes), align: 2
  Segment part 441. ROOT.
           ENTRY                   ADDRESS         REF BY
           =====                   =======         ======
           genre_font_h            000138FC        walkman_Redraw(DISP_OBJ *, int, int, int) (main)
    -------------------------------------------------------------------------
SKIN_C
  Relative segment, address: CODE_AREA 00013900 - 0001392B (0x2c bytes), align: 2
  Segment part 442. ROOT.
    -------------------------------------------------------------------------
SKIN_C
  Relative segment, address: CODE_AREA 0001392C - 00013933 (0x8 bytes), align: 2
  Segment part 443. ROOT.
           ENTRY                   ADDRESS         REF BY
           =====                   =======         ======
           genre_rc_h              0001392C        walkman_Redraw(DISP_OBJ *, int, int, int) (main)
    -------------------------------------------------------------------------
SKIN_C
  Relative segment, address: CODE_AREA 00013934 - 0001395F (0x2c bytes), align: 2
  Segment part 444. ROOT.
    -------------------------------------------------------------------------
SKIN_C
  Relative segment, address: CODE_AREA 00013960 - 00013963 (0x4 bytes), align: 2
  Segment part 445. ROOT.
           ENTRY                   ADDRESS         REF BY
           =====                   =======         ======
           genre_color_h           00013960        walkman_Redraw(DISP_OBJ *, int, int, int) (main)
    -------------------------------------------------------------------------
SKIN_C
  Relative segment, address: CODE_AREA 00013964 - 0001398F (0x2c bytes), align: 2
  Segment part 446. ROOT.
    -------------------------------------------------------------------------
SKIN_C
  Relative segment, address: CODE_AREA 00013990 - 00013993 (0x4 bytes), align: 2
  Segment part 447. ROOT.
           ENTRY                   ADDRESS         REF BY
           =====                   =======         ======
           genre_scolor_h          00013990        walkman_Redraw(DISP_OBJ *, int, int, int) (main)
    -------------------------------------------------------------------------
SKIN_C
  Relative segment, address: CODE_AREA 00013994 - 000139BF (0x2c bytes), align: 2
  Segment part 448. ROOT.
    -------------------------------------------------------------------------
SKIN_C
  Relative segment, address: CODE_AREA 000139C0 - 000139C3 (0x4 bytes), align: 2
  Segment part 449. ROOT.
           ENTRY                   ADDRESS         REF BY
           =====                   =======         ======
           genre_hl_h              000139C0        walkman_Redraw(DISP_OBJ *, int, int, int) (main)
    -------------------------------------------------------------------------
SKIN_C
  Relative segment, address: CODE_AREA 000139C4 - 00013A23 (0x60 bytes), align: 2
  Segment part 450. ROOT.
    -------------------------------------------------------------------------
SKIN_C
  Relative segment, address: CODE_AREA 00013A24 - 00013A4F (0x2c bytes), align: 2
  Segment part 451. ROOT.
    -------------------------------------------------------------------------
SKIN_C
  Relative segment, address: CODE_AREA 00013A50 - 00013A53 (0x4 bytes), align: 2
  Segment part 452. ROOT.
           ENTRY                   ADDRESS         REF BY
           =====                   =======         ======
           genre_ct_h              00013A50        walkman_Redraw(DISP_OBJ *, int, int, int) (main)
    -------------------------------------------------------------------------
SKIN_C
  Relative segment, address: CODE_AREA 00013A54 - 00013AB3 (0x60 bytes), align: 2
  Segment part 453. ROOT.
    -------------------------------------------------------------------------
SKIN_C
  Relative segment, address: CODE_AREA 00013AB4 - 00013ADF (0x2c bytes), align: 2
  Segment part 454. ROOT.
    -------------------------------------------------------------------------
SKIN_C
  Relative segment, address: CODE_AREA 00013AE0 - 00013B0B (0x2c bytes), align: 2
  Segment part 455. ROOT.
    -------------------------------------------------------------------------
SKIN_C
  Relative segment, address: CODE_AREA 00013B0C - 00013B37 (0x2c bytes), align: 2
  Segment part 456. ROOT.
    -------------------------------------------------------------------------
SKIN_C
  Relative segment, address: CODE_AREA 00013B38 - 00013B3B (0x4 bytes), align: 2
  Segment part 457. ROOT.
           ENTRY                   ADDRESS         REF BY
           =====                   =======         ======
           trackn_show_h           00013B38        walkman_Redraw(DISP_OBJ *, int, int, int) (main)
    -------------------------------------------------------------------------
SKIN_C
  Relative segment, address: CODE_AREA 00013B3C - 00013B67 (0x2c bytes), align: 2
  Segment part 458. ROOT.
    -------------------------------------------------------------------------
SKIN_C
  Relative segment, address: CODE_AREA 00013B68 - 00013B6B (0x4 bytes), align: 2
  Segment part 459. ROOT.
           ENTRY                   ADDRESS         REF BY
           =====                   =======         ======
           trackn_font_h           00013B68        walkman_Redraw(DISP_OBJ *, int, int, int) (main)
    -------------------------------------------------------------------------
SKIN_C
  Relative segment, address: CODE_AREA 00013B6C - 00013B97 (0x2c bytes), align: 2
  Segment part 460. ROOT.
    -------------------------------------------------------------------------
SKIN_C
  Relative segment, address: CODE_AREA 00013B98 - 00013B9F (0x8 bytes), align: 2
  Segment part 461. ROOT.
           ENTRY                   ADDRESS         REF BY
           =====                   =======         ======
           trackn_rc_h             00013B98        walkman_Redraw(DISP_OBJ *, int, int, int) (main)
    -------------------------------------------------------------------------
SKIN_C
  Relative segment, address: CODE_AREA 00013BA0 - 00013BCB (0x2c bytes), align: 2
  Segment part 462. ROOT.
    -------------------------------------------------------------------------
SKIN_C
  Relative segment, address: CODE_AREA 00013BCC - 00013BCF (0x4 bytes), align: 2
  Segment part 463. ROOT.
           ENTRY                   ADDRESS         REF BY
           =====                   =======         ======
           trackn_color_h          00013BCC        walkman_Redraw(DISP_OBJ *, int, int, int) (main)
    -------------------------------------------------------------------------
SKIN_C
  Relative segment, address: CODE_AREA 00013BD0 - 00013BFB (0x2c bytes), align: 2
  Segment part 464. ROOT.
    -------------------------------------------------------------------------
SKIN_C
  Relative segment, address: CODE_AREA 00013BFC - 00013BFF (0x4 bytes), align: 2
  Segment part 465. ROOT.
           ENTRY                   ADDRESS         REF BY
           =====                   =======         ======
           trackn_scolor_h         00013BFC        walkman_Redraw(DISP_OBJ *, int, int, int) (main)
    -------------------------------------------------------------------------
SKIN_C
  Relative segment, address: CODE_AREA 00013C00 - 00013C2B (0x2c bytes), align: 2
  Segment part 466. ROOT.
    -------------------------------------------------------------------------
SKIN_C
  Relative segment, address: CODE_AREA 00013C2C - 00013C2F (0x4 bytes), align: 2
  Segment part 467. ROOT.
           ENTRY                   ADDRESS         REF BY
           =====                   =======         ======
           trackn_hl_h             00013C2C        walkman_Redraw(DISP_OBJ *, int, int, int) (main)
    -------------------------------------------------------------------------
SKIN_C
  Relative segment, address: CODE_AREA 00013C30 - 00013C8F (0x60 bytes), align: 2
  Segment part 468. ROOT.
    -------------------------------------------------------------------------
SKIN_C
  Relative segment, address: CODE_AREA 00013C90 - 00013CBB (0x2c bytes), align: 2
  Segment part 469. ROOT.
    -------------------------------------------------------------------------
SKIN_C
  Relative segment, address: CODE_AREA 00013CBC - 00013CBF (0x4 bytes), align: 2
  Segment part 470. ROOT.
           ENTRY                   ADDRESS         REF BY
           =====                   =======         ======
           trackn_ct_h             00013CBC        walkman_Redraw(DISP_OBJ *, int, int, int) (main)
    -------------------------------------------------------------------------
SKIN_C
  Relative segment, address: CODE_AREA 00013CC0 - 00013D1F (0x60 bytes), align: 2
  Segment part 471. ROOT.
    -------------------------------------------------------------------------
SKIN_C
  Relative segment, address: CODE_AREA 00013D20 - 00013D4B (0x2c bytes), align: 2
  Segment part 472. ROOT.
    -------------------------------------------------------------------------
SKIN_C
  Relative segment, address: CODE_AREA 00013D4C - 00013DAF (0x64 bytes), align: 2
  Segment part 473. ROOT.
           ENTRY                   ADDRESS         REF BY
           =====                   =======         ======
           trackn_mask_h           00013D4C        walkman_Redraw(DISP_OBJ *, int, int, int) (main)
    -------------------------------------------------------------------------
SKIN_C
  Relative segment, address: CODE_AREA 00013DB0 - 00013DDB (0x2c bytes), align: 2
  Segment part 474. ROOT.
    -------------------------------------------------------------------------
SKIN_C
  Relative segment, address: CODE_AREA 00013DDC - 00013E07 (0x2c bytes), align: 2
  Segment part 475. ROOT.
    -------------------------------------------------------------------------
SKIN_C
  Relative segment, address: CODE_AREA 00013E08 - 00013E33 (0x2c bytes), align: 2
  Segment part 476. ROOT.
    -------------------------------------------------------------------------
SKIN_C
  Relative segment, address: CODE_AREA 00013E34 - 00013E37 (0x4 bytes), align: 2
  Segment part 477. ROOT.
           ENTRY                   ADDRESS         REF BY
           =====                   =======         ======
           tracks_show_h           00013E34        walkman_Redraw(DISP_OBJ *, int, int, int) (main)
    -------------------------------------------------------------------------
SKIN_C
  Relative segment, address: CODE_AREA 00013E38 - 00013E63 (0x2c bytes), align: 2
  Segment part 478. ROOT.
    -------------------------------------------------------------------------
SKIN_C
  Relative segment, address: CODE_AREA 00013E64 - 00013E67 (0x4 bytes), align: 2
  Segment part 479. ROOT.
           ENTRY                   ADDRESS         REF BY
           =====                   =======         ======
           tracks_font_h           00013E64        walkman_Redraw(DISP_OBJ *, int, int, int) (main)
    -------------------------------------------------------------------------
SKIN_C
  Relative segment, address: CODE_AREA 00013E68 - 00013E93 (0x2c bytes), align: 2
  Segment part 480. ROOT.
    -------------------------------------------------------------------------
SKIN_C
  Relative segment, address: CODE_AREA 00013E94 - 00013E9B (0x8 bytes), align: 2
  Segment part 481. ROOT.
           ENTRY                   ADDRESS         REF BY
           =====                   =======         ======
           tracks_rc_h             00013E94        walkman_Redraw(DISP_OBJ *, int, int, int) (main)
    -------------------------------------------------------------------------
SKIN_C
  Relative segment, address: CODE_AREA 00013E9C - 00013EC7 (0x2c bytes), align: 2
  Segment part 482. ROOT.
    -------------------------------------------------------------------------
SKIN_C
  Relative segment, address: CODE_AREA 00013EC8 - 00013ECB (0x4 bytes), align: 2
  Segment part 483. ROOT.
           ENTRY                   ADDRESS         REF BY
           =====                   =======         ======
           tracks_color_h          00013EC8        walkman_Redraw(DISP_OBJ *, int, int, int) (main)
    -------------------------------------------------------------------------
SKIN_C
  Relative segment, address: CODE_AREA 00013ECC - 00013EF7 (0x2c bytes), align: 2
  Segment part 484. ROOT.
    -------------------------------------------------------------------------
SKIN_C
  Relative segment, address: CODE_AREA 00013EF8 - 00013EFB (0x4 bytes), align: 2
  Segment part 485. ROOT.
           ENTRY                   ADDRESS         REF BY
           =====                   =======         ======
           tracks_scolor_h         00013EF8        walkman_Redraw(DISP_OBJ *, int, int, int) (main)
    -------------------------------------------------------------------------
SKIN_C
  Relative segment, address: CODE_AREA 00013EFC - 00013F27 (0x2c bytes), align: 2
  Segment part 486. ROOT.
    -------------------------------------------------------------------------
SKIN_C
  Relative segment, address: CODE_AREA 00013F28 - 00013F2B (0x4 bytes), align: 2
  Segment part 487. ROOT.
           ENTRY                   ADDRESS         REF BY
           =====                   =======         ======
           tracks_hl_h             00013F28        walkman_Redraw(DISP_OBJ *, int, int, int) (main)
    -------------------------------------------------------------------------
SKIN_C
  Relative segment, address: CODE_AREA 00013F2C - 00013F8B (0x60 bytes), align: 2
  Segment part 488. ROOT.
    -------------------------------------------------------------------------
SKIN_C
  Relative segment, address: CODE_AREA 00013F8C - 00013FB7 (0x2c bytes), align: 2
  Segment part 489. ROOT.
    -------------------------------------------------------------------------
SKIN_C
  Relative segment, address: CODE_AREA 00013FB8 - 00013FBB (0x4 bytes), align: 2
  Segment part 490. ROOT.
           ENTRY                   ADDRESS         REF BY
           =====                   =======         ======
           tracks_ct_h             00013FB8        walkman_Redraw(DISP_OBJ *, int, int, int) (main)
    -------------------------------------------------------------------------
SKIN_C
  Relative segment, address: CODE_AREA 00013FBC - 0001401B (0x60 bytes), align: 2
  Segment part 491. ROOT.
    -------------------------------------------------------------------------
SKIN_C
  Relative segment, address: CODE_AREA 0001401C - 00014047 (0x2c bytes), align: 2
  Segment part 492. ROOT.
    -------------------------------------------------------------------------
SKIN_C
  Relative segment, address: CODE_AREA 00014048 - 000140AB (0x64 bytes), align: 2
  Segment part 493. ROOT.
           ENTRY                   ADDRESS         REF BY
           =====                   =======         ======
           tracks_mask_h           00014048        walkman_Redraw(DISP_OBJ *, int, int, int) (main)
    -------------------------------------------------------------------------
SKIN_C
  Relative segment, address: CODE_AREA 000140AC - 000140D7 (0x2c bytes), align: 2
  Segment part 494. ROOT.
    -------------------------------------------------------------------------
SKIN_C
  Relative segment, address: CODE_AREA 000140D8 - 00014103 (0x2c bytes), align: 2
  Segment part 495. ROOT.
    -------------------------------------------------------------------------
SKIN_C
  Relative segment, address: CODE_AREA 00014104 - 0001412F (0x2c bytes), align: 2
  Segment part 496. ROOT.
    -------------------------------------------------------------------------
SKIN_C
  Relative segment, address: CODE_AREA 00014130 - 00014133 (0x4 bytes), align: 2
  Segment part 497. ROOT.
           ENTRY                   ADDRESS         REF BY
           =====                   =======         ======
           ctime_show_h            00014130        walkman_Redraw(DISP_OBJ *, int, int, int) (main)
    -------------------------------------------------------------------------
SKIN_C
  Relative segment, address: CODE_AREA 00014134 - 0001415F (0x2c bytes), align: 2
  Segment part 498. ROOT.
    -------------------------------------------------------------------------
SKIN_C
  Relative segment, address: CODE_AREA 00014160 - 00014163 (0x4 bytes), align: 2
  Segment part 499. ROOT.
           ENTRY                   ADDRESS         REF BY
           =====                   =======         ======
           ctime_font_h            00014160        walkman_Redraw(DISP_OBJ *, int, int, int) (main)
    -------------------------------------------------------------------------
SKIN_C
  Relative segment, address: CODE_AREA 00014164 - 0001418F (0x2c bytes), align: 2
  Segment part 500. ROOT.
    -------------------------------------------------------------------------
SKIN_C
  Relative segment, address: CODE_AREA 00014190 - 00014197 (0x8 bytes), align: 2
  Segment part 501. ROOT.
           ENTRY                   ADDRESS         REF BY
           =====                   =======         ======
           ctime_rc_h              00014190        walkman_Redraw(DISP_OBJ *, int, int, int) (main)
    -------------------------------------------------------------------------
SKIN_C
  Relative segment, address: CODE_AREA 00014198 - 000141C3 (0x2c bytes), align: 2
  Segment part 502. ROOT.
    -------------------------------------------------------------------------
SKIN_C
  Relative segment, address: CODE_AREA 000141C4 - 000141C7 (0x4 bytes), align: 2
  Segment part 503. ROOT.
           ENTRY                   ADDRESS         REF BY
           =====                   =======         ======
           ctime_color_h           000141C4        walkman_Redraw(DISP_OBJ *, int, int, int) (main)
    -------------------------------------------------------------------------
SKIN_C
  Relative segment, address: CODE_AREA 000141C8 - 000141F3 (0x2c bytes), align: 2
  Segment part 504. ROOT.
    -------------------------------------------------------------------------
SKIN_C
  Relative segment, address: CODE_AREA 000141F4 - 000141F7 (0x4 bytes), align: 2
  Segment part 505. ROOT.
           ENTRY                   ADDRESS         REF BY
           =====                   =======         ======
           ctime_scolor_h          000141F4        walkman_Redraw(DISP_OBJ *, int, int, int) (main)
    -------------------------------------------------------------------------
SKIN_C
  Relative segment, address: CODE_AREA 000141F8 - 00014223 (0x2c bytes), align: 2
  Segment part 506. ROOT.
    -------------------------------------------------------------------------
SKIN_C
  Relative segment, address: CODE_AREA 00014224 - 00014227 (0x4 bytes), align: 2
  Segment part 507. ROOT.
           ENTRY                   ADDRESS         REF BY
           =====                   =======         ======
           ctime_hl_h              00014224        walkman_Redraw(DISP_OBJ *, int, int, int) (main)
    -------------------------------------------------------------------------
SKIN_C
  Relative segment, address: CODE_AREA 00014228 - 00014287 (0x60 bytes), align: 2
  Segment part 508. ROOT.
    -------------------------------------------------------------------------
SKIN_C
  Relative segment, address: CODE_AREA 00014288 - 000142B3 (0x2c bytes), align: 2
  Segment part 509. ROOT.
    -------------------------------------------------------------------------
SKIN_C
  Relative segment, address: CODE_AREA 000142B4 - 000142B7 (0x4 bytes), align: 2
  Segment part 510. ROOT.
           ENTRY                   ADDRESS         REF BY
           =====                   =======         ======
           ctime_ct_h              000142B4        walkman_Redraw(DISP_OBJ *, int, int, int) (main)
    -------------------------------------------------------------------------
SKIN_C
  Relative segment, address: CODE_AREA 000142B8 - 00014317 (0x60 bytes), align: 2
  Segment part 511. ROOT.
    -------------------------------------------------------------------------
SKIN_C
  Relative segment, address: CODE_AREA 00014318 - 00014343 (0x2c bytes), align: 2
  Segment part 512. ROOT.
    -------------------------------------------------------------------------
SKIN_C
  Relative segment, address: CODE_AREA 00014344 - 000143A7 (0x64 bytes), align: 2
  Segment part 513. ROOT.
           ENTRY                   ADDRESS         REF BY
           =====                   =======         ======
           ctime_mask_h            00014344        walkman_Redraw(DISP_OBJ *, int, int, int) (main)
    -------------------------------------------------------------------------
SKIN_C
  Relative segment, address: CODE_AREA 000143A8 - 000143D3 (0x2c bytes), align: 2
  Segment part 514. ROOT.
    -------------------------------------------------------------------------
SKIN_C
  Relative segment, address: CODE_AREA 000143D4 - 000143FF (0x2c bytes), align: 2
  Segment part 515. ROOT.
    -------------------------------------------------------------------------
SKIN_C
  Relative segment, address: CODE_AREA 00014400 - 0001442B (0x2c bytes), align: 2
  Segment part 516. ROOT.
    -------------------------------------------------------------------------
SKIN_C
  Relative segment, address: CODE_AREA 0001442C - 0001442F (0x4 bytes), align: 2
  Segment part 517. ROOT.
           ENTRY                   ADDRESS         REF BY
           =====                   =======         ======
           ftime_show_h            0001442C        walkman_Redraw(DISP_OBJ *, int, int, int) (main)
    -------------------------------------------------------------------------
SKIN_C
  Relative segment, address: CODE_AREA 00014430 - 0001445B (0x2c bytes), align: 2
  Segment part 518. ROOT.
    -------------------------------------------------------------------------
SKIN_C
  Relative segment, address: CODE_AREA 0001445C - 0001445F (0x4 bytes), align: 2
  Segment part 519. ROOT.
           ENTRY                   ADDRESS         REF BY
           =====                   =======         ======
           ftime_font_h            0001445C        walkman_Redraw(DISP_OBJ *, int, int, int) (main)
    -------------------------------------------------------------------------
SKIN_C
  Relative segment, address: CODE_AREA 00014460 - 0001448B (0x2c bytes), align: 2
  Segment part 520. ROOT.
    -------------------------------------------------------------------------
SKIN_C
  Relative segment, address: CODE_AREA 0001448C - 00014493 (0x8 bytes), align: 2
  Segment part 521. ROOT.
           ENTRY                   ADDRESS         REF BY
           =====                   =======         ======
           ftime_rc_h              0001448C        walkman_Redraw(DISP_OBJ *, int, int, int) (main)
    -------------------------------------------------------------------------
SKIN_C
  Relative segment, address: CODE_AREA 00014494 - 000144BF (0x2c bytes), align: 2
  Segment part 522. ROOT.
    -------------------------------------------------------------------------
SKIN_C
  Relative segment, address: CODE_AREA 000144C0 - 000144C3 (0x4 bytes), align: 2
  Segment part 523. ROOT.
           ENTRY                   ADDRESS         REF BY
           =====                   =======         ======
           ftime_color_h           000144C0        walkman_Redraw(DISP_OBJ *, int, int, int) (main)
    -------------------------------------------------------------------------
SKIN_C
  Relative segment, address: CODE_AREA 000144C4 - 000144EF (0x2c bytes), align: 2
  Segment part 524. ROOT.
    -------------------------------------------------------------------------
SKIN_C
  Relative segment, address: CODE_AREA 000144F0 - 000144F3 (0x4 bytes), align: 2
  Segment part 525. ROOT.
           ENTRY                   ADDRESS         REF BY
           =====                   =======         ======
           ftime_scolor_h          000144F0        walkman_Redraw(DISP_OBJ *, int, int, int) (main)
    -------------------------------------------------------------------------
SKIN_C
  Relative segment, address: CODE_AREA 000144F4 - 0001451F (0x2c bytes), align: 2
  Segment part 526. ROOT.
    -------------------------------------------------------------------------
SKIN_C
  Relative segment, address: CODE_AREA 00014520 - 00014523 (0x4 bytes), align: 2
  Segment part 527. ROOT.
           ENTRY                   ADDRESS         REF BY
           =====                   =======         ======
           ftime_hl_h              00014520        walkman_Redraw(DISP_OBJ *, int, int, int) (main)
    -------------------------------------------------------------------------
SKIN_C
  Relative segment, address: CODE_AREA 00014524 - 00014583 (0x60 bytes), align: 2
  Segment part 528. ROOT.
    -------------------------------------------------------------------------
SKIN_C
  Relative segment, address: CODE_AREA 00014584 - 000145AF (0x2c bytes), align: 2
  Segment part 529. ROOT.
    -------------------------------------------------------------------------
SKIN_C
  Relative segment, address: CODE_AREA 000145B0 - 000145B3 (0x4 bytes), align: 2
  Segment part 530. ROOT.
           ENTRY                   ADDRESS         REF BY
           =====                   =======         ======
           ftime_ct_h              000145B0        walkman_Redraw(DISP_OBJ *, int, int, int) (main)
    -------------------------------------------------------------------------
SKIN_C
  Relative segment, address: CODE_AREA 000145B4 - 00014613 (0x60 bytes), align: 2
  Segment part 531. ROOT.
    -------------------------------------------------------------------------
SKIN_C
  Relative segment, address: CODE_AREA 00014614 - 0001463F (0x2c bytes), align: 2
  Segment part 532. ROOT.
    -------------------------------------------------------------------------
SKIN_C
  Relative segment, address: CODE_AREA 00014640 - 000146A3 (0x64 bytes), align: 2
  Segment part 533. ROOT.
           ENTRY                   ADDRESS         REF BY
           =====                   =======         ======
           ftime_mask_h            00014640        walkman_Redraw(DISP_OBJ *, int, int, int) (main)
    -------------------------------------------------------------------------
SKIN_C
  Relative segment, address: CODE_AREA 000146A4 - 000146CF (0x2c bytes), align: 2
  Segment part 534. ROOT.
    -------------------------------------------------------------------------
SKIN_C
  Relative segment, address: CODE_AREA 000146D0 - 000146FB (0x2c bytes), align: 2
  Segment part 535. ROOT.
    -------------------------------------------------------------------------
SKIN_C
  Relative segment, address: CODE_AREA 000146FC - 00014727 (0x2c bytes), align: 2
  Segment part 536. ROOT.
    -------------------------------------------------------------------------
SKIN_C
  Relative segment, address: CODE_AREA 00014728 - 0001472B (0x4 bytes), align: 2
  Segment part 537. ROOT.
           ENTRY                   ADDRESS         REF BY
           =====                   =======         ======
           ltime_show_h            00014728        walkman_Redraw(DISP_OBJ *, int, int, int) (main)
    -------------------------------------------------------------------------
SKIN_C
  Relative segment, address: CODE_AREA 0001472C - 00014757 (0x2c bytes), align: 2
  Segment part 538. ROOT.
    -------------------------------------------------------------------------
SKIN_C
  Relative segment, address: CODE_AREA 00014758 - 0001475B (0x4 bytes), align: 2
  Segment part 539. ROOT.
           ENTRY                   ADDRESS         REF BY
           =====                   =======         ======
           ltime_font_h            00014758        walkman_Redraw(DISP_OBJ *, int, int, int) (main)
    -------------------------------------------------------------------------
SKIN_C
  Relative segment, address: CODE_AREA 0001475C - 00014787 (0x2c bytes), align: 2
  Segment part 540. ROOT.
    -------------------------------------------------------------------------
SKIN_C
  Relative segment, address: CODE_AREA 00014788 - 0001478F (0x8 bytes), align: 2
  Segment part 541. ROOT.
           ENTRY                   ADDRESS         REF BY
           =====                   =======         ======
           ltime_rc_h              00014788        walkman_Redraw(DISP_OBJ *, int, int, int) (main)
    -------------------------------------------------------------------------
SKIN_C
  Relative segment, address: CODE_AREA 00014790 - 000147BB (0x2c bytes), align: 2
  Segment part 542. ROOT.
    -------------------------------------------------------------------------
SKIN_C
  Relative segment, address: CODE_AREA 000147BC - 000147BF (0x4 bytes), align: 2
  Segment part 543. ROOT.
           ENTRY                   ADDRESS         REF BY
           =====                   =======         ======
           ltime_color_h           000147BC        walkman_Redraw(DISP_OBJ *, int, int, int) (main)
    -------------------------------------------------------------------------
SKIN_C
  Relative segment, address: CODE_AREA 000147C0 - 000147EB (0x2c bytes), align: 2
  Segment part 544. ROOT.
    -------------------------------------------------------------------------
SKIN_C
  Relative segment, address: CODE_AREA 000147EC - 000147EF (0x4 bytes), align: 2
  Segment part 545. ROOT.
           ENTRY                   ADDRESS         REF BY
           =====                   =======         ======
           ltime_scolor_h          000147EC        walkman_Redraw(DISP_OBJ *, int, int, int) (main)
    -------------------------------------------------------------------------
SKIN_C
  Relative segment, address: CODE_AREA 000147F0 - 0001481B (0x2c bytes), align: 2
  Segment part 546. ROOT.
    -------------------------------------------------------------------------
SKIN_C
  Relative segment, address: CODE_AREA 0001481C - 0001481F (0x4 bytes), align: 2
  Segment part 547. ROOT.
           ENTRY                   ADDRESS         REF BY
           =====                   =======         ======
           ltime_hl_h              0001481C        walkman_Redraw(DISP_OBJ *, int, int, int) (main)
    -------------------------------------------------------------------------
SKIN_C
  Relative segment, address: CODE_AREA 00014820 - 0001487F (0x60 bytes), align: 2
  Segment part 548. ROOT.
    -------------------------------------------------------------------------
SKIN_C
  Relative segment, address: CODE_AREA 00014880 - 000148AB (0x2c bytes), align: 2
  Segment part 549. ROOT.
    -------------------------------------------------------------------------
SKIN_C
  Relative segment, address: CODE_AREA 000148AC - 000148AF (0x4 bytes), align: 2
  Segment part 550. ROOT.
           ENTRY                   ADDRESS         REF BY
           =====                   =======         ======
           ltime_ct_h              000148AC        walkman_Redraw(DISP_OBJ *, int, int, int) (main)
    -------------------------------------------------------------------------
SKIN_C
  Relative segment, address: CODE_AREA 000148B0 - 0001490F (0x60 bytes), align: 2
  Segment part 551. ROOT.
    -------------------------------------------------------------------------
SKIN_C
  Relative segment, address: CODE_AREA 00014910 - 0001493B (0x2c bytes), align: 2
  Segment part 552. ROOT.
    -------------------------------------------------------------------------
SKIN_C
  Relative segment, address: CODE_AREA 0001493C - 0001499F (0x64 bytes), align: 2
  Segment part 553. ROOT.
           ENTRY                   ADDRESS         REF BY
           =====                   =======         ======
           ltime_mask_h            0001493C        walkman_Redraw(DISP_OBJ *, int, int, int) (main)
    -------------------------------------------------------------------------
SKIN_C
  Relative segment, address: CODE_AREA 000149A0 - 000149CB (0x2c bytes), align: 2
  Segment part 554. ROOT.
    -------------------------------------------------------------------------
SKIN_C
  Relative segment, address: CODE_AREA 000149CC - 000149F7 (0x2c bytes), align: 2
  Segment part 555. ROOT.
    -------------------------------------------------------------------------
SKIN_C
  Relative segment, address: CODE_AREA 000149F8 - 00014A23 (0x2c bytes), align: 2
  Segment part 556. ROOT.
    -------------------------------------------------------------------------
SKIN_C
  Relative segment, address: CODE_AREA 00014A24 - 00014A27 (0x4 bytes), align: 2
  Segment part 557. ROOT.
           ENTRY                   ADDRESS         REF BY
           =====                   =======         ======
           bitrate_show_h          00014A24        walkman_Redraw(DISP_OBJ *, int, int, int) (main)
    -------------------------------------------------------------------------
SKIN_C
  Relative segment, address: CODE_AREA 00014A28 - 00014A53 (0x2c bytes), align: 2
  Segment part 558. ROOT.
    -------------------------------------------------------------------------
SKIN_C
  Relative segment, address: CODE_AREA 00014A54 - 00014A57 (0x4 bytes), align: 2
  Segment part 559. ROOT.
           ENTRY                   ADDRESS         REF BY
           =====                   =======         ======
           bitrate_font_h          00014A54        walkman_Redraw(DISP_OBJ *, int, int, int) (main)
    -------------------------------------------------------------------------
SKIN_C
  Relative segment, address: CODE_AREA 00014A58 - 00014A83 (0x2c bytes), align: 2
  Segment part 560. ROOT.
    -------------------------------------------------------------------------
SKIN_C
  Relative segment, address: CODE_AREA 00014A84 - 00014A8B (0x8 bytes), align: 2
  Segment part 561. ROOT.
           ENTRY                   ADDRESS         REF BY
           =====                   =======         ======
           bitrate_rc_h            00014A84        walkman_Redraw(DISP_OBJ *, int, int, int) (main)
    -------------------------------------------------------------------------
SKIN_C
  Relative segment, address: CODE_AREA 00014A8C - 00014AB7 (0x2c bytes), align: 2
  Segment part 562. ROOT.
    -------------------------------------------------------------------------
SKIN_C
  Relative segment, address: CODE_AREA 00014AB8 - 00014ABB (0x4 bytes), align: 2
  Segment part 563. ROOT.
           ENTRY                   ADDRESS         REF BY
           =====                   =======         ======
           bitrate_color_h         00014AB8        walkman_Redraw(DISP_OBJ *, int, int, int) (main)
    -------------------------------------------------------------------------
SKIN_C
  Relative segment, address: CODE_AREA 00014ABC - 00014AE7 (0x2c bytes), align: 2
  Segment part 564. ROOT.
    -------------------------------------------------------------------------
SKIN_C
  Relative segment, address: CODE_AREA 00014AE8 - 00014AEB (0x4 bytes), align: 2
  Segment part 565. ROOT.
           ENTRY                   ADDRESS         REF BY
           =====                   =======         ======
           bitrate_scolor_h        00014AE8        walkman_Redraw(DISP_OBJ *, int, int, int) (main)
    -------------------------------------------------------------------------
SKIN_C
  Relative segment, address: CODE_AREA 00014AEC - 00014B17 (0x2c bytes), align: 2
  Segment part 566. ROOT.
    -------------------------------------------------------------------------
SKIN_C
  Relative segment, address: CODE_AREA 00014B18 - 00014B1B (0x4 bytes), align: 2
  Segment part 567. ROOT.
           ENTRY                   ADDRESS         REF BY
           =====                   =======         ======
           bitrate_hl_h            00014B18        walkman_Redraw(DISP_OBJ *, int, int, int) (main)
    -------------------------------------------------------------------------
SKIN_C
  Relative segment, address: CODE_AREA 00014B1C - 00014B7B (0x60 bytes), align: 2
  Segment part 568. ROOT.
    -------------------------------------------------------------------------
SKIN_C
  Relative segment, address: CODE_AREA 00014B7C - 00014BA7 (0x2c bytes), align: 2
  Segment part 569. ROOT.
    -------------------------------------------------------------------------
SKIN_C
  Relative segment, address: CODE_AREA 00014BA8 - 00014BAB (0x4 bytes), align: 2
  Segment part 570. ROOT.
           ENTRY                   ADDRESS         REF BY
           =====                   =======         ======
           bitrate_ct_h            00014BA8        walkman_Redraw(DISP_OBJ *, int, int, int) (main)
    -------------------------------------------------------------------------
SKIN_C
  Relative segment, address: CODE_AREA 00014BAC - 00014C0B (0x60 bytes), align: 2
  Segment part 571. ROOT.
    -------------------------------------------------------------------------
SKIN_C
  Relative segment, address: CODE_AREA 00014C0C - 00014C37 (0x2c bytes), align: 2
  Segment part 572. ROOT.
    -------------------------------------------------------------------------
SKIN_C
  Relative segment, address: CODE_AREA 00014C38 - 00014C9B (0x64 bytes), align: 2
  Segment part 573. ROOT.
           ENTRY                   ADDRESS         REF BY
           =====                   =======         ======
           bitrate_mask_h          00014C38        walkman_Redraw(DISP_OBJ *, int, int, int) (main)
    -------------------------------------------------------------------------
SKIN_C
  Relative segment, address: CODE_AREA 00014C9C - 00014CC7 (0x2c bytes), align: 2
  Segment part 574. ROOT.
    -------------------------------------------------------------------------
SKIN_C
  Relative segment, address: CODE_AREA 00014CC8 - 00014D2B (0x64 bytes), align: 2
  Segment part 575. ROOT.
           ENTRY                   ADDRESS         REF BY
           =====                   =======         ======
           bitrate_vbr_h           00014CC8        walkman_Redraw(DISP_OBJ *, int, int, int) (main)
    -------------------------------------------------------------------------
SKIN_C
  Relative segment, address: CODE_AREA 00014D2C - 00014D57 (0x2c bytes), align: 2
  Segment part 576. ROOT.
    -------------------------------------------------------------------------
SKIN_C
  Relative segment, address: CODE_AREA 00014D58 - 00014D83 (0x2c bytes), align: 2
  Segment part 577. ROOT.
    -------------------------------------------------------------------------
SKIN_C
  Relative segment, address: CODE_AREA 00014D84 - 00014DAF (0x2c bytes), align: 2
  Segment part 578. ROOT.
    -------------------------------------------------------------------------
SKIN_C
  Relative segment, address: CODE_AREA 00014DB0 - 00014DB3 (0x4 bytes), align: 2
  Segment part 579. ROOT.
           ENTRY                   ADDRESS         REF BY
           =====                   =======         ======
           freq_show_h             00014DB0        walkman_Redraw(DISP_OBJ *, int, int, int) (main)
    -------------------------------------------------------------------------
SKIN_C
  Relative segment, address: CODE_AREA 00014DB4 - 00014DDF (0x2c bytes), align: 2
  Segment part 580. ROOT.
    -------------------------------------------------------------------------
SKIN_C
  Relative segment, address: CODE_AREA 00014DE0 - 00014DE3 (0x4 bytes), align: 2
  Segment part 581. ROOT.
           ENTRY                   ADDRESS         REF BY
           =====                   =======         ======
           freq_font_h             00014DE0        walkman_Redraw(DISP_OBJ *, int, int, int) (main)
    -------------------------------------------------------------------------
SKIN_C
  Relative segment, address: CODE_AREA 00014DE4 - 00014E0F (0x2c bytes), align: 2
  Segment part 582. ROOT.
    -------------------------------------------------------------------------
SKIN_C
  Relative segment, address: CODE_AREA 00014E10 - 00014E17 (0x8 bytes), align: 2
  Segment part 583. ROOT.
           ENTRY                   ADDRESS         REF BY
           =====                   =======         ======
           freq_rc_h               00014E10        walkman_Redraw(DISP_OBJ *, int, int, int) (main)
    -------------------------------------------------------------------------
SKIN_C
  Relative segment, address: CODE_AREA 00014E18 - 00014E43 (0x2c bytes), align: 2
  Segment part 584. ROOT.
    -------------------------------------------------------------------------
SKIN_C
  Relative segment, address: CODE_AREA 00014E44 - 00014E47 (0x4 bytes), align: 2
  Segment part 585. ROOT.
           ENTRY                   ADDRESS         REF BY
           =====                   =======         ======
           freq_color_h            00014E44        walkman_Redraw(DISP_OBJ *, int, int, int) (main)
    -------------------------------------------------------------------------
SKIN_C
  Relative segment, address: CODE_AREA 00014E48 - 00014E73 (0x2c bytes), align: 2
  Segment part 586. ROOT.
    -------------------------------------------------------------------------
SKIN_C
  Relative segment, address: CODE_AREA 00014E74 - 00014E77 (0x4 bytes), align: 2
  Segment part 587. ROOT.
           ENTRY                   ADDRESS         REF BY
           =====                   =======         ======
           freq_scolor_h           00014E74        walkman_Redraw(DISP_OBJ *, int, int, int) (main)
    -------------------------------------------------------------------------
SKIN_C
  Relative segment, address: CODE_AREA 00014E78 - 00014EA3 (0x2c bytes), align: 2
  Segment part 588. ROOT.
    -------------------------------------------------------------------------
SKIN_C
  Relative segment, address: CODE_AREA 00014EA4 - 00014EA7 (0x4 bytes), align: 2
  Segment part 589. ROOT.
           ENTRY                   ADDRESS         REF BY
           =====                   =======         ======
           freq_hl_h               00014EA4        walkman_Redraw(DISP_OBJ *, int, int, int) (main)
    -------------------------------------------------------------------------
SKIN_C
  Relative segment, address: CODE_AREA 00014EA8 - 00014F07 (0x60 bytes), align: 2
  Segment part 590. ROOT.
    -------------------------------------------------------------------------
SKIN_C
  Relative segment, address: CODE_AREA 00014F08 - 00014F33 (0x2c bytes), align: 2
  Segment part 591. ROOT.
    -------------------------------------------------------------------------
SKIN_C
  Relative segment, address: CODE_AREA 00014F34 - 00014F37 (0x4 bytes), align: 2
  Segment part 592. ROOT.
           ENTRY                   ADDRESS         REF BY
           =====                   =======         ======
           freq_ct_h               00014F34        walkman_Redraw(DISP_OBJ *, int, int, int) (main)
    -------------------------------------------------------------------------
SKIN_C
  Relative segment, address: CODE_AREA 00014F38 - 00014F97 (0x60 bytes), align: 2
  Segment part 593. ROOT.
    -------------------------------------------------------------------------
SKIN_C
  Relative segment, address: CODE_AREA 00014F98 - 00014FC3 (0x2c bytes), align: 2
  Segment part 594. ROOT.
    -------------------------------------------------------------------------
SKIN_C
  Relative segment, address: CODE_AREA 00014FC4 - 00015027 (0x64 bytes), align: 2
  Segment part 595. ROOT.
           ENTRY                   ADDRESS         REF BY
           =====                   =======         ======
           freq_mask_h             00014FC4        walkman_Redraw(DISP_OBJ *, int, int, int) (main)
    -------------------------------------------------------------------------
SKIN_C
  Relative segment, address: CODE_AREA 00015028 - 00015053 (0x2c bytes), align: 2
  Segment part 596. ROOT.
    -------------------------------------------------------------------------
SKIN_C
  Relative segment, address: CODE_AREA 00015054 - 0001507F (0x2c bytes), align: 2
  Segment part 597. ROOT.
    -------------------------------------------------------------------------
SKIN_C
  Relative segment, address: CODE_AREA 00015080 - 000150AB (0x2c bytes), align: 2
  Segment part 598. ROOT.
    -------------------------------------------------------------------------
SKIN_C
  Relative segment, address: CODE_AREA 000150AC - 000150AF (0x4 bytes), align: 2
  Segment part 599. ROOT.
           ENTRY                   ADDRESS         REF BY
           =====                   =======         ======
           ch_show_h               000150AC        walkman_Redraw(DISP_OBJ *, int, int, int) (main)
    -------------------------------------------------------------------------
SKIN_C
  Relative segment, address: CODE_AREA 000150B0 - 000150DB (0x2c bytes), align: 2
  Segment part 600. ROOT.
    -------------------------------------------------------------------------
SKIN_C
  Relative segment, address: CODE_AREA 000150DC - 000150DF (0x4 bytes), align: 2
  Segment part 601. ROOT.
           ENTRY                   ADDRESS         REF BY
           =====                   =======         ======
           ch_font_h               000150DC        walkman_Redraw(DISP_OBJ *, int, int, int) (main)
    -------------------------------------------------------------------------
SKIN_C
  Relative segment, address: CODE_AREA 000150E0 - 0001510B (0x2c bytes), align: 2
  Segment part 602. ROOT.
    -------------------------------------------------------------------------
SKIN_C
  Relative segment, address: CODE_AREA 0001510C - 00015113 (0x8 bytes), align: 2
  Segment part 603. ROOT.
           ENTRY                   ADDRESS         REF BY
           =====                   =======         ======
           ch_rc_h                 0001510C        walkman_Redraw(DISP_OBJ *, int, int, int) (main)
    -------------------------------------------------------------------------
SKIN_C
  Relative segment, address: CODE_AREA 00015114 - 0001513F (0x2c bytes), align: 2
  Segment part 604. ROOT.
    -------------------------------------------------------------------------
SKIN_C
  Relative segment, address: CODE_AREA 00015140 - 00015143 (0x4 bytes), align: 2
  Segment part 605. ROOT.
           ENTRY                   ADDRESS         REF BY
           =====                   =======         ======
           ch_color_h              00015140        walkman_Redraw(DISP_OBJ *, int, int, int) (main)
    -------------------------------------------------------------------------
SKIN_C
  Relative segment, address: CODE_AREA 00015144 - 0001516F (0x2c bytes), align: 2
  Segment part 606. ROOT.
    -------------------------------------------------------------------------
SKIN_C
  Relative segment, address: CODE_AREA 00015170 - 00015173 (0x4 bytes), align: 2
  Segment part 607. ROOT.
           ENTRY                   ADDRESS         REF BY
           =====                   =======         ======
           ch_scolor_h             00015170        walkman_Redraw(DISP_OBJ *, int, int, int) (main)
    -------------------------------------------------------------------------
SKIN_C
  Relative segment, address: CODE_AREA 00015174 - 0001519F (0x2c bytes), align: 2
  Segment part 608. ROOT.
    -------------------------------------------------------------------------
SKIN_C
  Relative segment, address: CODE_AREA 000151A0 - 000151A3 (0x4 bytes), align: 2
  Segment part 609. ROOT.
           ENTRY                   ADDRESS         REF BY
           =====                   =======         ======
           ch_hl_h                 000151A0        walkman_Redraw(DISP_OBJ *, int, int, int) (main)
    -------------------------------------------------------------------------
SKIN_C
  Relative segment, address: CODE_AREA 000151A4 - 00015203 (0x60 bytes), align: 2
  Segment part 610. ROOT.
    -------------------------------------------------------------------------
SKIN_C
  Relative segment, address: CODE_AREA 00015204 - 0001522F (0x2c bytes), align: 2
  Segment part 611. ROOT.
    -------------------------------------------------------------------------
SKIN_C
  Relative segment, address: CODE_AREA 00015230 - 00015233 (0x4 bytes), align: 2
  Segment part 612. ROOT.
           ENTRY                   ADDRESS         REF BY
           =====                   =======         ======
           ch_ct_h                 00015230        walkman_Redraw(DISP_OBJ *, int, int, int) (main)
    -------------------------------------------------------------------------
SKIN_C
  Relative segment, address: CODE_AREA 00015234 - 00015293 (0x60 bytes), align: 2
  Segment part 613. ROOT.
    -------------------------------------------------------------------------
SKIN_C
  Relative segment, address: CODE_AREA 00015294 - 000152BF (0x2c bytes), align: 2
  Segment part 614. ROOT.
    -------------------------------------------------------------------------
SKIN_C
  Relative segment, address: CODE_AREA 000152C0 - 000152EB (0x2c bytes), align: 2
  Segment part 615. ROOT.
    -------------------------------------------------------------------------
SKIN_C
  Relative segment, address: CODE_AREA 000152EC - 00015317 (0x2c bytes), align: 2
  Segment part 616. ROOT.
    -------------------------------------------------------------------------
SKIN_C
  Relative segment, address: CODE_AREA 00015318 - 0001531B (0x4 bytes), align: 2
  Segment part 617. ROOT.
           ENTRY                   ADDRESS         REF BY
           =====                   =======         ======
           ProgressBar_Show_h      00015318        walkman_Redraw(DISP_OBJ *, int, int, int) (main)
    -------------------------------------------------------------------------
SKIN_C
  Relative segment, address: CODE_AREA 0001531C - 00015347 (0x2c bytes), align: 2
  Segment part 618. ROOT.
    -------------------------------------------------------------------------
SKIN_C
  Relative segment, address: CODE_AREA 00015348 - 0001534F (0x8 bytes), align: 2
  Segment part 619. ROOT.
           ENTRY                   ADDRESS         REF BY
           =====                   =======         ======
           pbrect_h                00015348        walkman_Redraw(DISP_OBJ *, int, int, int) (main)
    -------------------------------------------------------------------------
SKIN_C
  Relative segment, address: CODE_AREA 00015350 - 0001537B (0x2c bytes), align: 2
  Segment part 620. ROOT.
    -------------------------------------------------------------------------
SKIN_C
  Relative segment, address: CODE_AREA 0001537C - 0001537F (0x4 bytes), align: 2
  Segment part 621. ROOT.
           ENTRY                   ADDRESS         REF BY
           =====                   =======         ======
           ProgressBar_cColor_h    0001537C        walkman_Redraw(DISP_OBJ *, int, int, int) (main)
    -------------------------------------------------------------------------
SKIN_C
  Relative segment, address: CODE_AREA 00015380 - 000153AB (0x2c bytes), align: 2
  Segment part 622. ROOT.
    -------------------------------------------------------------------------
SKIN_C
  Relative segment, address: CODE_AREA 000153AC - 000153AF (0x4 bytes), align: 2
  Segment part 623. ROOT.
           ENTRY                   ADDRESS         REF BY
           =====                   =======         ======
           ProgressBar_oColor_h    000153AC        walkman_Redraw(DISP_OBJ *, int, int, int) (main)
    -------------------------------------------------------------------------
SKIN_C
  Relative segment, address: CODE_AREA 000153B0 - 000153DB (0x2c bytes), align: 2
  Segment part 624. ROOT.
    -------------------------------------------------------------------------
SKIN_C
  Relative segment, address: CODE_AREA 000153DC - 000153DF (0x4 bytes), align: 2
  Segment part 625. ROOT.
           ENTRY                   ADDRESS         REF BY
           =====                   =======         ======
           ProgressBar_bColor_h    000153DC        walkman_Redraw(DISP_OBJ *, int, int, int) (main)
    -------------------------------------------------------------------------
SKIN_C
  Relative segment, address: CODE_AREA 000153E0 - 0001540B (0x2c bytes), align: 2
  Segment part 626. ROOT.
    -------------------------------------------------------------------------
SKIN_C
  Relative segment, address: CODE_AREA 0001540C - 0001540F (0x4 bytes), align: 2
  Segment part 627. ROOT.
           ENTRY                   ADDRESS         REF BY
           =====                   =======         ======
           ProgressBar_highlight_h
                                   0001540C        walkman_Redraw(DISP_OBJ *, int, int, int) (main)
    -------------------------------------------------------------------------
SKIN_C
  Relative segment, address: CODE_AREA 00015410 - 0001543B (0x2c bytes), align: 2
  Segment part 628. ROOT.
    -------------------------------------------------------------------------
SKIN_C
  Relative segment, address: CODE_AREA 0001543C - 00015467 (0x2c bytes), align: 2
  Segment part 629. ROOT.
    -------------------------------------------------------------------------
SKIN_C
  Relative segment, address: CODE_AREA 00015468 - 00015493 (0x2c bytes), align: 2
  Segment part 630. ROOT.
    -------------------------------------------------------------------------
SKIN_C
  Relative segment, address: CODE_AREA 00015494 - 00015497 (0x4 bytes), align: 2
  Segment part 631. ROOT.
           ENTRY                   ADDRESS         REF BY
           =====                   =======         ======
           cover_show_h            00015494 
    -------------------------------------------------------------------------
SKIN_C
  Relative segment, address: CODE_AREA 00015498 - 000154C3 (0x2c bytes), align: 2
  Segment part 632. ROOT.
    -------------------------------------------------------------------------
SKIN_C
  Relative segment, address: CODE_AREA 000154C4 - 000154CB (0x8 bytes), align: 2
  Segment part 633. ROOT.
           ENTRY                   ADDRESS         REF BY
           =====                   =======         ======
           cover_rect_h            000154C4        walkman_Redraw(DISP_OBJ *, int, int, int) (main)
    -------------------------------------------------------------------------
SKIN_C
  Relative segment, address: CODE_AREA 000154CC - 000154F7 (0x2c bytes), align: 2
  Segment part 634. ROOT.
    -------------------------------------------------------------------------
SKIN_C
  Relative segment, address: CODE_AREA 000154F8 - 00015523 (0x2c bytes), align: 2
  Segment part 635. ROOT.
    -------------------------------------------------------------------------
SKIN_C
  Relative segment, address: CODE_AREA 00015524 - 0001554F (0x2c bytes), align: 2
  Segment part 636. ROOT.
    -------------------------------------------------------------------------
SKIN_C
  Relative segment, address: CODE_AREA 00015550 - 0001557B (0x2c bytes), align: 2
  Segment part 637. ROOT.
    -------------------------------------------------------------------------
SKIN_C
  Relative segment, address: CODE_AREA 0001557C - 0001557F (0x4 bytes), align: 2
  Segment part 638. ROOT.
           ENTRY                   ADDRESS         REF BY
           =====                   =======         ======
           ticn_show_h             0001557C        walkman_Redraw(DISP_OBJ *, int, int, int) (main)
    -------------------------------------------------------------------------
SKIN_C
  Relative segment, address: CODE_AREA 00015580 - 000155AB (0x2c bytes), align: 2
  Segment part 639. ROOT.
    -------------------------------------------------------------------------
SKIN_C
  Relative segment, address: CODE_AREA 000155AC - 000155B3 (0x8 bytes), align: 2
  Segment part 640. ROOT.
           ENTRY                   ADDRESS         REF BY
           =====                   =======         ======
           ticn_rect_h             000155AC        walkman_Redraw(DISP_OBJ *, int, int, int) (main)
    -------------------------------------------------------------------------
SKIN_C
  Relative segment, address: CODE_AREA 000155B4 - 000155DF (0x2c bytes), align: 2
  Segment part 641. ROOT.
    -------------------------------------------------------------------------
SKIN_C
  Relative segment, address: CODE_AREA 000155E0 - 0001560B (0x2c bytes), align: 2
  Segment part 642. ROOT.
    -------------------------------------------------------------------------
SKIN_C
  Relative segment, address: CODE_AREA 0001560C - 00015637 (0x2c bytes), align: 2
  Segment part 643. ROOT.
    -------------------------------------------------------------------------
SKIN_C
  Relative segment, address: CODE_AREA 00015638 - 0001563B (0x4 bytes), align: 2
  Segment part 644. ROOT.
           ENTRY                   ADDRESS         REF BY
           =====                   =======         ======
           alicn_show_h            00015638        walkman_Redraw(DISP_OBJ *, int, int, int) (main)
    -------------------------------------------------------------------------
SKIN_C
  Relative segment, address: CODE_AREA 0001563C - 00015667 (0x2c bytes), align: 2
  Segment part 645. ROOT.
    -------------------------------------------------------------------------
SKIN_C
  Relative segment, address: CODE_AREA 00015668 - 0001566F (0x8 bytes), align: 2
  Segment part 646. ROOT.
           ENTRY                   ADDRESS         REF BY
           =====                   =======         ======
           alicn_rect_h            00015668        walkman_Redraw(DISP_OBJ *, int, int, int) (main)
    -------------------------------------------------------------------------
SKIN_C
  Relative segment, address: CODE_AREA 00015670 - 0001569B (0x2c bytes), align: 2
  Segment part 647. ROOT.
    -------------------------------------------------------------------------
SKIN_C
  Relative segment, address: CODE_AREA 0001569C - 000156C7 (0x2c bytes), align: 2
  Segment part 648. ROOT.
    -------------------------------------------------------------------------
SKIN_C
  Relative segment, address: CODE_AREA 000156C8 - 000156F3 (0x2c bytes), align: 2
  Segment part 649. ROOT.
    -------------------------------------------------------------------------
SKIN_C
  Relative segment, address: CODE_AREA 000156F4 - 000156F7 (0x4 bytes), align: 2
  Segment part 650. ROOT.
           ENTRY                   ADDRESS         REF BY
           =====                   =======         ======
           aricn_show_h            000156F4        walkman_Redraw(DISP_OBJ *, int, int, int) (main)
    -------------------------------------------------------------------------
SKIN_C
  Relative segment, address: CODE_AREA 000156F8 - 00015723 (0x2c bytes), align: 2
  Segment part 651. ROOT.
    -------------------------------------------------------------------------
SKIN_C
  Relative segment, address: CODE_AREA 00015724 - 0001572B (0x8 bytes), align: 2
  Segment part 652. ROOT.
           ENTRY                   ADDRESS         REF BY
           =====                   =======         ======
           aricn_rect_h            00015724        walkman_Redraw(DISP_OBJ *, int, int, int) (main)
    -------------------------------------------------------------------------
SKIN_C
  Relative segment, address: CODE_AREA 0001572C - 00015757 (0x2c bytes), align: 2
  Segment part 653. ROOT.
    -------------------------------------------------------------------------
SKIN_C
  Relative segment, address: CODE_AREA 00015758 - 00015783 (0x2c bytes), align: 2
  Segment part 654. ROOT.
    -------------------------------------------------------------------------
SKIN_C
  Relative segment, address: CODE_AREA 00015784 - 000157AF (0x2c bytes), align: 2
  Segment part 655. ROOT.
    -------------------------------------------------------------------------
SKIN_C
  Relative segment, address: CODE_AREA 000157B0 - 000157B3 (0x4 bytes), align: 2
  Segment part 656. ROOT.
           ENTRY                   ADDRESS         REF BY
           =====                   =======         ======
           pls_show_h              000157B0        walkman_Redraw(DISP_OBJ *, int, int, int) (main)
    -------------------------------------------------------------------------
SKIN_C
  Relative segment, address: CODE_AREA 000157B4 - 000157DF (0x2c bytes), align: 2
  Segment part 657. ROOT.
    -------------------------------------------------------------------------
SKIN_C
  Relative segment, address: CODE_AREA 000157E0 - 000157E7 (0x8 bytes), align: 2
  Segment part 658. ROOT.
           ENTRY                   ADDRESS         REF BY
           =====                   =======         ======
           pls_rect_h              000157E0        walkman_Redraw(DISP_OBJ *, int, int, int) (main)
    -------------------------------------------------------------------------
SKIN_C
  Relative segment, address: CODE_AREA 000157E8 - 00015813 (0x2c bytes), align: 2
  Segment part 659. ROOT.
    -------------------------------------------------------------------------
SKIN_C
  Relative segment, address: CODE_AREA 00015814 - 0001583F (0x2c bytes), align: 2
  Segment part 660. ROOT.
    -------------------------------------------------------------------------
SKIN_C
  Relative segment, address: CODE_AREA 00015840 - 0001586B (0x2c bytes), align: 2
  Segment part 661. ROOT.
    -------------------------------------------------------------------------
SKIN_C
  Relative segment, address: CODE_AREA 0001586C - 0001586F (0x4 bytes), align: 2
  Segment part 662. ROOT.
           ENTRY                   ADDRESS         REF BY
           =====                   =======         ======
           eq_preset_show_h        0001586C        walkman_Redraw(DISP_OBJ *, int, int, int) (main)
    -------------------------------------------------------------------------
SKIN_C
  Relative segment, address: CODE_AREA 00015870 - 0001589B (0x2c bytes), align: 2
  Segment part 663. ROOT.
    -------------------------------------------------------------------------
SKIN_C
  Relative segment, address: CODE_AREA 0001589C - 000158A3 (0x8 bytes), align: 2
  Segment part 664. ROOT.
           ENTRY                   ADDRESS         REF BY
           =====                   =======         ======
           eq_preset_rect_h        0001589C        walkman_Redraw(DISP_OBJ *, int, int, int) (main)
    -------------------------------------------------------------------------
SKIN_C
  Relative segment, address: CODE_AREA 000158A4 - 000158CF (0x2c bytes), align: 2
  Segment part 665. ROOT.
    -------------------------------------------------------------------------
SKIN_C
  Relative segment, address: CODE_AREA 000158D0 - 000158FB (0x2c bytes), align: 2
  Segment part 666. ROOT.
    -------------------------------------------------------------------------
SKIN_C
  Relative segment, address: CODE_AREA 000158FC - 00015927 (0x2c bytes), align: 2
  Segment part 667. ROOT.
    -------------------------------------------------------------------------
SKIN_C
  Relative segment, address: CODE_AREA 00015928 - 0001592B (0x4 bytes), align: 2
  Segment part 668. ROOT.
           ENTRY                   ADDRESS         REF BY
           =====                   =======         ======
           shuffle_show_h          00015928        walkman_Redraw(DISP_OBJ *, int, int, int) (main)
    -------------------------------------------------------------------------
SKIN_C
  Relative segment, address: CODE_AREA 0001592C - 00015957 (0x2c bytes), align: 2
  Segment part 669. ROOT.
    -------------------------------------------------------------------------
SKIN_C
  Relative segment, address: CODE_AREA 00015958 - 0001595F (0x8 bytes), align: 2
  Segment part 670. ROOT.
           ENTRY                   ADDRESS         REF BY
           =====                   =======         ======
           shuffle_rect_h          00015958        walkman_Redraw(DISP_OBJ *, int, int, int) (main)
    -------------------------------------------------------------------------
SKIN_C
  Relative segment, address: CODE_AREA 00015960 - 0001598B (0x2c bytes), align: 2
  Segment part 671. ROOT.
    -------------------------------------------------------------------------
SKIN_C
  Relative segment, address: CODE_AREA 0001598C - 000159B7 (0x2c bytes), align: 2
  Segment part 672. ROOT.
    -------------------------------------------------------------------------
SKIN_C
  Relative segment, address: CODE_AREA 000159B8 - 000159E3 (0x2c bytes), align: 2
  Segment part 673. ROOT.
    -------------------------------------------------------------------------
SKIN_C
  Relative segment, address: CODE_AREA 000159E4 - 000159E7 (0x4 bytes), align: 2
  Segment part 674. ROOT.
           ENTRY                   ADDRESS         REF BY
           =====                   =======         ======
           repeat_show_h           000159E4        walkman_Redraw(DISP_OBJ *, int, int, int) (main)
    -------------------------------------------------------------------------
SKIN_C
  Relative segment, address: CODE_AREA 000159E8 - 00015A13 (0x2c bytes), align: 2
  Segment part 675. ROOT.
    -------------------------------------------------------------------------
SKIN_C
  Relative segment, address: CODE_AREA 00015A14 - 00015A1B (0x8 bytes), align: 2
  Segment part 676. ROOT.
           ENTRY                   ADDRESS         REF BY
           =====                   =======         ======
           repeat_rect_h           00015A14        walkman_Redraw(DISP_OBJ *, int, int, int) (main)
    -------------------------------------------------------------------------
SKIN_C
  Relative segment, address: CODE_AREA 00015A1C - 00015A47 (0x2c bytes), align: 2
  Segment part 677. ROOT.
    -------------------------------------------------------------------------
SKIN_C
  Relative segment, address: CODE_AREA 00015A48 - 00015A73 (0x2c bytes), align: 2
  Segment part 678. ROOT.
    -------------------------------------------------------------------------
SKIN_C
  Relative segment, address: CODE_AREA 00015A74 - 00015A9F (0x2c bytes), align: 2
  Segment part 679. ROOT.
    -------------------------------------------------------------------------
SKIN_C
  Relative segment, address: CODE_AREA 00015AA0 - 00015AA3 (0x4 bytes), align: 2
  Segment part 680. ROOT.
           ENTRY                   ADDRESS         REF BY
           =====                   =======         ======
           stereo_show_h           00015AA0        walkman_Redraw(DISP_OBJ *, int, int, int) (main)
    -------------------------------------------------------------------------
SKIN_C
  Relative segment, address: CODE_AREA 00015AA4 - 00015ACF (0x2c bytes), align: 2
  Segment part 681. ROOT.
    -------------------------------------------------------------------------
SKIN_C
  Relative segment, address: CODE_AREA 00015AD0 - 00015AD7 (0x8 bytes), align: 2
  Segment part 682. ROOT.
           ENTRY                   ADDRESS         REF BY
           =====                   =======         ======
           stereo_rect_h           00015AD0        walkman_Redraw(DISP_OBJ *, int, int, int) (main)
    -------------------------------------------------------------------------
SKIN_C
  Relative segment, address: CODE_AREA 00015AD8 - 00015B03 (0x2c bytes), align: 2
  Segment part 683. ROOT.
    -------------------------------------------------------------------------
SKIN_C
  Relative segment, address: CODE_AREA 00015B04 - 00015B2F (0x2c bytes), align: 2
  Segment part 684. ROOT.
    -------------------------------------------------------------------------
SKIN_C
  Relative segment, address: CODE_AREA 00015B30 - 00015B5B (0x2c bytes), align: 2
  Segment part 685. ROOT.
    -------------------------------------------------------------------------
SKIN_C
  Relative segment, address: CODE_AREA 00015B5C - 00015B87 (0x2c bytes), align: 2
  Segment part 686. ROOT.
    -------------------------------------------------------------------------
SKIN_C
  Relative segment, address: CODE_AREA 00015B88 - 00015BB3 (0x2c bytes), align: 2
  Segment part 687. ROOT.
    -------------------------------------------------------------------------
SKIN_C
  Relative segment, address: CODE_AREA 00015BB4 - 00015BB7 (0x4 bytes), align: 2
  Segment part 688. ROOT.
           ENTRY                   ADDRESS         REF BY
           =====                   =======         ======
           navigimg_show_h         00015BB4        walkman_Redraw(DISP_OBJ *, int, int, int) (main)
    -------------------------------------------------------------------------
SKIN_C
  Relative segment, address: CODE_AREA 00015BB8 - 00015BE3 (0x2c bytes), align: 2
  Segment part 689. ROOT.
    -------------------------------------------------------------------------
SKIN_C
  Relative segment, address: CODE_AREA 00015BE4 - 00015BEB (0x8 bytes), align: 2
  Segment part 690. ROOT.
           ENTRY                   ADDRESS         REF BY
           =====                   =======         ======
           navigimg_rect_h         00015BE4        walkman_Redraw(DISP_OBJ *, int, int, int) (main)
    -------------------------------------------------------------------------
SKIN_C
  Relative segment, address: CODE_AREA 00015BEC - 00015C17 (0x2c bytes), align: 2
  Segment part 691. ROOT.
    -------------------------------------------------------------------------
SKIN_C
  Relative segment, address: CODE_AREA 00015C18 - 00015C43 (0x2c bytes), align: 2
  Segment part 692. ROOT.
    -------------------------------------------------------------------------
SKIN_C
  Relative segment, address: CODE_AREA 00015C44 - 00015C6F (0x2c bytes), align: 2
  Segment part 693. ROOT.
    -------------------------------------------------------------------------
SKIN_C
  Relative segment, address: CODE_AREA 00015C70 - 00015C73 (0x4 bytes), align: 2
  Segment part 694. ROOT.
           ENTRY                   ADDRESS         REF BY
           =====                   =======         ======
           leftimg_show_h          00015C70        walkman_Redraw(DISP_OBJ *, int, int, int) (main)
    -------------------------------------------------------------------------
SKIN_C
  Relative segment, address: CODE_AREA 00015C74 - 00015C9F (0x2c bytes), align: 2
  Segment part 695. ROOT.
    -------------------------------------------------------------------------
SKIN_C
  Relative segment, address: CODE_AREA 00015CA0 - 00015CA7 (0x8 bytes), align: 2
  Segment part 696. ROOT.
           ENTRY                   ADDRESS         REF BY
           =====                   =======         ======
           leftimg_rect_h          00015CA0        walkman_Redraw(DISP_OBJ *, int, int, int) (main)
    -------------------------------------------------------------------------
SKIN_C
  Relative segment, address: CODE_AREA 00015CA8 - 00015CD3 (0x2c bytes), align: 2
  Segment part 697. ROOT.
    -------------------------------------------------------------------------
SKIN_C
  Relative segment, address: CODE_AREA 00015CD4 - 00015CFF (0x2c bytes), align: 2
  Segment part 698. ROOT.
    -------------------------------------------------------------------------
SKIN_C
  Relative segment, address: CODE_AREA 00015D00 - 00015D2B (0x2c bytes), align: 2
  Segment part 699. ROOT.
    -------------------------------------------------------------------------
SKIN_C
  Relative segment, address: CODE_AREA 00015D2C - 00015D2F (0x4 bytes), align: 2
  Segment part 700. ROOT.
           ENTRY                   ADDRESS         REF BY
           =====                   =======         ======
           rightimg_show_h         00015D2C        walkman_Redraw(DISP_OBJ *, int, int, int) (main)
    -------------------------------------------------------------------------
SKIN_C
  Relative segment, address: CODE_AREA 00015D30 - 00015D5B (0x2c bytes), align: 2
  Segment part 701. ROOT.
    -------------------------------------------------------------------------
SKIN_C
  Relative segment, address: CODE_AREA 00015D5C - 00015D63 (0x8 bytes), align: 2
  Segment part 702. ROOT.
           ENTRY                   ADDRESS         REF BY
           =====                   =======         ======
           rightimg_rect_h         00015D5C        walkman_Redraw(DISP_OBJ *, int, int, int) (main)
    -------------------------------------------------------------------------
SKIN_C
  Relative segment, address: CODE_AREA 00015D64 - 00015D8F (0x2c bytes), align: 2
  Segment part 703. ROOT.
    -------------------------------------------------------------------------
SKIN_C
  Relative segment, address: CODE_AREA 00015D90 - 00015DBB (0x2c bytes), align: 2
  Segment part 704. ROOT.
    -------------------------------------------------------------------------
SKIN_C
  Relative segment, address: CODE_AREA 00015DBC - 00015DE7 (0x2c bytes), align: 2
  Segment part 705. ROOT.
    -------------------------------------------------------------------------
SKIN_C
  Relative segment, address: CODE_AREA 00015DE8 - 00015DEB (0x4 bytes), align: 2
  Segment part 706. ROOT.
           ENTRY                   ADDRESS         REF BY
           =====                   =======         ======
           centerimg_show_h        00015DE8        walkman_Redraw(DISP_OBJ *, int, int, int) (main)
    -------------------------------------------------------------------------
SKIN_C
  Relative segment, address: CODE_AREA 00015DEC - 00015E17 (0x2c bytes), align: 2
  Segment part 707. ROOT.
    -------------------------------------------------------------------------
SKIN_C
  Relative segment, address: CODE_AREA 00015E18 - 00015E1F (0x8 bytes), align: 2
  Segment part 708. ROOT.
           ENTRY                   ADDRESS         REF BY
           =====                   =======         ======
           centerimg_rect_h        00015E18        walkman_Redraw(DISP_OBJ *, int, int, int) (main)
    -------------------------------------------------------------------------
SKIN_C
  Relative segment, address: CODE_AREA 00015E20 - 00015E4B (0x2c bytes), align: 2
  Segment part 709. ROOT.
    -------------------------------------------------------------------------
SKIN_C
  Relative segment, address: CODE_AREA 00015E4C - 00015E77 (0x2c bytes), align: 2
  Segment part 710. ROOT.
    -------------------------------------------------------------------------
SKIN_C
  Relative segment, address: CODE_AREA 00015E78 - 00015EA3 (0x2c bytes), align: 2
  Segment part 711. ROOT.
    -------------------------------------------------------------------------
SKIN_C
  Relative segment, address: CODE_AREA 00015EA4 - 00015EA7 (0x4 bytes), align: 2
  Segment part 712. ROOT.
           ENTRY                   ADDRESS         REF BY
           =====                   =======         ======
           upimg_show_h            00015EA4        walkman_Redraw(DISP_OBJ *, int, int, int) (main)
    -------------------------------------------------------------------------
SKIN_C
  Relative segment, address: CODE_AREA 00015EA8 - 00015ED3 (0x2c bytes), align: 2
  Segment part 713. ROOT.
    -------------------------------------------------------------------------
SKIN_C
  Relative segment, address: CODE_AREA 00015ED4 - 00015EDB (0x8 bytes), align: 2
  Segment part 714. ROOT.
           ENTRY                   ADDRESS         REF BY
           =====                   =======         ======
           upimg_rect_h            00015ED4        walkman_Redraw(DISP_OBJ *, int, int, int) (main)
    -------------------------------------------------------------------------
SKIN_C
  Relative segment, address: CODE_AREA 00015EDC - 00015F07 (0x2c bytes), align: 2
  Segment part 715. ROOT.
    -------------------------------------------------------------------------
SKIN_C
  Relative segment, address: CODE_AREA 00015F08 - 00015F33 (0x2c bytes), align: 2
  Segment part 716. ROOT.
    -------------------------------------------------------------------------
SKIN_C
  Relative segment, address: CODE_AREA 00015F34 - 00015F5F (0x2c bytes), align: 2
  Segment part 717. ROOT.
    -------------------------------------------------------------------------
SKIN_C
  Relative segment, address: CODE_AREA 00015F60 - 00015F63 (0x4 bytes), align: 2
  Segment part 718. ROOT.
           ENTRY                   ADDRESS         REF BY
           =====                   =======         ======
           downimg_show_h          00015F60        walkman_Redraw(DISP_OBJ *, int, int, int) (main)
    -------------------------------------------------------------------------
SKIN_C
  Relative segment, address: CODE_AREA 00015F64 - 00015F8F (0x2c bytes), align: 2
  Segment part 719. ROOT.
    -------------------------------------------------------------------------
SKIN_C
  Relative segment, address: CODE_AREA 00015F90 - 00015F97 (0x8 bytes), align: 2
  Segment part 720. ROOT.
           ENTRY                   ADDRESS         REF BY
           =====                   =======         ======
           downimg_rect_h          00015F90        walkman_Redraw(DISP_OBJ *, int, int, int) (main)
    -------------------------------------------------------------------------
SKIN_C
  Relative segment, address: CODE_AREA 00015F98 - 00015FC3 (0x2c bytes), align: 2
  Segment part 721. ROOT.
    -------------------------------------------------------------------------
SKIN_C
  Relative segment, address: CODE_AREA 00015FC4 - 00015FEF (0x2c bytes), align: 2
  Segment part 722. ROOT.
    -------------------------------------------------------------------------
SKIN_C
  Relative segment, address: CODE_AREA 00015FF0 - 0001601B (0x2c bytes), align: 2
  Segment part 723. ROOT.
    -------------------------------------------------------------------------
SKIN_C
  Relative segment, address: CODE_AREA 0001601C - 00016047 (0x2c bytes), align: 2
  Segment part 724. ROOT.
    -------------------------------------------------------------------------
SKIN_C
  Relative segment, address: CODE_AREA 00016048 - 00016073 (0x2c bytes), align: 2
  Segment part 725. ROOT.
    -------------------------------------------------------------------------
SKIN_C
  Relative segment, address: CODE_AREA 00016074 - 00016077 (0x4 bytes), align: 2
  Segment part 726. ROOT.
           ENTRY                   ADDRESS         REF BY
           =====                   =======         ======
           VolumeBar_Show          00016074        walkman_Redraw(DISP_OBJ *, int, int, int) (main)
    -------------------------------------------------------------------------
SKIN_C
  Relative segment, address: CODE_AREA 00016078 - 000160A3 (0x2c bytes), align: 2
  Segment part 727. ROOT.
    -------------------------------------------------------------------------
SKIN_C
  Relative segment, address: CODE_AREA 000160A4 - 000160AB (0x8 bytes), align: 2
  Segment part 728. ROOT.
           ENTRY                   ADDRESS         REF BY
           =====                   =======         ======
           volrect                 000160A4        Segment part 70 (main)
                                                   walkman_Redraw(DISP_OBJ *, int, int, int) (main)
    -------------------------------------------------------------------------
SKIN_C
  Relative segment, address: CODE_AREA 000160AC - 000160D7 (0x2c bytes), align: 2
  Segment part 729. ROOT.
    -------------------------------------------------------------------------
SKIN_C
  Relative segment, address: CODE_AREA 000160D8 - 000160DB (0x4 bytes), align: 2
  Segment part 730. ROOT.
           ENTRY                   ADDRESS         REF BY
           =====                   =======         ======
           VolumeBar_cColor        000160D8        walkman_Redraw(DISP_OBJ *, int, int, int) (main)
    -------------------------------------------------------------------------
SKIN_C
  Relative segment, address: CODE_AREA 000160DC - 00016107 (0x2c bytes), align: 2
  Segment part 731. ROOT.
    -------------------------------------------------------------------------
SKIN_C
  Relative segment, address: CODE_AREA 00016108 - 0001610B (0x4 bytes), align: 2
  Segment part 732. ROOT.
           ENTRY                   ADDRESS         REF BY
           =====                   =======         ======
           VolumeBar_oColor        00016108        walkman_Redraw(DISP_OBJ *, int, int, int) (main)
    -------------------------------------------------------------------------
SKIN_C
  Relative segment, address: CODE_AREA 0001610C - 00016137 (0x2c bytes), align: 2
  Segment part 733. ROOT.
    -------------------------------------------------------------------------
SKIN_C
  Relative segment, address: CODE_AREA 00016138 - 0001613B (0x4 bytes), align: 2
  Segment part 734. ROOT.
           ENTRY                   ADDRESS         REF BY
           =====                   =======         ======
           VolumeBar_bColor        00016138        walkman_Redraw(DISP_OBJ *, int, int, int) (main)
    -------------------------------------------------------------------------
SKIN_C
  Relative segment, address: CODE_AREA 0001613C - 00016167 (0x2c bytes), align: 2
  Segment part 735. ROOT.
    -------------------------------------------------------------------------
SKIN_C
  Relative segment, address: CODE_AREA 00016168 - 0001616B (0x4 bytes), align: 2
  Segment part 736. ROOT.
           ENTRY                   ADDRESS         REF BY
           =====                   =======         ======
           VolumeBar_highlight     00016168        walkman_Redraw(DISP_OBJ *, int, int, int) (main)
    -------------------------------------------------------------------------
SKIN_C
  Relative segment, address: CODE_AREA 0001616C - 00016197 (0x2c bytes), align: 2
  Segment part 737. ROOT.

    *************************************************************************

  FILE NAME : Z:\home\perk11\www\perk11.info\svn\SE\WalkmanDisplay\Release_RU\Obj\skin_loader.r79
  PROGRAM MODULE, NAME : skin_loader

  SEGMENTS IN THE MODULE
  ======================
DATA_Z
  Relative segment, address: CODE_AREA 0000F058 - 0000F857 (0x800 bytes), align: 2
  Segment part 5.             Intra module refs:   Segment part 12
           ENTRY                   ADDRESS         REF BY
           =====                   =======         ======
           successed_skin_name     0000F458        Segment part 64 (main)
           successed_skin_path     0000F058        Segment part 63 (main)
    -------------------------------------------------------------------------
CODE
  Relative segment, address: CODE_AREA 00008998 - 00008B87 (0x1f0 bytes), align: 2
  Segment part 7.             Intra module refs:   skin_InitConfig(wchar_t *, int)
           ENTRY                   ADDRESS         REF BY
           =====                   =======         ======
           LoadSkinData(wchar_t const *, wchar_t const *)
                                   00008998 
               stack 1 = 00000000 ( 00000048 )
    -------------------------------------------------------------------------
CODE
  Relative segment, address: CODE_AREA 00008B88 - 00008C27 (0xa0 bytes), align: 2
  Segment part 9.             Intra module refs:   LoadSkinData(wchar_t const *, wchar_t const *)
                                                   skin_InitConfig(wchar_t *, int)
           ENTRY                   ADDRESS         REF BY
           =====                   =======         ======
           SaveSkinData(wchar_t const *, wchar_t const *)
                                   00008B88 
               stack 1 = 00000000 ( 00000020 )
    -------------------------------------------------------------------------
CODE
  Relative segment, address: CODE_AREA 00008C28 - 00008C2B (0x4 bytes), align: 2
  Segment part 10.            Intra module refs:   LoadSkinData(wchar_t const *, wchar_t const *)
                                                   SaveSkinData(wchar_t const *, wchar_t const *)
    -------------------------------------------------------------------------
CODE
  Relative segment, address: CODE_AREA 00008C2C - 00008C2F (0x4 bytes), align: 2
  Segment part 11.            Intra module refs:   LoadSkinData(wchar_t const *, wchar_t const *)
                                                   SaveSkinData(wchar_t const *, wchar_t const *)
    -------------------------------------------------------------------------
CODE
  Relative segment, address: CODE_AREA 00008C30 - 00008C33 (0x4 bytes), align: 2
  Segment part 12.            Intra module refs:   LoadSkinData(wchar_t const *, wchar_t const *)
                                                   SaveSkinData(wchar_t const *, wchar_t const *)
    -------------------------------------------------------------------------
CODE
  Relative segment, address: CODE_AREA 00008C34 - 00008CC3 (0x90 bytes), align: 2
  Segment part 14.
           ENTRY                   ADDRESS         REF BY
           =====                   =======         ======
           skin_InitConfig(wchar_t *, int)
                                   00008C34        onReconfig(void *, BOOK *) (main)
                                                   onStyleChanged(void *, BOOK *) (main)
                                                   walkman_Redraw(DISP_OBJ *, int, int, int) (main)
               stack 1 = 00000000 ( 00000008 )
    -------------------------------------------------------------------------
DATA_C
  Relative segment, address: CODE_AREA 0000B508 - 0000B58F (0x88 bytes), align: 2
  Segment part 2.             Intra module refs:   LoadSkinData(wchar_t const *, wchar_t const *)
    -------------------------------------------------------------------------
DATA_C
  Relative segment, address: CODE_AREA 0000B590 - 0000B5BB (0x2c bytes), align: 2
  Segment part 3.             Intra module refs:   SaveSkinData(wchar_t const *, wchar_t const *)
    -------------------------------------------------------------------------
DATA_C
  Relative segment, address: CODE_AREA 0000B5BC - 0000B5EF (0x34 bytes), align: 2
  Segment part 4.             Intra module refs:   skin_InitConfig(wchar_t *, int)

    *************************************************************************

  FILE NAME : Z:\home\perk11\www\perk11.info\svn\SE\WalkmanDisplay\Release_RU\Obj\tag.r79
  PROGRAM MODULE, NAME : tag

  SEGMENTS IN THE MODULE
  ======================
CODE
  Relative segment, address: CODE_AREA 00008CC4 - 00009317 (0x654 bytes), align: 2
  Segment part 12.            Intra module refs:   metadata_Read(wchar_t *, wchar_t *, METADATA *, TAG_REQUEST)
           ENTRY                   ADDRESS         REF BY
           =====                   =======         ======
           GetGenre(int)           00008CC4 
    -------------------------------------------------------------------------
CODE
  Relative segment, address: CODE_AREA 00009318 - 00009533 (0x21c bytes), align: 2
  Segment part 14.
           ENTRY                   ADDRESS         REF BY
           =====                   =======         ======
           metadata_Read(wchar_t *, wchar_t *, METADATA *, TAG_REQUEST)
                                   00009318        metadata_Get(wchar_t *, wchar_t *, METADATA *, int) (DecoderInit)
               stack 1 = 00000000 ( 000000C0 )
    -------------------------------------------------------------------------
DATA_C
  Relative segment, address: CODE_AREA 0000B5F0 - 0000BBF3 (0x604 bytes), align: 2
  Segment part 2.             Intra module refs:   GetGenre(int)
    -------------------------------------------------------------------------
DATA_C
  Relative segment, address: CODE_AREA 0000BBF4 - 0000BBFB (0x8 bytes), align: 2
  Segment part 9.             Intra module refs:   metadata_Read(wchar_t *, wchar_t *, METADATA *, TAG_REQUEST)

    *************************************************************************

  FILE NAME : Z:\home\perk11\www\perk11.info\svn\SE\WalkmanDisplay\Release_RU\Obj\tag_reset.r79
  PROGRAM MODULE, NAME : tag_reset

  SEGMENTS IN THE MODULE
  ======================
CODE
  Relative segment, address: CODE_AREA 00009534 - 000095DF (0xac bytes), align: 2
  Segment part 4.
           ENTRY                   ADDRESS         REF BY
           =====                   =======         ======
           metadata_reset(METADATA *)
                                   00009534        metadata_Get(wchar_t *, wchar_t *, METADATA *, int) (DecoderInit)
               stack 1 = 00000000 ( 0000001C )

    *************************************************************************

  FILE NAME : Z:\home\perk11\IAR2\arm\LIB\dl5tpainl8n.r79
  LIBRARY MODULE, NAME : ?div_module

  SEGMENTS IN THE MODULE
  ======================
CODE
  Relative segment, address: CODE_AREA 000095E0 - 000095F7 (0x18 bytes), align: 2
  Segment part 11.
           ENTRY                   ADDRESS         REF BY
           =====                   =======         ======
           ??div32_a               000095E0        getLengthInSeconds() (decoder2)
                                                   walkman_Redraw(DISP_OBJ *, int, int, int) (main)
    -------------------------------------------------------------------------
CODE
  Relative segment, address: CODE_AREA 000095F8 - 000096CF (0xd8 bytes), align: 2
  Segment part 12.            Intra module refs:   ??div32_a

    -------------------------------------------------------------------------
  LIBRARY MODULE, NAME : ?GetDenormal

  SEGMENTS IN THE MODULE
  ======================
CODE
  Relative segment, address: CODE_AREA 000096D0 - 0000972F (0x60 bytes), align: 2
  Segment part 0.
           ENTRY                   ADDRESS         REF BY
           =====                   =======         ======
           ?GetDenormalX           000096D0        Segment part 1 (?D_DivDouble)
                                                   Segment part 1 (?D_MulFloat)
           ?GetDenormalY           00009700        Segment part 1 (?D_DivDouble)
                                                   Segment part 1 (?D_MulFloat)

    -------------------------------------------------------------------------
  LIBRARY MODULE, NAME : ?D_LONG2DOUBLE

  SEGMENTS IN THE MODULE
  ======================
CODE
  Relative segment, address: CODE_AREA 00009730 - 0000978B (0x5c bytes), align: 2
  Segment part 1.
           ENTRY                   ADDRESS         REF BY
           =====                   =======         ======
           __aeabi_i2d             00009730 
           __longToDouble          00009730        getBitrate() (decoder2)
                                                   getNumberOfFrames() (decoder2)
           __longToDouble::??rA    00009730 
           __longToDubleStart      0000974C 

    -------------------------------------------------------------------------
  LIBRARY MODULE, NAME : ?D_DOUBLE2LONG

  SEGMENTS IN THE MODULE
  ======================
CODE
  Relative segment, address: CODE_AREA 0000978C - 000097EB (0x60 bytes), align: 2
  Segment part 1.
           ENTRY                   ADDRESS         REF BY
           =====                   =======         ======
           __aeabi_d2iz            0000978C 
           __doubleToLong          0000978C        getBitrate() (decoder2)
                                                   getNumberOfFrames() (decoder2)
           __doubleToLong::??rA    0000978C 

    -------------------------------------------------------------------------
  LIBRARY MODULE, NAME : ?FLOATEDOUBLE

  SEGMENTS IN THE MODULE
  ======================
CODE
  Relative segment, address: CODE_AREA 000097EC - 0000984F (0x64 bytes), align: 2
  Segment part 1.
           ENTRY                   ADDRESS         REF BY
           =====                   =======         ======
           __aeabi_f2d             000097EC 
           __floatToDouble         000097EC        getNumberOfFrames() (decoder2)
           __floatToDouble::??rA   000097EC 

    -------------------------------------------------------------------------
  LIBRARY MODULE, NAME : ?D_MulFloat

  SEGMENTS IN THE MODULE
  ======================
CODE
  Relative segment, address: CODE_AREA 00009850 - 00009A87 (0x238 bytes), align: 2
  Segment part 1.
           ENTRY                   ADDRESS         REF BY
           =====                   =======         ======
           __dMul                  00009850        getBitrate() (decoder2)
                                                   getNumberOfFrames() (decoder2)
           __dMul::??rA            00009850 
           __aeabi_dmul            00009850 

    -------------------------------------------------------------------------
  LIBRARY MODULE, NAME : ?D_DivDouble

  SEGMENTS IN THE MODULE
  ======================
CODE
  Relative segment, address: CODE_AREA 00009A88 - 00009DBB (0x334 bytes), align: 2
  Segment part 1.
           ENTRY                   ADDRESS         REF BY
           =====                   =======         ======
           __aeabi_ddiv            00009A88 
           __dDiv                  00009A88        getBitrate() (decoder2)
                                                   getNumberOfFrames() (decoder2)
           __dDiv::??rA            00009A88 

    -------------------------------------------------------------------------
  LIBRARY MODULE, NAME : ?F_ULONG2FLOAT

  SEGMENTS IN THE MODULE
  ======================
CODE
  Relative segment, address: CODE_AREA 00009DBC - 00009DCB (0x10 bytes), align: 2
  Segment part 1.
           ENTRY                   ADDRESS         REF BY
           =====                   =======         ======
           __aeabi_ui2f            00009DBC 
           __ulongToFloat          00009DBC        DrawProgress(int, int, int, RECT, int, int, int, int) (main)
           __ulongToFloat::??rA    00009DBC 

    -------------------------------------------------------------------------
  LIBRARY MODULE, NAME : ?F_LONG2FLOAT

  SEGMENTS IN THE MODULE
  ======================
CODE
  Relative segment, address: CODE_AREA 00009DCC - 00009E33 (0x68 bytes), align: 2
  Segment part 1.
           ENTRY                   ADDRESS         REF BY
           =====                   =======         ======
           __aeabi_i2f             00009DCC 
           __longToFloat           00009DCC        DrawProgress(int, int, int, RECT, int, int, int, int) (main)
                                                   getNumberOfFrames() (decoder2)
           __longToFloat::??rA     00009DCC 
           __longToFloatStart      00009DE0        Segment part 1 (?F_ULONG2FLOAT)

    -------------------------------------------------------------------------
  LIBRARY MODULE, NAME : ?F_FLOAT2LONG

  SEGMENTS IN THE MODULE
  ======================
CODE
  Relative segment, address: CODE_AREA 00009E34 - 00009E8B (0x58 bytes), align: 2
  Segment part 1.
           ENTRY                   ADDRESS         REF BY
           =====                   =======         ======
           __aeabi_f2iz            00009E34 
           __floatToLong           00009E34        DrawProgress(int, int, int, RECT, int, int, int, int) (main)
           __floatToLong::??rA     00009E34 

    -------------------------------------------------------------------------
  LIBRARY MODULE, NAME : ?F_MulFloat

  SEGMENTS IN THE MODULE
  ======================
CODE
  Relative segment, address: CODE_AREA 00009E8C - 0000A01B (0x190 bytes), align: 2
  Segment part 1.
           ENTRY                   ADDRESS         REF BY
           =====                   =======         ======
           __fMul                  00009E8C        DrawProgress(int, int, int, RECT, int, int, int, int) (main)
           __fMul::??rA            00009E8C 
           __aeabi_fmul            00009E8C 

    -------------------------------------------------------------------------
  LIBRARY MODULE, NAME : ?F_DivFloat

  SEGMENTS IN THE MODULE
  ======================
CODE
  Relative segment, address: CODE_AREA 0000A01C - 0000A203 (0x1e8 bytes), align: 2
  Segment part 1.
           ENTRY                   ADDRESS         REF BY
           =====                   =======         ======
           __aeabi_fdiv            0000A01C 
           __fDiv                  0000A01C        DrawProgress(int, int, int, RECT, int, int, int, int) (main)
           __fDiv::??rA            0000A01C 

    -------------------------------------------------------------------------
  LIBRARY MODULE, NAME : ?floatSoftLib

  SEGMENTS IN THE MODULE
  ======================
CODE
  Relative segment, address: CODE_AREA 0000A204 - 0000A343 (0x140 bytes), align: 2
  Segment part 1.
           ENTRY                   ADDRESS         REF BY
           =====                   =======         ======
           __aeabi_fsub            0000A204 
           __fSub                  0000A204        DrawProgress(int, int, int, RECT, int, int, int, int) (main)
           __fSub::??rA            0000A204 
           __fDoSub                0000A210        Segment part 1 (?F_AddDouble)

    -------------------------------------------------------------------------
  LIBRARY MODULE, NAME : ?F_AddDouble

  SEGMENTS IN THE MODULE
  ======================
CODE
  Relative segment, address: CODE_AREA 0000A344 - 0000A413 (0xd0 bytes), align: 2
  Segment part 1.
           ENTRY                   ADDRESS         REF BY
           =====                   =======         ======
           __aeabi_fadd            0000A344 
           __fAdd                  0000A344        DrawProgress(int, int, int, RECT, int, int, int, int) (main)
           __fAdd::??rA            0000A344 
           __fDoAdd                0000A350        Segment part 1 (?floatSoftLib)




                ****************************************
                *                                      *
                *      SEGMENTS IN ADDRESS ORDER       *
                *                                      *
                ****************************************


SEGMENT              SPACE    START ADDRESS   END ADDRESS     SIZE  TYPE  ALIGN
=======              =====    =============   ===========     ====  ====  =====
ELFBEGIN             CODE_AREA           00000000                     rel    0
DATA_ID              CODE_AREA      00000000 - 0000055F         560   rel    2
START                CODE_AREA           00000560                     dse    0
CODE                 CODE_AREA      00000560 - 0000A413        9EB4   rel    2
DATA_C               CODE_AREA      0000A414 - 0000BBFD        17EA   rel    2
INITTAB              CODE_AREA      0000BC00 - 0000BC17          18   rel    2
DATA_Z               CODE_AREA      0000BC18 - 0000F857        3C40   rel    2
DATA_N               CODE_AREA           0000F858                     dse    0
CONFIG_C             CODE_AREA      0000F858 - 0000FCE3         48C   rel    2
SKIN_C               CODE_AREA      0000FCE4 - 00016197        64B4   rel    2
DYN_CONST            CODE_AREA      00016198 - 000161AB          14   rel    2
DYN_CONST_DESC       CODE_AREA      000161AC - 000161AF           4   rel    2
DYN_PAGE             CODE_AREA      000161B0 - 0001621F          70   rel    2
DYN_PAGE_DESC        CODE_AREA      00016220 - 00016223           4   rel    2
DATA_I               DATA_AREA      00000000 - 0000055F         560   rel    2

                ****************************************
                *                                      *
                *        END OF CROSS REFERENCE        *
                *                                      *
                ****************************************

 90 658 bytes of CODE memory
  1 376 bytes of DATA memory

Errors: none
Warnings: none

