##############################################################################
#                                                                            #
# IAR ARM ANSI C/C++ Compiler V4.42A/W32 EVALUATION    10/Jun/2013  23:00:23 #
# Copyright 1999-2005 IAR Systems. All rights reserved.                      #
#                                                                            #
#    Cpu mode        =  interwork                                            #
#    Endian          =  little                                               #
#    Stack alignment =  4                                                    #
#    Source file     =  Z:\home\perk11\www\perk11.info\svn\SE\BookManager\bo #
#                       ok_names.c                                           #
#    Command line    =  Z:\home\perk11\www\perk11.info\svn\SE\BookManager\bo #
#                       ok_names.c -D NDEBUG -lC Z:\home\perk11\www\perk11.i #
#                       nfo\svn\SE\BookManager\Release\List\ -lA             #
#                       Z:\home\perk11\www\perk11.info\svn\SE\BookManager\Re #
#                       lease\List\ -o Z:\home\perk11\www\perk11.info\svn\SE #
#                       \BookManager\Release\Obj\ -s9 --no_unroll            #
#                       --no_inline --cpu_mode arm --endian little --cpu     #
#                       ARM926EJ-S --stack_align 4 --interwork -e            #
#                       --enable_multibytes --fpu None --eec++               #
#                       --dlib_config Z:\home\perk11\IAR2\arm\LIB\dl5tpainl8 #
#                       n.h --preinclude ..\deleaker\mem2.h -I               #
#                       Z:\home\perk11\IAR2\arm\INC\                         #
#    List file       =  Z:\home\perk11\www\perk11.info\svn\SE\BookManager\Re #
#                       lease\List\book_names.lst                            #
#    Object file     =  Z:\home\perk11\www\perk11.info\svn\SE\BookManager\Re #
#                       lease\Obj\book_names.r79                             #
#                                                                            #
#                                                                            #
##############################################################################

Z:\home\perk11\www\perk11.info\svn\SE\BookManager\book_names.c
      1          #include "..\include\Lib_Clara.h"
      2          #include "..\include\Dir.h"
      3          #include "..\include\var_arg.h"
      4          #include "book_names.h"
      5          #include "main.h"
      6          
      7          
      8          //============= pages start ======================
      9          

   \                                 In segment DYN_PAGE, align 4, align-sorted
     10          const PAGE_MSG ChangeName_PageEvents[]@ "DYN_PAGE" = {
   \                     ChangeName_PageEvents:
   \   00000000   42000000....       DC32 66, ??CreateSI, 67, ??ExitChangeName, 64, 0H
   \              ....43000000
   \              ........4000
   \              000000000000
     11          	PAGE_ENTER_EVENT_TAG, CreateSI,
     12          	PAGE_EXIT_EVENT_TAG, ExitChangeName,
     13          	NIL_EVENT_TAG, 0
     14          };
     15          

   \                                 In segment DATA_I, align 4, align-sorted
     16          PAGE_DESC ChangeName_page = { "BookManager_ChangeName_Page", 0, ChangeName_PageEvents };
   \                     ChangeName_page:
   \   00000000                      DS8 12
   \   0000000C                      REQUIRE `?<Initializer for ChangeName_page>`
     17          
     18          //============= pages end ======================
     19          
     20          

   \                                 In segment CODE, align 4, keep-with-next
     21          char * GetOriginalBookName(MyBOOK * mbk)
     22          {
   \                     ??GetOriginalBookName:
   \   00000000   00402DE9           PUSH     {LR}
     23          	BOOK_LIST_ITEM* elem = GetBookListItem(mbk,mbk->ActiveTAB);
     24          	return(elem->book_name);
   \   00000004   BC18D0E1           LDRH     R1,[R0, #+140]
   \   00000008   ........           _BLF     ??GetBookListItem,??GetBookListItem??rA
   \   0000000C   040090E5           LDR      R0,[R0, #+4]
   \   00000010   0080BDE8           POP      {PC}             ;; return
     25          }
     26          
     27          

   \                                 In segment CODE, align 4, keep-with-next
     28          void onCancel_SI(BOOK* book, void* )
     29          {
     30          	BookObj_ReturnPage( book, ACCEPT_EVENT );
   \                     ??onCancel_SI:
   \   00000000   ........           LDR      R1,??DataTable2  ;; ACCEPT_EVENT
   \   00000004   00402DE9           PUSH     {LR}
   \   00000008   001091E5           LDR      R1,[R1, #+0]
   \   0000000C   2E0100EF           SWI      +302
     31          }
   \   00000010   0080BDE8           POP      {PC}             ;; return
     32          
     33          

   \                                 In segment CODE, align 4, keep-with-next
     34          void onPrevious_SI(BOOK* book, void* )
     35          {
     36          	BookObj_ReturnPage( book, ACCEPT_EVENT );
   \                     ??onPrevious_SI:
   \   00000000   ........           LDR      R1,??DataTable2  ;; ACCEPT_EVENT
   \   00000004   00402DE9           PUSH     {LR}
   \   00000008   001091E5           LDR      R1,[R1, #+0]
   \   0000000C   2E0100EF           SWI      +302
     37          }
   \   00000010   0080BDE8           POP      {PC}             ;; return
     38          
     39          

   \                                 In segment CODE, align 4, keep-with-next
     40          void onAccept_SI( BOOK * book, wchar_t * new_name, int len )
     41          {
   \                     ??onAccept_SI:
   \   00000000   F44F2DE9           PUSH     {R2,R4-R11,LR}
   \   00000004   D0D04DE2           SUB      SP,SP,#+208
   \   00000008   0050A0E1           MOV      R5,R0
     42          	MyBOOK* mbk = (MyBOOK*) book;
     43          	int f;
     44          	wchar_t * pos;
     45          	wchar_t * pos_uni_pair;
     46          	wchar_t cur_name[MAX_BOOK_NAME_LEN+1];
     47          	wchar_t orig_name[MAX_BOOK_NAME_LEN+1];
     48          
     49          	wchar_t * path = get_path();
     50          
     51          	str2wstr(orig_name,GetOriginalBookName(mbk));
     52          
     53          	pos_uni_pair = GetUserBookName(mbk->booknames_buf, orig_name, cur_name);
     54          
     55          	int new_name_len = wstrlen(new_name);
     56          	int cur_name_len = wstrlen(cur_name);
     57          	int orig_name_len = wstrlen(orig_name);
     58          
     59          	if ( (!len) || ( (!wstrcmp(orig_name,new_name)) && (new_name_len==orig_name_len) ) )
   \   0000000C   48829FE5           LDR      R8,??onAccept_SI_1  ;; `?<Constant L"\\xd\\xa">`
   \   00000010   0170A0E1           MOV      R7,R1
   \   00000014   ........           _BLF     ??get_path,??get_path??rA
   \   00000018   0060A0E1           MOV      R6,R0
   \   0000001C   0500A0E1           MOV      R0,R5
   \   00000020   ........           BL       ??GetOriginalBookName
   \   00000024   0010A0E1           MOV      R1,R0
   \   00000028   68008DE2           ADD      R0,SP,#+104
   \   0000002C   580100EF           SWI      +344
   \   00000030   1C0095E5           LDR      R0,[R5, #+28]
   \   00000034   0D20A0E1           MOV      R2,SP
   \   00000038   68108DE2           ADD      R1,SP,#+104
   \   0000003C   ........           _BLF     ??GetUserBookName,??GetUserBookName??rA
   \   00000040   0090A0E1           MOV      R9,R0
   \   00000044   0700A0E1           MOV      R0,R7
   \   00000048   570100EF           SWI      +343
   \   0000004C   00A0A0E1           MOV      R10,R0
   \   00000050   0D00A0E1           MOV      R0,SP
   \   00000054   570100EF           SWI      +343
   \   00000058   0040A0E1           MOV      R4,R0
   \   0000005C   68008DE2           ADD      R0,SP,#+104
   \   00000060   570100EF           SWI      +343
   \   00000064   00B0A0E1           MOV      R11,R0
   \   00000068   D0009DE5           LDR      R0,[SP, #+208]
   \   0000006C   000050E3           CMP      R0,#+0
   \   00000070   0500000A           BEQ      ??onAccept_SI_2
   \   00000074   0710A0E1           MOV      R1,R7
   \   00000078   68008DE2           ADD      R0,SP,#+104
   \   0000007C   560100EF           SWI      +342
   \   00000080   000050E3           CMP      R0,#+0
   \   00000084   0B005A01           CMPEQ    R10,R11
   \   00000088   1B00001A           BNE      ??onAccept_SI_3
     60          	{
     61          		if ( pos_uni_pair )
   \                     ??onAccept_SI_2:
   \   0000008C   000059E3           CMP      R9,#+0
   \   00000090   6700000A           BEQ      ??onAccept_SI_4
     62          		{
     63          			if ( ( f = _fopen( path, INI_BOOK_NAMES, FSX_O_RDWR|FSX_O_TRUNC, FSX_S_IREAD|FSX_S_IWRITE, 0) ) >= 0 )
   \   00000094   0000A0E3           MOV      R0,#+0
   \   00000098   01002DE9           PUSH     {R0}
   \   0000009C   603FA0E3           MOV      R3,#+384
   \   000000A0   812FA0E3           MOV      R2,#+516
   \   000000A4   081088E2           ADD      R1,R8,#+8
   \   000000A8   0600A0E1           MOV      R0,R6
   \   000000AC   160100EF           SWI      +278
   \   000000B0   0040B0E1           MOVS     R4,R0
   \   000000B4   04D08DE2           ADD      SP,SP,#+4
   \   000000B8   5D00004A           BMI      ??onAccept_SI_4
     64          			{
     65          				//Delete
     66          				pos = wstrwstr(pos_uni_pair, L"\r\n") + sizeof("\r\n") - sizeof("");
   \   000000BC   0810A0E1           MOV      R1,R8
   \   000000C0   0900A0E1           MOV      R0,R9
   \   000000C4   9E0200EF           SWI      +670
     67          
     68          				fwrite( f, mbk->booknames_buf, (pos_uni_pair - mbk->booknames_buf) * sizeof(wchar_t) );     //пишем начало файла
   \   000000C8   1C1095E5           LDR      R1,[R5, #+28]
   \   000000CC   048080E2           ADD      R8,R0,#+4
   \   000000D0   A900A0E1           LSR      R0,R9,#+1
   \   000000D4   A10040E0           SUB      R0,R0,R1, LSR #+1
   \   000000D8   8020A0E1           LSL      R2,R0,#+1
   \   000000DC   0400A0E1           MOV      R0,R4
   \   000000E0   190100EF           SWI      +281
     69          				fwrite( f, pos, mbk->booknames_buf_size - (pos - mbk->booknames_buf) * sizeof(wchar_t) );     //пишем остаток файла
   \   000000E4   200095E5           LDR      R0,[R5, #+32]
   \   000000E8   1C1095E5           LDR      R1,[R5, #+28]
   \   000000EC   A110A0E1           LSR      R1,R1,#+1
   \   000000F0   A81041E0           SUB      R1,R1,R8, LSR #+1
   \   000000F4   812080E0           ADD      R2,R0,R1, LSL #+1
   \   000000F8   480000EA           B        ??onAccept_SI_5
     70          				fclose( f );
     71          			}
     72          		}
     73          	}
     74          	else
     75          	{
     76          		if ( (wstrcmp(cur_name,new_name)) || ( (!wstrcmp(cur_name,new_name)) && (new_name_len!=cur_name_len) ) )
   \                     ??onAccept_SI_3:
   \   000000FC   0710A0E1           MOV      R1,R7
   \   00000100   0D00A0E1           MOV      R0,SP
   \   00000104   560100EF           SWI      +342
   \   00000108   000050E3           CMP      R0,#+0
   \   0000010C   0600001A           BNE      ??onAccept_SI_6
   \   00000110   0710A0E1           MOV      R1,R7
   \   00000114   0D00A0E1           MOV      R0,SP
   \   00000118   560100EF           SWI      +342
   \   0000011C   000050E3           CMP      R0,#+0
   \   00000120   4300001A           BNE      ??onAccept_SI_4
   \   00000124   04005AE1           CMP      R10,R4
   \   00000128   4100000A           BEQ      ??onAccept_SI_4
     77          		{
     78          			if ( pos_uni_pair )
   \                     ??onAccept_SI_6:
   \   0000012C   0000A0E3           MOV      R0,#+0
   \   00000130   01002DE9           PUSH     {R0}
   \   00000134   000059E3           CMP      R9,#+0
   \   00000138   603FA0E3           MOV      R3,#+384
   \   0000013C   812FA0E3           MOV      R2,#+516
   \   00000140   081088E2           ADD      R1,R8,#+8
   \   00000144   0600A0E1           MOV      R0,R6
   \   00000148   1C00000A           BEQ      ??onAccept_SI_7
     79          			{
     80          				if ( ( f = _fopen( path, INI_BOOK_NAMES, FSX_O_RDWR|FSX_O_TRUNC, FSX_S_IREAD|FSX_S_IWRITE, 0 ) ) >= 0 )
   \   0000014C   160100EF           SWI      +278
   \   00000150   0040B0E1           MOVS     R4,R0
   \   00000154   04D08DE2           ADD      SP,SP,#+4
   \   00000158   3500004A           BMI      ??onAccept_SI_4
     81          				{
     82          					//ReWrite
     83          					pos = pos_uni_pair + wstrlen(orig_name) + sizeof(": ") - sizeof("");
   \   0000015C   68008DE2           ADD      R0,SP,#+104
   \   00000160   570100EF           SWI      +343
   \   00000164   800089E0           ADD      R0,R9,R0, LSL #+1
   \   00000168   048080E2           ADD      R8,R0,#+4
     84          					int len_minus = wstrlen( cur_name );    //длина старого названия
   \   0000016C   0D00A0E1           MOV      R0,SP
   \   00000170   570100EF           SWI      +343
     85          
     86          					fwrite( f, mbk->booknames_buf, (pos - mbk->booknames_buf) * sizeof(wchar_t) );     //пишем начало файла
   \   00000174   1C1095E5           LDR      R1,[R5, #+28]
   \   00000178   0090A0E1           MOV      R9,R0
   \   0000017C   1C0095E5           LDR      R0,[R5, #+28]
   \   00000180   A8B0A0E1           LSR      R11,R8,#+1
   \   00000184   A0004BE0           SUB      R0,R11,R0, LSR #+1
   \   00000188   8020A0E1           LSL      R2,R0,#+1
   \   0000018C   0400A0E1           MOV      R0,R4
   \   00000190   190100EF           SWI      +281
     87          					fwrite( f, new_name, new_name_len * sizeof(wchar_t) );      //пишем новое название
   \   00000194   8A20A0E1           LSL      R2,R10,#+1
   \   00000198   0710A0E1           MOV      R1,R7
   \   0000019C   0400A0E1           MOV      R0,R4
   \   000001A0   190100EF           SWI      +281
     88          					fwrite( f, pos + len_minus, mbk->booknames_buf_size - (( pos - mbk->booknames_buf ) + len_minus ) * sizeof(wchar_t));      //пишем остаток файла
   \   000001A4   200095E5           LDR      R0,[R5, #+32]
   \   000001A8   1C1095E5           LDR      R1,[R5, #+28]
   \   000001AC   A1104BE0           SUB      R1,R11,R1, LSR #+1
   \   000001B0   011089E0           ADD      R1,R9,R1
   \   000001B4   812040E0           SUB      R2,R0,R1, LSL #+1
   \   000001B8   891088E0           ADD      R1,R8,R9, LSL #+1
   \   000001BC   180000EA           B        ??onAccept_SI_8
     89          					fclose( f );
     90          				}
     91          			}
     92          			else
     93          			{
     94          				if ( ( f = _fopen( path, INI_BOOK_NAMES, FSX_O_RDWR|FSX_O_TRUNC, FSX_S_IREAD|FSX_S_IWRITE, 0 ) ) >= 0 )
   \                     ??onAccept_SI_7:
   \   000001C0   160100EF           SWI      +278
   \   000001C4   0040B0E1           MOVS     R4,R0
   \   000001C8   04D08DE2           ADD      SP,SP,#+4
   \   000001CC   1800004A           BMI      ??onAccept_SI_4
     95          				{
     96          					//Append
     97          					fwrite(f, mbk->booknames_buf, mbk->booknames_buf_size);     //пишем старый файл
   \   000001D0   202095E5           LDR      R2,[R5, #+32]
   \   000001D4   1C1095E5           LDR      R1,[R5, #+28]
   \   000001D8   190100EF           SWI      +281
     98          					fwrite(f, orig_name, wstrlen(orig_name) * sizeof(wchar_t));
   \   000001DC   68008DE2           ADD      R0,SP,#+104
   \   000001E0   570100EF           SWI      +343
   \   000001E4   8020A0E1           LSL      R2,R0,#+1
   \   000001E8   68108DE2           ADD      R1,SP,#+104
   \   000001EC   0400A0E1           MOV      R0,R4
   \   000001F0   190100EF           SWI      +281
     99          					fwrite(f, L": ", (sizeof(L": ") - sizeof(wchar_t)));
   \   000001F4   0420A0E3           MOV      R2,#+4
   \   000001F8   241088E2           ADD      R1,R8,#+36
   \   000001FC   0400A0E1           MOV      R0,R4
   \   00000200   190100EF           SWI      +281
    100          					fwrite(f, new_name, wstrlen(new_name) * sizeof(wchar_t));
   \   00000204   0700A0E1           MOV      R0,R7
   \   00000208   570100EF           SWI      +343
   \   0000020C   8020A0E1           LSL      R2,R0,#+1
   \   00000210   0710A0E1           MOV      R1,R7
   \   00000214   0400A0E1           MOV      R0,R4
   \   00000218   190100EF           SWI      +281
    101          					fwrite(f, L"\r\n", (sizeof(L"\r\n") - sizeof(wchar_t)));
   \   0000021C   0420A0E3           MOV      R2,#+4
   \                     ??onAccept_SI_5:
   \   00000220   0810A0E1           MOV      R1,R8
   \                     ??onAccept_SI_8:
   \   00000224   0400A0E1           MOV      R0,R4
   \   00000228   190100EF           SWI      +281
    102          					fclose(f);
   \   0000022C   0400A0E1           MOV      R0,R4
   \   00000230   170100EF           SWI      +279
    103          				}
    104          			}
    105          		}
    106          	}
    107          
    108          	delete path;
   \                     ??onAccept_SI_4:
   \   00000234   0600A0E1           MOV      R0,R6
   \   00000238   ........           _BLF     `??operator delete`,`??operator delete??rA`
    109          
    110          	LoadBookNames(mbk);
   \   0000023C   0500A0E1           MOV      R0,R5
   \   00000240   ........           _BLF     ??LoadBookNames,??LoadBookNames??rA
    111          
    112          	BookObj_ReturnPage( mbk, ACCEPT_EVENT );
   \   00000244   ........           LDR      R0,??DataTable2  ;; ACCEPT_EVENT
   \   00000248   001090E5           LDR      R1,[R0, #+0]
   \   0000024C   0500A0E1           MOV      R0,R5
   \   00000250   2E0100EF           SWI      +302
    113          }
   \   00000254   D4D08DE2           ADD      SP,SP,#+212
   \   00000258   F08FBDE8           POP      {R4-R11,PC}      ;; return
   \                     ??onAccept_SI_1:
   \   0000025C   ........           DC32     `?<Constant L"\\xd\\xa">`
    114          
    115          
    116          

   \                                 In segment CODE, align 4, keep-with-next
    117          int CreateSI( void* data, BOOK* book )
    118          {
   \                     ??CreateSI:
   \   00000000   10402DE9           PUSH     {R4,LR}
   \   00000004   0140A0E1           MOV      R4,R1
    119          	MyBOOK* mbk = (MyBOOK*) book;
    120          	TEXTID editable_strID = GetUserBookNameTEXTID(GetOriginalBookName(mbk));
   \   00000008   0400A0E1           MOV      R0,R4
   \   0000000C   ........           BL       ??GetOriginalBookName
   \   00000010   ........           _BLF     ??GetUserBookNameTEXTID,??GetUserBookNameTEXTID??rA
    121          
    122          	mbk->StringInput = CreateStringInputVA( 0,
    123          										   VAR_PREV_ACTION_PROC( onPrevious_SI ),
    124          										   VAR_LONG_BACK_PROC( onCancel_SI ),
    125          										   VAR_BOOK( book ),
    126          										   VAR_OK_PROC( onAccept_SI ),
    127          										   VAR_STRINP_TEXT( editable_strID ),
    128          										   VAR_STRINP_MIN_LEN( 0 ),
    129          										   VAR_STRINP_MAX_LEN( MAX_BOOK_NAME_LEN ),
    130          										   0 );
   \   00000014   78309FE5           LDR      R3,??CreateSI_1  ;; VAR_ARG_CALL_BACK_LONG_BACK
   \   00000018   78209FE5           LDR      R2,??CreateSI_1+0x4  ;; ??onPrevious_SI
   \   0000001C   0010A0E3           MOV      R1,#+0
   \   00000020   02002DE9           PUSH     {R1}
   \   00000024   3210A0E3           MOV      R1,#+50
   \   00000028   02002DE9           PUSH     {R1}
   \   0000002C   68109FE5           LDR      R1,??CreateSI_1+0x8  ;; VAR_ARG_STRINP_MAX_LEN
   \   00000030   02002DE9           PUSH     {R1}
   \   00000034   0010A0E3           MOV      R1,#+0
   \   00000038   02002DE9           PUSH     {R1}
   \   0000003C   5C109FE5           LDR      R1,??CreateSI_1+0xC  ;; VAR_ARG_STRINP_MIN_LEN
   \   00000040   02002DE9           PUSH     {R1}
   \   00000044   58109FE5           LDR      R1,??CreateSI_1+0x10  ;; VAR_ARG_CALL_BACK_PREV_ACT
   \   00000048   01002DE9           PUSH     {R0}
   \   0000004C   54009FE5           LDR      R0,??CreateSI_1+0x14  ;; VAR_ARG_STRINP_TEXT
   \   00000050   01002DE9           PUSH     {R0}
   \   00000054   50009FE5           LDR      R0,??CreateSI_1+0x18  ;; ??onAccept_SI
   \   00000058   01002DE9           PUSH     {R0}
   \   0000005C   4C009FE5           LDR      R0,??CreateSI_1+0x1C  ;; VAR_ARG_CALL_BACK_OK
   \   00000060   01002DE9           PUSH     {R0}
   \   00000064   0400A0E1           MOV      R0,R4
   \   00000068   01002DE9           PUSH     {R0}
   \   0000006C   40009FE5           LDR      R0,??CreateSI_1+0x20  ;; VAR_ARG_BOOK
   \   00000070   01002DE9           PUSH     {R0}
   \   00000074   3C009FE5           LDR      R0,??CreateSI_1+0x24  ;; ??onCancel_SI
   \   00000078   01002DE9           PUSH     {R0}
   \   0000007C   0000A0E3           MOV      R0,#+0
   \   00000080   440100EF           SWI      +324
   \   00000084   30D08DE2           ADD      SP,SP,#+48
   \   00000088   600084E5           STR      R0,[R4, #+96]
    131          	return 0;
   \   0000008C   0000A0E3           MOV      R0,#+0
   \   00000090   1080BDE8           POP      {R4,PC}          ;; return
   \                     ??CreateSI_1:
   \   00000094   ........           DC32     VAR_ARG_CALL_BACK_LONG_BACK
   \   00000098   ........           DC32     ??onPrevious_SI
   \   0000009C   ........           DC32     VAR_ARG_STRINP_MAX_LEN
   \   000000A0   ........           DC32     VAR_ARG_STRINP_MIN_LEN
   \   000000A4   ........           DC32     VAR_ARG_CALL_BACK_PREV_ACT
   \   000000A8   ........           DC32     VAR_ARG_STRINP_TEXT
   \   000000AC   ........           DC32     ??onAccept_SI
   \   000000B0   ........           DC32     VAR_ARG_CALL_BACK_OK
   \   000000B4   ........           DC32     VAR_ARG_BOOK
   \   000000B8   ........           DC32     ??onCancel_SI
    132          }
    133          
    134          

   \                                 In segment CODE, align 4, keep-with-next
    135          int ExitChangeName( void* data, BOOK* book )
    136          {
   \                     ??ExitChangeName:
   \   00000000   10402DE9           PUSH     {R4,LR}
   \   00000004   0140A0E1           MOV      R4,R1
    137          	MyBOOK* mbk = (MyBOOK*) book;
    138          	if (mbk->StringInput)
   \   00000008   600094E5           LDR      R0,[R4, #+96]
   \   0000000C   000050E3           CMP      R0,#+0
   \   00000010   1080BD08           POPEQ    {R4,PC}
    139          	{
    140          		GUIObject_Destroy(mbk->StringInput);
   \   00000014   CE0100EF           SWI      +462
    141          		mbk->StringInput=0;
   \   00000018   0000A0E3           MOV      R0,#+0
   \   0000001C   600084E5           STR      R0,[R4, #+96]
    142          	}
    143          	return 0;
   \   00000020   1080BDE8           POP      {R4,PC}          ;; return
    144          }
    145          
    146          

   \                                 In segment CODE, align 4, keep-with-next
    147          void BookNames( BOOK* book, GUI* )
    148          {
   \                     ??BookNames:
   \   00000000   10402DE9           PUSH     {R4,LR}
   \   00000004   0040A0E1           MOV      R4,R0
    149          	MyBOOK * mbk = (MyBOOK*)book;
    150          	mbk->ActiveTAB=GetActiveTab(mbk);
   \   00000008   ........           _BLF     ??GetActiveTab,??GetActiveTab??rA
    151          	BookObj_CallPage( book, &ChangeName_page );
   \   0000000C   0C109FE5           LDR      R1,??BookNames_1  ;; ChangeName_page
   \   00000010   BC08C4E1           STRH     R0,[R4, #+140]
   \   00000014   0400A0E1           MOV      R0,R4
   \   00000018   B80200EF           SWI      +696
    152          }
   \   0000001C   1080BDE8           POP      {R4,PC}          ;; return
   \                     ??BookNames_1:
   \   00000020   ........           DC32     ChangeName_page

   \                                 In segment CODE, align 4, keep-with-next
   \                     ??DataTable2:
   \   00000000   ........           DC32     ACCEPT_EVENT

   \                                 In segment DATA_ID, align 4, align-sorted
   \                     `?<Initializer for ChangeName_page>`:
   \   00000000   ........0000       DC32 `?<Constant "BookManager_ChangeNam...">`, 0H
   \              0000        
   \   00000008   ........           DC32 ChangeName_PageEvents

   \                                 In segment DATA_C, align 4, align-sorted
   \                     `?<Constant "BookManager_ChangeNam...">`:
   \   00000000   426F6F6B4D61       DC8 "BookManager_ChangeName_Page"
   \              6E616765725F
   \              4368616E6765
   \              4E616D655F50
   \              61676500    

   \                                 In segment DATA_C, align 4, align-sorted
   \                     `?<Constant L"\\xd\\xa">`:
   \   00000000   0D000A000000       DC8 0DH, 0, 0AH, 0, 0, 0
   \   00000006   0000               DC8 0, 0
   \   00000008   62006F006F00       DC8 62H, 0, 6FH, 0, 6FH, 0, 6BH, 0
   \              6B00        
   \   00000010   6E0061006D00       DC8 6EH, 0, 61H, 0, 6DH, 0, 65H, 0
   \              6500        
   \   00000018   73002E006900       DC8 73H, 0, 2EH, 0, 69H, 0, 6EH, 0
   \              6E00        
   \   00000020   69000000           DC8 69H, 0, 0, 0
   \   00000024   3A0020000000       DC8 3AH, 0, 20H, 0, 0, 0
   \   0000002A   0000               DC8 0, 0

   Maximum stack usage in bytes:

     Function                       CSTACK
     --------                       ------
     BookNames(BOOK *, GUI *)           8
     CreateSI(void *, BOOK *)          56
     ExitChangeName(void *, BOOK *)     8
     GetOriginalBookName(MyBOOK *)      4
     onAccept_SI(BOOK *, wchar_t *, int)
                                      252
     onCancel_SI(BOOK *, void *)        4
     onPrevious_SI(BOOK *, void *)      4


   Segment part sizes:

     Function/Label                 Bytes
     --------------                 -----
     ChangeName_PageEvents            24
     ChangeName_page                  12
     GetOriginalBookName(MyBOOK *)    20
     onCancel_SI(BOOK *, void *)      20
     onPrevious_SI(BOOK *, void *)    20
     onAccept_SI(BOOK *, wchar_t *, int)
                                     608
     CreateSI(void *, BOOK *)        188
     ExitChangeName(void *, BOOK *)   36
     BookNames(BOOK *, GUI *)         36
     ??DataTable2                      4
     ?<Initializer for ChangeName_page>
                                      12
     ?<Constant "BookManager_ChangeNam...">
                                      28
     ?<Constant L"\xd\xa">            44
      Others                         124

 
 1 044 bytes in segment CODE
    72 bytes in segment DATA_C
    12 bytes in segment DATA_I
    12 bytes in segment DATA_ID
    24 bytes in segment DYN_PAGE
    12 bytes in segment INITTAB
 
 932 bytes of CODE  memory (+ 124 bytes shared)
 108 bytes of CONST memory
  12 bytes of DATA  memory

Errors: none
Warnings: none
