//////////////////////////////////////////////////////////////////////////////
//                                                                           /
// IAR ARM ANSI C/C++ Compiler V4.42A/W32 EVALUATION   10/Jun/2013  23:00:59 /
// Copyright 1999-2005 IAR Systems. All rights reserved.                     /
//                                                                           /
//    Cpu mode        =  interwork                                           /
//    Endian          =  little                                              /
//    Stack alignment =  4                                                   /
//    Source file     =  Z:\home\perk11\www\perk11.info\svn\SE\BookManager\s /
//                       hortcuts.c                                          /
//    Command line    =  Z:\home\perk11\www\perk11.info\svn\SE\BookManager\s /
//                       hortcuts.c -D NDEBUG -lC                            /
//                       Z:\home\perk11\www\perk11.info\svn\SE\BookManager\R /
//                       elease\List\ -lA Z:\home\perk11\www\perk11.info\svn /
//                       \SE\BookManager\Release\List\ -o                    /
//                       Z:\home\perk11\www\perk11.info\svn\SE\BookManager\R /
//                       elease\Obj\ -s9 --no_unroll --no_inline --cpu_mode  /
//                       arm --endian little --cpu ARM926EJ-S --stack_align  /
//                       4 --interwork -e --enable_multibytes --fpu None     /
//                       --eec++ --dlib_config Z:\home\perk11\IAR2\arm\LIB\d /
//                       l5tpainl8n.h --preinclude ..\deleaker\mem2.h -I     /
//                       Z:\home\perk11\IAR2\arm\INC\                        /
//    List file       =  Z:\home\perk11\www\perk11.info\svn\SE\BookManager\R /
//                       elease\List\shortcuts.s79                           /
//                                                                           /
//                                                                           /
//////////////////////////////////////////////////////////////////////////////

        NAME shortcuts

        RTMODEL "StackAlign4", "USED"
        RTMODEL "__cpu_mode", "__pcs__interwork"
        RTMODEL "__data_model", "absolute"
        RTMODEL "__endian", "little"
        RTMODEL "__rt_version", "6"

        RSEG CSTACK:DATA:NOROOT(2)

        ERROR
//NOTE: This module defines or uses C++ features that are not
//      accessible from assembler code. Assembling this file will
//      not produce an equivalent object file to the one produced
//      by the C++ compiler.

        PUBWEAK `?*?DATA_ID`
        PUBLIC ??But_SetElf
        FUNCTION ??But_SetElf,0603H
        LOCFRAME CSTACK, 4, STACK
        MULTWEAK ??But_SetElf??rT
        PUBLIC ??But_SetJava
        FUNCTION ??But_SetJava,0603H
        LOCFRAME CSTACK, 4, STACK
        MULTWEAK ??But_SetJava??rT
        PUBLIC ??But_SetMM
        FUNCTION ??But_SetMM,0603H
        LOCFRAME CSTACK, 48, STACK
        MULTWEAK ??But_SetMM??rT
        PUBLIC ??But_onDelete
        FUNCTION ??But_onDelete,0603H
        LOCFRAME CSTACK, 44, STACK
        MULTWEAK ??But_onDelete??rT
        PUBLIC ??But_onEnter
        FUNCTION ??But_onEnter,0603H
        LOCFRAME CSTACK, 4, STACK
        MULTWEAK ??But_onEnter??rT
        PUBLIC ??ButtonList_Cancel_Event_Action
        FUNCTION ??ButtonList_Cancel_Event_Action,0603H
        LOCFRAME CSTACK, 4, STACK
        MULTWEAK ??ButtonList_Cancel_Event_Action??rT
        PUBLIC ??CancelButtonList
        FUNCTION ??CancelButtonList,0603H
        LOCFRAME CSTACK, 4, STACK
        MULTWEAK ??CancelButtonList??rT
        PUBLIC ??CreateButtonList
        FUNCTION ??CreateButtonList,0603H
        LOCFRAME CSTACK, 24, STACK
        MULTWEAK ??CreateButtonList??rT
        PUBLIC ??CreateDB
        FUNCTION ??CreateDB,0603H
        LOCFRAME CSTACK, 28, STACK
        MULTWEAK ??CreateDB??rT
        PUBLIC ??CreateElem
        FUNCTION ??CreateElem,0203H
        LOCFRAME CSTACK, 16, STACK
        MULTWEAK ??CreateElem??rT
        PUBLIC ??CreateJavaList
        FUNCTION ??CreateJavaList,0603H
        LOCFRAME CSTACK, 20, STACK
        MULTWEAK ??CreateJavaList??rT
        PUBLIC ??CreateMainMenu
        FUNCTION ??CreateMainMenu,0603H
        LOCFRAME CSTACK, 16, STACK
        MULTWEAK ??CreateMainMenu??rT
        PUBLIC ??CreateModeList
        FUNCTION ??CreateModeList,0603H
        LOCFRAME CSTACK, 12, STACK
        MULTWEAK ??CreateModeList??rT
        PUBLIC ??DB_Filter
        FUNCTION ??DB_Filter,0603H
        LOCFRAME CSTACK, 40, STACK
        MULTWEAK ??DB_Filter??rT
??DataTable0 EQU 0
??DataTable1 EQU 0
??DataTable10 EQU 0
??DataTable11 EQU 0
??DataTable12 EQU 0
??DataTable14 EQU 0
??DataTable16 EQU 0
??DataTable17 EQU 0
??DataTable20 EQU 0
??DataTable21 EQU 0
??DataTable22 EQU 0
??DataTable23 EQU 0
??DataTable24 EQU 0
??DataTable25 EQU 0
??DataTable26 EQU 0
??DataTable27 EQU 0
??DataTable29 EQU 0
??DataTable3 EQU 0
??DataTable31 EQU 0
??DataTable32 EQU 0
??DataTable35 EQU 0
??DataTable36 EQU 0
??DataTable37 EQU 0
??DataTable38 EQU 0
??DataTable4 EQU 0
??DataTable41 EQU 0
??DataTable42 EQU 0
??DataTable5 EQU 0
??DataTable6 EQU 0
??DataTable8 EQU 0
??DataTable9 EQU 0
        PUBLIC ??DeleteShortcut
        FUNCTION ??DeleteShortcut,0203H
        LOCFRAME CSTACK, 28, STACK
        MULTWEAK ??DeleteShortcut??rT
        PUBLIC ??DestroyButList
        FUNCTION ??DestroyButList,0603H
        LOCFRAME CSTACK, 4, STACK
        MULTWEAK ??DestroyButList??rT
        PUBLIC ??ExitButtonList
        FUNCTION ??ExitButtonList,0603H
        LOCFRAME CSTACK, 8, STACK
        MULTWEAK ??ExitButtonList??rT
        PUBLIC ??ExitShortcutsSet
        FUNCTION ??ExitShortcutsSet,0603H
        LOCFRAME CSTACK, 12, STACK
        MULTWEAK ??ExitShortcutsSet??rT
        MULTWEAK ??GetActiveTab??rA
        PUBLIC ??GetShortcutName
        FUNCTION ??GetShortcutName,0203H
        LOCFRAME CSTACK, 36, STACK
        MULTWEAK ??GetShortcutName??rT
        PUBLIC ??JavaList_Cancel_Action
        FUNCTION ??JavaList_Cancel_Action,0603H
        LOCFRAME CSTACK, 4, STACK
        MULTWEAK ??JavaList_Cancel_Action??rT
        PUBLIC ??JavaList_Prev_Action
        FUNCTION ??JavaList_Prev_Action,0603H
        LOCFRAME CSTACK, 4, STACK
        MULTWEAK ??JavaList_Prev_Action??rT
        MULTWEAK ??LoadShortcuts??rA
        PUBLIC ??ModeList_CancelEvent_Action
        FUNCTION ??ModeList_CancelEvent_Action,0603H
        LOCFRAME CSTACK, 4, STACK
        MULTWEAK ??ModeList_CancelEvent_Action??rT
        PUBLIC ??ModeList_Cancel_Action
        FUNCTION ??ModeList_Cancel_Action,0603H
        LOCFRAME CSTACK, 4, STACK
        MULTWEAK ??ModeList_Cancel_Action??rT
        PUBLIC ??ModeList_Prev_Action
        FUNCTION ??ModeList_Prev_Action,0603H
        LOCFRAME CSTACK, 4, STACK
        MULTWEAK ??ModeList_Prev_Action??rT
        PUBLIC ??ReWriteShortcut
        FUNCTION ??ReWriteShortcut,0203H
        LOCFRAME CSTACK, 44, STACK
        MULTWEAK ??ReWriteShortcut??rT
        PUBLIC ??SHORTCUT_DESC_A2_Init
        FUNCTION ??SHORTCUT_DESC_A2_Init,0203H
        LOCFRAME CSTACK, 12, STACK
        MULTWEAK ??SHORTCUT_DESC_A2_Init??rT
        PUBLIC ??SHORTCUT_DESC_Init
        FUNCTION ??SHORTCUT_DESC_Init,0203H
        LOCFRAME CSTACK, 64, STACK
        MULTWEAK ??SHORTCUT_DESC_Init??rT
        PUBLIC ??Shortcut_Append
        FUNCTION ??Shortcut_Append,0203H
        LOCFRAME CSTACK, 24, STACK
        MULTWEAK ??Shortcut_Append??rT
        PUBLIC ??Shortcuts
        FUNCTION ??Shortcuts,0203H
        LOCFRAME CSTACK, 8, STACK
        MULTWEAK ??Shortcuts??rT
        PUBLIC ??WriteShortcut
        FUNCTION ??WriteShortcut,0203H
        LOCFRAME CSTACK, 36, STACK
        MULTWEAK ??WriteShortcut??rT
        PUBLIC ??but_list_callback
        FUNCTION ??but_list_callback,0603H
        LOCFRAME CSTACK, 24, STACK
        MULTWEAK ??but_list_callback??rT
        PUBLIC ??elem_filter
        FUNCTION ??elem_filter,0603H
        MULTWEAK ??elem_filter??rT
        PUBLIC ??elem_free
        FUNCTION ??elem_free,0603H
        LOCFRAME CSTACK, 8, STACK
        MULTWEAK ??elem_free??rT
        MULTWEAK ??get_path??rA
        PUBLIC ??java_list_callback
        FUNCTION ??java_list_callback,0603H
        LOCFRAME CSTACK, 12, STACK
        MULTWEAK ??java_list_callback??rT
        PUBLIC ??list_callback
        FUNCTION ??list_callback,0603H
        LOCFRAME CSTACK, 16, STACK
        MULTWEAK ??list_callback??rT
        PUBLIC ??onAccept_DB
        FUNCTION ??onAccept_DB,0603H
        LOCFRAME CSTACK, 20, STACK
        MULTWEAK ??onAccept_DB??rT
        PUBLIC ??onCancel_MainMenu_DB
        FUNCTION ??onCancel_MainMenu_DB,0603H
        LOCFRAME CSTACK, 4, STACK
        MULTWEAK ??onCancel_MainMenu_DB??rT
        PUBLIC ??onEnter_JavaList
        FUNCTION ??onEnter_JavaList,0603H
        LOCFRAME CSTACK, 24, STACK
        MULTWEAK ??onEnter_JavaList??rT
        PUBLIC ??onEnter_ModeList
        FUNCTION ??onEnter_ModeList,0603H
        LOCFRAME CSTACK, 4, STACK
        MULTWEAK ??onEnter_ModeList??rT
        PUBLIC ??onExit_JavaList
        FUNCTION ??onExit_JavaList,0603H
        LOCFRAME CSTACK, 12, STACK
        MULTWEAK ??onExit_JavaList??rT
        PUBLIC ??onPrevious_MainMenu_DB
        FUNCTION ??onPrevious_MainMenu_DB,0603H
        LOCFRAME CSTACK, 4, STACK
        MULTWEAK ??onPrevious_MainMenu_DB??rT
        PUBLIC ??onShortcutSet
        FUNCTION ??onShortcutSet,0603H
        LOCFRAME CSTACK, 16, STACK
        MULTWEAK ??onShortcutSet??rT
        MULTWEAK `??operator delete??rA`
        MULTWEAK `??operator new??rA`
        MULTWEAK `??operator new[]??rA`
        PUBWEAK ?init?tab?DATA_I
        PUBLIC ChangeShortcuts_Buttons_page
        PUBLIC ChangeShortcuts_SetJava_page
        PUBLIC ChangeShortcuts_page
        PUBLIC SelectElf_page
        PUBLIC SelectShortcut_page
        
        CFI Names cfiNames0
        CFI StackFrame CFA R13 HUGEDATA
        CFI Resource R0:32, R1:32, R2:32, R3:32, R4:32, R5:32, R6:32, R7:32
        CFI Resource R8:32, R9:32, R10:32, R11:32, R12:32, CPSR:32, R13:32
        CFI Resource R14:32, SPSR:32
        CFI VirtualResource ?RET:32
        CFI EndNames cfiNames0
        
        CFI Common cfiCommon0 Using cfiNames0
        CFI CodeAlign 2
        CFI DataAlign 4
        CFI ReturnAddress ?RET CODE
        CFI CFA R13+0
        CFI R0 Undefined
        CFI R1 Undefined
        CFI R2 Undefined
        CFI R3 Undefined
        CFI R4 SameValue
        CFI R5 SameValue
        CFI R6 SameValue
        CFI R7 SameValue
        CFI R8 SameValue
        CFI R9 SameValue
        CFI R10 SameValue
        CFI R11 SameValue
        CFI R12 Undefined
        CFI CPSR SameValue
        CFI R14 Undefined
        CFI SPSR SameValue
        CFI ?RET R14
        CFI EndCommon cfiCommon0
        
        
        CFI Common cfiCommon1 Using cfiNames0
        CFI CodeAlign 4
        CFI DataAlign 4
        CFI ReturnAddress ?RET CODE
        CFI CFA R13+0
        CFI R0 Undefined
        CFI R1 Undefined
        CFI R2 Undefined
        CFI R3 Undefined
        CFI R4 SameValue
        CFI R5 SameValue
        CFI R6 SameValue
        CFI R7 SameValue
        CFI R8 SameValue
        CFI R9 SameValue
        CFI R10 SameValue
        CFI R11 SameValue
        CFI R12 Undefined
        CFI CPSR SameValue
        CFI R14 Undefined
        CFI SPSR SameValue
        CFI ?RET R14
        CFI EndCommon cfiCommon1
        







??But_SetElf??rT    SYMBOL "??rT", ??But_SetElf

??But_SetJava??rT   SYMBOL "??rT", ??But_SetJava

??But_SetMM??rT     SYMBOL "??rT", ??But_SetMM

??But_onDelete??rT  SYMBOL "??rT", ??But_onDelete

??But_onEnter??rT   SYMBOL "??rT", ??But_onEnter

??ButtonList_Cancel_Event_Action??rT SYMBOL "??rT", ??ButtonList_Cancel_Event_Action

??CancelButtonList??rT SYMBOL "??rT", ??CancelButtonList

??CreateButtonList??rT SYMBOL "??rT", ??CreateButtonList

??CreateDB??rT      SYMBOL "??rT", ??CreateDB

??CreateElem??rT    SYMBOL "??rT", ??CreateElem

??CreateJavaList??rT SYMBOL "??rT", ??CreateJavaList

??CreateMainMenu??rT SYMBOL "??rT", ??CreateMainMenu

??CreateModeList??rT SYMBOL "??rT", ??CreateModeList

??DB_Filter??rT     SYMBOL "??rT", ??DB_Filter

??DeleteShortcut??rT SYMBOL "??rT", ??DeleteShortcut

??DestroyButList??rT SYMBOL "??rT", ??DestroyButList

??ExitButtonList??rT SYMBOL "??rT", ??ExitButtonList

??ExitShortcutsSet??rT SYMBOL "??rT", ??ExitShortcutsSet
??GetActiveTab??rA  SYMBOL "??rA", ??GetActiveTab

??GetShortcutName??rT SYMBOL "??rT", ??GetShortcutName

??JavaList_Cancel_Action??rT SYMBOL "??rT", ??JavaList_Cancel_Action

??JavaList_Prev_Action??rT SYMBOL "??rT", ??JavaList_Prev_Action
??LoadShortcuts??rA SYMBOL "??rA", ??LoadShortcuts

??ModeList_CancelEvent_Action??rT SYMBOL "??rT", ??ModeList_CancelEvent_Action

??ModeList_Cancel_Action??rT SYMBOL "??rT", ??ModeList_Cancel_Action

??ModeList_Prev_Action??rT SYMBOL "??rT", ??ModeList_Prev_Action

??ReWriteShortcut??rT SYMBOL "??rT", ??ReWriteShortcut

??SHORTCUT_DESC_A2_Init??rT SYMBOL "??rT", ??SHORTCUT_DESC_A2_Init

??SHORTCUT_DESC_Init??rT SYMBOL "??rT", ??SHORTCUT_DESC_Init

??Shortcut_Append??rT SYMBOL "??rT", ??Shortcut_Append

??Shortcuts??rT     SYMBOL "??rT", ??Shortcuts

??WriteShortcut??rT SYMBOL "??rT", ??WriteShortcut

??but_list_callback??rT SYMBOL "??rT", ??but_list_callback

??elem_filter??rT   SYMBOL "??rT", ??elem_filter

??elem_free??rT     SYMBOL "??rT", ??elem_free
??get_path??rA      SYMBOL "??rA", ??get_path

??java_list_callback??rT SYMBOL "??rT", ??java_list_callback

??list_callback??rT SYMBOL "??rT", ??list_callback

??onAccept_DB??rT   SYMBOL "??rT", ??onAccept_DB

??onCancel_MainMenu_DB??rT SYMBOL "??rT", ??onCancel_MainMenu_DB

??onEnter_JavaList??rT SYMBOL "??rT", ??onEnter_JavaList

??onEnter_ModeList??rT SYMBOL "??rT", ??onEnter_ModeList

??onExit_JavaList??rT SYMBOL "??rT", ??onExit_JavaList

??onPrevious_MainMenu_DB??rT SYMBOL "??rT", ??onPrevious_MainMenu_DB

??onShortcutSet??rT SYMBOL "??rT", ??onShortcutSet
`??operator delete??rA` SYMBOL "??rA", `??operator delete`
`??operator new??rA` SYMBOL "??rA", `??operator new`
`??operator new[]??rA` SYMBOL "??rA", `??operator new[]`

        EXTERN ??GetActiveTab
        FUNCTION ??GetActiveTab,0202H
        EXTERN ??LoadShortcuts
        FUNCTION ??LoadShortcuts,0202H
        EXTERN ??get_path
        FUNCTION ??get_path,0202H
        EXTERN ??isBookManager
        FUNCTION ??isBookManager,0602H
        EXTERN `??operator delete`
        FUNCTION `??operator delete`,0202H
        EXTERN `??operator new`
        FUNCTION `??operator new`,0202H
        EXTERN `??operator new[]`
        FUNCTION `??operator new[]`,0202H
        EXTERN ACCEPT_EVENT
        EXTERN ACTION_BACK
        EXTERN ACTION_DELETE
        EXTERN ACTION_LONG_BACK
        EXTERN ACTION_SELECT1
        EXTERN CANCEL_EVENT
        EXTERN NIL_EVENT
        EXTERN PREVIOUS_EVENT
        EXTERN ShortcutsMode

// Z:\home\perk11\www\perk11.info\svn\SE\BookManager\shortcuts.c
//    1 #include "..\include\Lib_Clara.h"
//    2 #include "..\include\Dir.h"
//    3 #include "..\include\cfg_items.h"
//    4 #include "..\include\var_arg.h"
//    5 #include "config_data.h"
//    6 #include "shortcuts.h"
//    7 #include "main.h"
//    8 
//    9 
//   10 //============= pages start ======================
//   11 

        RSEG DYN_PAGE:CONST:SORT:NOROOT(2)
//   12 const PAGE_MSG ChangeShortcuts_PageEvents[]@ "DYN_PAGE" = {
ChangeShortcuts_PageEvents:
        DATA
        DC32 66, ??CreateModeList, 78, ??ModeList_CancelEvent_Action, 67
        DC32 ??ExitShortcutsSet, 64, 0H
//   13 	PAGE_ENTER_EVENT_TAG, CreateModeList,
//   14 	CANCEL_EVENT_TAG, ModeList_CancelEvent_Action,
//   15 	PAGE_EXIT_EVENT_TAG, ExitShortcutsSet,
//   16 	NIL_EVENT_TAG, 0
//   17 };
//   18 

        RSEG DATA_I:DATA:SORT:NOROOT(2)
//   19 PAGE_DESC ChangeShortcuts_page = { "BookManager_ChangeShortcuts_Main_Page", 0, ChangeShortcuts_PageEvents };
ChangeShortcuts_page:
        DS8 12
        REQUIRE `?<Initializer for ChangeShortcuts_page>`
//   20 
//   21 

        RSEG DYN_PAGE:CONST:SORT:NOROOT(2)
//   22 const PAGE_MSG ChangeShortcuts_Buttons_PageEvents[]@ "DYN_PAGE" = {
ChangeShortcuts_Buttons_PageEvents:
        DATA
        DC32 66, ??CreateButtonList, 76, ??CreateButtonList, 78
        DC32 ??ButtonList_Cancel_Event_Action, 67, ??ExitButtonList, 64, 0H
//   23 	PAGE_ENTER_EVENT_TAG, CreateButtonList,
//   24 	ACCEPT_EVENT_TAG, CreateButtonList,
//   25 	CANCEL_EVENT_TAG, ButtonList_Cancel_Event_Action,
//   26 	PAGE_EXIT_EVENT_TAG, ExitButtonList,
//   27 	NIL_EVENT_TAG, 0
//   28 };
//   29 

        RSEG DATA_I:DATA:SORT:NOROOT(2)
//   30 PAGE_DESC ChangeShortcuts_Buttons_page = { "BookManager_ChangeShortcuts_Buttons_Page", 0, ChangeShortcuts_Buttons_PageEvents };
ChangeShortcuts_Buttons_page:
        DS8 12
        REQUIRE `?<Initializer for ChangeShortcuts_Buttons_page`
//   31 
//   32 

        RSEG DYN_PAGE:CONST:SORT:NOROOT(2)
//   33 const PAGE_MSG SetJava_PageEvents[]@ "DYN_PAGE" = {
SetJava_PageEvents:
        DATA
        DC32 66, ??CreateJavaList, 67, ??onExit_JavaList, 64, 0H
//   34 	PAGE_ENTER_EVENT_TAG, CreateJavaList,
//   35 	PAGE_EXIT_EVENT_TAG, onExit_JavaList,
//   36 	NIL_EVENT_TAG, 0
//   37 };
//   38 

        RSEG DATA_I:DATA:SORT:NOROOT(2)
//   39 PAGE_DESC ChangeShortcuts_SetJava_page = { "BookManager_ChangeShortcuts_SetJava_Page", 0, SetJava_PageEvents };
ChangeShortcuts_SetJava_page:
        DS8 12
        REQUIRE `?<Initializer for ChangeShortcuts_SetJava_page`
//   40 
//   41 

        RSEG DYN_PAGE:CONST:SORT:NOROOT(2)
//   42 const PAGE_MSG SelectElf_PageEvents[]@ "DYN_PAGE" = {
SelectElf_PageEvents:
        DATA
        DC32 66, ??CreateDB, 76, ??onAccept_DB, 77, ??onPrevious_MainMenu_DB
        DC32 78, ??onCancel_MainMenu_DB, 64, 0H
//   43 	PAGE_ENTER_EVENT_TAG, CreateDB,
//   44 	ACCEPT_EVENT_TAG, onAccept_DB,
//   45 	PREVIOUS_EVENT_TAG, onPrevious_MainMenu_DB,
//   46 	CANCEL_EVENT_TAG, onCancel_MainMenu_DB,
//   47 	NIL_EVENT_TAG, 0
//   48 };
//   49 
//   50 PAGE_DESC SelectElf_page = { "BookManager_ChangeShortcuts_SelectElf_Page", 0, SelectElf_PageEvents };
//   51 
//   52 

        RSEG DYN_PAGE:CONST:SORT:NOROOT(2)
//   53 const PAGE_MSG SelectShortcut_PageEvents[]@ "DYN_PAGE" = {
SelectShortcut_PageEvents:
        DATA
        DC32 66, ??CreateMainMenu, 77, ??onPrevious_MainMenu_DB, 78
        DC32 ??onCancel_MainMenu_DB, 64, 0H

        RSEG DATA_I:DATA:SORT:NOROOT(2)
SelectElf_page:
        DS8 12
        REQUIRE `?<Initializer for SelectElf_page>`
//   54 	PAGE_ENTER_EVENT_TAG, CreateMainMenu,
//   55 	PREVIOUS_EVENT_TAG, onPrevious_MainMenu_DB,
//   56 	CANCEL_EVENT_TAG, onCancel_MainMenu_DB,
//   57 	NIL_EVENT_TAG, 0
//   58 };
//   59 
//   60 PAGE_DESC SelectShortcut_page = { "BookManager_ChangeShortcuts_SelectShortcut_Page", 0, SelectShortcut_PageEvents };
SelectShortcut_page:
        DS8 12
        REQUIRE `?<Initializer for SelectShortcut_page>`

        RSEG CODE:CODE:NOROOT(2)
        CFI Block cfiBlock0 Using cfiCommon0
        CFI NoFunction
        THUMB
??Shortcut_Append??rT:
        BX       PC
        Nop      
        CFI EndBlock cfiBlock0
        REQUIRE ??Shortcut_Append
//   61 
//   62 //============= pages end ======================
//   63 
//   64 
//   65 

        RSEG CODE:CODE:NOROOT(2)
        CFI Block cfiBlock1 Using cfiCommon1
        CFI Function ??Shortcut_Append
        ARM
//   66 void Shortcut_Append( wchar_t* name_buf, char* mask_buf, wchar_t* path )
//   67 {
??Shortcut_Append:
        PUSH     {R4-R7,LR}
        CFI ?RET Frame(CFA, -4)
        CFI R7 Frame(CFA, -8)
        CFI R6 Frame(CFA, -12)
        CFI R5 Frame(CFA, -16)
        CFI R4 Frame(CFA, -20)
        CFI CFA R13+20
        MOV      R4,R0
        MOV      R6,R1
//   68 	int f;
//   69 	if ( ( f = _fopen( path, INI_SHORTCUTS, FSX_O_CREAT|FSX_O_APPEND, FSX_S_IREAD|FSX_S_IWRITE, 0 ) ) >= 0 )
        MOV      R1,#+0
        PUSH     {R1}
        CFI CFA R13+24
        MOV      R0,R2
        MOV      R3,#+384
        LDR      R1,??DataTable2  ;; `?<Constant "[L_KEY%d]">` + 144
        MOV      R2,#+264
        SWI      +278
        MOVS     R5,R0
        ADD      SP,SP,#+4
        CFI CFA R13+20
        POPMI    {R4-R7,PC}
//   70 	{
//   71 		char* temp_buf = new char[strlen( mask_buf ) + wstrlen( name_buf ) + 4];
        MOV      R0,R6
        SWI      +346
        MOV      R7,R0
        MOV      R0,R4
        SWI      +343
        ADD      R0,R0,R7
        ADD      R0,R0,#+4
        _BLF     `??operator new[]`,`??operator new[]??rA`
        MOV      R7,R0
//   72 		strcpy( temp_buf, mask_buf );
        MOV      R1,R6
        SWI      +416
//   73 		strcat( temp_buf, " " );
        ADR      R1,??Shortcut_Append_1  ;; " "
        MOV      R0,R7
        SWI      +640
//   74 		wstr2strn( temp_buf + strlen( temp_buf ), name_buf, wstrlen( name_buf ) );
        MOV      R0,R4
        SWI      +343
        MOV      R6,R0
        MOV      R0,R7
        SWI      +346
        MOV      R2,R6
        MOV      R1,R4
        ADD      R0,R0,R7
        SWI      +347
//   75 		strcat( temp_buf, "\r\n" );
        ADR      R1,??Shortcut_Append_1+0x4  ;; "\r\n"
        MOV      R0,R7
        SWI      +640
//   76 		fwrite( f, temp_buf, strlen( temp_buf ) );
        MOV      R0,R7
        SWI      +346
        MOV      R2,R0
        MOV      R1,R7
        MOV      R0,R5
        SWI      +281
//   77 		fclose( f );
        MOV      R0,R5
        SWI      +279
//   78 		delete( temp_buf );
        MOV      R0,R7
        _BLF     `??operator delete`,`??operator delete??rA`
//   79 	}
//   80 }
        POP      {R4-R7,PC}       ;; return
        DATA
??Shortcut_Append_1:
        DC8      " ",+0,+0
        DC8      "\r\n",+0
        CFI EndBlock cfiBlock1

        RSEG CODE:CODE:NOROOT(2)
        CFI Block cfiBlock2 Using cfiCommon0
        CFI NoFunction
        THUMB
??ReWriteShortcut??rT:
        BX       PC
        Nop      
        CFI EndBlock cfiBlock2
        REQUIRE ??ReWriteShortcut
//   81 
//   82 

        RSEG CODE:CODE:NOROOT(2)
        CFI Block cfiBlock3 Using cfiCommon1
        CFI Function ??ReWriteShortcut
        ARM
//   83 void ReWriteShortcut( MyBOOK* mbk, wchar_t* name_buf, char* mask_buf, wchar_t* path )
//   84 {
??ReWriteShortcut:
        PUSH     {R1,R4-R11,LR}
        CFI ?RET Frame(CFA, -4)
        CFI R11 Frame(CFA, -8)
        CFI R10 Frame(CFA, -12)
        CFI R9 Frame(CFA, -16)
        CFI R8 Frame(CFA, -20)
        CFI R7 Frame(CFA, -24)
        CFI R6 Frame(CFA, -28)
        CFI R5 Frame(CFA, -32)
        CFI R4 Frame(CFA, -36)
        CFI CFA R13+40
        MOV      R5,R0
//   85 	int f;
//   86 	char* pos;
//   87 
//   88 	if ( mbk->shortcuts_buf )
        LDR      R0,[R5, #+36]
        MOV      R6,R2
        MOV      R7,R3
        CMP      R0,#+0
        BEQ      ??ReWriteShortcut_1
//   89 	{
//   90 		char* param = manifest_GetParam( mbk->shortcuts_buf, mask_buf, 0 );
        MOV      R2,#+0
        MOV      R1,R6
        SWI      +373
        MOV      R11,R0
//   91 
//   92 		int len = wstrlen( name_buf );      //длина старого €рлыка
        LDR      R0,[SP, #+0]
        SWI      +343
        MOV      R8,R0
//   93 		char* str_buf = new char[len + 1];
        ADD      R0,R8,#+1
        _BLF     `??operator new[]`,`??operator new[]??rA`
//   94 		wstr2strn( str_buf, name_buf, len );
        LDR      R1,[SP, #+0]
        MOV      R9,R0
        MOV      R2,R8
        SWI      +347
//   95 		int len_prefix = strlen(mask_buf)+1;      //длина префикса с пробелом
        MOV      R0,R6
        SWI      +346
        ADD      R10,R0,#+1
        LDR      R0,[R5, #+36]
        CMP      R11,#+0
        MOV      R1,R6
        BEQ      ??ReWriteShortcut_2
//   96 		if ( param )
//   97 		{
//   98 			pos = strstr( mbk->shortcuts_buf, mask_buf );
        SWI      +664
//   99 			if ( ( f = _fopen( path, INI_SHORTCUTS, FSX_O_RDWR|FSX_O_TRUNC, FSX_S_IREAD|FSX_S_IWRITE, 0 ) ) >= 0 )
        LDR      R1,??DataTable2  ;; `?<Constant "[L_KEY%d]">` + 144
        MOV      R4,R0
        MOV      R0,#+0
        PUSH     {R0}
        CFI CFA R13+44
        MOV      R3,#+384
        MOV      R2,#+516
        MOV      R0,R7
        SWI      +278
        MOVS     R6,R0
        ADD      SP,SP,#+4
        CFI CFA R13+40
        BMI      ??ReWriteShortcut_3
//  100 			{
//  101 				int len_minus = strlen( param );    //длина старого €рлыка
        MOV      R0,R11
        SWI      +346
//  102 				fwrite( f, mbk->shortcuts_buf, pos - mbk->shortcuts_buf + len_prefix );     //пишем начало файла
        LDR      R1,[R5, #+36]
        MOV      R7,R0
        SUB      R0,R4,R1
        ADD      R2,R10,R0
        MOV      R0,R6
        SWI      +281
//  103 				fwrite( f, str_buf, len );      //пишем новый €рлык
        MOV      R2,R8
        MOV      R1,R9
        MOV      R0,R6
        SWI      +281
//  104 				fwrite( f, pos + len_prefix + len_minus, ( mbk->shortcuts_buf_size - ( pos - mbk->shortcuts_buf + len_prefix ) ) - len_minus );      //пишем остаток файла
        LDR      R0,[R5, #+40]
        LDR      R1,[R5, #+36]
        SUB      R1,R4,R1
        SUB      R0,R0,R1
        SUB      R0,R0,R10
        SUB      R2,R0,R7
        ADD      R0,R10,R4
        ADD      R1,R7,R0
        MOV      R0,R6
        SWI      +281
//  105 				fclose( f );
        MOV      R0,R6
        SWI      +279
//  106 			}
//  107 
//  108 			mfree( param );
??ReWriteShortcut_3:
        MOV      R0,R11
        SWI      +260
        B        ??ReWriteShortcut_4
//  109 		}
//  110 		else
//  111 		{
//  112 			if ( pos = strstr( mbk->shortcuts_buf, mask_buf ) )
??ReWriteShortcut_2:
        SWI      +664
        MOVS     R4,R0
        BEQ      ??ReWriteShortcut_5
//  113 			{
//  114 				if ( ( f = _fopen( path, INI_SHORTCUTS, FSX_O_RDWR|FSX_O_TRUNC, FSX_S_IREAD|FSX_S_IWRITE, 0 ) ) >= 0 )
        LDR      R1,??DataTable2  ;; `?<Constant "[L_KEY%d]">` + 144
        MOV      R0,#+0
        PUSH     {R0}
        CFI CFA R13+44
        MOV      R3,#+384
        MOV      R2,#+516
        MOV      R0,R7
        SWI      +278
        MOVS     R6,R0
        ADD      SP,SP,#+4
        CFI CFA R13+40
        BMI      ??ReWriteShortcut_6
//  115 				{
//  116 					fwrite( f, mbk->shortcuts_buf, pos - mbk->shortcuts_buf + len_prefix );
        LDR      R1,[R5, #+36]
        SUB      R0,R4,R1
        ADD      R2,R10,R0
        MOV      R0,R6
        SWI      +281
//  117 					fwrite( f, str_buf, len );
        MOV      R2,R8
        MOV      R1,R9
        MOV      R0,R6
        SWI      +281
//  118 					fwrite( f, pos + len_prefix, mbk->shortcuts_buf_size - ( pos - mbk->shortcuts_buf + len_prefix ) );
        LDR      R0,[R5, #+40]
        LDR      R1,[R5, #+36]
        SUB      R1,R4,R1
        SUB      R0,R0,R1
        SUB      R2,R0,R10
        ADD      R1,R10,R4
        MOV      R0,R6
        SWI      +281
//  119 					fclose( f );
        MOV      R0,R6
        SWI      +279
??ReWriteShortcut_4:
        MOV      R0,R9
        _BLF     `??operator delete`,`??operator delete??rA`
        POP      {R0,R4-R11,PC}
//  120 				}
//  121 			}
//  122 			else
//  123 			{
//  124 				Shortcut_Append( name_buf, mask_buf, path );
??ReWriteShortcut_5:
        LDR      R0,[SP, #+0]
        MOV      R2,R7
        MOV      R1,R6
        BL       ??Shortcut_Append
//  125 			}
//  126 		}
//  127 		delete( str_buf );
??ReWriteShortcut_6:
        MOV      R0,R9
        _BLF     `??operator delete`,`??operator delete??rA`
        POP      {R0,R4-R11,PC}
//  128 	}
//  129 	else
//  130 	{
//  131 		Shortcut_Append( name_buf, mask_buf, path );
??ReWriteShortcut_1:
        LDR      R0,[SP, #+0]
        MOV      R2,R7
        MOV      R1,R6
        BL       ??Shortcut_Append
//  132 	}
//  133 }
        POP      {R0,R4-R11,PC}   ;; return
        CFI EndBlock cfiBlock3

        RSEG CODE:CODE:NOROOT(2)
        DATA
??DataTable2:
        DC32     `?<Constant "[L_KEY%d]">` + 144

        RSEG CODE:CODE:NOROOT(2)
        CFI Block cfiBlock4 Using cfiCommon0
        CFI NoFunction
        THUMB
??WriteShortcut??rT:
        BX       PC
        Nop      
        CFI EndBlock cfiBlock4
        REQUIRE ??WriteShortcut
//  134 

        RSEG CODE:CODE:NOROOT(2)
        CFI Block cfiBlock5 Using cfiCommon1
        CFI Function ??WriteShortcut
        ARM
//  135 void WriteShortcut( wchar_t* name_buf )
//  136 {
??WriteShortcut:
        PUSH     {R4-R8,LR}
        CFI ?RET Frame(CFA, -4)
        CFI R8 Frame(CFA, -8)
        CFI R7 Frame(CFA, -12)
        CFI R6 Frame(CFA, -16)
        CFI R5 Frame(CFA, -20)
        CFI R4 Frame(CFA, -24)
        CFI CFA R13+24
//  137 	MyBOOK* mbk = (MyBOOK*) FindBook( isBookManager );
//  138 	wchar_t* path = get_path();
//  139 	char mask_buf[10];
//  140 
//  141 	int dig_num = ListMenu_GetSelectedItem( mbk->but_list );
//  142 
//  143 	if ( !ListMenu_GetSelectedItem( mbk->mode_list ) )
        LDR      R8,??DataTable33  ;; `?<Constant "[L_KEY%d]">`
        MOV      R4,R0
        LDR      R0,??DataTable7  ;; ??isBookManager
        SUB      SP,SP,#+12
        CFI CFA R13+36
        SWI      +304
        MOV      R5,R0
        _BLF     ??get_path,??get_path??rA
        MOV      R6,R0
        LDR      R0,[R5, #+88]
        SWI      +318
        MOV      R7,R0
        LDR      R0,[R5, #+84]
        SWI      +318
        CMP      R0,#+0
        LDRH     R0,[R5, #+140]
        BNE      ??WriteShortcut_1
//  144 	{
//  145 		if ( mbk->ActiveTAB==BOOKLIST || ShortcutsMode )
        CMP      R0,#+0
        BEQ      ??WriteShortcut_2
        LDR      R0,??DataTable34  ;; ShortcutsMode
        LDR      R0,[R0, #+0]
        CMP      R0,#+0
        BEQ      ??WriteShortcut_3
//  146 			sprintf( mask_buf, "[S_KEY%d]", dig_num );
??WriteShortcut_2:
        MOV      R2,R7
        ADD      R1,R8,#+172
        B        ??WriteShortcut_4
//  147 		else
//  148 			sprintf( mask_buf, "[ES_KEY%d]", dig_num );
??WriteShortcut_3:
        MOV      R2,R7
        ADD      R1,R8,#+184
??WriteShortcut_4:
        MOV      R0,SP
        SWI      +276
//  149 
//  150 		ReWriteShortcut( mbk, name_buf, mask_buf, path );
        MOV      R3,R6
        MOV      R2,SP
        MOV      R1,R4
        MOV      R0,R5
        BL       ??ReWriteShortcut
//  151 	}
//  152 	else
//  153 	{
//  154 		if ( mbk->ActiveTAB==BOOKLIST || ShortcutsMode )
//  155 			sprintf( mask_buf, "[L_KEY%d]", dig_num );
//  156 		else
//  157 			sprintf( mask_buf, "[EL_KEY%d]", dig_num );
//  158 
//  159 		ReWriteShortcut( mbk, name_buf, mask_buf, path );
//  160 	}
//  161 	delete( path );
        MOV      R0,R6
        _BLF     `??operator delete`,`??operator delete??rA`
//  162 
//  163 	LoadShortcuts(mbk);
        MOV      R0,R5
        _BLF     ??LoadShortcuts,??LoadShortcuts??rA
//  164 }
        POP      {R0-R2,R4-R8,PC}  ;; return
??WriteShortcut_1:
        CMP      R0,#+0
        BEQ      ??WriteShortcut_5
        LDR      R0,??DataTable34  ;; ShortcutsMode
        LDR      R0,[R0, #+0]
        CMP      R0,#+0
        BEQ      ??WriteShortcut_6
??WriteShortcut_5:
        MOV      R2,R7
        MOV      R1,R8
        B        ??WriteShortcut_4
??WriteShortcut_6:
        MOV      R2,R7
        ADD      R1,R8,#+196
        B        ??WriteShortcut_4
        CFI EndBlock cfiBlock5

        RSEG CODE:CODE:NOROOT(2)
        CFI Block cfiBlock6 Using cfiCommon0
        CFI NoFunction
        THUMB
??onShortcutSet??rT:
        BX       PC
        Nop      
        CFI EndBlock cfiBlock6
        REQUIRE ??onShortcutSet
//  165 

        RSEG CODE:CODE:NOROOT(2)
        CFI Block cfiBlock7 Using cfiCommon1
        CFI Function ??onShortcutSet
        ARM
//  166 void onShortcutSet( BOOK* MainMenu, GUI* )
//  167 {
??onShortcutSet:
        PUSH     {R4-R6,LR}
        CFI ?RET Frame(CFA, -4)
        CFI R6 Frame(CFA, -8)
        CFI R5 Frame(CFA, -12)
        CFI R4 Frame(CFA, -16)
        CFI CFA R13+16
        MOV      R4,R0
//  168 	MyBOOK* mbk = (MyBOOK*) FindBook( isBookManager );
        LDR      R0,??DataTable7  ;; ??isBookManager
        SWI      +304
        MOV      R5,R0
//  169 
//  170 	wchar_t* name_buf = MenuBook_Desktop_GetSelectedItemID( MainMenu );
        MOV      R0,R4
        SWI      +705
        MOVS     R6,R0
//  171 	if ( name_buf )
        BEQ      ??onShortcutSet_1
//  172 	{
//  173 		WriteShortcut( name_buf );
        BL       ??WriteShortcut
//  174 		mfree( name_buf );
        MOV      R0,R6
        SWI      +260
//  175 	}
//  176 	FreeBook( MainMenu );
??onShortcutSet_1:
        MOV      R0,R4
        SWI      +303
//  177 	BookObj_ReturnPage( mbk, ACCEPT_EVENT );
        LDR      R0,??DataTable13  ;; ACCEPT_EVENT
        LDR      R1,[R0, #+0]
        MOV      R0,R5
        SWI      +302
//  178 }
        POP      {R4-R6,PC}       ;; return
        CFI EndBlock cfiBlock7

        RSEG CODE:CODE:NOROOT(2)
        DATA
??DataTable7:
        DC32     ??isBookManager

        RSEG CODE:CODE:NOROOT(2)
        CFI Block cfiBlock8 Using cfiCommon0
        CFI NoFunction
        THUMB
??onPrevious_MainMenu_DB??rT:
        BX       PC
        Nop      
        CFI EndBlock cfiBlock8
        REQUIRE ??onPrevious_MainMenu_DB
//  179 
//  180 

        RSEG CODE:CODE:NOROOT(2)
        CFI Block cfiBlock9 Using cfiCommon1
        CFI Function ??onPrevious_MainMenu_DB
        ARM
//  181 int onPrevious_MainMenu_DB( void* data, BOOK* book )
//  182 {
??onPrevious_MainMenu_DB:
        PUSH     {LR}
        CFI ?RET Frame(CFA, -4)
        CFI CFA R13+4
        MOV      R0,R1
//  183 	BookObj_ReturnPage( book, NIL_EVENT );
        LDR      R1,??DataTable15  ;; NIL_EVENT
        LDR      R1,[R1, #+0]
        SWI      +302
//  184 	return 1;
        MOV      R0,#+1
        POP      {PC}             ;; return
        CFI EndBlock cfiBlock9
//  185 }

        RSEG CODE:CODE:NOROOT(2)
        CFI Block cfiBlock10 Using cfiCommon0
        CFI NoFunction
        THUMB
??onCancel_MainMenu_DB??rT:
        BX       PC
        Nop      
        CFI EndBlock cfiBlock10
        REQUIRE ??onCancel_MainMenu_DB
//  186 
//  187 

        RSEG CODE:CODE:NOROOT(2)
        CFI Block cfiBlock11 Using cfiCommon1
        CFI Function ??onCancel_MainMenu_DB
        ARM
//  188 int onCancel_MainMenu_DB( void* data, BOOK* book )
//  189 {
??onCancel_MainMenu_DB:
        PUSH     {LR}
        CFI ?RET Frame(CFA, -4)
        CFI CFA R13+4
        MOV      R0,R1
//  190 	BookObj_ReturnPage( book, CANCEL_EVENT );
        LDR      R1,??DataTable40  ;; CANCEL_EVENT
        LDR      R1,[R1, #+0]
        SWI      +302
//  191 	return 1;
        MOV      R0,#+1
        POP      {PC}             ;; return
        CFI EndBlock cfiBlock11
//  192 }

        RSEG CODE:CODE:NOROOT(2)
        CFI Block cfiBlock12 Using cfiCommon0
        CFI NoFunction
        THUMB
??CreateMainMenu??rT:
        BX       PC
        Nop      
        CFI EndBlock cfiBlock12
        REQUIRE ??CreateMainMenu
//  193 
//  194 

        RSEG CODE:CODE:NOROOT(2)
        CFI Block cfiBlock13 Using cfiCommon1
        CFI Function ??CreateMainMenu
        ARM
//  195 int CreateMainMenu( void* data, BOOK* book )
//  196 {
??CreateMainMenu:
        PUSH     {R4,R5,LR}
        CFI ?RET Frame(CFA, -4)
        CFI R5 Frame(CFA, -8)
        CFI R4 Frame(CFA, -12)
        CFI CFA R13+12
        SUB      SP,SP,#+4
        CFI CFA R13+16
        MOV      R4,R1
//  197 	BOOK* MainMenu = MenuBook_Desktop( 1, BookObj_GetBookID( book ) );
        MOV      R0,R4
        SWI      +506
        MOV      R1,R0
        MOV      R0,#+1
        SWI      +704
        MOVS     R5,R0
//  198 	if ( MainMenu )
        BEQ      ??CreateMainMenu_1
//  199 	{
//  200 		( (MyBOOK*) book )->MainMenuID = BookObj_GetBookID( MainMenu );
        SWI      +506
//  201 		BookObj_SoftKeys_SetAction( MainMenu, 0x0, onShortcutSet );
        LDR      R2,??CreateMainMenu_2  ;; ??onShortcutSet
        STR      R0,[R4, #+128]
        MOV      R1,#+0
        MOV      R0,R5
        SWI      +706
//  202 		int str_id;
//  203 		textidname2id( L"SHC_SET_SHORTCUT_SK", TEXTID_ANY_LEN, &str_id );
        LDR      R0,??CreateMainMenu_2+0x4  ;; `?<Constant L"\\x53\\x48\\x43\\x5f\\x53\\x45\\x54\\x5f\\_1`
        MOV      R2,SP
        MOV      R1,#+255
        ORR      R1,R1,#0xFF00
        SWI      +647
//  204 		BookObj_SoftKeys_SetText( MainMenu, 0x0, str_id );
        LDR      R2,[SP, #+0]
        MOV      R1,#+0
        MOV      R0,R5
        SWI      +707
//  205 		return 1;
        MOV      R0,#+1
        POP      {R1,R4,R5,PC}
//  206 	}
//  207 	BookObj_ReturnPage( book, ACCEPT_EVENT );
??CreateMainMenu_1:
        LDR      R0,??DataTable13  ;; ACCEPT_EVENT
        LDR      R1,[R0, #+0]
        MOV      R0,R4
        SWI      +302
//  208 	return 0;
        MOV      R0,#+0
        POP      {R1,R4,R5,PC}    ;; return
        DATA
??CreateMainMenu_2:
        DC32     ??onShortcutSet
        DC32     `?<Constant L"\\x53\\x48\\x43\\x5f\\x53\\x45\\x54\\x5f\\_1`
        CFI EndBlock cfiBlock13
//  209 }

        RSEG CODE:CODE:NOROOT(2)
        CFI Block cfiBlock14 Using cfiCommon0
        CFI NoFunction
        THUMB
??DB_Filter??rT:
        BX       PC
        Nop      
        CFI EndBlock cfiBlock14
        REQUIRE ??DB_Filter
//  210 

        RSEG CODE:CODE:NOROOT(2)
        CFI Block cfiBlock15 Using cfiCommon1
        CFI Function ??DB_Filter
        ARM
//  211 int DB_Filter( const wchar_t* ext_table, const wchar_t* path , const wchar_t* name )
//  212 {
??DB_Filter:
        PUSH     {R4,R5,LR}
        CFI ?RET Frame(CFA, -4)
        CFI R5 Frame(CFA, -8)
        CFI R4 Frame(CFA, -12)
        CFI CFA R13+12
        SUB      SP,SP,#+28
        CFI CFA R13+40
        MOV      R4,R1
        MOV      R5,R2
//  213 	FSTAT _fstat;
//  214 
//  215 	if ( DataBrowser_isFileInListExt( ext_table, path, name ) )
        SWI      +295
        CMP      R0,#+0
//  216 		return 1;
        MOVNE    R0,#+1
        BNE      ??DB_Filter_1
//  217 
//  218 	fstat( path, name, &_fstat );
        MOV      R2,SP
        MOV      R1,R5
        MOV      R0,R4
        SWI      +284
//  219 
//  220 	return 0 != ( _fstat.st_mode & FSX_S_IFDIR );
        LDR      R0,[SP, #+4]
        ASR      R0,R0,#+16
        AND      R0,R0,#0x1
??DB_Filter_1:
        ADD      SP,SP,#+28       ;; stack cleaning
        CFI CFA R13+12
        POP      {R4,R5,PC}       ;; return
        CFI EndBlock cfiBlock15
//  221 }

        RSEG CODE:CODE:NOROOT(2)
        CFI Block cfiBlock16 Using cfiCommon0
        CFI NoFunction
        THUMB
??onAccept_DB??rT:
        BX       PC
        Nop      
        CFI EndBlock cfiBlock16
        REQUIRE ??onAccept_DB
//  222 
//  223 

        RSEG CODE:CODE:NOROOT(2)
        CFI Block cfiBlock17 Using cfiCommon1
        CFI Function ??onAccept_DB
        ARM
//  224 int onAccept_DB( void* data, BOOK* book )
//  225 {
??onAccept_DB:
        PUSH     {R4-R7,LR}
        CFI ?RET Frame(CFA, -4)
        CFI R7 Frame(CFA, -8)
        CFI R6 Frame(CFA, -12)
        CFI R5 Frame(CFA, -16)
        CFI R4 Frame(CFA, -20)
        CFI CFA R13+20
        MOV      R4,R0
        MOV      R5,R1
//  226 	wchar_t* path_ptr = wstrwstr( FILEITEM_GetPath( ( FILEITEM* )data ), L"ZBin/" );
        SWI      +723
        LDR      R1,??onAccept_DB_1+0x4  ;; `?<Constant L"\\x5a\\x42\\x69\\x6e\\x2f">`
        SWI      +670
        MOV      R6,R0
//  227 	wchar_t* elf_buf = new wchar_t[wstrlen( path_ptr + 4 ) + wstrlen( FILEITEM_GetFname( ( FILEITEM* )data ) ) + 1];
        ADD      R0,R6,#+8
        SWI      +343
        MOV      R7,R0
        MOV      R0,R4
        SWI      +722
        SWI      +343
        ADD      R0,R0,R7
        ADD      R0,R0,#+1
        LSL      R0,R0,#+1
        _BLF     `??operator new[]`,`??operator new[]??rA`
        MOV      R7,R0
//  228 	elf_buf[0] = 0;
        MOV      R0,#+0
        STRH     R0,[R7, #+0]
//  229 
//  230 	if ( path_ptr )
        CMP      R6,#+0
        BEQ      ??onAccept_DB_2
//  231 		wstrcpy( elf_buf, path_ptr + 4 );
        ADD      R1,R6,#+8
        MOV      R0,R7
        SWI      +338
//  232 
//  233 	wstrcat( elf_buf, L"/" );
??onAccept_DB_2:
        ADR      R1,??onAccept_DB_1  ;; 0x2F, 0x00, 0x00, 0x00
        MOV      R0,R7
        SWI      +340
//  234 	wstrcat( elf_buf, FILEITEM_GetFname( ( FILEITEM* )data ) );
        MOV      R0,R4
        SWI      +722
        MOV      R1,R0
        MOV      R0,R7
        SWI      +340
//  235 	WriteShortcut( elf_buf );
        MOV      R0,R7
        BL       ??WriteShortcut
//  236 	delete( elf_buf );
        MOV      R0,R7
        _BLF     `??operator delete`,`??operator delete??rA`
//  237 	BookObj_ReturnPage( book, ACCEPT_EVENT );
        LDR      R0,??DataTable13  ;; ACCEPT_EVENT
        LDR      R1,[R0, #+0]
        MOV      R0,R5
        SWI      +302
//  238 	return 0;
        MOV      R0,#+0
        POP      {R4-R7,PC}       ;; return
        DATA
??onAccept_DB_1:
        DC8      0x2F, 0x00, 0x00, 0x00
        DC32     `?<Constant L"\\x5a\\x42\\x69\\x6e\\x2f">`
        CFI EndBlock cfiBlock17
//  239 }

        RSEG CODE:CODE:NOROOT(2)
        CFI Block cfiBlock18 Using cfiCommon0
        CFI NoFunction
        THUMB
??CreateDB??rT:
        BX       PC
        Nop      
        CFI EndBlock cfiBlock18
        REQUIRE ??CreateDB
//  240 

        RSEG CODE:CODE:NOROOT(2)
        CFI Block cfiBlock19 Using cfiCommon1
        CFI Function ??CreateDB
        ARM
//  241 int CreateDB( void* data, BOOK* book )
//  242 {
??CreateDB:
        PUSH     {R4-R6,LR}
        CFI ?RET Frame(CFA, -4)
        CFI R6 Frame(CFA, -8)
        CFI R5 Frame(CFA, -12)
        CFI R4 Frame(CFA, -16)
        CFI CFA R13+16
//  243 	void* DB_Desc = DataBrowserDesc_Create();
//  244 	const wchar_t* folder_list[3];
//  245 	folder_list[0] = GetDir( DIR_ELFS | MEM_INTERNAL );
//  246 	folder_list[1] = GetDir( DIR_ELFS | MEM_EXTERNAL );
//  247 	folder_list[2] = 0;
//  248 	DataBrowserDesc_SetHeaderText( DB_Desc, STR( "ZBin" ) );
        LDR      R6,??CreateDB_1  ;; `?<Constant L"\\x5a\\x42\\x69\\x6e">`
        SUB      SP,SP,#+12
        CFI CFA R13+28
        MOV      R4,R1
        SWI      +287
        MOV      R5,R0
        MOV      R0,#+17
        SWI      +261
        STR      R0,[SP, #+0]
        MOV      R0,#+16
        SWI      +261
        STR      R0,[SP, #+4]
        MOV      R1,#+0
        STR      R1,[SP, #+8]
        MOV      R2,#+255
        ORR      R2,R2,#0xFF00
        MOV      R0,R6
        SWI      +349
        MOV      R1,R0
        MOV      R0,R5
        SWI      +289
//  249 	DataBrowserDesc_SetBookID( DB_Desc, BookObj_GetBookID( book ) );
        MOV      R0,R4
        SWI      +506
        MOV      R1,R0
        MOV      R0,R5
        SWI      +685
//  250 	DataBrowserDesc_SetFolders( DB_Desc, folder_list );
        MOV      R1,SP
        MOV      R0,R5
        SWI      +290
//  251 	DataBrowserDesc_SetFileExtList( DB_Desc, L"*.elf" );
        ADD      R1,R6,#+12
        MOV      R0,R5
        SWI      +689
//  252 	DataBrowserDesc_SetItemFilter( DB_Desc, DB_Filter );
        LDR      R1,??CreateDB_1+0x4  ;; ??DB_Filter
        MOV      R0,R5
        SWI      +686
//  253 	DataBrowserDesc_SetFoldersNumber( DB_Desc, 2 );
        MOV      R1,#+2
        MOV      R0,R5
        SWI      +681
//  254 	DataBrowserDesc_SetSelectAction( DB_Desc, 1 );
        MOV      R1,#+1
        MOV      R0,R5
        SWI      +683
//  255 	DataBrowser_Create( DB_Desc );
        MOV      R0,R5
        SWI      +292
//  256 	DataBrowserDesc_Destroy( DB_Desc );
        MOV      R0,R5
        SWI      +293
//  257 	return 0;
        MOV      R0,#+0
        POP      {R1-R6,PC}       ;; return
        DATA
??CreateDB_1:
        DC32     `?<Constant L"\\x5a\\x42\\x69\\x6e">`
        DC32     ??DB_Filter
        CFI EndBlock cfiBlock19
//  258 }

        RSEG CODE:CODE:NOROOT(2)
        CFI Block cfiBlock20 Using cfiCommon0
        CFI NoFunction
        THUMB
??onEnter_JavaList??rT:
        BX       PC
        Nop      
        CFI EndBlock cfiBlock20
        REQUIRE ??onEnter_JavaList
//  259 
//  260 

        RSEG CODE:CODE:NOROOT(2)
        CFI Block cfiBlock21 Using cfiCommon1
        CFI Function ??onEnter_JavaList
        ARM
//  261 void onEnter_JavaList( BOOK* book, GUI* )
//  262 {
??onEnter_JavaList:
        PUSH     {R4-R7,LR}
        CFI ?RET Frame(CFA, -4)
        CFI R7 Frame(CFA, -8)
        CFI R6 Frame(CFA, -12)
        CFI R5 Frame(CFA, -16)
        CFI R4 Frame(CFA, -20)
        CFI CFA R13+20
        MOV      R4,R0
//  263 	MyBOOK* mbk = (MyBOOK*) book;
//  264 	java_list_elem* elem = (java_list_elem*) List_Get( mbk->java_list, ListMenu_GetSelectedItem( mbk->java_list_menu ) );
        LDR      R0,[R4, #+72]
        SWI      +318
        MOV      R1,R0
        LDR      R0,[R4, #+68]
        SWI      +429
        MOV      R5,R0
//  265 	int java_buf_len = wstrlen( elem->name ) + wstrlen( elem->hash_name ) + 10;
        LDR      R0,[R5, #+0]
        SWI      +343
        MOV      R6,R0
        LDR      R0,[R5, #+8]
        SWI      +343
        ADD      R0,R0,R6
        ADD      R6,R0,#+10
//  266 	wchar_t* java_buf = new wchar_t[java_buf_len];
        LSL      R0,R6,#+1
        _BLF     `??operator new[]`,`??operator new[]??rA`
//  267 	snwprintf( java_buf, java_buf_len, L"java:%ls//%ls", elem->name, elem->hash_name );
        LDR      R2,??onEnter_JavaList_1  ;; `?<Constant L"\\x6a\\x61\\x76\\x61\\x3a\\x25\\x6c\\x73\\`
        MOV      R7,R0
        LDR      R0,[R5, #+8]
        MOV      R1,R6
        PUSH     {R0}
        CFI CFA R13+24
        LDR      R3,[R5, #+0]
        MOV      R0,R7
        SWI      +277
//  268 
//  269 	WriteShortcut( java_buf );
        MOV      R0,R7
        BL       ??WriteShortcut
//  270 	delete( java_buf );
        MOV      R0,R7
        _BLF     `??operator delete`,`??operator delete??rA`
//  271 	BookObj_ReturnPage( mbk, ACCEPT_EVENT );
        LDR      R0,??DataTable13  ;; ACCEPT_EVENT
        LDR      R1,[R0, #+0]
        MOV      R0,R4
        SWI      +302
//  272 }
        POP      {R0,R4-R7,PC}    ;; return
        DATA
??onEnter_JavaList_1:
        DC32     `?<Constant L"\\x6a\\x61\\x76\\x61\\x3a\\x25\\x6c\\x73\\`
        CFI EndBlock cfiBlock21

        RSEG CODE:CODE:NOROOT(2)
        DATA
??DataTable13:
        DC32     ACCEPT_EVENT

        RSEG CODE:CODE:NOROOT(2)
        CFI Block cfiBlock22 Using cfiCommon0
        CFI NoFunction
        THUMB
??JavaList_Cancel_Action??rT:
        BX       PC
        Nop      
        CFI EndBlock cfiBlock22
        REQUIRE ??JavaList_Cancel_Action
//  273 
//  274 

        RSEG CODE:CODE:NOROOT(2)
        CFI Block cfiBlock23 Using cfiCommon1
        CFI Function ??JavaList_Cancel_Action
        ARM
//  275 void JavaList_Cancel_Action( BOOK* book, GUI* )
//  276 {
//  277 	BookObj_ReturnPage( book, CANCEL_EVENT );
??JavaList_Cancel_Action:
        LDR      R1,??DataTable40  ;; CANCEL_EVENT
        PUSH     {LR}
        CFI ?RET Frame(CFA, -4)
        CFI CFA R13+4
        LDR      R1,[R1, #+0]
        SWI      +302
//  278 }
        POP      {PC}             ;; return
        CFI EndBlock cfiBlock23

        RSEG CODE:CODE:NOROOT(2)
        CFI Block cfiBlock24 Using cfiCommon0
        CFI NoFunction
        THUMB
??JavaList_Prev_Action??rT:
        BX       PC
        Nop      
        CFI EndBlock cfiBlock24
        REQUIRE ??JavaList_Prev_Action
//  279 
//  280 

        RSEG CODE:CODE:NOROOT(2)
        CFI Block cfiBlock25 Using cfiCommon1
        CFI Function ??JavaList_Prev_Action
        ARM
//  281 void JavaList_Prev_Action( BOOK* book, GUI* )
//  282 {
//  283 	BookObj_ReturnPage( book, NIL_EVENT );
??JavaList_Prev_Action:
        LDR      R1,??DataTable15  ;; NIL_EVENT
        PUSH     {LR}
        CFI ?RET Frame(CFA, -4)
        CFI CFA R13+4
        LDR      R1,[R1, #+0]
        SWI      +302
//  284 }
        POP      {PC}             ;; return
        CFI EndBlock cfiBlock25

        RSEG CODE:CODE:NOROOT(2)
        DATA
??DataTable15:
        DC32     NIL_EVENT

        RSEG CODE:CODE:NOROOT(2)
        CFI Block cfiBlock26 Using cfiCommon0
        CFI NoFunction
        THUMB
??elem_free??rT:
        BX       PC
        Nop      
        CFI EndBlock cfiBlock26
        REQUIRE ??elem_free
//  285 
//  286 

        RSEG CODE:CODE:NOROOT(2)
        CFI Block cfiBlock27 Using cfiCommon1
        CFI Function ??elem_free
        ARM
//  287 void elem_free( void* elem )
//  288 {
??elem_free:
        PUSH     {R4,LR}
        CFI ?RET Frame(CFA, -4)
        CFI R4 Frame(CFA, -8)
        CFI CFA R13+8
        MOV      R4,R0
//  289 	java_list_elem* lm = (java_list_elem*) elem;
//  290 
//  291 	if ( lm->name )
        LDR      R0,[R4, #+0]
        CMP      R0,#+0
        BEQ      ??elem_free_1
//  292 		delete( lm->name );
        _BLF     `??operator delete`,`??operator delete??rA`
//  293 
//  294 	if ( lm->fullpath )
??elem_free_1:
        LDR      R0,[R4, #+4]
        CMP      R0,#+0
        BEQ      ??elem_free_2
//  295 		delete( lm->fullpath );
        _BLF     `??operator delete`,`??operator delete??rA`
//  296 
//  297 	if ( lm->hash_name )
??elem_free_2:
        LDR      R0,[R4, #+8]
        CMP      R0,#+0
        BEQ      ??elem_free_3
//  298 		delete( lm->hash_name );
        _BLF     `??operator delete`,`??operator delete??rA`
//  299 
//  300 	if ( lm->imageID!=NOIMAGE )
??elem_free_3:
        LDRH     R0,[R4, #+12]
        MOV      R1,#+255
        ORR      R1,R1,#0xFF00
        CMP      R0,R1
        BEQ      ??elem_free_4
//  301 		ImageID_Free( lm->imageID );
        SWI      +717
//  302 
//  303 	delete( lm );
??elem_free_4:
        MOV      R0,R4
        POP      {R4,LR}          ;; Pop
        CFI R4 SameValue
        CFI ?RET R14
        CFI CFA R13+0
        _BF      `??operator delete`,`??operator delete??rA`  ;; tailcall
        CFI EndBlock cfiBlock27
//  304 }

        RSEG CODE:CODE:NOROOT(2)
        CFI Block cfiBlock28 Using cfiCommon0
        CFI NoFunction
        THUMB
??elem_filter??rT:
        BX       PC
        Nop      
        CFI EndBlock cfiBlock28
        REQUIRE ??elem_filter
//  305 

        RSEG CODE:CODE:NOROOT(2)
        CFI Block cfiBlock29 Using cfiCommon1
        CFI Function ??elem_filter
        ARM
//  306 int elem_filter( void* elem )
//  307 {
//  308 	return elem!= NULL;
??elem_filter:
        CMP      R0,#+0
        MOVNE    R0,#+1
        BX       LR               ;; return
        CFI EndBlock cfiBlock29
//  309 }

        RSEG CODE:CODE:NOROOT(2)
        CFI Block cfiBlock30 Using cfiCommon0
        CFI NoFunction
        THUMB
??onExit_JavaList??rT:
        BX       PC
        Nop      
        CFI EndBlock cfiBlock30
        REQUIRE ??onExit_JavaList
//  310 
//  311 

        RSEG CODE:CODE:NOROOT(2)
        CFI Block cfiBlock31 Using cfiCommon1
        CFI Function ??onExit_JavaList
        ARM
//  312 int onExit_JavaList( void* data, BOOK* book )
//  313 {
??onExit_JavaList:
        PUSH     {R4,R5,LR}
        CFI ?RET Frame(CFA, -4)
        CFI R5 Frame(CFA, -8)
        CFI R4 Frame(CFA, -12)
        CFI CFA R13+12
        MOV      R4,R1
//  314 	MyBOOK* mbk = (MyBOOK*) book;
//  315 
//  316 	if ( mbk->java_list_menu )
        LDR      R0,[R4, #+72]
        MOV      R5,#+0
        CMP      R0,#+0
        BEQ      ??onExit_JavaList_1
//  317 	{
//  318 		GUIObject_Destroy( mbk->java_list_menu );
        SWI      +462
//  319 		mbk->java_list_menu = 0;
        STR      R5,[R4, #+72]
//  320 	}
//  321 
//  322 	if ( mbk->java_list )
??onExit_JavaList_1:
        LDR      R0,[R4, #+68]
        CMP      R0,#+0
        POPEQ    {R4,R5,PC}
//  323 	{
//  324 		List_DestroyElements( mbk->java_list, elem_filter, elem_free );
        LDR      R2,??DataTable18  ;; ??elem_free
        LDR      R1,??DataTable19  ;; ??elem_filter
        SWI      +663
//  325 		List_Destroy( mbk->java_list );
        LDR      R0,[R4, #+68]
        SWI      +362
//  326 		mbk->java_list = 0;
        STR      R5,[R4, #+68]
//  327 	}
//  328 	return 0;
        MOV      R0,#+0
        POP      {R4,R5,PC}       ;; return
        CFI EndBlock cfiBlock31
//  329 }

        RSEG CODE:CODE:NOROOT(2)
        CFI Block cfiBlock32 Using cfiCommon0
        CFI NoFunction
        THUMB
??java_list_callback??rT:
        BX       PC
        Nop      
        CFI EndBlock cfiBlock32
        REQUIRE ??java_list_callback
//  330 
//  331 

        RSEG CODE:CODE:NOROOT(2)
        CFI Block cfiBlock33 Using cfiCommon1
        CFI Function ??java_list_callback
        ARM
//  332 int java_list_callback( GUI_MESSAGE* msg )
//  333 {
??java_list_callback:
        PUSH     {R4,R5,LR}
        CFI ?RET Frame(CFA, -4)
        CFI R5 Frame(CFA, -8)
        CFI R4 Frame(CFA, -12)
        CFI CFA R13+12
        MOV      R4,R0
//  334 	MyBOOK* mbk = (MyBOOK*) GUIonMessage_GetBook( msg );
        SWI      +885
        MOV      R5,R0
//  335 
//  336 	switch( GUIonMessage_GetMsg( msg ) )
        MOV      R0,R4
        SWI      +884
        CMP      R0,#+1
        BNE      ??java_list_callback_1
//  337 	{
//  338 	case LISTMSG_GetItem:
//  339 		java_list_elem* elem = (java_list_elem*) List_Get( mbk->java_list, GUIonMessage_GetCreatedItemIndex( msg ) );
        MOV      R0,R4
        SWI      +311
        MOV      R1,R0
        LDR      R0,[R5, #+68]
        SWI      +429
        MOV      R5,R0
//  340 		GUIonMessage_SetMenuItemText( msg, TextID_Create( elem->name, ENC_UCS2, TEXTID_ANY_LEN ) );
        LDR      R0,[R5, #+0]
        MOV      R2,#+255
        ORR      R2,R2,#0xFF00
        MOV      R1,#+0
        SWI      +349
        MOV      R1,R0
        MOV      R0,R4
        SWI      +312
//  341 		JavaApp_LogoImageID_Get( elem->fullpath, &elem->imageID );
        LDR      R0,[R5, #+4]
        ADD      R1,R5,#+12
        SWI      +780
//  342 		GUIonMessage_SetMenuItemIcon( msg, 0, elem->imageID );
        LDRH     R2,[R5, #+12]
        MOV      R1,#+0
        MOV      R0,R4
        SWI      +316
//  343 	}
//  344 	return 1;
??java_list_callback_1:
        MOV      R0,#+1
        POP      {R4,R5,PC}       ;; return
        CFI EndBlock cfiBlock33
//  345 }

        RSEG CODE:CODE:NOROOT(2)
        CFI Block cfiBlock34 Using cfiCommon0
        CFI NoFunction
        THUMB
??CreateElem??rT:
        BX       PC
        Nop      
        CFI EndBlock cfiBlock34
        REQUIRE ??CreateElem
//  346 
//  347 

        RSEG CODE:CODE:NOROOT(2)
        CFI Block cfiBlock35 Using cfiCommon1
        CFI Function ??CreateElem
        ARM
//  348 java_list_elem* CreateElem( void* JavaDesc )
//  349 {
??CreateElem:
        PUSH     {R4,R5,LR}
        CFI ?RET Frame(CFA, -4)
        CFI R5 Frame(CFA, -8)
        CFI R4 Frame(CFA, -12)
        CFI CFA R13+12
        SUB      SP,SP,#+4
        CFI CFA R13+16
        MOV      R4,R0
//  350 	java_list_elem* elem = new java_list_elem;
        MOV      R0,#+16
        _BLF     `??operator new`,`??operator new??rA`
        MOV      R5,R0
//  351 	wchar_t* sp;
//  352 	JavaAppDesc_GetJavaAppInfo( JavaDesc, 0, &sp );
        MOV      R2,SP
        MOV      R1,#+0
        MOV      R0,R4
        SWI      +731
//  353 	elem->name = sp;
        LDR      R0,[SP, #+0]
//  354 	JavaAppDesc_GetJavaAppInfo( JavaDesc, 5, &sp );
        MOV      R2,SP
        STR      R0,[R5, #+0]
        MOV      R1,#+5
        MOV      R0,R4
        SWI      +731
//  355 	elem->fullpath = sp;
        LDR      R0,[SP, #+0]
//  356 	JavaAppDesc_GetJavaAppInfo( JavaDesc, 4, &sp );
        MOV      R2,SP
        STR      R0,[R5, #+4]
        MOV      R1,#+4
        MOV      R0,R4
        SWI      +731
//  357 	elem->hash_name = sp;
        LDR      R0,[SP, #+0]
        STR      R0,[R5, #+8]
//  358 	return elem;
        MOV      R0,R5
        POP      {R1,R4,R5,PC}    ;; return
        CFI EndBlock cfiBlock35
//  359 }

        RSEG CODE:CODE:NOROOT(2)
        CFI Block cfiBlock36 Using cfiCommon0
        CFI NoFunction
        THUMB
??CreateJavaList??rT:
        BX       PC
        Nop      
        CFI EndBlock cfiBlock36
        REQUIRE ??CreateJavaList
//  360 
//  361 

        RSEG CODE:CODE:NOROOT(2)
        CFI Block cfiBlock37 Using cfiCommon1
        CFI Function ??CreateJavaList
        ARM
//  362 int CreateJavaList( void* data, BOOK* book )
//  363 {
??CreateJavaList:
        PUSH     {R4,LR}
        CFI ?RET Frame(CFA, -4)
        CFI R4 Frame(CFA, -8)
        CFI CFA R13+8
        SUB      SP,SP,#+12
        CFI CFA R13+20
        MOV      R4,R1
//  364 	MyBOOK* mbk = (MyBOOK*) book;
//  365 
//  366 	if ( mbk->java_list )
        LDR      R0,[R4, #+68]
        CMP      R0,#+0
        BEQ      ??CreateJavaList_1
//  367 	{
//  368 		List_DestroyElements( mbk->java_list, elem_filter, elem_free );
        LDR      R2,??DataTable18  ;; ??elem_free
        LDR      R1,??DataTable19  ;; ??elem_filter
        SWI      +663
//  369 		List_Destroy( mbk->java_list );
        LDR      R0,[R4, #+68]
        SWI      +362
//  370 	}
//  371 
//  372 	mbk->java_list = List_Create();
??CreateJavaList_1:
        SWI      +361
        STR      R0,[R4, #+68]
//  373 	char sp1;
//  374 	wchar_t* sp;
//  375 	void* JavaDesc;
//  376 	JavaDialog_Open( 0, &sp1, &JavaDesc );
        MOV      R2,SP
        ADD      R1,SP,#+8
        MOV      R0,#+0
        SWI      +726
//  377 
//  378 	if ( !JavaAppDesc_GetFirstApp( JavaDesc ) )
        LDR      R0,[SP, #+0]
        SWI      +729
        CMP      R0,#+0
        BNE      ??CreateJavaList_2
//  379 	{
//  380 		int result = 0;
//  381 		while ( !result )
//  382 		{
//  383 			//check if semclet
//  384 			JavaAppDesc_GetJavaAppInfo( JavaDesc, 6, &sp );
??CreateJavaList_3:
        LDR      R0,[SP, #+0]
        ADD      R2,SP,#+4
        MOV      R1,#+6
        SWI      +731
//  385 			if (sp[0])
        LDR      R0,[SP, #+4]
        LDRH     R0,[R0, #+0]
        CMP      R0,#+0
        BEQ      ??CreateJavaList_4
//  386 			{
//  387 				List_InsertLast( mbk->java_list, CreateElem( JavaDesc ) );
        LDR      R0,[SP, #+0]
        BL       ??CreateElem
        MOV      R1,R0
        LDR      R0,[R4, #+68]
        SWI      +432
//  388 			}
//  389 			delete(sp);
??CreateJavaList_4:
        LDR      R0,[SP, #+4]
        _BLF     `??operator delete`,`??operator delete??rA`
//  390 			result = JavaAppDesc_GetNextApp( JavaDesc );
//  391 		}
        LDR      R0,[SP, #+0]
        SWI      +730
        CMP      R0,#+0
        BEQ      ??CreateJavaList_3
//  392 	}
//  393 
//  394 	JavaDialog_Close( sp1 );
??CreateJavaList_2:
        LDRB     R0,[SP, #+8]
        SWI      +727
//  395 
//  396 	if ( mbk->java_list_menu )
        LDR      R0,[R4, #+72]
        CMP      R0,#+0
        BEQ      ??CreateJavaList_5
//  397 		GUIObject_Destroy( mbk->java_list_menu );
        SWI      +462
//  398 
//  399 	mbk->java_list_menu = CreateListMenu( book, 0 );
??CreateJavaList_5:
        MOV      R1,#+0
        MOV      R0,R4
        SWI      +448
        STR      R0,[R4, #+72]
//  400 	GUIObject_SetTitleText( mbk->java_list_menu, STR( "Java" ) );
        LDR      R0,??CreateJavaList_6  ;; `?<Constant L"\\x42\\x75\\x74\\x74\\x6f\\x6e\\x73">` + 72
        MOV      R2,#+255
        ORR      R2,R2,#0xFF00
        MOV      R1,#+0
        SWI      +349
        MOV      R1,R0
        LDR      R0,[R4, #+72]
        SWI      +307
//  401 	ListMenu_SetItemCount( mbk->java_list_menu, mbk->java_list->FirstFree );
        LDR      R0,[R4, #+68]
        LDRH     R1,[R0, #+2]
        LDR      R0,[R4, #+72]
        SWI      +449
//  402 	ListMenu_SetOnMessage( mbk->java_list_menu, java_list_callback );
        LDR      R1,??CreateJavaList_6+0x4  ;; ??java_list_callback
        LDR      R0,[R4, #+72]
        SWI      +372
//  403 	ListMenu_SetCursorToItem( mbk->java_list_menu, 0 );
        LDR      R0,[R4, #+72]
        MOV      R1,#+0
        SWI      +309
//  404 	GUIObject_SoftKeys_SetAction( mbk->java_list_menu, ACTION_BACK, JavaList_Prev_Action );
        LDR      R0,??DataTable43  ;; ACTION_BACK
        LDR      R2,??CreateJavaList_6+0x8  ;; ??JavaList_Prev_Action
        LDR      R1,[R0, #+0]
        LDR      R0,[R4, #+72]
        MOV      R1,R1, LSL #+16
        MOV      R1,R1, LSR #+16
        SWI      +331
//  405 	GUIObject_SoftKeys_SetAction( mbk->java_list_menu, ACTION_LONG_BACK, JavaList_Cancel_Action );
        LDR      R0,??DataTable44  ;; ACTION_LONG_BACK
        LDR      R2,??CreateJavaList_6+0xC  ;; ??JavaList_Cancel_Action
        LDR      R1,[R0, #+0]
        LDR      R0,[R4, #+72]
        MOV      R1,R1, LSL #+16
        MOV      R1,R1, LSR #+16
        SWI      +331
//  406 	GUIObject_SoftKeys_SetAction( mbk->java_list_menu, ACTION_SELECT1, onEnter_JavaList );
        LDR      R0,??DataTable45  ;; ACTION_SELECT1
        LDR      R2,??CreateJavaList_6+0x10  ;; ??onEnter_JavaList
        LDR      R1,[R0, #+0]
        LDR      R0,[R4, #+72]
        MOV      R1,R1, LSL #+16
        MOV      R1,R1, LSR #+16
        SWI      +331
//  407 	GUIObject_Show( mbk->java_list_menu );
        LDR      R0,[R4, #+72]
        SWI      +308
//  408 	return 0;
        MOV      R0,#+0
        POP      {R1-R4,PC}       ;; return
        DATA
??CreateJavaList_6:
        DC32     `?<Constant L"\\x42\\x75\\x74\\x74\\x6f\\x6e\\x73">` + 72
        DC32     ??java_list_callback
        DC32     ??JavaList_Prev_Action
        DC32     ??JavaList_Cancel_Action
        DC32     ??onEnter_JavaList
        CFI EndBlock cfiBlock37
//  409 }

        RSEG CODE:CODE:NOROOT(2)
        DATA
??DataTable18:
        DC32     ??elem_free

        RSEG CODE:CODE:NOROOT(2)
        DATA
??DataTable19:
        DC32     ??elem_filter

        RSEG CODE:CODE:NOROOT(2)
        CFI Block cfiBlock38 Using cfiCommon0
        CFI NoFunction
        THUMB
??But_SetJava??rT:
        BX       PC
        Nop      
        CFI EndBlock cfiBlock38
        REQUIRE ??But_SetJava
//  410 
//  411 

        RSEG CODE:CODE:NOROOT(2)
        CFI Block cfiBlock39 Using cfiCommon1
        CFI Function ??But_SetJava
        ARM
//  412 void But_SetJava( BOOK* book, GUI* )
//  413 {
//  414 	BookObj_CallPage( book, &ChangeShortcuts_SetJava_page );
??But_SetJava:
        LDR      R1,??But_SetJava_1  ;; ChangeShortcuts_SetJava_page
        PUSH     {LR}
        CFI ?RET Frame(CFA, -4)
        CFI CFA R13+4
        SWI      +696
//  415 }
        POP      {PC}             ;; return
        DATA
??But_SetJava_1:
        DC32     ChangeShortcuts_SetJava_page
        CFI EndBlock cfiBlock39

        RSEG CODE:CODE:NOROOT(2)
        CFI Block cfiBlock40 Using cfiCommon0
        CFI NoFunction
        THUMB
??DestroyButList??rT:
        BX       PC
        Nop      
        CFI EndBlock cfiBlock40
        REQUIRE ??DestroyButList
//  416 
//  417 

        RSEG CODE:CODE:NOROOT(2)
        CFI Block cfiBlock41 Using cfiCommon1
        CFI Function ??DestroyButList
        ARM
//  418 void DestroyButList( BOOK* book, GUI* )
//  419 {
//  420 	BookObj_ReturnPage( book, PREVIOUS_EVENT );
??DestroyButList:
        LDR      R1,??DestroyButList_1  ;; PREVIOUS_EVENT
        PUSH     {LR}
        CFI ?RET Frame(CFA, -4)
        CFI CFA R13+4
        LDR      R1,[R1, #+0]
        SWI      +302
//  421 }
        POP      {PC}             ;; return
        DATA
??DestroyButList_1:
        DC32     PREVIOUS_EVENT
        CFI EndBlock cfiBlock41

        RSEG CODE:CODE:NOROOT(2)
        CFI Block cfiBlock42 Using cfiCommon0
        CFI NoFunction
        THUMB
??SHORTCUT_DESC_Init??rT:
        BX       PC
        Nop      
        CFI EndBlock cfiBlock42
        REQUIRE ??SHORTCUT_DESC_Init
//  422 
//  423 

        RSEG CODE:CODE:NOROOT(2)
        CFI Block cfiBlock43 Using cfiCommon1
        CFI Function ??SHORTCUT_DESC_Init
        ARM
//  424 void * SHORTCUT_DESC_Init(char * param)
//  425 {
??SHORTCUT_DESC_Init:
        PUSH     {R4,R5,LR}
        CFI ?RET Frame(CFA, -4)
        CFI R5 Frame(CFA, -8)
        CFI R4 Frame(CFA, -12)
        CFI CFA R13+12
        SUB      SP,SP,#+52
        CFI CFA R13+64
        MOV      R4,R0
//  426 	SHORTCUT_DESC * w_buf = new SHORTCUT_DESC;
        MOV      R0,#+104
        _BLF     `??operator new`,`??operator new??rA`
        MOV      R5,R0
//  427 	memset( w_buf, 0, sizeof(w_buf) );
        MOV      R2,#+4
        MOV      R1,#+0
        SWI      +274
//  428 	w_buf->shortcut_state = SC_State_Activated;
        MOV      R0,#+2
        STRH     R0,[R5, #+100]
//  429 
//  430 	if ( strlen( param ) < 0x32 )
        MOV      R0,R4
        SWI      +346
        CMP      R0,#+50
//  431 	{
//  432 		str2wstr( w_buf->name, param );
        MOVLT    R1,R4
        BLT      ??SHORTCUT_DESC_Init_1
//  433 	}
//  434 	else
//  435 	{
//  436 		char temp_buf[0x32];
//  437 		strncpy( temp_buf, param, MAXELEMS(temp_buf) - 1 );
        MOV      R2,#+49
        MOV      R1,R4
        MOV      R0,SP
        SWI      +639
//  438 		temp_buf[ MAXELEMS(temp_buf) - 1 ] = 0;
        MOV      R1,#+0
        STRB     R1,[SP, #+49]
//  439 		str2wstr( w_buf->name, temp_buf );
        MOV      R1,SP
??SHORTCUT_DESC_Init_1:
        MOV      R0,R5
        SWI      +344
//  440 	}
//  441 	if (!wstrcmp(w_buf->name,L"MainMenu")) w_buf->shortcut_state = SC_State_MainMenu;
        LDR      R1,??DataTable28  ;; `?<Constant L"\\x4d\\x61\\x69\\x6e\\x4d\\x65\\x6e\\x75"`
        MOV      R0,R5
        SWI      +342
        CMP      R0,#+0
        MOVEQ    R0,#+3
        STRHEQ   R0,[R5, #+100]
//  442 	return(w_buf);
        MOV      R0,R5
        ADD      SP,SP,#+52
        CFI CFA R13+12
        POP      {R4,R5,PC}       ;; return
        CFI EndBlock cfiBlock43
//  443 }

        RSEG CODE:CODE:NOROOT(2)
        CFI Block cfiBlock44 Using cfiCommon0
        CFI NoFunction
        THUMB
??SHORTCUT_DESC_A2_Init??rT:
        BX       PC
        Nop      
        CFI EndBlock cfiBlock44
        REQUIRE ??SHORTCUT_DESC_A2_Init
//  444 
//  445 

        RSEG CODE:CODE:NOROOT(2)
        CFI Block cfiBlock45 Using cfiCommon1
        CFI Function ??SHORTCUT_DESC_A2_Init
        ARM
//  446 void * SHORTCUT_DESC_A2_Init(char * param)
//  447 {
??SHORTCUT_DESC_A2_Init:
        PUSH     {R4,R5,LR}
        CFI ?RET Frame(CFA, -4)
        CFI R5 Frame(CFA, -8)
        CFI R4 Frame(CFA, -12)
        CFI CFA R13+12
        MOV      R4,R0
//  448 	SHORTCUT_DESC_A2 * w_buf = new SHORTCUT_DESC_A2;
        MOV      R0,#+184
        ORR      R0,R0,#0x400
        _BLF     `??operator new`,`??operator new??rA`
        MOV      R5,R0
//  449 	memset( w_buf, 0, sizeof(w_buf) );
        MOV      R2,#+4
        MOV      R1,#+0
        SWI      +274
//  450 	str2wstr( w_buf->name, param );
        MOV      R1,R4
        MOV      R0,R5
        SWI      +344
//  451 	if (!wstrcmp(w_buf->name,L"MainMenu")) w_buf->item_type = SC_Type_MainMenu;
        LDR      R1,??DataTable28  ;; `?<Constant L"\\x4d\\x61\\x69\\x6e\\x4d\\x65\\x6e\\x75"`
        MOV      R0,R5
        SWI      +342
        CMP      R0,#+0
        MOVEQ    R0,#+2
//  452 	else w_buf->item_type = SC_Type_Standard;
        MOVNE    R0,#+0
        STRB     R0,[R5, #+1204]
//  453 
//  454 	return(w_buf);
        MOV      R0,R5
        POP      {R4,R5,PC}       ;; return
        CFI EndBlock cfiBlock45
//  455 }

        RSEG CODE:CODE:NOROOT(2)
        CFI Block cfiBlock46 Using cfiCommon0
        CFI NoFunction
        THUMB
??GetShortcutName??rT:
        BX       PC
        Nop      
        CFI EndBlock cfiBlock46
        REQUIRE ??GetShortcutName
//  456 

        RSEG CODE:CODE:NOROOT(2)
        CFI Block cfiBlock47 Using cfiCommon1
        CFI Function ??GetShortcutName
        ARM
//  457 int GetShortcutName(MyBOOK * mbk,int item_num,SC_DATA * scdata)
//  458 {
??GetShortcutName:
        PUSH     {R4-R8,LR}
        CFI ?RET Frame(CFA, -4)
        CFI R8 Frame(CFA, -8)
        CFI R7 Frame(CFA, -12)
        CFI R6 Frame(CFA, -16)
        CFI R5 Frame(CFA, -20)
        CFI R4 Frame(CFA, -24)
        CFI CFA R13+24
        SUB      SP,SP,#+12
        CFI CFA R13+36
//  459 	char* param = 0;
//  460 	char mask_buf[10];
//  461 
//  462 	if ( !ListMenu_GetSelectedItem( mbk->mode_list ) )
        LDR      R5,??DataTable33  ;; `?<Constant "[L_KEY%d]">`
        MOV      R6,R0
        LDR      R0,[R6, #+84]
        MOV      R7,R1
        MOV      R4,R2
        SWI      +318
        CMP      R0,#+0
        LDRH     R0,[R6, #+140]
        BNE      ??GetShortcutName_1
//  463 	{
//  464 		if ( mbk->ActiveTAB==BOOKLIST || ShortcutsMode )
        CMP      R0,#+0
        BEQ      ??GetShortcutName_2
        LDR      R0,??DataTable34  ;; ShortcutsMode
        LDR      R0,[R0, #+0]
        CMP      R0,#+0
        BEQ      ??GetShortcutName_3
//  465 			sprintf( mask_buf, "[S_KEY%d]", item_num );
??GetShortcutName_2:
        MOV      R2,R7
        ADD      R1,R5,#+172
        B        ??GetShortcutName_4
//  466 		else
//  467 			sprintf( mask_buf, "[ES_KEY%d]", item_num );
??GetShortcutName_3:
        MOV      R2,R7
        ADD      R1,R5,#+184
        B        ??GetShortcutName_4
//  468 	}
//  469 	else
//  470 	{
//  471 		if ( mbk->ActiveTAB==BOOKLIST || ShortcutsMode )
??GetShortcutName_1:
        CMP      R0,#+0
        BEQ      ??GetShortcutName_5
        LDR      R0,??DataTable34  ;; ShortcutsMode
        LDR      R0,[R0, #+0]
        CMP      R0,#+0
        BEQ      ??GetShortcutName_6
//  472 			sprintf( mask_buf, "[L_KEY%d]", item_num );
??GetShortcutName_5:
        MOV      R2,R7
        MOV      R1,R5
        B        ??GetShortcutName_4
//  473 		else
//  474 			sprintf( mask_buf, "[EL_KEY%d]", item_num );
??GetShortcutName_6:
        MOV      R2,R7
        ADD      R1,R5,#+196
??GetShortcutName_4:
        MOV      R0,SP
        SWI      +276
//  475 	}
//  476 
//  477 	param = manifest_GetParam( mbk->shortcuts_buf, mask_buf, 0);
        LDR      R0,[R6, #+36]
        MOV      R2,#+0
        MOV      R1,SP
        SWI      +373
        MOVS     R7,R0
//  478 
//  479 	if ( param )
        MOV      R8,#+255
        ORR      R8,R8,#0xFF00
        BEQ      ??GetShortcutName_7
//  480 	{
//  481 		if ( strlen( param ) )
        SWI      +346
        CMP      R0,#+0
        BEQ      ??GetShortcutName_8
//  482 		{
//  483 			if (!scdata)
        CMP      R4,#+0
        BNE      ??GetShortcutName_9
//  484 			{
//  485 				delete(param);
        MOV      R0,R7
        _BLF     `??operator delete`,`??operator delete??rA`
//  486 				return (1);
        MOV      R0,#+1
        POP      {R1-R8,PC}       ;; return
//  487 			}
//  488 			if ( strstr( param, "java:" ) )
??GetShortcutName_9:
        ADD      R1,R5,#+100
        MOV      R0,R7
        SWI      +664
        CMP      R0,#+0
        BEQ      ??GetShortcutName_10
//  489 			{
//  490 				scdata->str_id = TextID_Create( param + 5, ENC_LAT1, strstr( param, "//" ) - ( param + 5 ) );
        ADR      R1,??GetShortcutName_11  ;; "//"
        MOV      R0,R7
        SWI      +664
        ADD      R1,R7,#+5
        SUB      R2,R0,R1
        MOV      R1,#+6
        ADD      R0,R7,#+5
        SWI      +349
        STR      R0,[R4, #+0]
//  491 				iconidname2id( L"DB_LIST_JAVA_ICN", TEXTID_ANY_LEN, &scdata->icon_id );
        ADD      R2,R4,#+4
        MOV      R1,R8
        ADD      R0,R5,#+12
        SWI      +646
        B        ??GetShortcutName_8
//  492 			}
//  493 			else
//  494 			{
//  495 				void * w_buf;
//  496 				if (mbk->isA2) w_buf = SHORTCUT_DESC_A2_Init(param);
??GetShortcutName_10:
        LDR      R0,[R6, #+144]
        CMP      R0,#+0
        MOV      R0,R7
        BEQ      ??GetShortcutName_12
        BL       ??SHORTCUT_DESC_A2_Init
        B        ??GetShortcutName_13
//  497 				else w_buf = SHORTCUT_DESC_Init(param);
??GetShortcutName_12:
        BL       ??SHORTCUT_DESC_Init
??GetShortcutName_13:
        MOV      R6,R0
//  498 
//  499 				scdata->str_id = Shortcut_Get_MenuItemName( w_buf );
        SWI      +737
        STR      R0,[R4, #+0]
//  500 				scdata->icon_id = Shortcut_Get_MenuItemIconID( w_buf );
        MOV      R0,R6
        SWI      +738
        STR      R0,[R4, #+4]
//  501 
//  502 				if ( scdata->icon_id == NOIMAGE ) iconidname2id( L"RN_VERT_MY_SHORTCUTS_ICN", TEXTID_ANY_LEN, &scdata->icon_id );
        CMP      R0,R8
        BNE      ??GetShortcutName_14
        ADD      R2,R4,#+4
        MOV      R1,R8
        ADD      R0,R5,#+48
        SWI      +646
//  503 
//  504 				delete( w_buf );
??GetShortcutName_14:
        MOV      R0,R6
        _BLF     `??operator delete`,`??operator delete??rA`
//  505 
//  506 				if ( scdata->str_id == EMPTY_TEXTID ) scdata->str_id = TextID_Create( param, ENC_LAT1, TEXTID_ANY_LEN );
        LDR      R0,[R4, #+0]
        MVN      R1,#-1879048192
        CMP      R0,R1
        BNE      ??GetShortcutName_8
        MOV      R2,R8
        MOV      R1,#+6
        MOV      R0,R7
        SWI      +349
        STR      R0,[R4, #+0]
//  507 			}
//  508 		}
//  509 		delete(param);
??GetShortcutName_8:
        MOV      R0,R7
        _BLF     `??operator delete`,`??operator delete??rA`
        B        ??GetShortcutName_15
//  510 	}
//  511 	else
//  512 	{
//  513 		if (!scdata) return(0);
??GetShortcutName_7:
        CMP      R4,#+0
        MOVEQ    R0,#+0
        POPEQ    {R1-R8,PC}
//  514 		textidname2id( L"SHC_NONE_NAME_TXT", TEXTID_ANY_LEN, &scdata->str_id );
        MOV      R2,R4
        MOV      R1,R8
        ADD      R0,R5,#+108
        SWI      +647
??GetShortcutName_15:
        MOV      R0,#+0
        POP      {R1-R8,PC}
        DATA
??GetShortcutName_11:
        DC8      "//",+0
        CFI EndBlock cfiBlock47
//  515 	}
//  516 	return(0);
//  517 }

        RSEG CODE:CODE:NOROOT(2)
        CFI Block cfiBlock48 Using cfiCommon0
        CFI NoFunction
        THUMB
??but_list_callback??rT:
        BX       PC
        Nop      
        CFI EndBlock cfiBlock48
        REQUIRE ??but_list_callback
//  518 

        RSEG CODE:CODE:NOROOT(2)
        CFI Block cfiBlock49 Using cfiCommon1
        CFI Function ??but_list_callback
        ARM
//  519 int but_list_callback( GUI_MESSAGE* msg )
//  520 {
??but_list_callback:
        PUSH     {R4-R6,LR}
        CFI ?RET Frame(CFA, -4)
        CFI R6 Frame(CFA, -8)
        CFI R5 Frame(CFA, -12)
        CFI R4 Frame(CFA, -16)
        CFI CFA R13+16
        SUB      SP,SP,#+8
        CFI CFA R13+24
        MOV      R4,R0
//  521 	SC_DATA scdata;
//  522 	scdata.str_id = EMPTY_TEXTID;
        MVN      R1,#-1879048192
        STR      R1,[SP, #+0]
//  523 	scdata.icon_id = NOIMAGE;
        MOV      R1,#+255
        ORR      R1,R1,#0xFF00
        STR      R1,[SP, #+4]
//  524 	int item_num;
//  525 	MyBOOK * mbk = (MyBOOK*) GUIonMessage_GetBook( msg );
        SWI      +885
        MOV      R5,R0
//  526 
//  527 	switch( GUIonMessage_GetMsg( msg ) )
        MOV      R0,R4
        SWI      +884
        CMP      R0,#+1
        BNE      ??but_list_callback_1
//  528 	{
//  529 	case LISTMSG_GetItem:
//  530 		item_num = GUIonMessage_GetCreatedItemIndex( msg );
        MOV      R0,R4
        SWI      +311
        MOV      R6,R0
//  531 
//  532 		GetShortcutName(mbk,item_num,&scdata);
        MOV      R2,SP
        MOV      R1,R6
        MOV      R0,R5
        BL       ??GetShortcutName
//  533 
//  534 		GUIonMessage_SetMenuItemText( msg, scdata.str_id );
        LDR      R1,[SP, #+0]
        MOV      R0,R4
        SWI      +312
//  535 		GUIonMessage_SetMenuItemIcon(msg, 0, mbk->digs_image[item_num].ImageID );
        ADD      R0,R5,R6, LSL #+1
        LDRH     R2,[R0, #+108]
        MOV      R1,#+0
        MOV      R0,R4
        SWI      +316
//  536 		GUIonMessage_SetMenuItemIcon(msg, 2, scdata.icon_id );
        LDR      R2,[SP, #+4]
        MOV      R1,#+2
        MOV      R2,R2, LSL #+16
        MOV      R2,R2, LSR #+16
        MOV      R0,R4
        SWI      +316
//  537 		break;
//  538 	}
//  539 
//  540 	return 1;
??but_list_callback_1:
        MOV      R0,#+1
        POP      {R1,R2,R4-R6,PC}  ;; return
        CFI EndBlock cfiBlock49
//  541 }

        RSEG CODE:CODE:NOROOT(2)
        CFI Block cfiBlock50 Using cfiCommon0
        CFI NoFunction
        THUMB
??But_SetMM??rT:
        BX       PC
        Nop      
        CFI EndBlock cfiBlock50
        REQUIRE ??But_SetMM
//  542 
//  543 

        RSEG CODE:CODE:NOROOT(2)
        CFI Block cfiBlock51 Using cfiCommon1
        CFI Function ??But_SetMM
        ARM
//  544 void But_SetMM( BOOK* book, GUI* )
//  545 {
//  546 	wchar_t name_buf[20];
//  547 	wstrcpy( name_buf, L"MainMenu" );
??But_SetMM:
        LDR      R1,??DataTable28  ;; `?<Constant L"\\x4d\\x61\\x69\\x6e\\x4d\\x65\\x6e\\x75"`
        PUSH     {R4,LR}
        CFI ?RET Frame(CFA, -4)
        CFI R4 Frame(CFA, -8)
        CFI CFA R13+8
        SUB      SP,SP,#+40
        CFI CFA R13+48
        MOV      R4,R0
        MOV      R0,SP
        SWI      +338
//  548 	WriteShortcut( name_buf );
        MOV      R0,SP
        BL       ??WriteShortcut
//  549 	CreateButtonList( 0, book );
        MOV      R1,R4
        MOV      R0,#+0
        BL       ??CreateButtonList
//  550 }
        ADD      SP,SP,#+40
        CFI CFA R13+8
        POP      {R4,PC}          ;; return
        CFI EndBlock cfiBlock51

        RSEG CODE:CODE:NOROOT(2)
        DATA
??DataTable28:
        DC32     `?<Constant L"\\x4d\\x61\\x69\\x6e\\x4d\\x65\\x6e\\x75"`

        RSEG CODE:CODE:NOROOT(2)
        CFI Block cfiBlock52 Using cfiCommon0
        CFI NoFunction
        THUMB
??But_SetElf??rT:
        BX       PC
        Nop      
        CFI EndBlock cfiBlock52
        REQUIRE ??But_SetElf
//  551 
//  552 

        RSEG CODE:CODE:NOROOT(2)
        CFI Block cfiBlock53 Using cfiCommon1
        CFI Function ??But_SetElf
        ARM
//  553 void But_SetElf( BOOK* book, GUI* )
//  554 {
//  555 	BookObj_CallPage( book, &SelectElf_page );
??But_SetElf:
        LDR      R1,??DataTable30  ;; SelectElf_page
        PUSH     {LR}
        CFI ?RET Frame(CFA, -4)
        CFI CFA R13+4
        SWI      +696
//  556 }
        POP      {PC}             ;; return
        CFI EndBlock cfiBlock53

        RSEG CODE:CODE:NOROOT(2)
        CFI Block cfiBlock54 Using cfiCommon0
        CFI NoFunction
        THUMB
??But_onEnter??rT:
        BX       PC
        Nop      
        CFI EndBlock cfiBlock54
        REQUIRE ??But_onEnter
//  557 
//  558 

        RSEG CODE:CODE:NOROOT(2)
        CFI Block cfiBlock55 Using cfiCommon1
        CFI Function ??But_onEnter
        ARM
//  559 void But_onEnter( BOOK* book, GUI* )
//  560 {
//  561 	MyBOOK* mbk = (MyBOOK*) book;
//  562 
//  563 	if ( mbk->ActiveTAB==BOOKLIST || ShortcutsMode )
??But_onEnter:
        LDR      R1,??DataTable30  ;; SelectElf_page
        PUSH     {LR}
        CFI ?RET Frame(CFA, -4)
        CFI CFA R13+4
        LDRH     R2,[R0, #+140]
        CMP      R2,#+0
        BEQ      ??But_onEnter_1
        LDR      R2,??DataTable34  ;; ShortcutsMode
        LDR      R2,[R2, #+0]
        CMP      R2,#+0
        BEQ      ??But_onEnter_2
//  564 		BookObj_CallPage( book, &SelectShortcut_page );
??But_onEnter_1:
        ADD      R1,R1,#+12
//  565 	else
//  566 		BookObj_CallPage( book, &SelectElf_page );
??But_onEnter_2:
        SWI      +696
//  567 }
        POP      {PC}             ;; return
        CFI EndBlock cfiBlock55

        RSEG CODE:CODE:NOROOT(2)
        DATA
??DataTable30:
        DC32     SelectElf_page

        RSEG CODE:CODE:NOROOT(2)
        CFI Block cfiBlock56 Using cfiCommon0
        CFI NoFunction
        THUMB
??ExitButtonList??rT:
        BX       PC
        Nop      
        CFI EndBlock cfiBlock56
        REQUIRE ??ExitButtonList
//  568 
//  569 

        RSEG CODE:CODE:NOROOT(2)
        CFI Block cfiBlock57 Using cfiCommon1
        CFI Function ??ExitButtonList
        ARM
//  570 int ExitButtonList( void* data, BOOK* book )
//  571 {
??ExitButtonList:
        PUSH     {R4,LR}
        CFI ?RET Frame(CFA, -4)
        CFI R4 Frame(CFA, -8)
        CFI CFA R13+8
        MOV      R4,R1
//  572 	MyBOOK* mbk = (MyBOOK*) book;
//  573 	if ( mbk->but_list )
        LDR      R0,[R4, #+88]
        CMP      R0,#+0
        POPEQ    {R4,PC}
//  574 	{
//  575 		GUIObject_Destroy( mbk->but_list );
        SWI      +462
//  576 		mbk->but_list = 0;
        MOV      R0,#+0
        STR      R0,[R4, #+88]
//  577 	}
//  578 	return 0;
        POP      {R4,PC}          ;; return
        CFI EndBlock cfiBlock57
//  579 }

        RSEG CODE:CODE:NOROOT(2)
        CFI Block cfiBlock58 Using cfiCommon0
        CFI NoFunction
        THUMB
??CancelButtonList??rT:
        BX       PC
        Nop      
        CFI EndBlock cfiBlock58
        REQUIRE ??CancelButtonList
//  580 
//  581 

        RSEG CODE:CODE:NOROOT(2)
        CFI Block cfiBlock59 Using cfiCommon1
        CFI Function ??CancelButtonList
        ARM
//  582 void CancelButtonList( BOOK* book, GUI* )
//  583 {
//  584 	BookObj_ReturnPage( book, CANCEL_EVENT );
??CancelButtonList:
        LDR      R1,??DataTable40  ;; CANCEL_EVENT
        PUSH     {LR}
        CFI ?RET Frame(CFA, -4)
        CFI CFA R13+4
        LDR      R1,[R1, #+0]
        SWI      +302
//  585 }
        POP      {PC}             ;; return
        CFI EndBlock cfiBlock59

        RSEG CODE:CODE:NOROOT(2)
        CFI Block cfiBlock60 Using cfiCommon0
        CFI NoFunction
        THUMB
??DeleteShortcut??rT:
        BX       PC
        Nop      
        CFI EndBlock cfiBlock60
        REQUIRE ??DeleteShortcut
//  586 
//  587 

        RSEG CODE:CODE:NOROOT(2)
        CFI Block cfiBlock61 Using cfiCommon1
        CFI Function ??DeleteShortcut
        ARM
//  588 int DeleteShortcut( MyBOOK * mbk, char * mask_buf, int f )
//  589 {
??DeleteShortcut:
        PUSH     {R4-R9,LR}
        CFI ?RET Frame(CFA, -4)
        CFI R9 Frame(CFA, -8)
        CFI R8 Frame(CFA, -12)
        CFI R7 Frame(CFA, -16)
        CFI R6 Frame(CFA, -20)
        CFI R5 Frame(CFA, -24)
        CFI R4 Frame(CFA, -28)
        CFI CFA R13+28
        MOV      R4,R0
//  590 	char* pos;
//  591 	char* param = 0;
//  592 	int res = 0;
//  593 
//  594 	if ( mbk->shortcuts_buf )
        LDR      R0,[R4, #+36]
        MOV      R9,R1
        MOV      R5,R2
        MOV      R8,#+0
        CMP      R0,#+0
        BEQ      ??DeleteShortcut_1
//  595 	{
//  596 		param = manifest_GetParam( mbk->shortcuts_buf, mask_buf, 0 );
        MOV      R2,#+0
        SWI      +373
        MOVS     R6,R0
//  597 		if ( param )
        BEQ      ??DeleteShortcut_1
//  598 		{
//  599 			int len_minus = strlen( param );
        SWI      +346
        MOV      R7,R0
//  600 			if ( len_minus > 0 )
        CMP      R7,#+1
        BLT      ??DeleteShortcut_2
//  601 			{
//  602 				pos = strstr( mbk->shortcuts_buf, mask_buf );
        LDR      R0,[R4, #+36]
        MOV      R1,R9
        SWI      +664
        MOV      R8,R0
//  603 				int len_prefix = strlen(mask_buf)+1;
        MOV      R0,R9
        SWI      +346
//  604 				fwrite( f, mbk->shortcuts_buf, pos - mbk->shortcuts_buf + len_prefix );
        LDR      R1,[R4, #+36]
        ADD      R9,R0,#+1
        SUB      R0,R8,R1
        ADD      R2,R9,R0
        MOV      R0,R5
        SWI      +281
//  605 				fwrite( f, pos + len_prefix + len_minus, mbk->shortcuts_buf_size - ( pos - mbk->shortcuts_buf + len_prefix ) - len_minus );
        LDR      R0,[R4, #+40]
        LDR      R1,[R4, #+36]
        SUB      R1,R8,R1
        SUB      R0,R0,R1
        SUB      R0,R0,R9
        SUB      R2,R0,R7
        ADD      R0,R9,R8
        ADD      R1,R7,R0
        MOV      R0,R5
        SWI      +281
//  606 				res = 1;
        MOV      R8,#+1
//  607 			}
//  608 
//  609 			delete( param );
??DeleteShortcut_2:
        MOV      R0,R6
        _BLF     `??operator delete`,`??operator delete??rA`
//  610 		}
//  611 	}
//  612 	return res;
??DeleteShortcut_1:
        MOV      R0,R8
        POP      {R4-R9,PC}       ;; return
        CFI EndBlock cfiBlock61
//  613 }

        RSEG CODE:CODE:NOROOT(2)
        CFI Block cfiBlock62 Using cfiCommon0
        CFI NoFunction
        THUMB
??But_onDelete??rT:
        BX       PC
        Nop      
        CFI EndBlock cfiBlock62
        REQUIRE ??But_onDelete
//  614 

        RSEG CODE:CODE:NOROOT(2)
        CFI Block cfiBlock63 Using cfiCommon1
        CFI Function ??But_onDelete
        ARM
//  615 void But_onDelete( BOOK* book, GUI* )
//  616 {
??But_onDelete:
        PUSH     {R4-R9,LR}
        CFI ?RET Frame(CFA, -4)
        CFI R9 Frame(CFA, -8)
        CFI R8 Frame(CFA, -12)
        CFI R7 Frame(CFA, -16)
        CFI R6 Frame(CFA, -20)
        CFI R5 Frame(CFA, -24)
        CFI R4 Frame(CFA, -28)
        CFI CFA R13+28
        SUB      SP,SP,#+12
        CFI CFA R13+40
        MOV      R4,R0
//  617 	MyBOOK* mbk = (MyBOOK*) book;
//  618 	int f;
//  619 	int res;
//  620 	int dig_num = ListMenu_GetSelectedItem( mbk->but_list );
        LDR      R0,[R4, #+88]
        SWI      +318
        MOV      R6,R0
//  621 	if (!GetShortcutName(mbk,dig_num,0)) return;
        MOV      R2,#+0
        MOV      R1,R6
        MOV      R0,R4
        BL       ??GetShortcutName
        CMP      R0,#+0
        POPEQ    {R0-R2,R4-R9,PC}
//  622 
//  623 	wchar_t* path = get_path();
//  624 	if ( ( f = _fopen( path, INI_SHORTCUTS, FSX_O_RDWR|FSX_O_TRUNC, FSX_S_IREAD|FSX_S_IWRITE, 0 ) ) >= 0 )
        LDR      R7,??DataTable33  ;; `?<Constant "[L_KEY%d]">`
        _BLF     ??get_path,??get_path??rA
        MOV      R5,R0
        MOV      R0,#+0
        PUSH     {R0}
        CFI CFA R13+44
        MOV      R3,#+384
        MOV      R2,#+516
        ADD      R1,R7,#+144
        MOV      R0,R5
        SWI      +278
        MOVS     R8,R0
        ADD      SP,SP,#+4
        CFI CFA R13+40
        BMI      ??But_onDelete_1
//  625 	{
//  626 		char mask_buf[10];
//  627 
//  628 		if ( !ListMenu_GetSelectedItem( mbk->mode_list ) )
        LDR      R0,??DataTable34  ;; ShortcutsMode
        LDR      R9,[R0, #+0]
        LDR      R0,[R4, #+84]
        SWI      +318
        CMP      R0,#+0
        LDRH     R0,[R4, #+140]
        BNE      ??But_onDelete_2
//  629 		{
//  630 			if ( mbk->ActiveTAB==BOOKLIST || ShortcutsMode )
        CMP      R0,#+0
        BEQ      ??But_onDelete_3
        CMP      R9,#+0
        BEQ      ??But_onDelete_4
//  631 				sprintf( mask_buf, "[S_KEY%d]", dig_num );
??But_onDelete_3:
        MOV      R2,R6
        ADD      R1,R7,#+172
        B        ??But_onDelete_5
//  632 			else
//  633 				sprintf( mask_buf, "[ES_KEY%d]", dig_num );
??But_onDelete_4:
        MOV      R2,R6
        ADD      R1,R7,#+184
??But_onDelete_5:
        MOV      R0,SP
        SWI      +276
//  634 
//  635 			res = DeleteShortcut( mbk, mask_buf, f );
        MOV      R2,R8
        MOV      R1,SP
        MOV      R0,R4
        BL       ??DeleteShortcut
        MOV      R6,R0
//  636 		}
//  637 		else
//  638 		{
//  639 			if ( mbk->ActiveTAB==BOOKLIST || ShortcutsMode )
//  640 				sprintf( mask_buf, "[L_KEY%d]", dig_num );
//  641 			else
//  642 				sprintf( mask_buf, "[EL_KEY%d]", dig_num );
//  643 
//  644 			res = DeleteShortcut( mbk, mask_buf, f );
//  645 		}
//  646 
//  647 		fclose( f );
        MOV      R0,R8
        SWI      +279
//  648 
//  649 		if ( res )
        CMP      R6,#+0
        BEQ      ??But_onDelete_1
//  650 		{
//  651 			LoadShortcuts(mbk);
        MOV      R0,R4
        _BLF     ??LoadShortcuts,??LoadShortcuts??rA
//  652 			CreateButtonList( 0, book );
        MOV      R1,R4
        MOV      R0,#+0
        BL       ??CreateButtonList
//  653 		}
//  654 	}
//  655 
//  656 	delete( path );
??But_onDelete_1:
        MOV      R0,R5
        _BLF     `??operator delete`,`??operator delete??rA`
//  657 }
        POP      {R0-R2,R4-R9,PC}  ;; return
??But_onDelete_2:
        CMP      R0,#+0
        BEQ      ??But_onDelete_6
        CMP      R9,#+0
        BEQ      ??But_onDelete_7
??But_onDelete_6:
        MOV      R2,R6
        MOV      R1,R7
        B        ??But_onDelete_5
??But_onDelete_7:
        MOV      R2,R6
        ADD      R1,R7,#+196
        B        ??But_onDelete_5
        CFI EndBlock cfiBlock63

        RSEG CODE:CODE:NOROOT(2)
        DATA
??DataTable33:
        DC32     `?<Constant "[L_KEY%d]">`

        RSEG CODE:CODE:NOROOT(2)
        DATA
??DataTable34:
        DC32     ShortcutsMode

        RSEG CODE:CODE:NOROOT(2)
        CFI Block cfiBlock64 Using cfiCommon0
        CFI NoFunction
        THUMB
??CreateButtonList??rT:
        BX       PC
        Nop      
        CFI EndBlock cfiBlock64
        REQUIRE ??CreateButtonList
//  658 
//  659 

        RSEG CODE:CODE:NOROOT(2)
        CFI Block cfiBlock65 Using cfiCommon1
        CFI Function ??CreateButtonList
        ARM
//  660 int CreateButtonList( void* data, BOOK* book )
//  661 {
??CreateButtonList:
        PUSH     {R4-R7,LR}
        CFI ?RET Frame(CFA, -4)
        CFI R7 Frame(CFA, -8)
        CFI R6 Frame(CFA, -12)
        CFI R5 Frame(CFA, -16)
        CFI R4 Frame(CFA, -20)
        CFI CFA R13+20
        SUB      SP,SP,#+4
        CFI CFA R13+24
        MOV      R4,R1
//  662 	MyBOOK* mbk = (MyBOOK*) book;
//  663 	int str_id;
//  664 
//  665 	int but_pos = 0;
//  666 
//  667 	if ( mbk->but_list )
        LDR      R0,[R4, #+88]
        CMP      R0,#+0
        BEQ      ??CreateButtonList_1
//  668 	{
//  669 		but_pos = ListMenu_GetSelectedItem( mbk->but_list );
        SWI      +318
        MOV      R5,R0
//  670 		ListMenu_DestroyItems(mbk->but_list);
        LDR      R0,[R4, #+88]
        SWI      +955
//  671 		ListMenu_SetItemCount( mbk->but_list, 10 );
        LDR      R0,[R4, #+88]
        MOV      R1,#+10
        SWI      +449
//  672 		ListMenu_SetCursorToItem( mbk->but_list, but_pos );
        LDR      R0,[R4, #+88]
        MOV      R1,R5
        SWI      +309
//  673 		GUIObject_SoftKeys_SetVisible(mbk->but_list, ACTION_SELECT1, 1);
        LDR      R0,??DataTable45  ;; ACTION_SELECT1
        MOV      R2,#+1
        LDR      R1,[R0, #+0]
        LDR      R0,[R4, #+88]
        MOV      R1,R1, LSL #+16
        MOV      R1,R1, LSR #+16
        SWI      +336
//  674 		return 0;
        MOV      R0,#+0
        POP      {R1,R4-R7,PC}
//  675 	}
//  676 	mbk->but_list = CreateListMenu( book, 0 );
//  677 	GUIObject_SetTitleText( mbk->but_list, STR( "Buttons" ) );
??CreateButtonList_1:
        LDR      R5,??CreateButtonList_2  ;; `?<Constant L"\\x42\\x75\\x74\\x74\\x6f\\x6e\\x73">`
        MOV      R1,#+0
        MOV      R0,R4
        SWI      +448
        STR      R0,[R4, #+88]
        MOV      R6,#+255
        ORR      R6,R6,#0xFF00
        MOV      R2,R6
        MOV      R1,#+0
        MOV      R0,R5
        SWI      +349
        MOV      R1,R0
        LDR      R0,[R4, #+88]
        SWI      +307
//  678 	ListMenu_SetItemCount( mbk->but_list, 10 );
        LDR      R0,[R4, #+88]
        MOV      R1,#+10
        SWI      +449
//  679 	ListMenu_SetOnMessage( mbk->but_list, but_list_callback );
        LDR      R1,??CreateButtonList_2+0x4  ;; ??but_list_callback
        LDR      R0,[R4, #+88]
        SWI      +372
//  680 	ListMenu_SetCursorToItem( mbk->but_list, but_pos );
        LDR      R0,[R4, #+88]
        MOV      R1,#+0
        SWI      +309
//  681 	GUIObject_SoftKeys_SetAction( mbk->but_list, ACTION_BACK, DestroyButList );
        LDR      R0,??DataTable43  ;; ACTION_BACK
        LDR      R2,??CreateButtonList_2+0x8  ;; ??DestroyButList
        LDR      R1,[R0, #+0]
        LDR      R0,[R4, #+88]
        MOV      R1,R1, LSL #+16
        MOV      R1,R1, LSR #+16
        SWI      +331
//  682 	GUIObject_SoftKeys_SetAction( mbk->but_list, ACTION_LONG_BACK, CancelButtonList );
        LDR      R0,??DataTable44  ;; ACTION_LONG_BACK
        LDR      R2,??CreateButtonList_2+0xC  ;; ??CancelButtonList
        LDR      R1,[R0, #+0]
        LDR      R0,[R4, #+88]
        MOV      R1,R1, LSL #+16
        MOV      R1,R1, LSR #+16
        SWI      +331
//  683 	GUIObject_SoftKeys_SetAction( mbk->but_list, ACTION_SELECT1, But_onEnter );
        LDR      R0,??DataTable45  ;; ACTION_SELECT1
        LDR      R2,??CreateButtonList_2+0x10  ;; ??But_onEnter
        LDR      R1,[R0, #+0]
        LDR      R0,[R4, #+88]
        MOV      R1,R1, LSL #+16
        MOV      R1,R1, LSR #+16
        SWI      +331
//  684 	GUIObject_SoftKeys_SetAction( mbk->but_list, ACTION_DELETE, But_onDelete );
        LDR      R0,??CreateButtonList_2+0x14  ;; ACTION_DELETE
        LDR      R2,??CreateButtonList_2+0x18  ;; ??But_onDelete
        LDR      R7,[R0, #+0]
        LDR      R0,[R4, #+88]
        MOV      R1,R7, LSL #+16
        MOV      R1,R1, LSR #+16
        SWI      +331
//  685 	GUIObject_SoftKeys_SetVisible( mbk->but_list, ACTION_DELETE, 0 );
        LDR      R0,[R4, #+88]
        MOV      R2,#+0
        MOV      R1,R7, LSL #+16
        MOV      R1,R1, LSR #+16
        SWI      +336
//  686 
//  687 	if ( mbk->ActiveTAB==BOOKLIST || ShortcutsMode )
        LDR      R0,??DataTable39  ;; ShortcutsMode
        LDR      R7,[R0, #+0]
        LDRH     R0,[R4, #+140]
        CMP      R0,#+0
        BEQ      ??CreateButtonList_3
        CMP      R7,#+0
        BEQ      ??CreateButtonList_4
//  688 	{
//  689 		GUIObject_SoftKeys_SetAction( mbk->but_list, SHORTCUTS_MAINMENU_SOFTKEY, But_SetMM );
??CreateButtonList_3:
        LDR      R2,??CreateButtonList_2+0x1C  ;; ??But_SetMM
        LDR      R0,[R4, #+88]
        MOV      R1,#+0
        SWI      +331
//  690 		textidname2id( SHORTCUTS_MAINMENU_NAME_SOFTKEY, TEXTID_ANY_LEN, &str_id );
        MOV      R2,SP
        MOV      R1,R6
        ADD      R0,R5,#+16
        SWI      +647
//  691 		GUIObject_SoftKeys_SetText( mbk->but_list, SHORTCUTS_MAINMENU_SOFTKEY, str_id );
        LDR      R2,[SP, #+0]
        LDR      R0,[R4, #+88]
        MOV      R1,#+0
        SWI      +332
//  692 		GUIObject_SoftKeys_SetAction( mbk->but_list, SHORTCUTS_JAVA_SOFTKEY, But_SetJava );
        LDR      R0,[R4, #+88]
        LDR      R2,??CreateButtonList_2+0x20  ;; ??But_SetJava
        MOV      R1,#+1
        SWI      +331
//  693 		GUIObject_SoftKeys_SetText( mbk->but_list, SHORTCUTS_JAVA_SOFTKEY, STR( "Java" ) );
        MOV      R2,R6
        MOV      R1,#+0
        ADD      R0,R5,#+72
        SWI      +349
        MOV      R2,R0
        LDR      R0,[R4, #+88]
        MOV      R1,#+1
        SWI      +332
//  694 		if (ShortcutsMode)
        CMP      R7,#+0
        BEQ      ??CreateButtonList_4
//  695 		{
//  696 			GUIObject_SoftKeys_SetAction( mbk->but_list, SHORTCUTS_ELFS_SOFTKEY, But_SetElf );
        LDR      R0,[R4, #+88]
        LDR      R2,??CreateButtonList_2+0x24  ;; ??But_SetElf
        MOV      R1,#+2
        SWI      +331
//  697 			GUIObject_SoftKeys_SetText( mbk->but_list, SHORTCUTS_ELFS_SOFTKEY, STR( "Elfs" ) );
        MOV      R2,R6
        MOV      R1,#+0
        ADD      R0,R5,#+60
        SWI      +349
        MOV      R2,R0
        LDR      R0,[R4, #+88]
        MOV      R1,#+2
        SWI      +332
//  698 		}
//  699 	}
//  700 
//  701 	GUIObject_Show( mbk->but_list );
??CreateButtonList_4:
        LDR      R0,[R4, #+88]
        SWI      +308
//  702 	return 0;
        MOV      R0,#+0
        POP      {R1,R4-R7,PC}    ;; return
        DATA
??CreateButtonList_2:
        DC32     `?<Constant L"\\x42\\x75\\x74\\x74\\x6f\\x6e\\x73">`
        DC32     ??but_list_callback
        DC32     ??DestroyButList
        DC32     ??CancelButtonList
        DC32     ??But_onEnter
        DC32     ACTION_DELETE
        DC32     ??But_onDelete
        DC32     ??But_SetMM
        DC32     ??But_SetJava
        DC32     ??But_SetElf
        CFI EndBlock cfiBlock65
//  703 }

        RSEG CODE:CODE:NOROOT(2)
        DATA
??DataTable39:
        DC32     ShortcutsMode

        RSEG CODE:CODE:NOROOT(2)
        CFI Block cfiBlock66 Using cfiCommon0
        CFI NoFunction
        THUMB
??ButtonList_Cancel_Event_Action??rT:
        BX       PC
        Nop      
        CFI EndBlock cfiBlock66
        REQUIRE ??ButtonList_Cancel_Event_Action
//  704 
//  705 

        RSEG CODE:CODE:NOROOT(2)
        CFI Block cfiBlock67 Using cfiCommon1
        CFI Function ??ButtonList_Cancel_Event_Action
        ARM
//  706 int ButtonList_Cancel_Event_Action( void* data, BOOK* book )
//  707 {
??ButtonList_Cancel_Event_Action:
        PUSH     {LR}
        CFI ?RET Frame(CFA, -4)
        CFI CFA R13+4
        MOV      R0,R1
//  708 	BookObj_ReturnPage( book, CANCEL_EVENT );
        LDR      R1,??DataTable40  ;; CANCEL_EVENT
        LDR      R1,[R1, #+0]
        SWI      +302
//  709 	return(1);
        MOV      R0,#+1
        POP      {PC}             ;; return
        CFI EndBlock cfiBlock67
//  710 }

        RSEG CODE:CODE:NOROOT(2)
        DATA
??DataTable40:
        DC32     CANCEL_EVENT

        RSEG CODE:CODE:NOROOT(2)
        CFI Block cfiBlock68 Using cfiCommon0
        CFI NoFunction
        THUMB
??ModeList_Cancel_Action??rT:
        BX       PC
        Nop      
        CFI EndBlock cfiBlock68
        REQUIRE ??ModeList_Cancel_Action
//  711 
//  712 

        RSEG CODE:CODE:NOROOT(2)
        CFI Block cfiBlock69 Using cfiCommon1
        CFI Function ??ModeList_Cancel_Action
        ARM
//  713 void ModeList_Cancel_Action( BOOK* book, GUI* )
//  714 {
//  715 	BookObj_ReturnPage( book, ACCEPT_EVENT );
??ModeList_Cancel_Action:
        LDR      R1,??DataTable46  ;; ACCEPT_EVENT
        PUSH     {LR}
        CFI ?RET Frame(CFA, -4)
        CFI CFA R13+4
        LDR      R1,[R1, #+0]
        SWI      +302
//  716 }
        POP      {PC}             ;; return
        CFI EndBlock cfiBlock69

        RSEG CODE:CODE:NOROOT(2)
        CFI Block cfiBlock70 Using cfiCommon0
        CFI NoFunction
        THUMB
??ModeList_Prev_Action??rT:
        BX       PC
        Nop      
        CFI EndBlock cfiBlock70
        REQUIRE ??ModeList_Prev_Action
//  717 
//  718 

        RSEG CODE:CODE:NOROOT(2)
        CFI Block cfiBlock71 Using cfiCommon1
        CFI Function ??ModeList_Prev_Action
        ARM
//  719 void ModeList_Prev_Action( BOOK* book, GUI* )
//  720 {
//  721 	BookObj_ReturnPage( book, ACCEPT_EVENT );
??ModeList_Prev_Action:
        LDR      R1,??DataTable46  ;; ACCEPT_EVENT
        PUSH     {LR}
        CFI ?RET Frame(CFA, -4)
        CFI CFA R13+4
        LDR      R1,[R1, #+0]
        SWI      +302
//  722 }
        POP      {PC}             ;; return
        CFI EndBlock cfiBlock71

        RSEG CODE:CODE:NOROOT(2)
        CFI Block cfiBlock72 Using cfiCommon0
        CFI NoFunction
        THUMB
??onEnter_ModeList??rT:
        BX       PC
        Nop      
        CFI EndBlock cfiBlock72
        REQUIRE ??onEnter_ModeList
//  723 
//  724 

        RSEG CODE:CODE:NOROOT(2)
        CFI Block cfiBlock73 Using cfiCommon1
        CFI Function ??onEnter_ModeList
        ARM
//  725 void onEnter_ModeList( BOOK* book, GUI* )
//  726 {
//  727 	BookObj_CallPage( book, &ChangeShortcuts_Buttons_page );
??onEnter_ModeList:
        LDR      R1,??onEnter_ModeList_1  ;; ChangeShortcuts_Buttons_page
        PUSH     {LR}
        CFI ?RET Frame(CFA, -4)
        CFI CFA R13+4
        SWI      +696
//  728 }
        POP      {PC}             ;; return
        DATA
??onEnter_ModeList_1:
        DC32     ChangeShortcuts_Buttons_page
        CFI EndBlock cfiBlock73

        RSEG CODE:CODE:NOROOT(2)
        CFI Block cfiBlock74 Using cfiCommon0
        CFI NoFunction
        THUMB
??list_callback??rT:
        BX       PC
        Nop      
        CFI EndBlock cfiBlock74
        REQUIRE ??list_callback
//  729 
//  730 

        RSEG CODE:CODE:NOROOT(2)
        CFI Block cfiBlock75 Using cfiCommon1
        CFI Function ??list_callback
        ARM
//  731 int list_callback( GUI_MESSAGE* msg )
//  732 {
??list_callback:
        PUSH     {R4-R6,LR}
        CFI ?RET Frame(CFA, -4)
        CFI R6 Frame(CFA, -8)
        CFI R5 Frame(CFA, -12)
        CFI R4 Frame(CFA, -16)
        CFI CFA R13+16
        MOV      R4,R0
//  733 	char * item_name;
//  734 	switch( GUIonMessage_GetMsg( msg ) )
        SWI      +884
        CMP      R0,#+1
        BNE      ??list_callback_1
//  735 	{
//  736 	case LISTMSG_GetItem:
//  737 		switch ( GUIonMessage_GetCreatedItemIndex( msg ) )
        LDR      R6,??list_callback_2  ;; `?<Constant "Short">`
        MOV      R0,R4
        SWI      +311
        CMP      R0,#+0
        BEQ      ??list_callback_3
        SUBS     R0,R0,#+1
        ADDEQ    R5,R6,#+8
        B        ??list_callback_4
//  738 		{
//  739 		case 0:
//  740 			item_name="Short";
??list_callback_3:
        MOV      R5,R6
//  741 			break;
//  742 		case 1:
//  743 			item_name="Long";
//  744 			break;
//  745 		}
//  746 		GUIonMessage_SetMenuItemText( msg, TextID_Create( item_name, ENC_LAT1, TEXTID_ANY_LEN ) );
??list_callback_4:
        MOV      R2,#+255
        ORR      R2,R2,#0xFF00
        MOV      R1,#+6
        MOV      R0,R5
        SWI      +349
        MOV      R1,R0
        MOV      R0,R4
        SWI      +312
//  747 	}
//  748 	return 1;
??list_callback_1:
        MOV      R0,#+1
        POP      {R4-R6,PC}       ;; return
        DATA
??list_callback_2:
        DC32     `?<Constant "Short">`
        CFI EndBlock cfiBlock75
//  749 }

        RSEG CODE:CODE:NOROOT(2)
        CFI Block cfiBlock76 Using cfiCommon0
        CFI NoFunction
        THUMB
??CreateModeList??rT:
        BX       PC
        Nop      
        CFI EndBlock cfiBlock76
        REQUIRE ??CreateModeList
//  750 
//  751 

        RSEG CODE:CODE:NOROOT(2)
        CFI Block cfiBlock77 Using cfiCommon1
        CFI Function ??CreateModeList
        ARM
//  752 int CreateModeList( void* data, BOOK* book )
//  753 {
??CreateModeList:
        PUSH     {R4,R5,LR}
        CFI ?RET Frame(CFA, -4)
        CFI R5 Frame(CFA, -8)
        CFI R4 Frame(CFA, -12)
        CFI CFA R13+12
        MOV      R4,R1
//  754 	MyBOOK* mbk = (MyBOOK*) book;
//  755 	int mode_list_pos = 0;
//  756 	if ( mbk->mode_list )
        LDR      R0,[R4, #+84]
        CMP      R0,#+0
        BEQ      ??CreateModeList_1
//  757 	{
//  758 		mode_list_pos = ListMenu_GetSelectedItem( mbk->mode_list );
        SWI      +318
        MOV      R5,R0
//  759 		ListMenu_DestroyItems(mbk->mode_list);
        LDR      R0,[R4, #+84]
        SWI      +955
//  760 		ListMenu_SetItemCount( mbk->mode_list, 2 );
        LDR      R0,[R4, #+84]
        MOV      R1,#+2
        SWI      +449
//  761 		ListMenu_SetCursorToItem( mbk->mode_list, mode_list_pos );
        LDR      R0,[R4, #+84]
        MOV      R1,R5
        SWI      +309
//  762 		return 0;
        MOV      R0,#+0
        POP      {R4,R5,PC}
//  763 	}
//  764 	mbk->mode_list = CreateListMenu( book, 0 );
??CreateModeList_1:
        MOV      R1,#+0
        MOV      R0,R4
        SWI      +448
        STR      R0,[R4, #+84]
//  765 	GUIObject_SetTitleText( mbk->mode_list, STR( "Press Mode" ) );
        LDR      R0,??CreateModeList_2  ;; `?<Constant L"\\x50\\x72\\x65\\x73\\x73\\x20\\x4d\\x6f\\`
        MOV      R2,#+255
        ORR      R2,R2,#0xFF00
        MOV      R1,#+0
        SWI      +349
        MOV      R1,R0
        LDR      R0,[R4, #+84]
        SWI      +307
//  766 	ListMenu_SetItemCount( mbk->mode_list, 2 );
        LDR      R0,[R4, #+84]
        MOV      R1,#+2
        SWI      +449
//  767 	ListMenu_SetOnMessage( mbk->mode_list, list_callback );
        LDR      R1,??CreateModeList_2+0x4  ;; ??list_callback
        LDR      R0,[R4, #+84]
        SWI      +372
//  768 	ListMenu_SetCursorToItem( mbk->mode_list, mode_list_pos );
        LDR      R0,[R4, #+84]
        MOV      R1,#+0
        SWI      +309
//  769 	GUIObject_SoftKeys_SetAction( mbk->mode_list, ACTION_BACK, ModeList_Prev_Action );
        LDR      R0,??DataTable43  ;; ACTION_BACK
        LDR      R2,??CreateModeList_2+0x8  ;; ??ModeList_Prev_Action
        LDR      R1,[R0, #+0]
        LDR      R0,[R4, #+84]
        MOV      R1,R1, LSL #+16
        MOV      R1,R1, LSR #+16
        SWI      +331
//  770 	GUIObject_SoftKeys_SetAction( mbk->mode_list, ACTION_LONG_BACK, ModeList_Cancel_Action );
        LDR      R0,??DataTable44  ;; ACTION_LONG_BACK
        LDR      R2,??CreateModeList_2+0xC  ;; ??ModeList_Cancel_Action
        LDR      R1,[R0, #+0]
        LDR      R0,[R4, #+84]
        MOV      R1,R1, LSL #+16
        MOV      R1,R1, LSR #+16
        SWI      +331
//  771 	GUIObject_SoftKeys_SetAction( mbk->mode_list, ACTION_SELECT1, onEnter_ModeList );
        LDR      R0,??DataTable45  ;; ACTION_SELECT1
        LDR      R2,??CreateModeList_2+0x10  ;; ??onEnter_ModeList
        LDR      R1,[R0, #+0]
        LDR      R0,[R4, #+84]
        MOV      R1,R1, LSL #+16
        MOV      R1,R1, LSR #+16
        SWI      +331
//  772 	GUIObject_Show( mbk->mode_list );
        LDR      R0,[R4, #+84]
        SWI      +308
//  773 	return 0;
        MOV      R0,#+0
        POP      {R4,R5,PC}       ;; return
        DATA
??CreateModeList_2:
        DC32     `?<Constant L"\\x50\\x72\\x65\\x73\\x73\\x20\\x4d\\x6f\\`
        DC32     ??list_callback
        DC32     ??ModeList_Prev_Action
        DC32     ??ModeList_Cancel_Action
        DC32     ??onEnter_ModeList
        CFI EndBlock cfiBlock77
//  774 }

        RSEG CODE:CODE:NOROOT(2)
        DATA
??DataTable43:
        DC32     ACTION_BACK

        RSEG CODE:CODE:NOROOT(2)
        DATA
??DataTable44:
        DC32     ACTION_LONG_BACK

        RSEG CODE:CODE:NOROOT(2)
        DATA
??DataTable45:
        DC32     ACTION_SELECT1

        RSEG CODE:CODE:NOROOT(2)
        CFI Block cfiBlock78 Using cfiCommon0
        CFI NoFunction
        THUMB
??ModeList_CancelEvent_Action??rT:
        BX       PC
        Nop      
        CFI EndBlock cfiBlock78
        REQUIRE ??ModeList_CancelEvent_Action
//  775 
//  776 

        RSEG CODE:CODE:NOROOT(2)
        CFI Block cfiBlock79 Using cfiCommon1
        CFI Function ??ModeList_CancelEvent_Action
        ARM
//  777 int ModeList_CancelEvent_Action( void* data, BOOK* bk )
//  778 {
??ModeList_CancelEvent_Action:
        PUSH     {LR}
        CFI ?RET Frame(CFA, -4)
        CFI CFA R13+4
        MOV      R0,R1
//  779 	BookObj_ReturnPage( bk, ACCEPT_EVENT );
        LDR      R1,??DataTable46  ;; ACCEPT_EVENT
        LDR      R1,[R1, #+0]
        SWI      +302
//  780 	return(0);
        MOV      R0,#+0
        POP      {PC}             ;; return
        CFI EndBlock cfiBlock79
//  781 }

        RSEG CODE:CODE:NOROOT(2)
        DATA
??DataTable46:
        DC32     ACCEPT_EVENT

        RSEG CODE:CODE:NOROOT(2)
        CFI Block cfiBlock80 Using cfiCommon0
        CFI NoFunction
        THUMB
??ExitShortcutsSet??rT:
        BX       PC
        Nop      
        CFI EndBlock cfiBlock80
        REQUIRE ??ExitShortcutsSet
//  782 

        RSEG CODE:CODE:NOROOT(2)
        CFI Block cfiBlock81 Using cfiCommon1
        CFI Function ??ExitShortcutsSet
        ARM
//  783 int ExitShortcutsSet( void* data, BOOK* bk )
//  784 {
??ExitShortcutsSet:
        PUSH     {R4,R5,LR}
        CFI ?RET Frame(CFA, -4)
        CFI R5 Frame(CFA, -8)
        CFI R4 Frame(CFA, -12)
        CFI CFA R13+12
        MOV      R4,R1
//  785 	MyBOOK* mbk = (MyBOOK*) bk;
//  786 	if ( mbk->mode_list )
        LDR      R0,[R4, #+84]
        MOV      R5,#+0
        CMP      R0,#+0
        BEQ      ??ExitShortcutsSet_1
//  787 	{
//  788 		GUIObject_Destroy( mbk->mode_list );
        SWI      +462
//  789 		mbk->mode_list = 0;
        STR      R5,[R4, #+84]
//  790 	}
//  791 	if ( mbk->but_list )
??ExitShortcutsSet_1:
        LDR      R0,[R4, #+88]
        CMP      R0,#+0
        BEQ      ??ExitShortcutsSet_2
//  792 	{
//  793 		GUIObject_Destroy( mbk->but_list );
        SWI      +462
//  794 		mbk->but_list = 0;
        STR      R5,[R4, #+88]
//  795 	}
//  796 	if ( mbk->MainMenuID!= - 1 )
??ExitShortcutsSet_2:
        LDR      R0,[R4, #+128]
        MVN      R5,R5
        CMP      R0,R5
        BEQ      ??ExitShortcutsSet_3
//  797 	{
//  798 		BOOK* MainMenu = FindBookByID( mbk->MainMenuID );
        SWI      +708
//  799 		if ( MainMenu ) FreeBook( MainMenu );
        CMP      R0,#+0
        BEQ      ??ExitShortcutsSet_4
        SWI      +303
//  800 		mbk->MainMenuID = - 1;
??ExitShortcutsSet_4:
        STR      R5,[R4, #+128]
//  801 	}
//  802 	return 0;
??ExitShortcutsSet_3:
        MOV      R0,#+0
        POP      {R4,R5,PC}       ;; return
        CFI EndBlock cfiBlock81
//  803 }

        RSEG CODE:CODE:NOROOT(2)
        CFI Block cfiBlock82 Using cfiCommon0
        CFI NoFunction
        THUMB
??Shortcuts??rT:
        BX       PC
        Nop      
        CFI EndBlock cfiBlock82
        REQUIRE ??Shortcuts
//  804 
//  805 

        RSEG CODE:CODE:NOROOT(2)
        CFI Block cfiBlock83 Using cfiCommon1
        CFI Function ??Shortcuts
        ARM
//  806 void Shortcuts( BOOK* book, GUI* )
//  807 {
??Shortcuts:
        PUSH     {R4,LR}
        CFI ?RET Frame(CFA, -4)
        CFI R4 Frame(CFA, -8)
        CFI CFA R13+8
        MOV      R4,R0
//  808 	MyBOOK * mbk = (MyBOOK*)book;
//  809 	mbk->ActiveTAB=GetActiveTab(mbk);
        _BLF     ??GetActiveTab,??GetActiveTab??rA
//  810 	BookObj_CallPage( book, &ChangeShortcuts_page );
        LDR      R1,??Shortcuts_1  ;; ChangeShortcuts_page
        STRH     R0,[R4, #+140]
        MOV      R0,R4
        SWI      +696
//  811 }
        POP      {R4,PC}          ;; return
        DATA
??Shortcuts_1:
        DC32     ChangeShortcuts_page
        CFI EndBlock cfiBlock83

        RSEG CODE:CODE:NOROOT(2)
        CFI Block cfiBlock84 Using cfiCommon1
        CFI NoFunction
        ARM
`??operator new[]??rA`:
        LDR      R12,??Subroutine42_0  ;; `??operator new[]`
        BX       R12
        DATA
??Subroutine42_0:
        DC32     `??operator new[]`
        CFI EndBlock cfiBlock84

        RSEG CODE:CODE:NOROOT(2)
        CFI Block cfiBlock85 Using cfiCommon1
        CFI NoFunction
        ARM
`??operator delete??rA`:
        LDR      R12,??Subroutine43_0  ;; `??operator delete`
        BX       R12
        DATA
??Subroutine43_0:
        DC32     `??operator delete`
        CFI EndBlock cfiBlock85

        RSEG CODE:CODE:NOROOT(2)
        CFI Block cfiBlock86 Using cfiCommon1
        CFI NoFunction
        ARM
??get_path??rA:
        LDR      R12,??Subroutine44_0  ;; ??get_path
        BX       R12
        DATA
??Subroutine44_0:
        DC32     ??get_path
        CFI EndBlock cfiBlock86

        RSEG CODE:CODE:NOROOT(2)
        CFI Block cfiBlock87 Using cfiCommon1
        CFI NoFunction
        ARM
??LoadShortcuts??rA:
        LDR      R12,??Subroutine45_0  ;; ??LoadShortcuts
        BX       R12
        DATA
??Subroutine45_0:
        DC32     ??LoadShortcuts
        CFI EndBlock cfiBlock87

        RSEG CODE:CODE:NOROOT(2)
        CFI Block cfiBlock88 Using cfiCommon1
        CFI NoFunction
        ARM
`??operator new??rA`:
        LDR      R12,??Subroutine46_0  ;; `??operator new`
        BX       R12
        DATA
??Subroutine46_0:
        DC32     `??operator new`
        CFI EndBlock cfiBlock88

        RSEG CODE:CODE:NOROOT(2)
        CFI Block cfiBlock89 Using cfiCommon1
        CFI NoFunction
        ARM
??GetActiveTab??rA:
        LDR      R12,??Subroutine47_0  ;; ??GetActiveTab
        BX       R12
        DATA
??Subroutine47_0:
        DC32     ??GetActiveTab
        CFI EndBlock cfiBlock89

        RSEG DATA_ID:CONST:SORT:NOROOT(2)
`?<Initializer for ChangeShortcuts_page>`:
        DATA
        DC32 `?<Constant "BookManager_ChangeSho...">`, 0H
        DC32 ChangeShortcuts_PageEvents

        RSEG DATA_ID:CONST:SORT:NOROOT(2)
`?<Initializer for ChangeShortcuts_Buttons_page`:
        DATA
        DC32 `?<Constant "BookManager_ChangeSho...">_1`, 0H
        DC32 ChangeShortcuts_Buttons_PageEvents

        RSEG DATA_ID:CONST:SORT:NOROOT(2)
`?<Initializer for ChangeShortcuts_SetJava_page`:
        DATA
        DC32 `?<Constant "BookManager_ChangeSho...">_2`, 0H, SetJava_PageEvents

        RSEG DATA_ID:CONST:SORT:NOROOT(2)
`?<Initializer for SelectElf_page>`:
        DATA
        DC32 `?<Constant "BookManager_ChangeSho...">_3`, 0H
        DC32 SelectElf_PageEvents
`?<Initializer for SelectShortcut_page>`:
        DC32 `?<Constant "BookManager_ChangeSho...">_4`, 0H
        DC32 SelectShortcut_PageEvents

        RSEG DATA_ID:CONST:SORT:NOROOT(2)
`?*?DATA_ID`:

        RSEG INITTAB:CODE:ROOT(2)
        DATA
?init?tab?DATA_I:
        DCD      sfe(DATA_I) - sfb(DATA_I), sfb(DATA_I), sfb(DATA_ID)

        RSEG DATA_C:CONST:SORT:NOROOT(2)
`?<Constant "[L_KEY%d]">`:
        DATA
        DC8 "[L_KEY%d]"
        DC8 0, 0
        DC8 44H, 0, 42H, 0, 5FH, 0, 4CH, 0
        DC8 49H, 0, 53H, 0, 54H, 0, 5FH, 0
        DC8 4AH, 0, 41H, 0, 56H, 0, 41H, 0
        DC8 5FH, 0, 49H, 0, 43H, 0, 4EH, 0
        DC8 0, 0
        DC8 0, 0
        DC8 52H, 0, 4EH, 0, 5FH, 0, 56H, 0
        DC8 45H, 0, 52H, 0, 54H, 0, 5FH, 0
        DC8 4DH, 0, 59H, 0, 5FH, 0, 53H, 0
        DC8 48H, 0, 4FH, 0, 52H, 0, 54H, 0
        DC8 43H, 0, 55H, 0, 54H, 0, 53H, 0
        DC8 5FH, 0, 49H, 0, 43H, 0, 4EH, 0
        DC8 0, 0
        DC8 0, 0
        DC8 "java:"
        DC8 0, 0
        DC8 53H, 0, 48H, 0, 43H, 0, 5FH, 0
        DC8 4EH, 0, 4FH, 0, 4EH, 0, 45H, 0
        DC8 5FH, 0, 4EH, 0, 41H, 0, 4DH, 0
        DC8 45H, 0, 5FH, 0, 54H, 0, 58H, 0
        DC8 54H, 0, 0, 0
        DC8 73H, 0, 68H, 0, 6FH, 0, 72H, 0
        DC8 74H, 0, 63H, 0, 75H, 0, 74H, 0
        DC8 73H, 0, 2EH, 0, 69H, 0, 6EH, 0
        DC8 69H, 0, 0, 0
        DC8 "[S_KEY%d]"
        DC8 0, 0
        DC8 "[ES_KEY%d]"
        DC8 0
        DC8 "[EL_KEY%d]"
        DC8 0

        RSEG DATA_C:CONST:SORT:NOROOT(2)
`?<Constant L"\\x42\\x75\\x74\\x74\\x6f\\x6e\\x73">`:
        DATA
        DC8 42H, 0, 75H, 0, 74H, 0, 74H, 0
        DC8 6FH, 0, 6EH, 0, 73H, 0, 0, 0
        DC8 53H, 0, 48H, 0, 43H, 0, 5FH, 0
        DC8 53H, 0, 45H, 0, 54H, 0, 5FH, 0
        DC8 4DH, 0, 41H, 0, 49H, 0, 4EH, 0
        DC8 4DH, 0, 45H, 0, 4EH, 0, 55H, 0
        DC8 5FH, 0, 54H, 0, 58H, 0, 54H, 0
        DC8 0, 0
        DC8 0, 0
        DC8 45H, 0, 6CH, 0, 66H, 0, 73H, 0
        DC8 0, 0
        DC8 0, 0
        DC8 4AH, 0, 61H, 0, 76H, 0, 61H, 0
        DC8 0, 0
        DC8 0, 0

        RSEG DATA_C:CONST:SORT:NOROOT(2)
`?<Constant "Short">`:
        DATA
        DC8 "Short"
        DC8 0, 0
        DC8 "Long"
        DC8 0, 0, 0

        RSEG DATA_C:CONST:SORT:NOROOT(2)
`?<Constant "BookManager_ChangeSho...">`:
        DATA
        DC8 "BookManager_ChangeShortcuts_Main_Page"
        DC8 0, 0

        RSEG DATA_C:CONST:SORT:NOROOT(2)
`?<Constant "BookManager_ChangeSho...">_1`:
        DATA
        DC8 "BookManager_ChangeShortcuts_Buttons_Page"
        DC8 0, 0, 0

        RSEG DATA_C:CONST:SORT:NOROOT(2)
`?<Constant "BookManager_ChangeSho...">_2`:
        DATA
        DC8 "BookManager_ChangeShortcuts_SetJava_Page"
        DC8 0, 0, 0

        RSEG DATA_C:CONST:SORT:NOROOT(2)
`?<Constant "BookManager_ChangeSho...">_3`:
        DATA
        DC8 "BookManager_ChangeShortcuts_SelectElf_Page"
        DC8 0

        RSEG DATA_C:CONST:SORT:NOROOT(2)
`?<Constant "BookManager_ChangeSho...">_4`:
        DATA
        DC8 "BookManager_ChangeShortcuts_SelectShortcut_Page"

        RSEG DATA_C:CONST:SORT:NOROOT(0)
        DATA
        DC8 " "

        RSEG DATA_C:CONST:SORT:NOROOT(0)
        DATA
        DC8 "\015\012"

        RSEG DATA_C:CONST:SORT:NOROOT(2)
`?<Constant L"\\x50\\x72\\x65\\x73\\x73\\x20\\x4d\\x6f\\`:
        DATA
        DC8 50H, 0, 72H, 0, 65H, 0, 73H, 0
        DC8 73H, 0, 20H, 0, 4DH, 0, 6FH, 0
        DC8 64H, 0, 65H, 0, 0, 0
        DC8 0, 0

        RSEG DATA_C:CONST:SORT:NOROOT(2)
`?<Constant L"\\x53\\x48\\x43\\x5f\\x53\\x45\\x54\\x5f\\_1`:
        DATA
        DC8 53H, 0, 48H, 0, 43H, 0, 5FH, 0
        DC8 53H, 0, 45H, 0, 54H, 0, 5FH, 0
        DC8 53H, 0, 48H, 0, 4FH, 0, 52H, 0
        DC8 54H, 0, 43H, 0, 55H, 0, 54H, 0
        DC8 5FH, 0, 53H, 0, 4BH, 0, 0, 0

        RSEG DATA_C:CONST:SORT:NOROOT(2)
`?<Constant L"\\x5a\\x42\\x69\\x6e\\x2f">`:
        DATA
        DC8 5AH, 0, 42H, 0, 69H, 0, 6EH, 0
        DC8 2FH, 0, 0, 0

        RSEG DATA_C:CONST:SORT:NOROOT(2)
        DATA
        DC8 2FH, 0, 0, 0

        RSEG DATA_C:CONST:SORT:NOROOT(2)
`?<Constant L"\\x5a\\x42\\x69\\x6e">`:
        DATA
        DC8 5AH, 0, 42H, 0, 69H, 0, 6EH, 0
        DC8 0, 0
        DC8 0, 0
        DC8 2AH, 0, 2EH, 0, 65H, 0, 6CH, 0
        DC8 66H, 0, 0, 0

        RSEG DATA_C:CONST:SORT:NOROOT(2)
`?<Constant L"\\x6a\\x61\\x76\\x61\\x3a\\x25\\x6c\\x73\\`:
        DATA
        DC8 6AH, 0, 61H, 0, 76H, 0, 61H, 0
        DC8 3AH, 0, 25H, 0, 6CH, 0, 73H, 0
        DC8 2FH, 0, 2FH, 0, 25H, 0, 6CH, 0
        DC8 73H, 0, 0, 0

        RSEG DATA_C:CONST:SORT:NOROOT(2)
`?<Constant L"\\x4d\\x61\\x69\\x6e\\x4d\\x65\\x6e\\x75"`:
        DATA
        DC8 4DH, 0, 61H, 0, 69H, 0, 6EH, 0
        DC8 4DH, 0, 65H, 0, 6EH, 0, 75H, 0
        DC8 0, 0
        DC8 0, 0

        RSEG DATA_C:CONST:SORT:NOROOT(0)
        DATA
        DC8 "//"

        END
// 
// 5 544 bytes in segment CODE
//   688 bytes in segment DATA_C
//    60 bytes in segment DATA_I
//    60 bytes in segment DATA_ID
//   168 bytes in segment DYN_PAGE
//    12 bytes in segment INITTAB
// 
// 5 304 bytes of CODE  memory (+ 252 bytes shared)
//   916 bytes of CONST memory
//    60 bytes of DATA  memory
//
//Errors: none
//Warnings: none
