##############################################################################
#                                                                            #
# IAR ARM ANSI C/C++ Compiler V4.42A/W32 EVALUATION    10/Jun/2013  23:00:59 #
# Copyright 1999-2005 IAR Systems. All rights reserved.                      #
#                                                                            #
#    Cpu mode        =  interwork                                            #
#    Endian          =  little                                               #
#    Stack alignment =  4                                                    #
#    Source file     =  Z:\home\perk11\www\perk11.info\svn\SE\BookManager\sh #
#                       ortcuts.c                                            #
#    Command line    =  Z:\home\perk11\www\perk11.info\svn\SE\BookManager\sh #
#                       ortcuts.c -D NDEBUG -lC Z:\home\perk11\www\perk11.in #
#                       fo\svn\SE\BookManager\Release\List\ -lA              #
#                       Z:\home\perk11\www\perk11.info\svn\SE\BookManager\Re #
#                       lease\List\ -o Z:\home\perk11\www\perk11.info\svn\SE #
#                       \BookManager\Release\Obj\ -s9 --no_unroll            #
#                       --no_inline --cpu_mode arm --endian little --cpu     #
#                       ARM926EJ-S --stack_align 4 --interwork -e            #
#                       --enable_multibytes --fpu None --eec++               #
#                       --dlib_config Z:\home\perk11\IAR2\arm\LIB\dl5tpainl8 #
#                       n.h --preinclude ..\deleaker\mem2.h -I               #
#                       Z:\home\perk11\IAR2\arm\INC\                         #
#    List file       =  Z:\home\perk11\www\perk11.info\svn\SE\BookManager\Re #
#                       lease\List\shortcuts.lst                             #
#    Object file     =  Z:\home\perk11\www\perk11.info\svn\SE\BookManager\Re #
#                       lease\Obj\shortcuts.r79                              #
#                                                                            #
#                                                                            #
##############################################################################

Z:\home\perk11\www\perk11.info\svn\SE\BookManager\shortcuts.c
      1          #include "..\include\Lib_Clara.h"
      2          #include "..\include\Dir.h"
      3          #include "..\include\cfg_items.h"
      4          #include "..\include\var_arg.h"
      5          #include "config_data.h"
      6          #include "shortcuts.h"
      7          #include "main.h"
      8          
      9          
     10          //============= pages start ======================
     11          

   \                                 In segment DYN_PAGE, align 4, align-sorted
     12          const PAGE_MSG ChangeShortcuts_PageEvents[]@ "DYN_PAGE" = {
   \                     ChangeShortcuts_PageEvents:
   \   00000000   42000000....       DC32 66, ??CreateModeList, 78, ??ModeList_CancelEvent_Action, 67
   \              ....4E000000
   \              ........4300
   \              0000        
   \   00000014   ........4000       DC32 ??ExitShortcutsSet, 64, 0H
   \              000000000000
     13          	PAGE_ENTER_EVENT_TAG, CreateModeList,
     14          	CANCEL_EVENT_TAG, ModeList_CancelEvent_Action,
     15          	PAGE_EXIT_EVENT_TAG, ExitShortcutsSet,
     16          	NIL_EVENT_TAG, 0
     17          };
     18          

   \                                 In segment DATA_I, align 4, align-sorted
     19          PAGE_DESC ChangeShortcuts_page = { "BookManager_ChangeShortcuts_Main_Page", 0, ChangeShortcuts_PageEvents };
   \                     ChangeShortcuts_page:
   \   00000000                      DS8 12
   \   0000000C                      REQUIRE `?<Initializer for ChangeShortcuts_page>`
     20          
     21          

   \                                 In segment DYN_PAGE, align 4, align-sorted
     22          const PAGE_MSG ChangeShortcuts_Buttons_PageEvents[]@ "DYN_PAGE" = {
   \                     ChangeShortcuts_Buttons_PageEvents:
   \   00000000   42000000....       DC32 66, ??CreateButtonList, 76, ??CreateButtonList, 78
   \              ....4C000000
   \              ........4E00
   \              0000        
   \   00000014   ........4300       DC32 ??ButtonList_Cancel_Event_Action, 67, ??ExitButtonList, 64, 0H
   \              0000........
   \              400000000000
   \              0000        
     23          	PAGE_ENTER_EVENT_TAG, CreateButtonList,
     24          	ACCEPT_EVENT_TAG, CreateButtonList,
     25          	CANCEL_EVENT_TAG, ButtonList_Cancel_Event_Action,
     26          	PAGE_EXIT_EVENT_TAG, ExitButtonList,
     27          	NIL_EVENT_TAG, 0
     28          };
     29          

   \                                 In segment DATA_I, align 4, align-sorted
     30          PAGE_DESC ChangeShortcuts_Buttons_page = { "BookManager_ChangeShortcuts_Buttons_Page", 0, ChangeShortcuts_Buttons_PageEvents };
   \                     ChangeShortcuts_Buttons_page:
   \   00000000                      DS8 12
   \   0000000C                      REQUIRE `?<Initializer for ChangeShortcuts_Buttons_page`
     31          
     32          

   \                                 In segment DYN_PAGE, align 4, align-sorted
     33          const PAGE_MSG SetJava_PageEvents[]@ "DYN_PAGE" = {
   \                     SetJava_PageEvents:
   \   00000000   42000000....       DC32 66, ??CreateJavaList, 67, ??onExit_JavaList, 64, 0H
   \              ....43000000
   \              ........4000
   \              000000000000
     34          	PAGE_ENTER_EVENT_TAG, CreateJavaList,
     35          	PAGE_EXIT_EVENT_TAG, onExit_JavaList,
     36          	NIL_EVENT_TAG, 0
     37          };
     38          

   \                                 In segment DATA_I, align 4, align-sorted
     39          PAGE_DESC ChangeShortcuts_SetJava_page = { "BookManager_ChangeShortcuts_SetJava_Page", 0, SetJava_PageEvents };
   \                     ChangeShortcuts_SetJava_page:
   \   00000000                      DS8 12
   \   0000000C                      REQUIRE `?<Initializer for ChangeShortcuts_SetJava_page`
     40          
     41          

   \                                 In segment DYN_PAGE, align 4, align-sorted
     42          const PAGE_MSG SelectElf_PageEvents[]@ "DYN_PAGE" = {
   \                     SelectElf_PageEvents:
   \   00000000   42000000....       DC32 66, ??CreateDB, 76, ??onAccept_DB, 77, ??onPrevious_MainMenu_DB
   \              ....4C000000
   \              ........4D00
   \              0000........
   \   00000018   4E000000....       DC32 78, ??onCancel_MainMenu_DB, 64, 0H
   \              ....40000000
   \              00000000    
     43          	PAGE_ENTER_EVENT_TAG, CreateDB,
     44          	ACCEPT_EVENT_TAG, onAccept_DB,
     45          	PREVIOUS_EVENT_TAG, onPrevious_MainMenu_DB,
     46          	CANCEL_EVENT_TAG, onCancel_MainMenu_DB,
     47          	NIL_EVENT_TAG, 0
     48          };
     49          
     50          PAGE_DESC SelectElf_page = { "BookManager_ChangeShortcuts_SelectElf_Page", 0, SelectElf_PageEvents };
     51          
     52          

   \                                 In segment DYN_PAGE, align 4, align-sorted
     53          const PAGE_MSG SelectShortcut_PageEvents[]@ "DYN_PAGE" = {
   \                     SelectShortcut_PageEvents:
   \   00000000   42000000....       DC32 66, ??CreateMainMenu, 77, ??onPrevious_MainMenu_DB, 78
   \              ....4D000000
   \              ........4E00
   \              0000        
   \   00000014   ........4000       DC32 ??onCancel_MainMenu_DB, 64, 0H
   \              000000000000

   \                                 In segment DATA_I, align 4, align-sorted
   \                     SelectElf_page:
   \   00000000                      DS8 12
   \   0000000C                      REQUIRE `?<Initializer for SelectElf_page>`
     54          	PAGE_ENTER_EVENT_TAG, CreateMainMenu,
     55          	PREVIOUS_EVENT_TAG, onPrevious_MainMenu_DB,
     56          	CANCEL_EVENT_TAG, onCancel_MainMenu_DB,
     57          	NIL_EVENT_TAG, 0
     58          };
     59          
     60          PAGE_DESC SelectShortcut_page = { "BookManager_ChangeShortcuts_SelectShortcut_Page", 0, SelectShortcut_PageEvents };
   \                     SelectShortcut_page:
   \   0000000C                      DS8 12
   \   00000018                      REQUIRE `?<Initializer for SelectShortcut_page>`
     61          
     62          //============= pages end ======================
     63          
     64          
     65          

   \                                 In segment CODE, align 4, keep-with-next
     66          void Shortcut_Append( wchar_t* name_buf, char* mask_buf, wchar_t* path )
     67          {
   \                     ??Shortcut_Append:
   \   00000000   F0402DE9           PUSH     {R4-R7,LR}
   \   00000004   0040A0E1           MOV      R4,R0
   \   00000008   0160A0E1           MOV      R6,R1
     68          	int f;
     69          	if ( ( f = _fopen( path, INI_SHORTCUTS, FSX_O_CREAT|FSX_O_APPEND, FSX_S_IREAD|FSX_S_IWRITE, 0 ) ) >= 0 )
   \   0000000C   0010A0E3           MOV      R1,#+0
   \   00000010   02002DE9           PUSH     {R1}
   \   00000014   0200A0E1           MOV      R0,R2
   \   00000018   603FA0E3           MOV      R3,#+384
   \   0000001C   ........           LDR      R1,??DataTable2  ;; `?<Constant "[L_KEY%d]">` + 144
   \   00000020   422FA0E3           MOV      R2,#+264
   \   00000024   160100EF           SWI      +278
   \   00000028   0050B0E1           MOVS     R5,R0
   \   0000002C   04D08DE2           ADD      SP,SP,#+4
   \   00000030   F080BD48           POPMI    {R4-R7,PC}
     70          	{
     71          		char* temp_buf = new char[strlen( mask_buf ) + wstrlen( name_buf ) + 4];
   \   00000034   0600A0E1           MOV      R0,R6
   \   00000038   5A0100EF           SWI      +346
   \   0000003C   0070A0E1           MOV      R7,R0
   \   00000040   0400A0E1           MOV      R0,R4
   \   00000044   570100EF           SWI      +343
   \   00000048   070080E0           ADD      R0,R0,R7
   \   0000004C   040080E2           ADD      R0,R0,#+4
   \   00000050   ........           _BLF     `??operator new[]`,`??operator new[]??rA`
   \   00000054   0070A0E1           MOV      R7,R0
     72          		strcpy( temp_buf, mask_buf );
   \   00000058   0610A0E1           MOV      R1,R6
   \   0000005C   A00100EF           SWI      +416
     73          		strcat( temp_buf, " " );
   \   00000060   181F8FE2           ADR      R1,??Shortcut_Append_1  ;; " "
   \   00000064   0700A0E1           MOV      R0,R7
   \   00000068   800200EF           SWI      +640
     74          		wstr2strn( temp_buf + strlen( temp_buf ), name_buf, wstrlen( name_buf ) );
   \   0000006C   0400A0E1           MOV      R0,R4
   \   00000070   570100EF           SWI      +343
   \   00000074   0060A0E1           MOV      R6,R0
   \   00000078   0700A0E1           MOV      R0,R7
   \   0000007C   5A0100EF           SWI      +346
   \   00000080   0620A0E1           MOV      R2,R6
   \   00000084   0410A0E1           MOV      R1,R4
   \   00000088   070080E0           ADD      R0,R0,R7
   \   0000008C   5B0100EF           SWI      +347
     75          		strcat( temp_buf, "\r\n" );
   \   00000090   0D1F8FE2           ADR      R1,??Shortcut_Append_1+0x4  ;; "\r\n"
   \   00000094   0700A0E1           MOV      R0,R7
   \   00000098   800200EF           SWI      +640
     76          		fwrite( f, temp_buf, strlen( temp_buf ) );
   \   0000009C   0700A0E1           MOV      R0,R7
   \   000000A0   5A0100EF           SWI      +346
   \   000000A4   0020A0E1           MOV      R2,R0
   \   000000A8   0710A0E1           MOV      R1,R7
   \   000000AC   0500A0E1           MOV      R0,R5
   \   000000B0   190100EF           SWI      +281
     77          		fclose( f );
   \   000000B4   0500A0E1           MOV      R0,R5
   \   000000B8   170100EF           SWI      +279
     78          		delete( temp_buf );
   \   000000BC   0700A0E1           MOV      R0,R7
   \   000000C0   ........           _BLF     `??operator delete`,`??operator delete??rA`
     79          	}
     80          }
   \   000000C4   F080BDE8           POP      {R4-R7,PC}       ;; return
   \                     ??Shortcut_Append_1:
   \   000000C8   20000000           DC8      " ",+0,+0
   \   000000CC   0D0A0000           DC8      "\r\n",+0
     81          
     82          

   \                                 In segment CODE, align 4, keep-with-next
     83          void ReWriteShortcut( MyBOOK* mbk, wchar_t* name_buf, char* mask_buf, wchar_t* path )
     84          {
   \                     ??ReWriteShortcut:
   \   00000000   F24F2DE9           PUSH     {R1,R4-R11,LR}
   \   00000004   0050A0E1           MOV      R5,R0
     85          	int f;
     86          	char* pos;
     87          
     88          	if ( mbk->shortcuts_buf )
   \   00000008   240095E5           LDR      R0,[R5, #+36]
   \   0000000C   0260A0E1           MOV      R6,R2
   \   00000010   0370A0E1           MOV      R7,R3
   \   00000014   000050E3           CMP      R0,#+0
   \   00000018   6400000A           BEQ      ??ReWriteShortcut_1
     89          	{
     90          		char* param = manifest_GetParam( mbk->shortcuts_buf, mask_buf, 0 );
   \   0000001C   0020A0E3           MOV      R2,#+0
   \   00000020   0610A0E1           MOV      R1,R6
   \   00000024   750100EF           SWI      +373
   \   00000028   00B0A0E1           MOV      R11,R0
     91          
     92          		int len = wstrlen( name_buf );      //длина старого €рлыка
   \   0000002C   00009DE5           LDR      R0,[SP, #+0]
   \   00000030   570100EF           SWI      +343
   \   00000034   0080A0E1           MOV      R8,R0
     93          		char* str_buf = new char[len + 1];
   \   00000038   010088E2           ADD      R0,R8,#+1
   \   0000003C   ........           _BLF     `??operator new[]`,`??operator new[]??rA`
     94          		wstr2strn( str_buf, name_buf, len );
   \   00000040   00109DE5           LDR      R1,[SP, #+0]
   \   00000044   0090A0E1           MOV      R9,R0
   \   00000048   0820A0E1           MOV      R2,R8
   \   0000004C   5B0100EF           SWI      +347
     95          		int len_prefix = strlen(mask_buf)+1;      //длина префикса с пробелом
   \   00000050   0600A0E1           MOV      R0,R6
   \   00000054   5A0100EF           SWI      +346
   \   00000058   01A080E2           ADD      R10,R0,#+1
   \   0000005C   240095E5           LDR      R0,[R5, #+36]
   \   00000060   00005BE3           CMP      R11,#+0
   \   00000064   0610A0E1           MOV      R1,R6
   \   00000068   2600000A           BEQ      ??ReWriteShortcut_2
     96          		if ( param )
     97          		{
     98          			pos = strstr( mbk->shortcuts_buf, mask_buf );
   \   0000006C   980200EF           SWI      +664
     99          			if ( ( f = _fopen( path, INI_SHORTCUTS, FSX_O_RDWR|FSX_O_TRUNC, FSX_S_IREAD|FSX_S_IWRITE, 0 ) ) >= 0 )
   \   00000070   ........           LDR      R1,??DataTable2  ;; `?<Constant "[L_KEY%d]">` + 144
   \   00000074   0040A0E1           MOV      R4,R0
   \   00000078   0000A0E3           MOV      R0,#+0
   \   0000007C   01002DE9           PUSH     {R0}
   \   00000080   603FA0E3           MOV      R3,#+384
   \   00000084   812FA0E3           MOV      R2,#+516
   \   00000088   0700A0E1           MOV      R0,R7
   \   0000008C   160100EF           SWI      +278
   \   00000090   0060B0E1           MOVS     R6,R0
   \   00000094   04D08DE2           ADD      SP,SP,#+4
   \   00000098   1700004A           BMI      ??ReWriteShortcut_3
    100          			{
    101          				int len_minus = strlen( param );    //длина старого €рлыка
   \   0000009C   0B00A0E1           MOV      R0,R11
   \   000000A0   5A0100EF           SWI      +346
    102          				fwrite( f, mbk->shortcuts_buf, pos - mbk->shortcuts_buf + len_prefix );     //пишем начало файла
   \   000000A4   241095E5           LDR      R1,[R5, #+36]
   \   000000A8   0070A0E1           MOV      R7,R0
   \   000000AC   010044E0           SUB      R0,R4,R1
   \   000000B0   00208AE0           ADD      R2,R10,R0
   \   000000B4   0600A0E1           MOV      R0,R6
   \   000000B8   190100EF           SWI      +281
    103          				fwrite( f, str_buf, len );      //пишем новый €рлык
   \   000000BC   0820A0E1           MOV      R2,R8
   \   000000C0   0910A0E1           MOV      R1,R9
   \   000000C4   0600A0E1           MOV      R0,R6
   \   000000C8   190100EF           SWI      +281
    104          				fwrite( f, pos + len_prefix + len_minus, ( mbk->shortcuts_buf_size - ( pos - mbk->shortcuts_buf + len_prefix ) ) - len_minus );      //пишем остаток файла
   \   000000CC   280095E5           LDR      R0,[R5, #+40]
   \   000000D0   241095E5           LDR      R1,[R5, #+36]
   \   000000D4   011044E0           SUB      R1,R4,R1
   \   000000D8   010040E0           SUB      R0,R0,R1
   \   000000DC   0A0040E0           SUB      R0,R0,R10
   \   000000E0   072040E0           SUB      R2,R0,R7
   \   000000E4   04008AE0           ADD      R0,R10,R4
   \   000000E8   001087E0           ADD      R1,R7,R0
   \   000000EC   0600A0E1           MOV      R0,R6
   \   000000F0   190100EF           SWI      +281
    105          				fclose( f );
   \   000000F4   0600A0E1           MOV      R0,R6
   \   000000F8   170100EF           SWI      +279
    106          			}
    107          
    108          			mfree( param );
   \                     ??ReWriteShortcut_3:
   \   000000FC   0B00A0E1           MOV      R0,R11
   \   00000100   040100EF           SWI      +260
   \   00000104   1F0000EA           B        ??ReWriteShortcut_4
    109          		}
    110          		else
    111          		{
    112          			if ( pos = strstr( mbk->shortcuts_buf, mask_buf ) )
   \                     ??ReWriteShortcut_2:
   \   00000108   980200EF           SWI      +664
   \   0000010C   0040B0E1           MOVS     R4,R0
   \   00000110   1F00000A           BEQ      ??ReWriteShortcut_5
    113          			{
    114          				if ( ( f = _fopen( path, INI_SHORTCUTS, FSX_O_RDWR|FSX_O_TRUNC, FSX_S_IREAD|FSX_S_IWRITE, 0 ) ) >= 0 )
   \   00000114   ........           LDR      R1,??DataTable2  ;; `?<Constant "[L_KEY%d]">` + 144
   \   00000118   0000A0E3           MOV      R0,#+0
   \   0000011C   01002DE9           PUSH     {R0}
   \   00000120   603FA0E3           MOV      R3,#+384
   \   00000124   812FA0E3           MOV      R2,#+516
   \   00000128   0700A0E1           MOV      R0,R7
   \   0000012C   160100EF           SWI      +278
   \   00000130   0060B0E1           MOVS     R6,R0
   \   00000134   04D08DE2           ADD      SP,SP,#+4
   \   00000138   1900004A           BMI      ??ReWriteShortcut_6
    115          				{
    116          					fwrite( f, mbk->shortcuts_buf, pos - mbk->shortcuts_buf + len_prefix );
   \   0000013C   241095E5           LDR      R1,[R5, #+36]
   \   00000140   010044E0           SUB      R0,R4,R1
   \   00000144   00208AE0           ADD      R2,R10,R0
   \   00000148   0600A0E1           MOV      R0,R6
   \   0000014C   190100EF           SWI      +281
    117          					fwrite( f, str_buf, len );
   \   00000150   0820A0E1           MOV      R2,R8
   \   00000154   0910A0E1           MOV      R1,R9
   \   00000158   0600A0E1           MOV      R0,R6
   \   0000015C   190100EF           SWI      +281
    118          					fwrite( f, pos + len_prefix, mbk->shortcuts_buf_size - ( pos - mbk->shortcuts_buf + len_prefix ) );
   \   00000160   280095E5           LDR      R0,[R5, #+40]
   \   00000164   241095E5           LDR      R1,[R5, #+36]
   \   00000168   011044E0           SUB      R1,R4,R1
   \   0000016C   010040E0           SUB      R0,R0,R1
   \   00000170   0A2040E0           SUB      R2,R0,R10
   \   00000174   04108AE0           ADD      R1,R10,R4
   \   00000178   0600A0E1           MOV      R0,R6
   \   0000017C   190100EF           SWI      +281
    119          					fclose( f );
   \   00000180   0600A0E1           MOV      R0,R6
   \   00000184   170100EF           SWI      +279
   \                     ??ReWriteShortcut_4:
   \   00000188   0900A0E1           MOV      R0,R9
   \   0000018C   ........           _BLF     `??operator delete`,`??operator delete??rA`
   \   00000190   F18FBDE8           POP      {R0,R4-R11,PC}
    120          				}
    121          			}
    122          			else
    123          			{
    124          				Shortcut_Append( name_buf, mask_buf, path );
   \                     ??ReWriteShortcut_5:
   \   00000194   00009DE5           LDR      R0,[SP, #+0]
   \   00000198   0720A0E1           MOV      R2,R7
   \   0000019C   0610A0E1           MOV      R1,R6
   \   000001A0   ........           BL       ??Shortcut_Append
    125          			}
    126          		}
    127          		delete( str_buf );
   \                     ??ReWriteShortcut_6:
   \   000001A4   0900A0E1           MOV      R0,R9
   \   000001A8   ........           _BLF     `??operator delete`,`??operator delete??rA`
   \   000001AC   F18FBDE8           POP      {R0,R4-R11,PC}
    128          	}
    129          	else
    130          	{
    131          		Shortcut_Append( name_buf, mask_buf, path );
   \                     ??ReWriteShortcut_1:
   \   000001B0   00009DE5           LDR      R0,[SP, #+0]
   \   000001B4   0720A0E1           MOV      R2,R7
   \   000001B8   0610A0E1           MOV      R1,R6
   \   000001BC   ........           BL       ??Shortcut_Append
    132          	}
    133          }
   \   000001C0   F18FBDE8           POP      {R0,R4-R11,PC}   ;; return
    134          

   \                                 In segment CODE, align 4, keep-with-next
    135          void WriteShortcut( wchar_t* name_buf )
    136          {
   \                     ??WriteShortcut:
   \   00000000   F0412DE9           PUSH     {R4-R8,LR}
    137          	MyBOOK* mbk = (MyBOOK*) FindBook( isBookManager );
    138          	wchar_t* path = get_path();
    139          	char mask_buf[10];
    140          
    141          	int dig_num = ListMenu_GetSelectedItem( mbk->but_list );
    142          
    143          	if ( !ListMenu_GetSelectedItem( mbk->mode_list ) )
   \   00000004   ........           LDR      R8,??DataTable33  ;; `?<Constant "[L_KEY%d]">`
   \   00000008   0040A0E1           MOV      R4,R0
   \   0000000C   ........           LDR      R0,??DataTable7  ;; ??isBookManager
   \   00000010   0CD04DE2           SUB      SP,SP,#+12
   \   00000014   300100EF           SWI      +304
   \   00000018   0050A0E1           MOV      R5,R0
   \   0000001C   ........           _BLF     ??get_path,??get_path??rA
   \   00000020   0060A0E1           MOV      R6,R0
   \   00000024   580095E5           LDR      R0,[R5, #+88]
   \   00000028   3E0100EF           SWI      +318
   \   0000002C   0070A0E1           MOV      R7,R0
   \   00000030   540095E5           LDR      R0,[R5, #+84]
   \   00000034   3E0100EF           SWI      +318
   \   00000038   000050E3           CMP      R0,#+0
   \   0000003C   BC08D5E1           LDRH     R0,[R5, #+140]
   \   00000040   1600001A           BNE      ??WriteShortcut_1
    144          	{
    145          		if ( mbk->ActiveTAB==BOOKLIST || ShortcutsMode )
   \   00000044   000050E3           CMP      R0,#+0
   \   00000048   0300000A           BEQ      ??WriteShortcut_2
   \   0000004C   ........           LDR      R0,??DataTable34  ;; ShortcutsMode
   \   00000050   000090E5           LDR      R0,[R0, #+0]
   \   00000054   000050E3           CMP      R0,#+0
   \   00000058   0200000A           BEQ      ??WriteShortcut_3
    146          			sprintf( mask_buf, "[S_KEY%d]", dig_num );
   \                     ??WriteShortcut_2:
   \   0000005C   0720A0E1           MOV      R2,R7
   \   00000060   AC1088E2           ADD      R1,R8,#+172
   \   00000064   010000EA           B        ??WriteShortcut_4
    147          		else
    148          			sprintf( mask_buf, "[ES_KEY%d]", dig_num );
   \                     ??WriteShortcut_3:
   \   00000068   0720A0E1           MOV      R2,R7
   \   0000006C   B81088E2           ADD      R1,R8,#+184
   \                     ??WriteShortcut_4:
   \   00000070   0D00A0E1           MOV      R0,SP
   \   00000074   140100EF           SWI      +276
    149          
    150          		ReWriteShortcut( mbk, name_buf, mask_buf, path );
   \   00000078   0630A0E1           MOV      R3,R6
   \   0000007C   0D20A0E1           MOV      R2,SP
   \   00000080   0410A0E1           MOV      R1,R4
   \   00000084   0500A0E1           MOV      R0,R5
   \   00000088   ........           BL       ??ReWriteShortcut
    151          	}
    152          	else
    153          	{
    154          		if ( mbk->ActiveTAB==BOOKLIST || ShortcutsMode )
    155          			sprintf( mask_buf, "[L_KEY%d]", dig_num );
    156          		else
    157          			sprintf( mask_buf, "[EL_KEY%d]", dig_num );
    158          
    159          		ReWriteShortcut( mbk, name_buf, mask_buf, path );
    160          	}
    161          	delete( path );
   \   0000008C   0600A0E1           MOV      R0,R6
   \   00000090   ........           _BLF     `??operator delete`,`??operator delete??rA`
    162          
    163          	LoadShortcuts(mbk);
   \   00000094   0500A0E1           MOV      R0,R5
   \   00000098   ........           _BLF     ??LoadShortcuts,??LoadShortcuts??rA
    164          }
   \   0000009C   F781BDE8           POP      {R0-R2,R4-R8,PC}  ;; return
   \                     ??WriteShortcut_1:
   \   000000A0   000050E3           CMP      R0,#+0
   \   000000A4   0300000A           BEQ      ??WriteShortcut_5
   \   000000A8   ........           LDR      R0,??DataTable34  ;; ShortcutsMode
   \   000000AC   000090E5           LDR      R0,[R0, #+0]
   \   000000B0   000050E3           CMP      R0,#+0
   \   000000B4   0200000A           BEQ      ??WriteShortcut_6
   \                     ??WriteShortcut_5:
   \   000000B8   0720A0E1           MOV      R2,R7
   \   000000BC   0810A0E1           MOV      R1,R8
   \   000000C0   EAFFFFEA           B        ??WriteShortcut_4
   \                     ??WriteShortcut_6:
   \   000000C4   0720A0E1           MOV      R2,R7
   \   000000C8   C41088E2           ADD      R1,R8,#+196
   \   000000CC   E7FFFFEA           B        ??WriteShortcut_4
    165          

   \                                 In segment CODE, align 4, keep-with-next
    166          void onShortcutSet( BOOK* MainMenu, GUI* )
    167          {
   \                     ??onShortcutSet:
   \   00000000   70402DE9           PUSH     {R4-R6,LR}
   \   00000004   0040A0E1           MOV      R4,R0
    168          	MyBOOK* mbk = (MyBOOK*) FindBook( isBookManager );
   \   00000008   ........           LDR      R0,??DataTable7  ;; ??isBookManager
   \   0000000C   300100EF           SWI      +304
   \   00000010   0050A0E1           MOV      R5,R0
    169          
    170          	wchar_t* name_buf = MenuBook_Desktop_GetSelectedItemID( MainMenu );
   \   00000014   0400A0E1           MOV      R0,R4
   \   00000018   C10200EF           SWI      +705
   \   0000001C   0060B0E1           MOVS     R6,R0
    171          	if ( name_buf )
   \   00000020   0200000A           BEQ      ??onShortcutSet_1
    172          	{
    173          		WriteShortcut( name_buf );
   \   00000024   ........           BL       ??WriteShortcut
    174          		mfree( name_buf );
   \   00000028   0600A0E1           MOV      R0,R6
   \   0000002C   040100EF           SWI      +260
    175          	}
    176          	FreeBook( MainMenu );
   \                     ??onShortcutSet_1:
   \   00000030   0400A0E1           MOV      R0,R4
   \   00000034   2F0100EF           SWI      +303
    177          	BookObj_ReturnPage( mbk, ACCEPT_EVENT );
   \   00000038   ........           LDR      R0,??DataTable13  ;; ACCEPT_EVENT
   \   0000003C   001090E5           LDR      R1,[R0, #+0]
   \   00000040   0500A0E1           MOV      R0,R5
   \   00000044   2E0100EF           SWI      +302
    178          }
   \   00000048   7080BDE8           POP      {R4-R6,PC}       ;; return
    179          
    180          

   \                                 In segment CODE, align 4, keep-with-next
    181          int onPrevious_MainMenu_DB( void* data, BOOK* book )
    182          {
   \                     ??onPrevious_MainMenu_DB:
   \   00000000   00402DE9           PUSH     {LR}
   \   00000004   0100A0E1           MOV      R0,R1
    183          	BookObj_ReturnPage( book, NIL_EVENT );
   \   00000008   ........           LDR      R1,??DataTable15  ;; NIL_EVENT
   \   0000000C   001091E5           LDR      R1,[R1, #+0]
   \   00000010   2E0100EF           SWI      +302
    184          	return 1;
   \   00000014   0100A0E3           MOV      R0,#+1
   \   00000018   0080BDE8           POP      {PC}             ;; return
    185          }
    186          
    187          

   \                                 In segment CODE, align 4, keep-with-next
    188          int onCancel_MainMenu_DB( void* data, BOOK* book )
    189          {
   \                     ??onCancel_MainMenu_DB:
   \   00000000   00402DE9           PUSH     {LR}
   \   00000004   0100A0E1           MOV      R0,R1
    190          	BookObj_ReturnPage( book, CANCEL_EVENT );
   \   00000008   ........           LDR      R1,??DataTable40  ;; CANCEL_EVENT
   \   0000000C   001091E5           LDR      R1,[R1, #+0]
   \   00000010   2E0100EF           SWI      +302
    191          	return 1;
   \   00000014   0100A0E3           MOV      R0,#+1
   \   00000018   0080BDE8           POP      {PC}             ;; return
    192          }
    193          
    194          

   \                                 In segment CODE, align 4, keep-with-next
    195          int CreateMainMenu( void* data, BOOK* book )
    196          {
   \                     ??CreateMainMenu:
   \   00000000   30402DE9           PUSH     {R4,R5,LR}
   \   00000004   04D04DE2           SUB      SP,SP,#+4
   \   00000008   0140A0E1           MOV      R4,R1
    197          	BOOK* MainMenu = MenuBook_Desktop( 1, BookObj_GetBookID( book ) );
   \   0000000C   0400A0E1           MOV      R0,R4
   \   00000010   FA0100EF           SWI      +506
   \   00000014   0010A0E1           MOV      R1,R0
   \   00000018   0100A0E3           MOV      R0,#+1
   \   0000001C   C00200EF           SWI      +704
   \   00000020   0050B0E1           MOVS     R5,R0
    198          	if ( MainMenu )
   \   00000024   1000000A           BEQ      ??CreateMainMenu_1
    199          	{
    200          		( (MyBOOK*) book )->MainMenuID = BookObj_GetBookID( MainMenu );
   \   00000028   FA0100EF           SWI      +506
    201          		BookObj_SoftKeys_SetAction( MainMenu, 0x0, onShortcutSet );
   \   0000002C   50209FE5           LDR      R2,??CreateMainMenu_2  ;; ??onShortcutSet
   \   00000030   800084E5           STR      R0,[R4, #+128]
   \   00000034   0010A0E3           MOV      R1,#+0
   \   00000038   0500A0E1           MOV      R0,R5
   \   0000003C   C20200EF           SWI      +706
    202          		int str_id;
    203          		textidname2id( L"SHC_SET_SHORTCUT_SK", TEXTID_ANY_LEN, &str_id );
   \   00000040   40009FE5           LDR      R0,??CreateMainMenu_2+0x4  ;; `?<Constant L"\\x53\\x48\\x43\\x5f\\x53\\x45\\x54\\x5f\\_1`
   \   00000044   0D20A0E1           MOV      R2,SP
   \   00000048   FF10A0E3           MOV      R1,#+255
   \   0000004C   FF1C81E3           ORR      R1,R1,#0xFF00
   \   00000050   870200EF           SWI      +647
    204          		BookObj_SoftKeys_SetText( MainMenu, 0x0, str_id );
   \   00000054   00209DE5           LDR      R2,[SP, #+0]
   \   00000058   0010A0E3           MOV      R1,#+0
   \   0000005C   0500A0E1           MOV      R0,R5
   \   00000060   C30200EF           SWI      +707
    205          		return 1;
   \   00000064   0100A0E3           MOV      R0,#+1
   \   00000068   3280BDE8           POP      {R1,R4,R5,PC}
    206          	}
    207          	BookObj_ReturnPage( book, ACCEPT_EVENT );
   \                     ??CreateMainMenu_1:
   \   0000006C   ........           LDR      R0,??DataTable13  ;; ACCEPT_EVENT
   \   00000070   001090E5           LDR      R1,[R0, #+0]
   \   00000074   0400A0E1           MOV      R0,R4
   \   00000078   2E0100EF           SWI      +302
    208          	return 0;
   \   0000007C   0000A0E3           MOV      R0,#+0
   \   00000080   3280BDE8           POP      {R1,R4,R5,PC}    ;; return
   \                     ??CreateMainMenu_2:
   \   00000084   ........           DC32     ??onShortcutSet
   \   00000088   ........           DC32     `?<Constant L"\\x53\\x48\\x43\\x5f\\x53\\x45\\x54\\x5f\\_1`
    209          }
    210          

   \                                 In segment CODE, align 4, keep-with-next
    211          int DB_Filter( const wchar_t* ext_table, const wchar_t* path , const wchar_t* name )
    212          {
   \                     ??DB_Filter:
   \   00000000   30402DE9           PUSH     {R4,R5,LR}
   \   00000004   1CD04DE2           SUB      SP,SP,#+28
   \   00000008   0140A0E1           MOV      R4,R1
   \   0000000C   0250A0E1           MOV      R5,R2
    213          	FSTAT _fstat;
    214          
    215          	if ( DataBrowser_isFileInListExt( ext_table, path, name ) )
   \   00000010   270100EF           SWI      +295
   \   00000014   000050E3           CMP      R0,#+0
    216          		return 1;
   \   00000018   0100A013           MOVNE    R0,#+1
   \   0000001C   0600001A           BNE      ??DB_Filter_1
    217          
    218          	fstat( path, name, &_fstat );
   \   00000020   0D20A0E1           MOV      R2,SP
   \   00000024   0510A0E1           MOV      R1,R5
   \   00000028   0400A0E1           MOV      R0,R4
   \   0000002C   1C0100EF           SWI      +284
    219          
    220          	return 0 != ( _fstat.st_mode & FSX_S_IFDIR );
   \   00000030   04009DE5           LDR      R0,[SP, #+4]
   \   00000034   4008A0E1           ASR      R0,R0,#+16
   \   00000038   010000E2           AND      R0,R0,#0x1
   \                     ??DB_Filter_1:
   \   0000003C   1CD08DE2           ADD      SP,SP,#+28       ;; stack cleaning
   \   00000040   3080BDE8           POP      {R4,R5,PC}       ;; return
    221          }
    222          
    223          

   \                                 In segment CODE, align 4, keep-with-next
    224          int onAccept_DB( void* data, BOOK* book )
    225          {
   \                     ??onAccept_DB:
   \   00000000   F0402DE9           PUSH     {R4-R7,LR}
   \   00000004   0040A0E1           MOV      R4,R0
   \   00000008   0150A0E1           MOV      R5,R1
    226          	wchar_t* path_ptr = wstrwstr( FILEITEM_GetPath( ( FILEITEM* )data ), L"ZBin/" );
   \   0000000C   D30200EF           SWI      +723
   \   00000010   98109FE5           LDR      R1,??onAccept_DB_1+0x4  ;; `?<Constant L"\\x5a\\x42\\x69\\x6e\\x2f">`
   \   00000014   9E0200EF           SWI      +670
   \   00000018   0060A0E1           MOV      R6,R0
    227          	wchar_t* elf_buf = new wchar_t[wstrlen( path_ptr + 4 ) + wstrlen( FILEITEM_GetFname( ( FILEITEM* )data ) ) + 1];
   \   0000001C   080086E2           ADD      R0,R6,#+8
   \   00000020   570100EF           SWI      +343
   \   00000024   0070A0E1           MOV      R7,R0
   \   00000028   0400A0E1           MOV      R0,R4
   \   0000002C   D20200EF           SWI      +722
   \   00000030   570100EF           SWI      +343
   \   00000034   070080E0           ADD      R0,R0,R7
   \   00000038   010080E2           ADD      R0,R0,#+1
   \   0000003C   8000A0E1           LSL      R0,R0,#+1
   \   00000040   ........           _BLF     `??operator new[]`,`??operator new[]??rA`
   \   00000044   0070A0E1           MOV      R7,R0
    228          	elf_buf[0] = 0;
   \   00000048   0000A0E3           MOV      R0,#+0
   \   0000004C   B000C7E1           STRH     R0,[R7, #+0]
    229          
    230          	if ( path_ptr )
   \   00000050   000056E3           CMP      R6,#+0
   \   00000054   0200000A           BEQ      ??onAccept_DB_2
    231          		wstrcpy( elf_buf, path_ptr + 4 );
   \   00000058   081086E2           ADD      R1,R6,#+8
   \   0000005C   0700A0E1           MOV      R0,R7
   \   00000060   520100EF           SWI      +338
    232          
    233          	wstrcat( elf_buf, L"/" );
   \                     ??onAccept_DB_2:
   \   00000064   101F8FE2           ADR      R1,??onAccept_DB_1  ;; 0x2F, 0x00, 0x00, 0x00
   \   00000068   0700A0E1           MOV      R0,R7
   \   0000006C   540100EF           SWI      +340
    234          	wstrcat( elf_buf, FILEITEM_GetFname( ( FILEITEM* )data ) );
   \   00000070   0400A0E1           MOV      R0,R4
   \   00000074   D20200EF           SWI      +722
   \   00000078   0010A0E1           MOV      R1,R0
   \   0000007C   0700A0E1           MOV      R0,R7
   \   00000080   540100EF           SWI      +340
    235          	WriteShortcut( elf_buf );
   \   00000084   0700A0E1           MOV      R0,R7
   \   00000088   ........           BL       ??WriteShortcut
    236          	delete( elf_buf );
   \   0000008C   0700A0E1           MOV      R0,R7
   \   00000090   ........           _BLF     `??operator delete`,`??operator delete??rA`
    237          	BookObj_ReturnPage( book, ACCEPT_EVENT );
   \   00000094   ........           LDR      R0,??DataTable13  ;; ACCEPT_EVENT
   \   00000098   001090E5           LDR      R1,[R0, #+0]
   \   0000009C   0500A0E1           MOV      R0,R5
   \   000000A0   2E0100EF           SWI      +302
    238          	return 0;
   \   000000A4   0000A0E3           MOV      R0,#+0
   \   000000A8   F080BDE8           POP      {R4-R7,PC}       ;; return
   \                     ??onAccept_DB_1:
   \   000000AC   2F000000           DC8      0x2F, 0x00, 0x00, 0x00
   \   000000B0   ........           DC32     `?<Constant L"\\x5a\\x42\\x69\\x6e\\x2f">`
    239          }
    240          

   \                                 In segment CODE, align 4, keep-with-next
    241          int CreateDB( void* data, BOOK* book )
    242          {
   \                     ??CreateDB:
   \   00000000   70402DE9           PUSH     {R4-R6,LR}
    243          	void* DB_Desc = DataBrowserDesc_Create();
    244          	const wchar_t* folder_list[3];
    245          	folder_list[0] = GetDir( DIR_ELFS | MEM_INTERNAL );
    246          	folder_list[1] = GetDir( DIR_ELFS | MEM_EXTERNAL );
    247          	folder_list[2] = 0;
    248          	DataBrowserDesc_SetHeaderText( DB_Desc, STR( "ZBin" ) );
   \   00000004   B0609FE5           LDR      R6,??CreateDB_1  ;; `?<Constant L"\\x5a\\x42\\x69\\x6e">`
   \   00000008   0CD04DE2           SUB      SP,SP,#+12
   \   0000000C   0140A0E1           MOV      R4,R1
   \   00000010   1F0100EF           SWI      +287
   \   00000014   0050A0E1           MOV      R5,R0
   \   00000018   1100A0E3           MOV      R0,#+17
   \   0000001C   050100EF           SWI      +261
   \   00000020   00008DE5           STR      R0,[SP, #+0]
   \   00000024   1000A0E3           MOV      R0,#+16
   \   00000028   050100EF           SWI      +261
   \   0000002C   04008DE5           STR      R0,[SP, #+4]
   \   00000030   0010A0E3           MOV      R1,#+0
   \   00000034   08108DE5           STR      R1,[SP, #+8]
   \   00000038   FF20A0E3           MOV      R2,#+255
   \   0000003C   FF2C82E3           ORR      R2,R2,#0xFF00
   \   00000040   0600A0E1           MOV      R0,R6
   \   00000044   5D0100EF           SWI      +349
   \   00000048   0010A0E1           MOV      R1,R0
   \   0000004C   0500A0E1           MOV      R0,R5
   \   00000050   210100EF           SWI      +289
    249          	DataBrowserDesc_SetBookID( DB_Desc, BookObj_GetBookID( book ) );
   \   00000054   0400A0E1           MOV      R0,R4
   \   00000058   FA0100EF           SWI      +506
   \   0000005C   0010A0E1           MOV      R1,R0
   \   00000060   0500A0E1           MOV      R0,R5
   \   00000064   AD0200EF           SWI      +685
    250          	DataBrowserDesc_SetFolders( DB_Desc, folder_list );
   \   00000068   0D10A0E1           MOV      R1,SP
   \   0000006C   0500A0E1           MOV      R0,R5
   \   00000070   220100EF           SWI      +290
    251          	DataBrowserDesc_SetFileExtList( DB_Desc, L"*.elf" );
   \   00000074   0C1086E2           ADD      R1,R6,#+12
   \   00000078   0500A0E1           MOV      R0,R5
   \   0000007C   B10200EF           SWI      +689
    252          	DataBrowserDesc_SetItemFilter( DB_Desc, DB_Filter );
   \   00000080   38109FE5           LDR      R1,??CreateDB_1+0x4  ;; ??DB_Filter
   \   00000084   0500A0E1           MOV      R0,R5
   \   00000088   AE0200EF           SWI      +686
    253          	DataBrowserDesc_SetFoldersNumber( DB_Desc, 2 );
   \   0000008C   0210A0E3           MOV      R1,#+2
   \   00000090   0500A0E1           MOV      R0,R5
   \   00000094   A90200EF           SWI      +681
    254          	DataBrowserDesc_SetSelectAction( DB_Desc, 1 );
   \   00000098   0110A0E3           MOV      R1,#+1
   \   0000009C   0500A0E1           MOV      R0,R5
   \   000000A0   AB0200EF           SWI      +683
    255          	DataBrowser_Create( DB_Desc );
   \   000000A4   0500A0E1           MOV      R0,R5
   \   000000A8   240100EF           SWI      +292
    256          	DataBrowserDesc_Destroy( DB_Desc );
   \   000000AC   0500A0E1           MOV      R0,R5
   \   000000B0   250100EF           SWI      +293
    257          	return 0;
   \   000000B4   0000A0E3           MOV      R0,#+0
   \   000000B8   7E80BDE8           POP      {R1-R6,PC}       ;; return
   \                     ??CreateDB_1:
   \   000000BC   ........           DC32     `?<Constant L"\\x5a\\x42\\x69\\x6e">`
   \   000000C0   ........           DC32     ??DB_Filter
    258          }
    259          
    260          

   \                                 In segment CODE, align 4, keep-with-next
    261          void onEnter_JavaList( BOOK* book, GUI* )
    262          {
   \                     ??onEnter_JavaList:
   \   00000000   F0402DE9           PUSH     {R4-R7,LR}
   \   00000004   0040A0E1           MOV      R4,R0
    263          	MyBOOK* mbk = (MyBOOK*) book;
    264          	java_list_elem* elem = (java_list_elem*) List_Get( mbk->java_list, ListMenu_GetSelectedItem( mbk->java_list_menu ) );
   \   00000008   480094E5           LDR      R0,[R4, #+72]
   \   0000000C   3E0100EF           SWI      +318
   \   00000010   0010A0E1           MOV      R1,R0
   \   00000014   440094E5           LDR      R0,[R4, #+68]
   \   00000018   AD0100EF           SWI      +429
   \   0000001C   0050A0E1           MOV      R5,R0
    265          	int java_buf_len = wstrlen( elem->name ) + wstrlen( elem->hash_name ) + 10;
   \   00000020   000095E5           LDR      R0,[R5, #+0]
   \   00000024   570100EF           SWI      +343
   \   00000028   0060A0E1           MOV      R6,R0
   \   0000002C   080095E5           LDR      R0,[R5, #+8]
   \   00000030   570100EF           SWI      +343
   \   00000034   060080E0           ADD      R0,R0,R6
   \   00000038   0A6080E2           ADD      R6,R0,#+10
    266          	wchar_t* java_buf = new wchar_t[java_buf_len];
   \   0000003C   8600A0E1           LSL      R0,R6,#+1
   \   00000040   ........           _BLF     `??operator new[]`,`??operator new[]??rA`
    267          	snwprintf( java_buf, java_buf_len, L"java:%ls//%ls", elem->name, elem->hash_name );
   \   00000044   3C209FE5           LDR      R2,??onEnter_JavaList_1  ;; `?<Constant L"\\x6a\\x61\\x76\\x61\\x3a\\x25\\x6c\\x73\\`
   \   00000048   0070A0E1           MOV      R7,R0
   \   0000004C   080095E5           LDR      R0,[R5, #+8]
   \   00000050   0610A0E1           MOV      R1,R6
   \   00000054   01002DE9           PUSH     {R0}
   \   00000058   003095E5           LDR      R3,[R5, #+0]
   \   0000005C   0700A0E1           MOV      R0,R7
   \   00000060   150100EF           SWI      +277
    268          
    269          	WriteShortcut( java_buf );
   \   00000064   0700A0E1           MOV      R0,R7
   \   00000068   ........           BL       ??WriteShortcut
    270          	delete( java_buf );
   \   0000006C   0700A0E1           MOV      R0,R7
   \   00000070   ........           _BLF     `??operator delete`,`??operator delete??rA`
    271          	BookObj_ReturnPage( mbk, ACCEPT_EVENT );
   \   00000074   ........           LDR      R0,??DataTable13  ;; ACCEPT_EVENT
   \   00000078   001090E5           LDR      R1,[R0, #+0]
   \   0000007C   0400A0E1           MOV      R0,R4
   \   00000080   2E0100EF           SWI      +302
    272          }
   \   00000084   F180BDE8           POP      {R0,R4-R7,PC}    ;; return
   \                     ??onEnter_JavaList_1:
   \   00000088   ........           DC32     `?<Constant L"\\x6a\\x61\\x76\\x61\\x3a\\x25\\x6c\\x73\\`
    273          
    274          

   \                                 In segment CODE, align 4, keep-with-next
    275          void JavaList_Cancel_Action( BOOK* book, GUI* )
    276          {
    277          	BookObj_ReturnPage( book, CANCEL_EVENT );
   \                     ??JavaList_Cancel_Action:
   \   00000000   ........           LDR      R1,??DataTable40  ;; CANCEL_EVENT
   \   00000004   00402DE9           PUSH     {LR}
   \   00000008   001091E5           LDR      R1,[R1, #+0]
   \   0000000C   2E0100EF           SWI      +302
    278          }
   \   00000010   0080BDE8           POP      {PC}             ;; return
    279          
    280          

   \                                 In segment CODE, align 4, keep-with-next
    281          void JavaList_Prev_Action( BOOK* book, GUI* )
    282          {
    283          	BookObj_ReturnPage( book, NIL_EVENT );
   \                     ??JavaList_Prev_Action:
   \   00000000   ........           LDR      R1,??DataTable15  ;; NIL_EVENT
   \   00000004   00402DE9           PUSH     {LR}
   \   00000008   001091E5           LDR      R1,[R1, #+0]
   \   0000000C   2E0100EF           SWI      +302
    284          }
   \   00000010   0080BDE8           POP      {PC}             ;; return
    285          
    286          

   \                                 In segment CODE, align 4, keep-with-next
    287          void elem_free( void* elem )
    288          {
   \                     ??elem_free:
   \   00000000   10402DE9           PUSH     {R4,LR}
   \   00000004   0040A0E1           MOV      R4,R0
    289          	java_list_elem* lm = (java_list_elem*) elem;
    290          
    291          	if ( lm->name )
   \   00000008   000094E5           LDR      R0,[R4, #+0]
   \   0000000C   000050E3           CMP      R0,#+0
   \   00000010   0000000A           BEQ      ??elem_free_1
    292          		delete( lm->name );
   \   00000014   ........           _BLF     `??operator delete`,`??operator delete??rA`
    293          
    294          	if ( lm->fullpath )
   \                     ??elem_free_1:
   \   00000018   040094E5           LDR      R0,[R4, #+4]
   \   0000001C   000050E3           CMP      R0,#+0
   \   00000020   0000000A           BEQ      ??elem_free_2
    295          		delete( lm->fullpath );
   \   00000024   ........           _BLF     `??operator delete`,`??operator delete??rA`
    296          
    297          	if ( lm->hash_name )
   \                     ??elem_free_2:
   \   00000028   080094E5           LDR      R0,[R4, #+8]
   \   0000002C   000050E3           CMP      R0,#+0
   \   00000030   0000000A           BEQ      ??elem_free_3
    298          		delete( lm->hash_name );
   \   00000034   ........           _BLF     `??operator delete`,`??operator delete??rA`
    299          
    300          	if ( lm->imageID!=NOIMAGE )
   \                     ??elem_free_3:
   \   00000038   BC00D4E1           LDRH     R0,[R4, #+12]
   \   0000003C   FF10A0E3           MOV      R1,#+255
   \   00000040   FF1C81E3           ORR      R1,R1,#0xFF00
   \   00000044   010050E1           CMP      R0,R1
   \   00000048   0000000A           BEQ      ??elem_free_4
    301          		ImageID_Free( lm->imageID );
   \   0000004C   CD0200EF           SWI      +717
    302          
    303          	delete( lm );
   \                     ??elem_free_4:
   \   00000050   0400A0E1           MOV      R0,R4
   \   00000054   1040BDE8           POP      {R4,LR}          ;; Pop
   \   00000058   ........           _BF      `??operator delete`,`??operator delete??rA`  ;; tailcall
    304          }
    305          

   \                                 In segment CODE, align 4, keep-with-next
    306          int elem_filter( void* elem )
    307          {
    308          	return elem!= NULL;
   \                     ??elem_filter:
   \   00000000   000050E3           CMP      R0,#+0
   \   00000004   0100A013           MOVNE    R0,#+1
   \   00000008   1EFF2FE1           BX       LR               ;; return
    309          }
    310          
    311          

   \                                 In segment CODE, align 4, keep-with-next
    312          int onExit_JavaList( void* data, BOOK* book )
    313          {
   \                     ??onExit_JavaList:
   \   00000000   30402DE9           PUSH     {R4,R5,LR}
   \   00000004   0140A0E1           MOV      R4,R1
    314          	MyBOOK* mbk = (MyBOOK*) book;
    315          
    316          	if ( mbk->java_list_menu )
   \   00000008   480094E5           LDR      R0,[R4, #+72]
   \   0000000C   0050A0E3           MOV      R5,#+0
   \   00000010   000050E3           CMP      R0,#+0
   \   00000014   0100000A           BEQ      ??onExit_JavaList_1
    317          	{
    318          		GUIObject_Destroy( mbk->java_list_menu );
   \   00000018   CE0100EF           SWI      +462
    319          		mbk->java_list_menu = 0;
   \   0000001C   485084E5           STR      R5,[R4, #+72]
    320          	}
    321          
    322          	if ( mbk->java_list )
   \                     ??onExit_JavaList_1:
   \   00000020   440094E5           LDR      R0,[R4, #+68]
   \   00000024   000050E3           CMP      R0,#+0
   \   00000028   3080BD08           POPEQ    {R4,R5,PC}
    323          	{
    324          		List_DestroyElements( mbk->java_list, elem_filter, elem_free );
   \   0000002C   ........           LDR      R2,??DataTable18  ;; ??elem_free
   \   00000030   ........           LDR      R1,??DataTable19  ;; ??elem_filter
   \   00000034   970200EF           SWI      +663
    325          		List_Destroy( mbk->java_list );
   \   00000038   440094E5           LDR      R0,[R4, #+68]
   \   0000003C   6A0100EF           SWI      +362
    326          		mbk->java_list = 0;
   \   00000040   445084E5           STR      R5,[R4, #+68]
    327          	}
    328          	return 0;
   \   00000044   0000A0E3           MOV      R0,#+0
   \   00000048   3080BDE8           POP      {R4,R5,PC}       ;; return
    329          }
    330          
    331          

   \                                 In segment CODE, align 4, keep-with-next
    332          int java_list_callback( GUI_MESSAGE* msg )
    333          {
   \                     ??java_list_callback:
   \   00000000   30402DE9           PUSH     {R4,R5,LR}
   \   00000004   0040A0E1           MOV      R4,R0
    334          	MyBOOK* mbk = (MyBOOK*) GUIonMessage_GetBook( msg );
   \   00000008   750300EF           SWI      +885
   \   0000000C   0050A0E1           MOV      R5,R0
    335          
    336          	switch( GUIonMessage_GetMsg( msg ) )
   \   00000010   0400A0E1           MOV      R0,R4
   \   00000014   740300EF           SWI      +884
   \   00000018   010050E3           CMP      R0,#+1
   \   0000001C   1400001A           BNE      ??java_list_callback_1
    337          	{
    338          	case LISTMSG_GetItem:
    339          		java_list_elem* elem = (java_list_elem*) List_Get( mbk->java_list, GUIonMessage_GetCreatedItemIndex( msg ) );
   \   00000020   0400A0E1           MOV      R0,R4
   \   00000024   370100EF           SWI      +311
   \   00000028   0010A0E1           MOV      R1,R0
   \   0000002C   440095E5           LDR      R0,[R5, #+68]
   \   00000030   AD0100EF           SWI      +429
   \   00000034   0050A0E1           MOV      R5,R0
    340          		GUIonMessage_SetMenuItemText( msg, TextID_Create( elem->name, ENC_UCS2, TEXTID_ANY_LEN ) );
   \   00000038   000095E5           LDR      R0,[R5, #+0]
   \   0000003C   FF20A0E3           MOV      R2,#+255
   \   00000040   FF2C82E3           ORR      R2,R2,#0xFF00
   \   00000044   0010A0E3           MOV      R1,#+0
   \   00000048   5D0100EF           SWI      +349
   \   0000004C   0010A0E1           MOV      R1,R0
   \   00000050   0400A0E1           MOV      R0,R4
   \   00000054   380100EF           SWI      +312
    341          		JavaApp_LogoImageID_Get( elem->fullpath, &elem->imageID );
   \   00000058   040095E5           LDR      R0,[R5, #+4]
   \   0000005C   0C1085E2           ADD      R1,R5,#+12
   \   00000060   0C0300EF           SWI      +780
    342          		GUIonMessage_SetMenuItemIcon( msg, 0, elem->imageID );
   \   00000064   BC20D5E1           LDRH     R2,[R5, #+12]
   \   00000068   0010A0E3           MOV      R1,#+0
   \   0000006C   0400A0E1           MOV      R0,R4
   \   00000070   3C0100EF           SWI      +316
    343          	}
    344          	return 1;
   \                     ??java_list_callback_1:
   \   00000074   0100A0E3           MOV      R0,#+1
   \   00000078   3080BDE8           POP      {R4,R5,PC}       ;; return
    345          }
    346          
    347          

   \                                 In segment CODE, align 4, keep-with-next
    348          java_list_elem* CreateElem( void* JavaDesc )
    349          {
   \                     ??CreateElem:
   \   00000000   30402DE9           PUSH     {R4,R5,LR}
   \   00000004   04D04DE2           SUB      SP,SP,#+4
   \   00000008   0040A0E1           MOV      R4,R0
    350          	java_list_elem* elem = new java_list_elem;
   \   0000000C   1000A0E3           MOV      R0,#+16
   \   00000010   ........           _BLF     `??operator new`,`??operator new??rA`
   \   00000014   0050A0E1           MOV      R5,R0
    351          	wchar_t* sp;
    352          	JavaAppDesc_GetJavaAppInfo( JavaDesc, 0, &sp );
   \   00000018   0D20A0E1           MOV      R2,SP
   \   0000001C   0010A0E3           MOV      R1,#+0
   \   00000020   0400A0E1           MOV      R0,R4
   \   00000024   DB0200EF           SWI      +731
    353          	elem->name = sp;
   \   00000028   00009DE5           LDR      R0,[SP, #+0]
    354          	JavaAppDesc_GetJavaAppInfo( JavaDesc, 5, &sp );
   \   0000002C   0D20A0E1           MOV      R2,SP
   \   00000030   000085E5           STR      R0,[R5, #+0]
   \   00000034   0510A0E3           MOV      R1,#+5
   \   00000038   0400A0E1           MOV      R0,R4
   \   0000003C   DB0200EF           SWI      +731
    355          	elem->fullpath = sp;
   \   00000040   00009DE5           LDR      R0,[SP, #+0]
    356          	JavaAppDesc_GetJavaAppInfo( JavaDesc, 4, &sp );
   \   00000044   0D20A0E1           MOV      R2,SP
   \   00000048   040085E5           STR      R0,[R5, #+4]
   \   0000004C   0410A0E3           MOV      R1,#+4
   \   00000050   0400A0E1           MOV      R0,R4
   \   00000054   DB0200EF           SWI      +731
    357          	elem->hash_name = sp;
   \   00000058   00009DE5           LDR      R0,[SP, #+0]
   \   0000005C   080085E5           STR      R0,[R5, #+8]
    358          	return elem;
   \   00000060   0500A0E1           MOV      R0,R5
   \   00000064   3280BDE8           POP      {R1,R4,R5,PC}    ;; return
    359          }
    360          
    361          

   \                                 In segment CODE, align 4, keep-with-next
    362          int CreateJavaList( void* data, BOOK* book )
    363          {
   \                     ??CreateJavaList:
   \   00000000   10402DE9           PUSH     {R4,LR}
   \   00000004   0CD04DE2           SUB      SP,SP,#+12
   \   00000008   0140A0E1           MOV      R4,R1
    364          	MyBOOK* mbk = (MyBOOK*) book;
    365          
    366          	if ( mbk->java_list )
   \   0000000C   440094E5           LDR      R0,[R4, #+68]
   \   00000010   000050E3           CMP      R0,#+0
   \   00000014   0400000A           BEQ      ??CreateJavaList_1
    367          	{
    368          		List_DestroyElements( mbk->java_list, elem_filter, elem_free );
   \   00000018   ........           LDR      R2,??DataTable18  ;; ??elem_free
   \   0000001C   ........           LDR      R1,??DataTable19  ;; ??elem_filter
   \   00000020   970200EF           SWI      +663
    369          		List_Destroy( mbk->java_list );
   \   00000024   440094E5           LDR      R0,[R4, #+68]
   \   00000028   6A0100EF           SWI      +362
    370          	}
    371          
    372          	mbk->java_list = List_Create();
   \                     ??CreateJavaList_1:
   \   0000002C   690100EF           SWI      +361
   \   00000030   440084E5           STR      R0,[R4, #+68]
    373          	char sp1;
    374          	wchar_t* sp;
    375          	void* JavaDesc;
    376          	JavaDialog_Open( 0, &sp1, &JavaDesc );
   \   00000034   0D20A0E1           MOV      R2,SP
   \   00000038   08108DE2           ADD      R1,SP,#+8
   \   0000003C   0000A0E3           MOV      R0,#+0
   \   00000040   D60200EF           SWI      +726
    377          
    378          	if ( !JavaAppDesc_GetFirstApp( JavaDesc ) )
   \   00000044   00009DE5           LDR      R0,[SP, #+0]
   \   00000048   D90200EF           SWI      +729
   \   0000004C   000050E3           CMP      R0,#+0
   \   00000050   1200001A           BNE      ??CreateJavaList_2
    379          	{
    380          		int result = 0;
    381          		while ( !result )
    382          		{
    383          			//check if semclet
    384          			JavaAppDesc_GetJavaAppInfo( JavaDesc, 6, &sp );
   \                     ??CreateJavaList_3:
   \   00000054   00009DE5           LDR      R0,[SP, #+0]
   \   00000058   04208DE2           ADD      R2,SP,#+4
   \   0000005C   0610A0E3           MOV      R1,#+6
   \   00000060   DB0200EF           SWI      +731
    385          			if (sp[0])
   \   00000064   04009DE5           LDR      R0,[SP, #+4]
   \   00000068   B000D0E1           LDRH     R0,[R0, #+0]
   \   0000006C   000050E3           CMP      R0,#+0
   \   00000070   0400000A           BEQ      ??CreateJavaList_4
    386          			{
    387          				List_InsertLast( mbk->java_list, CreateElem( JavaDesc ) );
   \   00000074   00009DE5           LDR      R0,[SP, #+0]
   \   00000078   ........           BL       ??CreateElem
   \   0000007C   0010A0E1           MOV      R1,R0
   \   00000080   440094E5           LDR      R0,[R4, #+68]
   \   00000084   B00100EF           SWI      +432
    388          			}
    389          			delete(sp);
   \                     ??CreateJavaList_4:
   \   00000088   04009DE5           LDR      R0,[SP, #+4]
   \   0000008C   ........           _BLF     `??operator delete`,`??operator delete??rA`
    390          			result = JavaAppDesc_GetNextApp( JavaDesc );
    391          		}
   \   00000090   00009DE5           LDR      R0,[SP, #+0]
   \   00000094   DA0200EF           SWI      +730
   \   00000098   000050E3           CMP      R0,#+0
   \   0000009C   ECFFFF0A           BEQ      ??CreateJavaList_3
    392          	}
    393          
    394          	JavaDialog_Close( sp1 );
   \                     ??CreateJavaList_2:
   \   000000A0   0800DDE5           LDRB     R0,[SP, #+8]
   \   000000A4   D70200EF           SWI      +727
    395          
    396          	if ( mbk->java_list_menu )
   \   000000A8   480094E5           LDR      R0,[R4, #+72]
   \   000000AC   000050E3           CMP      R0,#+0
   \   000000B0   0000000A           BEQ      ??CreateJavaList_5
    397          		GUIObject_Destroy( mbk->java_list_menu );
   \   000000B4   CE0100EF           SWI      +462
    398          
    399          	mbk->java_list_menu = CreateListMenu( book, 0 );
   \                     ??CreateJavaList_5:
   \   000000B8   0010A0E3           MOV      R1,#+0
   \   000000BC   0400A0E1           MOV      R0,R4
   \   000000C0   C00100EF           SWI      +448
   \   000000C4   480084E5           STR      R0,[R4, #+72]
    400          	GUIObject_SetTitleText( mbk->java_list_menu, STR( "Java" ) );
   \   000000C8   A4009FE5           LDR      R0,??CreateJavaList_6  ;; `?<Constant L"\\x42\\x75\\x74\\x74\\x6f\\x6e\\x73">` + 72
   \   000000CC   FF20A0E3           MOV      R2,#+255
   \   000000D0   FF2C82E3           ORR      R2,R2,#0xFF00
   \   000000D4   0010A0E3           MOV      R1,#+0
   \   000000D8   5D0100EF           SWI      +349
   \   000000DC   0010A0E1           MOV      R1,R0
   \   000000E0   480094E5           LDR      R0,[R4, #+72]
   \   000000E4   330100EF           SWI      +307
    401          	ListMenu_SetItemCount( mbk->java_list_menu, mbk->java_list->FirstFree );
   \   000000E8   440094E5           LDR      R0,[R4, #+68]
   \   000000EC   B210D0E1           LDRH     R1,[R0, #+2]
   \   000000F0   480094E5           LDR      R0,[R4, #+72]
   \   000000F4   C10100EF           SWI      +449
    402          	ListMenu_SetOnMessage( mbk->java_list_menu, java_list_callback );
   \   000000F8   78109FE5           LDR      R1,??CreateJavaList_6+0x4  ;; ??java_list_callback
   \   000000FC   480094E5           LDR      R0,[R4, #+72]
   \   00000100   740100EF           SWI      +372
    403          	ListMenu_SetCursorToItem( mbk->java_list_menu, 0 );
   \   00000104   480094E5           LDR      R0,[R4, #+72]
   \   00000108   0010A0E3           MOV      R1,#+0
   \   0000010C   350100EF           SWI      +309
    404          	GUIObject_SoftKeys_SetAction( mbk->java_list_menu, ACTION_BACK, JavaList_Prev_Action );
   \   00000110   ........           LDR      R0,??DataTable43  ;; ACTION_BACK
   \   00000114   60209FE5           LDR      R2,??CreateJavaList_6+0x8  ;; ??JavaList_Prev_Action
   \   00000118   001090E5           LDR      R1,[R0, #+0]
   \   0000011C   480094E5           LDR      R0,[R4, #+72]
   \   00000120   0118A0E1           MOV      R1,R1, LSL #+16
   \   00000124   2118A0E1           MOV      R1,R1, LSR #+16
   \   00000128   4B0100EF           SWI      +331
    405          	GUIObject_SoftKeys_SetAction( mbk->java_list_menu, ACTION_LONG_BACK, JavaList_Cancel_Action );
   \   0000012C   ........           LDR      R0,??DataTable44  ;; ACTION_LONG_BACK
   \   00000130   48209FE5           LDR      R2,??CreateJavaList_6+0xC  ;; ??JavaList_Cancel_Action
   \   00000134   001090E5           LDR      R1,[R0, #+0]
   \   00000138   480094E5           LDR      R0,[R4, #+72]
   \   0000013C   0118A0E1           MOV      R1,R1, LSL #+16
   \   00000140   2118A0E1           MOV      R1,R1, LSR #+16
   \   00000144   4B0100EF           SWI      +331
    406          	GUIObject_SoftKeys_SetAction( mbk->java_list_menu, ACTION_SELECT1, onEnter_JavaList );
   \   00000148   ........           LDR      R0,??DataTable45  ;; ACTION_SELECT1
   \   0000014C   30209FE5           LDR      R2,??CreateJavaList_6+0x10  ;; ??onEnter_JavaList
   \   00000150   001090E5           LDR      R1,[R0, #+0]
   \   00000154   480094E5           LDR      R0,[R4, #+72]
   \   00000158   0118A0E1           MOV      R1,R1, LSL #+16
   \   0000015C   2118A0E1           MOV      R1,R1, LSR #+16
   \   00000160   4B0100EF           SWI      +331
    407          	GUIObject_Show( mbk->java_list_menu );
   \   00000164   480094E5           LDR      R0,[R4, #+72]
   \   00000168   340100EF           SWI      +308
    408          	return 0;
   \   0000016C   0000A0E3           MOV      R0,#+0
   \   00000170   1E80BDE8           POP      {R1-R4,PC}       ;; return
   \                     ??CreateJavaList_6:
   \   00000174   ........           DC32     `?<Constant L"\\x42\\x75\\x74\\x74\\x6f\\x6e\\x73">` + 72
   \   00000178   ........           DC32     ??java_list_callback
   \   0000017C   ........           DC32     ??JavaList_Prev_Action
   \   00000180   ........           DC32     ??JavaList_Cancel_Action
   \   00000184   ........           DC32     ??onEnter_JavaList
    409          }
    410          
    411          

   \                                 In segment CODE, align 4, keep-with-next
    412          void But_SetJava( BOOK* book, GUI* )
    413          {
    414          	BookObj_CallPage( book, &ChangeShortcuts_SetJava_page );
   \                     ??But_SetJava:
   \   00000000   08109FE5           LDR      R1,??But_SetJava_1  ;; ChangeShortcuts_SetJava_page
   \   00000004   00402DE9           PUSH     {LR}
   \   00000008   B80200EF           SWI      +696
    415          }
   \   0000000C   0080BDE8           POP      {PC}             ;; return
   \                     ??But_SetJava_1:
   \   00000010   ........           DC32     ChangeShortcuts_SetJava_page
    416          
    417          

   \                                 In segment CODE, align 4, keep-with-next
    418          void DestroyButList( BOOK* book, GUI* )
    419          {
    420          	BookObj_ReturnPage( book, PREVIOUS_EVENT );
   \                     ??DestroyButList:
   \   00000000   0C109FE5           LDR      R1,??DestroyButList_1  ;; PREVIOUS_EVENT
   \   00000004   00402DE9           PUSH     {LR}
   \   00000008   001091E5           LDR      R1,[R1, #+0]
   \   0000000C   2E0100EF           SWI      +302
    421          }
   \   00000010   0080BDE8           POP      {PC}             ;; return
   \                     ??DestroyButList_1:
   \   00000014   ........           DC32     PREVIOUS_EVENT
    422          
    423          

   \                                 In segment CODE, align 4, keep-with-next
    424          void * SHORTCUT_DESC_Init(char * param)
    425          {
   \                     ??SHORTCUT_DESC_Init:
   \   00000000   30402DE9           PUSH     {R4,R5,LR}
   \   00000004   34D04DE2           SUB      SP,SP,#+52
   \   00000008   0040A0E1           MOV      R4,R0
    426          	SHORTCUT_DESC * w_buf = new SHORTCUT_DESC;
   \   0000000C   6800A0E3           MOV      R0,#+104
   \   00000010   ........           _BLF     `??operator new`,`??operator new??rA`
   \   00000014   0050A0E1           MOV      R5,R0
    427          	memset( w_buf, 0, sizeof(w_buf) );
   \   00000018   0420A0E3           MOV      R2,#+4
   \   0000001C   0010A0E3           MOV      R1,#+0
   \   00000020   120100EF           SWI      +274
    428          	w_buf->shortcut_state = SC_State_Activated;
   \   00000024   0200A0E3           MOV      R0,#+2
   \   00000028   B406C5E1           STRH     R0,[R5, #+100]
    429          
    430          	if ( strlen( param ) < 0x32 )
   \   0000002C   0400A0E1           MOV      R0,R4
   \   00000030   5A0100EF           SWI      +346
   \   00000034   320050E3           CMP      R0,#+50
    431          	{
    432          		str2wstr( w_buf->name, param );
   \   00000038   0410A0B1           MOVLT    R1,R4
   \   0000003C   060000BA           BLT      ??SHORTCUT_DESC_Init_1
    433          	}
    434          	else
    435          	{
    436          		char temp_buf[0x32];
    437          		strncpy( temp_buf, param, MAXELEMS(temp_buf) - 1 );
   \   00000040   3120A0E3           MOV      R2,#+49
   \   00000044   0410A0E1           MOV      R1,R4
   \   00000048   0D00A0E1           MOV      R0,SP
   \   0000004C   7F0200EF           SWI      +639
    438          		temp_buf[ MAXELEMS(temp_buf) - 1 ] = 0;
   \   00000050   0010A0E3           MOV      R1,#+0
   \   00000054   3110CDE5           STRB     R1,[SP, #+49]
    439          		str2wstr( w_buf->name, temp_buf );
   \   00000058   0D10A0E1           MOV      R1,SP
   \                     ??SHORTCUT_DESC_Init_1:
   \   0000005C   0500A0E1           MOV      R0,R5
   \   00000060   580100EF           SWI      +344
    440          	}
    441          	if (!wstrcmp(w_buf->name,L"MainMenu")) w_buf->shortcut_state = SC_State_MainMenu;
   \   00000064   ........           LDR      R1,??DataTable28  ;; `?<Constant L"\\x4d\\x61\\x69\\x6e\\x4d\\x65\\x6e\\x75"`
   \   00000068   0500A0E1           MOV      R0,R5
   \   0000006C   560100EF           SWI      +342
   \   00000070   000050E3           CMP      R0,#+0
   \   00000074   0300A003           MOVEQ    R0,#+3
   \   00000078   B406C501           STRHEQ   R0,[R5, #+100]
    442          	return(w_buf);
   \   0000007C   0500A0E1           MOV      R0,R5
   \   00000080   34D08DE2           ADD      SP,SP,#+52
   \   00000084   3080BDE8           POP      {R4,R5,PC}       ;; return
    443          }
    444          
    445          

   \                                 In segment CODE, align 4, keep-with-next
    446          void * SHORTCUT_DESC_A2_Init(char * param)
    447          {
   \                     ??SHORTCUT_DESC_A2_Init:
   \   00000000   30402DE9           PUSH     {R4,R5,LR}
   \   00000004   0040A0E1           MOV      R4,R0
    448          	SHORTCUT_DESC_A2 * w_buf = new SHORTCUT_DESC_A2;
   \   00000008   B800A0E3           MOV      R0,#+184
   \   0000000C   400E80E3           ORR      R0,R0,#0x400
   \   00000010   ........           _BLF     `??operator new`,`??operator new??rA`
   \   00000014   0050A0E1           MOV      R5,R0
    449          	memset( w_buf, 0, sizeof(w_buf) );
   \   00000018   0420A0E3           MOV      R2,#+4
   \   0000001C   0010A0E3           MOV      R1,#+0
   \   00000020   120100EF           SWI      +274
    450          	str2wstr( w_buf->name, param );
   \   00000024   0410A0E1           MOV      R1,R4
   \   00000028   0500A0E1           MOV      R0,R5
   \   0000002C   580100EF           SWI      +344
    451          	if (!wstrcmp(w_buf->name,L"MainMenu")) w_buf->item_type = SC_Type_MainMenu;
   \   00000030   ........           LDR      R1,??DataTable28  ;; `?<Constant L"\\x4d\\x61\\x69\\x6e\\x4d\\x65\\x6e\\x75"`
   \   00000034   0500A0E1           MOV      R0,R5
   \   00000038   560100EF           SWI      +342
   \   0000003C   000050E3           CMP      R0,#+0
   \   00000040   0200A003           MOVEQ    R0,#+2
    452          	else w_buf->item_type = SC_Type_Standard;
   \   00000044   0000A013           MOVNE    R0,#+0
   \   00000048   B404C5E5           STRB     R0,[R5, #+1204]
    453          
    454          	return(w_buf);
   \   0000004C   0500A0E1           MOV      R0,R5
   \   00000050   3080BDE8           POP      {R4,R5,PC}       ;; return
    455          }
    456          

   \                                 In segment CODE, align 4, keep-with-next
    457          int GetShortcutName(MyBOOK * mbk,int item_num,SC_DATA * scdata)
    458          {
   \                     ??GetShortcutName:
   \   00000000   F0412DE9           PUSH     {R4-R8,LR}
   \   00000004   0CD04DE2           SUB      SP,SP,#+12
    459          	char* param = 0;
    460          	char mask_buf[10];
    461          
    462          	if ( !ListMenu_GetSelectedItem( mbk->mode_list ) )
   \   00000008   ........           LDR      R5,??DataTable33  ;; `?<Constant "[L_KEY%d]">`
   \   0000000C   0060A0E1           MOV      R6,R0
   \   00000010   540096E5           LDR      R0,[R6, #+84]
   \   00000014   0170A0E1           MOV      R7,R1
   \   00000018   0240A0E1           MOV      R4,R2
   \   0000001C   3E0100EF           SWI      +318
   \   00000020   000050E3           CMP      R0,#+0
   \   00000024   BC08D6E1           LDRH     R0,[R6, #+140]
   \   00000028   0B00001A           BNE      ??GetShortcutName_1
    463          	{
    464          		if ( mbk->ActiveTAB==BOOKLIST || ShortcutsMode )
   \   0000002C   000050E3           CMP      R0,#+0
   \   00000030   0300000A           BEQ      ??GetShortcutName_2
   \   00000034   ........           LDR      R0,??DataTable34  ;; ShortcutsMode
   \   00000038   000090E5           LDR      R0,[R0, #+0]
   \   0000003C   000050E3           CMP      R0,#+0
   \   00000040   0200000A           BEQ      ??GetShortcutName_3
    465          			sprintf( mask_buf, "[S_KEY%d]", item_num );
   \                     ??GetShortcutName_2:
   \   00000044   0720A0E1           MOV      R2,R7
   \   00000048   AC1085E2           ADD      R1,R5,#+172
   \   0000004C   0D0000EA           B        ??GetShortcutName_4
    466          		else
    467          			sprintf( mask_buf, "[ES_KEY%d]", item_num );
   \                     ??GetShortcutName_3:
   \   00000050   0720A0E1           MOV      R2,R7
   \   00000054   B81085E2           ADD      R1,R5,#+184
   \   00000058   0A0000EA           B        ??GetShortcutName_4
    468          	}
    469          	else
    470          	{
    471          		if ( mbk->ActiveTAB==BOOKLIST || ShortcutsMode )
   \                     ??GetShortcutName_1:
   \   0000005C   000050E3           CMP      R0,#+0
   \   00000060   0300000A           BEQ      ??GetShortcutName_5
   \   00000064   ........           LDR      R0,??DataTable34  ;; ShortcutsMode
   \   00000068   000090E5           LDR      R0,[R0, #+0]
   \   0000006C   000050E3           CMP      R0,#+0
   \   00000070   0200000A           BEQ      ??GetShortcutName_6
    472          			sprintf( mask_buf, "[L_KEY%d]", item_num );
   \                     ??GetShortcutName_5:
   \   00000074   0720A0E1           MOV      R2,R7
   \   00000078   0510A0E1           MOV      R1,R5
   \   0000007C   010000EA           B        ??GetShortcutName_4
    473          		else
    474          			sprintf( mask_buf, "[EL_KEY%d]", item_num );
   \                     ??GetShortcutName_6:
   \   00000080   0720A0E1           MOV      R2,R7
   \   00000084   C41085E2           ADD      R1,R5,#+196
   \                     ??GetShortcutName_4:
   \   00000088   0D00A0E1           MOV      R0,SP
   \   0000008C   140100EF           SWI      +276
    475          	}
    476          
    477          	param = manifest_GetParam( mbk->shortcuts_buf, mask_buf, 0);
   \   00000090   240096E5           LDR      R0,[R6, #+36]
   \   00000094   0020A0E3           MOV      R2,#+0
   \   00000098   0D10A0E1           MOV      R1,SP
   \   0000009C   750100EF           SWI      +373
   \   000000A0   0070B0E1           MOVS     R7,R0
    478          
    479          	if ( param )
   \   000000A4   FF80A0E3           MOV      R8,#+255
   \   000000A8   FF8C88E3           ORR      R8,R8,#0xFF00
   \   000000AC   3C00000A           BEQ      ??GetShortcutName_7
    480          	{
    481          		if ( strlen( param ) )
   \   000000B0   5A0100EF           SWI      +346
   \   000000B4   000050E3           CMP      R0,#+0
   \   000000B8   3600000A           BEQ      ??GetShortcutName_8
    482          		{
    483          			if (!scdata)
   \   000000BC   000054E3           CMP      R4,#+0
   \   000000C0   0300001A           BNE      ??GetShortcutName_9
    484          			{
    485          				delete(param);
   \   000000C4   0700A0E1           MOV      R0,R7
   \   000000C8   ........           _BLF     `??operator delete`,`??operator delete??rA`
    486          				return (1);
   \   000000CC   0100A0E3           MOV      R0,#+1
   \   000000D0   FE81BDE8           POP      {R1-R8,PC}       ;; return
    487          			}
    488          			if ( strstr( param, "java:" ) )
   \                     ??GetShortcutName_9:
   \   000000D4   641085E2           ADD      R1,R5,#+100
   \   000000D8   0700A0E1           MOV      R0,R7
   \   000000DC   980200EF           SWI      +664
   \   000000E0   000050E3           CMP      R0,#+0
   \   000000E4   0D00000A           BEQ      ??GetShortcutName_10
    489          			{
    490          				scdata->str_id = TextID_Create( param + 5, ENC_LAT1, strstr( param, "//" ) - ( param + 5 ) );
   \   000000E8   361F8FE2           ADR      R1,??GetShortcutName_11  ;; "//"
   \   000000EC   0700A0E1           MOV      R0,R7
   \   000000F0   980200EF           SWI      +664
   \   000000F4   051087E2           ADD      R1,R7,#+5
   \   000000F8   012040E0           SUB      R2,R0,R1
   \   000000FC   0610A0E3           MOV      R1,#+6
   \   00000100   050087E2           ADD      R0,R7,#+5
   \   00000104   5D0100EF           SWI      +349
   \   00000108   000084E5           STR      R0,[R4, #+0]
    491          				iconidname2id( L"DB_LIST_JAVA_ICN", TEXTID_ANY_LEN, &scdata->icon_id );
   \   0000010C   042084E2           ADD      R2,R4,#+4
   \   00000110   0810A0E1           MOV      R1,R8
   \   00000114   0C0085E2           ADD      R0,R5,#+12
   \   00000118   860200EF           SWI      +646
   \   0000011C   1D0000EA           B        ??GetShortcutName_8
    492          			}
    493          			else
    494          			{
    495          				void * w_buf;
    496          				if (mbk->isA2) w_buf = SHORTCUT_DESC_A2_Init(param);
   \                     ??GetShortcutName_10:
   \   00000120   900096E5           LDR      R0,[R6, #+144]
   \   00000124   000050E3           CMP      R0,#+0
   \   00000128   0700A0E1           MOV      R0,R7
   \   0000012C   0100000A           BEQ      ??GetShortcutName_12
   \   00000130   ........           BL       ??SHORTCUT_DESC_A2_Init
   \   00000134   000000EA           B        ??GetShortcutName_13
    497          				else w_buf = SHORTCUT_DESC_Init(param);
   \                     ??GetShortcutName_12:
   \   00000138   ........           BL       ??SHORTCUT_DESC_Init
   \                     ??GetShortcutName_13:
   \   0000013C   0060A0E1           MOV      R6,R0
    498          
    499          				scdata->str_id = Shortcut_Get_MenuItemName( w_buf );
   \   00000140   E10200EF           SWI      +737
   \   00000144   000084E5           STR      R0,[R4, #+0]
    500          				scdata->icon_id = Shortcut_Get_MenuItemIconID( w_buf );
   \   00000148   0600A0E1           MOV      R0,R6
   \   0000014C   E20200EF           SWI      +738
   \   00000150   040084E5           STR      R0,[R4, #+4]
    501          
    502          				if ( scdata->icon_id == NOIMAGE ) iconidname2id( L"RN_VERT_MY_SHORTCUTS_ICN", TEXTID_ANY_LEN, &scdata->icon_id );
   \   00000154   080050E1           CMP      R0,R8
   \   00000158   0300001A           BNE      ??GetShortcutName_14
   \   0000015C   042084E2           ADD      R2,R4,#+4
   \   00000160   0810A0E1           MOV      R1,R8
   \   00000164   300085E2           ADD      R0,R5,#+48
   \   00000168   860200EF           SWI      +646
    503          
    504          				delete( w_buf );
   \                     ??GetShortcutName_14:
   \   0000016C   0600A0E1           MOV      R0,R6
   \   00000170   ........           _BLF     `??operator delete`,`??operator delete??rA`
    505          
    506          				if ( scdata->str_id == EMPTY_TEXTID ) scdata->str_id = TextID_Create( param, ENC_LAT1, TEXTID_ANY_LEN );
   \   00000174   000094E5           LDR      R0,[R4, #+0]
   \   00000178   9014E0E3           MVN      R1,#-1879048192
   \   0000017C   010050E1           CMP      R0,R1
   \   00000180   0400001A           BNE      ??GetShortcutName_8
   \   00000184   0820A0E1           MOV      R2,R8
   \   00000188   0610A0E3           MOV      R1,#+6
   \   0000018C   0700A0E1           MOV      R0,R7
   \   00000190   5D0100EF           SWI      +349
   \   00000194   000084E5           STR      R0,[R4, #+0]
    507          			}
    508          		}
    509          		delete(param);
   \                     ??GetShortcutName_8:
   \   00000198   0700A0E1           MOV      R0,R7
   \   0000019C   ........           _BLF     `??operator delete`,`??operator delete??rA`
   \   000001A0   060000EA           B        ??GetShortcutName_15
    510          	}
    511          	else
    512          	{
    513          		if (!scdata) return(0);
   \                     ??GetShortcutName_7:
   \   000001A4   000054E3           CMP      R4,#+0
   \   000001A8   0000A003           MOVEQ    R0,#+0
   \   000001AC   FE81BD08           POPEQ    {R1-R8,PC}
    514          		textidname2id( L"SHC_NONE_NAME_TXT", TEXTID_ANY_LEN, &scdata->str_id );
   \   000001B0   0420A0E1           MOV      R2,R4
   \   000001B4   0810A0E1           MOV      R1,R8
   \   000001B8   6C0085E2           ADD      R0,R5,#+108
   \   000001BC   870200EF           SWI      +647
   \                     ??GetShortcutName_15:
   \   000001C0   0000A0E3           MOV      R0,#+0
   \   000001C4   FE81BDE8           POP      {R1-R8,PC}
   \                     ??GetShortcutName_11:
   \   000001C8   2F2F0000           DC8      "//",+0
    515          	}
    516          	return(0);
    517          }
    518          

   \                                 In segment CODE, align 4, keep-with-next
    519          int but_list_callback( GUI_MESSAGE* msg )
    520          {
   \                     ??but_list_callback:
   \   00000000   70402DE9           PUSH     {R4-R6,LR}
   \   00000004   08D04DE2           SUB      SP,SP,#+8
   \   00000008   0040A0E1           MOV      R4,R0
    521          	SC_DATA scdata;
    522          	scdata.str_id = EMPTY_TEXTID;
   \   0000000C   9014E0E3           MVN      R1,#-1879048192
   \   00000010   00108DE5           STR      R1,[SP, #+0]
    523          	scdata.icon_id = NOIMAGE;
   \   00000014   FF10A0E3           MOV      R1,#+255
   \   00000018   FF1C81E3           ORR      R1,R1,#0xFF00
   \   0000001C   04108DE5           STR      R1,[SP, #+4]
    524          	int item_num;
    525          	MyBOOK * mbk = (MyBOOK*) GUIonMessage_GetBook( msg );
   \   00000020   750300EF           SWI      +885
   \   00000024   0050A0E1           MOV      R5,R0
    526          
    527          	switch( GUIonMessage_GetMsg( msg ) )
   \   00000028   0400A0E1           MOV      R0,R4
   \   0000002C   740300EF           SWI      +884
   \   00000030   010050E3           CMP      R0,#+1
   \   00000034   1400001A           BNE      ??but_list_callback_1
    528          	{
    529          	case LISTMSG_GetItem:
    530          		item_num = GUIonMessage_GetCreatedItemIndex( msg );
   \   00000038   0400A0E1           MOV      R0,R4
   \   0000003C   370100EF           SWI      +311
   \   00000040   0060A0E1           MOV      R6,R0
    531          
    532          		GetShortcutName(mbk,item_num,&scdata);
   \   00000044   0D20A0E1           MOV      R2,SP
   \   00000048   0610A0E1           MOV      R1,R6
   \   0000004C   0500A0E1           MOV      R0,R5
   \   00000050   ........           BL       ??GetShortcutName
    533          
    534          		GUIonMessage_SetMenuItemText( msg, scdata.str_id );
   \   00000054   00109DE5           LDR      R1,[SP, #+0]
   \   00000058   0400A0E1           MOV      R0,R4
   \   0000005C   380100EF           SWI      +312
    535          		GUIonMessage_SetMenuItemIcon(msg, 0, mbk->digs_image[item_num].ImageID );
   \   00000060   860085E0           ADD      R0,R5,R6, LSL #+1
   \   00000064   BC26D0E1           LDRH     R2,[R0, #+108]
   \   00000068   0010A0E3           MOV      R1,#+0
   \   0000006C   0400A0E1           MOV      R0,R4
   \   00000070   3C0100EF           SWI      +316
    536          		GUIonMessage_SetMenuItemIcon(msg, 2, scdata.icon_id );
   \   00000074   04209DE5           LDR      R2,[SP, #+4]
   \   00000078   0210A0E3           MOV      R1,#+2
   \   0000007C   0228A0E1           MOV      R2,R2, LSL #+16
   \   00000080   2228A0E1           MOV      R2,R2, LSR #+16
   \   00000084   0400A0E1           MOV      R0,R4
   \   00000088   3C0100EF           SWI      +316
    537          		break;
    538          	}
    539          
    540          	return 1;
   \                     ??but_list_callback_1:
   \   0000008C   0100A0E3           MOV      R0,#+1
   \   00000090   7680BDE8           POP      {R1,R2,R4-R6,PC}  ;; return
    541          }
    542          
    543          

   \                                 In segment CODE, align 4, keep-with-next
    544          void But_SetMM( BOOK* book, GUI* )
    545          {
    546          	wchar_t name_buf[20];
    547          	wstrcpy( name_buf, L"MainMenu" );
   \                     ??But_SetMM:
   \   00000000   ........           LDR      R1,??DataTable28  ;; `?<Constant L"\\x4d\\x61\\x69\\x6e\\x4d\\x65\\x6e\\x75"`
   \   00000004   10402DE9           PUSH     {R4,LR}
   \   00000008   28D04DE2           SUB      SP,SP,#+40
   \   0000000C   0040A0E1           MOV      R4,R0
   \   00000010   0D00A0E1           MOV      R0,SP
   \   00000014   520100EF           SWI      +338
    548          	WriteShortcut( name_buf );
   \   00000018   0D00A0E1           MOV      R0,SP
   \   0000001C   ........           BL       ??WriteShortcut
    549          	CreateButtonList( 0, book );
   \   00000020   0410A0E1           MOV      R1,R4
   \   00000024   0000A0E3           MOV      R0,#+0
   \   00000028   ........           BL       ??CreateButtonList
    550          }
   \   0000002C   28D08DE2           ADD      SP,SP,#+40
   \   00000030   1080BDE8           POP      {R4,PC}          ;; return
    551          
    552          

   \                                 In segment CODE, align 4, keep-with-next
    553          void But_SetElf( BOOK* book, GUI* )
    554          {
    555          	BookObj_CallPage( book, &SelectElf_page );
   \                     ??But_SetElf:
   \   00000000   ........           LDR      R1,??DataTable30  ;; SelectElf_page
   \   00000004   00402DE9           PUSH     {LR}
   \   00000008   B80200EF           SWI      +696
    556          }
   \   0000000C   0080BDE8           POP      {PC}             ;; return
    557          
    558          

   \                                 In segment CODE, align 4, keep-with-next
    559          void But_onEnter( BOOK* book, GUI* )
    560          {
    561          	MyBOOK* mbk = (MyBOOK*) book;
    562          
    563          	if ( mbk->ActiveTAB==BOOKLIST || ShortcutsMode )
   \                     ??But_onEnter:
   \   00000000   ........           LDR      R1,??DataTable30  ;; SelectElf_page
   \   00000004   00402DE9           PUSH     {LR}
   \   00000008   BC28D0E1           LDRH     R2,[R0, #+140]
   \   0000000C   000052E3           CMP      R2,#+0
   \   00000010   0300000A           BEQ      ??But_onEnter_1
   \   00000014   ........           LDR      R2,??DataTable34  ;; ShortcutsMode
   \   00000018   002092E5           LDR      R2,[R2, #+0]
   \   0000001C   000052E3           CMP      R2,#+0
   \   00000020   0000000A           BEQ      ??But_onEnter_2
    564          		BookObj_CallPage( book, &SelectShortcut_page );
   \                     ??But_onEnter_1:
   \   00000024   0C1081E2           ADD      R1,R1,#+12
    565          	else
    566          		BookObj_CallPage( book, &SelectElf_page );
   \                     ??But_onEnter_2:
   \   00000028   B80200EF           SWI      +696
    567          }
   \   0000002C   0080BDE8           POP      {PC}             ;; return
    568          
    569          

   \                                 In segment CODE, align 4, keep-with-next
    570          int ExitButtonList( void* data, BOOK* book )
    571          {
   \                     ??ExitButtonList:
   \   00000000   10402DE9           PUSH     {R4,LR}
   \   00000004   0140A0E1           MOV      R4,R1
    572          	MyBOOK* mbk = (MyBOOK*) book;
    573          	if ( mbk->but_list )
   \   00000008   580094E5           LDR      R0,[R4, #+88]
   \   0000000C   000050E3           CMP      R0,#+0
   \   00000010   1080BD08           POPEQ    {R4,PC}
    574          	{
    575          		GUIObject_Destroy( mbk->but_list );
   \   00000014   CE0100EF           SWI      +462
    576          		mbk->but_list = 0;
   \   00000018   0000A0E3           MOV      R0,#+0
   \   0000001C   580084E5           STR      R0,[R4, #+88]
    577          	}
    578          	return 0;
   \   00000020   1080BDE8           POP      {R4,PC}          ;; return
    579          }
    580          
    581          

   \                                 In segment CODE, align 4, keep-with-next
    582          void CancelButtonList( BOOK* book, GUI* )
    583          {
    584          	BookObj_ReturnPage( book, CANCEL_EVENT );
   \                     ??CancelButtonList:
   \   00000000   ........           LDR      R1,??DataTable40  ;; CANCEL_EVENT
   \   00000004   00402DE9           PUSH     {LR}
   \   00000008   001091E5           LDR      R1,[R1, #+0]
   \   0000000C   2E0100EF           SWI      +302
    585          }
   \   00000010   0080BDE8           POP      {PC}             ;; return
    586          
    587          

   \                                 In segment CODE, align 4, keep-with-next
    588          int DeleteShortcut( MyBOOK * mbk, char * mask_buf, int f )
    589          {
   \                     ??DeleteShortcut:
   \   00000000   F0432DE9           PUSH     {R4-R9,LR}
   \   00000004   0040A0E1           MOV      R4,R0
    590          	char* pos;
    591          	char* param = 0;
    592          	int res = 0;
    593          
    594          	if ( mbk->shortcuts_buf )
   \   00000008   240094E5           LDR      R0,[R4, #+36]
   \   0000000C   0190A0E1           MOV      R9,R1
   \   00000010   0250A0E1           MOV      R5,R2
   \   00000014   0080A0E3           MOV      R8,#+0
   \   00000018   000050E3           CMP      R0,#+0
   \   0000001C   2000000A           BEQ      ??DeleteShortcut_1
    595          	{
    596          		param = manifest_GetParam( mbk->shortcuts_buf, mask_buf, 0 );
   \   00000020   0020A0E3           MOV      R2,#+0
   \   00000024   750100EF           SWI      +373
   \   00000028   0060B0E1           MOVS     R6,R0
    597          		if ( param )
   \   0000002C   1C00000A           BEQ      ??DeleteShortcut_1
    598          		{
    599          			int len_minus = strlen( param );
   \   00000030   5A0100EF           SWI      +346
   \   00000034   0070A0E1           MOV      R7,R0
    600          			if ( len_minus > 0 )
   \   00000038   010057E3           CMP      R7,#+1
   \   0000003C   160000BA           BLT      ??DeleteShortcut_2
    601          			{
    602          				pos = strstr( mbk->shortcuts_buf, mask_buf );
   \   00000040   240094E5           LDR      R0,[R4, #+36]
   \   00000044   0910A0E1           MOV      R1,R9
   \   00000048   980200EF           SWI      +664
   \   0000004C   0080A0E1           MOV      R8,R0
    603          				int len_prefix = strlen(mask_buf)+1;
   \   00000050   0900A0E1           MOV      R0,R9
   \   00000054   5A0100EF           SWI      +346
    604          				fwrite( f, mbk->shortcuts_buf, pos - mbk->shortcuts_buf + len_prefix );
   \   00000058   241094E5           LDR      R1,[R4, #+36]
   \   0000005C   019080E2           ADD      R9,R0,#+1
   \   00000060   010048E0           SUB      R0,R8,R1
   \   00000064   002089E0           ADD      R2,R9,R0
   \   00000068   0500A0E1           MOV      R0,R5
   \   0000006C   190100EF           SWI      +281
    605          				fwrite( f, pos + len_prefix + len_minus, mbk->shortcuts_buf_size - ( pos - mbk->shortcuts_buf + len_prefix ) - len_minus );
   \   00000070   280094E5           LDR      R0,[R4, #+40]
   \   00000074   241094E5           LDR      R1,[R4, #+36]
   \   00000078   011048E0           SUB      R1,R8,R1
   \   0000007C   010040E0           SUB      R0,R0,R1
   \   00000080   090040E0           SUB      R0,R0,R9
   \   00000084   072040E0           SUB      R2,R0,R7
   \   00000088   080089E0           ADD      R0,R9,R8
   \   0000008C   001087E0           ADD      R1,R7,R0
   \   00000090   0500A0E1           MOV      R0,R5
   \   00000094   190100EF           SWI      +281
    606          				res = 1;
   \   00000098   0180A0E3           MOV      R8,#+1
    607          			}
    608          
    609          			delete( param );
   \                     ??DeleteShortcut_2:
   \   0000009C   0600A0E1           MOV      R0,R6
   \   000000A0   ........           _BLF     `??operator delete`,`??operator delete??rA`
    610          		}
    611          	}
    612          	return res;
   \                     ??DeleteShortcut_1:
   \   000000A4   0800A0E1           MOV      R0,R8
   \   000000A8   F083BDE8           POP      {R4-R9,PC}       ;; return
    613          }
    614          

   \                                 In segment CODE, align 4, keep-with-next
    615          void But_onDelete( BOOK* book, GUI* )
    616          {
   \                     ??But_onDelete:
   \   00000000   F0432DE9           PUSH     {R4-R9,LR}
   \   00000004   0CD04DE2           SUB      SP,SP,#+12
   \   00000008   0040A0E1           MOV      R4,R0
    617          	MyBOOK* mbk = (MyBOOK*) book;
    618          	int f;
    619          	int res;
    620          	int dig_num = ListMenu_GetSelectedItem( mbk->but_list );
   \   0000000C   580094E5           LDR      R0,[R4, #+88]
   \   00000010   3E0100EF           SWI      +318
   \   00000014   0060A0E1           MOV      R6,R0
    621          	if (!GetShortcutName(mbk,dig_num,0)) return;
   \   00000018   0020A0E3           MOV      R2,#+0
   \   0000001C   0610A0E1           MOV      R1,R6
   \   00000020   0400A0E1           MOV      R0,R4
   \   00000024   ........           BL       ??GetShortcutName
   \   00000028   000050E3           CMP      R0,#+0
   \   0000002C   F783BD08           POPEQ    {R0-R2,R4-R9,PC}
    622          
    623          	wchar_t* path = get_path();
    624          	if ( ( f = _fopen( path, INI_SHORTCUTS, FSX_O_RDWR|FSX_O_TRUNC, FSX_S_IREAD|FSX_S_IWRITE, 0 ) ) >= 0 )
   \   00000030   ........           LDR      R7,??DataTable33  ;; `?<Constant "[L_KEY%d]">`
   \   00000034   ........           _BLF     ??get_path,??get_path??rA
   \   00000038   0050A0E1           MOV      R5,R0
   \   0000003C   0000A0E3           MOV      R0,#+0
   \   00000040   01002DE9           PUSH     {R0}
   \   00000044   603FA0E3           MOV      R3,#+384
   \   00000048   812FA0E3           MOV      R2,#+516
   \   0000004C   901087E2           ADD      R1,R7,#+144
   \   00000050   0500A0E1           MOV      R0,R5
   \   00000054   160100EF           SWI      +278
   \   00000058   0080B0E1           MOVS     R8,R0
   \   0000005C   04D08DE2           ADD      SP,SP,#+4
   \   00000060   1F00004A           BMI      ??But_onDelete_1
    625          	{
    626          		char mask_buf[10];
    627          
    628          		if ( !ListMenu_GetSelectedItem( mbk->mode_list ) )
   \   00000064   ........           LDR      R0,??DataTable34  ;; ShortcutsMode
   \   00000068   009090E5           LDR      R9,[R0, #+0]
   \   0000006C   540094E5           LDR      R0,[R4, #+84]
   \   00000070   3E0100EF           SWI      +318
   \   00000074   000050E3           CMP      R0,#+0
   \   00000078   BC08D4E1           LDRH     R0,[R4, #+140]
   \   0000007C   1B00001A           BNE      ??But_onDelete_2
    629          		{
    630          			if ( mbk->ActiveTAB==BOOKLIST || ShortcutsMode )
   \   00000080   000050E3           CMP      R0,#+0
   \   00000084   0100000A           BEQ      ??But_onDelete_3
   \   00000088   000059E3           CMP      R9,#+0
   \   0000008C   0200000A           BEQ      ??But_onDelete_4
    631          				sprintf( mask_buf, "[S_KEY%d]", dig_num );
   \                     ??But_onDelete_3:
   \   00000090   0620A0E1           MOV      R2,R6
   \   00000094   AC1087E2           ADD      R1,R7,#+172
   \   00000098   010000EA           B        ??But_onDelete_5
    632          			else
    633          				sprintf( mask_buf, "[ES_KEY%d]", dig_num );
   \                     ??But_onDelete_4:
   \   0000009C   0620A0E1           MOV      R2,R6
   \   000000A0   B81087E2           ADD      R1,R7,#+184
   \                     ??But_onDelete_5:
   \   000000A4   0D00A0E1           MOV      R0,SP
   \   000000A8   140100EF           SWI      +276
    634          
    635          			res = DeleteShortcut( mbk, mask_buf, f );
   \   000000AC   0820A0E1           MOV      R2,R8
   \   000000B0   0D10A0E1           MOV      R1,SP
   \   000000B4   0400A0E1           MOV      R0,R4
   \   000000B8   ........           BL       ??DeleteShortcut
   \   000000BC   0060A0E1           MOV      R6,R0
    636          		}
    637          		else
    638          		{
    639          			if ( mbk->ActiveTAB==BOOKLIST || ShortcutsMode )
    640          				sprintf( mask_buf, "[L_KEY%d]", dig_num );
    641          			else
    642          				sprintf( mask_buf, "[EL_KEY%d]", dig_num );
    643          
    644          			res = DeleteShortcut( mbk, mask_buf, f );
    645          		}
    646          
    647          		fclose( f );
   \   000000C0   0800A0E1           MOV      R0,R8
   \   000000C4   170100EF           SWI      +279
    648          
    649          		if ( res )
   \   000000C8   000056E3           CMP      R6,#+0
   \   000000CC   0400000A           BEQ      ??But_onDelete_1
    650          		{
    651          			LoadShortcuts(mbk);
   \   000000D0   0400A0E1           MOV      R0,R4
   \   000000D4   ........           _BLF     ??LoadShortcuts,??LoadShortcuts??rA
    652          			CreateButtonList( 0, book );
   \   000000D8   0410A0E1           MOV      R1,R4
   \   000000DC   0000A0E3           MOV      R0,#+0
   \   000000E0   ........           BL       ??CreateButtonList
    653          		}
    654          	}
    655          
    656          	delete( path );
   \                     ??But_onDelete_1:
   \   000000E4   0500A0E1           MOV      R0,R5
   \   000000E8   ........           _BLF     `??operator delete`,`??operator delete??rA`
    657          }
   \   000000EC   F783BDE8           POP      {R0-R2,R4-R9,PC}  ;; return
   \                     ??But_onDelete_2:
   \   000000F0   000050E3           CMP      R0,#+0
   \   000000F4   0100000A           BEQ      ??But_onDelete_6
   \   000000F8   000059E3           CMP      R9,#+0
   \   000000FC   0200000A           BEQ      ??But_onDelete_7
   \                     ??But_onDelete_6:
   \   00000100   0620A0E1           MOV      R2,R6
   \   00000104   0710A0E1           MOV      R1,R7
   \   00000108   E5FFFFEA           B        ??But_onDelete_5
   \                     ??But_onDelete_7:
   \   0000010C   0620A0E1           MOV      R2,R6
   \   00000110   C41087E2           ADD      R1,R7,#+196
   \   00000114   E2FFFFEA           B        ??But_onDelete_5
    658          
    659          

   \                                 In segment CODE, align 4, keep-with-next
    660          int CreateButtonList( void* data, BOOK* book )
    661          {
   \                     ??CreateButtonList:
   \   00000000   F0402DE9           PUSH     {R4-R7,LR}
   \   00000004   04D04DE2           SUB      SP,SP,#+4
   \   00000008   0140A0E1           MOV      R4,R1
    662          	MyBOOK* mbk = (MyBOOK*) book;
    663          	int str_id;
    664          
    665          	int but_pos = 0;
    666          
    667          	if ( mbk->but_list )
   \   0000000C   580094E5           LDR      R0,[R4, #+88]
   \   00000010   000050E3           CMP      R0,#+0
   \   00000014   1200000A           BEQ      ??CreateButtonList_1
    668          	{
    669          		but_pos = ListMenu_GetSelectedItem( mbk->but_list );
   \   00000018   3E0100EF           SWI      +318
   \   0000001C   0050A0E1           MOV      R5,R0
    670          		ListMenu_DestroyItems(mbk->but_list);
   \   00000020   580094E5           LDR      R0,[R4, #+88]
   \   00000024   BB0300EF           SWI      +955
    671          		ListMenu_SetItemCount( mbk->but_list, 10 );
   \   00000028   580094E5           LDR      R0,[R4, #+88]
   \   0000002C   0A10A0E3           MOV      R1,#+10
   \   00000030   C10100EF           SWI      +449
    672          		ListMenu_SetCursorToItem( mbk->but_list, but_pos );
   \   00000034   580094E5           LDR      R0,[R4, #+88]
   \   00000038   0510A0E1           MOV      R1,R5
   \   0000003C   350100EF           SWI      +309
    673          		GUIObject_SoftKeys_SetVisible(mbk->but_list, ACTION_SELECT1, 1);
   \   00000040   ........           LDR      R0,??DataTable45  ;; ACTION_SELECT1
   \   00000044   0120A0E3           MOV      R2,#+1
   \   00000048   001090E5           LDR      R1,[R0, #+0]
   \   0000004C   580094E5           LDR      R0,[R4, #+88]
   \   00000050   0118A0E1           MOV      R1,R1, LSL #+16
   \   00000054   2118A0E1           MOV      R1,R1, LSR #+16
   \   00000058   500100EF           SWI      +336
    674          		return 0;
   \   0000005C   0000A0E3           MOV      R0,#+0
   \   00000060   F280BDE8           POP      {R1,R4-R7,PC}
    675          	}
    676          	mbk->but_list = CreateListMenu( book, 0 );
    677          	GUIObject_SetTitleText( mbk->but_list, STR( "Buttons" ) );
   \                     ??CreateButtonList_1:
   \   00000064   9C519FE5           LDR      R5,??CreateButtonList_2  ;; `?<Constant L"\\x42\\x75\\x74\\x74\\x6f\\x6e\\x73">`
   \   00000068   0010A0E3           MOV      R1,#+0
   \   0000006C   0400A0E1           MOV      R0,R4
   \   00000070   C00100EF           SWI      +448
   \   00000074   580084E5           STR      R0,[R4, #+88]
   \   00000078   FF60A0E3           MOV      R6,#+255
   \   0000007C   FF6C86E3           ORR      R6,R6,#0xFF00
   \   00000080   0620A0E1           MOV      R2,R6
   \   00000084   0010A0E3           MOV      R1,#+0
   \   00000088   0500A0E1           MOV      R0,R5
   \   0000008C   5D0100EF           SWI      +349
   \   00000090   0010A0E1           MOV      R1,R0
   \   00000094   580094E5           LDR      R0,[R4, #+88]
   \   00000098   330100EF           SWI      +307
    678          	ListMenu_SetItemCount( mbk->but_list, 10 );
   \   0000009C   580094E5           LDR      R0,[R4, #+88]
   \   000000A0   0A10A0E3           MOV      R1,#+10
   \   000000A4   C10100EF           SWI      +449
    679          	ListMenu_SetOnMessage( mbk->but_list, but_list_callback );
   \   000000A8   5C119FE5           LDR      R1,??CreateButtonList_2+0x4  ;; ??but_list_callback
   \   000000AC   580094E5           LDR      R0,[R4, #+88]
   \   000000B0   740100EF           SWI      +372
    680          	ListMenu_SetCursorToItem( mbk->but_list, but_pos );
   \   000000B4   580094E5           LDR      R0,[R4, #+88]
   \   000000B8   0010A0E3           MOV      R1,#+0
   \   000000BC   350100EF           SWI      +309
    681          	GUIObject_SoftKeys_SetAction( mbk->but_list, ACTION_BACK, DestroyButList );
   \   000000C0   ........           LDR      R0,??DataTable43  ;; ACTION_BACK
   \   000000C4   44219FE5           LDR      R2,??CreateButtonList_2+0x8  ;; ??DestroyButList
   \   000000C8   001090E5           LDR      R1,[R0, #+0]
   \   000000CC   580094E5           LDR      R0,[R4, #+88]
   \   000000D0   0118A0E1           MOV      R1,R1, LSL #+16
   \   000000D4   2118A0E1           MOV      R1,R1, LSR #+16
   \   000000D8   4B0100EF           SWI      +331
    682          	GUIObject_SoftKeys_SetAction( mbk->but_list, ACTION_LONG_BACK, CancelButtonList );
   \   000000DC   ........           LDR      R0,??DataTable44  ;; ACTION_LONG_BACK
   \   000000E0   2C219FE5           LDR      R2,??CreateButtonList_2+0xC  ;; ??CancelButtonList
   \   000000E4   001090E5           LDR      R1,[R0, #+0]
   \   000000E8   580094E5           LDR      R0,[R4, #+88]
   \   000000EC   0118A0E1           MOV      R1,R1, LSL #+16
   \   000000F0   2118A0E1           MOV      R1,R1, LSR #+16
   \   000000F4   4B0100EF           SWI      +331
    683          	GUIObject_SoftKeys_SetAction( mbk->but_list, ACTION_SELECT1, But_onEnter );
   \   000000F8   ........           LDR      R0,??DataTable45  ;; ACTION_SELECT1
   \   000000FC   14219FE5           LDR      R2,??CreateButtonList_2+0x10  ;; ??But_onEnter
   \   00000100   001090E5           LDR      R1,[R0, #+0]
   \   00000104   580094E5           LDR      R0,[R4, #+88]
   \   00000108   0118A0E1           MOV      R1,R1, LSL #+16
   \   0000010C   2118A0E1           MOV      R1,R1, LSR #+16
   \   00000110   4B0100EF           SWI      +331
    684          	GUIObject_SoftKeys_SetAction( mbk->but_list, ACTION_DELETE, But_onDelete );
   \   00000114   00019FE5           LDR      R0,??CreateButtonList_2+0x14  ;; ACTION_DELETE
   \   00000118   00219FE5           LDR      R2,??CreateButtonList_2+0x18  ;; ??But_onDelete
   \   0000011C   007090E5           LDR      R7,[R0, #+0]
   \   00000120   580094E5           LDR      R0,[R4, #+88]
   \   00000124   0718A0E1           MOV      R1,R7, LSL #+16
   \   00000128   2118A0E1           MOV      R1,R1, LSR #+16
   \   0000012C   4B0100EF           SWI      +331
    685          	GUIObject_SoftKeys_SetVisible( mbk->but_list, ACTION_DELETE, 0 );
   \   00000130   580094E5           LDR      R0,[R4, #+88]
   \   00000134   0020A0E3           MOV      R2,#+0
   \   00000138   0718A0E1           MOV      R1,R7, LSL #+16
   \   0000013C   2118A0E1           MOV      R1,R1, LSR #+16
   \   00000140   500100EF           SWI      +336
    686          
    687          	if ( mbk->ActiveTAB==BOOKLIST || ShortcutsMode )
   \   00000144   ........           LDR      R0,??DataTable39  ;; ShortcutsMode
   \   00000148   007090E5           LDR      R7,[R0, #+0]
   \   0000014C   BC08D4E1           LDRH     R0,[R4, #+140]
   \   00000150   000050E3           CMP      R0,#+0
   \   00000154   0100000A           BEQ      ??CreateButtonList_3
   \   00000158   000057E3           CMP      R7,#+0
   \   0000015C   2500000A           BEQ      ??CreateButtonList_4
    688          	{
    689          		GUIObject_SoftKeys_SetAction( mbk->but_list, SHORTCUTS_MAINMENU_SOFTKEY, But_SetMM );
   \                     ??CreateButtonList_3:
   \   00000160   BC209FE5           LDR      R2,??CreateButtonList_2+0x1C  ;; ??But_SetMM
   \   00000164   580094E5           LDR      R0,[R4, #+88]
   \   00000168   0010A0E3           MOV      R1,#+0
   \   0000016C   4B0100EF           SWI      +331
    690          		textidname2id( SHORTCUTS_MAINMENU_NAME_SOFTKEY, TEXTID_ANY_LEN, &str_id );
   \   00000170   0D20A0E1           MOV      R2,SP
   \   00000174   0610A0E1           MOV      R1,R6
   \   00000178   100085E2           ADD      R0,R5,#+16
   \   0000017C   870200EF           SWI      +647
    691          		GUIObject_SoftKeys_SetText( mbk->but_list, SHORTCUTS_MAINMENU_SOFTKEY, str_id );
   \   00000180   00209DE5           LDR      R2,[SP, #+0]
   \   00000184   580094E5           LDR      R0,[R4, #+88]
   \   00000188   0010A0E3           MOV      R1,#+0
   \   0000018C   4C0100EF           SWI      +332
    692          		GUIObject_SoftKeys_SetAction( mbk->but_list, SHORTCUTS_JAVA_SOFTKEY, But_SetJava );
   \   00000190   580094E5           LDR      R0,[R4, #+88]
   \   00000194   8C209FE5           LDR      R2,??CreateButtonList_2+0x20  ;; ??But_SetJava
   \   00000198   0110A0E3           MOV      R1,#+1
   \   0000019C   4B0100EF           SWI      +331
    693          		GUIObject_SoftKeys_SetText( mbk->but_list, SHORTCUTS_JAVA_SOFTKEY, STR( "Java" ) );
   \   000001A0   0620A0E1           MOV      R2,R6
   \   000001A4   0010A0E3           MOV      R1,#+0
   \   000001A8   480085E2           ADD      R0,R5,#+72
   \   000001AC   5D0100EF           SWI      +349
   \   000001B0   0020A0E1           MOV      R2,R0
   \   000001B4   580094E5           LDR      R0,[R4, #+88]
   \   000001B8   0110A0E3           MOV      R1,#+1
   \   000001BC   4C0100EF           SWI      +332
    694          		if (ShortcutsMode)
   \   000001C0   000057E3           CMP      R7,#+0
   \   000001C4   0B00000A           BEQ      ??CreateButtonList_4
    695          		{
    696          			GUIObject_SoftKeys_SetAction( mbk->but_list, SHORTCUTS_ELFS_SOFTKEY, But_SetElf );
   \   000001C8   580094E5           LDR      R0,[R4, #+88]
   \   000001CC   58209FE5           LDR      R2,??CreateButtonList_2+0x24  ;; ??But_SetElf
   \   000001D0   0210A0E3           MOV      R1,#+2
   \   000001D4   4B0100EF           SWI      +331
    697          			GUIObject_SoftKeys_SetText( mbk->but_list, SHORTCUTS_ELFS_SOFTKEY, STR( "Elfs" ) );
   \   000001D8   0620A0E1           MOV      R2,R6
   \   000001DC   0010A0E3           MOV      R1,#+0
   \   000001E0   3C0085E2           ADD      R0,R5,#+60
   \   000001E4   5D0100EF           SWI      +349
   \   000001E8   0020A0E1           MOV      R2,R0
   \   000001EC   580094E5           LDR      R0,[R4, #+88]
   \   000001F0   0210A0E3           MOV      R1,#+2
   \   000001F4   4C0100EF           SWI      +332
    698          		}
    699          	}
    700          
    701          	GUIObject_Show( mbk->but_list );
   \                     ??CreateButtonList_4:
   \   000001F8   580094E5           LDR      R0,[R4, #+88]
   \   000001FC   340100EF           SWI      +308
    702          	return 0;
   \   00000200   0000A0E3           MOV      R0,#+0
   \   00000204   F280BDE8           POP      {R1,R4-R7,PC}    ;; return
   \                     ??CreateButtonList_2:
   \   00000208   ........           DC32     `?<Constant L"\\x42\\x75\\x74\\x74\\x6f\\x6e\\x73">`
   \   0000020C   ........           DC32     ??but_list_callback
   \   00000210   ........           DC32     ??DestroyButList
   \   00000214   ........           DC32     ??CancelButtonList
   \   00000218   ........           DC32     ??But_onEnter
   \   0000021C   ........           DC32     ACTION_DELETE
   \   00000220   ........           DC32     ??But_onDelete
   \   00000224   ........           DC32     ??But_SetMM
   \   00000228   ........           DC32     ??But_SetJava
   \   0000022C   ........           DC32     ??But_SetElf
    703          }
    704          
    705          

   \                                 In segment CODE, align 4, keep-with-next
    706          int ButtonList_Cancel_Event_Action( void* data, BOOK* book )
    707          {
   \                     ??ButtonList_Cancel_Event_Action:
   \   00000000   00402DE9           PUSH     {LR}
   \   00000004   0100A0E1           MOV      R0,R1
    708          	BookObj_ReturnPage( book, CANCEL_EVENT );
   \   00000008   ........           LDR      R1,??DataTable40  ;; CANCEL_EVENT
   \   0000000C   001091E5           LDR      R1,[R1, #+0]
   \   00000010   2E0100EF           SWI      +302
    709          	return(1);
   \   00000014   0100A0E3           MOV      R0,#+1
   \   00000018   0080BDE8           POP      {PC}             ;; return
    710          }
    711          
    712          

   \                                 In segment CODE, align 4, keep-with-next
    713          void ModeList_Cancel_Action( BOOK* book, GUI* )
    714          {
    715          	BookObj_ReturnPage( book, ACCEPT_EVENT );
   \                     ??ModeList_Cancel_Action:
   \   00000000   ........           LDR      R1,??DataTable46  ;; ACCEPT_EVENT
   \   00000004   00402DE9           PUSH     {LR}
   \   00000008   001091E5           LDR      R1,[R1, #+0]
   \   0000000C   2E0100EF           SWI      +302
    716          }
   \   00000010   0080BDE8           POP      {PC}             ;; return
    717          
    718          

   \                                 In segment CODE, align 4, keep-with-next
    719          void ModeList_Prev_Action( BOOK* book, GUI* )
    720          {
    721          	BookObj_ReturnPage( book, ACCEPT_EVENT );
   \                     ??ModeList_Prev_Action:
   \   00000000   ........           LDR      R1,??DataTable46  ;; ACCEPT_EVENT
   \   00000004   00402DE9           PUSH     {LR}
   \   00000008   001091E5           LDR      R1,[R1, #+0]
   \   0000000C   2E0100EF           SWI      +302
    722          }
   \   00000010   0080BDE8           POP      {PC}             ;; return
    723          
    724          

   \                                 In segment CODE, align 4, keep-with-next
    725          void onEnter_ModeList( BOOK* book, GUI* )
    726          {
    727          	BookObj_CallPage( book, &ChangeShortcuts_Buttons_page );
   \                     ??onEnter_ModeList:
   \   00000000   08109FE5           LDR      R1,??onEnter_ModeList_1  ;; ChangeShortcuts_Buttons_page
   \   00000004   00402DE9           PUSH     {LR}
   \   00000008   B80200EF           SWI      +696
    728          }
   \   0000000C   0080BDE8           POP      {PC}             ;; return
   \                     ??onEnter_ModeList_1:
   \   00000010   ........           DC32     ChangeShortcuts_Buttons_page
    729          
    730          

   \                                 In segment CODE, align 4, keep-with-next
    731          int list_callback( GUI_MESSAGE* msg )
    732          {
   \                     ??list_callback:
   \   00000000   70402DE9           PUSH     {R4-R6,LR}
   \   00000004   0040A0E1           MOV      R4,R0
    733          	char * item_name;
    734          	switch( GUIonMessage_GetMsg( msg ) )
   \   00000008   740300EF           SWI      +884
   \   0000000C   010050E3           CMP      R0,#+1
   \   00000010   1000001A           BNE      ??list_callback_1
    735          	{
    736          	case LISTMSG_GetItem:
    737          		switch ( GUIonMessage_GetCreatedItemIndex( msg ) )
   \   00000014   44609FE5           LDR      R6,??list_callback_2  ;; `?<Constant "Short">`
   \   00000018   0400A0E1           MOV      R0,R4
   \   0000001C   370100EF           SWI      +311
   \   00000020   000050E3           CMP      R0,#+0
   \   00000024   0200000A           BEQ      ??list_callback_3
   \   00000028   010050E2           SUBS     R0,R0,#+1
   \   0000002C   08508602           ADDEQ    R5,R6,#+8
   \   00000030   000000EA           B        ??list_callback_4
    738          		{
    739          		case 0:
    740          			item_name="Short";
   \                     ??list_callback_3:
   \   00000034   0650A0E1           MOV      R5,R6
    741          			break;
    742          		case 1:
    743          			item_name="Long";
    744          			break;
    745          		}
    746          		GUIonMessage_SetMenuItemText( msg, TextID_Create( item_name, ENC_LAT1, TEXTID_ANY_LEN ) );
   \                     ??list_callback_4:
   \   00000038   FF20A0E3           MOV      R2,#+255
   \   0000003C   FF2C82E3           ORR      R2,R2,#0xFF00
   \   00000040   0610A0E3           MOV      R1,#+6
   \   00000044   0500A0E1           MOV      R0,R5
   \   00000048   5D0100EF           SWI      +349
   \   0000004C   0010A0E1           MOV      R1,R0
   \   00000050   0400A0E1           MOV      R0,R4
   \   00000054   380100EF           SWI      +312
    747          	}
    748          	return 1;
   \                     ??list_callback_1:
   \   00000058   0100A0E3           MOV      R0,#+1
   \   0000005C   7080BDE8           POP      {R4-R6,PC}       ;; return
   \                     ??list_callback_2:
   \   00000060   ........           DC32     `?<Constant "Short">`
    749          }
    750          
    751          

   \                                 In segment CODE, align 4, keep-with-next
    752          int CreateModeList( void* data, BOOK* book )
    753          {
   \                     ??CreateModeList:
   \   00000000   30402DE9           PUSH     {R4,R5,LR}
   \   00000004   0140A0E1           MOV      R4,R1
    754          	MyBOOK* mbk = (MyBOOK*) book;
    755          	int mode_list_pos = 0;
    756          	if ( mbk->mode_list )
   \   00000008   540094E5           LDR      R0,[R4, #+84]
   \   0000000C   000050E3           CMP      R0,#+0
   \   00000010   0B00000A           BEQ      ??CreateModeList_1
    757          	{
    758          		mode_list_pos = ListMenu_GetSelectedItem( mbk->mode_list );
   \   00000014   3E0100EF           SWI      +318
   \   00000018   0050A0E1           MOV      R5,R0
    759          		ListMenu_DestroyItems(mbk->mode_list);
   \   0000001C   540094E5           LDR      R0,[R4, #+84]
   \   00000020   BB0300EF           SWI      +955
    760          		ListMenu_SetItemCount( mbk->mode_list, 2 );
   \   00000024   540094E5           LDR      R0,[R4, #+84]
   \   00000028   0210A0E3           MOV      R1,#+2
   \   0000002C   C10100EF           SWI      +449
    761          		ListMenu_SetCursorToItem( mbk->mode_list, mode_list_pos );
   \   00000030   540094E5           LDR      R0,[R4, #+84]
   \   00000034   0510A0E1           MOV      R1,R5
   \   00000038   350100EF           SWI      +309
    762          		return 0;
   \   0000003C   0000A0E3           MOV      R0,#+0
   \   00000040   3080BDE8           POP      {R4,R5,PC}
    763          	}
    764          	mbk->mode_list = CreateListMenu( book, 0 );
   \                     ??CreateModeList_1:
   \   00000044   0010A0E3           MOV      R1,#+0
   \   00000048   0400A0E1           MOV      R0,R4
   \   0000004C   C00100EF           SWI      +448
   \   00000050   540084E5           STR      R0,[R4, #+84]
    765          	GUIObject_SetTitleText( mbk->mode_list, STR( "Press Mode" ) );
   \   00000054   A0009FE5           LDR      R0,??CreateModeList_2  ;; `?<Constant L"\\x50\\x72\\x65\\x73\\x73\\x20\\x4d\\x6f\\`
   \   00000058   FF20A0E3           MOV      R2,#+255
   \   0000005C   FF2C82E3           ORR      R2,R2,#0xFF00
   \   00000060   0010A0E3           MOV      R1,#+0
   \   00000064   5D0100EF           SWI      +349
   \   00000068   0010A0E1           MOV      R1,R0
   \   0000006C   540094E5           LDR      R0,[R4, #+84]
   \   00000070   330100EF           SWI      +307
    766          	ListMenu_SetItemCount( mbk->mode_list, 2 );
   \   00000074   540094E5           LDR      R0,[R4, #+84]
   \   00000078   0210A0E3           MOV      R1,#+2
   \   0000007C   C10100EF           SWI      +449
    767          	ListMenu_SetOnMessage( mbk->mode_list, list_callback );
   \   00000080   78109FE5           LDR      R1,??CreateModeList_2+0x4  ;; ??list_callback
   \   00000084   540094E5           LDR      R0,[R4, #+84]
   \   00000088   740100EF           SWI      +372
    768          	ListMenu_SetCursorToItem( mbk->mode_list, mode_list_pos );
   \   0000008C   540094E5           LDR      R0,[R4, #+84]
   \   00000090   0010A0E3           MOV      R1,#+0
   \   00000094   350100EF           SWI      +309
    769          	GUIObject_SoftKeys_SetAction( mbk->mode_list, ACTION_BACK, ModeList_Prev_Action );
   \   00000098   ........           LDR      R0,??DataTable43  ;; ACTION_BACK
   \   0000009C   60209FE5           LDR      R2,??CreateModeList_2+0x8  ;; ??ModeList_Prev_Action
   \   000000A0   001090E5           LDR      R1,[R0, #+0]
   \   000000A4   540094E5           LDR      R0,[R4, #+84]
   \   000000A8   0118A0E1           MOV      R1,R1, LSL #+16
   \   000000AC   2118A0E1           MOV      R1,R1, LSR #+16
   \   000000B0   4B0100EF           SWI      +331
    770          	GUIObject_SoftKeys_SetAction( mbk->mode_list, ACTION_LONG_BACK, ModeList_Cancel_Action );
   \   000000B4   ........           LDR      R0,??DataTable44  ;; ACTION_LONG_BACK
   \   000000B8   48209FE5           LDR      R2,??CreateModeList_2+0xC  ;; ??ModeList_Cancel_Action
   \   000000BC   001090E5           LDR      R1,[R0, #+0]
   \   000000C0   540094E5           LDR      R0,[R4, #+84]
   \   000000C4   0118A0E1           MOV      R1,R1, LSL #+16
   \   000000C8   2118A0E1           MOV      R1,R1, LSR #+16
   \   000000CC   4B0100EF           SWI      +331
    771          	GUIObject_SoftKeys_SetAction( mbk->mode_list, ACTION_SELECT1, onEnter_ModeList );
   \   000000D0   ........           LDR      R0,??DataTable45  ;; ACTION_SELECT1
   \   000000D4   30209FE5           LDR      R2,??CreateModeList_2+0x10  ;; ??onEnter_ModeList
   \   000000D8   001090E5           LDR      R1,[R0, #+0]
   \   000000DC   540094E5           LDR      R0,[R4, #+84]
   \   000000E0   0118A0E1           MOV      R1,R1, LSL #+16
   \   000000E4   2118A0E1           MOV      R1,R1, LSR #+16
   \   000000E8   4B0100EF           SWI      +331
    772          	GUIObject_Show( mbk->mode_list );
   \   000000EC   540094E5           LDR      R0,[R4, #+84]
   \   000000F0   340100EF           SWI      +308
    773          	return 0;
   \   000000F4   0000A0E3           MOV      R0,#+0
   \   000000F8   3080BDE8           POP      {R4,R5,PC}       ;; return
   \                     ??CreateModeList_2:
   \   000000FC   ........           DC32     `?<Constant L"\\x50\\x72\\x65\\x73\\x73\\x20\\x4d\\x6f\\`
   \   00000100   ........           DC32     ??list_callback
   \   00000104   ........           DC32     ??ModeList_Prev_Action
   \   00000108   ........           DC32     ??ModeList_Cancel_Action
   \   0000010C   ........           DC32     ??onEnter_ModeList
    774          }
    775          
    776          

   \                                 In segment CODE, align 4, keep-with-next
    777          int ModeList_CancelEvent_Action( void* data, BOOK* bk )
    778          {
   \                     ??ModeList_CancelEvent_Action:
   \   00000000   00402DE9           PUSH     {LR}
   \   00000004   0100A0E1           MOV      R0,R1
    779          	BookObj_ReturnPage( bk, ACCEPT_EVENT );
   \   00000008   ........           LDR      R1,??DataTable46  ;; ACCEPT_EVENT
   \   0000000C   001091E5           LDR      R1,[R1, #+0]
   \   00000010   2E0100EF           SWI      +302
    780          	return(0);
   \   00000014   0000A0E3           MOV      R0,#+0
   \   00000018   0080BDE8           POP      {PC}             ;; return
    781          }
    782          

   \                                 In segment CODE, align 4, keep-with-next
    783          int ExitShortcutsSet( void* data, BOOK* bk )
    784          {
   \                     ??ExitShortcutsSet:
   \   00000000   30402DE9           PUSH     {R4,R5,LR}
   \   00000004   0140A0E1           MOV      R4,R1
    785          	MyBOOK* mbk = (MyBOOK*) bk;
    786          	if ( mbk->mode_list )
   \   00000008   540094E5           LDR      R0,[R4, #+84]
   \   0000000C   0050A0E3           MOV      R5,#+0
   \   00000010   000050E3           CMP      R0,#+0
   \   00000014   0100000A           BEQ      ??ExitShortcutsSet_1
    787          	{
    788          		GUIObject_Destroy( mbk->mode_list );
   \   00000018   CE0100EF           SWI      +462
    789          		mbk->mode_list = 0;
   \   0000001C   545084E5           STR      R5,[R4, #+84]
    790          	}
    791          	if ( mbk->but_list )
   \                     ??ExitShortcutsSet_1:
   \   00000020   580094E5           LDR      R0,[R4, #+88]
   \   00000024   000050E3           CMP      R0,#+0
   \   00000028   0100000A           BEQ      ??ExitShortcutsSet_2
    792          	{
    793          		GUIObject_Destroy( mbk->but_list );
   \   0000002C   CE0100EF           SWI      +462
    794          		mbk->but_list = 0;
   \   00000030   585084E5           STR      R5,[R4, #+88]
    795          	}
    796          	if ( mbk->MainMenuID!= - 1 )
   \                     ??ExitShortcutsSet_2:
   \   00000034   800094E5           LDR      R0,[R4, #+128]
   \   00000038   0550E0E1           MVN      R5,R5
   \   0000003C   050050E1           CMP      R0,R5
   \   00000040   0400000A           BEQ      ??ExitShortcutsSet_3
    797          	{
    798          		BOOK* MainMenu = FindBookByID( mbk->MainMenuID );
   \   00000044   C40200EF           SWI      +708
    799          		if ( MainMenu ) FreeBook( MainMenu );
   \   00000048   000050E3           CMP      R0,#+0
   \   0000004C   0000000A           BEQ      ??ExitShortcutsSet_4
   \   00000050   2F0100EF           SWI      +303
    800          		mbk->MainMenuID = - 1;
   \                     ??ExitShortcutsSet_4:
   \   00000054   805084E5           STR      R5,[R4, #+128]
    801          	}
    802          	return 0;
   \                     ??ExitShortcutsSet_3:
   \   00000058   0000A0E3           MOV      R0,#+0
   \   0000005C   3080BDE8           POP      {R4,R5,PC}       ;; return
    803          }
    804          
    805          

   \                                 In segment CODE, align 4, keep-with-next
    806          void Shortcuts( BOOK* book, GUI* )
    807          {
   \                     ??Shortcuts:
   \   00000000   10402DE9           PUSH     {R4,LR}
   \   00000004   0040A0E1           MOV      R4,R0
    808          	MyBOOK * mbk = (MyBOOK*)book;
    809          	mbk->ActiveTAB=GetActiveTab(mbk);
   \   00000008   ........           _BLF     ??GetActiveTab,??GetActiveTab??rA
    810          	BookObj_CallPage( book, &ChangeShortcuts_page );
   \   0000000C   0C109FE5           LDR      R1,??Shortcuts_1  ;; ChangeShortcuts_page
   \   00000010   BC08C4E1           STRH     R0,[R4, #+140]
   \   00000014   0400A0E1           MOV      R0,R4
   \   00000018   B80200EF           SWI      +696
    811          }
   \   0000001C   1080BDE8           POP      {R4,PC}          ;; return
   \                     ??Shortcuts_1:
   \   00000020   ........           DC32     ChangeShortcuts_page

   \                                 In segment CODE, align 4, keep-with-next
   \                     ??DataTable2:
   \   00000000   ........           DC32     `?<Constant "[L_KEY%d]">` + 144

   \                                 In segment CODE, align 4, keep-with-next
   \                     ??DataTable7:
   \   00000000   ........           DC32     ??isBookManager

   \                                 In segment CODE, align 4, keep-with-next
   \                     ??DataTable13:
   \   00000000   ........           DC32     ACCEPT_EVENT

   \                                 In segment CODE, align 4, keep-with-next
   \                     ??DataTable15:
   \   00000000   ........           DC32     NIL_EVENT

   \                                 In segment CODE, align 4, keep-with-next
   \                     ??DataTable18:
   \   00000000   ........           DC32     ??elem_free

   \                                 In segment CODE, align 4, keep-with-next
   \                     ??DataTable19:
   \   00000000   ........           DC32     ??elem_filter

   \                                 In segment CODE, align 4, keep-with-next
   \                     ??DataTable28:
   \   00000000   ........           DC32     `?<Constant L"\\x4d\\x61\\x69\\x6e\\x4d\\x65\\x6e\\x75"`

   \                                 In segment CODE, align 4, keep-with-next
   \                     ??DataTable30:
   \   00000000   ........           DC32     SelectElf_page

   \                                 In segment CODE, align 4, keep-with-next
   \                     ??DataTable33:
   \   00000000   ........           DC32     `?<Constant "[L_KEY%d]">`

   \                                 In segment CODE, align 4, keep-with-next
   \                     ??DataTable34:
   \   00000000   ........           DC32     ShortcutsMode

   \                                 In segment CODE, align 4, keep-with-next
   \                     ??DataTable39:
   \   00000000   ........           DC32     ShortcutsMode

   \                                 In segment CODE, align 4, keep-with-next
   \                     ??DataTable40:
   \   00000000   ........           DC32     CANCEL_EVENT

   \                                 In segment CODE, align 4, keep-with-next
   \                     ??DataTable43:
   \   00000000   ........           DC32     ACTION_BACK

   \                                 In segment CODE, align 4, keep-with-next
   \                     ??DataTable44:
   \   00000000   ........           DC32     ACTION_LONG_BACK

   \                                 In segment CODE, align 4, keep-with-next
   \                     ??DataTable45:
   \   00000000   ........           DC32     ACTION_SELECT1

   \                                 In segment CODE, align 4, keep-with-next
   \                     ??DataTable46:
   \   00000000   ........           DC32     ACCEPT_EVENT

   \                                 In segment DATA_ID, align 4, align-sorted
   \                     `?<Initializer for ChangeShortcuts_page>`:
   \   00000000   ........0000       DC32 `?<Constant "BookManager_ChangeSho...">`, 0H
   \              0000        
   \   00000008   ........           DC32 ChangeShortcuts_PageEvents

   \                                 In segment DATA_ID, align 4, align-sorted
   \                     `?<Initializer for ChangeShortcuts_Buttons_page`:
   \   00000000   ........0000       DC32 `?<Constant "BookManager_ChangeSho...">_1`, 0H
   \              0000        
   \   00000008   ........           DC32 ChangeShortcuts_Buttons_PageEvents

   \                                 In segment DATA_ID, align 4, align-sorted
   \                     `?<Initializer for ChangeShortcuts_SetJava_page`:
   \   00000000   ........0000       DC32 `?<Constant "BookManager_ChangeSho...">_2`, 0H, SetJava_PageEvents
   \              0000........

   \                                 In segment DATA_ID, align 4, align-sorted
   \                     `?<Initializer for SelectElf_page>`:
   \   00000000   ........0000       DC32 `?<Constant "BookManager_ChangeSho...">_3`, 0H
   \              0000        
   \   00000008   ........           DC32 SelectElf_PageEvents
   \                     `?<Initializer for SelectShortcut_page>`:
   \   0000000C   ........0000       DC32 `?<Constant "BookManager_ChangeSho...">_4`, 0H
   \              0000        
   \   00000014   ........           DC32 SelectShortcut_PageEvents

   \                                 In segment DATA_C, align 4, align-sorted
   \                     `?<Constant "[L_KEY%d]">`:
   \   00000000   5B4C5F4B4559       DC8 "[L_KEY%d]"
   \              25645D00    
   \   0000000A   0000               DC8 0, 0
   \   0000000C   440042005F00       DC8 44H, 0, 42H, 0, 5FH, 0, 4CH, 0
   \              4C00        
   \   00000014   490053005400       DC8 49H, 0, 53H, 0, 54H, 0, 5FH, 0
   \              5F00        
   \   0000001C   4A0041005600       DC8 4AH, 0, 41H, 0, 56H, 0, 41H, 0
   \              4100        
   \   00000024   5F0049004300       DC8 5FH, 0, 49H, 0, 43H, 0, 4EH, 0
   \              4E00        
   \   0000002C   0000               DC8 0, 0
   \   0000002E   0000               DC8 0, 0
   \   00000030   52004E005F00       DC8 52H, 0, 4EH, 0, 5FH, 0, 56H, 0
   \              5600        
   \   00000038   450052005400       DC8 45H, 0, 52H, 0, 54H, 0, 5FH, 0
   \              5F00        
   \   00000040   4D0059005F00       DC8 4DH, 0, 59H, 0, 5FH, 0, 53H, 0
   \              5300        
   \   00000048   48004F005200       DC8 48H, 0, 4FH, 0, 52H, 0, 54H, 0
   \              5400        
   \   00000050   430055005400       DC8 43H, 0, 55H, 0, 54H, 0, 53H, 0
   \              5300        
   \   00000058   5F0049004300       DC8 5FH, 0, 49H, 0, 43H, 0, 4EH, 0
   \              4E00        
   \   00000060   0000               DC8 0, 0
   \   00000062   0000               DC8 0, 0
   \   00000064   6A6176613A00       DC8 "java:"
   \   0000006A   0000               DC8 0, 0
   \   0000006C   530048004300       DC8 53H, 0, 48H, 0, 43H, 0, 5FH, 0
   \              5F00        
   \   00000074   4E004F004E00       DC8 4EH, 0, 4FH, 0, 4EH, 0, 45H, 0
   \              4500        
   \   0000007C   5F004E004100       DC8 5FH, 0, 4EH, 0, 41H, 0, 4DH, 0
   \              4D00        
   \   00000084   45005F005400       DC8 45H, 0, 5FH, 0, 54H, 0, 58H, 0
   \              5800        
   \   0000008C   54000000           DC8 54H, 0, 0, 0
   \   00000090   730068006F00       DC8 73H, 0, 68H, 0, 6FH, 0, 72H, 0
   \              7200        
   \   00000098   740063007500       DC8 74H, 0, 63H, 0, 75H, 0, 74H, 0
   \              7400        
   \   000000A0   73002E006900       DC8 73H, 0, 2EH, 0, 69H, 0, 6EH, 0
   \              6E00        
   \   000000A8   69000000           DC8 69H, 0, 0, 0
   \   000000AC   5B535F4B4559       DC8 "[S_KEY%d]"
   \              25645D00    
   \   000000B6   0000               DC8 0, 0
   \   000000B8   5B45535F4B45       DC8 "[ES_KEY%d]"
   \              5925645D00  
   \   000000C3   00                 DC8 0
   \   000000C4   5B454C5F4B45       DC8 "[EL_KEY%d]"
   \              5925645D00  
   \   000000CF   00                 DC8 0

   \                                 In segment DATA_C, align 4, align-sorted
   \                     `?<Constant L"\\x42\\x75\\x74\\x74\\x6f\\x6e\\x73">`:
   \   00000000   420075007400       DC8 42H, 0, 75H, 0, 74H, 0, 74H, 0
   \              7400        
   \   00000008   6F006E007300       DC8 6FH, 0, 6EH, 0, 73H, 0, 0, 0
   \              0000        
   \   00000010   530048004300       DC8 53H, 0, 48H, 0, 43H, 0, 5FH, 0
   \              5F00        
   \   00000018   530045005400       DC8 53H, 0, 45H, 0, 54H, 0, 5FH, 0
   \              5F00        
   \   00000020   4D0041004900       DC8 4DH, 0, 41H, 0, 49H, 0, 4EH, 0
   \              4E00        
   \   00000028   4D0045004E00       DC8 4DH, 0, 45H, 0, 4EH, 0, 55H, 0
   \              5500        
   \   00000030   5F0054005800       DC8 5FH, 0, 54H, 0, 58H, 0, 54H, 0
   \              5400        
   \   00000038   0000               DC8 0, 0
   \   0000003A   0000               DC8 0, 0
   \   0000003C   45006C006600       DC8 45H, 0, 6CH, 0, 66H, 0, 73H, 0
   \              7300        
   \   00000044   0000               DC8 0, 0
   \   00000046   0000               DC8 0, 0
   \   00000048   4A0061007600       DC8 4AH, 0, 61H, 0, 76H, 0, 61H, 0
   \              6100        
   \   00000050   0000               DC8 0, 0
   \   00000052   0000               DC8 0, 0

   \                                 In segment DATA_C, align 4, align-sorted
   \                     `?<Constant "Short">`:
   \   00000000   53686F727400       DC8 "Short"
   \   00000006   0000               DC8 0, 0
   \   00000008   4C6F6E6700         DC8 "Long"
   \   0000000D   000000             DC8 0, 0, 0

   \                                 In segment DATA_C, align 4, align-sorted
   \                     `?<Constant "BookManager_ChangeSho...">`:
   \   00000000   426F6F6B4D61       DC8 "BookManager_ChangeShortcuts_Main_Page"
   \              6E616765725F
   \              4368616E6765
   \              53686F727463
   \              7574735F4D61
   \              696E5F506167
   \              6500        
   \   00000026   0000               DC8 0, 0

   \                                 In segment DATA_C, align 4, align-sorted
   \                     `?<Constant "BookManager_ChangeSho...">_1`:
   \   00000000   426F6F6B4D61       DC8 "BookManager_ChangeShortcuts_Buttons_Page"
   \              6E616765725F
   \              4368616E6765
   \              53686F727463
   \              7574735F4275
   \              74746F6E735F
   \              5061676500  
   \   00000029   000000             DC8 0, 0, 0

   \                                 In segment DATA_C, align 4, align-sorted
   \                     `?<Constant "BookManager_ChangeSho...">_2`:
   \   00000000   426F6F6B4D61       DC8 "BookManager_ChangeShortcuts_SetJava_Page"
   \              6E616765725F
   \              4368616E6765
   \              53686F727463
   \              7574735F5365
   \              744A6176615F
   \              5061676500  
   \   00000029   000000             DC8 0, 0, 0

   \                                 In segment DATA_C, align 4, align-sorted
   \                     `?<Constant "BookManager_ChangeSho...">_3`:
   \   00000000   426F6F6B4D61       DC8 "BookManager_ChangeShortcuts_SelectElf_Page"
   \              6E616765725F
   \              4368616E6765
   \              53686F727463
   \              7574735F5365
   \              6C656374456C
   \              665F50616765
   \              00          
   \   0000002B   00                 DC8 0

   \                                 In segment DATA_C, align 4, align-sorted
   \                     `?<Constant "BookManager_ChangeSho...">_4`:
   \   00000000   426F6F6B4D61       DC8 "BookManager_ChangeShortcuts_SelectShortcut_Page"
   \              6E616765725F
   \              4368616E6765
   \              53686F727463
   \              7574735F5365
   \              6C6563745368
   \              6F7274637574
   \              5F5061676500

   \                                 In segment DATA_C, align 1, align-sorted
   \   00000000   2000               DC8 " "

   \                                 In segment DATA_C, align 1, align-sorted
   \   00000000   0D0A00             DC8 "\015\012"

   \                                 In segment DATA_C, align 4, align-sorted
   \                     `?<Constant L"\\x50\\x72\\x65\\x73\\x73\\x20\\x4d\\x6f\\`:
   \   00000000   500072006500       DC8 50H, 0, 72H, 0, 65H, 0, 73H, 0
   \              7300        
   \   00000008   730020004D00       DC8 73H, 0, 20H, 0, 4DH, 0, 6FH, 0
   \              6F00        
   \   00000010   640065000000       DC8 64H, 0, 65H, 0, 0, 0
   \   00000016   0000               DC8 0, 0

   \                                 In segment DATA_C, align 4, align-sorted
   \                     `?<Constant L"\\x53\\x48\\x43\\x5f\\x53\\x45\\x54\\x5f\\_1`:
   \   00000000   530048004300       DC8 53H, 0, 48H, 0, 43H, 0, 5FH, 0
   \              5F00        
   \   00000008   530045005400       DC8 53H, 0, 45H, 0, 54H, 0, 5FH, 0
   \              5F00        
   \   00000010   530048004F00       DC8 53H, 0, 48H, 0, 4FH, 0, 52H, 0
   \              5200        
   \   00000018   540043005500       DC8 54H, 0, 43H, 0, 55H, 0, 54H, 0
   \              5400        
   \   00000020   5F0053004B00       DC8 5FH, 0, 53H, 0, 4BH, 0, 0, 0
   \              0000        

   \                                 In segment DATA_C, align 4, align-sorted
   \                     `?<Constant L"\\x5a\\x42\\x69\\x6e\\x2f">`:
   \   00000000   5A0042006900       DC8 5AH, 0, 42H, 0, 69H, 0, 6EH, 0
   \              6E00        
   \   00000008   2F000000           DC8 2FH, 0, 0, 0

   \                                 In segment DATA_C, align 4, align-sorted
   \   00000000   2F000000           DC8 2FH, 0, 0, 0

   \                                 In segment DATA_C, align 4, align-sorted
   \                     `?<Constant L"\\x5a\\x42\\x69\\x6e">`:
   \   00000000   5A0042006900       DC8 5AH, 0, 42H, 0, 69H, 0, 6EH, 0
   \              6E00        
   \   00000008   0000               DC8 0, 0
   \   0000000A   0000               DC8 0, 0
   \   0000000C   2A002E006500       DC8 2AH, 0, 2EH, 0, 65H, 0, 6CH, 0
   \              6C00        
   \   00000014   66000000           DC8 66H, 0, 0, 0

   \                                 In segment DATA_C, align 4, align-sorted
   \                     `?<Constant L"\\x6a\\x61\\x76\\x61\\x3a\\x25\\x6c\\x73\\`:
   \   00000000   6A0061007600       DC8 6AH, 0, 61H, 0, 76H, 0, 61H, 0
   \              6100        
   \   00000008   3A0025006C00       DC8 3AH, 0, 25H, 0, 6CH, 0, 73H, 0
   \              7300        
   \   00000010   2F002F002500       DC8 2FH, 0, 2FH, 0, 25H, 0, 6CH, 0
   \              6C00        
   \   00000018   73000000           DC8 73H, 0, 0, 0

   \                                 In segment DATA_C, align 4, align-sorted
   \                     `?<Constant L"\\x4d\\x61\\x69\\x6e\\x4d\\x65\\x6e\\x75"`:
   \   00000000   4D0061006900       DC8 4DH, 0, 61H, 0, 69H, 0, 6EH, 0
   \              6E00        
   \   00000008   4D0065006E00       DC8 4DH, 0, 65H, 0, 6EH, 0, 75H, 0
   \              7500        
   \   00000010   0000               DC8 0, 0
   \   00000012   0000               DC8 0, 0

   \                                 In segment DATA_C, align 1, align-sorted
   \   00000000   2F2F00             DC8 "//"

   Maximum stack usage in bytes:

     Function                       CSTACK
     --------                       ------
     But_SetElf(BOOK *, GUI *)          4
     But_SetJava(BOOK *, GUI *)         4
     But_SetMM(BOOK *, GUI *)          48
     But_onDelete(BOOK *, GUI *)       44
     But_onEnter(BOOK *, GUI *)         4
     ButtonList_Cancel_Event_Action(void *, BOOK *)
                                        4
     CancelButtonList(BOOK *, GUI *)
                                        4
     CreateButtonList(void *, BOOK *)
                                       24
     CreateDB(void *, BOOK *)          28
     CreateElem(void *)                16
     CreateJavaList(void *, BOOK *)    20
     CreateMainMenu(void *, BOOK *)    16
     CreateModeList(void *, BOOK *)    12
     DB_Filter(wchar_t const *, wchar_t const *, wchar_t const *)
                                       40
     DeleteShortcut(MyBOOK *, char *, int)
                                       28
     DestroyButList(BOOK *, GUI *)      4
     ExitButtonList(void *, BOOK *)     8
     ExitShortcutsSet(void *, BOOK *)
                                       12
     GetShortcutName(MyBOOK *, int, SC_DATA *)
                                       36
     JavaList_Cancel_Action(BOOK *, GUI *)
                                        4
     JavaList_Prev_Action(BOOK *, GUI *)
                                        4
     ModeList_CancelEvent_Action(void *, BOOK *)
                                        4
     ModeList_Cancel_Action(BOOK *, GUI *)
                                        4
     ModeList_Prev_Action(BOOK *, GUI *)
                                        4
     ReWriteShortcut(MyBOOK *, wchar_t *, char *, wchar_t *)
                                       44
     SHORTCUT_DESC_A2_Init(char *)     12
     SHORTCUT_DESC_Init(char *)        64
     Shortcut_Append(wchar_t *, char *, wchar_t *)
                                       24
     Shortcuts(BOOK *, GUI *)           8
     WriteShortcut(wchar_t *)          36
     but_list_callback(GUI_MESSAGE *)
                                       24
     elem_filter(void *)                0
     elem_free(void *)                  8
     java_list_callback(GUI_MESSAGE *)
                                       12
     list_callback(GUI_MESSAGE *)      16
     onAccept_DB(void *, BOOK *)       20
     onCancel_MainMenu_DB(void *, BOOK *)
                                        4
     onEnter_JavaList(BOOK *, GUI *)
                                       24
     onEnter_ModeList(BOOK *, GUI *)
                                        4
     onExit_JavaList(void *, BOOK *)
                                       12
     onPrevious_MainMenu_DB(void *, BOOK *)
                                        4
     onShortcutSet(BOOK *, GUI *)      16


   Segment part sizes:

     Function/Label                 Bytes
     --------------                 -----
     ChangeShortcuts_PageEvents       32
     ChangeShortcuts_page             12
     ChangeShortcuts_Buttons_PageEvents
                                      40
     ChangeShortcuts_Buttons_page     12
     SetJava_PageEvents               24
     ChangeShortcuts_SetJava_page     12
     SelectElf_PageEvents             40
     SelectShortcut_PageEvents        32
     SelectElf_page                   24
     Shortcut_Append(wchar_t *, char *, wchar_t *)
                                     208
     ReWriteShortcut(MyBOOK *, wchar_t *, char *, wchar_t *)
                                     452
     WriteShortcut(wchar_t *)        208
     onShortcutSet(BOOK *, GUI *)     76
     onPrevious_MainMenu_DB(void *, BOOK *)
                                      28
     onCancel_MainMenu_DB(void *, BOOK *)
                                      28
     CreateMainMenu(void *, BOOK *)  140
     DB_Filter(wchar_t const *, wchar_t const *, wchar_t const *)
                                      68
     onAccept_DB(void *, BOOK *)     180
     CreateDB(void *, BOOK *)        196
     onEnter_JavaList(BOOK *, GUI *)
                                     140
     JavaList_Cancel_Action(BOOK *, GUI *)
                                      20
     JavaList_Prev_Action(BOOK *, GUI *)
                                      20
     elem_free(void *)                92
     elem_filter(void *)              12
     onExit_JavaList(void *, BOOK *)
                                      76
     java_list_callback(GUI_MESSAGE *)
                                     124
     CreateElem(void *)              104
     CreateJavaList(void *, BOOK *)  392
     But_SetJava(BOOK *, GUI *)       20
     DestroyButList(BOOK *, GUI *)    24
     SHORTCUT_DESC_Init(char *)      136
     SHORTCUT_DESC_A2_Init(char *)    84
     GetShortcutName(MyBOOK *, int, SC_DATA *)
                                     460
     but_list_callback(GUI_MESSAGE *)
                                     148
     But_SetMM(BOOK *, GUI *)         52
     But_SetElf(BOOK *, GUI *)        16
     But_onEnter(BOOK *, GUI *)       48
     ExitButtonList(void *, BOOK *)   36
     CancelButtonList(BOOK *, GUI *)
                                      20
     DeleteShortcut(MyBOOK *, char *, int)
                                     172
     But_onDelete(BOOK *, GUI *)     280
     CreateButtonList(void *, BOOK *)
                                     560
     ButtonList_Cancel_Event_Action(void *, BOOK *)
                                      28
     ModeList_Cancel_Action(BOOK *, GUI *)
                                      20
     ModeList_Prev_Action(BOOK *, GUI *)
                                      20
     onEnter_ModeList(BOOK *, GUI *)
                                      20
     list_callback(GUI_MESSAGE *)    100
     CreateModeList(void *, BOOK *)  272
     ModeList_CancelEvent_Action(void *, BOOK *)
                                      28
     ExitShortcutsSet(void *, BOOK *)
                                      96
     Shortcuts(BOOK *, GUI *)         36
     ??DataTable2                      4
     ??DataTable7                      4
     ??DataTable13                     4
     ??DataTable15                     4
     ??DataTable18                     4
     ??DataTable19                     4
     ??DataTable28                     4
     ??DataTable30                     4
     ??DataTable33                     4
     ??DataTable34                     4
     ??DataTable39                     4
     ??DataTable40                     4
     ??DataTable43                     4
     ??DataTable44                     4
     ??DataTable45                     4
     ??DataTable46                     4
     ?<Initializer for ChangeShortcuts_page>
                                      12
     ?<Initializer for ChangeShortcuts_Buttons_page
                                      12
     ?<Initializer for ChangeShortcuts_SetJava_page
                                      12
     ?<Initializer for SelectElf_page>
                                      24
     ?<Constant "[L_KEY%d]">         208
     ?<Constant L"\x42\x75\x74\x74\x6f\x6e\x73">
                                      84
     ?<Constant "Short">              16
     ?<Constant "BookManager_ChangeSho...">
                                      40
     ?<Constant "BookManager_ChangeSho...">_1
                                      44
     ?<Constant "BookManager_ChangeSho...">_2
                                      44
     ?<Constant "BookManager_ChangeSho...">_3
                                      44
     ?<Constant "BookManager_ChangeSho...">_4
                                      48
     ?<Constant " ">                   2
     ?<Constant "\r\n">                3
     ?<Constant L"\x50\x72\x65\x73\x73\x20\x4d\x6f\
                                      24
     ?<Constant L"\x53\x48\x43\x5f\x53\x45\x54\x5f\_1
                                      40
     ?<Constant L"\x5a\x42\x69\x6e\x2f">
                                      12
     ?<Constant L"\x2f">               4
     ?<Constant L"\x5a\x42\x69\x6e">
                                      24
     ?<Constant L"\x6a\x61\x76\x61\x3a\x25\x6c\x73\
                                      28
     ?<Constant L"\x4d\x61\x69\x6e\x4d\x65\x6e\x75"
                                      20
     ?<Constant "//">                  3
      Others                         252

 
 5 544 bytes in segment CODE
   688 bytes in segment DATA_C
    60 bytes in segment DATA_I
    60 bytes in segment DATA_ID
   168 bytes in segment DYN_PAGE
    12 bytes in segment INITTAB
 
 5 304 bytes of CODE  memory (+ 252 bytes shared)
   916 bytes of CONST memory
    60 bytes of DATA  memory

Errors: none
Warnings: none
