##############################################################################
#                                                                            #
# IAR ARM ANSI C/C++ Compiler V4.42A/W32 EVALUATION    10/Jun/2013  22:58:05 #
# Copyright 1999-2005 IAR Systems. All rights reserved.                      #
#                                                                            #
#    Cpu mode        =  interwork                                            #
#    Endian          =  little                                               #
#    Stack alignment =  4                                                    #
#    Source file     =  Z:\home\perk11\www\perk11.info\svn\SE\Gono4ki\ErrorI #
#                       AR.c                                                 #
#    Command line    =  Z:\home\perk11\www\perk11.info\svn\SE\Gono4ki\ErrorI #
#                       AR.c -D NDEBUG -D OLDFUNCTIONS -lC                   #
#                       Z:\home\perk11\www\perk11.info\svn\SE\Gono4ki\Releas #
#                       e\List\ -lA Z:\home\perk11\www\perk11.info\svn\SE\Go #
#                       no4ki\Release\List\ -o Z:\home\perk11\www\perk11.inf #
#                       o\svn\SE\Gono4ki\Release\Obj\ -s9 --no_unroll        #
#                       --no_inline --cpu_mode arm --endian little --cpu     #
#                       ARM926EJ-S --stack_align 4 --interwork -e            #
#                       --enable_multibytes --fpu None --eec++               #
#                       --dlib_config Z:\home\perk11\IAR2\arm\LIB\dl5tpainl8 #
#                       n.h -I Z:\home\perk11\IAR2\arm\INC\                  #
#    List file       =  Z:\home\perk11\www\perk11.info\svn\SE\Gono4ki\Releas #
#                       e\List\ErrorIAR.lst                                  #
#    Object file     =  Z:\home\perk11\www\perk11.info\svn\SE\Gono4ki\Releas #
#                       e\Obj\ErrorIAR.r79                                   #
#                                                                            #
#                                                                            #
##############################################################################

Z:\home\perk11\www\perk11.info\svn\SE\Gono4ki\ErrorIAR.c
      1          #include "..\\include\Lib_Clara.h"
      2          #include "..\\include\Dir.h"
      3          #include "..\\include\var_arg.h"
      4          #include "..\\include\cfg_items.h"
      5          #include "StructBook.h"
      6          #include "Menu.h"
      7          #include "MyFUNC.h"
      8          

   \                                 In segment CODE, align 4, keep-with-next
      9          wchar_t*GetNamesOfIMN(int x, int)
     10          {
     11            switch(x)
   \                     ??GetNamesOfIMN:
   \   00000000   38109FE5           LDR      R1,??GetNamesOfIMN_1+0x4  ;; `?<Constant L"\\x424\\x43e\\x43d">`
   \   00000004   000050E3           CMP      R0,#+0
   \   00000008   0500000A           BEQ      ??GetNamesOfIMN_2
   \   0000000C   010050E2           SUBS     R0,R0,#+1
   \   00000010   0500000A           BEQ      ??GetNamesOfIMN_3
   \   00000014   010050E2           SUBS     R0,R0,#+1
   \   00000018   0500000A           BEQ      ??GetNamesOfIMN_4
   \   0000001C   060F8FE2           ADR      R0,??GetNamesOfIMN_1  ;; 0x20, 0x00, 0x00, 0x00
   \   00000020   1EFF2FE1           BX       LR
     12            {
     13            case 0:
     14              return L"Фон";
   \                     ??GetNamesOfIMN_2:
   \   00000024   0100A0E1           MOV      R0,R1
   \   00000028   1EFF2FE1           BX       LR
     15            case 1:
     16              return L"Игровой фон";
   \                     ??GetNamesOfIMN_3:
   \   0000002C   080081E2           ADD      R0,R1,#+8
   \   00000030   1EFF2FE1           BX       LR
     17            case 2:
     18              return L"Кубик";
   \                     ??GetNamesOfIMN_4:
   \   00000034   200081E2           ADD      R0,R1,#+32
   \   00000038   1EFF2FE1           BX       LR
   \                     ??GetNamesOfIMN_1:
   \   0000003C   20000000           DC8      0x20, 0x00, 0x00, 0x00
   \   00000040   ........           DC32     `?<Constant L"\\x424\\x43e\\x43d">`
     19            }
     20            return L" ";
     21          }

   \                                 In segment CODE, align 4, keep-with-next
     22          void ShowInfo()
     23          {
   \                     ??ShowInfo:
   \   00000000   70402DE9           PUSH     {R4-R6,LR}
     24            int met[10];
     25            met[0]=STR("Название: Gono4ki v0.2fix\n");
   \   00000004   18419FE5           LDR      R4,??ShowInfo_1  ;; `?<Constant L"\\x41d\\x430\\x437\\x432\\x430\\x43d\\x4`
   \   00000008   28D04DE2           SUB      SP,SP,#+40
   \   0000000C   FF50A0E3           MOV      R5,#+255
   \   00000010   FF5C85E3           ORR      R5,R5,#0xFF00
   \   00000014   0520A0E1           MOV      R2,R5
   \   00000018   0010A0E3           MOV      R1,#+0
   \   0000001C   0400A0E1           MOV      R0,R4
   \   00000020   5D0100EF           SWI      +349
   \   00000024   00008DE5           STR      R0,[SP, #+0]
     26            met[1]=STR("(c) DoCent aka MoneyMasteR\n\n");
   \   00000028   0520A0E1           MOV      R2,R5
   \   0000002C   0010A0E3           MOV      R1,#+0
   \   00000030   380084E2           ADD      R0,R4,#+56
   \   00000034   5D0100EF           SWI      +349
   \   00000038   04008DE5           STR      R0,[SP, #+4]
     27            met[2]=STR("Управление:\n\n");
   \   0000003C   0520A0E1           MOV      R2,R5
   \   00000040   0010A0E3           MOV      R1,#+0
   \   00000044   740084E2           ADD      R0,R4,#+116
   \   00000048   5D0100EF           SWI      +349
   \   0000004C   08008DE5           STR      R0,[SP, #+8]
     28            met[3]=STR("Дж.вправо, 6 - перемещение машинки вправо\n\n");
   \   00000050   0520A0E1           MOV      R2,R5
   \   00000054   0010A0E3           MOV      R1,#+0
   \   00000058   900084E2           ADD      R0,R4,#+144
   \   0000005C   5D0100EF           SWI      +349
   \   00000060   0C008DE5           STR      R0,[SP, #+12]
     29            met[4]=STR("Дж.влево, 4 - перемещение машинки влево\n\n");
   \   00000064   0520A0E1           MOV      R2,R5
   \   00000068   0010A0E3           MOV      R1,#+0
   \   0000006C   E80084E2           ADD      R0,R4,#+232
   \   00000070   5D0100EF           SWI      +349
   \   00000074   10008DE5           STR      R0,[SP, #+16]
     30            met[5]=STR("Дж.центр, 5 - ускорение 3х\n\n");  
   \   00000078   0520A0E1           MOV      R2,R5
   \   0000007C   0010A0E3           MOV      R1,#+0
   \   00000080   4F0F84E2           ADD      R0,R4,#+316
   \   00000084   5D0100EF           SWI      +349
   \   00000088   14008DE5           STR      R0,[SP, #+20]
     31            met[6]=STR("Короткое Назад - пауза\n\n");
   \   0000008C   0520A0E1           MOV      R2,R5
   \   00000090   0010A0E3           MOV      R1,#+0
   \   00000094   5E0F84E2           ADD      R0,R4,#+376
   \   00000098   5D0100EF           SWI      +349
   \   0000009C   18008DE5           STR      R0,[SP, #+24]
     32            met[7]=STR("Долгое Назад - выход\n\n");
   \   000000A0   0520A0E1           MOV      R2,R5
   \   000000A4   0010A0E3           MOV      R1,#+0
   \   000000A8   6B0F84E2           ADD      R0,R4,#+428
   \   000000AC   5D0100EF           SWI      +349
   \   000000B0   1C008DE5           STR      R0,[SP, #+28]
     33            met[8]=STR("# - вкл./откл. звук\n\n");
   \   000000B4   0520A0E1           MOV      R2,R5
   \   000000B8   0010A0E3           MOV      R1,#+0
   \   000000BC   770F84E2           ADD      R0,R4,#+476
   \   000000C0   5D0100EF           SWI      +349
   \   000000C4   20008DE5           STR      R0,[SP, #+32]
     34            met[9]=STR("* - свернуть\n");
   \   000000C8   0520A0E1           MOV      R2,R5
   \   000000CC   0010A0E3           MOV      R1,#+0
   \   000000D0   820F84E2           ADD      R0,R4,#+520
   \   000000D4   5D0100EF           SWI      +349
   \   000000D8   24008DE5           STR      R0,[SP, #+36]
     35            MessageBox(STR("Инфо"), TextID_Create(met, ENC_TEXTID, 10), NOIMAGE, 2, 0, 0);
   \   000000DC   0A20A0E3           MOV      R2,#+10
   \   000000E0   0510A0E3           MOV      R1,#+5
   \   000000E4   0D00A0E1           MOV      R0,SP
   \   000000E8   5D0100EF           SWI      +349
   \   000000EC   0060A0E1           MOV      R6,R0
   \   000000F0   0520A0E1           MOV      R2,R5
   \   000000F4   0010A0E3           MOV      R1,#+0
   \   000000F8   890F84E2           ADD      R0,R4,#+548
   \   000000FC   5D0100EF           SWI      +349
   \   00000100   0010A0E3           MOV      R1,#+0
   \   00000104   02002DE9           PUSH     {R1}
   \   00000108   02002DE9           PUSH     {R1}
   \   0000010C   0230A0E3           MOV      R3,#+2
   \   00000110   0520A0E1           MOV      R2,R5
   \   00000114   0610A0E1           MOV      R1,R6
   \   00000118   570200EF           SWI      +599
     36          }
   \   0000011C   30D08DE2           ADD      SP,SP,#+48
   \   00000120   7080BDE8           POP      {R4-R6,PC}       ;; return
   \                     ??ShowInfo_1:
   \   00000124   ........           DC32     `?<Constant L"\\x41d\\x430\\x437\\x432\\x430\\x43d\\x4`

   \                                 In segment DATA_C, align 4, align-sorted
   \                     `?<Constant L"\\x424\\x43e\\x43d">`:
   \   00000000   24043E043D04       DC8 24H, 4, 3EH, 4, 3DH, 4, 0, 0
   \              0000        
   \   00000008   180433044004       DC8 18H, 4, 33H, 4, 40H, 4, 3EH, 4
   \              3E04        
   \   00000010   32043E043904       DC8 32H, 4, 3EH, 4, 39H, 4, 20H, 0
   \              2000        
   \   00000018   44043E043D04       DC8 44H, 4, 3EH, 4, 3DH, 4, 0, 0
   \              0000        
   \   00000020   1A0443043104       DC8 1AH, 4, 43H, 4, 31H, 4, 38H, 4
   \              3804        
   \   00000028   3A040000           DC8 3AH, 4, 0, 0

   \                                 In segment DATA_C, align 4, align-sorted
   \   00000000   20000000           DC8 20H, 0, 0, 0

   \                                 In segment DATA_C, align 4, align-sorted
   \                     `?<Constant L"\\x41d\\x430\\x437\\x432\\x430\\x43d\\x4`:
   \   00000000   1D0430043704       DC8 1DH, 4, 30H, 4, 37H, 4, 32H, 4
   \              3204        
   \   00000008   30043D043804       DC8 30H, 4, 3DH, 4, 38H, 4, 35H, 4
   \              3504        
   \   00000010   3A0020004700       DC8 3AH, 0, 20H, 0, 47H, 0, 6FH, 0
   \              6F00        
   \   00000018   6E006F003400       DC8 6EH, 0, 6FH, 0, 34H, 0, 6BH, 0
   \              6B00        
   \   00000020   690020007600       DC8 69H, 0, 20H, 0, 76H, 0, 30H, 0
   \              3000        
   \   00000028   2E0032006600       DC8 2EH, 0, 32H, 0, 66H, 0, 69H, 0
   \              6900        
   \   00000030   78000A000000       DC8 78H, 0, 0AH, 0, 0, 0
   \   00000036   0000               DC8 0, 0
   \   00000038   280063002900       DC8 28H, 0, 63H, 0, 29H, 0, 20H, 0
   \              2000        
   \   00000040   44006F004300       DC8 44H, 0, 6FH, 0, 43H, 0, 65H, 0
   \              6500        
   \   00000048   6E0074002000       DC8 6EH, 0, 74H, 0, 20H, 0, 61H, 0
   \              6100        
   \   00000050   6B0061002000       DC8 6BH, 0, 61H, 0, 20H, 0, 4DH, 0
   \              4D00        
   \   00000058   6F006E006500       DC8 6FH, 0, 6EH, 0, 65H, 0, 79H, 0
   \              7900        
   \   00000060   4D0061007300       DC8 4DH, 0, 61H, 0, 73H, 0, 74H, 0
   \              7400        
   \   00000068   650052000A00       DC8 65H, 0, 52H, 0, 0AH, 0, 0AH, 0
   \              0A00        
   \   00000070   0000               DC8 0, 0
   \   00000072   0000               DC8 0, 0
   \   00000074   23043F044004       DC8 23H, 4, 3FH, 4, 40H, 4, 30H, 4
   \              3004        
   \   0000007C   32043B043504       DC8 32H, 4, 3BH, 4, 35H, 4, 3DH, 4
   \              3D04        
   \   00000084   380435043A00       DC8 38H, 4, 35H, 4, 3AH, 0, 0AH, 0
   \              0A00        
   \   0000008C   0A000000           DC8 0AH, 0, 0, 0
   \   00000090   140436042E00       DC8 14H, 4, 36H, 4, 2EH, 0, 32H, 4
   \              3204        
   \   00000098   3F0440043004       DC8 3FH, 4, 40H, 4, 30H, 4, 32H, 4
   \              3204        
   \   000000A0   3E042C002000       DC8 3EH, 4, 2CH, 0, 20H, 0, 36H, 0
   \              3600        
   \   000000A8   20002D002000       DC8 20H, 0, 2DH, 0, 20H, 0, 3FH, 4
   \              3F04        
   \   000000B0   350440043504       DC8 35H, 4, 40H, 4, 35H, 4, 3CH, 4
   \              3C04        
   \   000000B8   350449043504       DC8 35H, 4, 49H, 4, 35H, 4, 3DH, 4
   \              3D04        
   \   000000C0   380435042000       DC8 38H, 4, 35H, 4, 20H, 0, 3CH, 4
   \              3C04        
   \   000000C8   300448043804       DC8 30H, 4, 48H, 4, 38H, 4, 3DH, 4
   \              3D04        
   \   000000D0   3A0438042000       DC8 3AH, 4, 38H, 4, 20H, 0, 32H, 4
   \              3204        
   \   000000D8   3F0440043004       DC8 3FH, 4, 40H, 4, 30H, 4, 32H, 4
   \              3204        
   \   000000E0   3E040A000A00       DC8 3EH, 4, 0AH, 0, 0AH, 0, 0, 0
   \              0000        
   \   000000E8   140436042E00       DC8 14H, 4, 36H, 4, 2EH, 0, 32H, 4
   \              3204        
   \   000000F0   3B0435043204       DC8 3BH, 4, 35H, 4, 32H, 4, 3EH, 4
   \              3E04        
   \   000000F8   2C0020003400       DC8 2CH, 0, 20H, 0, 34H, 0, 20H, 0
   \              2000        
   \   00000100   2D0020003F04       DC8 2DH, 0, 20H, 0, 3FH, 4, 35H, 4
   \              3504        
   \   00000108   400435043C04       DC8 40H, 4, 35H, 4, 3CH, 4, 35H, 4
   \              3504        
   \   00000110   490435043D04       DC8 49H, 4, 35H, 4, 3DH, 4, 38H, 4
   \              3804        
   \   00000118   350420003C04       DC8 35H, 4, 20H, 0, 3CH, 4, 30H, 4
   \              3004        
   \   00000120   480438043D04       DC8 48H, 4, 38H, 4, 3DH, 4, 3AH, 4
   \              3A04        
   \   00000128   380420003204       DC8 38H, 4, 20H, 0, 32H, 4, 3BH, 4
   \              3B04        
   \   00000130   350432043E04       DC8 35H, 4, 32H, 4, 3EH, 4, 0AH, 0
   \              0A00        
   \   00000138   0A000000           DC8 0AH, 0, 0, 0
   \   0000013C   140436042E00       DC8 14H, 4, 36H, 4, 2EH, 0, 46H, 4
   \              4604        
   \   00000144   35043D044204       DC8 35H, 4, 3DH, 4, 42H, 4, 40H, 4
   \              4004        
   \   0000014C   2C0020003500       DC8 2CH, 0, 20H, 0, 35H, 0, 20H, 0
   \              2000        
   \   00000154   2D0020004304       DC8 2DH, 0, 20H, 0, 43H, 4, 41H, 4
   \              4104        
   \   0000015C   3A043E044004       DC8 3AH, 4, 3EH, 4, 40H, 4, 35H, 4
   \              3504        
   \   00000164   3D0438043504       DC8 3DH, 4, 38H, 4, 35H, 4, 20H, 0
   \              2000        
   \   0000016C   330045040A00       DC8 33H, 0, 45H, 4, 0AH, 0, 0AH, 0
   \              0A00        
   \   00000174   0000               DC8 0, 0
   \   00000176   0000               DC8 0, 0
   \   00000178   1A043E044004       DC8 1AH, 4, 3EH, 4, 40H, 4, 3EH, 4
   \              3E04        
   \   00000180   42043A043E04       DC8 42H, 4, 3AH, 4, 3EH, 4, 35H, 4
   \              3504        
   \   00000188   20001D043004       DC8 20H, 0, 1DH, 4, 30H, 4, 37H, 4
   \              3704        
   \   00000190   300434042000       DC8 30H, 4, 34H, 4, 20H, 0, 2DH, 0
   \              2D00        
   \   00000198   20003F043004       DC8 20H, 0, 3FH, 4, 30H, 4, 43H, 4
   \              4304        
   \   000001A0   370430040A00       DC8 37H, 4, 30H, 4, 0AH, 0, 0AH, 0
   \              0A00        
   \   000001A8   0000               DC8 0, 0
   \   000001AA   0000               DC8 0, 0
   \   000001AC   14043E043B04       DC8 14H, 4, 3EH, 4, 3BH, 4, 33H, 4
   \              3304        
   \   000001B4   3E0435042000       DC8 3EH, 4, 35H, 4, 20H, 0, 1DH, 4
   \              1D04        
   \   000001BC   300437043004       DC8 30H, 4, 37H, 4, 30H, 4, 34H, 4
   \              3404        
   \   000001C4   20002D002000       DC8 20H, 0, 2DH, 0, 20H, 0, 32H, 4
   \              3204        
   \   000001CC   4B0445043E04       DC8 4BH, 4, 45H, 4, 3EH, 4, 34H, 4
   \              3404        
   \   000001D4   0A000A000000       DC8 0AH, 0, 0AH, 0, 0, 0
   \   000001DA   0000               DC8 0, 0
   \   000001DC   230020002D00       DC8 23H, 0, 20H, 0, 2DH, 0, 20H, 0
   \              2000        
   \   000001E4   32043A043B04       DC8 32H, 4, 3AH, 4, 3BH, 4, 2EH, 0
   \              2E00        
   \   000001EC   2F003E044204       DC8 2FH, 0, 3EH, 4, 42H, 4, 3AH, 4
   \              3A04        
   \   000001F4   3B042E002000       DC8 3BH, 4, 2EH, 0, 20H, 0, 37H, 4
   \              3704        
   \   000001FC   320443043A04       DC8 32H, 4, 43H, 4, 3AH, 4, 0AH, 0
   \              0A00        
   \   00000204   0A000000           DC8 0AH, 0, 0, 0
   \   00000208   2A0020002D00       DC8 2AH, 0, 20H, 0, 2DH, 0, 20H, 0
   \              2000        
   \   00000210   410432043504       DC8 41H, 4, 32H, 4, 35H, 4, 40H, 4
   \              4004        
   \   00000218   3D0443044204       DC8 3DH, 4, 43H, 4, 42H, 4, 4CH, 4
   \              4C04        
   \   00000220   0A000000           DC8 0AH, 0, 0, 0
   \   00000224   18043D044404       DC8 18H, 4, 3DH, 4, 44H, 4, 3EH, 4
   \              3E04        
   \   0000022C   0000               DC8 0, 0
   \   0000022E   0000               DC8 0, 0

   Maximum stack usage in bytes:

     Function                CSTACK
     --------                ------
     GetNamesOfIMN(int, int)     0
     ShowInfo()                 64


   Segment part sizes:

     Function/Label                 Bytes
     --------------                 -----
     GetNamesOfIMN(int, int)          68
     ShowInfo()                      296
     ?<Constant L"\x424\x43e\x43d">   44
     ?<Constant L"\x20">               4
     ?<Constant L"\x41d\x430\x437\x432\x430\x43d\x4
                                     560
      Others                           8

 
 372 bytes in segment CODE
 608 bytes in segment DATA_C
 
 364 bytes of CODE  memory (+ 8 bytes shared)
 608 bytes of CONST memory

Errors: none
Warnings: none
