##############################################################################
#                                                                            #
# IAR ARM ANSI C/C++ Compiler V4.42A/W32 EVALUATION    10/Jun/2013  22:58:22 #
# Copyright 1999-2005 IAR Systems. All rights reserved.                      #
#                                                                            #
#    Cpu mode        =  interwork                                            #
#    Endian          =  little                                               #
#    Stack alignment =  4                                                    #
#    Source file     =  Z:\home\perk11\www\perk11.info\svn\SE\Gono4ki\Game.c #
#    Command line    =  Z:\home\perk11\www\perk11.info\svn\SE\Gono4ki\Game.c #
#                        -D NDEBUG -D OLDFUNCTIONS -lC                       #
#                       Z:\home\perk11\www\perk11.info\svn\SE\Gono4ki\Releas #
#                       e\List\ -lA Z:\home\perk11\www\perk11.info\svn\SE\Go #
#                       no4ki\Release\List\ -o Z:\home\perk11\www\perk11.inf #
#                       o\svn\SE\Gono4ki\Release\Obj\ -s9 --no_unroll        #
#                       --no_inline --cpu_mode arm --endian little --cpu     #
#                       ARM926EJ-S --stack_align 4 --interwork -e            #
#                       --enable_multibytes --fpu None --eec++               #
#                       --dlib_config Z:\home\perk11\IAR2\arm\LIB\dl5tpainl8 #
#                       n.h -I Z:\home\perk11\IAR2\arm\INC\                  #
#    List file       =  Z:\home\perk11\www\perk11.info\svn\SE\Gono4ki\Releas #
#                       e\List\Game.lst                                      #
#    Object file     =  Z:\home\perk11\www\perk11.info\svn\SE\Gono4ki\Releas #
#                       e\Obj\Game.r79                                       #
#                                                                            #
#                                                                            #
##############################################################################

Z:\home\perk11\www\perk11.info\svn\SE\Gono4ki\Game.c
      1          #include "..\\include\Lib_Clara.h"

   \                                 In segment CODE, align 4, keep-with-next
   \   __??Code32?? __code __interwork __atpcs LPARAM::LPARAM(int)
   \                     ??LPARAM:
   \   00000000   001080E5           STR      R1,[R0, #+0]
   \   00000004   1EFF2FE1           BX       LR               ;; return
      2          #include "..\\include\Dir.h"
      3          #include "..\\include\var_arg.h"
      4          #include "..\\include\cfg_items.h"
      5          #include "StructBook.h"
      6          #include "Menu.h"
      7          #include "MyFUNC.h"
      8          #include "rand.h"
      9          #include "NewRecord.h"

   \                                 In segment DATA_Z, align 4, align-sorted
     10          u16 ftimer;
   \                     ftimer:
   \   00000000                      DS8 2
   \   00000002                      DS8 2
     11          
     12          typedef GUI GUI_CUSTOM;
     13          
     14          DISP_DESC *dd;
   \                     dd:
   \   00000004                      DS8 4
     15          GUI_CUSTOM* np;
   \                     np:
   \   00000008                      DS8 4
     16          
     17          static const char custom_guiname[]="gui_custom";
     18          

   \                                 In segment DYN_PAGE, align 4, align-sorted
     19          const PAGE_MSG bk_msglst_go[] @ "DYN_PAGE"  = 
   \                     bk_msglst_go:
   \   00000000   42000000....       DC32 66, ??CreateGO, 64, 0H
   \              ....40000000
   \              00000000    

   \                                 In segment DATA_C, align 4, align-sorted
   \                     `?<Constant L"\\x54\\x52\\x5f\\x41\\x4c\\x41\\x52\\x4d\\`:
   \   00000000   540052005F00       DC8 54H, 0, 52H, 0, 5FH, 0, 41H, 0
   \              4100        
   \   00000008   4C0041005200       DC8 4CH, 0, 41H, 0, 52H, 0, 4DH, 0
   \              4D00        
   \   00000010   5F004F004E00       DC8 5FH, 0, 4FH, 0, 4EH, 0, 5FH, 0
   \              5F00        
   \   00000018   490043004E00       DC8 49H, 0, 43H, 0, 4EH, 0, 0, 0
   \              0000        
   \   00000020   540052005F00       DC8 54H, 0, 52H, 0, 5FH, 0, 41H, 0
   \              4100        
   \   00000028   4C0041005200       DC8 4CH, 0, 41H, 0, 52H, 0, 4DH, 0
   \              4D00        
   \   00000030   5F004F004600       DC8 5FH, 0, 4FH, 0, 46H, 0, 46H, 0
   \              4600        
   \   00000038   5F0049004300       DC8 5FH, 0, 49H, 0, 43H, 0, 4EH, 0
   \              4E00        
   \   00000040   0000               DC8 0, 0
   \   00000042   0000               DC8 0, 0
   \   00000044   476F6E6F346B       DC8 "Gono4ki"
   \              6900        
   \   0000004C   476F6E6F346B       DC8 "Gono4ki"
   \              6900        
   \   00000054   ........0000       DC32 `?<Constant "Game_GuiMenu_Page">`, 0H, bk_msglst_go
   \              0000........

   \                                 In segment DATA_C, align 4, align-sorted
   \                     custom_guiname:
   \   00000000   6775695F6375       DC8 "gui_custom"
   \              73746F6D00  
   \   0000000B   00                 DC8 0
     20          {
     21            PAGE_ENTER_EVENT_TAG,    CreateGO,
     22            NIL_EVENT_TAG,           NULL
     23          };
     24          
     25          const PAGE_DESC bk_go = {"Game_GuiMenu_Page",0,bk_msglst_go};
     26          

   \                                 In segment CODE, align 4, keep-with-next
     27          int custom_onCreate(DISP_OBJ *DO)
     28          {
     29            return 1;
   \                     ??custom_onCreate:
   \   00000000   0100A0E3           MOV      R0,#+1
   \   00000004   1EFF2FE1           BX       LR               ;; return
     30          };
     31          

   \                                 In segment CODE, align 4, keep-with-next
     32          void custom_onClose(DISP_OBJ *DO)
     33          {
     34            return;
   \                     ??custom_onClose:
   \   00000000   1EFF2FE1           BX       LR               ;; return
     35          };
     36          

   \                                 In segment CODE, align 4, keep-with-next
     37          void custom_constr(DISP_DESC *desc)
     38          {
     39            DISP_DESC_SetName(desc,custom_guiname);
   \                     ??custom_constr:
   \   00000000   30109FE5           LDR      R1,??custom_constr_1  ;; custom_guiname
   \   00000004   10402DE9           PUSH     {R4,LR}
   \   00000008   0040A0E1           MOV      R4,R0
   \   0000000C   200200EF           SWI      +544
     40            DISP_DESC_SetSize(desc,sizeof(DISP_OBJ));
   \   00000010   5B1FA0E3           MOV      R1,#+364
   \   00000014   0400A0E1           MOV      R0,R4
   \   00000018   220200EF           SWI      +546
     41            DISP_DESC_SetOnCreate(desc,(DISP_OBJ_ONCREATE_METHOD)custom_onCreate);
   \   0000001C   18109FE5           LDR      R1,??custom_constr_1+0x4  ;; ??custom_onCreate
   \   00000020   0400A0E1           MOV      R0,R4
   \   00000024   240200EF           SWI      +548
     42            DISP_DESC_SetOnClose(desc,(DISP_OBJ_ONCLOSE_METHOD)custom_onClose);
   \   00000028   10109FE5           LDR      R1,??custom_constr_1+0x8  ;; ??custom_onClose
   \   0000002C   0400A0E1           MOV      R0,R4
   \   00000030   260200EF           SWI      +550
     43          };
   \   00000034   1080BDE8           POP      {R4,PC}          ;; return
   \                     ??custom_constr_1:
   \   00000038   ........           DC32     custom_guiname
   \   0000003C   ........           DC32     ??custom_onCreate
   \   00000040   ........           DC32     ??custom_onClose
     44          

   \                                 In segment CODE, align 4, keep-with-next
     45          void custom_destr( GUI* )
     46          {
     47            return;
   \                     ??custom_destr:
   \   00000000   1EFF2FE1           BX       LR               ;; return
     48          };
     49          

   \                                 In segment CODE, align 4, keep-with-next
     50          GUI_CUSTOM *custom_create(BOOK *bk)
     51          {
   \                     ??custom_create:
   \   00000000   30402DE9           PUSH     {R4,R5,LR}
   \   00000004   0040A0E1           MOV      R4,R0
     52            GUI_CUSTOM *gui_cs=new GUI_CUSTOM;
   \   00000008   9000A0E3           MOV      R0,#+144
   \   0000000C   ........           _BLF     `??operator new`,`??operator new??rA`
     53            if (!GUIObject_Create(gui_cs,custom_destr, custom_constr,bk,0,0,0))
   \   00000010   78209FE5           LDR      R2,??custom_create_1  ;; ??custom_constr
   \   00000014   78109FE5           LDR      R1,??custom_create_1+0x4  ;; ??custom_destr
   \   00000018   0050A0E1           MOV      R5,R0
   \   0000001C   0000A0E3           MOV      R0,#+0
   \   00000020   01002DE9           PUSH     {R0}
   \   00000024   01002DE9           PUSH     {R0}
   \   00000028   01002DE9           PUSH     {R0}
   \   0000002C   0430A0E1           MOV      R3,R4
   \   00000030   0500A0E1           MOV      R0,R5
   \   00000034   F00100EF           SWI      +496
   \   00000038   000050E3           CMP      R0,#+0
   \   0000003C   0CD08DE2           ADD      SP,SP,#+12
   \   00000040   0300001A           BNE      ??custom_create_2
     54            {
     55              delete gui_cs;
   \   00000044   0500A0E1           MOV      R0,R5
   \   00000048   ........           _BLF     `??operator delete`,`??operator delete??rA`
     56              return 0;    
   \   0000004C   0000A0E3           MOV      R0,#+0
   \   00000050   3080BDE8           POP      {R4,R5,PC}
     57            }
     58            if (bk) BookObj_AddGUIObject(bk,gui_cs);
   \                     ??custom_create_2:
   \   00000054   000054E3           CMP      R4,#+0
   \   00000058   0200000A           BEQ      ??custom_create_3
   \   0000005C   0510A0E1           MOV      R1,R5
   \   00000060   0400A0E1           MOV      R0,R4
   \   00000064   EB0100EF           SWI      +491
     59            GUIObject_SetStyle(gui_cs, 4);
   \                     ??custom_create_3:
   \   00000068   0410A0E3           MOV      R1,#+4
   \   0000006C   0500A0E1           MOV      R0,R5
   \   00000070   360100EF           SWI      +310
     60            GUIObject_SetTitleType(gui_cs, 1);
   \   00000074   0110A0E3           MOV      R1,#+1
   \   00000078   0500A0E1           MOV      R0,R5
   \   0000007C   810200EF           SWI      +641
     61            GUIObject_SoftKeys_Hide(gui_cs);
   \   00000080   0500A0E1           MOV      R0,R5
   \   00000084   A10200EF           SWI      +673
     62            return gui_cs;
   \   00000088   0500A0E1           MOV      R0,R5
   \   0000008C   3080BDE8           POP      {R4,R5,PC}       ;; return
   \                     ??custom_create_1:
   \   00000090   ........           DC32     ??custom_constr
   \   00000094   ........           DC32     ??custom_destr
     63          };
     64          

   \                                 In segment CODE, align 4, keep-with-next
     65          void DrawCub(int cx, int cy, int ob)
     66          {
   \                     ??DrawCub:
   \   00000000   F0432DE9           PUSH     {R4-R9,LR}
   \   00000004   0160A0E1           MOV      R6,R1
   \   00000008   0080A0E1           MOV      R8,R0
   \   0000000C   0250A0E1           MOV      R5,R2
     67            int cub=MyBK()->dis[GetDis()]->cub;
   \   00000010   ........           _BLF     ??MyBK,??MyBK??rA
   \   00000014   0040A0E1           MOV      R4,R0
   \   00000018   ........           _BLF     ??GetDis,??GetDis??rA
   \   0000001C   000184E0           ADD      R0,R4,R0, LSL #+2
   \   00000020   3C0390E5           LDR      R0,[R0, #+828]
   \   00000024   087090E5           LDR      R7,[R0, #+8]
     68            int x=MyBK()->dis[GetDis()]->x;
   \   00000028   ........           _BLF     ??MyBK,??MyBK??rA
   \   0000002C   ........           _BLF     ??GetDis,??GetDis??rA
     69            int y=MyBK()->dis[GetDis()]->y;
   \   00000030   ........           _BLF     ??MyBK,??MyBK??rA
   \   00000034   0040A0E1           MOV      R4,R0
   \   00000038   ........           _BLF     ??GetDis,??GetDis??rA
   \   0000003C   000184E0           ADD      R0,R4,R0, LSL #+2
   \   00000040   3C0390E5           LDR      R0,[R0, #+828]
   \   00000044   044090E5           LDR      R4,[R0, #+4]
     70            if(MyBK()->image->fi[2])
   \   00000048   ........           _BLF     ??MyBK,??MyBK??rA
   \   0000004C   240390E5           LDR      R0,[R0, #+804]
   \   00000050   140090E5           LDR      R0,[R0, #+20]
   \   00000054   000050E3           CMP      R0,#+0
   \   00000058   0F00000A           BEQ      ??DrawCub_1
     71            {
     72              GC_PutChar(get_DisplayGC() , cx*cub, y-(cy*cub), 0, 0, MyBK()->image->im[2]->ImageID);
   \   0000005C   ........           _BLF     ??MyBK,??MyBK??rA
   \   00000060   0050A0E1           MOV      R5,R0
   \   00000064   E50100EF           SWI      +485
   \   00000068   241395E5           LDR      R1,[R5, #+804]
   \   0000006C   0030A0E3           MOV      R3,#+0
   \   00000070   081091E5           LDR      R1,[R1, #+8]
   \   00000074   B010D1E1           LDRH     R1,[R1, #+0]
   \   00000078   02002DE9           PUSH     {R1}
   \   0000007C   0010A0E3           MOV      R1,#+0
   \   00000080   02002DE9           PUSH     {R1}
   \   00000084   970601E0           MUL      R1,R7,R6
   \   00000088   012044E0           SUB      R2,R4,R1
   \   0000008C   970801E0           MUL      R1,R7,R8
   \   00000090   400100EF           SWI      +320
   \   00000094   08D08DE2           ADD      SP,SP,#+8
   \   00000098   F083BDE8           POP      {R4-R9,PC}
     73            }
     74            else
     75            {
     76              DrawRect(cx*cub, y-(cy*cub), cub+cx*cub, y+cub-(cy*cub), ob*0xFF000000, 0x00000000);
   \                     ??DrawCub_1:
   \   0000009C   970600E0           MUL      R0,R7,R6
   \   000000A0   041087E0           ADD      R1,R7,R4
   \   000000A4   006041E0           SUB      R6,R1,R0
   \   000000A8   004044E0           SUB      R4,R4,R0
   \   000000AC   0000A0E3           MOV      R0,#+0
   \   000000B0   01002DE9           PUSH     {R0}
   \   000000B4   051CA0E1           LSL      R1,R5,#+24
   \   000000B8   005061E2           RSB      R5,R1,#+0
   \   000000BC   0500A0E1           MOV      R0,R5
   \   000000C0   01002DE9           PUSH     {R0}
   \   000000C4   970808E0           MUL      R8,R7,R8
   \   000000C8   0630A0E1           MOV      R3,R6
   \   000000CC   079088E0           ADD      R9,R8,R7
   \   000000D0   0920A0E1           MOV      R2,R9
   \   000000D4   0410A0E1           MOV      R1,R4
   \   000000D8   0800A0E1           MOV      R0,R8
   \   000000DC   EC0100EF           SWI      +492
     77              DrawRect(cx*cub+2, y-(cy*cub)+2, cub+cx*cub-2, y+cub-(cy*cub)-2, ob*0xFF000000, 0xFF000000);
   \   000000E0   FF04A0E3           MOV      R0,#-16777216
   \   000000E4   01002DE9           PUSH     {R0}
   \   000000E8   20002DE9           PUSH     {R5}
   \   000000EC   023046E2           SUB      R3,R6,#+2
   \   000000F0   022049E2           SUB      R2,R9,#+2
   \   000000F4   021084E2           ADD      R1,R4,#+2
   \   000000F8   020088E2           ADD      R0,R8,#+2
   \   000000FC   EC0100EF           SWI      +492
   \   00000100   10D08DE2           ADD      SP,SP,#+16
     78            }
     79          }
   \   00000104   F083BDE8           POP      {R4-R9,PC}       ;; return
     80          

   \                                 In segment CODE, align 4, keep-with-next
     81          void DrawP(PREGRADA*p)
     82          {
   \                     ??DrawP:
   \   00000000   F0402DE9           PUSH     {R4-R7,LR}
   \   00000004   0040A0E1           MOV      R4,R0
     83            for(int i=0; i<4; i++)
   \   00000008   0050A0E3           MOV      R5,#+0
     84            {
     85              if(p->x[i]==1) DrawCub(i*3, p->y, 1);
   \                     ??DrawP_1:
   \   0000000C   056184E0           ADD      R6,R4,R5, LSL #+2
   \   00000010   000096E5           LDR      R0,[R6, #+0]
   \   00000014   857085E0           ADD      R7,R5,R5, LSL #+1
   \   00000018   010050E3           CMP      R0,#+1
   \   0000001C   0300001A           BNE      ??DrawP_2
   \   00000020   101094E5           LDR      R1,[R4, #+16]
   \   00000024   0120A0E3           MOV      R2,#+1
   \   00000028   0700A0E1           MOV      R0,R7
   \   0000002C   ........           BL       ??DrawCub
     86              if(p->x[i]==1) DrawCub(i*3+1, p->y, 1);    
   \                     ??DrawP_2:
   \   00000030   000096E5           LDR      R0,[R6, #+0]
   \   00000034   010050E3           CMP      R0,#+1
   \   00000038   0300001A           BNE      ??DrawP_3
   \   0000003C   101094E5           LDR      R1,[R4, #+16]
   \   00000040   0120A0E3           MOV      R2,#+1
   \   00000044   010087E2           ADD      R0,R7,#+1
   \   00000048   ........           BL       ??DrawCub
     87              if(p->x[i]==1) DrawCub(i*3+2, p->y, 1);
   \                     ??DrawP_3:
   \   0000004C   000096E5           LDR      R0,[R6, #+0]
   \   00000050   010050E3           CMP      R0,#+1
   \   00000054   0300001A           BNE      ??DrawP_4
   \   00000058   101094E5           LDR      R1,[R4, #+16]
   \   0000005C   0120A0E3           MOV      R2,#+1
   \   00000060   020087E2           ADD      R0,R7,#+2
   \   00000064   ........           BL       ??DrawCub
     88            }
   \                     ??DrawP_4:
   \   00000068   015085E2           ADD      R5,R5,#+1
   \   0000006C   040055E3           CMP      R5,#+4
   \   00000070   E5FFFFBA           BLT      ??DrawP_1
     89          }
   \   00000074   F080BDE8           POP      {R4-R7,PC}       ;; return
     90            
     91          

   \                                 In segment CODE, align 4, keep-with-next
     92          void DrawTank(int step)
     93          {
   \                     ??DrawTank:
   \   00000000   70402DE9           PUSH     {R4-R6,LR}
     94            DrawCub(step*3, 1, 1);
   \   00000004   804080E0           ADD      R4,R0,R0, LSL #+1
   \   00000008   0120A0E3           MOV      R2,#+1
   \   0000000C   0110A0E3           MOV      R1,#+1
   \   00000010   0400A0E1           MOV      R0,R4
   \   00000014   ........           BL       ??DrawCub
     95            DrawCub(step*3+2, 1, 1);
   \   00000018   025084E2           ADD      R5,R4,#+2
   \   0000001C   0120A0E3           MOV      R2,#+1
   \   00000020   0210A0E1           MOV      R1,R2
   \   00000024   0500A0E1           MOV      R0,R5
   \   00000028   ........           BL       ??DrawCub
     96            DrawCub(step*3+1, 2, 1);
   \   0000002C   016084E2           ADD      R6,R4,#+1
   \   00000030   0120A0E3           MOV      R2,#+1
   \   00000034   0210A0E3           MOV      R1,#+2
   \   00000038   0600A0E1           MOV      R0,R6
   \   0000003C   ........           BL       ??DrawCub
     97            DrawCub(step*3, 3, 1);
   \   00000040   0120A0E3           MOV      R2,#+1
   \   00000044   0310A0E3           MOV      R1,#+3
   \   00000048   0400A0E1           MOV      R0,R4
   \   0000004C   ........           BL       ??DrawCub
     98            DrawCub(step*3+1, 3, 0);
   \   00000050   0020A0E3           MOV      R2,#+0
   \   00000054   0310A0E3           MOV      R1,#+3
   \   00000058   0600A0E1           MOV      R0,R6
   \   0000005C   ........           BL       ??DrawCub
     99            DrawCub(step*3+2, 3, 1);
   \   00000060   0120A0E3           MOV      R2,#+1
   \   00000064   0310A0E3           MOV      R1,#+3
   \   00000068   0500A0E1           MOV      R0,R5
   \   0000006C   ........           BL       ??DrawCub
    100            DrawCub(step*3+1, 4, 1);
   \   00000070   0120A0E3           MOV      R2,#+1
   \   00000074   0410A0E3           MOV      R1,#+4
   \   00000078   0600A0E1           MOV      R0,R6
   \   0000007C   ........           BL       ??DrawCub
    101          }
   \   00000080   7080BDE8           POP      {R4-R6,PC}       ;; return
    102          

   \                                 In segment CODE, align 4, keep-with-next
    103          void DrawText(MyBook*bk, int FSize, int x, int y, int cub)
    104          {
   \                     ??DrawText:
   \   00000000   F04F2DE9           PUSH     {R4-R11,LR}
   \   00000004   1CD04DE2           SUB      SP,SP,#+28
   \   00000008   40909DE5           LDR      R9,[SP, #+64]
   \   0000000C   0060A0E1           MOV      R6,R0
   \   00000010   0140A0E1           MOV      R4,R1
   \   00000014   0380A0E1           MOV      R8,R3
    105            SetFont(FSize);
   \   00000018   0400A0E1           MOV      R0,R4
   \   0000001C   F10100EF           SWI      +497
   \   00000020   D4039FE5           LDR      R0,??DrawText_1+0x4  ;; `?<Constant L"\\x41e\\x447\\x43a\\x438\\x3a">`
   \   00000024   FF50A0E3           MOV      R5,#+255
   \   00000028   FF5C85E3           ORR      R5,R5,#0xFF00
   \   0000002C   0520A0E1           MOV      R2,R5
   \   00000030   0010A0E3           MOV      R1,#+0
    106            int o[2];
    107            o[0]=STR("Очки:");
   \   00000034   5D0100EF           SWI      +349
   \   00000038   00008DE5           STR      R0,[SP, #+0]
    108            o[1]=TextID_CreateIntegerID(bk->point);
   \   0000003C   300396E5           LDR      R0,[R6, #+816]
   \   00000040   5C0100EF           SWI      +348
   \   00000044   04008DE5           STR      R0,[SP, #+4]
    109            DrawString(o[0],0, cub*12+5, y-20*cub, cub*12+5+GetFSize(FSize)*5, y-20*cub+GetFSize(FSize), 1, 0x01,0xFFFF0000,0xFFFFFFFF);
   \   00000048   0400A0E1           MOV      R0,R4
   \   0000004C   ........           _BLF     ??GetFSize,??GetFSize??rA
   \   00000050   00A0A0E1           MOV      R10,R0
   \   00000054   0400A0E1           MOV      R0,R4
   \   00000058   ........           _BLF     ??GetFSize,??GetFSize??rA
   \   0000005C   0C10A0E3           MOV      R1,#+12
   \   00000060   910906E0           MUL      R6,R1,R9
   \   00000064   1410A0E3           MOV      R1,#+20
   \   00000068   910902E0           MUL      R2,R1,R9
   \   0000006C   0010E0E3           MVN      R1,#+0
   \   00000070   02002DE9           PUSH     {R1}
   \   00000074   028048E0           SUB      R8,R8,R2
   \   00000078   000180E0           ADD      R0,R0,R0, LSL #+2
   \   0000007C   060080E0           ADD      R0,R0,R6
   \   00000080   0510E0E1           MVN      R1,R5
   \   00000084   02002DE9           PUSH     {R1}
   \   00000088   050080E2           ADD      R0,R0,#+5
   \   0000008C   057086E2           ADD      R7,R6,#+5
   \   00000090   0830A0E1           MOV      R3,R8
   \   00000094   0110A0E3           MOV      R1,#+1
   \   00000098   02002DE9           PUSH     {R1}
   \   0000009C   02002DE9           PUSH     {R1}
   \   000000A0   0720A0E1           MOV      R2,R7
   \   000000A4   08108AE0           ADD      R1,R10,R8
   \   000000A8   02002DE9           PUSH     {R1}
   \   000000AC   01002DE9           PUSH     {R0}
   \   000000B0   18009DE5           LDR      R0,[SP, #+24]
   \   000000B4   0010A0E3           MOV      R1,#+0
   \   000000B8   ED0100EF           SWI      +493
    110            DrawString(o[1],0, cub*12+5, y-20*cub+GetFSize(FSize)+1, cub*12+5+GetFSize(FSize)*4, y-20*cub+2*GetFSize(FSize)+1, 1, 0x01,0xFFFF0000,0xFFFFFFFF);
   \   000000BC   0400A0E1           MOV      R0,R4
   \   000000C0   ........           _BLF     ??GetFSize,??GetFSize??rA
   \   000000C4   0090A0E1           MOV      R9,R0
   \   000000C8   0400A0E1           MOV      R0,R4
   \   000000CC   ........           _BLF     ??GetFSize,??GetFSize??rA
   \   000000D0   00A0A0E1           MOV      R10,R0
   \   000000D4   0400A0E1           MOV      R0,R4
   \   000000D8   ........           _BLF     ??GetFSize,??GetFSize??rA
   \   000000DC   1CB09DE5           LDR      R11,[SP, #+28]
   \   000000E0   0010E0E3           MVN      R1,#+0
   \   000000E4   02002DE9           PUSH     {R1}
   \   000000E8   080080E0           ADD      R0,R0,R8
   \   000000EC   013080E2           ADD      R3,R0,#+1
   \   000000F0   0720A0E1           MOV      R2,R7
   \   000000F4   0510E0E1           MVN      R1,R5
   \   000000F8   02002DE9           PUSH     {R1}
   \   000000FC   0B00A0E1           MOV      R0,R11
   \   00000100   0110A0E3           MOV      R1,#+1
   \   00000104   02002DE9           PUSH     {R1}
   \   00000108   02002DE9           PUSH     {R1}
   \   0000010C   891088E0           ADD      R1,R8,R9, LSL #+1
   \   00000110   011081E2           ADD      R1,R1,#+1
   \   00000114   02002DE9           PUSH     {R1}
   \   00000118   0A1186E0           ADD      R1,R6,R10, LSL #+2
   \   0000011C   051081E2           ADD      R1,R1,#+5
   \   00000120   02002DE9           PUSH     {R1}
   \   00000124   0010A0E3           MOV      R1,#+0
   \   00000128   ED0100EF           SWI      +493
   \   0000012C   30D08DE2           ADD      SP,SP,#+48
    111            TextID_Destroy(o[0]);
   \   00000130   00009DE5           LDR      R0,[SP, #+0]
   \   00000134   610100EF           SWI      +353
    112            TextID_Destroy(o[1]);
   \   00000138   0B00A0E1           MOV      R0,R11
   \   0000013C   610100EF           SWI      +353
    113            int met[3];
    114            int ID;
    115            DATETIME dt;
    116            REQUEST_DATEANDTIME_GET(SYNC, &dt);
   \   00000140   B8029FE5           LDR      R0,??DrawText_1+0x8  ;; SYNC
   \   00000144   14108DE2           ADD      R1,SP,#+20
   \   00000148   000090E5           LDR      R0,[R0, #+0]
   \   0000014C   6E0100EF           SWI      +366
    117            ID=STR("Время:\n");
   \   00000150   AC029FE5           LDR      R0,??DrawText_1+0xC  ;; `?<Constant L"\\x41e\\x447\\x43a\\x438\\x3a">` + 12
   \   00000154   0520A0E1           MOV      R2,R5
   \   00000158   0010A0E3           MOV      R1,#+0
   \   0000015C   5D0100EF           SWI      +349
   \   00000160   0090A0E1           MOV      R9,R0
    118            DrawString(ID,0, cub*12+5, y-20*cub+2*GetFSize(FSize)+6, cub*12+5+GetFSize(FSize)*6, y-20*cub+3*GetFSize(FSize)+6, 1, 0x01,0xFFFF0000,0xFFFFFFFF);
   \   00000164   0400A0E1           MOV      R0,R4
   \   00000168   ........           _BLF     ??GetFSize,??GetFSize??rA
   \   0000016C   00A0A0E1           MOV      R10,R0
   \   00000170   0400A0E1           MOV      R0,R4
   \   00000174   ........           _BLF     ??GetFSize,??GetFSize??rA
   \   00000178   00B0A0E1           MOV      R11,R0
   \   0000017C   0400A0E1           MOV      R0,R4
   \   00000180   ........           _BLF     ??GetFSize,??GetFSize??rA
   \   00000184   0010E0E3           MVN      R1,#+0
   \   00000188   02002DE9           PUSH     {R1}
   \   0000018C   800088E0           ADD      R0,R8,R0, LSL #+1
   \   00000190   063080E2           ADD      R3,R0,#+6
   \   00000194   0900A0E1           MOV      R0,R9
   \   00000198   0510E0E1           MVN      R1,R5
   \   0000019C   02002DE9           PUSH     {R1}
   \   000001A0   0110A0E3           MOV      R1,#+1
   \   000001A4   02002DE9           PUSH     {R1}
   \   000001A8   02002DE9           PUSH     {R1}
   \   000001AC   8A108AE0           ADD      R1,R10,R10, LSL #+1
   \   000001B0   081081E0           ADD      R1,R1,R8
   \   000001B4   061081E2           ADD      R1,R1,#+6
   \   000001B8   02002DE9           PUSH     {R1}
   \   000001BC   0610A0E3           MOV      R1,#+6
   \   000001C0   916B22E0           MLA      R2,R1,R11,R6
   \   000001C4   051082E2           ADD      R1,R2,#+5
   \   000001C8   02002DE9           PUSH     {R1}
   \   000001CC   0720A0E1           MOV      R2,R7
   \   000001D0   0010A0E3           MOV      R1,#+0
   \   000001D4   ED0100EF           SWI      +493
    119            TextID_Destroy(ID);
   \   000001D8   0900A0E1           MOV      R0,R9
   \   000001DC   610100EF           SWI      +353
    120            met[0]=TextID_CreateIntegerID(dt.time.hour);
   \   000001E0   3000DDE5           LDRB     R0,[SP, #+48]
   \   000001E4   5C0100EF           SWI      +348
   \   000001E8   20008DE5           STR      R0,[SP, #+32]
    121            met[1]=STR(":");
   \   000001EC   0520A0E1           MOV      R2,R5
   \   000001F0   0010A0E3           MOV      R1,#+0
   \   000001F4   7F0F8FE2           ADR      R0,??DrawText_1  ;; 0x3A, 0x00, 0x00, 0x00
   \   000001F8   5D0100EF           SWI      +349
   \   000001FC   24008DE5           STR      R0,[SP, #+36]
    122            met[2]=TextID_CreateIntegerID(dt.time.min);
   \   00000200   3100DDE5           LDRB     R0,[SP, #+49]
   \   00000204   5C0100EF           SWI      +348
   \   00000208   28008DE5           STR      R0,[SP, #+40]
    123            ID=TextID_Create(met, ENC_TEXTID, 3);
   \   0000020C   0320A0E3           MOV      R2,#+3
   \   00000210   0510A0E3           MOV      R1,#+5
   \   00000214   20008DE2           ADD      R0,SP,#+32
   \   00000218   5D0100EF           SWI      +349
   \   0000021C   0090A0E1           MOV      R9,R0
    124            DrawString(ID,0, cub*12+5, y-20*cub+3*GetFSize(FSize)+7, cub*12+5+GetFSize(FSize)*5, y-20*cub+4*GetFSize(FSize)+6, 1, 0x01,0xFFFF0000,0xFFFFFFFF);
   \   00000220   0400A0E1           MOV      R0,R4
   \   00000224   ........           _BLF     ??GetFSize,??GetFSize??rA
   \   00000228   00A0A0E1           MOV      R10,R0
   \   0000022C   0400A0E1           MOV      R0,R4
   \   00000230   ........           _BLF     ??GetFSize,??GetFSize??rA
   \   00000234   00B0A0E1           MOV      R11,R0
   \   00000238   0400A0E1           MOV      R0,R4
   \   0000023C   ........           _BLF     ??GetFSize,??GetFSize??rA
   \   00000240   0010E0E3           MVN      R1,#+0
   \   00000244   02002DE9           PUSH     {R1}
   \   00000248   800080E0           ADD      R0,R0,R0, LSL #+1
   \   0000024C   080080E0           ADD      R0,R0,R8
   \   00000250   073080E2           ADD      R3,R0,#+7
   \   00000254   0510E0E1           MVN      R1,R5
   \   00000258   02002DE9           PUSH     {R1}
   \   0000025C   0720A0E1           MOV      R2,R7
   \   00000260   0900A0E1           MOV      R0,R9
   \   00000264   0110A0E3           MOV      R1,#+1
   \   00000268   02002DE9           PUSH     {R1}
   \   0000026C   02002DE9           PUSH     {R1}
   \   00000270   0A1188E0           ADD      R1,R8,R10, LSL #+2
   \   00000274   061081E2           ADD      R1,R1,#+6
   \   00000278   02002DE9           PUSH     {R1}
   \   0000027C   0B118BE0           ADD      R1,R11,R11, LSL #+2
   \   00000280   061081E0           ADD      R1,R1,R6
   \   00000284   051081E2           ADD      R1,R1,#+5
   \   00000288   02002DE9           PUSH     {R1}
   \   0000028C   0010A0E3           MOV      R1,#+0
   \   00000290   ED0100EF           SWI      +493
   \   00000294   30D08DE2           ADD      SP,SP,#+48
    125            TextID_Destroy(ID);
   \   00000298   0900A0E1           MOV      R0,R9
   \   0000029C   610100EF           SWI      +353
    126            TextID_Destroy(met[0]);
   \   000002A0   08009DE5           LDR      R0,[SP, #+8]
   \   000002A4   610100EF           SWI      +353
    127            TextID_Destroy(met[1]);
   \   000002A8   0C009DE5           LDR      R0,[SP, #+12]
   \   000002AC   610100EF           SWI      +353
    128            TextID_Destroy(met[2]);
   \   000002B0   10009DE5           LDR      R0,[SP, #+16]
   \   000002B4   610100EF           SWI      +353
    129            ID=STR("Уровень:");
   \   000002B8   48019FE5           LDR      R0,??DrawText_1+0x10  ;; `?<Constant L"\\x41e\\x447\\x43a\\x438\\x3a">` + 28
   \   000002BC   0520A0E1           MOV      R2,R5
   \   000002C0   0010A0E3           MOV      R1,#+0
   \   000002C4   5D0100EF           SWI      +349
   \   000002C8   0050A0E1           MOV      R5,R0
    130            DrawString(ID, 0, cub*12+5, y-20*cub+4*GetFSize(FSize)+9, cub*12+5+GetFSize(FSize)*8, y-20*cub+5*GetFSize(FSize)+9, 1, 0x01, 0xFFFF0000,0xFFFFFFFF);
   \   000002CC   0400A0E1           MOV      R0,R4
   \   000002D0   ........           _BLF     ??GetFSize,??GetFSize??rA
   \   000002D4   0090A0E1           MOV      R9,R0
   \   000002D8   0400A0E1           MOV      R0,R4
   \   000002DC   ........           _BLF     ??GetFSize,??GetFSize??rA
   \   000002E0   00A0A0E1           MOV      R10,R0
   \   000002E4   0400A0E1           MOV      R0,R4
   \   000002E8   ........           _BLF     ??GetFSize,??GetFSize??rA
   \   000002EC   0010E0E3           MVN      R1,#+0
   \   000002F0   02002DE9           PUSH     {R1}
   \   000002F4   000188E0           ADD      R0,R8,R0, LSL #+2
   \   000002F8   093080E2           ADD      R3,R0,#+9
   \   000002FC   0720A0E1           MOV      R2,R7
   \   00000300   FF14A0E3           MOV      R1,#-16777216
   \   00000304   FF1881E3           ORR      R1,R1,#0xFF0000
   \   00000308   02002DE9           PUSH     {R1}
   \   0000030C   0500A0E1           MOV      R0,R5
   \   00000310   0110A0E3           MOV      R1,#+1
   \   00000314   02002DE9           PUSH     {R1}
   \   00000318   02002DE9           PUSH     {R1}
   \   0000031C   091189E0           ADD      R1,R9,R9, LSL #+2
   \   00000320   081081E0           ADD      R1,R1,R8
   \   00000324   091081E2           ADD      R1,R1,#+9
   \   00000328   02002DE9           PUSH     {R1}
   \   0000032C   8A1186E0           ADD      R1,R6,R10, LSL #+3
   \   00000330   051081E2           ADD      R1,R1,#+5
   \   00000334   02002DE9           PUSH     {R1}
   \   00000338   0010A0E3           MOV      R1,#+0
   \   0000033C   ED0100EF           SWI      +493
    131            TextID_Destroy(ID);
   \   00000340   0500A0E1           MOV      R0,R5
   \   00000344   610100EF           SWI      +353
    132            ID=TextID_CreateIntegerID(MyBK()->palka/10);
   \   00000348   ........           _BLF     ??MyBK,??MyBK??rA
   \   0000034C   5C0390E5           LDR      R0,[R0, #+860]
   \   00000350   B4109FE5           LDR      R1,??DrawText_1+0x14  ;; 0x66666667
   \   00000354   9120C3E0           SMULL    R2,R3,R1,R0
   \   00000358   4331A0E1           ASR      R3,R3,#+2
   \   0000035C   A00F83E0           ADD      R0,R3,R0, LSR #+31
   \   00000360   5C0100EF           SWI      +348
   \   00000364   0050A0E1           MOV      R5,R0
    133            DrawString(ID, 0, cub*12+5, y-20*cub+5*GetFSize(FSize)+10, cub*12+5+GetFSize(FSize)*3, y-20*cub+6*GetFSize(FSize)+10, 1, 0x01, 0xFFFF0000,0xFFFFFFFF);
   \   00000368   0400A0E1           MOV      R0,R4
   \   0000036C   ........           _BLF     ??GetFSize,??GetFSize??rA
   \   00000370   0090A0E1           MOV      R9,R0
   \   00000374   0400A0E1           MOV      R0,R4
   \   00000378   ........           _BLF     ??GetFSize,??GetFSize??rA
   \   0000037C   00A0A0E1           MOV      R10,R0
   \   00000380   0400A0E1           MOV      R0,R4
   \   00000384   ........           _BLF     ??GetFSize,??GetFSize??rA
   \   00000388   0010E0E3           MVN      R1,#+0
   \   0000038C   02002DE9           PUSH     {R1}
   \   00000390   000180E0           ADD      R0,R0,R0, LSL #+2
   \   00000394   080080E0           ADD      R0,R0,R8
   \   00000398   0A3080E2           ADD      R3,R0,#+10
   \   0000039C   FF14A0E3           MOV      R1,#-16777216
   \   000003A0   FF1881E3           ORR      R1,R1,#0xFF0000
   \   000003A4   02002DE9           PUSH     {R1}
   \   000003A8   0500A0E1           MOV      R0,R5
   \   000003AC   0110A0E3           MOV      R1,#+1
   \   000003B0   02002DE9           PUSH     {R1}
   \   000003B4   02002DE9           PUSH     {R1}
   \   000003B8   0610A0E3           MOV      R1,#+6
   \   000003BC   918922E0           MLA      R2,R1,R9,R8
   \   000003C0   0A1082E2           ADD      R1,R2,#+10
   \   000003C4   02002DE9           PUSH     {R1}
   \   000003C8   0720A0E1           MOV      R2,R7
   \   000003CC   8A108AE0           ADD      R1,R10,R10, LSL #+1
   \   000003D0   061081E0           ADD      R1,R1,R6
   \   000003D4   051081E2           ADD      R1,R1,#+5
   \   000003D8   02002DE9           PUSH     {R1}
   \   000003DC   0010A0E3           MOV      R1,#+0
   \   000003E0   ED0100EF           SWI      +493
   \   000003E4   30D08DE2           ADD      SP,SP,#+48
    134            TextID_Destroy(ID);
   \   000003E8   0500A0E1           MOV      R0,R5
   \   000003EC   610100EF           SWI      +353
    135          }
   \   000003F0   1CD08DE2           ADD      SP,SP,#+28
   \   000003F4   F08FBDE8           POP      {R4-R11,PC}      ;; return
   \                     ??DrawText_1:
   \   000003F8   3A000000           DC8      0x3A, 0x00, 0x00, 0x00
   \   000003FC   ........           DC32     `?<Constant L"\\x41e\\x447\\x43a\\x438\\x3a">`
   \   00000400   ........           DC32     SYNC
   \   00000404   ........           DC32     `?<Constant L"\\x41e\\x447\\x43a\\x438\\x3a">` + 12
   \   00000408   ........           DC32     `?<Constant L"\\x41e\\x447\\x43a\\x438\\x3a">` + 28
   \   0000040C   67666666           DC32     0x66666667
    136          

   \                                 In segment CODE, align 4, keep-with-next
    137          void DrawPause(int FSize, int x, int y)
    138          {
   \                     ??DrawPause:
   \   00000000   F24F2DE9           PUSH     {R1,R4-R11,LR}
   \   00000004   0240A0E1           MOV      R4,R2
    139            DrawRect(0,0,x,y, 0xa0000000, 0xa0000000);
   \   00000008   0430A0E1           MOV      R3,R4
   \   0000000C   00B0A0E1           MOV      R11,R0
   \   00000010   A004A0E3           MOV      R0,#-1610612736
   \   00000014   01002DE9           PUSH     {R0}
   \   00000018   01002DE9           PUSH     {R0}
   \   0000001C   0120A0E1           MOV      R2,R1
   \   00000020   0010A0E3           MOV      R1,#+0
   \   00000024   0000A0E3           MOV      R0,#+0
   \   00000028   EC0100EF           SWI      +492
    140            SetFont(FSize);
   \   0000002C   0B00A0E1           MOV      R0,R11
   \   00000030   F10100EF           SWI      +497
    141            int ID=STR("Пауза");
   \   00000034   D4009FE5           LDR      R0,??DrawPause_1  ;; `?<Constant L"\\x41f\\x430\\x443\\x437\\x430">`
   \   00000038   FF20A0E3           MOV      R2,#+255
   \   0000003C   FF2C82E3           ORR      R2,R2,#0xFF00
   \   00000040   0010A0E3           MOV      R1,#+0
   \   00000044   5D0100EF           SWI      +349
   \   00000048   0050A0E1           MOV      R5,R0
    142            DrawString(ID, 0, (x-GetFSize(FSize)*5)/2, (y-GetFSize(FSize))/2, (x-GetFSize(FSize)*5)/2+5*GetFSize(FSize), (y-GetFSize(FSize))/2+GetFSize(FSize), 1, 0x01,0xFFFF0000,0xFFFFFFFF);
   \   0000004C   0B00A0E1           MOV      R0,R11
   \   00000050   ........           _BLF     ??GetFSize,??GetFSize??rA
   \   00000054   0060A0E1           MOV      R6,R0
   \   00000058   0B00A0E1           MOV      R0,R11
   \   0000005C   ........           _BLF     ??GetFSize,??GetFSize??rA
   \   00000060   0070A0E1           MOV      R7,R0
   \   00000064   0B00A0E1           MOV      R0,R11
   \   00000068   ........           _BLF     ??GetFSize,??GetFSize??rA
   \   0000006C   0080A0E1           MOV      R8,R0
   \   00000070   0B00A0E1           MOV      R0,R11
   \   00000074   ........           _BLF     ??GetFSize,??GetFSize??rA
   \   00000078   0090A0E1           MOV      R9,R0
   \   0000007C   0B00A0E1           MOV      R0,R11
   \   00000080   ........           _BLF     ??GetFSize,??GetFSize??rA
   \   00000084   00A0A0E1           MOV      R10,R0
   \   00000088   0B00A0E1           MOV      R0,R11
   \   0000008C   ........           _BLF     ??GetFSize,??GetFSize??rA
   \   00000090   08209DE5           LDR      R2,[SP, #+8]
   \   00000094   061044E0           SUB      R1,R4,R6
   \   00000098   083188E0           ADD      R3,R8,R8, LSL #+2
   \   0000009C   032042E0           SUB      R2,R2,R3
   \   000000A0   0A3044E0           SUB      R3,R4,R10
   \   000000A4   08409DE5           LDR      R4,[SP, #+8]
   \   000000A8   000180E0           ADD      R0,R0,R0, LSL #+2
   \   000000AC   000044E0           SUB      R0,R4,R0
   \   000000B0   0040E0E3           MVN      R4,#+0
   \   000000B4   10002DE9           PUSH     {R4}
   \   000000B8   A11F81E0           ADD      R1,R1,R1, LSR #+31
   \   000000BC   C11087E0           ADD      R1,R7,R1, ASR #+1
   \   000000C0   A00F80E0           ADD      R0,R0,R0, LSR #+31
   \   000000C4   FF44A0E3           MOV      R4,#-16777216
   \   000000C8   FF4884E3           ORR      R4,R4,#0xFF0000
   \   000000CC   10002DE9           PUSH     {R4}
   \   000000D0   0140A0E3           MOV      R4,#+1
   \   000000D4   10002DE9           PUSH     {R4}
   \   000000D8   10002DE9           PUSH     {R4}
   \   000000DC   02002DE9           PUSH     {R1}
   \   000000E0   A21F82E0           ADD      R1,R2,R2, LSR #+31
   \   000000E4   092189E0           ADD      R2,R9,R9, LSL #+2
   \   000000E8   C11082E0           ADD      R1,R2,R1, ASR #+1
   \   000000EC   02002DE9           PUSH     {R1}
   \   000000F0   C020A0E1           ASR      R2,R0,#+1
   \   000000F4   0500A0E1           MOV      R0,R5
   \   000000F8   A31F83E0           ADD      R1,R3,R3, LSR #+31
   \   000000FC   C130A0E1           ASR      R3,R1,#+1
   \   00000100   0010A0E3           MOV      R1,#+0
   \   00000104   ED0100EF           SWI      +493
    143          }
   \   00000108   24D08DE2           ADD      SP,SP,#+36
   \   0000010C   F08FBDE8           POP      {R4-R11,PC}      ;; return
   \                     ??DrawPause_1:
   \   00000110   ........           DC32     `?<Constant L"\\x41f\\x430\\x443\\x437\\x430">`
    144          

   \                                 In segment CODE, align 4, keep-with-next
    145          void myOnRedraw(DISP_OBJ *DO, int a, int b, int c)
    146          {
   \                     ??myOnRedraw:
   \   00000000   F0472DE9           PUSH     {R4-R10,LR}
   \   00000004   04D04DE2           SUB      SP,SP,#+4
    147            int cub=MyBK()->dis[GetDis()]->cub;
    148            int x=MyBK()->dis[GetDis()]->x;
    149            int y=MyBK()->dis[GetDis()]->y;
    150            if(MyBK()->image->fi[0] && MyBK()->nast->im->on)
   \   00000008   FF70A0E3           MOV      R7,#+255
   \   0000000C   FF7487E3           ORR      R7,R7,#0xFF000000
   \   00000010   ........           _BLF     ??MyBK,??MyBK??rA
   \   00000014   0040A0E1           MOV      R4,R0
   \   00000018   ........           _BLF     ??GetDis,??GetDis??rA
   \   0000001C   000184E0           ADD      R0,R4,R0, LSL #+2
   \   00000020   3C0390E5           LDR      R0,[R0, #+828]
   \   00000024   086090E5           LDR      R6,[R0, #+8]
   \   00000028   ........           _BLF     ??MyBK,??MyBK??rA
   \   0000002C   0040A0E1           MOV      R4,R0
   \   00000030   ........           _BLF     ??GetDis,??GetDis??rA
   \   00000034   000184E0           ADD      R0,R4,R0, LSL #+2
   \   00000038   3C0390E5           LDR      R0,[R0, #+828]
   \   0000003C   004090E5           LDR      R4,[R0, #+0]
   \   00000040   ........           _BLF     ??MyBK,??MyBK??rA
   \   00000044   0050A0E1           MOV      R5,R0
   \   00000048   ........           _BLF     ??GetDis,??GetDis??rA
   \   0000004C   000185E0           ADD      R0,R5,R0, LSL #+2
   \   00000050   3C0390E5           LDR      R0,[R0, #+828]
   \   00000054   045090E5           LDR      R5,[R0, #+4]
   \   00000058   ........           _BLF     ??MyBK,??MyBK??rA
   \   0000005C   240390E5           LDR      R0,[R0, #+804]
   \   00000060   0C0090E5           LDR      R0,[R0, #+12]
   \   00000064   000050E3           CMP      R0,#+0
   \   00000068   1200000A           BEQ      ??myOnRedraw_1
   \   0000006C   ........           _BLF     ??MyBK,??MyBK??rA
   \   00000070   340390E5           LDR      R0,[R0, #+820]
   \   00000074   040090E5           LDR      R0,[R0, #+4]
   \   00000078   000390E5           LDR      R0,[R0, #+768]
   \   0000007C   000050E3           CMP      R0,#+0
   \   00000080   0C00000A           BEQ      ??myOnRedraw_1
    151            {
    152              GC_PutChar(get_DisplayGC() , 0, 0, 0, 0, MyBK()->image->im[0]->ImageID);
   \   00000084   ........           _BLF     ??MyBK,??MyBK??rA
   \   00000088   0080A0E1           MOV      R8,R0
   \   0000008C   E50100EF           SWI      +485
   \   00000090   241398E5           LDR      R1,[R8, #+804]
   \   00000094   0030A0E3           MOV      R3,#+0
   \   00000098   001091E5           LDR      R1,[R1, #+0]
   \   0000009C   B010D1E1           LDRH     R1,[R1, #+0]
   \   000000A0   02002DE9           PUSH     {R1}
   \   000000A4   0010A0E3           MOV      R1,#+0
   \   000000A8   02002DE9           PUSH     {R1}
   \   000000AC   0120A0E1           MOV      R2,R1
   \   000000B0   400100EF           SWI      +320
   \   000000B4   080000EA           B        ??myOnRedraw_2
    153            }
    154            else
    155            {
    156              DrawRect(0,0,x,y, 0xFF0000FF, 0xFF000000);
   \                     ??myOnRedraw_1:
   \   000000B8   FF04A0E3           MOV      R0,#-16777216
   \   000000BC   01002DE9           PUSH     {R0}
   \   000000C0   0530A0E1           MOV      R3,R5
   \   000000C4   0420A0E1           MOV      R2,R4
   \   000000C8   0010A0E3           MOV      R1,#+0
   \   000000CC   0700A0E1           MOV      R0,R7
   \   000000D0   01002DE9           PUSH     {R0}
   \   000000D4   0000A0E3           MOV      R0,#+0
   \   000000D8   EC0100EF           SWI      +492
    157            }
    158            if(MyBK()->image->fi[1] && MyBK()->nast->im->on)
   \                     ??myOnRedraw_2:
   \   000000DC   1400A0E3           MOV      R0,#+20
   \   000000E0   900601E0           MUL      R1,R0,R6
   \   000000E4   08D08DE2           ADD      SP,SP,#+8
   \   000000E8   018045E0           SUB      R8,R5,R1
   \   000000EC   ........           _BLF     ??MyBK,??MyBK??rA
   \   000000F0   240390E5           LDR      R0,[R0, #+804]
   \   000000F4   100090E5           LDR      R0,[R0, #+16]
   \   000000F8   000050E3           CMP      R0,#+0
   \   000000FC   1200000A           BEQ      ??myOnRedraw_3
   \   00000100   ........           _BLF     ??MyBK,??MyBK??rA
   \   00000104   340390E5           LDR      R0,[R0, #+820]
   \   00000108   040090E5           LDR      R0,[R0, #+4]
   \   0000010C   000390E5           LDR      R0,[R0, #+768]
   \   00000110   000050E3           CMP      R0,#+0
   \   00000114   0C00000A           BEQ      ??myOnRedraw_3
    159            {
    160              GC_PutChar(get_DisplayGC() , 0, y-(20*cub), 0, 0, MyBK()->image->im[1]->ImageID);
   \   00000118   ........           _BLF     ??MyBK,??MyBK??rA
   \   0000011C   0070A0E1           MOV      R7,R0
   \   00000120   E50100EF           SWI      +485
   \   00000124   241397E5           LDR      R1,[R7, #+804]
   \   00000128   0030A0E3           MOV      R3,#+0
   \   0000012C   041091E5           LDR      R1,[R1, #+4]
   \   00000130   0820A0E1           MOV      R2,R8
   \   00000134   B010D1E1           LDRH     R1,[R1, #+0]
   \   00000138   02002DE9           PUSH     {R1}
   \   0000013C   0010A0E3           MOV      R1,#+0
   \   00000140   02002DE9           PUSH     {R1}
   \   00000144   400100EF           SWI      +320
   \   00000148   080000EA           B        ??myOnRedraw_4
    161            }
    162            else
    163            {
    164              DrawRect(0, y-(20*cub), 12*cub, y, 0xFF0000FF, 0xFFFFFFFF);
   \                     ??myOnRedraw_3:
   \   0000014C   0000E0E3           MVN      R0,#+0
   \   00000150   01002DE9           PUSH     {R0}
   \   00000154   80002DE9           PUSH     {R7}
   \   00000158   0530A0E1           MOV      R3,R5
   \   0000015C   0C00A0E3           MOV      R0,#+12
   \   00000160   900602E0           MUL      R2,R0,R6
   \   00000164   0810A0E1           MOV      R1,R8
   \   00000168   0000A0E3           MOV      R0,#+0
   \   0000016C   EC0100EF           SWI      +492
    165            }
    166            DrawP(MyBK()->p[0]);
    167            DrawP(MyBK()->p[1]);
    168            DrawTank(((MyBook*)isBookX(NameMyElf, 0))->tank->x);
   \                     ??myOnRedraw_4:
   \   00000170   ........           LDR      R7,??DataTable3  ;; `?<Constant L"\\x54\\x52\\x5f\\x41\\x4c\\x41\\x52\\x4d\\`
   \   00000174   08D08DE2           ADD      SP,SP,#+8
   \   00000178   ........           _BLF     ??MyBK,??MyBK??rA
   \   0000017C   500390E5           LDR      R0,[R0, #+848]
   \   00000180   ........           BL       ??DrawP
   \   00000184   ........           _BLF     ??MyBK,??MyBK??rA
   \   00000188   540390E5           LDR      R0,[R0, #+852]
   \   0000018C   ........           BL       ??DrawP
   \   00000190   0010A0E3           MOV      R1,#+0
   \   00000194   4C0087E2           ADD      R0,R7,#+76
   \   00000198   ........           _BLF     ??isBookX,??isBookX??rA
   \   0000019C   200390E5           LDR      R0,[R0, #+800]
   \   000001A0   000090E5           LDR      R0,[R0, #+0]
   \   000001A4   ........           BL       ??DrawTank
    169            DrawText(MyBK(), MyBK()->dis[GetDis()]->FS,x,y,cub);
   \   000001A8   ........           _BLF     ??MyBK,??MyBK??rA
   \   000001AC   0080A0E1           MOV      R8,R0
   \   000001B0   ........           _BLF     ??GetDis,??GetDis??rA
   \   000001B4   0090A0E1           MOV      R9,R0
   \   000001B8   ........           _BLF     ??MyBK,??MyBK??rA
   \   000001BC   0610A0E1           MOV      R1,R6
   \   000001C0   02002DE9           PUSH     {R1}
   \   000001C4   0530A0E1           MOV      R3,R5
   \   000001C8   0420A0E1           MOV      R2,R4
   \   000001CC   091188E0           ADD      R1,R8,R9, LSL #+2
   \   000001D0   3C1391E5           LDR      R1,[R1, #+828]
   \   000001D4   101091E5           LDR      R1,[R1, #+16]
   \   000001D8   ........           BL       ??DrawText
    170            int id;
    171            if(MyBK()->nast->sound->sound)
   \   000001DC   ........           _BLF     ??MyBK,??MyBK??rA
   \   000001E0   340390E5           LDR      R0,[R0, #+820]
   \   000001E4   0010E0E3           MVN      R1,#+0
   \   000001E8   000090E5           LDR      R0,[R0, #+0]
   \   000001EC   180C90E5           LDR      R0,[R0, #+3096]
   \   000001F0   04D08DE2           ADD      SP,SP,#+4
   \   000001F4   000050E3           CMP      R0,#+0
   \   000001F8   0D20A0E1           MOV      R2,SP
    172            {    
    173              iconidname2id(L"TR_ALARM_ON_ICN", -1, &id);
   \   000001FC   0700A011           MOVNE    R0,R7
    174            }
    175            else
    176            {
    177              iconidname2id(L"TR_ALARM_OFF_ICN", -1, &id);
   \   00000200   20008702           ADDEQ    R0,R7,#+32
   \   00000204   860200EF           SWI      +646
    178            }
    179            GC_PutChar(get_DisplayGC() , MyBK()->dis[GetDis()]->x-2*cub, MyBK()->dis[GetDis()]->y-2*cub, 0, 0, id);
   \   00000208   ........           _BLF     ??MyBK,??MyBK??rA
   \   0000020C   0070A0E1           MOV      R7,R0
   \   00000210   ........           _BLF     ??GetDis,??GetDis??rA
   \   00000214   0080A0E1           MOV      R8,R0
   \   00000218   ........           _BLF     ??MyBK,??MyBK??rA
   \   0000021C   0090A0E1           MOV      R9,R0
   \   00000220   ........           _BLF     ??GetDis,??GetDis??rA
   \   00000224   00A0A0E1           MOV      R10,R0
   \   00000228   E50100EF           SWI      +485
   \   0000022C   00209DE5           LDR      R2,[SP, #+0]
   \   00000230   8610A0E1           LSL      R1,R6,#+1
   \   00000234   0228A0E1           MOV      R2,R2, LSL #+16
   \   00000238   2228A0E1           MOV      R2,R2, LSR #+16
   \   0000023C   04002DE9           PUSH     {R2}
   \   00000240   0A6189E0           ADD      R6,R9,R10, LSL #+2
   \   00000244   0030A0E3           MOV      R3,#+0
   \   00000248   0020A0E3           MOV      R2,#+0
   \   0000024C   04002DE9           PUSH     {R2}
   \   00000250   3C6396E5           LDR      R6,[R6, #+828]
   \   00000254   082187E0           ADD      R2,R7,R8, LSL #+2
   \   00000258   006096E5           LDR      R6,[R6, #+0]
   \   0000025C   3C2392E5           LDR      R2,[R2, #+828]
   \   00000260   042092E5           LDR      R2,[R2, #+4]
   \   00000264   012042E0           SUB      R2,R2,R1
   \   00000268   011046E0           SUB      R1,R6,R1
   \   0000026C   400100EF           SWI      +320
    180            if(MyBK()->pause)
   \   00000270   ........           _BLF     ??MyBK,??MyBK??rA
   \   00000274   380390E5           LDR      R0,[R0, #+824]
   \   00000278   08D08DE2           ADD      SP,SP,#+8
   \   0000027C   000050E3           CMP      R0,#+0
   \   00000280   F187BD08           POPEQ    {R0,R4-R10,PC}
    181            {
    182              DrawPause(MyBK()->dis[GetDis()]->FP, x, y);
   \   00000284   ........           _BLF     ??MyBK,??MyBK??rA
   \   00000288   0060A0E1           MOV      R6,R0
   \   0000028C   ........           _BLF     ??GetDis,??GetDis??rA
   \   00000290   000186E0           ADD      R0,R6,R0, LSL #+2
   \   00000294   3C0390E5           LDR      R0,[R0, #+828]
   \   00000298   0520A0E1           MOV      R2,R5
   \   0000029C   0C0090E5           LDR      R0,[R0, #+12]
   \   000002A0   0410A0E1           MOV      R1,R4
   \   000002A4   ........           BL       ??DrawPause
    183            }
    184            //DrawRect(((MyBook*)isBookX(NameMyElf, 0))->tank->x, ((MyBook*)isBookX(NameMyElf, 0))->tank->y, ((MyBook*)isBookX(NameMyElf, 0))->tank->x+10,((MyBook*)isBookX(NameMyElf, 0))->tank->y+10, 0xFFFF0000, 0xFF000000);  
    185          }
   \   000002A8   F187BDE8           POP      {R0,R4-R10,PC}   ;; return
    186          

   \                                 In segment CODE, align 4, keep-with-next
    187          int Check(PREGRADA*p, COORDINAT*t)
    188          {
    189            if(p->y<=4)
   \                     ??Check:
   \   00000000   102090E5           LDR      R2,[R0, #+16]
   \   00000004   050052E3           CMP      R2,#+5
   \   00000008   090000AA           BGE      ??Check_1
    190            {
    191              for(int i=0; i<4; i++)
   \   0000000C   0020A0E3           MOV      R2,#+0
    192              {
    193                if(t->x==i&&p->x[i]==1) return 0;
   \                     ??Check_2:
   \   00000010   003091E5           LDR      R3,[R1, #+0]
   \   00000014   020053E1           CMP      R3,R2
   \   00000018   02319007           LDREQ    R3,[R0, +R2, LSL #+2]
   \   0000001C   01005303           CMPEQ    R3,#+1
   \   00000020   0000A003           MOVEQ    R0,#+0
   \   00000024   1EFF2F01           BXEQ     LR
    194              }
   \   00000028   012082E2           ADD      R2,R2,#+1
   \   0000002C   040052E3           CMP      R2,#+4
   \   00000030   F6FFFFBA           BLT      ??Check_2
    195            }
    196            return 1;
   \                     ??Check_1:
   \   00000034   0100A0E3           MOV      R0,#+1
   \   00000038   1EFF2FE1           BX       LR               ;; return
    197          }
    198          

   \                                 In segment CODE, align 4, keep-with-next
    199          void myOnKey(DISP_OBJ *db,int key,int a,int b,int type)
    200          {  
   \                     ??myOnKey:
   \   00000000   F04F2DE9           PUSH     {R4-R11,LR}
   \   00000004   08D04DE2           SUB      SP,SP,#+8
   \   00000008   2C609DE5           LDR      R6,[SP, #+44]
   \   0000000C   0040A0E1           MOV      R4,R0
   \   00000010   0150A0E1           MOV      R5,R1
    201            RECT*rs=new RECT;
   \   00000014   0800A0E3           MOV      R0,#+8
   \   00000018   ........           _BLF     `??operator new`,`??operator new??rA`
   \   0000001C   0070A0E1           MOV      R7,R0
    202            if((key==KEY_ENTER || key==KEY_DIGITAL_0+5) && (type==KBD_LONG_PRESS || type==KBD_SHORT_PRESS))
   \   00000020   F4049FE5           LDR      R0,??myOnKey_1   ;; KEY_ENTER
   \   00000024   01B0A0E3           MOV      R11,#+1
   \   00000028   008090E5           LDR      R8,[R0, #+0]
   \   0000002C   080055E1           CMP      R5,R8
   \   00000030   0400000A           BEQ      ??myOnKey_2
   \   00000034   E4049FE5           LDR      R0,??myOnKey_1+0x4  ;; KEY_DIGITAL_0
   \   00000038   000090E5           LDR      R0,[R0, #+0]
   \   0000003C   050080E2           ADD      R0,R0,#+5
   \   00000040   000055E1           CMP      R5,R0
   \   00000044   0C00001A           BNE      ??myOnKey_3
   \                     ??myOnKey_2:
   \   00000048   D4049FE5           LDR      R0,??myOnKey_1+0x8  ;; KBD_LONG_PRESS
   \   0000004C   000090E5           LDR      R0,[R0, #+0]
   \   00000050   000056E1           CMP      R6,R0
   \   00000054   0300000A           BEQ      ??myOnKey_4
   \   00000058   C8049FE5           LDR      R0,??myOnKey_1+0xC  ;; KBD_SHORT_PRESS
   \   0000005C   000090E5           LDR      R0,[R0, #+0]
   \   00000060   000056E1           CMP      R6,R0
   \   00000064   0200001A           BNE      ??myOnKey_5
    203            {
    204              MyBK()->megaspeed=3;
   \                     ??myOnKey_4:
   \   00000068   ........           _BLF     ??MyBK,??MyBK??rA
   \   0000006C   0310A0E3           MOV      R1,#+3
   \   00000070   581380E5           STR      R1,[R0, #+856]
    205            }
    206            if((key==KEY_ENTER || key==KEY_DIGITAL_0+5)&& (type==KBD_LONG_RELEASE || type==KBD_SHORT_RELEASE))
   \                     ??myOnKey_5:
   \   00000074   080055E1           CMP      R5,R8
   \   00000078   0400000A           BEQ      ??myOnKey_6
   \                     ??myOnKey_3:
   \   0000007C   9C049FE5           LDR      R0,??myOnKey_1+0x4  ;; KEY_DIGITAL_0
   \   00000080   000090E5           LDR      R0,[R0, #+0]
   \   00000084   050080E2           ADD      R0,R0,#+5
   \   00000088   000055E1           CMP      R5,R0
   \   0000008C   0900001A           BNE      ??myOnKey_7
   \                     ??myOnKey_6:
   \   00000090   94049FE5           LDR      R0,??myOnKey_1+0x10  ;; KBD_LONG_RELEASE
   \   00000094   000090E5           LDR      R0,[R0, #+0]
   \   00000098   000056E1           CMP      R6,R0
   \   0000009C   0300000A           BEQ      ??myOnKey_8
   \   000000A0   88049FE5           LDR      R0,??myOnKey_1+0x14  ;; KBD_SHORT_RELEASE
   \   000000A4   000090E5           LDR      R0,[R0, #+0]
   \   000000A8   000056E1           CMP      R6,R0
   \   000000AC   0100001A           BNE      ??myOnKey_7
    207            {
    208              MyBK()->megaspeed=1;
   \                     ??myOnKey_8:
   \   000000B0   ........           _BLF     ??MyBK,??MyBK??rA
   \   000000B4   58B380E5           STR      R11,[R0, #+856]
    209            }
    210            if(key==KEY_ESC && type==KBD_LONG_PRESS)
   \                     ??myOnKey_7:
   \   000000B8   70049FE5           LDR      R0,??myOnKey_1+0x14  ;; KBD_SHORT_RELEASE
   \   000000BC   ........           LDR      R9,??DataTable7  ;; ftimer
   \   000000C0   008090E5           LDR      R8,[R0, #+0]
   \   000000C4   68049FE5           LDR      R0,??myOnKey_1+0x18  ;; KEY_ESC
   \   000000C8   ........           LDR      R10,??DataTable3  ;; `?<Constant L"\\x54\\x52\\x5f\\x41\\x4c\\x41\\x52\\x4d\\`
   \   000000CC   000090E5           LDR      R0,[R0, #+0]
   \   000000D0   000055E1           CMP      R5,R0
   \   000000D4   1500001A           BNE      ??myOnKey_9
   \   000000D8   44049FE5           LDR      R0,??myOnKey_1+0x8  ;; KBD_LONG_PRESS
   \   000000DC   000090E5           LDR      R0,[R0, #+0]
   \   000000E0   000056E1           CMP      R6,R0
   \   000000E4   FE00000A           BEQ      ??myOnKey_10
   \   000000E8   080056E1           CMP      R6,R8
   \   000000EC   0F00001A           BNE      ??myOnKey_9
    211            {
    212              GUIObject_Destroy(np);
    213              BookObj_GotoPage(isBookX(NameMyElf, 0),&bk_go);
    214              Timer_Kill(&ftimer);
    215              return;
    216            }
    217            if(key==KEY_ESC && type==KBD_SHORT_RELEASE)
    218            {
    219              if(MyBK()->pause==0) MyBK()->pause=1;
   \   000000F0   ........           _BLF     ??MyBK,??MyBK??rA
   \   000000F4   380390E5           LDR      R0,[R0, #+824]
   \   000000F8   000050E3           CMP      R0,#+0
   \   000000FC   0200001A           BNE      ??myOnKey_11
   \   00000100   ........           _BLF     ??MyBK,??MyBK??rA
   \   00000104   38B380E5           STR      R11,[R0, #+824]
   \   00000108   020000EA           B        ??myOnKey_12
    220              else MyBK()->pause=0;
   \                     ??myOnKey_11:
   \   0000010C   ........           _BLF     ??MyBK,??MyBK??rA
   \   00000110   0010A0E3           MOV      R1,#+0
   \   00000114   381380E5           STR      R1,[R0, #+824]
    221              PlayMyMusic(4);
   \                     ??myOnKey_12:
   \   00000118   0400A0E3           MOV      R0,#+4
   \   0000011C   ........           _BLF     ??PlayMyMusic,??PlayMyMusic??rA
    222              DispObject_InvalidateRect(db,0);
   \   00000120   0010A0E3           MOV      R1,#+0
   \   00000124   0400A0E1           MOV      R0,R4
   \   00000128   EF0100EF           SWI      +495
   \   0000012C   F38FBDE8           POP      {R0,R1,R4-R11,PC}
    223              return;
    224            }
    225            if(key==KEY_DIGITAL_0+10 && type==KBD_SHORT_RELEASE)
   \                     ??myOnKey_9:
   \   00000130   E8139FE5           LDR      R1,??myOnKey_1+0x4  ;; KEY_DIGITAL_0
   \   00000134   001091E5           LDR      R1,[R1, #+0]
   \   00000138   00108DE5           STR      R1,[SP, #+0]
   \   0000013C   0A0081E2           ADD      R0,R1,#+10
   \   00000140   000055E1           CMP      R5,R0
   \   00000144   08005601           CMPEQ    R6,R8
   \   00000148   0900001A           BNE      ??myOnKey_13
    226            {
    227              BookObj_Hide((BOOK*)MyBK(), 0);
   \   0000014C   ........           _BLF     ??MyBK,??MyBK??rA
   \   00000150   0010A0E3           MOV      R1,#+0
   \   00000154   710100EF           SWI      +369
    228              if(MyBK()->pause==0) MyBK()->pause=1;
   \   00000158   ........           _BLF     ??MyBK,??MyBK??rA
   \   0000015C   380390E5           LDR      R0,[R0, #+824]
   \   00000160   000050E3           CMP      R0,#+0
   \   00000164   F38FBD18           POPNE    {R0,R1,R4-R11,PC}
   \   00000168   ........           _BLF     ??MyBK,??MyBK??rA
   \   0000016C   38B380E5           STR      R11,[R0, #+824]
   \   00000170   F38FBDE8           POP      {R0,R1,R4-R11,PC}
    229              return;
    230            }
    231            if(key==KEY_DIGITAL_0+11 && type==KBD_SHORT_RELEASE)
   \                     ??myOnKey_13:
   \   00000174   0B0081E2           ADD      R0,R1,#+11
   \   00000178   000055E1           CMP      R5,R0
   \   0000017C   08005601           CMPEQ    R6,R8
   \   00000180   4200001A           BNE      ??myOnKey_14
    232            {
    233              if(MyBK()->nast->sound->sound) MyBK()->nast->sound->sound=0;
   \   00000184   ........           _BLF     ??MyBK,??MyBK??rA
   \   00000188   340390E5           LDR      R0,[R0, #+820]
   \   0000018C   000090E5           LDR      R0,[R0, #+0]
   \   00000190   180C90E5           LDR      R0,[R0, #+3096]
   \   00000194   000050E3           CMP      R0,#+0
   \   00000198   0500000A           BEQ      ??myOnKey_15
   \   0000019C   ........           _BLF     ??MyBK,??MyBK??rA
   \   000001A0   340390E5           LDR      R0,[R0, #+820]
   \   000001A4   0010A0E3           MOV      R1,#+0
   \   000001A8   000090E5           LDR      R0,[R0, #+0]
   \   000001AC   181C80E5           STR      R1,[R0, #+3096]
   \   000001B0   030000EA           B        ??myOnKey_16
    234              else MyBK()->nast->sound->sound=1;
   \                     ??myOnKey_15:
   \   000001B4   ........           _BLF     ??MyBK,??MyBK??rA
   \   000001B8   340390E5           LDR      R0,[R0, #+820]
   \   000001BC   000090E5           LDR      R0,[R0, #+0]
   \   000001C0   18BC80E5           STR      R11,[R0, #+3096]
    235              RECT*rs=new RECT;
   \                     ??myOnKey_16:
   \   000001C4   0800A0E3           MOV      R0,#+8
   \   000001C8   ........           _BLF     `??operator new`,`??operator new??rA`
   \   000001CC   0050A0E1           MOV      R5,R0
    236              rs->x1=MyBK()->dis[GetDis()]->x-MyBK()->dis[GetDis()]->cub*2;
   \   000001D0   ........           _BLF     ??MyBK,??MyBK??rA
   \   000001D4   0060A0E1           MOV      R6,R0
   \   000001D8   ........           _BLF     ??GetDis,??GetDis??rA
   \   000001DC   0070A0E1           MOV      R7,R0
   \   000001E0   ........           _BLF     ??MyBK,??MyBK??rA
   \   000001E4   0080A0E1           MOV      R8,R0
   \   000001E8   070186E0           ADD      R0,R6,R7, LSL #+2
   \   000001EC   3C0390E5           LDR      R0,[R0, #+828]
   \   000001F0   006090E5           LDR      R6,[R0, #+0]
   \   000001F4   ........           _BLF     ??GetDis,??GetDis??rA
   \   000001F8   000188E0           ADD      R0,R8,R0, LSL #+2
   \   000001FC   3C0390E5           LDR      R0,[R0, #+828]
   \   00000200   080090E5           LDR      R0,[R0, #+8]
   \   00000204   800046E0           SUB      R0,R6,R0, LSL #+1
   \   00000208   B000C5E1           STRH     R0,[R5, #+0]
    237              rs->x2=MyBK()->dis[GetDis()]->x;
   \   0000020C   ........           _BLF     ??MyBK,??MyBK??rA
   \   00000210   0060A0E1           MOV      R6,R0
   \   00000214   ........           _BLF     ??GetDis,??GetDis??rA
   \   00000218   000186E0           ADD      R0,R6,R0, LSL #+2
   \   0000021C   3C0390E5           LDR      R0,[R0, #+828]
   \   00000220   000090E5           LDR      R0,[R0, #+0]
   \   00000224   B200C5E1           STRH     R0,[R5, #+2]
    238              rs->y1=MyBK()->dis[GetDis()]->y-MyBK()->dis[GetDis()]->cub*2;
   \   00000228   ........           _BLF     ??MyBK,??MyBK??rA
   \   0000022C   0060A0E1           MOV      R6,R0
   \   00000230   ........           _BLF     ??GetDis,??GetDis??rA
   \   00000234   0070A0E1           MOV      R7,R0
   \   00000238   ........           _BLF     ??MyBK,??MyBK??rA
   \   0000023C   0080A0E1           MOV      R8,R0
   \   00000240   070186E0           ADD      R0,R6,R7, LSL #+2
   \   00000244   3C0390E5           LDR      R0,[R0, #+828]
   \   00000248   046090E5           LDR      R6,[R0, #+4]
   \   0000024C   ........           _BLF     ??GetDis,??GetDis??rA
   \   00000250   000188E0           ADD      R0,R8,R0, LSL #+2
   \   00000254   3C0390E5           LDR      R0,[R0, #+828]
   \   00000258   080090E5           LDR      R0,[R0, #+8]
   \   0000025C   800046E0           SUB      R0,R6,R0, LSL #+1
   \   00000260   B400C5E1           STRH     R0,[R5, #+4]
    239              rs->y2=MyBK()->dis[GetDis()]->y;
   \   00000264   ........           _BLF     ??MyBK,??MyBK??rA
   \   00000268   0060A0E1           MOV      R6,R0
   \   0000026C   ........           _BLF     ??GetDis,??GetDis??rA
   \   00000270   000186E0           ADD      R0,R6,R0, LSL #+2
   \   00000274   3C0390E5           LDR      R0,[R0, #+828]
    240              DispObject_InvalidateRect(db,rs);
   \   00000278   0510A0E1           MOV      R1,R5
   \   0000027C   040090E5           LDR      R0,[R0, #+4]
   \   00000280   B600C5E1           STRH     R0,[R5, #+6]
   \   00000284   0400A0E1           MOV      R0,R4
   \   00000288   EF0100EF           SWI      +495
    241              return;
   \   0000028C   F38FBDE8           POP      {R0,R1,R4-R11,PC}
    242            }
    243            if((key==KEY_LEFT || key==KEY_DIGITAL_0+4) && type==KBD_SHORT_RELEASE && !MyBK()->pause)
   \                     ??myOnKey_14:
   \   00000290   A0029FE5           LDR      R0,??myOnKey_1+0x1C  ;; KEY_LEFT
   \   00000294   000090E5           LDR      R0,[R0, #+0]
   \   00000298   000055E1           CMP      R5,R0
   \   0000029C   04008112           ADDNE    R0,R1,#+4
   \   000002A0   00005511           CMPNE    R5,R0
   \   000002A4   08005601           CMPEQ    R6,R8
   \   000002A8   3200001A           BNE      ??myOnKey_17
   \   000002AC   ........           _BLF     ??MyBK,??MyBK??rA
   \   000002B0   380390E5           LDR      R0,[R0, #+824]
   \   000002B4   000050E3           CMP      R0,#+0
   \   000002B8   2E00001A           BNE      ??myOnKey_17
    244            {
    245              
    246              if(((MyBook*)isBookX(NameMyElf, 0))->tank->x>0)
   \   000002BC   0010A0E3           MOV      R1,#+0
   \   000002C0   4C008AE2           ADD      R0,R10,#+76
   \   000002C4   ........           _BLF     ??isBookX,??isBookX??rA
   \   000002C8   200390E5           LDR      R0,[R0, #+800]
   \   000002CC   000090E5           LDR      R0,[R0, #+0]
   \   000002D0   010050E3           CMP      R0,#+1
   \   000002D4   270000BA           BLT      ??myOnKey_17
    247              {
    248                rs->x2=(MyBK()->tank->x+1)*3*MyBK()->dis[GetDis()]->cub;
   \   000002D8   ........           _BLF     ??MyBK,??MyBK??rA
   \   000002DC   04008DE5           STR      R0,[SP, #+4]
   \   000002E0   ........           _BLF     ??MyBK,??MyBK??rA
   \   000002E4   00B0A0E1           MOV      R11,R0
   \   000002E8   04009DE5           LDR      R0,[SP, #+4]
   \   000002EC   200390E5           LDR      R0,[R0, #+800]
   \   000002F0   000090E5           LDR      R0,[R0, #+0]
   \   000002F4   010080E2           ADD      R0,R0,#+1
   \   000002F8   01002DE9           PUSH     {R0}
   \   000002FC   ........           _BLF     ??GetDis,??GetDis??rA
   \   00000300   00018BE0           ADD      R0,R11,R0, LSL #+2
   \   00000304   3C0390E5           LDR      R0,[R0, #+828]
   \   00000308   081090E5           LDR      R1,[R0, #+8]
   \   0000030C   0100BDE8           POP      {R0}
   \   00000310   910000E0           MUL      R0,R1,R0
    249                ((MyBook*)isBookX(NameMyElf, 0))->tank->x+=-1;
   \   00000314   0010A0E3           MOV      R1,#+0
   \   00000318   800080E0           ADD      R0,R0,R0, LSL #+1
   \   0000031C   B200C7E1           STRH     R0,[R7, #+2]
   \   00000320   4C008AE2           ADD      R0,R10,#+76
   \   00000324   ........           _BLF     ??isBookX,??isBookX??rA
   \   00000328   201390E5           LDR      R1,[R0, #+800]
   \   0000032C   000091E5           LDR      R0,[R1, #+0]
   \   00000330   010040E2           SUB      R0,R0,#+1
   \   00000334   000081E5           STR      R0,[R1, #+0]
    250                rs->x1=MyBK()->tank->x*3*MyBK()->dis[GetDis()]->cub;
   \   00000338   ........           _BLF     ??MyBK,??MyBK??rA
   \   0000033C   04008DE5           STR      R0,[SP, #+4]
   \   00000340   ........           _BLF     ??MyBK,??MyBK??rA
   \   00000344   00B0A0E1           MOV      R11,R0
   \   00000348   04009DE5           LDR      R0,[SP, #+4]
   \   0000034C   200390E5           LDR      R0,[R0, #+800]
   \   00000350   000090E5           LDR      R0,[R0, #+0]
   \   00000354   01002DE9           PUSH     {R0}
   \   00000358   ........           _BLF     ??GetDis,??GetDis??rA
   \   0000035C   00018BE0           ADD      R0,R11,R0, LSL #+2
   \   00000360   3C0390E5           LDR      R0,[R0, #+828]
   \   00000364   081090E5           LDR      R1,[R0, #+8]
   \   00000368   0100BDE8           POP      {R0}
   \   0000036C   910000E0           MUL      R0,R1,R0
   \   00000370   800080E0           ADD      R0,R0,R0, LSL #+1
   \   00000374   B000C7E1           STRH     R0,[R7, #+0]
    251                
    252              }
    253              //PlayMyMusic(5);
    254            }
    255            if((key==KEY_RIGHT || key==KEY_DIGITAL_0+6) && type==KBD_SHORT_RELEASE && !MyBK()->pause)
   \                     ??myOnKey_17:
   \   00000378   BC019FE5           LDR      R0,??myOnKey_1+0x20  ;; KEY_RIGHT
   \   0000037C   000090E5           LDR      R0,[R0, #+0]
   \   00000380   000055E1           CMP      R5,R0
   \   00000384   0300000A           BEQ      ??myOnKey_18
   \   00000388   00009DE5           LDR      R0,[SP, #+0]
   \   0000038C   060080E2           ADD      R0,R0,#+6
   \   00000390   000055E1           CMP      R5,R0
   \   00000394   2E00001A           BNE      ??myOnKey_19
   \                     ??myOnKey_18:
   \   00000398   080056E1           CMP      R6,R8
   \   0000039C   2C00001A           BNE      ??myOnKey_19
   \   000003A0   ........           _BLF     ??MyBK,??MyBK??rA
   \   000003A4   380390E5           LDR      R0,[R0, #+824]
   \   000003A8   000050E3           CMP      R0,#+0
   \   000003AC   2800001A           BNE      ??myOnKey_19
    256            {
    257              if(((MyBook*)isBookX(NameMyElf, 0))->tank->x<3)
   \   000003B0   0010A0E3           MOV      R1,#+0
   \   000003B4   4C008AE2           ADD      R0,R10,#+76
   \   000003B8   ........           _BLF     ??isBookX,??isBookX??rA
   \   000003BC   200390E5           LDR      R0,[R0, #+800]
   \   000003C0   000090E5           LDR      R0,[R0, #+0]
   \   000003C4   030050E3           CMP      R0,#+3
   \   000003C8   210000AA           BGE      ??myOnKey_19
    258              {
    259                rs->x1=MyBK()->tank->x*3*MyBK()->dis[GetDis()]->cub;
   \   000003CC   ........           _BLF     ??MyBK,??MyBK??rA
   \   000003D0   0050A0E1           MOV      R5,R0
   \   000003D4   ........           _BLF     ??MyBK,??MyBK??rA
   \   000003D8   0060A0E1           MOV      R6,R0
   \   000003DC   200395E5           LDR      R0,[R5, #+800]
   \   000003E0   005090E5           LDR      R5,[R0, #+0]
   \   000003E4   ........           _BLF     ??GetDis,??GetDis??rA
   \   000003E8   000186E0           ADD      R0,R6,R0, LSL #+2
   \   000003EC   3C0390E5           LDR      R0,[R0, #+828]
   \   000003F0   080090E5           LDR      R0,[R0, #+8]
   \   000003F4   900501E0           MUL      R1,R0,R5
   \   000003F8   810081E0           ADD      R0,R1,R1, LSL #+1
   \   000003FC   B000C7E1           STRH     R0,[R7, #+0]
    260                ((MyBook*)isBookX(NameMyElf, 0))->tank->x+=1;
   \   00000400   0010A0E3           MOV      R1,#+0
   \   00000404   4C008AE2           ADD      R0,R10,#+76
   \   00000408   ........           _BLF     ??isBookX,??isBookX??rA
   \   0000040C   201390E5           LDR      R1,[R0, #+800]
   \   00000410   000091E5           LDR      R0,[R1, #+0]
   \   00000414   010080E2           ADD      R0,R0,#+1
   \   00000418   000081E5           STR      R0,[R1, #+0]
    261                rs->x2=(MyBK()->tank->x+1)*3*MyBK()->dis[GetDis()]->cub;
   \   0000041C   ........           _BLF     ??MyBK,??MyBK??rA
   \   00000420   0060A0E1           MOV      R6,R0
   \   00000424   ........           _BLF     ??MyBK,??MyBK??rA
   \   00000428   0050A0E1           MOV      R5,R0
   \   0000042C   200396E5           LDR      R0,[R6, #+800]
   \   00000430   000090E5           LDR      R0,[R0, #+0]
   \   00000434   016080E2           ADD      R6,R0,#+1
   \   00000438   ........           _BLF     ??GetDis,??GetDis??rA
   \   0000043C   000185E0           ADD      R0,R5,R0, LSL #+2
   \   00000440   3C0390E5           LDR      R0,[R0, #+828]
   \   00000444   080090E5           LDR      R0,[R0, #+8]
   \   00000448   900601E0           MUL      R1,R0,R6
   \   0000044C   810081E0           ADD      R0,R1,R1, LSL #+1
   \   00000450   B200C7E1           STRH     R0,[R7, #+2]
    262              }      
    263              //PlayMyMusic(5);
    264            }
    265            rs->y1=MyBK()->dis[GetDis()]->y-MyBK()->dis[GetDis()]->cub*4;
   \                     ??myOnKey_19:
   \   00000454   ........           _BLF     ??MyBK,??MyBK??rA
   \   00000458   0060A0E1           MOV      R6,R0
   \   0000045C   ........           _BLF     ??GetDis,??GetDis??rA
   \   00000460   0080A0E1           MOV      R8,R0
   \   00000464   ........           _BLF     ??MyBK,??MyBK??rA
   \   00000468   0050A0E1           MOV      R5,R0
   \   0000046C   080186E0           ADD      R0,R6,R8, LSL #+2
   \   00000470   3C0390E5           LDR      R0,[R0, #+828]
   \   00000474   046090E5           LDR      R6,[R0, #+4]
   \   00000478   ........           _BLF     ??GetDis,??GetDis??rA
   \   0000047C   000185E0           ADD      R0,R5,R0, LSL #+2
   \   00000480   3C0390E5           LDR      R0,[R0, #+828]
   \   00000484   080090E5           LDR      R0,[R0, #+8]
   \   00000488   000146E0           SUB      R0,R6,R0, LSL #+2
   \   0000048C   B400C7E1           STRH     R0,[R7, #+4]
    266            rs->y2=MyBK()->dis[GetDis()]->y;
   \   00000490   ........           _BLF     ??MyBK,??MyBK??rA
   \   00000494   0050A0E1           MOV      R5,R0
   \   00000498   ........           _BLF     ??GetDis,??GetDis??rA
   \   0000049C   000185E0           ADD      R0,R5,R0, LSL #+2
   \   000004A0   3C0390E5           LDR      R0,[R0, #+828]
    267            DispObject_InvalidateRect(db,rs);
   \   000004A4   0710A0E1           MOV      R1,R7
   \   000004A8   040090E5           LDR      R0,[R0, #+4]
   \   000004AC   B600C7E1           STRH     R0,[R7, #+6]
   \   000004B0   0400A0E1           MOV      R0,R4
   \   000004B4   EF0100EF           SWI      +495
    268            for(int i=0; i<2; i++)
   \   000004B8   0040A0E3           MOV      R4,#+0
    269            {
    270            if(!Check(MyBK()->p[i], MyBK()->tank))
   \                     ??myOnKey_20:
   \   000004BC   ........           _BLF     ??MyBK,??MyBK??rA
   \   000004C0   0050A0E1           MOV      R5,R0
   \   000004C4   ........           _BLF     ??MyBK,??MyBK??rA
   \   000004C8   201395E5           LDR      R1,[R5, #+800]
   \   000004CC   040180E0           ADD      R0,R0,R4, LSL #+2
   \   000004D0   500390E5           LDR      R0,[R0, #+848]
   \   000004D4   ........           BL       ??Check
   \   000004D8   000050E3           CMP      R0,#+0
   \   000004DC   0A00001A           BNE      ??myOnKey_21
    271              {
    272                vibra();
   \   000004E0   ........           _BLF     ??vibra,??vibra??rA
    273                GUIObject_Destroy(np);
   \                     ??myOnKey_10:
   \   000004E4   080099E5           LDR      R0,[R9, #+8]
   \   000004E8   CE0100EF           SWI      +462
    274                BookObj_GotoPage(isBookX(NameMyElf, 0),&bk_go);
   \   000004EC   0010A0E3           MOV      R1,#+0
   \   000004F0   4C008AE2           ADD      R0,R10,#+76
   \   000004F4   ........           _BLF     ??isBookX,??isBookX??rA
   \   000004F8   54108AE2           ADD      R1,R10,#+84
   \   000004FC   2D0100EF           SWI      +301
    275                Timer_Kill(&ftimer);
   \   00000500   0900A0E1           MOV      R0,R9
   \   00000504   2A0100EF           SWI      +298
    276                return;
   \   00000508   F38FBDE8           POP      {R0,R1,R4-R11,PC}
    277              }
    278            }
   \                     ??myOnKey_21:
   \   0000050C   014084E2           ADD      R4,R4,#+1
   \   00000510   020054E3           CMP      R4,#+2
   \   00000514   E8FFFFBA           BLT      ??myOnKey_20
   \   00000518   F38FBDE8           POP      {R0,R1,R4-R11,PC}  ;; return
   \                     ??myOnKey_1:
   \   0000051C   ........           DC32     KEY_ENTER
   \   00000520   ........           DC32     KEY_DIGITAL_0
   \   00000524   ........           DC32     KBD_LONG_PRESS
   \   00000528   ........           DC32     KBD_SHORT_PRESS
   \   0000052C   ........           DC32     KBD_LONG_RELEASE
   \   00000530   ........           DC32     KBD_SHORT_RELEASE
   \   00000534   ........           DC32     KEY_ESC
   \   00000538   ........           DC32     KEY_LEFT
   \   0000053C   ........           DC32     KEY_RIGHT
    279          }
    280          

   \                                 In segment CODE, align 4, keep-with-next
    281          void onfTimer (u16 tmr , LPARAM)
    282          {
   \                     ??onfTimer:
   \   00000000   F04F2DE9           PUSH     {R4-R11,LR}
   \   00000004   08D04DE2           SUB      SP,SP,#+8
    283            if(!MyBK()->pause)
   \   00000008   ........           _BLF     ??MyBK,??MyBK??rA
   \   0000000C   380390E5           LDR      R0,[R0, #+824]
   \   00000010   000050E3           CMP      R0,#+0
   \   00000014   9201001A           BNE      ??onfTimer_1
    284            {
    285              MyBK()->p[0]->y+=-1;
   \   00000018   ........           _BLF     ??MyBK,??MyBK??rA
   \   0000001C   D45FA0E3           MOV      R5,#+848
   \   00000020   000095E7           LDR      R0,[R5, +R0]
    286              MyBK()->p[1]->y+=-1;
   \   00000024   D54FA0E3           MOV      R4,#+852
   \   00000028   101090E5           LDR      R1,[R0, #+16]
    287              if(MyBK()->p[1]->y==0)
   \   0000002C   1460A0E3           MOV      R6,#+20
   \   00000030   011041E2           SUB      R1,R1,#+1
   \   00000034   101080E5           STR      R1,[R0, #+16]
   \   00000038   ........           _BLF     ??MyBK,??MyBK??rA
   \   0000003C   000094E7           LDR      R0,[R4, +R0]
   \   00000040   101090E5           LDR      R1,[R0, #+16]
   \   00000044   011041E2           SUB      R1,R1,#+1
   \   00000048   101080E5           STR      R1,[R0, #+16]
   \   0000004C   ........           _BLF     ??MyBK,??MyBK??rA
   \   00000050   000094E7           LDR      R0,[R4, +R0]
   \   00000054   100090E5           LDR      R0,[R0, #+16]
   \   00000058   000050E3           CMP      R0,#+0
   \   0000005C   2E00001A           BNE      ??onfTimer_2
    288              {
    289                MyBK()->palka++;
   \   00000060   ........           _BLF     ??MyBK,??MyBK??rA
   \   00000064   5C1390E5           LDR      R1,[R0, #+860]
   \   00000068   011081E2           ADD      R1,R1,#+1
   \   0000006C   5C1380E5           STR      R1,[R0, #+860]
    290                PlayMyMusic(1);
   \   00000070   0100A0E3           MOV      R0,#+1
   \   00000074   ........           _BLF     ??PlayMyMusic,??PlayMyMusic??rA
    291                MyBK()->point++;
   \   00000078   ........           _BLF     ??MyBK,??MyBK??rA
   \   0000007C   301390E5           LDR      R1,[R0, #+816]
   \   00000080   011081E2           ADD      R1,R1,#+1
   \   00000084   301380E5           STR      R1,[R0, #+816]
    292                if((MyBK()->megaspeed)>1)
   \   00000088   ........           _BLF     ??MyBK,??MyBK??rA
   \   0000008C   580390E5           LDR      R0,[R0, #+856]
   \   00000090   020050E3           CMP      R0,#+2
   \   00000094   050000BA           BLT      ??onfTimer_3
    293                {
    294                  MyBK()->point+=rand();
   \   00000098   ........           _BLF     ??MyBK,??MyBK??rA
   \   0000009C   0070A0E1           MOV      R7,R0
   \   000000A0   ........           _BLF     ??rand,??rand??rA
   \   000000A4   301397E5           LDR      R1,[R7, #+816]
   \   000000A8   010080E0           ADD      R0,R0,R1
   \   000000AC   300387E5           STR      R0,[R7, #+816]
    295                }
    296                MyBK()->p[1]->y=20;
   \                     ??onfTimer_3:
   \   000000B0   ........           _BLF     ??MyBK,??MyBK??rA
   \   000000B4   000094E7           LDR      R0,[R4, +R0]
    297                for(int i=0; i<4; i++)
   \   000000B8   0070A0E3           MOV      R7,#+0
   \   000000BC   106080E5           STR      R6,[R0, #+16]
    298                {
    299                  MyBK()->p[1]->x[i]=1;
   \                     ??onfTimer_4:
   \   000000C0   ........           _BLF     ??MyBK,??MyBK??rA
   \   000000C4   000094E7           LDR      R0,[R4, +R0]
   \   000000C8   0110A0E3           MOV      R1,#+1
   \   000000CC   071180E7           STR      R1,[R0, +R7, LSL #+2]
    300                }
   \   000000D0   017087E2           ADD      R7,R7,#+1
   \   000000D4   040057E3           CMP      R7,#+4
   \   000000D8   F8FFFFBA           BLT      ??onfTimer_4
    301                int r=rand();
   \   000000DC   ........           _BLF     ??rand,??rand??rA
   \   000000E0   0070A0E1           MOV      R7,R0
    302                MyBK()->p[1]->x[r]=0;
   \   000000E4   ........           _BLF     ??MyBK,??MyBK??rA
   \   000000E8   000094E7           LDR      R0,[R4, +R0]
   \   000000EC   0010A0E3           MOV      R1,#+0
   \   000000F0   071180E7           STR      R1,[R0, +R7, LSL #+2]
    303                if(MyBK()->speed==1)
   \   000000F4   ........           _BLF     ??MyBK,??MyBK??rA
   \   000000F8   2C0390E5           LDR      R0,[R0, #+812]
   \   000000FC   010050E3           CMP      R0,#+1
   \   00000100   0500001A           BNE      ??onfTimer_2
    304                {
    305                  r=rand();
   \   00000104   ........           _BLF     ??rand,??rand??rA
   \   00000108   0070A0E1           MOV      R7,R0
    306                  MyBK()->p[1]->x[r]=0;
   \   0000010C   ........           _BLF     ??MyBK,??MyBK??rA
   \   00000110   000094E7           LDR      R0,[R4, +R0]
   \   00000114   0010A0E3           MOV      R1,#+0
   \   00000118   071180E7           STR      R1,[R0, +R7, LSL #+2]
    307                }      
    308              }
    309              if(MyBK()->p[0]->y==0)
   \                     ??onfTimer_2:
   \   0000011C   ........           _BLF     ??MyBK,??MyBK??rA
   \   00000120   000095E7           LDR      R0,[R5, +R0]
   \   00000124   100090E5           LDR      R0,[R0, #+16]
   \   00000128   000050E3           CMP      R0,#+0
   \   0000012C   2E00001A           BNE      ??onfTimer_5
    310              {
    311                MyBK()->palka++;
   \   00000130   ........           _BLF     ??MyBK,??MyBK??rA
   \   00000134   5C1390E5           LDR      R1,[R0, #+860]
   \   00000138   011081E2           ADD      R1,R1,#+1
   \   0000013C   5C1380E5           STR      R1,[R0, #+860]
    312                PlayMyMusic(1);
   \   00000140   0100A0E3           MOV      R0,#+1
   \   00000144   ........           _BLF     ??PlayMyMusic,??PlayMyMusic??rA
    313                MyBK()->point++;
   \   00000148   ........           _BLF     ??MyBK,??MyBK??rA
   \   0000014C   301390E5           LDR      R1,[R0, #+816]
   \   00000150   011081E2           ADD      R1,R1,#+1
   \   00000154   301380E5           STR      R1,[R0, #+816]
    314                if((MyBK()->megaspeed)>1)
   \   00000158   ........           _BLF     ??MyBK,??MyBK??rA
   \   0000015C   580390E5           LDR      R0,[R0, #+856]
   \   00000160   020050E3           CMP      R0,#+2
   \   00000164   050000BA           BLT      ??onfTimer_6
    315                {
    316                  MyBK()->point+=rand();
   \   00000168   ........           _BLF     ??MyBK,??MyBK??rA
   \   0000016C   0070A0E1           MOV      R7,R0
   \   00000170   ........           _BLF     ??rand,??rand??rA
   \   00000174   301397E5           LDR      R1,[R7, #+816]
   \   00000178   010080E0           ADD      R0,R0,R1
   \   0000017C   300387E5           STR      R0,[R7, #+816]
    317                }
    318                MyBK()->p[0]->y=20;
   \                     ??onfTimer_6:
   \   00000180   ........           _BLF     ??MyBK,??MyBK??rA
   \   00000184   000095E7           LDR      R0,[R5, +R0]
   \   00000188   106080E5           STR      R6,[R0, #+16]
    319                for(int i=0; i<4; i++)
   \   0000018C   0060A0E3           MOV      R6,#+0
    320                {
    321                  MyBK()->p[0]->x[i]=1;
   \                     ??onfTimer_7:
   \   00000190   ........           _BLF     ??MyBK,??MyBK??rA
   \   00000194   000095E7           LDR      R0,[R5, +R0]
   \   00000198   0110A0E3           MOV      R1,#+1
   \   0000019C   061180E7           STR      R1,[R0, +R6, LSL #+2]
    322                }
   \   000001A0   016086E2           ADD      R6,R6,#+1
   \   000001A4   040056E3           CMP      R6,#+4
   \   000001A8   F8FFFFBA           BLT      ??onfTimer_7
    323                int r=rand();
   \   000001AC   ........           _BLF     ??rand,??rand??rA
   \   000001B0   0060A0E1           MOV      R6,R0
    324                MyBK()->p[0]->x[r]=0;
   \   000001B4   ........           _BLF     ??MyBK,??MyBK??rA
   \   000001B8   000095E7           LDR      R0,[R5, +R0]
   \   000001BC   0010A0E3           MOV      R1,#+0
   \   000001C0   061180E7           STR      R1,[R0, +R6, LSL #+2]
    325                if(MyBK()->speed==1)
   \   000001C4   ........           _BLF     ??MyBK,??MyBK??rA
   \   000001C8   2C0390E5           LDR      R0,[R0, #+812]
   \   000001CC   010050E3           CMP      R0,#+1
   \   000001D0   0500001A           BNE      ??onfTimer_5
    326                {
    327                  r=rand();
   \   000001D4   ........           _BLF     ??rand,??rand??rA
   \   000001D8   0060A0E1           MOV      R6,R0
    328                  MyBK()->p[0]->x[r]=0;
   \   000001DC   ........           _BLF     ??MyBK,??MyBK??rA
   \   000001E0   000095E7           LDR      R0,[R5, +R0]
   \   000001E4   0010A0E3           MOV      R1,#+0
   \   000001E8   061180E7           STR      R1,[R0, +R6, LSL #+2]
    329                } 
    330              }
    331              RECT*rs=new RECT;
   \                     ??onfTimer_5:
   \   000001EC   0800A0E3           MOV      R0,#+8
   \   000001F0   ........           _BLF     `??operator new`,`??operator new??rA`
   \   000001F4   0060A0E1           MOV      R6,R0
    332              rs->x1=0;
   \   000001F8   0000A0E3           MOV      R0,#+0
   \   000001FC   B000C6E1           STRH     R0,[R6, #+0]
    333              rs->x2=MyBK()->dis[GetDis()]->cub*12;
   \   00000200   ........           _BLF     ??MyBK,??MyBK??rA
   \   00000204   0070A0E1           MOV      R7,R0
   \   00000208   ........           _BLF     ??GetDis,??GetDis??rA
   \   0000020C   000187E0           ADD      R0,R7,R0, LSL #+2
   \   00000210   3C0390E5           LDR      R0,[R0, #+828]
   \   00000214   0C10A0E3           MOV      R1,#+12
   \   00000218   080090E5           LDR      R0,[R0, #+8]
   \   0000021C   910000E0           MUL      R0,R1,R0
   \   00000220   B200C6E1           STRH     R0,[R6, #+2]
    334              rs->y1=MyBK()->dis[GetDis()]->y-MyBK()->p[0]->y*MyBK()->dis[GetDis()]->cub-MyBK()->dis[GetDis()]->cub;
   \   00000224   ........           _BLF     ??MyBK,??MyBK??rA
   \   00000228   00008DE5           STR      R0,[SP, #+0]
   \   0000022C   ........           _BLF     ??GetDis,??GetDis??rA
   \   00000230   0070A0E1           MOV      R7,R0
   \   00000234   ........           _BLF     ??MyBK,??MyBK??rA
   \   00000238   0080A0E1           MOV      R8,R0
   \   0000023C   ........           _BLF     ??MyBK,??MyBK??rA
   \   00000240   0090A0E1           MOV      R9,R0
   \   00000244   ........           _BLF     ??GetDis,??GetDis??rA
   \   00000248   00A0A0E1           MOV      R10,R0
   \   0000024C   ........           _BLF     ??MyBK,??MyBK??rA
   \   00000250   081095E7           LDR      R1,[R5, +R8]
   \   00000254   00B0A0E1           MOV      R11,R0
   \   00000258   00009DE5           LDR      R0,[SP, #+0]
   \   0000025C   101091E5           LDR      R1,[R1, #+16]
   \   00000260   0A2189E0           ADD      R2,R9,R10, LSL #+2
   \   00000264   3C2392E5           LDR      R2,[R2, #+828]
   \   00000268   070180E0           ADD      R0,R0,R7, LSL #+2
   \   0000026C   3C0390E5           LDR      R0,[R0, #+828]
   \   00000270   082092E5           LDR      R2,[R2, #+8]
   \   00000274   040090E5           LDR      R0,[R0, #+4]
   \   00000278   920101E0           MUL      R1,R2,R1
   \   0000027C   017040E0           SUB      R7,R0,R1
   \   00000280   ........           _BLF     ??GetDis,??GetDis??rA
   \   00000284   00018BE0           ADD      R0,R11,R0, LSL #+2
   \   00000288   3C0390E5           LDR      R0,[R0, #+828]
   \   0000028C   080090E5           LDR      R0,[R0, #+8]
   \   00000290   000047E0           SUB      R0,R7,R0
   \   00000294   B400C6E1           STRH     R0,[R6, #+4]
    335              rs->y2=MyBK()->dis[GetDis()]->y-MyBK()->p[0]->y*MyBK()->dis[GetDis()]->cub+MyBK()->dis[GetDis()]->cub;
   \   00000298   ........           _BLF     ??MyBK,??MyBK??rA
   \   0000029C   00008DE5           STR      R0,[SP, #+0]
   \   000002A0   ........           _BLF     ??GetDis,??GetDis??rA
   \   000002A4   0070A0E1           MOV      R7,R0
   \   000002A8   ........           _BLF     ??MyBK,??MyBK??rA
   \   000002AC   0080A0E1           MOV      R8,R0
   \   000002B0   ........           _BLF     ??MyBK,??MyBK??rA
   \   000002B4   0090A0E1           MOV      R9,R0
   \   000002B8   ........           _BLF     ??GetDis,??GetDis??rA
   \   000002BC   00A0A0E1           MOV      R10,R0
   \   000002C0   ........           _BLF     ??MyBK,??MyBK??rA
   \   000002C4   081095E7           LDR      R1,[R5, +R8]
   \   000002C8   00B0A0E1           MOV      R11,R0
   \   000002CC   00009DE5           LDR      R0,[SP, #+0]
   \   000002D0   101091E5           LDR      R1,[R1, #+16]
   \   000002D4   0A2189E0           ADD      R2,R9,R10, LSL #+2
   \   000002D8   3C2392E5           LDR      R2,[R2, #+828]
   \   000002DC   070180E0           ADD      R0,R0,R7, LSL #+2
   \   000002E0   3C0390E5           LDR      R0,[R0, #+828]
   \   000002E4   082092E5           LDR      R2,[R2, #+8]
   \   000002E8   040090E5           LDR      R0,[R0, #+4]
   \   000002EC   920101E0           MUL      R1,R2,R1
   \   000002F0   015040E0           SUB      R5,R0,R1
   \   000002F4   ........           _BLF     ??GetDis,??GetDis??rA
   \   000002F8   00018BE0           ADD      R0,R11,R0, LSL #+2
   \   000002FC   3C0390E5           LDR      R0,[R0, #+828]
   \   00000300   080090E5           LDR      R0,[R0, #+8]
   \   00000304   050080E0           ADD      R0,R0,R5
   \   00000308   B600C6E1           STRH     R0,[R6, #+6]
    336              DispObject_InvalidateRect( GUIObject_GetDispObject(np), rs);
   \   0000030C   C4039FE5           LDR      R0,??onfTimer_8  ;; ftimer + 8
   \   00000310   000090E5           LDR      R0,[R0, #+0]
   \   00000314   680100EF           SWI      +360
   \   00000318   0610A0E1           MOV      R1,R6
   \   0000031C   EF0100EF           SWI      +495
    337              rs->x1=0;
   \   00000320   0000A0E3           MOV      R0,#+0
   \   00000324   B000C6E1           STRH     R0,[R6, #+0]
    338              rs->x2=MyBK()->dis[GetDis()]->cub*12;
   \   00000328   ........           _BLF     ??MyBK,??MyBK??rA
   \   0000032C   0050A0E1           MOV      R5,R0
   \   00000330   ........           _BLF     ??GetDis,??GetDis??rA
   \   00000334   000185E0           ADD      R0,R5,R0, LSL #+2
   \   00000338   3C0390E5           LDR      R0,[R0, #+828]
   \   0000033C   0C10A0E3           MOV      R1,#+12
   \   00000340   080090E5           LDR      R0,[R0, #+8]
   \   00000344   910000E0           MUL      R0,R1,R0
   \   00000348   B200C6E1           STRH     R0,[R6, #+2]
    339              rs->y1=MyBK()->dis[GetDis()]->y-MyBK()->p[1]->y*MyBK()->dis[GetDis()]->cub-MyBK()->dis[GetDis()]->cub;
   \   0000034C   ........           _BLF     ??MyBK,??MyBK??rA
   \   00000350   00A0A0E1           MOV      R10,R0
   \   00000354   ........           _BLF     ??GetDis,??GetDis??rA
   \   00000358   00B0A0E1           MOV      R11,R0
   \   0000035C   ........           _BLF     ??MyBK,??MyBK??rA
   \   00000360   0050A0E1           MOV      R5,R0
   \   00000364   ........           _BLF     ??MyBK,??MyBK??rA
   \   00000368   0070A0E1           MOV      R7,R0
   \   0000036C   ........           _BLF     ??GetDis,??GetDis??rA
   \   00000370   0080A0E1           MOV      R8,R0
   \   00000374   ........           _BLF     ??MyBK,??MyBK??rA
   \   00000378   051094E7           LDR      R1,[R4, +R5]
   \   0000037C   082187E0           ADD      R2,R7,R8, LSL #+2
   \   00000380   3C2392E5           LDR      R2,[R2, #+828]
   \   00000384   101091E5           LDR      R1,[R1, #+16]
   \   00000388   082092E5           LDR      R2,[R2, #+8]
   \   0000038C   0090A0E1           MOV      R9,R0
   \   00000390   0B018AE0           ADD      R0,R10,R11, LSL #+2
   \   00000394   3C0390E5           LDR      R0,[R0, #+828]
   \   00000398   920101E0           MUL      R1,R2,R1
   \   0000039C   040090E5           LDR      R0,[R0, #+4]
   \   000003A0   015040E0           SUB      R5,R0,R1
   \   000003A4   ........           _BLF     ??GetDis,??GetDis??rA
   \   000003A8   000189E0           ADD      R0,R9,R0, LSL #+2
   \   000003AC   3C0390E5           LDR      R0,[R0, #+828]
   \   000003B0   080090E5           LDR      R0,[R0, #+8]
   \   000003B4   000045E0           SUB      R0,R5,R0
   \   000003B8   B400C6E1           STRH     R0,[R6, #+4]
    340              rs->y2=MyBK()->dis[GetDis()]->y-MyBK()->p[1]->y*MyBK()->dis[GetDis()]->cub+MyBK()->dis[GetDis()]->cub;
   \   000003BC   ........           _BLF     ??MyBK,??MyBK??rA
   \   000003C0   00A0A0E1           MOV      R10,R0
   \   000003C4   ........           _BLF     ??GetDis,??GetDis??rA
   \   000003C8   00B0A0E1           MOV      R11,R0
   \   000003CC   ........           _BLF     ??MyBK,??MyBK??rA
   \   000003D0   0050A0E1           MOV      R5,R0
   \   000003D4   ........           _BLF     ??MyBK,??MyBK??rA
   \   000003D8   0070A0E1           MOV      R7,R0
   \   000003DC   ........           _BLF     ??GetDis,??GetDis??rA
   \   000003E0   0080A0E1           MOV      R8,R0
   \   000003E4   ........           _BLF     ??MyBK,??MyBK??rA
   \   000003E8   0090A0E1           MOV      R9,R0
   \   000003EC   051094E7           LDR      R1,[R4, +R5]
   \   000003F0   082187E0           ADD      R2,R7,R8, LSL #+2
   \   000003F4   3C2392E5           LDR      R2,[R2, #+828]
   \   000003F8   101091E5           LDR      R1,[R1, #+16]
   \   000003FC   082092E5           LDR      R2,[R2, #+8]
   \   00000400   0B018AE0           ADD      R0,R10,R11, LSL #+2
   \   00000404   3C0390E5           LDR      R0,[R0, #+828]
   \   00000408   920101E0           MUL      R1,R2,R1
   \   0000040C   040090E5           LDR      R0,[R0, #+4]
   \   00000410   014040E0           SUB      R4,R0,R1
   \   00000414   ........           _BLF     ??GetDis,??GetDis??rA
   \   00000418   000189E0           ADD      R0,R9,R0, LSL #+2
   \   0000041C   3C0390E5           LDR      R0,[R0, #+828]
   \   00000420   080090E5           LDR      R0,[R0, #+8]
   \   00000424   040080E0           ADD      R0,R0,R4
   \   00000428   B600C6E1           STRH     R0,[R6, #+6]
    341              DispObject_InvalidateRect( GUIObject_GetDispObject(np), rs);
   \   0000042C   A4029FE5           LDR      R0,??onfTimer_8  ;; ftimer + 8
   \   00000430   000090E5           LDR      R0,[R0, #+0]
   \   00000434   680100EF           SWI      +360
   \   00000438   0610A0E1           MOV      R1,R6
   \   0000043C   EF0100EF           SWI      +495
    342              rs->x1=MyBK()->dis[GetDis()]->cub*12;
   \   00000440   ........           _BLF     ??MyBK,??MyBK??rA
   \   00000444   0040A0E1           MOV      R4,R0
   \   00000448   ........           _BLF     ??GetDis,??GetDis??rA
   \   0000044C   000184E0           ADD      R0,R4,R0, LSL #+2
   \   00000450   3C0390E5           LDR      R0,[R0, #+828]
   \   00000454   0C10A0E3           MOV      R1,#+12
   \   00000458   080090E5           LDR      R0,[R0, #+8]
   \   0000045C   910000E0           MUL      R0,R1,R0
   \   00000460   B000C6E1           STRH     R0,[R6, #+0]
    343              rs->x2=MyBK()->dis[GetDis()]->x;
   \   00000464   ........           _BLF     ??MyBK,??MyBK??rA
   \   00000468   0040A0E1           MOV      R4,R0
   \   0000046C   ........           _BLF     ??GetDis,??GetDis??rA
   \   00000470   000184E0           ADD      R0,R4,R0, LSL #+2
   \   00000474   3C0390E5           LDR      R0,[R0, #+828]
   \   00000478   000090E5           LDR      R0,[R0, #+0]
   \   0000047C   B200C6E1           STRH     R0,[R6, #+2]
    344              rs->y1=MyBK()->dis[GetDis()]->y-MyBK()->dis[GetDis()]->cub*20;
   \   00000480   ........           _BLF     ??MyBK,??MyBK??rA
   \   00000484   0040A0E1           MOV      R4,R0
   \   00000488   ........           _BLF     ??GetDis,??GetDis??rA
   \   0000048C   0050A0E1           MOV      R5,R0
   \   00000490   ........           _BLF     ??MyBK,??MyBK??rA
   \   00000494   0070A0E1           MOV      R7,R0
   \   00000498   050184E0           ADD      R0,R4,R5, LSL #+2
   \   0000049C   3C0390E5           LDR      R0,[R0, #+828]
   \   000004A0   044090E5           LDR      R4,[R0, #+4]
   \   000004A4   ........           _BLF     ??GetDis,??GetDis??rA
   \   000004A8   000187E0           ADD      R0,R7,R0, LSL #+2
   \   000004AC   3C0390E5           LDR      R0,[R0, #+828]
   \   000004B0   1410A0E3           MOV      R1,#+20
   \   000004B4   080090E5           LDR      R0,[R0, #+8]
   \   000004B8   910000E0           MUL      R0,R1,R0
   \   000004BC   000044E0           SUB      R0,R4,R0
   \   000004C0   B400C6E1           STRH     R0,[R6, #+4]
    345              rs->y2=MyBK()->dis[GetDis()]->y-MyBK()->dis[GetDis()]->cub*20+MyBK()->dis[GetDis()]->FS*8;
   \   000004C4   ........           _BLF     ??MyBK,??MyBK??rA
   \   000004C8   0080A0E1           MOV      R8,R0
   \   000004CC   ........           _BLF     ??GetDis,??GetDis??rA
   \   000004D0   0090A0E1           MOV      R9,R0
   \   000004D4   ........           _BLF     ??MyBK,??MyBK??rA
   \   000004D8   0040A0E1           MOV      R4,R0
   \   000004DC   ........           _BLF     ??GetDis,??GetDis??rA
   \   000004E0   0050A0E1           MOV      R5,R0
   \   000004E4   ........           _BLF     ??MyBK,??MyBK??rA
   \   000004E8   051184E0           ADD      R1,R4,R5, LSL #+2
   \   000004EC   3C1391E5           LDR      R1,[R1, #+828]
   \   000004F0   0070A0E1           MOV      R7,R0
   \   000004F4   081091E5           LDR      R1,[R1, #+8]
   \   000004F8   090188E0           ADD      R0,R8,R9, LSL #+2
   \   000004FC   3C0390E5           LDR      R0,[R0, #+828]
   \   00000500   1420A0E3           MOV      R2,#+20
   \   00000504   040090E5           LDR      R0,[R0, #+4]
   \   00000508   920101E0           MUL      R1,R2,R1
   \   0000050C   014040E0           SUB      R4,R0,R1
   \   00000510   ........           _BLF     ??GetDis,??GetDis??rA
   \   00000514   000187E0           ADD      R0,R7,R0, LSL #+2
   \   00000518   3C0390E5           LDR      R0,[R0, #+828]
   \   0000051C   100090E5           LDR      R0,[R0, #+16]
   \   00000520   800184E0           ADD      R0,R4,R0, LSL #+3
   \   00000524   B600C6E1           STRH     R0,[R6, #+6]
    346              DispObject_InvalidateRect( GUIObject_GetDispObject(np), rs);
   \   00000528   A8019FE5           LDR      R0,??onfTimer_8  ;; ftimer + 8
   \   0000052C   000090E5           LDR      R0,[R0, #+0]
   \   00000530   680100EF           SWI      +360
   \   00000534   0610A0E1           MOV      R1,R6
   \   00000538   EF0100EF           SWI      +495
    347              rs->x1=0;
   \   0000053C   0000A0E3           MOV      R0,#+0
   \   00000540   B000C6E1           STRH     R0,[R6, #+0]
    348              rs->x2=MyBK()->dis[GetDis()]->cub*12;
   \   00000544   ........           _BLF     ??MyBK,??MyBK??rA
   \   00000548   0040A0E1           MOV      R4,R0
   \   0000054C   ........           _BLF     ??GetDis,??GetDis??rA
   \   00000550   000184E0           ADD      R0,R4,R0, LSL #+2
   \   00000554   3C0390E5           LDR      R0,[R0, #+828]
   \   00000558   0C10A0E3           MOV      R1,#+12
   \   0000055C   080090E5           LDR      R0,[R0, #+8]
   \   00000560   910000E0           MUL      R0,R1,R0
   \   00000564   B200C6E1           STRH     R0,[R6, #+2]
    349              rs->y1=MyBK()->dis[GetDis()]->y-MyBK()->dis[GetDis()]->cub;
   \   00000568   ........           _BLF     ??MyBK,??MyBK??rA
   \   0000056C   0040A0E1           MOV      R4,R0
   \   00000570   ........           _BLF     ??GetDis,??GetDis??rA
   \   00000574   0050A0E1           MOV      R5,R0
   \   00000578   ........           _BLF     ??MyBK,??MyBK??rA
   \   0000057C   0070A0E1           MOV      R7,R0
   \   00000580   050184E0           ADD      R0,R4,R5, LSL #+2
   \   00000584   3C0390E5           LDR      R0,[R0, #+828]
   \   00000588   044090E5           LDR      R4,[R0, #+4]
   \   0000058C   ........           _BLF     ??GetDis,??GetDis??rA
   \   00000590   000187E0           ADD      R0,R7,R0, LSL #+2
   \   00000594   3C0390E5           LDR      R0,[R0, #+828]
   \   00000598   080090E5           LDR      R0,[R0, #+8]
   \   0000059C   000044E0           SUB      R0,R4,R0
   \   000005A0   B400C6E1           STRH     R0,[R6, #+4]
    350              rs->y2=MyBK()->dis[GetDis()]->y;
   \   000005A4   ........           _BLF     ??MyBK,??MyBK??rA
   \   000005A8   0040A0E1           MOV      R4,R0
   \   000005AC   ........           _BLF     ??GetDis,??GetDis??rA
   \   000005B0   000184E0           ADD      R0,R4,R0, LSL #+2
   \   000005B4   3C0390E5           LDR      R0,[R0, #+828]
    351              DispObject_InvalidateRect( GUIObject_GetDispObject(np), rs);
    352              for(int i=0; i<2; i++)
   \   000005B8   0040A0E3           MOV      R4,#+0
   \   000005BC   040090E5           LDR      R0,[R0, #+4]
   \   000005C0   B600C6E1           STRH     R0,[R6, #+6]
   \   000005C4   0C019FE5           LDR      R0,??onfTimer_8  ;; ftimer + 8
   \   000005C8   000090E5           LDR      R0,[R0, #+0]
   \   000005CC   680100EF           SWI      +360
   \   000005D0   0610A0E1           MOV      R1,R6
   \   000005D4   EF0100EF           SWI      +495
    353              {
    354                if(!Check(MyBK()->p[i], MyBK()->tank))
   \                     ??onfTimer_9:
   \   000005D8   ........           _BLF     ??MyBK,??MyBK??rA
   \   000005DC   0050A0E1           MOV      R5,R0
   \   000005E0   ........           _BLF     ??MyBK,??MyBK??rA
   \   000005E4   201395E5           LDR      R1,[R5, #+800]
   \   000005E8   040180E0           ADD      R0,R0,R4, LSL #+2
   \   000005EC   500390E5           LDR      R0,[R0, #+848]
   \   000005F0   ........           BL       ??Check
   \   000005F4   000050E3           CMP      R0,#+0
   \   000005F8   0E00001A           BNE      ??onfTimer_10
    355                {
    356                  PlayMyMusic(2);
    357                  vibra();
    358                  GUIObject_Destroy(np);
    359                  BookObj_GotoPage(isBookX(NameMyElf, 0),&bk_go);
   \   000005FC   ........           LDR      R4,??DataTable3  ;; `?<Constant L"\\x54\\x52\\x5f\\x41\\x4c\\x41\\x52\\x4d\\`
   \   00000600   0200A0E3           MOV      R0,#+2
   \   00000604   ........           _BLF     ??PlayMyMusic,??PlayMyMusic??rA
   \   00000608   ........           _BLF     ??vibra,??vibra??rA
   \   0000060C   C4009FE5           LDR      R0,??onfTimer_8  ;; ftimer + 8
   \   00000610   000090E5           LDR      R0,[R0, #+0]
   \   00000614   CE0100EF           SWI      +462
   \   00000618   0010A0E3           MOV      R1,#+0
   \   0000061C   4C0084E2           ADD      R0,R4,#+76
   \   00000620   ........           _BLF     ??isBookX,??isBookX??rA
   \   00000624   541084E2           ADD      R1,R4,#+84
   \   00000628   2D0100EF           SWI      +301
    360                  Timer_Kill(&ftimer);
   \   0000062C   ........           LDR      R0,??DataTable7  ;; ftimer
   \   00000630   2A0100EF           SWI      +298
    361                  return;
   \   00000634   F38FBDE8           POP      {R0,R1,R4-R11,PC}
    362                }
    363              }
   \                     ??onfTimer_10:
   \   00000638   014084E2           ADD      R4,R4,#+1
   \   0000063C   020054E3           CMP      R4,#+2
   \   00000640   E4FFFFBA           BLT      ??onfTimer_9
    364              if(!isBookX("Gono4ki", 1)) MyBK()->pause=1;
   \   00000644   90009FE5           LDR      R0,??onfTimer_8+0x4  ;; `?<Constant L"\\x54\\x52\\x5f\\x41\\x4c\\x41\\x52\\x4d\\` + 68
   \   00000648   0110A0E3           MOV      R1,#+1
   \   0000064C   ........           _BLF     ??isBookX,??isBookX??rA
   \   00000650   000050E3           CMP      R0,#+0
   \   00000654   0200001A           BNE      ??onfTimer_1
   \   00000658   ........           _BLF     ??MyBK,??MyBK??rA
   \   0000065C   0110A0E3           MOV      R1,#+1
   \   00000660   381380E5           STR      R1,[R0, #+824]
    365            }
    366            int time=(1000/MyBK()->speed-MyBK()->palka*MyBK()->speed)/MyBK()->megaspeed;
   \                     ??onfTimer_1:
   \   00000664   ........           _BLF     ??MyBK,??MyBK??rA
   \   00000668   0040A0E1           MOV      R4,R0
   \   0000066C   ........           _BLF     ??MyBK,??MyBK??rA
   \   00000670   0050A0E1           MOV      R5,R0
   \   00000674   ........           _BLF     ??MyBK,??MyBK??rA
   \   00000678   0060A0E1           MOV      R6,R0
   \   0000067C   ........           _BLF     ??MyBK,??MyBK??rA
   \   00000680   582390E5           LDR      R2,[R0, #+856]
   \   00000684   2C1394E5           LDR      R1,[R4, #+812]
   \   00000688   2C3396E5           LDR      R3,[R6, #+812]
   \   0000068C   FA0FA0E3           MOV      R0,#+1000
   \   00000690   ........           _BLF     ??div32_a,??rA??div32_a
   \   00000694   5C0395E5           LDR      R0,[R5, #+860]
   \   00000698   930000E0           MUL      R0,R3,R0
   \   0000069C   000041E0           SUB      R0,R1,R0
   \   000006A0   0210A0E1           MOV      R1,R2
   \   000006A4   ........           _BLF     ??div32_a,??rA??div32_a
   \   000006A8   0140A0E1           MOV      R4,R1
    367            if(time<=0) time=10;
   \   000006AC   010054E3           CMP      R4,#+1
   \   000006B0   0A40A0B3           MOVLT    R4,#+10
    368            Timer_ReSet(&ftimer,time,onfTimer,0);
   \   000006B4   0010A0E3           MOV      R1,#+0
   \   000006B8   04008DE2           ADD      R0,SP,#+4
   \   000006BC   ........           _BLF     ??LPARAM,??LPARAM??rA
   \   000006C0   04309DE5           LDR      R3,[SP, #+4]
   \   000006C4   ........           LDR      R2,??DataTable8  ;; ??onfTimer
   \   000006C8   ........           LDR      R0,??DataTable7  ;; ftimer
   \   000006CC   0410A0E1           MOV      R1,R4
   \   000006D0   280100EF           SWI      +296
    369          }
   \   000006D4   F38FBDE8           POP      {R0,R1,R4-R11,PC}  ;; return
   \                     ??onfTimer_8:
   \   000006D8   ........           DC32     ftimer + 8
   \   000006DC   ........           DC32     `?<Constant L"\\x54\\x52\\x5f\\x41\\x4c\\x41\\x52\\x4d\\` + 68
    370          
    371          

   \                                 In segment CODE, align 4, keep-with-next
    372          int CreateGame(void*, BOOK*bk)
    373          {
   \                     ??CreateGame:
   \   00000000   F0412DE9           PUSH     {R4-R8,LR}
   \   00000004   04D04DE2           SUB      SP,SP,#+4
   \   00000008   0140A0E1           MOV      R4,R1
    374            randInit();
    375            for(int i=0; i<2; i++)
   \   0000000C   0050A0E3           MOV      R5,#+0
   \   00000010   ........           _BLF     ??randInit,??randInit??rA
   \   00000014   0170A0E3           MOV      R7,#+1
   \   00000018   0080A0E3           MOV      R8,#+0
    376            {
    377              for(int j=0; j<4; j++)
   \                     ??CreateGame_1:
   \   0000001C   0000A0E3           MOV      R0,#+0
   \   00000020   056184E0           ADD      R6,R4,R5, LSL #+2
    378              {
    379                ((MyBook*)bk)->p[i]->x[j]=1;
   \                     ??CreateGame_2:
   \   00000024   501396E5           LDR      R1,[R6, #+848]
   \   00000028   007181E7           STR      R7,[R1, +R0, LSL #+2]
    380              }
   \   0000002C   010080E2           ADD      R0,R0,#+1
   \   00000030   040050E3           CMP      R0,#+4
   \   00000034   FAFFFFBA           BLT      ??CreateGame_2
    381              ((MyBook*)bk)->p[i]->y=20-i*10;
   \   00000038   500396E5           LDR      R0,[R6, #+848]
   \   0000003C   0A10A0E3           MOV      R1,#+10
   \   00000040   910502E0           MUL      R2,R1,R5
    382              int r=rand();
    383              ((MyBook*)bk)->p[i]->x[r]=0;
    384            }
   \   00000044   015085E2           ADD      R5,R5,#+1
   \   00000048   141062E2           RSB      R1,R2,#+20
   \   0000004C   101080E5           STR      R1,[R0, #+16]
   \   00000050   ........           _BLF     ??rand,??rand??rA
   \   00000054   501396E5           LDR      R1,[R6, #+848]
   \   00000058   020055E3           CMP      R5,#+2
   \   0000005C   008181E7           STR      R8,[R1, +R0, LSL #+2]
   \   00000060   EDFFFFBA           BLT      ??CreateGame_1
    385            MyBK()->megaspeed=1;
    386            MyBK()->point=0;
    387            MyBK()->pause=0;
    388            MyBK()->palka=0;
    389            np=custom_create(bk);
   \   00000064   ........           LDR      R5,??DataTable7  ;; ftimer
   \   00000068   ........           _BLF     ??MyBK,??MyBK??rA
   \   0000006C   587380E5           STR      R7,[R0, #+856]
   \   00000070   ........           _BLF     ??MyBK,??MyBK??rA
   \   00000074   308380E5           STR      R8,[R0, #+816]
   \   00000078   ........           _BLF     ??MyBK,??MyBK??rA
   \   0000007C   388380E5           STR      R8,[R0, #+824]
   \   00000080   ........           _BLF     ??MyBK,??MyBK??rA
   \   00000084   5C8380E5           STR      R8,[R0, #+860]
   \   00000088   0400A0E1           MOV      R0,R4
   \   0000008C   ........           BL       ??custom_create
   \   00000090   080085E5           STR      R0,[R5, #+8]
    390            dd=DispObject_GetDESC ( GUIObject_GetDispObject(np) ); 
   \   00000094   680100EF           SWI      +360
   \   00000098   1F0200EF           SWI      +543
    391            DISP_DESC_SetOnKey(dd, myOnKey);
   \   0000009C   74109FE5           LDR      R1,??CreateGame_3  ;; ??myOnKey
   \   000000A0   040085E5           STR      R0,[R5, #+4]
   \   000000A4   2A0200EF           SWI      +554
    392            DISP_DESC_SetOnRedraw(dd, myOnRedraw);
   \   000000A8   6C109FE5           LDR      R1,??CreateGame_3+0x4  ;; ??myOnRedraw
   \   000000AC   040095E5           LDR      R0,[R5, #+4]
   \   000000B0   280200EF           SWI      +552
    393            GUIObject_Show(np);
   \   000000B4   080095E5           LDR      R0,[R5, #+8]
   \   000000B8   340100EF           SWI      +308
    394            BookObj_Show(bk, 0);
   \   000000BC   0010A0E3           MOV      R1,#+0
   \   000000C0   0400A0E1           MOV      R0,R4
   \   000000C4   720100EF           SWI      +370
    395            BookObj_SetFocus(bk, 0);
   \   000000C8   0810A0E1           MOV      R1,R8
   \   000000CC   0400A0E1           MOV      R0,R4
   \   000000D0   320100EF           SWI      +306
    396            PlayMyMusic(0);
   \   000000D4   0800A0E1           MOV      R0,R8
   \   000000D8   ........           _BLF     ??PlayMyMusic,??PlayMyMusic??rA
    397            ftimer=Timer_Set(1000/((MyBook*)bk)->speed,onfTimer,0);
   \   000000DC   0810A0E1           MOV      R1,R8
   \   000000E0   0D00A0E1           MOV      R0,SP
   \   000000E4   ........           _BLF     ??LPARAM,??LPARAM??rA
   \   000000E8   ........           LDR      R1,??DataTable8  ;; ??onfTimer
   \   000000EC   00209DE5           LDR      R2,[SP, #+0]
   \   000000F0   0130A0E1           MOV      R3,R1
   \   000000F4   2C1394E5           LDR      R1,[R4, #+812]
   \   000000F8   FA0FA0E3           MOV      R0,#+1000
   \   000000FC   ........           _BLF     ??div32_a,??rA??div32_a
   \   00000100   0100A0E1           MOV      R0,R1
   \   00000104   0310A0E1           MOV      R1,R3
   \   00000108   290100EF           SWI      +297
   \   0000010C   B000C5E1           STRH     R0,[R5, #+0]
    398            return 0;
   \   00000110   0800A0E1           MOV      R0,R8
   \   00000114   F281BDE8           POP      {R1,R4-R8,PC}    ;; return
   \                     ??CreateGame_3:
   \   00000118   ........           DC32     ??myOnKey
   \   0000011C   ........           DC32     ??myOnRedraw
    399          }

   \                                 In segment CODE, align 4, keep-with-next
   \                     ??DataTable3:
   \   00000000   ........           DC32     `?<Constant L"\\x54\\x52\\x5f\\x41\\x4c\\x41\\x52\\x4d\\`

   \                                 In segment CODE, align 4, keep-with-next
   \                     ??DataTable7:
   \   00000000   ........           DC32     ftimer

   \                                 In segment CODE, align 4, keep-with-next
   \                     ??DataTable8:
   \   00000000   ........           DC32     ??onfTimer

   \                                 In segment DATA_C, align 4, align-sorted
   \                     `?<Constant "Game_GuiMenu_Page">`:
   \   00000000   47616D655F47       DC8 "Game_GuiMenu_Page"
   \              75694D656E75
   \              5F5061676500
   \   00000012   0000               DC8 0, 0

   \                                 In segment DATA_C, align 4, align-sorted
   \                     `?<Constant L"\\x41e\\x447\\x43a\\x438\\x3a">`:
   \   00000000   1E0447043A04       DC8 1EH, 4, 47H, 4, 3AH, 4, 38H, 4
   \              3804        
   \   00000008   3A000000           DC8 3AH, 0, 0, 0
   \   0000000C   120440043504       DC8 12H, 4, 40H, 4, 35H, 4, 3CH, 4
   \              3C04        
   \   00000014   4F043A000A00       DC8 4FH, 4, 3AH, 0, 0AH, 0, 0, 0
   \              0000        
   \   0000001C   230440043E04       DC8 23H, 4, 40H, 4, 3EH, 4, 32H, 4
   \              3204        
   \   00000024   35043D044C04       DC8 35H, 4, 3DH, 4, 4CH, 4, 3AH, 0
   \              3A00        
   \   0000002C   0000               DC8 0, 0
   \   0000002E   0000               DC8 0, 0

   \                                 In segment DATA_C, align 4, align-sorted
   \   00000000   3A000000           DC8 3AH, 0, 0, 0

   \                                 In segment DATA_C, align 4, align-sorted
   \                     `?<Constant L"\\x41f\\x430\\x443\\x437\\x430">`:
   \   00000000   1F0430044304       DC8 1FH, 4, 30H, 4, 43H, 4, 37H, 4
   \              3704        
   \   00000008   30040000           DC8 30H, 4, 0, 0

   Maximum stack usage in bytes:

     Function                       CSTACK
     --------                       ------
     Check(PREGRADA *, COORDINAT *)     0
     CreateGame(void *, BOOK *)        28
     DrawCub(int, int, int)            44
     DrawP(PREGRADA *)                 20
     DrawPause(int, int, int)          72
     DrawTank(int)                     16
     DrawText(MyBook *, int, int, int, int)
                                      112
     LPARAM::LPARAM(int)                0
     custom_constr(DISP_DESC *)         8
     custom_create(BOOK *)             24
     custom_destr(GUI *)                0
     custom_onClose(DISP_OBJ *)         0
     custom_onCreate(DISP_OBJ *)        0
     myOnKey(DISP_OBJ *, int, int, int, int)
                                       48
     myOnRedraw(DISP_OBJ *, int, int, int)
                                       44
     onfTimer(u16, LPARAM)             44


   Segment part sizes:

     Function/Label                 Bytes
     --------------                 -----
     LPARAM::LPARAM(int)               8
     ftimer                           12
     bk_msglst_go                     16
     ?<Constant L"\x54\x52\x5f\x41\x4c\x41\x52\x4d\
                                      96
     custom_guiname                   12
     custom_onCreate(DISP_OBJ *)       8
     custom_onClose(DISP_OBJ *)        4
     custom_constr(DISP_DESC *)       68
     custom_destr(GUI *)               4
     custom_create(BOOK *)           152
     DrawCub(int, int, int)          264
     DrawP(PREGRADA *)               120
     DrawTank(int)                   132
     DrawText(MyBook *, int, int, int, int)
                                    1040
     DrawPause(int, int, int)        276
     myOnRedraw(DISP_OBJ *, int, int, int)
                                     684
     Check(PREGRADA *, COORDINAT *)   60
     myOnKey(DISP_OBJ *, int, int, int, int)
                                    1344
     onfTimer(u16, LPARAM)          1760
     CreateGame(void *, BOOK *)      288
     ??DataTable3                      4
     ??DataTable7                      4
     ??DataTable8                      4
     ?<Constant "Game_GuiMenu_Page">
                                      20
     ?<Constant L"\x41e\x447\x43a\x438\x3a">
                                      48
     ?<Constant L"\x3a">               4
     ?<Constant L"\x41f\x430\x443\x437\x430">
                                      12
      Others                         216

 
 6 428 bytes in segment CODE
   192 bytes in segment DATA_C
    12 bytes in segment DATA_Z
    16 bytes in segment DYN_PAGE
    12 bytes in segment INITTAB
 
 6 216 bytes of CODE  memory (+ 224 bytes shared)
   208 bytes of CONST memory
    12 bytes of DATA  memory

Errors: none
Warnings: none
