//////////////////////////////////////////////////////////////////////////////
//                                                                           /
// IAR ARM ANSI C/C++ Compiler V4.42A/W32 EVALUATION   10/Jun/2013  22:58:35 /
// Copyright 1999-2005 IAR Systems. All rights reserved.                     /
//                                                                           /
//    Cpu mode        =  interwork                                           /
//    Endian          =  little                                              /
//    Stack alignment =  4                                                   /
//    Source file     =  Z:\home\perk11\www\perk11.info\svn\SE\Gono4ki\Menu. /
//                       c                                                   /
//    Command line    =  Z:\home\perk11\www\perk11.info\svn\SE\Gono4ki\Menu. /
//                       c -D NDEBUG -D OLDFUNCTIONS -lC                     /
//                       Z:\home\perk11\www\perk11.info\svn\SE\Gono4ki\Relea /
//                       se\List\ -lA Z:\home\perk11\www\perk11.info\svn\SE\ /
//                       Gono4ki\Release\List\ -o                            /
//                       Z:\home\perk11\www\perk11.info\svn\SE\Gono4ki\Relea /
//                       se\Obj\ -s9 --no_unroll --no_inline --cpu_mode arm  /
//                       --endian little --cpu ARM926EJ-S --stack_align 4    /
//                       --interwork -e --enable_multibytes --fpu None       /
//                       --eec++ --dlib_config Z:\home\perk11\IAR2\arm\LIB\d /
//                       l5tpainl8n.h -I Z:\home\perk11\IAR2\arm\INC\        /
//    List file       =  Z:\home\perk11\www\perk11.info\svn\SE\Gono4ki\Relea /
//                       se\List\Menu.s79                                    /
//                                                                           /
//                                                                           /
//////////////////////////////////////////////////////////////////////////////

        NAME Menu

        RTMODEL "StackAlign4", "USED"
        RTMODEL "__cpu_mode", "__pcs__interwork"
        RTMODEL "__data_model", "absolute"
        RTMODEL "__endian", "little"
        RTMODEL "__rt_version", "6"

        RSEG CSTACK:DATA:NOROOT(2)

        ERROR
//NOTE: This module defines or uses C++ features that are not
//      accessible from assembler code. Assembling this file will
//      not produce an equivalent object file to the one produced
//      by the C++ compiler.

        MULTWEAK ??CheckResurs??rA
        PUBLIC ??CreateGM
        FUNCTION ??CreateGM,0203H
        LOCFRAME CSTACK, 12, STACK
        MULTWEAK ??CreateGM??rT
        PUBLIC ??CreateGameM
        FUNCTION ??CreateGameM,0203H
        LOCFRAME CSTACK, 12, STACK
        MULTWEAK ??CreateGameM??rT
        PUBLIC ??CreateINM
        FUNCTION ??CreateINM,0203H
        LOCFRAME CSTACK, 20, STACK
        MULTWEAK ??CreateINM??rT
        PUBLIC ??CreateInput
        FUNCTION ??CreateInput,0203H
        LOCFRAME CSTACK, 76, STACK
        MULTWEAK ??CreateInput??rT
        PUBLIC ??CreateInputI
        FUNCTION ??CreateInputI,0203H
        LOCFRAME CSTACK, 76, STACK
        MULTWEAK ??CreateInputI??rT
        PUBLIC ??CreateMNM
        FUNCTION ??CreateMNM,0203H
        LOCFRAME CSTACK, 20, STACK
        MULTWEAK ??CreateMNM??rT
        PUBLIC ??CreateNM
        FUNCTION ??CreateNM,0203H
        LOCFRAME CSTACK, 12, STACK
        MULTWEAK ??CreateNM??rT
        MULTWEAK ??DELTABL??rA
??DataTable1 EQU 0
??DataTable10 EQU 0
??DataTable11 EQU 0
??DataTable12 EQU 0
??DataTable13 EQU 0
??DataTable2 EQU 0
??DataTable22 EQU 0
??DataTable23 EQU 0
??DataTable24 EQU 0
??DataTable25 EQU 0
??DataTable26 EQU 0
??DataTable27 EQU 0
??DataTable29 EQU 0
??DataTable3 EQU 0
??DataTable30 EQU 0
??DataTable31 EQU 0
??DataTable32 EQU 0
??DataTable33 EQU 0
??DataTable34 EQU 0
??DataTable35 EQU 0
??DataTable36 EQU 0
??DataTable37 EQU 0
??DataTable4 EQU 0
??DataTable44 EQU 0
??DataTable45 EQU 0
??DataTable46 EQU 0
??DataTable5 EQU 0
??DataTable6 EQU 0
??DataTable7 EQU 0
??DataTable8 EQU 0
??DataTable9 EQU 0
        PUBLIC ??DeleteRes
        FUNCTION ??DeleteRes,0603H
        LOCFRAME CSTACK, 8, STACK
        MULTWEAK ??DeleteRes??rT
        PUBLIC ??DestroyInput
        FUNCTION ??DestroyInput,0603H
        LOCFRAME CSTACK, 4, STACK
        MULTWEAK ??DestroyInput??rT
        PUBLIC ??DestroyInputI
        FUNCTION ??DestroyInputI,0603H
        LOCFRAME CSTACK, 4, STACK
        MULTWEAK ??DestroyInputI??rT
        PUBLIC ??ExitGM
        FUNCTION ??ExitGM,0603H
        LOCFRAME CSTACK, 4, STACK
        MULTWEAK ??ExitGM??rT
        PUBLIC ??ExitINM
        FUNCTION ??ExitINM,0603H
        LOCFRAME CSTACK, 8, STACK
        MULTWEAK ??ExitINM??rT
        PUBLIC ??ExitMNM
        FUNCTION ??ExitMNM,0603H
        LOCFRAME CSTACK, 8, STACK
        MULTWEAK ??ExitMNM??rT
        PUBLIC ??ExitNM
        FUNCTION ??ExitNM,0603H
        LOCFRAME CSTACK, 8, STACK
        MULTWEAK ??ExitNM??rT
        MULTWEAK ??GetNamesOfIMN??rA
        MULTWEAK ??GetStrokaIMG??rA
        MULTWEAK ??ImagesDel??rA
        PUBLIC ??MenuResultat
        FUNCTION ??MenuResultat,0203H
        LOCFRAME CSTACK, 20, STACK
        MULTWEAK ??MenuResultat??rT
        MULTWEAK ??MyBK??rA
        MULTWEAK ??NamesOfPunkts??rA
        PUBLIC ??NewKey1
        FUNCTION ??NewKey1,0603H
        LOCFRAME CSTACK, 28, STACK
        MULTWEAK ??NewKey1??rT
        PUBLIC ??NoPress
        FUNCTION ??NoPress,0603H
        LOCFRAME CSTACK, 8, STACK
        MULTWEAK ??NoPress??rT
        PUBLIC ??OnEntGM
        FUNCTION ??OnEntGM,0603H
        LOCFRAME CSTACK, 8, STACK
        MULTWEAK ??OnEntGM??rT
        PUBLIC ??OnEntGameM
        FUNCTION ??OnEntGameM,0603H
        LOCFRAME CSTACK, 12, STACK
        MULTWEAK ??OnEntGameM??rT
        PUBLIC ??OnEntINM
        FUNCTION ??OnEntINM,0603H
        LOCFRAME CSTACK, 12, STACK
        MULTWEAK ??OnEntINM??rT
        PUBLIC ??OnEntInput
        FUNCTION ??OnEntInput,0603H
        LOCFRAME CSTACK, 12, STACK
        MULTWEAK ??OnEntInput??rT
        PUBLIC ??OnEntInputI
        FUNCTION ??OnEntInputI,0603H
        LOCFRAME CSTACK, 12, STACK
        MULTWEAK ??OnEntInputI??rT
        PUBLIC ??OnEntMNM
        FUNCTION ??OnEntMNM,0603H
        LOCFRAME CSTACK, 12, STACK
        MULTWEAK ??OnEntMNM??rT
        PUBLIC ??OnEntMR
        FUNCTION ??OnEntMR,0603H
        LOCFRAME CSTACK, 8, STACK
        MULTWEAK ??OnEntMR??rT
        PUBLIC ??OnEntNM
        FUNCTION ??OnEntNM,0603H
        LOCFRAME CSTACK, 8, STACK
        MULTWEAK ??OnEntNM??rT
        PUBLIC ??OnMNM1
        FUNCTION ??OnMNM1,0603H
        LOCFRAME CSTACK, 16, STACK
        MULTWEAK ??OnMNM1??rT
        PUBLIC ??Set
        FUNCTION ??Set,0203H
        LOCFRAME CSTACK, 36, STACK
        MULTWEAK ??Set??rT
        PUBLIC ??SetTitlePunktsGM
        FUNCTION ??SetTitlePunktsGM,0603H
        LOCFRAME CSTACK, 20, STACK
        MULTWEAK ??SetTitlePunktsGM??rT
        PUBLIC ??SetTitlePunktsINM
        FUNCTION ??SetTitlePunktsINM,0603H
        LOCFRAME CSTACK, 28, STACK
        MULTWEAK ??SetTitlePunktsINM??rT
        PUBLIC ??SetTitlePunktsMNM
        FUNCTION ??SetTitlePunktsMNM,0603H
        LOCFRAME CSTACK, 40, STACK
        MULTWEAK ??SetTitlePunktsMNM??rT
        PUBLIC ??SetTitlePunktsMR
        FUNCTION ??SetTitlePunktsMR,0603H
        LOCFRAME CSTACK, 16, STACK
        MULTWEAK ??SetTitlePunktsMR??rT
        PUBLIC ??SetTitlePunktsNM
        FUNCTION ??SetTitlePunktsNM,0603H
        LOCFRAME CSTACK, 16, STACK
        MULTWEAK ??SetTitlePunktsNM??rT
        MULTWEAK ??ShowInfo??rA
        PUBLIC ??ShowResults
        FUNCTION ??ShowResults,0203H
        LOCFRAME CSTACK, 276, STACK
        MULTWEAK ??ShowResults??rT
        MULTWEAK ??StatusSettings1??rA
        MULTWEAK ??StatusSettings??rA
        PUBLIC ??YesNo
        FUNCTION ??YesNo,0203H
        LOCFRAME CSTACK, 20, STACK
        MULTWEAK ??YesNo??rT
        PUBLIC ??YesPress
        FUNCTION ??YesPress,0603H
        LOCFRAME CSTACK, 4, STACK
        MULTWEAK ??YesPress??rT
        MULTWEAK ??isBookX??rA
        
        CFI Names cfiNames0
        CFI StackFrame CFA R13 HUGEDATA
        CFI Resource R0:32, R1:32, R2:32, R3:32, R4:32, R5:32, R6:32, R7:32
        CFI Resource R8:32, R9:32, R10:32, R11:32, R12:32, CPSR:32, R13:32
        CFI Resource R14:32, SPSR:32
        CFI VirtualResource ?RET:32
        CFI EndNames cfiNames0
        
        CFI Common cfiCommon0 Using cfiNames0
        CFI CodeAlign 2
        CFI DataAlign 4
        CFI ReturnAddress ?RET CODE
        CFI CFA R13+0
        CFI R0 Undefined
        CFI R1 Undefined
        CFI R2 Undefined
        CFI R3 Undefined
        CFI R4 SameValue
        CFI R5 SameValue
        CFI R6 SameValue
        CFI R7 SameValue
        CFI R8 SameValue
        CFI R9 SameValue
        CFI R10 SameValue
        CFI R11 SameValue
        CFI R12 Undefined
        CFI CPSR SameValue
        CFI R14 Undefined
        CFI SPSR SameValue
        CFI ?RET R14
        CFI EndCommon cfiCommon0
        
        
        CFI Common cfiCommon1 Using cfiNames0
        CFI CodeAlign 4
        CFI DataAlign 4
        CFI ReturnAddress ?RET CODE
        CFI CFA R13+0
        CFI R0 Undefined
        CFI R1 Undefined
        CFI R2 Undefined
        CFI R3 Undefined
        CFI R4 SameValue
        CFI R5 SameValue
        CFI R6 SameValue
        CFI R7 SameValue
        CFI R8 SameValue
        CFI R9 SameValue
        CFI R10 SameValue
        CFI R11 SameValue
        CFI R12 Undefined
        CFI CPSR SameValue
        CFI R14 Undefined
        CFI SPSR SameValue
        CFI ?RET R14
        CFI EndCommon cfiCommon1
        











??CheckResurs??rA   SYMBOL "??rA", ??CheckResurs

??CreateGM??rT      SYMBOL "??rT", ??CreateGM

??CreateGameM??rT   SYMBOL "??rT", ??CreateGameM

??CreateINM??rT     SYMBOL "??rT", ??CreateINM

??CreateInput??rT   SYMBOL "??rT", ??CreateInput

??CreateInputI??rT  SYMBOL "??rT", ??CreateInputI

??CreateMNM??rT     SYMBOL "??rT", ??CreateMNM

??CreateNM??rT      SYMBOL "??rT", ??CreateNM
??DELTABL??rA       SYMBOL "??rA", ??DELTABL

??DeleteRes??rT     SYMBOL "??rT", ??DeleteRes

??DestroyInput??rT  SYMBOL "??rT", ??DestroyInput

??DestroyInputI??rT SYMBOL "??rT", ??DestroyInputI

??ExitGM??rT        SYMBOL "??rT", ??ExitGM

??ExitINM??rT       SYMBOL "??rT", ??ExitINM

??ExitMNM??rT       SYMBOL "??rT", ??ExitMNM

??ExitNM??rT        SYMBOL "??rT", ??ExitNM
??GetNamesOfIMN??rA SYMBOL "??rA", ??GetNamesOfIMN
??GetStrokaIMG??rA  SYMBOL "??rA", ??GetStrokaIMG
??ImagesDel??rA     SYMBOL "??rA", ??ImagesDel

??MenuResultat??rT  SYMBOL "??rT", ??MenuResultat
??MyBK??rA          SYMBOL "??rA", ??MyBK
??NamesOfPunkts??rA SYMBOL "??rA", ??NamesOfPunkts

??NewKey1??rT       SYMBOL "??rT", ??NewKey1

??NoPress??rT       SYMBOL "??rT", ??NoPress

??OnEntGM??rT       SYMBOL "??rT", ??OnEntGM

??OnEntGameM??rT    SYMBOL "??rT", ??OnEntGameM

??OnEntINM??rT      SYMBOL "??rT", ??OnEntINM

??OnEntInput??rT    SYMBOL "??rT", ??OnEntInput

??OnEntInputI??rT   SYMBOL "??rT", ??OnEntInputI

??OnEntMNM??rT      SYMBOL "??rT", ??OnEntMNM

??OnEntMR??rT       SYMBOL "??rT", ??OnEntMR

??OnEntNM??rT       SYMBOL "??rT", ??OnEntNM

??OnMNM1??rT        SYMBOL "??rT", ??OnMNM1

??Set??rT           SYMBOL "??rT", ??Set

??SetTitlePunktsGM??rT SYMBOL "??rT", ??SetTitlePunktsGM

??SetTitlePunktsINM??rT SYMBOL "??rT", ??SetTitlePunktsINM

??SetTitlePunktsMNM??rT SYMBOL "??rT", ??SetTitlePunktsMNM

??SetTitlePunktsMR??rT SYMBOL "??rT", ??SetTitlePunktsMR

??SetTitlePunktsNM??rT SYMBOL "??rT", ??SetTitlePunktsNM
??ShowInfo??rA      SYMBOL "??rA", ??ShowInfo

??ShowResults??rT   SYMBOL "??rT", ??ShowResults
??StatusSettings1??rA SYMBOL "??rA", ??StatusSettings1
??StatusSettings??rA SYMBOL "??rA", ??StatusSettings

??YesNo??rT         SYMBOL "??rT", ??YesNo

??YesPress??rT      SYMBOL "??rT", ??YesPress
??isBookX??rA       SYMBOL "??rA", ??isBookX

        EXTERN ??CheckResurs
        FUNCTION ??CheckResurs,0202H
        EXTERN ??CreateGame
        FUNCTION ??CreateGame,0602H
        EXTERN ??DELTABL
        FUNCTION ??DELTABL,0202H
        EXTERN ??GetNamesOfIMN
        FUNCTION ??GetNamesOfIMN,0202H
        EXTERN ??GetStrokaIMG
        FUNCTION ??GetStrokaIMG,0202H
        EXTERN ??ImagesDel
        FUNCTION ??ImagesDel,0202H
        EXTERN ??MyBK
        FUNCTION ??MyBK,0202H
        EXTERN ??NamesOfPunkts
        FUNCTION ??NamesOfPunkts,0202H
        EXTERN ??ShowInfo
        FUNCTION ??ShowInfo,0202H
        EXTERN ??StatusSettings
        FUNCTION ??StatusSettings,0202H
        EXTERN ??StatusSettings1
        FUNCTION ??StatusSettings1,0202H
        EXTERN ??isBookX
        FUNCTION ??isBookX,0202H
        EXTERN ACTION_BACK
        EXTERN ACTION_LONG_BACK
        EXTERN ACTION_NO
        EXTERN ACTION_SELECT1
        EXTERN ACTION_YES
        EXTERN VAR_ARG_BOOK
        EXTERN VAR_ARG_CALL_BACK_LONG_BACK
        EXTERN VAR_ARG_CALL_BACK_OK
        EXTERN VAR_ARG_CALL_BACK_PREV_ACT
        EXTERN VAR_ARG_STRINP_FIXED_TEXT
        EXTERN VAR_ARG_STRINP_MAX_LEN
        EXTERN VAR_ARG_STRINP_MIN_LEN
        EXTERN VAR_ARG_STRINP_TEXT
        EXTERN VAR_ARG_YESNO_QUESTION


        RSEG DATA_C:CONST:SORT:NOROOT(2)
        DATA
        DC8 0AH, 0, 0, 0

        RSEG DATA_C:CONST:SORT:NOROOT(2)
`?<Constant L"\\x412\\x44b\\x439\\x442\\x438\\x20\\x43`:
        DATA
        DC8 12H, 4, 4BH, 4, 39H, 4, 42H, 4
        DC8 38H, 4, 20H, 0, 38H, 4, 37H, 4
        DC8 20H, 0, 38H, 4, 33H, 4, 40H, 4
        DC8 4BH, 4, 0, 0
        DC8 46H, 0, 4FH, 0, 52H, 0, 42H, 0
        DC8 49H, 0, 44H, 0, 44H, 0, 45H, 0
        DC8 4EH, 0, 5FH, 0, 4EH, 0, 45H, 0
        DC8 54H, 0, 57H, 0, 4FH, 0, 52H, 0
        DC8 4BH, 0, 5FH, 0, 49H, 0, 43H, 0
        DC8 4EH, 0, 0, 0
        DC8 2EH, 0, 20H, 0, 0, 0
        DC8 0, 0
        DC8 20H, 0, 2DH, 0, 20H, 0, 0, 0
        DC8 20H, 4, 35H, 4, 37H, 4, 43H, 4
        DC8 3BH, 4, 4CH, 4, 42H, 4, 30H, 4
        DC8 42H, 4, 4BH, 4, 0, 0
        DC8 0, 0
        DC8 21H, 4, 31H, 4, 40H, 4, 3EH, 4
        DC8 41H, 4, 0, 0
        DC8 1FH, 4, 40H, 4, 3EH, 4, 41H, 4
        DC8 3CH, 4, 2EH, 0, 0, 0
        DC8 0, 0
        DC8 1DH, 4, 30H, 4, 41H, 4, 42H, 4
        DC8 40H, 4, 3EH, 4, 39H, 4, 3AH, 4
        DC8 38H, 4, 0, 0
        DC8 1DH, 4, 3EH, 4, 32H, 4, 30H, 4
        DC8 4FH, 4, 20H, 0, 38H, 4, 33H, 4
        DC8 40H, 4, 30H, 4, 0, 0
        DC8 0, 0
        DC8 1DH, 4, 30H, 4, 47H, 4, 30H, 4
        DC8 42H, 4, 4CH, 4, 20H, 0, 38H, 4
        DC8 33H, 4, 40H, 4, 43H, 4, 21H, 0
        DC8 0, 0
        DC8 0, 0
        DC8 50H, 0, 52H, 0, 4FH, 0, 46H, 0
        DC8 49H, 0, 4CH, 0, 45H, 0, 5FH, 0
        DC8 49H, 0, 4EH, 0, 43H, 0, 41H, 0
        DC8 52H, 0, 5FH, 0, 4CH, 0, 49H, 0
        DC8 53H, 0, 54H, 0, 5FH, 0, 49H, 0
        DC8 43H, 0, 4EH, 0, 0, 0
        DC8 0, 0
        DC8 1FH, 4, 3EH, 4, 3AH, 4, 3EH, 4
        DC8 32H, 4, 4BH, 4, 40H, 4, 4FH, 4
        DC8 46H, 4, 30H, 4, 0, 0
        DC8 0, 0
        DC8 4DH, 0, 45H, 0, 4EH, 0, 55H, 0
        DC8 5FH, 0, 53H, 0, 45H, 0, 54H, 0
        DC8 54H, 0, 49H, 0, 4EH, 0, 47H, 0
        DC8 53H, 0, 5FH, 0, 49H, 0, 43H, 0
        DC8 4EH, 0, 0, 0
        DC8 1FH, 4, 40H, 4, 3EH, 4, 41H, 4
        DC8 3CH, 4, 3EH, 4, 42H, 4, 40H, 4
        DC8 20H, 0, 40H, 4, 35H, 4, 37H, 4
        DC8 43H, 4, 3BH, 4, 4CH, 4, 42H, 4
        DC8 30H, 4, 42H, 4, 3EH, 4, 32H, 4
        DC8 0, 0
        DC8 0, 0
        DC8 4DH, 0, 49H, 0, 53H, 0, 43H, 0
        DC8 45H, 0, 4CH, 0, 4CH, 0, 41H, 0
        DC8 4EH, 0, 45H, 0, 4FH, 0, 55H, 0
        DC8 53H, 0, 5FH, 0, 49H, 0, 43H, 0
        DC8 4EH, 0, 0, 0
        DC8 18H, 4, 3DH, 4, 44H, 4, 3EH, 4
        DC8 0, 0
        DC8 0, 0
        DC8 18H, 4, 3DH, 4, 44H, 4, 3EH, 4
        DC8 40H, 4, 3CH, 4, 30H, 4, 46H, 4
        DC8 38H, 4, 4FH, 4, 0, 0
        DC8 0, 0
        DC8 48H, 0, 45H, 0, 4CH, 0, 50H, 0
        DC8 5FH, 0, 54H, 0, 45H, 0, 58H, 0
        DC8 54H, 0, 5FH, 0, 49H, 0, 43H, 0
        DC8 4EH, 0, 0, 0
        DC8 12H, 4, 4BH, 4, 45H, 4, 3EH, 4
        DC8 34H, 4, 0, 0

        RSEG DATA_C:CONST:SORT:NOROOT(2)
`?<Constant "Game_GuiMenu_Page">`:
        DATA
        DC8 "Game_GuiMenu_Page"
        DC8 0, 0
// Z:\home\perk11\www\perk11.info\svn\SE\Gono4ki\Menu.c
//    1 #include "..\\include\Lib_Clara.h"
//    2 #include "..\\include\Dir.h"
//    3 #include "..\\include\var_arg.h"
//    4 #include "..\\include\cfg_items.h"
//    5 #include "StructBook.h"

        RSEG DATA_C:CONST:SORT:NOROOT(2)
`?<Constant L"\\x43\\x41\\x4c\\x4c\\x53\\x5f\\x49\\x4e\\`:
        DATA
        DC8 43H, 0, 41H, 0, 4CH, 0, 4CH, 0
        DC8 53H, 0, 5FH, 0, 49H, 0, 4EH, 0
        DC8 43H, 0, 4FH, 0, 4DH, 0, 49H, 0
        DC8 4EH, 0, 47H, 0, 5FH, 0, 49H, 0
        DC8 43H, 0, 4EH, 0, 0, 0
        DC8 0, 0
        DC8 44H, 0, 42H, 0, 5FH, 0, 4CH, 0
        DC8 49H, 0, 53H, 0, 54H, 0, 5FH, 0
        DC8 50H, 0, 49H, 0, 43H, 0, 54H, 0
        DC8 55H, 0, 52H, 0, 45H, 0, 5FH, 0
        DC8 49H, 0, 43H, 0, 4EH, 0, 0, 0
        DC8 1AH, 4, 30H, 4, 40H, 4, 42H, 4
        DC8 38H, 4, 3DH, 4, 3AH, 4, 38H, 4
        DC8 3AH, 0, 0, 0
        DC8 21H, 4, 32H, 4, 3EH, 4, 38H, 4
        DC8 0, 0
        DC8 0, 0
        DC8 18H, 4, 37H, 4, 20H, 0, 4DH, 4
        DC8 3BH, 4, 4CH, 4, 44H, 4, 30H, 4
        DC8 0, 0
        DC8 0, 0
        DC8 43H, 0, 41H, 0, 4CH, 0, 4CH, 0
        DC8 53H, 0, 5FH, 0, 4FH, 0, 55H, 0
        DC8 54H, 0, 47H, 0, 4FH, 0, 49H, 0
        DC8 4EH, 0, 47H, 0, 5FH, 0, 49H, 0
        DC8 43H, 0, 4EH, 0, 0, 0
        DC8 0, 0
        DC8 1AH, 4, 30H, 4, 40H, 4, 42H, 4
        DC8 38H, 4, 3DH, 4, 3AH, 4, 38H, 4
        DC8 0, 0
        DC8 0, 0
        DC8 18H, 4, 37H, 4, 3CH, 4, 35H, 4
        DC8 3DH, 4, 38H, 4, 42H, 4, 4CH, 4
        DC8 0, 0
        DC8 0, 0
        DC8 44H, 0, 42H, 0, 5FH, 0, 4CH, 0
        DC8 49H, 0, 53H, 0, 54H, 0, 5FH, 0
        DC8 53H, 0, 4FH, 0, 55H, 0, 4EH, 0
        DC8 44H, 0, 5FH, 0, 49H, 0, 4DH, 0
        DC8 45H, 0, 4CH, 0, 4FH, 0, 44H, 0
        DC8 59H, 0, 5FH, 0, 49H, 0, 43H, 0
        DC8 4EH, 0, 0, 0
        DC8 17H, 4, 32H, 4, 43H, 4, 3AH, 4
        DC8 0, 0
        DC8 0, 0
        DC8 44H, 0, 42H, 0, 5FH, 0, 4CH, 0
        DC8 49H, 0, 53H, 0, 54H, 0, 5FH, 0
        DC8 53H, 0, 4FH, 0, 55H, 0, 4EH, 0
        DC8 44H, 0, 5FH, 0, 45H, 0, 4DH, 0
        DC8 45H, 0, 4CH, 0, 4FH, 0, 44H, 0
        DC8 59H, 0, 5FH, 0, 49H, 0, 43H, 0
        DC8 4EH, 0, 0, 0
        DC8 1CH, 4, 43H, 4, 37H, 4, 4BH, 4
        DC8 3AH, 4, 30H, 4, 0, 0
        DC8 0, 0
        DC8 45H, 0, 4EH, 0, 54H, 0, 45H, 0
        DC8 52H, 0, 54H, 0, 41H, 0, 49H, 0
        DC8 4EH, 0, 4DH, 0, 45H, 0, 4EH, 0
        DC8 54H, 0, 5FH, 0, 4DH, 0, 45H, 0
        DC8 4EH, 0, 55H, 0, 5FH, 0, 4DH, 0
        DC8 49H, 0, 44H, 0, 49H, 0, 5FH, 0
        DC8 43H, 0, 4FH, 0, 4DH, 0, 50H, 0
        DC8 5FH, 0, 49H, 0, 43H, 0, 4EH, 0
        DC8 0, 0
        DC8 0, 0
        DC8 45H, 0, 4EH, 0, 54H, 0, 45H, 0
        DC8 52H, 0, 54H, 0, 41H, 0, 49H, 0
        DC8 4EH, 0, 4DH, 0, 45H, 0, 4EH, 0
        DC8 54H, 0, 5FH, 0, 4DH, 0, 45H, 0
        DC8 4EH, 0, 55H, 0, 5FH, 0, 50H, 0
        DC8 49H, 0, 43H, 0, 54H, 0, 55H, 0
        DC8 52H, 0, 45H, 0, 45H, 0, 44H, 0
        DC8 49H, 0, 54H, 0, 4FH, 0, 52H, 0
        DC8 5FH, 0, 49H, 0, 43H, 0, 4EH, 0
        DC8 0, 0
        DC8 0, 0
        DC8 "Gono4ki"

        RSEG DATA_C:CONST:SORT:NOROOT(2)
`?<Constant L"\\x418\\x437\\x43c\\x435\\x43d\\x438\\x4_1`:
        DATA
        DC8 18H, 4, 37H, 4, 3CH, 4, 35H, 4
        DC8 3DH, 4, 38H, 4, 42H, 4, 4CH, 4
        DC8 20H, 0, 38H, 4, 3CH, 4, 4FH, 4
        DC8 3AH, 0, 0, 0

        RSEG DATA_C:CONST:SORT:NOROOT(2)
`?<Constant L"\\x47\\x6f\\x6e\\x6f\\x34\\x6b\\x69">`:
        DATA
        DC8 47H, 0, 6FH, 0, 6EH, 0, 6FH, 0
        DC8 34H, 0, 6BH, 0, 69H, 0, 0, 0

        RSEG DATA_C:CONST:SORT:NOROOT(2)
`?<Constant L"\\x418\\x437\\x43c\\x435\\x43d\\x438\\x4_2`:
        DATA
        DC8 18H, 4, 37H, 4, 3CH, 4, 35H, 4
        DC8 3DH, 4, 38H, 4, 42H, 4, 4CH, 4
        DC8 3AH, 0, 0, 0

        RSEG DATA_C:CONST:SORT:NOROOT(2)
        DATA
        DC8 20H, 0, 0, 0

        RSEG DATA_C:CONST:SORT:NOROOT(2)
`?<Constant L"\\x41b\\x435\\x433\\x43a\\x43e">`:
        DATA
        DC8 1BH, 4, 35H, 4, 33H, 4, 3AH, 4
        DC8 3EH, 4, 0, 0
        DC8 57H, 0, 56H, 0, 5FH, 0, 42H, 0
        DC8 55H, 0, 44H, 0, 44H, 0, 59H, 0
        DC8 4CH, 0, 49H, 0, 53H, 0, 54H, 0
        DC8 5FH, 0, 43H, 0, 4FH, 0, 4EH, 0
        DC8 54H, 0, 41H, 0, 43H, 0, 54H, 0
        DC8 5FH, 0, 41H, 0, 56H, 0, 41H, 0
        DC8 49H, 0, 4CH, 0, 41H, 0, 42H, 0
        DC8 4CH, 0, 45H, 0, 5FH, 0, 41H, 0
        DC8 53H, 0, 48H, 0, 41H, 0, 4DH, 0
        DC8 45H, 0, 44H, 0, 5FH, 0, 49H, 0
        DC8 43H, 0, 4EH, 0, 0, 0
        DC8 0, 0
        DC8 21H, 4, 40H, 4, 35H, 4, 34H, 4
        DC8 3DH, 4, 35H, 4, 0, 0
        DC8 0, 0
        DC8 57H, 0, 56H, 0, 5FH, 0, 42H, 0
        DC8 55H, 0, 44H, 0, 44H, 0, 59H, 0
        DC8 4CH, 0, 49H, 0, 53H, 0, 54H, 0
        DC8 5FH, 0, 43H, 0, 4FH, 0, 4EH, 0
        DC8 54H, 0, 41H, 0, 43H, 0, 54H, 0
        DC8 5FH, 0, 41H, 0, 56H, 0, 41H, 0
        DC8 49H, 0, 4CH, 0, 41H, 0, 42H, 0
        DC8 4CH, 0, 45H, 0, 5FH, 0, 41H, 0
        DC8 4EH, 0, 58H, 0, 49H, 0, 4FH, 0
        DC8 55H, 0, 53H, 0, 5FH, 0, 49H, 0
        DC8 43H, 0, 4EH, 0, 0, 0
        DC8 0, 0
        DC8 22H, 4, 4FH, 4, 36H, 4, 35H, 4
        DC8 3BH, 4, 3EH, 4, 0, 0
        DC8 0, 0
        DC8 57H, 0, 56H, 0, 5FH, 0, 42H, 0
        DC8 55H, 0, 44H, 0, 44H, 0, 59H, 0
        DC8 4CH, 0, 49H, 0, 53H, 0, 54H, 0
        DC8 5FH, 0, 43H, 0, 4FH, 0, 4EH, 0
        DC8 54H, 0, 41H, 0, 43H, 0, 54H, 0
        DC8 5FH, 0, 41H, 0, 56H, 0, 41H, 0
        DC8 49H, 0, 4CH, 0, 41H, 0, 42H, 0
        DC8 4CH, 0, 45H, 0, 5FH, 0, 41H, 0
        DC8 4EH, 0, 47H, 0, 52H, 0, 59H, 0
        DC8 5FH, 0, 49H, 0, 43H, 0, 4EH, 0
        DC8 0, 0
        DC8 0, 0

        RSEG DATA_C:CONST:SORT:NOROOT(2)
`?<Constant L"\\x412\\x44b\\x439\\x442\\x438\\x3f">`:
        DATA
        DC8 12H, 4, 4BH, 4, 39H, 4, 42H, 4
        DC8 38H, 4, 3FH, 0, 0, 0
        DC8 0, 0

        RSEG DATA_C:CONST:SORT:NOROOT(2)
`?<Constant L"\\x412\\x44b\\x431\\x43e\\x440\\x20\\x44`:
        DATA
        DC8 12H, 4, 4BH, 4, 31H, 4, 3EH, 4
        DC8 40H, 4, 20H, 0, 43H, 4, 40H, 4
        DC8 3EH, 4, 32H, 4, 3DH, 4, 4FH, 4
        DC8 0, 0
        DC8 0, 0
//    6 #include "Menu.h"
//    7 #include "MyFUNC.h"
//    8 #include "Game.h"
//    9 #include "ErrorIAR.h"
//   10 #include "Rec_Check.h"
//   11 
//   12 

        RSEG DYN_PAGE:CONST:SORT:NOROOT(2)
//   13 const PAGE_MSG bk_msglst_gm[] @ "DYN_PAGE"  = 
bk_msglst_gm:
        DATA
        DC32 66, ??CreateGame, 64, 0H
//   14 {
//   15   PAGE_ENTER_EVENT_TAG,    CreateGame,
//   16   NIL_EVENT_TAG,           NULL
//   17 };
//   18 

        RSEG DATA_C:CONST:SORT:NOROOT(2)
//   19 const PAGE_DESC bk_game = {"Game_GuiMenu_Page",0,bk_msglst_gm};
bk_game:
        DATA
        DC32 `?<Constant "Game_GuiMenu_Page">`, 0H, bk_msglst_gm

        RSEG CODE:CODE:NOROOT(2)
        CFI Block cfiBlock0 Using cfiCommon0
        CFI NoFunction
        THUMB
??ShowResults??rT:
        BX       PC
        Nop      
        CFI EndBlock cfiBlock0
        REQUIRE ??ShowResults
//   20 

        RSEG CODE:CODE:NOROOT(2)
        CFI Block cfiBlock1 Using cfiCommon1
        CFI Function ??ShowResults
        ARM
//   21 void ShowResults(TABL*t)
//   22 {
??ShowResults:
        PUSH     {R4-R9,LR}
        CFI ?RET Frame(CFA, -4)
        CFI R9 Frame(CFA, -8)
        CFI R8 Frame(CFA, -12)
        CFI R7 Frame(CFA, -16)
        CFI R6 Frame(CFA, -20)
        CFI R5 Frame(CFA, -24)
        CFI R4 Frame(CFA, -28)
        CFI CFA R13+28
//   23   int text[60];
//   24   int i, j;
//   25   j=0;
//   26   for(i=0; i<10; i++)
        LDR      R7,??DataTable0  ;; `?<Constant L"\\x412\\x44b\\x439\\x442\\x438\\x20\\x43`
        SUB      SP,SP,#+240
        CFI CFA R13+268
        MOV      R4,R0
        MOV      R9,#+0
        MOV      R5,#+0
        MOV      R8,#+255
        ORR      R8,R8,#0xFF00
//   27   {
//   28     text[j]=TextID_CreateIntegerID(i+1);
??ShowResults_1:
        ADD      R6,R5,#+1
        MOV      R0,R6
        SWI      +348
        MOV      R1,SP
        STR      R0,[R1, +R9, LSL #+2]
//   29     j++;
        ADD      R9,R9,#+1
//   30     text[j]=STR(". ");
        MOV      R2,R8
        MOV      R1,#+0
        ADD      R0,R7,#+72
        SWI      +349
        MOV      R1,SP
        STR      R0,[R1, +R9, LSL #+2]
//   31     j++;
        ADD      R9,R9,#+1
//   32     text[j]=TextID_Create(t->name[i], ENC_UCS2, TEXTID_ANY_LEN);
        MOV      R2,R8
        MOV      R1,#+0
        ADD      R0,R4,R5, LSL #+4
        SWI      +349
        MOV      R1,SP
        STR      R0,[R1, +R9, LSL #+2]
//   33     j++;
        ADD      R9,R9,#+1
//   34     text[j]=STR(" - ");
        MOV      R2,R8
        MOV      R1,#+0
        ADD      R0,R7,#+80
        SWI      +349
        MOV      R1,SP
        STR      R0,[R1, +R9, LSL #+2]
//   35     j++;
//   36     text[j]=TextID_CreateIntegerID(t->rezultat[i]);
        ADD      R0,R4,R5, LSL #+2
        LDR      R0,[R0, #+160]
        ADD      R9,R9,#+1
        SWI      +348
        MOV      R1,SP
        STR      R0,[R1, +R9, LSL #+2]
//   37     j++;
        ADD      R5,R9,#+1
//   38     text[j]=STR("\n");
        MOV      R2,R8
        MOV      R1,#+0
        ADR      R0,??ShowResults_2  ;; 0x0A, 0x00, 0x00, 0x00
        SWI      +349
        MOV      R1,SP
        STR      R0,[R1, +R5, LSL #+2]
//   39     j++;
        ADD      R9,R5,#+1
//   40   }
        MOV      R5,R6
        CMP      R5,#+10
        BLT      ??ShowResults_1
//   41   int ID=TextID_Create(text, ENC_TEXTID, 60);
        MOV      R2,#+60
        MOV      R1,#+5
        MOV      R0,SP
        SWI      +349
        MOV      R4,R0
//   42   MessageBox(STR("Результаты"), ID, NOIMAGE, 2, 0, 0);
        MOV      R2,R8
        MOV      R1,#+0
        ADD      R0,R7,#+88
        SWI      +349
        MOV      R1,#+0
        PUSH     {R1}
        CFI CFA R13+272
        PUSH     {R1}
        CFI CFA R13+276
        MOV      R3,#+2
        MOV      R2,R8
        MOV      R1,R4
        SWI      +599
//   43 }
        ADD      SP,SP,#+248
        CFI CFA R13+28
        POP      {R4-R9,PC}       ;; return
        DATA
??ShowResults_2:
        DC8      0x0A, 0x00, 0x00, 0x00
        CFI EndBlock cfiBlock1

        RSEG CODE:CODE:NOROOT(2)
        DATA
??DataTable0:
        DC32     `?<Constant L"\\x412\\x44b\\x439\\x442\\x438\\x20\\x43`

        RSEG CODE:CODE:NOROOT(2)
        CFI Block cfiBlock2 Using cfiCommon0
        CFI NoFunction
        THUMB
??DestroyInputI??rT:
        BX       PC
        Nop      
        CFI EndBlock cfiBlock2
        REQUIRE ??DestroyInputI
//   44 

        RSEG CODE:CODE:NOROOT(2)
        CFI Block cfiBlock3 Using cfiCommon1
        CFI Function ??DestroyInputI
        ARM
//   45 void DestroyInputI()
//   46 {
??DestroyInputI:
        PUSH     {LR}
        CFI ?RET Frame(CFA, -4)
        CFI CFA R13+4
//   47   GUIObject_Destroy(MyBK()->gui1);
        _BLF     ??MyBK,??MyBK??rA
        LDR      R0,[R0, #+392]
        SWI      +462
//   48   MyBK()->gui1=0;
        _BLF     ??MyBK,??MyBK??rA
        MOV      R1,#+0
        STR      R1,[R0, #+392]
//   49   GUIObject_Show(MyBK()->gui);
        _BLF     ??MyBK,??MyBK??rA
        LDR      R0,[R0, #+396]
        SWI      +308
//   50 }
        POP      {PC}             ;; return
        CFI EndBlock cfiBlock3

        RSEG CODE:CODE:NOROOT(2)
        CFI Block cfiBlock4 Using cfiCommon0
        CFI NoFunction
        THUMB
??OnEntInputI??rT:
        BX       PC
        Nop      
        CFI EndBlock cfiBlock4
        REQUIRE ??OnEntInputI
//   51 
//   52 

        RSEG CODE:CODE:NOROOT(2)
        CFI Block cfiBlock5 Using cfiCommon1
        CFI Function ??OnEntInputI
        ARM
//   53 void OnEntInputI(BOOK * bk,wchar_t * string,int len)
//   54 {
??OnEntInputI:
        PUSH     {R4,R5,LR}
        CFI ?RET Frame(CFA, -4)
        CFI R5 Frame(CFA, -8)
        CFI R4 Frame(CFA, -12)
        CFI CFA R13+12
        MOV      R4,R0
//   55   wstrcpy(((MyBook*)bk)->nast->im->names[ListMenu_GetSelectedItem(((MyBook*)bk)->gui)], string);
        LDR      R0,[R4, #+396]
        MOV      R5,R1
        SWI      +318
        LDR      R2,[R4, #+820]
        MOV      R1,R5
        LDR      R2,[R2, #+4]
        ADD      R0,R2,R0, LSL #+8
        SWI      +338
//   56   GUIObject_Destroy(((MyBook*)bk)->gui1);
        LDR      R0,[R4, #+392]
        SWI      +462
//   57   ((MyBook*)bk)->gui1=0;
        MOV      R0,#+0
        STR      R0,[R4, #+392]
//   58   ImagesDel(bk);
        MOV      R0,R4
        _BLF     ??ImagesDel,??ImagesDel??rA
//   59   CheckResurs(MyBK());
        _BLF     ??MyBK,??MyBK??rA
        _BLF     ??CheckResurs,??CheckResurs??rA
//   60   GUIObject_Show(((MyBook*)bk)->gui);
        LDR      R0,[R4, #+396]
        SWI      +308
//   61 }
        POP      {R4,R5,PC}       ;; return
        CFI EndBlock cfiBlock5

        RSEG CODE:CODE:NOROOT(2)
        CFI Block cfiBlock6 Using cfiCommon0
        CFI NoFunction
        THUMB
??CreateInputI??rT:
        BX       PC
        Nop      
        CFI EndBlock cfiBlock6
        REQUIRE ??CreateInputI
//   62 

        RSEG CODE:CODE:NOROOT(2)
        CFI Block cfiBlock7 Using cfiCommon1
        CFI Function ??CreateInputI
        ARM
//   63 void CreateInputI(int x, IMGN*i, MyBook*bk)
//   64 {
??CreateInputI:
        PUSH     {R4-R7,LR}
        CFI ?RET Frame(CFA, -4)
        CFI R7 Frame(CFA, -8)
        CFI R6 Frame(CFA, -12)
        CFI R5 Frame(CFA, -16)
        CFI R4 Frame(CFA, -20)
        CFI CFA R13+20
        MOV      R5,R0
        MOV      R4,R2
//   65   if(bk->gui1) GUIObject_Destroy(bk->gui1);
        LDR      R0,[R4, #+392]
        MOV      R6,R1
        CMP      R0,#+0
        BEQ      ??CreateInputI_1
        SWI      +462
//   66   bk->gui1=0;
        MOV      R0,#+0
??CreateInputI_1:
        STR      R0,[R4, #+392]
//   67   bk->gui1=CreateStringInputVA(0,
//   68                                        VAR_PREV_ACTION_PROC(DestroyInputI),
//   69                                        VAR_LONG_BACK_PROC(DestroyInputI),
//   70                                        VAR_BOOK((BOOK*)bk),
//   71                                        VAR_STRINP_FIXED_TEXT(TextID_Create(L"Изменить имя:",ENC_UCS2, TEXTID_ANY_LEN)),
//   72                                        VAR_STRINP_TEXT(TextID_Create(i->names[x], ENC_UCS2, TEXTID_ANY_LEN)),
//   73                                        VAR_STRINP_MAX_LEN(127),
//   74                                        VAR_STRINP_MIN_LEN(0),
//   75                                        VAR_OK_PROC(OnEntInputI),
//   76                                        0); 
        MOV      R7,#+255
        ORR      R7,R7,#0xFF00
        MOV      R2,R7
        MOV      R1,#+0
        ADD      R0,R6,R5, LSL #+8
        SWI      +349
        MOV      R5,R0
        LDR      R0,??CreateInputI_2  ;; `?<Constant L"\\x418\\x437\\x43c\\x435\\x43d\\x438\\x4_1`
        MOV      R2,R7
        MOV      R1,#+0
        SWI      +349
        LDR      R2,??CreateInputI_2+0x4  ;; ??DestroyInputI
        LDR      R3,??DataTable14  ;; VAR_ARG_CALL_BACK_LONG_BACK
        MOV      R1,#+0
        PUSH     {R1}
        CFI CFA R13+24
        LDR      R1,??CreateInputI_2+0x8  ;; ??OnEntInputI
        PUSH     {R1}
        CFI CFA R13+28
        LDR      R1,??DataTable15  ;; VAR_ARG_CALL_BACK_OK
        PUSH     {R1}
        CFI CFA R13+32
        MOV      R1,#+0
        PUSH     {R1}
        CFI CFA R13+36
        LDR      R1,??DataTable16  ;; VAR_ARG_STRINP_MIN_LEN
        PUSH     {R1}
        CFI CFA R13+40
        MOV      R1,#+127
        PUSH     {R1}
        CFI CFA R13+44
        LDR      R1,??DataTable17  ;; VAR_ARG_STRINP_MAX_LEN
        PUSH     {R1}
        CFI CFA R13+48
        LDR      R1,??DataTable18  ;; VAR_ARG_STRINP_TEXT
        PUSH     {R5}
        CFI CFA R13+52
        PUSH     {R1}
        CFI CFA R13+56
        LDR      R1,??DataTable19  ;; VAR_ARG_CALL_BACK_PREV_ACT
        PUSH     {R0}
        CFI CFA R13+60
        LDR      R0,??DataTable20  ;; VAR_ARG_STRINP_FIXED_TEXT
        PUSH     {R0}
        CFI CFA R13+64
        MOV      R0,R4
        PUSH     {R0}
        CFI CFA R13+68
        LDR      R0,??DataTable21  ;; VAR_ARG_BOOK
        PUSH     {R0}
        CFI CFA R13+72
        MOV      R0,R2
        PUSH     {R0}
        CFI CFA R13+76
        MOV      R0,#+0
        SWI      +324
        ADD      SP,SP,#+56
        CFI CFA R13+20
        STR      R0,[R4, #+392]
//   77 }
        POP      {R4-R7,PC}       ;; return
        DATA
??CreateInputI_2:
        DC32     `?<Constant L"\\x418\\x437\\x43c\\x435\\x43d\\x438\\x4_1`
        DC32     ??DestroyInputI
        DC32     ??OnEntInputI
        CFI EndBlock cfiBlock7

        RSEG CODE:CODE:NOROOT(2)
        CFI Block cfiBlock8 Using cfiCommon0
        CFI NoFunction
        THUMB
??OnEntINM??rT:
        BX       PC
        Nop      
        CFI EndBlock cfiBlock8
        REQUIRE ??OnEntINM
//   78 

        RSEG CODE:CODE:NOROOT(2)
        CFI Block cfiBlock9 Using cfiCommon1
        CFI Function ??OnEntINM
        ARM
//   79 void OnEntINM( BOOK* bk, GUI* )
//   80 {
??OnEntINM:
        PUSH     {R4,R5,LR}
        CFI ?RET Frame(CFA, -4)
        CFI R5 Frame(CFA, -8)
        CFI R4 Frame(CFA, -12)
        CFI CFA R13+12
        MOV      R4,R0
//   81   int item=ListMenu_GetSelectedItem(((MyBook*)bk)->gui);
        LDR      R0,[R4, #+396]
        SWI      +318
//   82   if(item<3)
        CMP      R0,#+3
        BGE      ??OnEntINM_1
//   83   {
//   84     CreateInputI(item, ((MyBook*)bk)->nast->im, (MyBook*)bk);
        LDR      R1,[R4, #+820]
        MOV      R2,R4
        LDR      R1,[R1, #+4]
        BL       ??CreateInputI
        POP      {R4,R5,PC}
//   85   }
//   86   else
//   87   {
//   88     if(MyBK()->nast->im->on) MyBK()->nast->im->on=0;
??OnEntINM_1:
        _BLF     ??MyBK,??MyBK??rA
        LDR      R0,[R0, #+820]
        MOV      R5,#+0
        LDR      R0,[R0, #+4]
        LDR      R0,[R0, #+768]
        CMP      R0,#+0
        BEQ      ??OnEntINM_2
        _BLF     ??MyBK,??MyBK??rA
        LDR      R0,[R0, #+820]
        LDR      R0,[R0, #+4]
        STR      R5,[R0, #+768]
        B        ??OnEntINM_3
//   89     else MyBK()->nast->im->on=1;
??OnEntINM_2:
        _BLF     ??MyBK,??MyBK??rA
        LDR      R0,[R0, #+820]
        MOV      R1,#+1
        LDR      R0,[R0, #+4]
        STR      R1,[R0, #+768]
//   90     GUIObject_Destroy(((MyBook*)bk)->gui);
??OnEntINM_3:
        LDR      R0,[R4, #+396]
        SWI      +462
//   91     ((MyBook*)bk)->gui=0;
        STR      R5,[R4, #+396]
//   92     CreateINM((MyBook*)bk, 3);
        MOV      R1,#+3
        MOV      R0,R4
        BL       ??CreateINM
//   93   }      
//   94 }
        POP      {R4,R5,PC}       ;; return
        CFI EndBlock cfiBlock9

        RSEG CODE:CODE:NOROOT(2)
        CFI Block cfiBlock10 Using cfiCommon0
        CFI NoFunction
        THUMB
??SetTitlePunktsINM??rT:
        BX       PC
        Nop      
        CFI EndBlock cfiBlock10
        REQUIRE ??SetTitlePunktsINM
//   95 

        RSEG CODE:CODE:NOROOT(2)
        CFI Block cfiBlock11 Using cfiCommon1
        CFI Function ??SetTitlePunktsINM
        ARM
//   96 int SetTitlePunktsINM(GUI_MESSAGE * msg)
//   97 {
??SetTitlePunktsINM:
        PUSH     {R4-R8,LR}
        CFI ?RET Frame(CFA, -4)
        CFI R8 Frame(CFA, -8)
        CFI R7 Frame(CFA, -12)
        CFI R6 Frame(CFA, -16)
        CFI R5 Frame(CFA, -20)
        CFI R4 Frame(CFA, -24)
        CFI CFA R13+24
        SUB      SP,SP,#+4
        CFI CFA R13+28
        MOV      R4,R0
//   98   int item, ID;
//   99   switch( GUIonMessage_GetMsg(msg) )
        SWI      +884
        CMP      R0,#+1
        BNE      ??SetTitlePunktsINM_1
//  100   {
//  101   case 1:
//  102     item=GUIonMessage_GetCreatedItemIndex(msg);
//  103     for(int i=0; i<3; i++)
        LDR      R5,??DataTable28  ;; `?<Constant L"\\x43\\x41\\x4c\\x4c\\x53\\x5f\\x49\\x4e\\`
        MOV      R0,R4
        SWI      +311
        MOV      R7,R0
        MOV      R8,#+0
        MOV      R6,#+255
        ORR      R6,R6,#0xFF00
//  104     {
//  105       if(item==i)
??SetTitlePunktsINM_2:
        CMP      R7,R8
        BNE      ??SetTitlePunktsINM_3
//  106       {
//  107         GUIonMessage_SetMenuItemText(msg,TextID_Create(GetNamesOfIMN(i, 0),ENC_UCS2,TEXTID_ANY_LEN));
        MOV      R1,#+0
        MOV      R0,R8
        _BLF     ??GetNamesOfIMN,??GetNamesOfIMN??rA
        MOV      R2,R6
        MOV      R1,#+0
        SWI      +349
        MOV      R1,R0
        MOV      R0,R4
        SWI      +312
//  108         GUIonMessage_SetMenuItemSecondLineText(msg,TextID_Create(((MyBook*)isBookX(NameMyElf, 0))->nast->im->names[i],ENC_UCS2,TEXTID_ANY_LEN));
        MOV      R1,#+0
        ADD      R0,R5,#+488
        _BLF     ??isBookX,??isBookX??rA
        LDR      R0,[R0, #+820]
        MOV      R2,R6
        LDR      R0,[R0, #+4]
        MOV      R1,#+0
        ADD      R0,R0,R8, LSL #+8
        SWI      +349
        MOV      R1,R0
        MOV      R0,R4
        SWI      +313
//  109         iconidname2id(L"DB_LIST_PICTURE_ICN", -1, &ID);
        MOV      R2,SP
        MVN      R1,#+0
        ADD      R0,R5,#+40
        SWI      +646
//  110         GUIonMessage_SetMenuItemIcon(msg, 0, ID);
        LDR      R2,[SP, #+0]
        MOV      R1,#+0
        MOV      R2,R2, LSL #+16
        MOV      R2,R2, LSR #+16
        MOV      R0,R4
        SWI      +316
//  111       }
//  112     }
??SetTitlePunktsINM_3:
        ADD      R8,R8,#+1
        CMP      R8,#+3
        BLT      ??SetTitlePunktsINM_2
//  113     if(item==3)
        CMP      R7,#+3
        BNE      ??SetTitlePunktsINM_1
//  114     {
//  115       GUIonMessage_SetMenuItemText(msg,TextID_Create(L"Картинки:",ENC_UCS2,TEXTID_ANY_LEN));
        MOV      R2,R6
        MOV      R1,#+0
        ADD      R0,R5,#+80
        SWI      +349
        MOV      R1,R0
        MOV      R0,R4
        SWI      +312
//  116       if(MyBK()->nast->im->on)
        _BLF     ??MyBK,??MyBK??rA
        LDR      R0,[R0, #+820]
        MOV      R2,R6
        LDR      R0,[R0, #+4]
        MOV      R1,#+0
        LDR      R0,[R0, #+768]
        CMP      R0,#+0
        BEQ      ??SetTitlePunktsINM_4
//  117       {
//  118         GUIonMessage_SetMenuItemSecondLineText(msg,TextID_Create(L"Свои",ENC_UCS2,TEXTID_ANY_LEN));
        ADD      R0,R5,#+100
        SWI      +349
        MOV      R1,R0
        MOV      R0,R4
        SWI      +313
//  119         iconidname2id(L"CALLS_INCOMING_ICN", -1, &ID);
        MOV      R2,SP
        MVN      R1,#+0
        MOV      R0,R5
        B        ??SetTitlePunktsINM_5
//  120         GUIonMessage_SetMenuItemIcon(msg, 0, ID);
//  121       }
//  122       else
//  123       {
//  124         GUIonMessage_SetMenuItemSecondLineText(msg,TextID_Create(L"Из эльфа",ENC_UCS2,TEXTID_ANY_LEN));
??SetTitlePunktsINM_4:
        ADD      R0,R5,#+112
        SWI      +349
        MOV      R1,R0
        MOV      R0,R4
        SWI      +313
//  125         iconidname2id(L"CALLS_OUTGOING_ICN", -1, &ID);
        MOV      R2,SP
        MVN      R1,#+0
        ADD      R0,R5,#+132
??SetTitlePunktsINM_5:
        SWI      +646
//  126         GUIonMessage_SetMenuItemIcon(msg, 0, ID);
        LDR      R2,[SP, #+0]
        MOV      R1,#+0
        MOV      R2,R2, LSL #+16
        MOV      R2,R2, LSR #+16
        MOV      R0,R4
        SWI      +316
//  127       }
//  128     }
//  129   }
//  130   return 0;
??SetTitlePunktsINM_1:
        MOV      R0,#+0
        POP      {R1,R4-R8,PC}    ;; return
        CFI EndBlock cfiBlock11
//  131 }

        RSEG CODE:CODE:NOROOT(2)
        CFI Block cfiBlock12 Using cfiCommon0
        CFI NoFunction
        THUMB
??ExitINM??rT:
        BX       PC
        Nop      
        CFI EndBlock cfiBlock12
        REQUIRE ??ExitINM
//  132 

        RSEG CODE:CODE:NOROOT(2)
        CFI Block cfiBlock13 Using cfiCommon1
        CFI Function ??ExitINM
        ARM
//  133 void ExitINM( BOOK* bk, GUI* )
//  134 {
??ExitINM:
        PUSH     {R4,LR}
        CFI ?RET Frame(CFA, -4)
        CFI R4 Frame(CFA, -8)
        CFI CFA R13+8
        MOV      R4,R0
//  135   GUIObject_Destroy(((MyBook*)bk)->gui);
        LDR      R0,[R4, #+396]
        SWI      +462
//  136   ((MyBook*)bk)->gui=0;
        MOV      R0,#+0
        STR      R0,[R4, #+396]
//  137   CreateNM((MyBook*)bk);
        MOV      R0,R4
        POP      {R4,LR}          ;; Pop
        CFI R4 SameValue
        CFI ?RET R14
        CFI CFA R13+0
        B        ??CreateNM       ;; tailcall
        CFI EndBlock cfiBlock13
//  138 }

        RSEG CODE:CODE:NOROOT(2)
        CFI Block cfiBlock14 Using cfiCommon0
        CFI NoFunction
        THUMB
??CreateINM??rT:
        BX       PC
        Nop      
        CFI EndBlock cfiBlock14
        REQUIRE ??CreateINM
//  139 

        RSEG CODE:CODE:NOROOT(2)
        CFI Block cfiBlock15 Using cfiCommon1
        CFI Function ??CreateINM
        ARM
//  140 void CreateINM(MyBook*bk, int x)
//  141 {
??CreateINM:
        PUSH     {R4-R7,LR}
        CFI ?RET Frame(CFA, -4)
        CFI R7 Frame(CFA, -8)
        CFI R6 Frame(CFA, -12)
        CFI R5 Frame(CFA, -16)
        CFI R4 Frame(CFA, -20)
        CFI CFA R13+20
        MOV      R5,R0
//  142   if(bk->gui) GUIObject_Destroy(bk->gui);
        LDR      R0,[R5, #+396]
        MOV      R7,R1
        CMP      R0,#+0
        BEQ      ??CreateINM_1
        SWI      +462
//  143   bk->gui=0;
        MOV      R0,#+0
??CreateINM_1:
        STR      R0,[R5, #+396]
//  144   GUI_LIST*INM=CreateListMenu((BOOK*)bk,0);
        MOV      R1,#+0
        MOV      R0,R5
        SWI      +448
        MOV      R4,R0
//  145   ((MyBook*)bk)->gui=INM;
        STR      R4,[R5, #+396]
//  146   GUIObject_SetTitleText(INM, TextID_Create(L"Картинки",ENC_UCS2,TEXTID_ANY_LEN));
        LDR      R5,??DataTable28  ;; `?<Constant L"\\x43\\x41\\x4c\\x4c\\x53\\x5f\\x49\\x4e\\`
        MOV      R6,#+255
        ORR      R6,R6,#0xFF00
        MOV      R2,R6
        MOV      R1,#+0
        ADD      R0,R5,#+172
        SWI      +349
        MOV      R1,R0
        MOV      R0,R4
        SWI      +307
//  147   ListMenu_SetItemCount(INM, 4);
        MOV      R1,#+4
        MOV      R0,R4
        SWI      +449
//  148   OneOfMany_SetOnMessage(INM,SetTitlePunktsINM);
        LDR      R1,??CreateINM_2  ;; ??SetTitlePunktsINM
        MOV      R0,R4
        SWI      +481
//  149   ListMenu_SetCursorToItem(INM,x);
        MOV      R1,R7
//  150   ListMenu_SetItemStyle(INM,3);
//  151   GUIObject_SoftKeys_SetAction(INM,ACTION_BACK,ExitINM);
        LDR      R7,??CreateINM_2+0x4  ;; ??ExitINM
        MOV      R0,R4
        SWI      +309
        MOV      R1,#+3
        MOV      R0,R4
        SWI      +319
        LDR      R0,??DataTable40  ;; ACTION_BACK
        MOV      R2,R7
        LDR      R1,[R0, #+0]
        MOV      R0,R4
        MOV      R1,R1, LSL #+16
        MOV      R1,R1, LSR #+16
        SWI      +331
//  152   GUIObject_SoftKeys_SetAction(INM,ACTION_LONG_BACK,ExitINM);
        LDR      R0,??DataTable41  ;; ACTION_LONG_BACK
        MOV      R2,R7
        LDR      R1,[R0, #+0]
        MOV      R0,R4
        MOV      R1,R1, LSL #+16
        MOV      R1,R1, LSR #+16
        SWI      +331
//  153   GUIObject_SoftKeys_SetAction(INM,ACTION_SELECT1,OnEntINM);
        LDR      R0,??DataTable38  ;; ACTION_SELECT1
        LDR      R2,??CreateINM_2+0x8  ;; ??OnEntINM
        LDR      R7,[R0, #+0]
        MOV      R0,R4
        MOV      R1,R7, LSL #+16
        MOV      R1,R1, LSR #+16
        SWI      +331
//  154   GUIObject_SoftKeys_SetText(INM,ACTION_SELECT1,STR("Изменить"));
        MOV      R2,R6
        MOV      R1,#+0
        ADD      R0,R5,#+192
        SWI      +349
        MOV      R2,R0
        MOV      R1,R7, LSL #+16
        MOV      R1,R1, LSR #+16
        MOV      R0,R4
        SWI      +332
//  155   GUIObject_Show(INM);
        MOV      R0,R4
        SWI      +308
//  156 }
        POP      {R4-R7,PC}       ;; return
        DATA
??CreateINM_2:
        DC32     ??SetTitlePunktsINM
        DC32     ??ExitINM
        DC32     ??OnEntINM
        CFI EndBlock cfiBlock15

        RSEG CODE:CODE:NOROOT(2)
        CFI Block cfiBlock16 Using cfiCommon0
        CFI NoFunction
        THUMB
??ExitMNM??rT:
        BX       PC
        Nop      
        CFI EndBlock cfiBlock16
        REQUIRE ??ExitMNM
//  157 

        RSEG CODE:CODE:NOROOT(2)
        CFI Block cfiBlock17 Using cfiCommon1
        CFI Function ??ExitMNM
        ARM
//  158 void ExitMNM( BOOK* bk, GUI* )
//  159 {
??ExitMNM:
        PUSH     {R4,LR}
        CFI ?RET Frame(CFA, -4)
        CFI R4 Frame(CFA, -8)
        CFI CFA R13+8
        MOV      R4,R0
//  160   GUIObject_Destroy(((MyBook*)bk)->gui);
        LDR      R0,[R4, #+396]
        SWI      +462
//  161   ((MyBook*)bk)->gui=0;
        MOV      R0,#+0
        STR      R0,[R4, #+396]
//  162   CreateNM((MyBook*)bk);
        MOV      R0,R4
        POP      {R4,LR}          ;; Pop
        CFI R4 SameValue
        CFI ?RET R14
        CFI CFA R13+0
        B        ??CreateNM       ;; tailcall
        CFI EndBlock cfiBlock17
//  163 }

        RSEG CODE:CODE:NOROOT(2)
        CFI Block cfiBlock18 Using cfiCommon0
        CFI NoFunction
        THUMB
??OnMNM1??rT:
        BX       PC
        Nop      
        CFI EndBlock cfiBlock18
        REQUIRE ??OnMNM1
//  164 

        RSEG CODE:CODE:NOROOT(2)
        CFI Block cfiBlock19 Using cfiCommon1
        CFI Function ??OnMNM1
        ARM
//  165 void OnMNM1( BOOK* bk, GUI* )
//  166 {
??OnMNM1:
        PUSH     {R4-R6,LR}
        CFI ?RET Frame(CFA, -4)
        CFI R6 Frame(CFA, -8)
        CFI R5 Frame(CFA, -12)
        CFI R4 Frame(CFA, -16)
        CFI CFA R13+16
        MOV      R4,R0
//  167   int item=ListMenu_GetSelectedItem(((MyBook*)bk)->gui);
        LDR      R0,[R4, #+396]
//  168   for(int i=0; i<6; i++)
        MOV      R6,#+0
        SWI      +318
        MOV      R5,R0
        MOV      R1,#+0
//  169   {
//  170     if(item==i+1)
??OnMNM1_1:
        ADD      R0,R1,#+1
        CMP      R5,R0
        BNE      ??OnMNM1_2
//  171     {
//  172       if(((MyBook*)bk)->nast->sound->status[i]==0) ((MyBook*)bk)->nast->sound->status[i]=1;
        LDR      R2,[R4, #+820]
        LDR      R2,[R2, #+0]
        ADD      R2,R2,R1, LSL #+2
        LDR      R2,[R2, #+3072]
        CMP      R2,#+0
        LDR      R2,[R4, #+820]
        LDR      R2,[R2, #+0]
        ADD      R1,R2,R1, LSL #+2
        MOVEQ    R2,#+1
        STREQ    R2,[R1, #+3072]
//  173       else ((MyBook*)bk)->nast->sound->status[i]=0;
        STRNE    R6,[R1, #+3072]
//  174     }
//  175   }  
??OnMNM1_2:
        MOV      R1,R0
        CMP      R1,#+6
        BLT      ??OnMNM1_1
//  176   GUIObject_Destroy(((MyBook*)bk)->gui);
        LDR      R0,[R4, #+396]
        SWI      +462
//  177   ((MyBook*)bk)->gui=0;
        STR      R6,[R4, #+396]
//  178   CreateMNM(((MyBook*)bk), item);
        MOV      R1,R5
        MOV      R0,R4
        BL       ??CreateMNM
//  179 }
        POP      {R4-R6,PC}       ;; return
        CFI EndBlock cfiBlock19

        RSEG CODE:CODE:NOROOT(2)
        CFI Block cfiBlock20 Using cfiCommon0
        CFI NoFunction
        THUMB
??DestroyInput??rT:
        BX       PC
        Nop      
        CFI EndBlock cfiBlock20
        REQUIRE ??DestroyInput
//  180 
//  181 

        RSEG CODE:CODE:NOROOT(2)
        CFI Block cfiBlock21 Using cfiCommon1
        CFI Function ??DestroyInput
        ARM
//  182 void DestroyInput()
//  183 {
??DestroyInput:
        PUSH     {LR}
        CFI ?RET Frame(CFA, -4)
        CFI CFA R13+4
//  184   GUIObject_Destroy(MyBK()->gui1);
        _BLF     ??MyBK,??MyBK??rA
        LDR      R0,[R0, #+392]
        SWI      +462
//  185   MyBK()->gui1=0;
        _BLF     ??MyBK,??MyBK??rA
        MOV      R1,#+0
        STR      R1,[R0, #+392]
//  186   GUIObject_Show(MyBK()->gui);
        _BLF     ??MyBK,??MyBK??rA
        LDR      R0,[R0, #+396]
        SWI      +308
//  187 }
        POP      {PC}             ;; return
        CFI EndBlock cfiBlock21

        RSEG CODE:CODE:NOROOT(2)
        CFI Block cfiBlock22 Using cfiCommon0
        CFI NoFunction
        THUMB
??OnEntInput??rT:
        BX       PC
        Nop      
        CFI EndBlock cfiBlock22
        REQUIRE ??OnEntInput
//  188 
//  189 

        RSEG CODE:CODE:NOROOT(2)
        CFI Block cfiBlock23 Using cfiCommon1
        CFI Function ??OnEntInput
        ARM
//  190 void OnEntInput(BOOK * bk,wchar_t * string,int len)
//  191 {
??OnEntInput:
        PUSH     {R4,R5,LR}
        CFI ?RET Frame(CFA, -4)
        CFI R5 Frame(CFA, -8)
        CFI R4 Frame(CFA, -12)
        CFI CFA R13+12
        MOV      R4,R0
//  192   int x=ListMenu_GetSelectedItem(((MyBook*)bk)->gui)-1;
        LDR      R0,[R4, #+396]
        MOV      R5,R1
        SWI      +318
//  193   wstrcpy(((MyBook*)bk)->nast->sound->names[x], string);
        LDR      R2,[R4, #+820]
        SUB      R0,R0,#+1
        LDR      R2,[R2, #+0]
        MOV      R1,R5
        ADD      R0,R2,R0, LSL #+9
        SWI      +338
//  194   GUIObject_Destroy(((MyBook*)bk)->gui1);
        LDR      R0,[R4, #+392]
        SWI      +462
//  195   ((MyBook*)bk)->gui1=0;
        MOV      R0,#+0
        STR      R0,[R4, #+392]
//  196   GUIObject_Show(((MyBook*)bk)->gui);
        LDR      R0,[R4, #+396]
        SWI      +308
//  197 }
        POP      {R4,R5,PC}       ;; return
        CFI EndBlock cfiBlock23

        RSEG CODE:CODE:NOROOT(2)
        CFI Block cfiBlock24 Using cfiCommon0
        CFI NoFunction
        THUMB
??CreateInput??rT:
        BX       PC
        Nop      
        CFI EndBlock cfiBlock24
        REQUIRE ??CreateInput
//  198 
//  199 
//  200 
//  201 

        RSEG CODE:CODE:NOROOT(2)
        CFI Block cfiBlock25 Using cfiCommon1
        CFI Function ??CreateInput
        ARM
//  202 void CreateInput(int x, SOUND*s, MyBook*bk)
//  203 {
??CreateInput:
        PUSH     {R4-R7,LR}
        CFI ?RET Frame(CFA, -4)
        CFI R7 Frame(CFA, -8)
        CFI R6 Frame(CFA, -12)
        CFI R5 Frame(CFA, -16)
        CFI R4 Frame(CFA, -20)
        CFI CFA R13+20
        MOV      R5,R0
        MOV      R4,R2
//  204   if(bk->gui1) GUIObject_Destroy(bk->gui1);
        LDR      R0,[R4, #+392]
        MOV      R6,R1
        CMP      R0,#+0
        BEQ      ??CreateInput_1
        SWI      +462
//  205   bk->gui1=0;
        MOV      R0,#+0
??CreateInput_1:
        STR      R0,[R4, #+392]
//  206   bk->gui1=CreateStringInputVA(0,
//  207                                        VAR_PREV_ACTION_PROC(DestroyInput),
//  208                                        VAR_LONG_BACK_PROC(DestroyInput),
//  209                                        VAR_BOOK((BOOK*)bk),
//  210                                        VAR_STRINP_FIXED_TEXT(TextID_Create(L"Изменить:",ENC_UCS2, TEXTID_ANY_LEN)),
//  211                                        VAR_STRINP_TEXT(TextID_Create(s->names[x-1], ENC_UCS2, TEXTID_ANY_LEN)),
//  212                                        VAR_STRINP_MAX_LEN(255),
//  213                                        VAR_STRINP_MIN_LEN(0),
//  214                                        VAR_OK_PROC(OnEntInput),
//  215                                        0); 
        MOV      R7,#+255
        ORR      R7,R7,#0xFF00
        MOV      R2,R7
        MOV      R1,#+0
        MVN      R0,#+255
        BIC      R0,R0,#0x100
        ADD      R3,R6,R5, LSL #+9
        ADD      R0,R0,R3
        SWI      +349
        MOV      R5,R0
        LDR      R0,??CreateInput_2  ;; `?<Constant L"\\x418\\x437\\x43c\\x435\\x43d\\x438\\x4_2`
        MOV      R2,R7
        MOV      R1,#+0
        SWI      +349
        LDR      R2,??CreateInput_2+0x4  ;; ??DestroyInput
        LDR      R3,??DataTable14  ;; VAR_ARG_CALL_BACK_LONG_BACK
        MOV      R1,#+0
        PUSH     {R1}
        CFI CFA R13+24
        LDR      R1,??CreateInput_2+0x8  ;; ??OnEntInput
        PUSH     {R1}
        CFI CFA R13+28
        LDR      R1,??DataTable15  ;; VAR_ARG_CALL_BACK_OK
        PUSH     {R1}
        CFI CFA R13+32
        MOV      R1,#+0
        PUSH     {R1}
        CFI CFA R13+36
        LDR      R1,??DataTable16  ;; VAR_ARG_STRINP_MIN_LEN
        PUSH     {R1}
        CFI CFA R13+40
        MOV      R1,#+255
        PUSH     {R1}
        CFI CFA R13+44
        LDR      R1,??DataTable17  ;; VAR_ARG_STRINP_MAX_LEN
        PUSH     {R1}
        CFI CFA R13+48
        LDR      R1,??DataTable18  ;; VAR_ARG_STRINP_TEXT
        PUSH     {R5}
        CFI CFA R13+52
        PUSH     {R1}
        CFI CFA R13+56
        LDR      R1,??DataTable19  ;; VAR_ARG_CALL_BACK_PREV_ACT
        PUSH     {R0}
        CFI CFA R13+60
        LDR      R0,??DataTable20  ;; VAR_ARG_STRINP_FIXED_TEXT
        PUSH     {R0}
        CFI CFA R13+64
        MOV      R0,R4
        PUSH     {R0}
        CFI CFA R13+68
        LDR      R0,??DataTable21  ;; VAR_ARG_BOOK
        PUSH     {R0}
        CFI CFA R13+72
        MOV      R0,R2
        PUSH     {R0}
        CFI CFA R13+76
        MOV      R0,#+0
        SWI      +324
        ADD      SP,SP,#+56
        CFI CFA R13+20
        STR      R0,[R4, #+392]
//  216 }
        POP      {R4-R7,PC}       ;; return
        DATA
??CreateInput_2:
        DC32     `?<Constant L"\\x418\\x437\\x43c\\x435\\x43d\\x438\\x4_2`
        DC32     ??DestroyInput
        DC32     ??OnEntInput
        CFI EndBlock cfiBlock25

        RSEG CODE:CODE:NOROOT(2)
        DATA
??DataTable14:
        DC32     VAR_ARG_CALL_BACK_LONG_BACK

        RSEG CODE:CODE:NOROOT(2)
        DATA
??DataTable15:
        DC32     VAR_ARG_CALL_BACK_OK

        RSEG CODE:CODE:NOROOT(2)
        DATA
??DataTable16:
        DC32     VAR_ARG_STRINP_MIN_LEN

        RSEG CODE:CODE:NOROOT(2)
        DATA
??DataTable17:
        DC32     VAR_ARG_STRINP_MAX_LEN

        RSEG CODE:CODE:NOROOT(2)
        DATA
??DataTable18:
        DC32     VAR_ARG_STRINP_TEXT

        RSEG CODE:CODE:NOROOT(2)
        DATA
??DataTable19:
        DC32     VAR_ARG_CALL_BACK_PREV_ACT

        RSEG CODE:CODE:NOROOT(2)
        DATA
??DataTable20:
        DC32     VAR_ARG_STRINP_FIXED_TEXT

        RSEG CODE:CODE:NOROOT(2)
        DATA
??DataTable21:
        DC32     VAR_ARG_BOOK

        RSEG CODE:CODE:NOROOT(2)
        CFI Block cfiBlock26 Using cfiCommon0
        CFI NoFunction
        THUMB
??OnEntMNM??rT:
        BX       PC
        Nop      
        CFI EndBlock cfiBlock26
        REQUIRE ??OnEntMNM
//  217 
//  218 
//  219 

        RSEG CODE:CODE:NOROOT(2)
        CFI Block cfiBlock27 Using cfiCommon1
        CFI Function ??OnEntMNM
        ARM
//  220 void OnEntMNM( BOOK* bk, GUI* )
//  221 {
??OnEntMNM:
        PUSH     {R4,R5,LR}
        CFI ?RET Frame(CFA, -4)
        CFI R5 Frame(CFA, -8)
        CFI R4 Frame(CFA, -12)
        CFI CFA R13+12
        MOV      R4,R0
//  222   int item=ListMenu_GetSelectedItem(((MyBook*)bk)->gui);
        LDR      R0,[R4, #+396]
        SWI      +318
//  223   if(item==0)
        CMP      R0,#+0
        BNE      ??OnEntMNM_1
//  224   {
//  225     if(((MyBook*)bk)->nast->sound->sound==0) ((MyBook*)bk)->nast->sound->sound=1;
        LDR      R0,[R4, #+820]
        MOV      R5,#+0
        LDR      R0,[R0, #+0]
        LDR      R0,[R0, #+3096]
        CMP      R0,#+0
        LDR      R0,[R4, #+820]
        MOVEQ    R1,#+1
        LDR      R0,[R0, #+0]
        STREQ    R1,[R0, #+3096]
//  226     else ((MyBook*)bk)->nast->sound->sound=0;
        STRNE    R5,[R0, #+3096]
//  227     GUIObject_Destroy(((MyBook*)bk)->gui);
        LDR      R0,[R4, #+396]
        SWI      +462
//  228     ((MyBook*)bk)->gui=0;
        STR      R5,[R4, #+396]
//  229     CreateMNM(((MyBook*)bk), item);
        MOV      R1,#+0
        MOV      R0,R4
        BL       ??CreateMNM
        POP      {R4,R5,PC}
//  230   }
//  231   if(item>0)
??OnEntMNM_1:
        CMP      R0,#+1
        POPLT    {R4,R5,PC}
//  232   {
//  233     CreateInput(item, ((MyBook*)bk)->nast->sound, (MyBook*)bk);
        LDR      R1,[R4, #+820]
        MOV      R2,R4
        LDR      R1,[R1, #+0]
        BL       ??CreateInput
//  234   }
//  235 }
        POP      {R4,R5,PC}       ;; return
        CFI EndBlock cfiBlock27

        RSEG CODE:CODE:NOROOT(2)
        CFI Block cfiBlock28 Using cfiCommon0
        CFI NoFunction
        THUMB
??SetTitlePunktsMNM??rT:
        BX       PC
        Nop      
        CFI EndBlock cfiBlock28
        REQUIRE ??SetTitlePunktsMNM
//  236 

        RSEG CODE:CODE:NOROOT(2)
        CFI Block cfiBlock29 Using cfiCommon1
        CFI Function ??SetTitlePunktsMNM
        ARM
//  237 int SetTitlePunktsMNM(GUI_MESSAGE * msg)
//  238 {
??SetTitlePunktsMNM:
        PUSH     {R4-R11,LR}
        CFI ?RET Frame(CFA, -4)
        CFI R11 Frame(CFA, -8)
        CFI R10 Frame(CFA, -12)
        CFI R9 Frame(CFA, -16)
        CFI R8 Frame(CFA, -20)
        CFI R7 Frame(CFA, -24)
        CFI R6 Frame(CFA, -28)
        CFI R5 Frame(CFA, -32)
        CFI R4 Frame(CFA, -36)
        CFI CFA R13+36
        SUB      SP,SP,#+4
        CFI CFA R13+40
        MOV      R4,R0
//  239   int item, ID;
//  240   switch( GUIonMessage_GetMsg(msg) )
        SWI      +884
        CMP      R0,#+1
        BNE      ??SetTitlePunktsMNM_1
//  241   {
//  242     case 1:
//  243       item=GUIonMessage_GetCreatedItemIndex(msg);
//  244       if(item==0)
        LDR      R8,??DataTable28  ;; `?<Constant L"\\x43\\x41\\x4c\\x4c\\x53\\x5f\\x49\\x4e\\`
        MOV      R0,R4
        SWI      +311
        MOVS     R5,R0
        MOV      R6,#+488
        MOV      R7,#+255
        ORR      R7,R7,#0xFF00
        BNE      ??SetTitlePunktsMNM_2
//  245       {
//  246         iconidname2id(L"DB_LIST_SOUND_IMELODY_ICN", -1, &ID);
        MOV      R2,SP
        MVN      R1,#+0
        ADD      R0,R8,#+212
        SWI      +646
//  247         GUIonMessage_SetMenuItemIcon(msg, 0, ID);
        LDR      R2,[SP, #+0]
        MOV      R1,#+0
        MOV      R2,R2, LSL #+16
        MOV      R2,R2, LSR #+16
        MOV      R0,R4
        SWI      +316
//  248         GUIonMessage_SetMenuItemText(msg,TextID_Create(L"Звук",ENC_UCS2,TEXTID_ANY_LEN));
        MOV      R2,R7
        MOV      R1,#+0
        ADD      R0,R8,#+264
        SWI      +349
        MOV      R1,R0
        MOV      R0,R4
        SWI      +312
//  249         GUIonMessage_SetMenuItemSecondLineText(msg,GetStrokaIMG(StatusSettings(((MyBook*)isBookX(NameMyElf, 0))->nast->sound->sound),((MyBook*)isBookX(NameMyElf, 0))->nast->sound->sound));
        MOV      R1,#+0
        ADD      R0,R6,R8
        _BLF     ??isBookX,??isBookX??rA
        MOV      R9,R0
        MOV      R1,#+0
        ADD      R0,R6,R8
        _BLF     ??isBookX,??isBookX??rA
        LDR      R0,[R0, #+820]
        LDR      R0,[R0, #+0]
        LDR      R0,[R0, #+3096]
        _BLF     ??StatusSettings,??StatusSettings??rA
        LDR      R1,[R9, #+820]
        LDR      R1,[R1, #+0]
        LDR      R1,[R1, #+3096]
        _BLF     ??GetStrokaIMG,??GetStrokaIMG??rA
        MOV      R1,R0
        MOV      R0,R4
        SWI      +313
//  250       }
//  251       for(int i=0; i<6; i++)
??SetTitlePunktsMNM_2:
        MOV      R9,#+0
//  252       {
//  253         if(item==i+1)
??SetTitlePunktsMNM_3:
        ADD      R10,R9,#+1
        CMP      R5,R10
        BNE      ??SetTitlePunktsMNM_4
//  254         {
//  255           GUIonMessage_SetMenuItemText(msg,TextID_Create(NamesOfPunkts(i),ENC_UCS2,TEXTID_ANY_LEN));
        MOV      R0,R9
        _BLF     ??NamesOfPunkts,??NamesOfPunkts??rA
        MOV      R2,R7
        MOV      R1,#+0
        SWI      +349
        MOV      R1,R0
        MOV      R0,R4
        SWI      +312
//  256           GUIonMessage_SetMenuItemSecondLineText(msg,GetStrokaIMG(((MyBook*)isBookX(NameMyElf, 0))->nast->sound->names[i],((MyBook*)isBookX(NameMyElf, 0))->nast->sound->status[i]));
        MOV      R1,#+0
        ADD      R0,R6,R8
        _BLF     ??isBookX,??isBookX??rA
        MOV      R11,R0
        MOV      R1,#+0
        ADD      R0,R6,R8
        _BLF     ??isBookX,??isBookX??rA
        LDR      R1,[R11, #+820]
        LDR      R0,[R0, #+820]
        LDR      R1,[R1, #+0]
        LDR      R0,[R0, #+0]
        ADD      R1,R1,R9, LSL #+2
        LDR      R1,[R1, #+3072]
        ADD      R0,R0,R9, LSL #+9
        _BLF     ??GetStrokaIMG,??GetStrokaIMG??rA
        MOV      R1,R0
        MOV      R0,R4
        SWI      +313
//  257           iconidname2id(L"DB_LIST_SOUND_EMELODY_ICN", -1, &ID);
        MOV      R2,SP
        MVN      R1,#+0
        ADD      R0,R8,#+276
        SWI      +646
//  258           GUIonMessage_SetMenuItemIcon(msg, 0, ID);
        LDR      R2,[SP, #+0]
        MOV      R1,#+0
        MOV      R2,R2, LSL #+16
        MOV      R2,R2, LSR #+16
        MOV      R0,R4
        SWI      +316
//  259         }
//  260       }      
??SetTitlePunktsMNM_4:
        MOV      R9,R10
        CMP      R9,#+6
        BLT      ??SetTitlePunktsMNM_3
//  261   }
//  262   return(1);        
??SetTitlePunktsMNM_1:
        MOV      R0,#+1
        POP      {R1,R4-R11,PC}   ;; return
        CFI EndBlock cfiBlock29
//  263 }

        RSEG CODE:CODE:NOROOT(2)
        CFI Block cfiBlock30 Using cfiCommon0
        CFI NoFunction
        THUMB
??Set??rT:
        BX       PC
        Nop      
        CFI EndBlock cfiBlock30
        REQUIRE ??Set
//  264 

        RSEG CODE:CODE:NOROOT(2)
        CFI Block cfiBlock31 Using cfiCommon1
        CFI Function ??Set
        ARM
//  265 void Set(int item)
//  266 {
??Set:
        PUSH     {R4-R11,LR}
        CFI ?RET Frame(CFA, -4)
        CFI R11 Frame(CFA, -8)
        CFI R10 Frame(CFA, -12)
        CFI R9 Frame(CFA, -16)
        CFI R8 Frame(CFA, -20)
        CFI R7 Frame(CFA, -24)
        CFI R6 Frame(CFA, -28)
        CFI R5 Frame(CFA, -32)
        CFI R4 Frame(CFA, -36)
        CFI CFA R13+36
//  267   if(item==0)
        LDR      R5,??Set_1+0x4   ;; ??OnEntMNM
        LDR      R8,??DataTable28  ;; `?<Constant L"\\x43\\x41\\x4c\\x4c\\x53\\x5f\\x49\\x4e\\`
        MOVS     R4,R0
        MOV      R6,#+255
        ORR      R6,R6,#0xFF00
        MOV      R7,#+488
        BNE      ??Set_2
//  268   {
//  269     GUIObject_SoftKeys_SetAction(((MyBook*)isBookX(NameMyElf, 0))->gui,1,0);
        MOV      R1,#+0
        ADD      R0,R7,R8
        _BLF     ??isBookX,??isBookX??rA
        LDR      R0,[R0, #+396]
        MOV      R2,#+0
        MOV      R1,#+1
        SWI      +331
//  270     GUIObject_SoftKeys_SetText(((MyBook*)isBookX(NameMyElf, 0))->gui, 1, TextID_Create(L" ",ENC_UCS2,TEXTID_ANY_LEN));
        MOV      R2,R6
        MOV      R1,#+0
        ADR      R0,??Set_1       ;; 0x20, 0x00, 0x00, 0x00
        SWI      +349
        MOV      R9,R0
        MOV      R1,#+0
        ADD      R0,R7,R8
        _BLF     ??isBookX,??isBookX??rA
        LDR      R0,[R0, #+396]
        MOV      R2,R9
        MOV      R1,#+1
        SWI      +332
//  271     GUIObject_SoftKeys_SetText(((MyBook*)isBookX(NameMyElf, 0))->gui, ACTION_SELECT1, TextID_Create(StatusSettings1(((MyBook*)isBookX(NameMyElf, 0))->nast->sound->sound),ENC_UCS2,TEXTID_ANY_LEN));
        MOV      R1,#+0
        ADD      R0,R7,R8
        _BLF     ??isBookX,??isBookX??rA
        LDR      R0,[R0, #+820]
        LDR      R0,[R0, #+0]
        LDR      R0,[R0, #+3096]
        _BLF     ??StatusSettings1,??StatusSettings1??rA
        MOV      R2,R6
        MOV      R1,#+0
        SWI      +349
        MOV      R9,R0
        MOV      R1,#+0
        ADD      R0,R7,R8
        _BLF     ??isBookX,??isBookX??rA
        LDR      R1,??DataTable38  ;; ACTION_SELECT1
        LDR      R0,[R0, #+396]
        LDR      R11,[R1, #+0]
        MOV      R2,R9
        MOV      R1,R11, LSL #+16
        MOV      R1,R1, LSR #+16
        SWI      +332
//  272     GUIObject_SoftKeys_SetAction(((MyBook*)isBookX(NameMyElf, 0))->gui, ACTION_SELECT1, OnEntMNM);
        MOV      R1,#+0
        ADD      R0,R7,R8
        _BLF     ??isBookX,??isBookX??rA
        LDR      R0,[R0, #+396]
        MOV      R2,R5
        MOV      R1,R11, LSL #+16
        MOV      R1,R1, LSR #+16
        SWI      +331
//  273     //GUIonMessage_SetMenuItemIcon(msg, 0, IconID->I1);
//  274   }
//  275   for(int i=0; i<6; i++)
??Set_2:
        MOV      R10,#+0
//  276   {
//  277     if(item==i+1)
??Set_3:
        ADD      R9,R10,#+1
        CMP      R4,R9
        BNE      ??Set_4
//  278     {
//  279       GUIObject_SoftKeys_SetAction(((MyBook*)isBookX(NameMyElf, 0))->gui,1,OnMNM1);
        MOV      R1,#+0
        ADD      R0,R7,R8
        _BLF     ??isBookX,??isBookX??rA
        LDR      R0,[R0, #+396]
        LDR      R2,??Set_1+0x8   ;; ??OnMNM1
        MOV      R1,#+1
        SWI      +331
//  280       GUIObject_SoftKeys_SetText(((MyBook*)isBookX(NameMyElf, 0))->gui, 1, TextID_Create(StatusSettings1(((MyBook*)isBookX(NameMyElf, 0))->nast->sound->status[i]),ENC_UCS2,TEXTID_ANY_LEN));
        MOV      R1,#+0
        ADD      R0,R7,R8
        _BLF     ??isBookX,??isBookX??rA
        LDR      R0,[R0, #+820]
        LDR      R0,[R0, #+0]
        ADD      R0,R0,R10, LSL #+2
        LDR      R0,[R0, #+3072]
        _BLF     ??StatusSettings1,??StatusSettings1??rA
        MOV      R2,R6
        MOV      R1,#+0
        SWI      +349
        MOV      R10,R0
        MOV      R1,#+0
        ADD      R0,R7,R8
        _BLF     ??isBookX,??isBookX??rA
        LDR      R0,[R0, #+396]
        MOV      R2,R10
        MOV      R1,#+1
        SWI      +332
//  281       GUIObject_SoftKeys_SetText(((MyBook*)isBookX(NameMyElf, 0))->gui, ACTION_SELECT1, TextID_Create(L"Изменить",ENC_UCS2,TEXTID_ANY_LEN));
        MOV      R2,R6
        MOV      R1,#+0
        ADD      R0,R8,#+192
        SWI      +349
        MOV      R10,R0
        MOV      R1,#+0
        ADD      R0,R7,R8
        _BLF     ??isBookX,??isBookX??rA
        LDR      R1,??DataTable38  ;; ACTION_SELECT1
        LDR      R0,[R0, #+396]
        LDR      R11,[R1, #+0]
        MOV      R2,R10
        MOV      R1,R11, LSL #+16
        MOV      R1,R1, LSR #+16
        SWI      +332
//  282       GUIObject_SoftKeys_SetAction(((MyBook*)isBookX(NameMyElf, 0))->gui, ACTION_SELECT1, OnEntMNM);
        MOV      R1,#+0
        ADD      R0,R7,R8
        _BLF     ??isBookX,??isBookX??rA
        LDR      R0,[R0, #+396]
        MOV      R2,R5
        MOV      R1,R11, LSL #+16
        MOV      R1,R1, LSR #+16
        SWI      +331
//  283       //GUIonMessage_SetMenuItemIcon(msg, 0, IconID->I2);
//  284     }
//  285   }
??Set_4:
        MOV      R10,R9
        CMP      R10,#+6
        BLT      ??Set_3
//  286 }
        POP      {R4-R11,PC}      ;; return
        DATA
??Set_1:
        DC8      0x20, 0x00, 0x00, 0x00
        DC32     ??OnEntMNM
        DC32     ??OnMNM1
        CFI EndBlock cfiBlock31

        RSEG CODE:CODE:NOROOT(2)
        CFI Block cfiBlock32 Using cfiCommon0
        CFI NoFunction
        THUMB
??NewKey1??rT:
        BX       PC
        Nop      
        CFI EndBlock cfiBlock32
        REQUIRE ??NewKey1
//  287 

        RSEG CODE:CODE:NOROOT(2)
        CFI Block cfiBlock33 Using cfiCommon1
        CFI Function ??NewKey1
        ARM
//  288 void NewKey1(DISP_OBJ* p, int i1, int i2, int i3, int i4)
//  289 {
??NewKey1:
        PUSH     {R4-R8,LR}
        CFI ?RET Frame(CFA, -4)
        CFI R8 Frame(CFA, -8)
        CFI R7 Frame(CFA, -12)
        CFI R6 Frame(CFA, -16)
        CFI R5 Frame(CFA, -20)
        CFI R4 Frame(CFA, -24)
        CFI CFA R13+24
        LDR      R8,[SP, #+24]
        MOV      R4,R0
//  290   ((MyBook*)isBookX(NameMyElf, 0))->OldKey1(p, i1, i2, i3, i4);
        LDR      R0,??NewKey1_1   ;; `?<Constant L"\\x43\\x41\\x4c\\x4c\\x53\\x5f\\x49\\x4e\\` + 488
        MOV      R5,R1
        MOV      R6,R2
        MOV      R7,R3
        MOV      R1,#+0
        _BLF     ??isBookX,??isBookX??rA
        MOV      R12,R0
        PUSH     {R8}
        CFI CFA R13+28
        MOV      R3,R7
        MOV      R2,R6
        MOV      R1,R5
        MOV      R0,R4
        LDR      R4,[R12, #+840]
        BLX      R4
//  291   int item=ListMenu_GetSelectedItem(MyBK()->gui);
        _BLF     ??MyBK,??MyBK??rA
        LDR      R0,[R0, #+396]
        SWI      +318
//  292   Set(item);
        BL       ??Set
//  293 }
        POP      {R0,R4-R8,PC}    ;; return
        DATA
??NewKey1_1:
        DC32     `?<Constant L"\\x43\\x41\\x4c\\x4c\\x53\\x5f\\x49\\x4e\\` + 488
        CFI EndBlock cfiBlock33

        RSEG CODE:CODE:NOROOT(2)
        CFI Block cfiBlock34 Using cfiCommon0
        CFI NoFunction
        THUMB
??CreateMNM??rT:
        BX       PC
        Nop      
        CFI EndBlock cfiBlock34
        REQUIRE ??CreateMNM
//  294 

        RSEG CODE:CODE:NOROOT(2)
        CFI Block cfiBlock35 Using cfiCommon1
        CFI Function ??CreateMNM
        ARM
//  295 void CreateMNM(MyBook*bk, int x)
//  296 {
??CreateMNM:
        PUSH     {R4-R7,LR}
        CFI ?RET Frame(CFA, -4)
        CFI R7 Frame(CFA, -8)
        CFI R6 Frame(CFA, -12)
        CFI R5 Frame(CFA, -16)
        CFI R4 Frame(CFA, -20)
        CFI CFA R13+20
        MOV      R5,R0
//  297   if(bk->gui) GUIObject_Destroy(bk->gui);
        LDR      R0,[R5, #+396]
        MOV      R6,R1
        CMP      R0,#+0
        BEQ      ??CreateMNM_1
        SWI      +462
//  298   bk->gui=0;
        MOV      R0,#+0
??CreateMNM_1:
        STR      R0,[R5, #+396]
//  299   GUI_LIST*MNM=CreateListMenu((BOOK*)bk,0);
        MOV      R1,#+0
//  300   ((MyBook*)bk)->gui=MNM;
//  301   GUIObject_SetTitleText(MNM, TextID_Create(L"Музыка",ENC_UCS2,TEXTID_ANY_LEN));
//  302   ListMenu_SetItemCount(MNM, 7);
//  303   OneOfMany_SetOnMessage(MNM,SetTitlePunktsMNM);
//  304   ListMenu_SetCursorToItem(MNM,x);
//  305   ListMenu_SetItemStyle(MNM,3);
//  306   GUIObject_SoftKeys_SetAction(MNM,ACTION_BACK,ExitMNM);
        LDR      R7,??CreateMNM_2  ;; ??ExitMNM
        MOV      R0,R5
        SWI      +448
        MOV      R4,R0
        LDR      R0,??CreateMNM_2+0x4  ;; `?<Constant L"\\x43\\x41\\x4c\\x4c\\x53\\x5f\\x49\\x4e\\` + 328
        STR      R4,[R5, #+396]
        MOV      R2,#+255
        ORR      R2,R2,#0xFF00
        MOV      R1,#+0
        SWI      +349
        MOV      R1,R0
        MOV      R0,R4
        SWI      +307
        MOV      R1,#+7
        MOV      R0,R4
        SWI      +449
        LDR      R1,??CreateMNM_2+0x8  ;; ??SetTitlePunktsMNM
        MOV      R0,R4
        SWI      +481
        MOV      R1,R6
        MOV      R0,R4
        SWI      +309
        MOV      R1,#+3
        MOV      R0,R4
        SWI      +319
        LDR      R0,??DataTable40  ;; ACTION_BACK
        MOV      R2,R7
        LDR      R1,[R0, #+0]
        MOV      R0,R4
        MOV      R1,R1, LSL #+16
        MOV      R1,R1, LSR #+16
        SWI      +331
//  307   GUIObject_SoftKeys_SetAction(MNM,ACTION_LONG_BACK,ExitMNM);
        LDR      R0,??DataTable41  ;; ACTION_LONG_BACK
        MOV      R2,R7
        LDR      R1,[R0, #+0]
        MOV      R0,R4
        MOV      R1,R1, LSL #+16
        MOV      R1,R1, LSR #+16
        SWI      +331
//  308   Set(x);
        MOV      R0,R6
        BL       ??Set
//  309   //GUIObject_SoftKeys_SetAction(MNM,ACTION_SELECT1,OnEntMNM);
//  310   bk->OldKey1 = DispObject_GetOnKey( GUIObject_GetDispObject(MNM) );
        MOV      R0,R4
        SWI      +360
        SWI      +555
        STR      R0,[R5, #+840]
//  311   DISP_DESC_SetOnKey( DispObject_GetDESC ( GUIObject_GetDispObject(MNM) ), NewKey1);
        MOV      R0,R4
        SWI      +360
        SWI      +543
        LDR      R1,??CreateMNM_2+0xC  ;; ??NewKey1
        SWI      +554
//  312   GUIObject_Show(MNM);
        MOV      R0,R4
        SWI      +308
//  313 }
        POP      {R4-R7,PC}       ;; return
        DATA
??CreateMNM_2:
        DC32     ??ExitMNM
        DC32     `?<Constant L"\\x43\\x41\\x4c\\x4c\\x53\\x5f\\x49\\x4e\\` + 328
        DC32     ??SetTitlePunktsMNM
        DC32     ??NewKey1
        CFI EndBlock cfiBlock35

        RSEG CODE:CODE:NOROOT(2)
        CFI Block cfiBlock36 Using cfiCommon0
        CFI NoFunction
        THUMB
??ExitNM??rT:
        BX       PC
        Nop      
        CFI EndBlock cfiBlock36
        REQUIRE ??ExitNM
//  314 

        RSEG CODE:CODE:NOROOT(2)
        CFI Block cfiBlock37 Using cfiCommon1
        CFI Function ??ExitNM
        ARM
//  315 void ExitNM( BOOK* bk, GUI* )
//  316 {
??ExitNM:
        PUSH     {R4,LR}
        CFI ?RET Frame(CFA, -4)
        CFI R4 Frame(CFA, -8)
        CFI CFA R13+8
        MOV      R4,R0
//  317   GUIObject_Destroy(((MyBook*)bk)->gui);
        LDR      R0,[R4, #+396]
        SWI      +462
//  318   ((MyBook*)bk)->gui=0;
        MOV      R0,#+0
        STR      R0,[R4, #+396]
//  319   if(!((MyBook*)bk)->pause) CreateGM(0, bk);
        LDR      R0,[R4, #+824]
        CMP      R0,#+0
        POPNE    {R4,PC}
        MOV      R1,R4
        BL       ??CreateGM
//  320   //CreatePM(bk);
//  321 }
        POP      {R4,PC}          ;; return
        CFI EndBlock cfiBlock37

        RSEG CODE:CODE:NOROOT(2)
        CFI Block cfiBlock38 Using cfiCommon0
        CFI NoFunction
        THUMB
??OnEntGameM??rT:
        BX       PC
        Nop      
        CFI EndBlock cfiBlock38
        REQUIRE ??OnEntGameM
//  322 

        RSEG CODE:CODE:NOROOT(2)
        CFI Block cfiBlock39 Using cfiCommon1
        CFI Function ??OnEntGameM
        ARM
//  323 void OnEntGameM( BOOK* bk, GUI* )
//  324 {
??OnEntGameM:
        PUSH     {R4,R5,LR}
        CFI ?RET Frame(CFA, -4)
        CFI R5 Frame(CFA, -8)
        CFI R4 Frame(CFA, -12)
        CFI CFA R13+12
        MOV      R4,R0
//  325   int item=ListMenu_GetSelectedItem(((MyBook*)bk)->gui);
//  326   ((MyBook*)bk)->speed=item+1;
        LDR      R0,[R4, #+396]
//  327   ((MyBook*)bk)->point=0;
        MOV      R5,#+0
        SWI      +318
//  328   ((MyBook*)bk)->lvl=0;
//  329   BookObj_GotoPage(bk,&bk_game);
        LDR      R1,??OnEntGameM_1  ;; bk_game
        ADD      R0,R0,#+1
        STR      R0,[R4, #+812]
        STR      R5,[R4, #+816]
        STR      R5,[R4, #+808]
        MOV      R0,R4
        SWI      +301
//  330   GUIObject_Destroy(((MyBook*)bk)->gui);
        LDR      R0,[R4, #+396]
        SWI      +462
//  331   ((MyBook*)bk)->gui=0;  
        STR      R5,[R4, #+396]
//  332 }
        POP      {R4,R5,PC}       ;; return
        DATA
??OnEntGameM_1:
        DC32     bk_game
        CFI EndBlock cfiBlock39

        RSEG CODE:CODE:NOROOT(2)
        CFI Block cfiBlock40 Using cfiCommon0
        CFI NoFunction
        THUMB
??OnEntMR??rT:
        BX       PC
        Nop      
        CFI EndBlock cfiBlock40
        REQUIRE ??OnEntMR
//  333 

        RSEG CODE:CODE:NOROOT(2)
        CFI Block cfiBlock41 Using cfiCommon1
        CFI Function ??OnEntMR
        ARM
//  334 void OnEntMR( BOOK* bk, GUI* )
//  335 {
??OnEntMR:
        PUSH     {R4,LR}
        CFI ?RET Frame(CFA, -4)
        CFI R4 Frame(CFA, -8)
        CFI CFA R13+8
        MOV      R4,R0
//  336   int item=ListMenu_GetSelectedItem(((MyBook*)bk)->gui);
        LDR      R0,[R4, #+396]
        SWI      +318
//  337   if(item==0)
        CMP      R0,#+0
        BNE      ??OnEntMR_1
//  338   {
//  339     ShowResults(((MyBook*)bk)->nast->rez->te);
        LDR      R0,[R4, #+820]
        LDR      R0,[R0, #+8]
        LDR      R0,[R0, #+0]
        POP      {R4,LR}          ;; Pop
        CFI R4 SameValue
        CFI ?RET R14
        CFI CFA R13+0
        B        ??ShowResults    ;; tailcall
        CFI R4 Frame(CFA, -8)
        CFI ?RET Frame(CFA, -4)
        CFI CFA R13+8
//  340   }
//  341   if(item==1)
??OnEntMR_1:
        CMP      R0,#+1
        BNE      ??OnEntMR_2
//  342   {
//  343     ShowResults(((MyBook*)bk)->nast->rez->tn);  
        LDR      R0,[R4, #+820]
        LDR      R0,[R0, #+8]
        LDR      R0,[R0, #+4]
        B        ??OnEntMR_3
//  344   }
//  345   if(item==2)
??OnEntMR_2:
        CMP      R0,#+2
        POPNE    {R4,PC}
//  346   {
//  347     ShowResults(((MyBook*)bk)->nast->rez->th);  
        LDR      R0,[R4, #+820]
        LDR      R0,[R0, #+8]
        LDR      R0,[R0, #+8]
??OnEntMR_3:
        POP      {R4,LR}          ;; Pop
        CFI R4 SameValue
        CFI ?RET R14
        CFI CFA R13+0
        B        ??ShowResults    ;; tailcall
        CFI EndBlock cfiBlock41
//  348   }
//  349 }

        RSEG CODE:CODE:NOROOT(2)
        CFI Block cfiBlock42 Using cfiCommon0
        CFI NoFunction
        THUMB
??OnEntNM??rT:
        BX       PC
        Nop      
        CFI EndBlock cfiBlock42
        REQUIRE ??OnEntNM
//  350 

        RSEG CODE:CODE:NOROOT(2)
        CFI Block cfiBlock43 Using cfiCommon1
        CFI Function ??OnEntNM
        ARM
//  351 void OnEntNM( BOOK* bk, GUI* )
//  352 {
??OnEntNM:
        PUSH     {R4,LR}
        CFI ?RET Frame(CFA, -4)
        CFI R4 Frame(CFA, -8)
        CFI CFA R13+8
        MOV      R4,R0
//  353   int item=ListMenu_GetSelectedItem(((MyBook*)bk)->gui);
        LDR      R0,[R4, #+396]
        SWI      +318
//  354   if(item==0)
        CMP      R0,#+0
        BNE      ??OnEntNM_1
//  355   {
//  356     CreateMNM((MyBook*)bk, 0);
        MOV      R1,#+0
        MOV      R0,R4
        POP      {R4,LR}          ;; Pop
        CFI R4 SameValue
        CFI ?RET R14
        CFI CFA R13+0
        B        ??CreateMNM      ;; tailcall
        CFI R4 Frame(CFA, -8)
        CFI ?RET Frame(CFA, -4)
        CFI CFA R13+8
//  357   }
//  358   if(item==1)
??OnEntNM_1:
        CMP      R0,#+1
        POPNE    {R4,PC}
//  359   {
//  360     CreateINM((MyBook*)bk, 0);   
        MOV      R1,#+0
        MOV      R0,R4
        POP      {R4,LR}          ;; Pop
        CFI R4 SameValue
        CFI ?RET R14
        CFI CFA R13+0
        B        ??CreateINM      ;; tailcall
        CFI EndBlock cfiBlock43
//  361   }
//  362 }

        RSEG CODE:CODE:NOROOT(2)
        CFI Block cfiBlock44 Using cfiCommon0
        CFI NoFunction
        THUMB
??SetTitlePunktsNM??rT:
        BX       PC
        Nop      
        CFI EndBlock cfiBlock44
        REQUIRE ??SetTitlePunktsNM
//  363 

        RSEG CODE:CODE:NOROOT(2)
        CFI Block cfiBlock45 Using cfiCommon1
        CFI Function ??SetTitlePunktsNM
        ARM
//  364 int SetTitlePunktsNM(GUI_MESSAGE * msg)
//  365 {
??SetTitlePunktsNM:
        PUSH     {R4,R5,LR}
        CFI ?RET Frame(CFA, -4)
        CFI R5 Frame(CFA, -8)
        CFI R4 Frame(CFA, -12)
        CFI CFA R13+12
        SUB      SP,SP,#+4
        CFI CFA R13+16
        MOV      R4,R0
//  366   int item, ID;
//  367   switch( GUIonMessage_GetMsg(msg) )
        SWI      +884
        CMP      R0,#+1
        BNE      ??SetTitlePunktsNM_1
//  368   {
//  369     case 1:
//  370       item=GUIonMessage_GetCreatedItemIndex(msg);
//  371       if(item==0)
        LDR      R5,??DataTable28  ;; `?<Constant L"\\x43\\x41\\x4c\\x4c\\x53\\x5f\\x49\\x4e\\`
        MOV      R0,R4
        SWI      +311
        MOV      R2,#+255
        ORR      R2,R2,#0xFF00
        CMP      R0,#+0
        BNE      ??SetTitlePunktsNM_2
//  372       {
//  373         GUIonMessage_SetMenuItemText(msg,TextID_Create(L"Музыка",ENC_UCS2,TEXTID_ANY_LEN));
        MOV      R1,#+0
        ADD      R0,R5,#+328
        SWI      +349
        MOV      R1,R0
        MOV      R0,R4
        SWI      +312
//  374         iconidname2id(L"ENTERTAINMENT_MENU_MIDI_COMP_ICN", -1, &ID);
        MOV      R2,SP
        MVN      R1,#+0
        ADD      R0,R5,#+344
        B        ??SetTitlePunktsNM_3
//  375         GUIonMessage_SetMenuItemIcon(msg, 0, ID);
//  376       }
//  377       if(item==1)
??SetTitlePunktsNM_2:
        CMP      R0,#+1
        BNE      ??SetTitlePunktsNM_1
//  378       {
//  379         GUIonMessage_SetMenuItemText(msg,TextID_Create(L"Картинки",ENC_UCS2,TEXTID_ANY_LEN));
        MOV      R1,#+0
        ADD      R0,R5,#+172
        SWI      +349
        MOV      R1,R0
        MOV      R0,R4
        SWI      +312
//  380         iconidname2id(L"ENTERTAINMENT_MENU_PICTUREEDITOR_ICN", -1, &ID);
        MOV      R2,SP
        MVN      R1,#+0
        ADD      R0,R5,#+412
??SetTitlePunktsNM_3:
        SWI      +646
//  381         GUIonMessage_SetMenuItemIcon(msg, 0, ID);
        LDR      R2,[SP, #+0]
        MOV      R1,#+0
        MOV      R2,R2, LSL #+16
        MOV      R2,R2, LSR #+16
        MOV      R0,R4
        SWI      +316
//  382       }
//  383   }
//  384   return(1);        
??SetTitlePunktsNM_1:
        MOV      R0,#+1
        POP      {R1,R4,R5,PC}    ;; return
        CFI EndBlock cfiBlock45
//  385 }

        RSEG CODE:CODE:NOROOT(2)
        DATA
??DataTable28:
        DC32     `?<Constant L"\\x43\\x41\\x4c\\x4c\\x53\\x5f\\x49\\x4e\\`

        RSEG CODE:CODE:NOROOT(2)
        CFI Block cfiBlock46 Using cfiCommon0
        CFI NoFunction
        THUMB
??DeleteRes??rT:
        BX       PC
        Nop      
        CFI EndBlock cfiBlock46
        REQUIRE ??DeleteRes
//  386 

        RSEG CODE:CODE:NOROOT(2)
        CFI Block cfiBlock47 Using cfiCommon1
        CFI Function ??DeleteRes
        ARM
//  387 void DeleteRes( BOOK* bk, GUI* )
//  388 {
??DeleteRes:
        PUSH     {R4,LR}
        CFI ?RET Frame(CFA, -4)
        CFI R4 Frame(CFA, -8)
        CFI CFA R13+8
        MOV      R4,R0
//  389   int item=ListMenu_GetSelectedItem(((MyBook*)bk)->gui);
        LDR      R0,[R4, #+396]
        SWI      +318
//  390   if(item==0)
        CMP      R0,#+0
        BNE      ??DeleteRes_1
//  391   {
//  392     DELTABL(((MyBook*)bk)->nast->rez->te);
        LDR      R0,[R4, #+820]
        LDR      R0,[R0, #+8]
        LDR      R0,[R0, #+0]
        POP      {R4,LR}          ;; Pop
        CFI R4 SameValue
        CFI ?RET R14
        CFI CFA R13+0
        _BF      ??DELTABL,??DELTABL??rA  ;; tailcall
        CFI R4 Frame(CFA, -8)
        CFI ?RET Frame(CFA, -4)
        CFI CFA R13+8
//  393   }
//  394   if(item==1)
??DeleteRes_1:
        CMP      R0,#+1
        BNE      ??DeleteRes_2
//  395   {
//  396     DELTABL(((MyBook*)bk)->nast->rez->tn);  
        LDR      R0,[R4, #+820]
        LDR      R0,[R0, #+8]
        LDR      R0,[R0, #+4]
        B        ??DeleteRes_3
//  397   }
//  398   if(item==2)
??DeleteRes_2:
        CMP      R0,#+2
        POPNE    {R4,PC}
//  399   {
//  400     DELTABL(((MyBook*)bk)->nast->rez->th);  
        LDR      R0,[R4, #+820]
        LDR      R0,[R0, #+8]
        LDR      R0,[R0, #+8]
??DeleteRes_3:
        POP      {R4,LR}          ;; Pop
        CFI R4 SameValue
        CFI ?RET R14
        CFI CFA R13+0
        _BF      ??DELTABL,??DELTABL??rA  ;; tailcall
        CFI EndBlock cfiBlock47
//  401   }
//  402 }

        RSEG CODE:CODE:NOROOT(2)
        CFI Block cfiBlock48 Using cfiCommon0
        CFI NoFunction
        THUMB
??SetTitlePunktsMR??rT:
        BX       PC
        Nop      
        CFI EndBlock cfiBlock48
        REQUIRE ??SetTitlePunktsMR
//  403 

        RSEG CODE:CODE:NOROOT(2)
        CFI Block cfiBlock49 Using cfiCommon1
        CFI Function ??SetTitlePunktsMR
        ARM
//  404 int SetTitlePunktsMR(GUI_MESSAGE * msg)
//  405 {
??SetTitlePunktsMR:
        PUSH     {R4,R5,LR}
        CFI ?RET Frame(CFA, -4)
        CFI R5 Frame(CFA, -8)
        CFI R4 Frame(CFA, -12)
        CFI CFA R13+12
        SUB      SP,SP,#+4
        CFI CFA R13+16
        MOV      R4,R0
//  406   int item;
//  407   int ID;
//  408   switch( GUIonMessage_GetMsg(msg) )
        SWI      +884
        CMP      R0,#+1
        BNE      ??SetTitlePunktsMR_1
//  409   {
//  410     case 1:
//  411       item=GUIonMessage_GetCreatedItemIndex(msg);
//  412       if(item==0)
        LDR      R5,??SetTitlePunktsMR_2  ;; `?<Constant L"\\x41b\\x435\\x433\\x43a\\x43e">`
        MOV      R0,R4
        SWI      +311
        MOV      R2,#+255
        ORR      R2,R2,#0xFF00
        CMP      R0,#+0
        BNE      ??SetTitlePunktsMR_3
//  413       {
//  414         GUIonMessage_SetMenuItemText(msg,TextID_Create(L"Легко",ENC_UCS2,TEXTID_ANY_LEN));
        MOV      R1,#+0
        MOV      R0,R5
        SWI      +349
        MOV      R1,R0
        MOV      R0,R4
        SWI      +312
//  415         iconidname2id(L"WV_BUDDYLIST_CONTACT_AVAILABLE_ASHAMED_ICN", -1, &ID);
        MOV      R2,SP
        MVN      R1,#+0
        ADD      R0,R5,#+12
        B        ??SetTitlePunktsMR_4
//  416         GUIonMessage_SetMenuItemIcon(msg, 0, ID);
//  417       }
//  418       if(item==1)
??SetTitlePunktsMR_3:
        CMP      R0,#+1
        BNE      ??SetTitlePunktsMR_5
//  419       {
//  420         GUIonMessage_SetMenuItemText(msg,TextID_Create(L"Средне",ENC_UCS2,TEXTID_ANY_LEN));
        MOV      R1,#+0
        ADD      R0,R5,#+100
        SWI      +349
        MOV      R1,R0
        MOV      R0,R4
        SWI      +312
//  421         iconidname2id(L"WV_BUDDYLIST_CONTACT_AVAILABLE_ANXIOUS_ICN", -1, &ID);
        MOV      R2,SP
        MVN      R1,#+0
        ADD      R0,R5,#+116
        B        ??SetTitlePunktsMR_4
//  422         GUIonMessage_SetMenuItemIcon(msg, 0, ID);
//  423       }
//  424       if(item==2)
??SetTitlePunktsMR_5:
        CMP      R0,#+2
        BNE      ??SetTitlePunktsMR_1
//  425       {
//  426         GUIonMessage_SetMenuItemText(msg,TextID_Create(L"Тяжело",ENC_UCS2,TEXTID_ANY_LEN));
        MOV      R1,#+0
        ADD      R0,R5,#+204
        SWI      +349
        MOV      R1,R0
        MOV      R0,R4
        SWI      +312
//  427         iconidname2id(L"WV_BUDDYLIST_CONTACT_AVAILABLE_ANGRY_ICN", -1, &ID);
        MOV      R2,SP
        MVN      R1,#+0
        ADD      R0,R5,#+220
??SetTitlePunktsMR_4:
        SWI      +646
//  428         GUIonMessage_SetMenuItemIcon(msg, 0, ID);
        LDR      R2,[SP, #+0]
        MOV      R1,#+0
        MOV      R2,R2, LSL #+16
        MOV      R2,R2, LSR #+16
        MOV      R0,R4
        SWI      +316
//  429       }
//  430   }
//  431   return(1);        
??SetTitlePunktsMR_1:
        MOV      R0,#+1
        POP      {R1,R4,R5,PC}    ;; return
        DATA
??SetTitlePunktsMR_2:
        DC32     `?<Constant L"\\x41b\\x435\\x433\\x43a\\x43e">`
        CFI EndBlock cfiBlock49
//  432 }

        RSEG CODE:CODE:NOROOT(2)
        CFI Block cfiBlock50 Using cfiCommon0
        CFI NoFunction
        THUMB
??MenuResultat??rT:
        BX       PC
        Nop      
        CFI EndBlock cfiBlock50
        REQUIRE ??MenuResultat
//  433 

        RSEG CODE:CODE:NOROOT(2)
        CFI Block cfiBlock51 Using cfiCommon1
        CFI Function ??MenuResultat
        ARM
//  434 void MenuResultat(MyBook*bk)
//  435 {
??MenuResultat:
        PUSH     {R4-R7,LR}
        CFI ?RET Frame(CFA, -4)
        CFI R7 Frame(CFA, -8)
        CFI R6 Frame(CFA, -12)
        CFI R5 Frame(CFA, -16)
        CFI R4 Frame(CFA, -20)
        CFI CFA R13+20
        MOV      R5,R0
//  436   if(bk->gui) GUIObject_Destroy(bk->gui);
        LDR      R0,[R5, #+396]
        CMP      R0,#+0
        BEQ      ??MenuResultat_1
        SWI      +462
//  437   bk->gui=0;
        MOV      R0,#+0
??MenuResultat_1:
        STR      R0,[R5, #+396]
//  438   GUI_LIST*MR=CreateListMenu((BOOK*)bk,0);
        MOV      R1,#+0
//  439   ((MyBook*)bk)->gui=MR;
//  440   GUIObject_SetTitleText(MR, TextID_Create(L"Результаты",ENC_UCS2,TEXTID_ANY_LEN));
//  441   ListMenu_SetItemCount(MR, 3);
//  442   OneOfMany_SetOnMessage(MR,SetTitlePunktsMR);
//  443   ListMenu_SetCursorToItem(MR,0);
//  444   ListMenu_SetItemStyle(MR,0);
//  445   GUIObject_SoftKeys_SetAction(MR,ACTION_BACK,ExitNM);
        LDR      R7,??DataTable42  ;; ??ExitNM
        MOV      R0,R5
        SWI      +448
        MOV      R4,R0
        STR      R4,[R5, #+396]
        LDR      R5,??DataTable47  ;; `?<Constant L"\\x412\\x44b\\x439\\x442\\x438\\x20\\x43`
        MOV      R6,#+255
        ORR      R6,R6,#0xFF00
        MOV      R2,R6
        MOV      R1,#+0
        ADD      R0,R5,#+88
        SWI      +349
        MOV      R1,R0
        MOV      R0,R4
        SWI      +307
        MOV      R1,#+3
        MOV      R0,R4
        SWI      +449
        LDR      R1,??DataTable43  ;; ??SetTitlePunktsMR
        MOV      R0,R4
        SWI      +481
        MOV      R1,#+0
        MOV      R0,R4
        SWI      +309
        MOV      R1,#+0
        MOV      R0,R4
        SWI      +319
        LDR      R0,??DataTable40  ;; ACTION_BACK
        MOV      R2,R7
        LDR      R1,[R0, #+0]
        MOV      R0,R4
        MOV      R1,R1, LSL #+16
        MOV      R1,R1, LSR #+16
        SWI      +331
//  446   GUIObject_SoftKeys_SetAction(MR,ACTION_LONG_BACK,ExitNM);
        LDR      R0,??DataTable41  ;; ACTION_LONG_BACK
        MOV      R2,R7
        LDR      R1,[R0, #+0]
        MOV      R0,R4
        MOV      R1,R1, LSL #+16
        MOV      R1,R1, LSR #+16
        SWI      +331
//  447   GUIObject_SoftKeys_SetAction(MR,ACTION_SELECT1,OnEntMR);
        LDR      R0,??DataTable38  ;; ACTION_SELECT1
        LDR      R2,??MenuResultat_2  ;; ??OnEntMR
        LDR      R7,[R0, #+0]
        MOV      R0,R4
        MOV      R1,R7, LSL #+16
        MOV      R1,R1, LSR #+16
        SWI      +331
//  448   GUIObject_SoftKeys_SetAction(MR,1,DeleteRes);
        LDR      R2,??MenuResultat_2+0x4  ;; ??DeleteRes
        MOV      R1,#+1
        MOV      R0,R4
        SWI      +331
//  449   GUIObject_SoftKeys_SetText(MR,1,STR("Сброс"));
        MOV      R2,R6
        MOV      R1,#+0
        ADD      R0,R5,#+112
        SWI      +349
        MOV      R2,R0
        MOV      R1,#+1
        MOV      R0,R4
        SWI      +332
//  450   GUIObject_SoftKeys_SetText(MR,ACTION_SELECT1,STR("Просм."));
        MOV      R2,R6
        MOV      R1,#+0
        ADD      R0,R5,#+124
        SWI      +349
        MOV      R2,R0
        MOV      R1,R7, LSL #+16
        MOV      R1,R1, LSR #+16
        MOV      R0,R4
        SWI      +332
//  451   GUIObject_Show(MR);
        MOV      R0,R4
        SWI      +308
//  452 }
        POP      {R4-R7,PC}       ;; return
        DATA
??MenuResultat_2:
        DC32     ??OnEntMR
        DC32     ??DeleteRes
        CFI EndBlock cfiBlock51

        RSEG CODE:CODE:NOROOT(2)
        CFI Block cfiBlock52 Using cfiCommon0
        CFI NoFunction
        THUMB
??CreateNM??rT:
        BX       PC
        Nop      
        CFI EndBlock cfiBlock52
        REQUIRE ??CreateNM
//  453 

        RSEG CODE:CODE:NOROOT(2)
        CFI Block cfiBlock53 Using cfiCommon1
        CFI Function ??CreateNM
        ARM
//  454 void CreateNM(MyBook*bk)
//  455 {
??CreateNM:
        PUSH     {R4,R5,LR}
        CFI ?RET Frame(CFA, -4)
        CFI R5 Frame(CFA, -8)
        CFI R4 Frame(CFA, -12)
        CFI CFA R13+12
        MOV      R4,R0
//  456   if(bk->gui) GUIObject_Destroy(bk->gui);
        LDR      R0,[R4, #+396]
        CMP      R0,#+0
        BEQ      ??CreateNM_1
        SWI      +462
//  457   bk->gui=0;
        MOV      R0,#+0
??CreateNM_1:
        STR      R0,[R4, #+396]
//  458   GUI_LIST*NM=CreateListMenu((BOOK*)bk,0);
        MOV      R1,#+0
        MOV      R0,R4
        SWI      +448
        MOV      R5,R0
//  459   ((MyBook*)bk)->gui=NM;
//  460   GUIObject_SetTitleText(NM, TextID_Create(L"Настройки",ENC_UCS2,TEXTID_ANY_LEN));
        LDR      R0,??CreateNM_2  ;; `?<Constant L"\\x412\\x44b\\x439\\x442\\x438\\x20\\x43` + 140
        STR      R5,[R4, #+396]
        MOV      R2,#+255
        ORR      R2,R2,#0xFF00
//  461   ListMenu_SetItemCount(NM, 2);
//  462   OneOfMany_SetOnMessage(NM,SetTitlePunktsNM);
//  463   ListMenu_SetCursorToItem(NM,0);
//  464   ListMenu_SetItemStyle(NM,0);
//  465   GUIObject_SoftKeys_SetAction(NM,ACTION_BACK,ExitNM);
        LDR      R4,??DataTable42  ;; ??ExitNM
        MOV      R1,#+0
        SWI      +349
        MOV      R1,R0
        MOV      R0,R5
        SWI      +307
        MOV      R1,#+2
        MOV      R0,R5
        SWI      +449
        LDR      R1,??CreateNM_2+0x4  ;; ??SetTitlePunktsNM
        MOV      R0,R5
        SWI      +481
        MOV      R1,#+0
        MOV      R0,R5
        SWI      +309
        MOV      R1,#+0
        MOV      R0,R5
        SWI      +319
        LDR      R0,??DataTable40  ;; ACTION_BACK
        MOV      R2,R4
        LDR      R1,[R0, #+0]
        MOV      R0,R5
        MOV      R1,R1, LSL #+16
        MOV      R1,R1, LSR #+16
        SWI      +331
//  466   GUIObject_SoftKeys_SetAction(NM,ACTION_LONG_BACK,ExitNM);
        LDR      R0,??DataTable41  ;; ACTION_LONG_BACK
        MOV      R2,R4
        LDR      R1,[R0, #+0]
        MOV      R0,R5
        MOV      R1,R1, LSL #+16
        MOV      R1,R1, LSR #+16
        SWI      +331
//  467   GUIObject_SoftKeys_SetAction(NM,ACTION_SELECT1,OnEntNM);
        LDR      R0,??DataTable38  ;; ACTION_SELECT1
        LDR      R2,??CreateNM_2+0x8  ;; ??OnEntNM
        LDR      R1,[R0, #+0]
        MOV      R0,R5
        MOV      R1,R1, LSL #+16
        MOV      R1,R1, LSR #+16
        SWI      +331
//  468   GUIObject_Show(NM);
        MOV      R0,R5
        SWI      +308
//  469 }
        POP      {R4,R5,PC}       ;; return
        DATA
??CreateNM_2:
        DC32     `?<Constant L"\\x412\\x44b\\x439\\x442\\x438\\x20\\x43` + 140
        DC32     ??SetTitlePunktsNM
        DC32     ??OnEntNM
        CFI EndBlock cfiBlock53

        RSEG CODE:CODE:NOROOT(2)
        DATA
??DataTable38:
        DC32     ACTION_SELECT1

        RSEG CODE:CODE:NOROOT(2)
        CFI Block cfiBlock54 Using cfiCommon0
        CFI NoFunction
        THUMB
??YesPress??rT:
        BX       PC
        Nop      
        CFI EndBlock cfiBlock54
        REQUIRE ??YesPress
//  470   
//  471 

        RSEG CODE:CODE:NOROOT(2)
        CFI Block cfiBlock55 Using cfiCommon1
        CFI Function ??YesPress
        ARM
//  472 void YesPress( BOOK* bk, GUI* )
//  473 {
??YesPress:
        PUSH     {LR}
        CFI ?RET Frame(CFA, -4)
        CFI CFA R13+4
//  474   FreeBook(bk);
        SWI      +303
//  475 }
        POP      {PC}             ;; return
        CFI EndBlock cfiBlock55

        RSEG CODE:CODE:NOROOT(2)
        CFI Block cfiBlock56 Using cfiCommon0
        CFI NoFunction
        THUMB
??NoPress??rT:
        BX       PC
        Nop      
        CFI EndBlock cfiBlock56
        REQUIRE ??NoPress
//  476 

        RSEG CODE:CODE:NOROOT(2)
        CFI Block cfiBlock57 Using cfiCommon1
        CFI Function ??NoPress
        ARM
//  477 void NoPress( BOOK* bk, GUI* )
//  478 {
??NoPress:
        PUSH     {R4,LR}
        CFI ?RET Frame(CFA, -4)
        CFI R4 Frame(CFA, -8)
        CFI CFA R13+8
        MOV      R4,R0
//  479   GUIObject_Destroy(((MyBook*)bk)->gui1);
        LDR      R0,[R4, #+392]
        SWI      +462
//  480   ((MyBook*)bk)->gui1=0;
        MOV      R0,#+0
        STR      R0,[R4, #+392]
//  481   GUIObject_Show(((MyBook*)bk)->gui);
        LDR      R0,[R4, #+396]
        SWI      +308
//  482 }
        POP      {R4,PC}          ;; return
        CFI EndBlock cfiBlock57

        RSEG CODE:CODE:NOROOT(2)
        CFI Block cfiBlock58 Using cfiCommon0
        CFI NoFunction
        THUMB
??YesNo??rT:
        BX       PC
        Nop      
        CFI EndBlock cfiBlock58
        REQUIRE ??YesNo
//  483 

        RSEG CODE:CODE:NOROOT(2)
        CFI Block cfiBlock59 Using cfiCommon1
        CFI Function ??YesNo
        ARM
//  484 void YesNo(MyBook*bk)
//  485 {
??YesNo:
        PUSH     {R4,R5,LR}
        CFI ?RET Frame(CFA, -4)
        CFI R5 Frame(CFA, -8)
        CFI R4 Frame(CFA, -12)
        CFI CFA R13+12
//  486   bk->gui1=CreateYesNoQuestionVA(0,
//  487                                     VAR_BOOK(bk),
//  488                                     VAR_YESNO_QUESTION(TextID_Create(L"Выйти?", ENC_UCS2, TEXTID_ANY_LEN)),
//  489                                     0);
        MOV      R2,#+255
        MOV      R4,R0
        LDR      R0,??YesNo_1     ;; `?<Constant L"\\x412\\x44b\\x439\\x442\\x438\\x3f">`
        ORR      R2,R2,#0xFF00
//  490   GUIObject_SoftKeys_SetAction(bk->gui1, ACTION_YES, YesPress);
//  491   GUIObject_SoftKeys_SetAction(bk->gui1, ACTION_NO,  NoPress);
        LDR      R5,??YesNo_1+0x4  ;; ??NoPress
        MOV      R1,#+0
        SWI      +349
        LDR      R3,??YesNo_1+0x8  ;; VAR_ARG_YESNO_QUESTION
        MOV      R1,#+0
        PUSH     {R1}
        CFI CFA R13+16
        LDR      R1,??DataTable39  ;; VAR_ARG_BOOK
        PUSH     {R0}
        CFI CFA R13+20
        MOV      R2,R4
        MOV      R0,#+0
        SWI      +677
        LDR      R2,??YesNo_1+0xC  ;; ??YesPress
        STR      R0,[R4, #+392]
        LDR      R0,??YesNo_1+0x10  ;; ACTION_YES
        LDR      R1,[R0, #+0]
        LDR      R0,[R4, #+392]
        MOV      R1,R1, LSL #+16
        MOV      R1,R1, LSR #+16
        SWI      +331
        LDR      R0,??YesNo_1+0x14  ;; ACTION_NO
        MOV      R2,R5
        LDR      R1,[R0, #+0]
        LDR      R0,[R4, #+392]
        MOV      R1,R1, LSL #+16
        MOV      R1,R1, LSR #+16
        SWI      +331
//  492   GUIObject_SoftKeys_SetAction(bk->gui1, ACTION_BACK, NoPress);
        LDR      R0,??DataTable40  ;; ACTION_BACK
        MOV      R2,R5
        LDR      R1,[R0, #+0]
        LDR      R0,[R4, #+392]
        MOV      R1,R1, LSL #+16
        MOV      R1,R1, LSR #+16
        SWI      +331
//  493   GUIObject_SoftKeys_SetAction(bk->gui1, ACTION_LONG_BACK, NoPress);
        LDR      R0,??DataTable41  ;; ACTION_LONG_BACK
        MOV      R2,R5
        LDR      R1,[R0, #+0]
        LDR      R0,[R4, #+392]
        MOV      R1,R1, LSL #+16
        MOV      R1,R1, LSR #+16
        SWI      +331
//  494   GUIObject_Show(((MyBook*)bk)->gui1);
        LDR      R0,[R4, #+392]
        SWI      +308
//  495 }
        POP      {R0,R1,R4,R5,PC}  ;; return
        DATA
??YesNo_1:
        DC32     `?<Constant L"\\x412\\x44b\\x439\\x442\\x438\\x3f">`
        DC32     ??NoPress
        DC32     VAR_ARG_YESNO_QUESTION
        DC32     ??YesPress
        DC32     ACTION_YES
        DC32     ACTION_NO
        CFI EndBlock cfiBlock59

        RSEG CODE:CODE:NOROOT(2)
        DATA
??DataTable39:
        DC32     VAR_ARG_BOOK

        RSEG CODE:CODE:NOROOT(2)
        DATA
??DataTable40:
        DC32     ACTION_BACK

        RSEG CODE:CODE:NOROOT(2)
        DATA
??DataTable41:
        DC32     ACTION_LONG_BACK

        RSEG CODE:CODE:NOROOT(2)
        CFI Block cfiBlock60 Using cfiCommon0
        CFI NoFunction
        THUMB
??ExitGM??rT:
        BX       PC
        Nop      
        CFI EndBlock cfiBlock60
        REQUIRE ??ExitGM
//  496 

        RSEG CODE:CODE:NOROOT(2)
        CFI Block cfiBlock61 Using cfiCommon1
        CFI Function ??ExitGM
        ARM
//  497 void ExitGM( BOOK* bk, GUI* )
//  498 {
//  499   YesNo((MyBook*)bk);
??ExitGM:
        B        ??YesNo          ;; tailcall
        CFI EndBlock cfiBlock61
//  500 }

        RSEG CODE:CODE:NOROOT(2)
        CFI Block cfiBlock62 Using cfiCommon0
        CFI NoFunction
        THUMB
??CreateGameM??rT:
        BX       PC
        Nop      
        CFI EndBlock cfiBlock62
        REQUIRE ??CreateGameM
//  501 
//  502 
//  503 

        RSEG CODE:CODE:NOROOT(2)
        CFI Block cfiBlock63 Using cfiCommon1
        CFI Function ??CreateGameM
        ARM
//  504 void CreateGameM(MyBook*bk)
//  505 {
??CreateGameM:
        PUSH     {R4,R5,LR}
        CFI ?RET Frame(CFA, -4)
        CFI R5 Frame(CFA, -8)
        CFI R4 Frame(CFA, -12)
        CFI CFA R13+12
        MOV      R4,R0
//  506   if(bk->gui) GUIObject_Destroy(bk->gui);
        LDR      R0,[R4, #+396]
        CMP      R0,#+0
        BEQ      ??CreateGameM_1
        SWI      +462
//  507   bk->gui=0;
        MOV      R0,#+0
??CreateGameM_1:
        STR      R0,[R4, #+396]
//  508   GUI_LIST*GameM=CreateListMenu((BOOK*)bk,0);
        MOV      R1,#+0
        MOV      R0,R4
        SWI      +448
        MOV      R5,R0
//  509   ((MyBook*)bk)->gui=GameM;
//  510   GUIObject_SetTitleText(GameM, TextID_Create(L"Выбор уровня",ENC_UCS2,TEXTID_ANY_LEN));
        LDR      R0,??CreateGameM_2  ;; `?<Constant L"\\x412\\x44b\\x431\\x43e\\x440\\x20\\x44`
        STR      R5,[R4, #+396]
        MOV      R2,#+255
        ORR      R2,R2,#0xFF00
//  511   ListMenu_SetItemCount(GameM, 3);
//  512   OneOfMany_SetOnMessage(GameM,SetTitlePunktsMR);
//  513   ListMenu_SetCursorToItem(GameM,0);
//  514   ListMenu_SetItemStyle(GameM,0);
//  515   GUIObject_SoftKeys_SetAction(GameM,ACTION_BACK,ExitNM);
        LDR      R4,??DataTable42  ;; ??ExitNM
        MOV      R1,#+0
        SWI      +349
        MOV      R1,R0
        MOV      R0,R5
        SWI      +307
        MOV      R1,#+3
        MOV      R0,R5
        SWI      +449
        LDR      R1,??DataTable43  ;; ??SetTitlePunktsMR
        MOV      R0,R5
        SWI      +481
        MOV      R1,#+0
        MOV      R0,R5
        SWI      +309
        MOV      R1,#+0
        MOV      R0,R5
        SWI      +319
        LDR      R0,??DataTable48  ;; ACTION_BACK
        MOV      R2,R4
        LDR      R1,[R0, #+0]
        MOV      R0,R5
        MOV      R1,R1, LSL #+16
        MOV      R1,R1, LSR #+16
        SWI      +331
//  516   GUIObject_SoftKeys_SetAction(GameM,ACTION_LONG_BACK,ExitNM);
        LDR      R0,??DataTable49  ;; ACTION_LONG_BACK
        MOV      R2,R4
        LDR      R1,[R0, #+0]
        MOV      R0,R5
        MOV      R1,R1, LSL #+16
        MOV      R1,R1, LSR #+16
        SWI      +331
//  517   GUIObject_SoftKeys_SetAction(GameM,ACTION_SELECT1,OnEntGameM);
        LDR      R0,??DataTable50  ;; ACTION_SELECT1
        LDR      R2,??CreateGameM_2+0x4  ;; ??OnEntGameM
        LDR      R1,[R0, #+0]
        MOV      R0,R5
        MOV      R1,R1, LSL #+16
        MOV      R1,R1, LSR #+16
        SWI      +331
//  518   GUIObject_Show(GameM);
        MOV      R0,R5
        SWI      +308
//  519 }
        POP      {R4,R5,PC}       ;; return
        DATA
??CreateGameM_2:
        DC32     `?<Constant L"\\x412\\x44b\\x431\\x43e\\x440\\x20\\x44`
        DC32     ??OnEntGameM
        CFI EndBlock cfiBlock63

        RSEG CODE:CODE:NOROOT(2)
        DATA
??DataTable42:
        DC32     ??ExitNM

        RSEG CODE:CODE:NOROOT(2)
        DATA
??DataTable43:
        DC32     ??SetTitlePunktsMR

        RSEG CODE:CODE:NOROOT(2)
        CFI Block cfiBlock64 Using cfiCommon0
        CFI NoFunction
        THUMB
??OnEntGM??rT:
        BX       PC
        Nop      
        CFI EndBlock cfiBlock64
        REQUIRE ??OnEntGM
//  520 

        RSEG CODE:CODE:NOROOT(2)
        CFI Block cfiBlock65 Using cfiCommon1
        CFI Function ??OnEntGM
        ARM
//  521 void OnEntGM( BOOK* bk, GUI* )
//  522 {
??OnEntGM:
        PUSH     {R4,LR}
        CFI ?RET Frame(CFA, -4)
        CFI R4 Frame(CFA, -8)
        CFI CFA R13+8
        MOV      R4,R0
//  523   int item=ListMenu_GetSelectedItem(((MyBook*)bk)->gui);
        LDR      R0,[R4, #+396]
        SWI      +318
//  524   if(item==0)
        CMP      R0,#+0
        BNE      ??OnEntGM_1
//  525   {
//  526     CreateGameM((MyBook*)bk);
        MOV      R0,R4
        BL       ??CreateGameM
        POP      {R4,PC}
//  527   }
//  528   if(item==1)
??OnEntGM_1:
        CMP      R0,#+1
        BNE      ??OnEntGM_2
//  529   {
//  530     CreateNM((MyBook*)bk);    
        MOV      R0,R4
        BL       ??CreateNM
        POP      {R4,PC}
//  531   }
//  532   if(item==2)
??OnEntGM_2:
        CMP      R0,#+2
        BNE      ??OnEntGM_3
//  533   {
//  534     MenuResultat((MyBook*)bk);
        MOV      R0,R4
        BL       ??MenuResultat
        POP      {R4,PC}
//  535   }
//  536   if(item==3)
??OnEntGM_3:
        CMP      R0,#+3
        BNE      ??OnEntGM_4
//  537   {
//  538     ShowInfo();
        _BLF     ??ShowInfo,??ShowInfo??rA
        POP      {R4,PC}
//  539   }
//  540   if(item==4)
??OnEntGM_4:
        CMP      R0,#+4
        POPNE    {R4,PC}
//  541   {
//  542     ExitGM(bk,0);
        MOV      R1,#+0
        MOV      R0,R4
        BL       ??ExitGM
//  543   }
//  544 }
        POP      {R4,PC}          ;; return
        CFI EndBlock cfiBlock65

        RSEG CODE:CODE:NOROOT(2)
        CFI Block cfiBlock66 Using cfiCommon0
        CFI NoFunction
        THUMB
??SetTitlePunktsGM??rT:
        BX       PC
        Nop      
        CFI EndBlock cfiBlock66
        REQUIRE ??SetTitlePunktsGM
//  545 

        RSEG CODE:CODE:NOROOT(2)
        CFI Block cfiBlock67 Using cfiCommon1
        CFI Function ??SetTitlePunktsGM
        ARM
//  546 int SetTitlePunktsGM(GUI_MESSAGE * msg)
//  547 {
??SetTitlePunktsGM:
        PUSH     {R4-R6,LR}
        CFI ?RET Frame(CFA, -4)
        CFI R6 Frame(CFA, -8)
        CFI R5 Frame(CFA, -12)
        CFI R4 Frame(CFA, -16)
        CFI CFA R13+16
        SUB      SP,SP,#+4
        CFI CFA R13+20
        MOV      R4,R0
//  548   int item;
//  549   int ID;
//  550   switch( GUIonMessage_GetMsg(msg) )
        SWI      +884
        CMP      R0,#+1
        BNE      ??SetTitlePunktsGM_1
//  551   {
//  552     case 1:
//  553       item=GUIonMessage_GetCreatedItemIndex(msg);
//  554       if(item==0)
        LDR      R5,??DataTable47  ;; `?<Constant L"\\x412\\x44b\\x439\\x442\\x438\\x20\\x43`
        MOV      R0,R4
        SWI      +311
        MOV      R6,#+255
        ORR      R6,R6,#0xFF00
        CMP      R0,#+0
        BNE      ??SetTitlePunktsGM_2
//  555       {
//  556         ID=TextID_Create(L"Новая игра",ENC_UCS2,TEXTID_ANY_LEN);
        MOV      R2,R6
        MOV      R1,#+0
        ADD      R0,R5,#+160
        SWI      +349
        STR      R0,[SP, #+0]
//  557         GUIonMessage_SetMenuItemText(msg,ID);
        MOV      R1,R0
        MOV      R0,R4
        SWI      +312
//  558         ID=TextID_Create(L"Начать игру!",ENC_UCS2,TEXTID_ANY_LEN);
        MOV      R2,R6
        MOV      R1,#+0
        ADD      R0,R5,#+184
        SWI      +349
        STR      R0,[SP, #+0]
//  559         GUIonMessage_SetMenuItemSecondLineText(msg,ID);
        MOV      R1,R0
        MOV      R0,R4
        SWI      +313
//  560         iconidname2id(L"PROFILE_INCAR_LIST_ICN", -1, &ID);
        MOV      R2,SP
        MVN      R1,#+0
        ADD      R0,R5,#+212
        B        ??SetTitlePunktsGM_3
//  561         GUIonMessage_SetMenuItemIcon(msg, 0, ID);
//  562       }
//  563       if(item==1)
??SetTitlePunktsGM_2:
        CMP      R0,#+1
        BNE      ??SetTitlePunktsGM_4
//  564       {
//  565         ID=TextID_Create(L"Настройки",ENC_UCS2,TEXTID_ANY_LEN);
        MOV      R2,R6
        MOV      R1,#+0
        ADD      R0,R5,#+140
        SWI      +349
        STR      R0,[SP, #+0]
//  566         GUIonMessage_SetMenuItemText(msg,ID);
        MOV      R1,R0
        MOV      R0,R4
        SWI      +312
//  567         ID=TextID_Create(L"Поковыряца",ENC_UCS2,TEXTID_ANY_LEN);
        MOV      R2,R6
        MOV      R1,#+0
        ADD      R0,R5,#+260
        SWI      +349
        STR      R0,[SP, #+0]
//  568         GUIonMessage_SetMenuItemSecondLineText(msg,ID);
        MOV      R1,R0
        MOV      R0,R4
        SWI      +313
//  569         iconidname2id(L"MENU_SETTINGS_ICN", -1, &ID);
        MOV      R2,SP
        MVN      R1,#+0
        ADD      R0,R5,#+284
        B        ??SetTitlePunktsGM_3
//  570         GUIonMessage_SetMenuItemIcon(msg, 0, ID);
//  571       }
//  572       if(item==2)
??SetTitlePunktsGM_4:
        CMP      R0,#+2
        BNE      ??SetTitlePunktsGM_5
//  573       {
//  574         ID=TextID_Create(L"Результаты",ENC_UCS2,TEXTID_ANY_LEN);
        MOV      R2,R6
        MOV      R1,#+0
        ADD      R0,R5,#+88
        SWI      +349
        STR      R0,[SP, #+0]
//  575         GUIonMessage_SetMenuItemText(msg,ID);
        MOV      R1,R0
        MOV      R0,R4
        SWI      +312
//  576         ID=TextID_Create(L"Просмотр результатов",ENC_UCS2,TEXTID_ANY_LEN);
        MOV      R2,R6
        MOV      R1,#+0
        ADD      R0,R5,#+320
        SWI      +349
        STR      R0,[SP, #+0]
//  577         GUIonMessage_SetMenuItemSecondLineText(msg,ID);
        MOV      R1,R0
        MOV      R0,R4
        SWI      +313
//  578         iconidname2id(L"MISCELLANEOUS_ICN", -1, &ID);
        MOV      R2,SP
        MVN      R1,#+0
        ADD      R0,R5,#+364
        B        ??SetTitlePunktsGM_3
//  579         GUIonMessage_SetMenuItemIcon(msg, 0, ID);
//  580       }
//  581       if(item==3)
??SetTitlePunktsGM_5:
        CMP      R0,#+3
        BNE      ??SetTitlePunktsGM_6
//  582       {
//  583         ID=TextID_Create(L"Инфо",ENC_UCS2,TEXTID_ANY_LEN);
        MOV      R2,R6
        MOV      R1,#+0
        ADD      R0,R5,#+400
        SWI      +349
        STR      R0,[SP, #+0]
//  584         GUIonMessage_SetMenuItemText(msg,ID);
        MOV      R1,R0
        MOV      R0,R4
        SWI      +312
//  585         ID=TextID_Create(L"Информация",ENC_UCS2,TEXTID_ANY_LEN);
        MOV      R2,R6
        MOV      R1,#+0
        ADD      R0,R5,#+412
        SWI      +349
        STR      R0,[SP, #+0]
//  586         GUIonMessage_SetMenuItemSecondLineText(msg,ID);
        MOV      R1,R0
        MOV      R0,R4
        SWI      +313
//  587         iconidname2id(L"HELP_TEXT_ICN", -1, &ID);
        MOV      R2,SP
        MVN      R1,#+0
        ADD      R0,R5,#+436
        B        ??SetTitlePunktsGM_3
//  588         GUIonMessage_SetMenuItemIcon(msg, 0, ID);
//  589       }
//  590       if(item==4)
??SetTitlePunktsGM_6:
        CMP      R0,#+4
        BNE      ??SetTitlePunktsGM_1
//  591       {
//  592         ID=TextID_Create(L"Выход",ENC_UCS2,TEXTID_ANY_LEN);
        MOV      R2,R6
        MOV      R1,#+0
        ADD      R0,R5,#+464
        SWI      +349
        STR      R0,[SP, #+0]
//  593         GUIonMessage_SetMenuItemText(msg,ID);
        MOV      R1,R0
        MOV      R0,R4
        SWI      +312
//  594         ID=TextID_Create(L"Выйти из игры",ENC_UCS2,TEXTID_ANY_LEN);
        MOV      R2,R6
        MOV      R1,#+0
        MOV      R0,R5
        SWI      +349
        STR      R0,[SP, #+0]
//  595         GUIonMessage_SetMenuItemSecondLineText(msg,ID);
        MOV      R1,R0
        MOV      R0,R4
        SWI      +313
//  596         iconidname2id(L"FORBIDDEN_NETWORK_ICN", -1, &ID);
        MOV      R2,SP
        MVN      R1,#+0
        ADD      R0,R5,#+28
??SetTitlePunktsGM_3:
        SWI      +646
//  597         GUIonMessage_SetMenuItemIcon(msg, 0, ID);
        LDR      R2,[SP, #+0]
        MOV      R1,#+0
        MOV      R2,R2, LSL #+16
        MOV      R2,R2, LSR #+16
        MOV      R0,R4
        SWI      +316
//  598       }
//  599   }
//  600   return(1);        
??SetTitlePunktsGM_1:
        MOV      R0,#+1
        POP      {R1,R4-R6,PC}    ;; return
        CFI EndBlock cfiBlock67
//  601 }

        RSEG CODE:CODE:NOROOT(2)
        DATA
??DataTable47:
        DC32     `?<Constant L"\\x412\\x44b\\x439\\x442\\x438\\x20\\x43`

        RSEG CODE:CODE:NOROOT(2)
        CFI Block cfiBlock68 Using cfiCommon0
        CFI NoFunction
        THUMB
??CreateGM??rT:
        BX       PC
        Nop      
        CFI EndBlock cfiBlock68
        REQUIRE ??CreateGM
//  602 

        RSEG CODE:CODE:NOROOT(2)
        CFI Block cfiBlock69 Using cfiCommon1
        CFI Function ??CreateGM
        ARM
//  603 int CreateGM(void*, BOOK*bk)
//  604 {
??CreateGM:
        PUSH     {R4,R5,LR}
        CFI ?RET Frame(CFA, -4)
        CFI R5 Frame(CFA, -8)
        CFI R4 Frame(CFA, -12)
        CFI CFA R13+12
        MOV      R4,R1
//  605   int ID;
//  606   GUI_LIST*GM=CreateListMenu((BOOK*)bk,0);
        MOV      R1,#+0
        MOV      R0,R4
        SWI      +448
        MOV      R5,R0
//  607   if(((MyBook*)bk)->gui) GUIObject_Destroy(((MyBook*)bk)->gui);
        LDR      R0,[R4, #+396]
        CMP      R0,#+0
        BEQ      ??CreateGM_1
        SWI      +462
//  608   ((MyBook*)bk)->gui=0;
        MOV      R0,#+0
??CreateGM_1:
        STR      R0,[R4, #+396]
//  609   ((MyBook*)bk)->gui=GM;
//  610   ID=TextID_Create(L"Gono4ki",ENC_UCS2,TEXTID_ANY_LEN);
        LDR      R0,??CreateGM_2  ;; `?<Constant L"\\x47\\x6f\\x6e\\x6f\\x34\\x6b\\x69">`
        STR      R5,[R4, #+396]
        MOV      R2,#+255
        ORR      R2,R2,#0xFF00
//  611   GUIObject_SetTitleText(GM, ID);
//  612   ListMenu_SetItemCount(GM, 5);
//  613   OneOfMany_SetOnMessage(GM,SetTitlePunktsGM);
//  614   ListMenu_SetCursorToItem(GM,0);
//  615   ListMenu_SetItemStyle(GM,3);
//  616   GUIObject_SoftKeys_SetAction(GM,ACTION_BACK,ExitGM);
        LDR      R4,??CreateGM_2+0x4  ;; ??ExitGM
        MOV      R1,#+0
        SWI      +349
        MOV      R1,R0
        MOV      R0,R5
        SWI      +307
        MOV      R1,#+5
        MOV      R0,R5
        SWI      +449
        LDR      R1,??CreateGM_2+0x8  ;; ??SetTitlePunktsGM
        MOV      R0,R5
        SWI      +481
        MOV      R1,#+0
        MOV      R0,R5
        SWI      +309
        MOV      R1,#+3
        MOV      R0,R5
        SWI      +319
        LDR      R0,??DataTable48  ;; ACTION_BACK
        MOV      R2,R4
        LDR      R1,[R0, #+0]
        MOV      R0,R5
        MOV      R1,R1, LSL #+16
        MOV      R1,R1, LSR #+16
        SWI      +331
//  617   GUIObject_SoftKeys_SetAction(GM,ACTION_LONG_BACK,ExitGM);
        LDR      R0,??DataTable49  ;; ACTION_LONG_BACK
        MOV      R2,R4
        LDR      R1,[R0, #+0]
        MOV      R0,R5
        MOV      R1,R1, LSL #+16
        MOV      R1,R1, LSR #+16
        SWI      +331
//  618   GUIObject_SoftKeys_SetAction(GM,ACTION_SELECT1,OnEntGM);
        LDR      R0,??DataTable50  ;; ACTION_SELECT1
        LDR      R2,??CreateGM_2+0xC  ;; ??OnEntGM
        LDR      R1,[R0, #+0]
        MOV      R0,R5
        MOV      R1,R1, LSL #+16
        MOV      R1,R1, LSR #+16
        SWI      +331
//  619   GUIObject_Show(GM);
        MOV      R0,R5
        SWI      +308
//  620   return 0;
        MOV      R0,#+0
        POP      {R4,R5,PC}       ;; return
        DATA
??CreateGM_2:
        DC32     `?<Constant L"\\x47\\x6f\\x6e\\x6f\\x34\\x6b\\x69">`
        DC32     ??ExitGM
        DC32     ??SetTitlePunktsGM
        DC32     ??OnEntGM
        CFI EndBlock cfiBlock69
//  621 }

        RSEG CODE:CODE:NOROOT(2)
        DATA
??DataTable48:
        DC32     ACTION_BACK

        RSEG CODE:CODE:NOROOT(2)
        DATA
??DataTable49:
        DC32     ACTION_LONG_BACK

        RSEG CODE:CODE:NOROOT(2)
        DATA
??DataTable50:
        DC32     ACTION_SELECT1

        RSEG CODE:CODE:NOROOT(2)
        CFI Block cfiBlock70 Using cfiCommon1
        CFI NoFunction
        ARM
??MyBK??rA:
        LDR      R12,??Subroutine35_0  ;; ??MyBK
        BX       R12
        DATA
??Subroutine35_0:
        DC32     ??MyBK
        CFI EndBlock cfiBlock70

        RSEG CODE:CODE:NOROOT(2)
        CFI Block cfiBlock71 Using cfiCommon1
        CFI NoFunction
        ARM
??ImagesDel??rA:
        LDR      R12,??Subroutine36_0  ;; ??ImagesDel
        BX       R12
        DATA
??Subroutine36_0:
        DC32     ??ImagesDel
        CFI EndBlock cfiBlock71

        RSEG CODE:CODE:NOROOT(2)
        CFI Block cfiBlock72 Using cfiCommon1
        CFI NoFunction
        ARM
??CheckResurs??rA:
        LDR      R12,??Subroutine37_0  ;; ??CheckResurs
        BX       R12
        DATA
??Subroutine37_0:
        DC32     ??CheckResurs
        CFI EndBlock cfiBlock72

        RSEG CODE:CODE:NOROOT(2)
        CFI Block cfiBlock73 Using cfiCommon1
        CFI NoFunction
        ARM
??GetNamesOfIMN??rA:
        LDR      R12,??Subroutine38_0  ;; ??GetNamesOfIMN
        BX       R12
        DATA
??Subroutine38_0:
        DC32     ??GetNamesOfIMN
        CFI EndBlock cfiBlock73

        RSEG CODE:CODE:NOROOT(2)
        CFI Block cfiBlock74 Using cfiCommon1
        CFI NoFunction
        ARM
??isBookX??rA:
        LDR      R12,??Subroutine39_0  ;; ??isBookX
        BX       R12
        DATA
??Subroutine39_0:
        DC32     ??isBookX
        CFI EndBlock cfiBlock74

        RSEG CODE:CODE:NOROOT(2)
        CFI Block cfiBlock75 Using cfiCommon1
        CFI NoFunction
        ARM
??StatusSettings??rA:
        LDR      R12,??Subroutine40_0  ;; ??StatusSettings
        BX       R12
        DATA
??Subroutine40_0:
        DC32     ??StatusSettings
        CFI EndBlock cfiBlock75

        RSEG CODE:CODE:NOROOT(2)
        CFI Block cfiBlock76 Using cfiCommon1
        CFI NoFunction
        ARM
??GetStrokaIMG??rA:
        LDR      R12,??Subroutine41_0  ;; ??GetStrokaIMG
        BX       R12
        DATA
??Subroutine41_0:
        DC32     ??GetStrokaIMG
        CFI EndBlock cfiBlock76

        RSEG CODE:CODE:NOROOT(2)
        CFI Block cfiBlock77 Using cfiCommon1
        CFI NoFunction
        ARM
??NamesOfPunkts??rA:
        LDR      R12,??Subroutine42_0  ;; ??NamesOfPunkts
        BX       R12
        DATA
??Subroutine42_0:
        DC32     ??NamesOfPunkts
        CFI EndBlock cfiBlock77

        RSEG CODE:CODE:NOROOT(2)
        CFI Block cfiBlock78 Using cfiCommon1
        CFI NoFunction
        ARM
??StatusSettings1??rA:
        LDR      R12,??Subroutine43_0  ;; ??StatusSettings1
        BX       R12
        DATA
??Subroutine43_0:
        DC32     ??StatusSettings1
        CFI EndBlock cfiBlock78

        RSEG CODE:CODE:NOROOT(2)
        CFI Block cfiBlock79 Using cfiCommon1
        CFI NoFunction
        ARM
??DELTABL??rA:
        LDR      R12,??Subroutine44_0  ;; ??DELTABL
        BX       R12
        DATA
??Subroutine44_0:
        DC32     ??DELTABL
        CFI EndBlock cfiBlock79

        RSEG CODE:CODE:NOROOT(2)
        CFI Block cfiBlock80 Using cfiCommon1
        CFI NoFunction
        ARM
??ShowInfo??rA:
        LDR      R12,??Subroutine45_0  ;; ??ShowInfo
        BX       R12
        DATA
??Subroutine45_0:
        DC32     ??ShowInfo
        CFI EndBlock cfiBlock80

        END
// 
// 6 404 bytes in segment CODE
// 1 424 bytes in segment DATA_C
//    16 bytes in segment DYN_PAGE
// 
// 6 132 bytes of CODE  memory (+ 272 bytes shared)
// 1 440 bytes of CONST memory
//
//Errors: none
//Warnings: none
