##############################################################################
#                                                                            #
# IAR ARM ANSI C/C++ Compiler V4.42A/W32 EVALUATION    10/Jun/2013  22:58:36 #
# Copyright 1999-2005 IAR Systems. All rights reserved.                      #
#                                                                            #
#    Cpu mode        =  interwork                                            #
#    Endian          =  little                                               #
#    Stack alignment =  4                                                    #
#    Source file     =  Z:\home\perk11\www\perk11.info\svn\SE\Gono4ki\Menu.c #
#    Command line    =  Z:\home\perk11\www\perk11.info\svn\SE\Gono4ki\Menu.c #
#                        -D NDEBUG -D OLDFUNCTIONS -lC                       #
#                       Z:\home\perk11\www\perk11.info\svn\SE\Gono4ki\Releas #
#                       e\List\ -lA Z:\home\perk11\www\perk11.info\svn\SE\Go #
#                       no4ki\Release\List\ -o Z:\home\perk11\www\perk11.inf #
#                       o\svn\SE\Gono4ki\Release\Obj\ -s9 --no_unroll        #
#                       --no_inline --cpu_mode arm --endian little --cpu     #
#                       ARM926EJ-S --stack_align 4 --interwork -e            #
#                       --enable_multibytes --fpu None --eec++               #
#                       --dlib_config Z:\home\perk11\IAR2\arm\LIB\dl5tpainl8 #
#                       n.h -I Z:\home\perk11\IAR2\arm\INC\                  #
#    List file       =  Z:\home\perk11\www\perk11.info\svn\SE\Gono4ki\Releas #
#                       e\List\Menu.lst                                      #
#    Object file     =  Z:\home\perk11\www\perk11.info\svn\SE\Gono4ki\Releas #
#                       e\Obj\Menu.r79                                       #
#                                                                            #
#                                                                            #
##############################################################################

Z:\home\perk11\www\perk11.info\svn\SE\Gono4ki\Menu.c
      1          #include "..\\include\Lib_Clara.h"
      2          #include "..\\include\Dir.h"
      3          #include "..\\include\var_arg.h"
      4          #include "..\\include\cfg_items.h"
      5          #include "StructBook.h"

   \                                 In segment DATA_C, align 4, align-sorted
   \                     `?<Constant L"\\x43\\x41\\x4c\\x4c\\x53\\x5f\\x49\\x4e\\`:
   \   00000000   430041004C00       DC8 43H, 0, 41H, 0, 4CH, 0, 4CH, 0
   \              4C00        
   \   00000008   53005F004900       DC8 53H, 0, 5FH, 0, 49H, 0, 4EH, 0
   \              4E00        
   \   00000010   43004F004D00       DC8 43H, 0, 4FH, 0, 4DH, 0, 49H, 0
   \              4900        
   \   00000018   4E0047005F00       DC8 4EH, 0, 47H, 0, 5FH, 0, 49H, 0
   \              4900        
   \   00000020   43004E000000       DC8 43H, 0, 4EH, 0, 0, 0
   \   00000026   0000               DC8 0, 0
   \   00000028   440042005F00       DC8 44H, 0, 42H, 0, 5FH, 0, 4CH, 0
   \              4C00        
   \   00000030   490053005400       DC8 49H, 0, 53H, 0, 54H, 0, 5FH, 0
   \              5F00        
   \   00000038   500049004300       DC8 50H, 0, 49H, 0, 43H, 0, 54H, 0
   \              5400        
   \   00000040   550052004500       DC8 55H, 0, 52H, 0, 45H, 0, 5FH, 0
   \              5F00        
   \   00000048   490043004E00       DC8 49H, 0, 43H, 0, 4EH, 0, 0, 0
   \              0000        
   \   00000050   1A0430044004       DC8 1AH, 4, 30H, 4, 40H, 4, 42H, 4
   \              4204        
   \   00000058   38043D043A04       DC8 38H, 4, 3DH, 4, 3AH, 4, 38H, 4
   \              3804        
   \   00000060   3A000000           DC8 3AH, 0, 0, 0
   \   00000064   210432043E04       DC8 21H, 4, 32H, 4, 3EH, 4, 38H, 4
   \              3804        
   \   0000006C   0000               DC8 0, 0
   \   0000006E   0000               DC8 0, 0
   \   00000070   180437042000       DC8 18H, 4, 37H, 4, 20H, 0, 4DH, 4
   \              4D04        
   \   00000078   3B044C044404       DC8 3BH, 4, 4CH, 4, 44H, 4, 30H, 4
   \              3004        
   \   00000080   0000               DC8 0, 0
   \   00000082   0000               DC8 0, 0
   \   00000084   430041004C00       DC8 43H, 0, 41H, 0, 4CH, 0, 4CH, 0
   \              4C00        
   \   0000008C   53005F004F00       DC8 53H, 0, 5FH, 0, 4FH, 0, 55H, 0
   \              5500        
   \   00000094   540047004F00       DC8 54H, 0, 47H, 0, 4FH, 0, 49H, 0
   \              4900        
   \   0000009C   4E0047005F00       DC8 4EH, 0, 47H, 0, 5FH, 0, 49H, 0
   \              4900        
   \   000000A4   43004E000000       DC8 43H, 0, 4EH, 0, 0, 0
   \   000000AA   0000               DC8 0, 0
   \   000000AC   1A0430044004       DC8 1AH, 4, 30H, 4, 40H, 4, 42H, 4
   \              4204        
   \   000000B4   38043D043A04       DC8 38H, 4, 3DH, 4, 3AH, 4, 38H, 4
   \              3804        
   \   000000BC   0000               DC8 0, 0
   \   000000BE   0000               DC8 0, 0
   \   000000C0   180437043C04       DC8 18H, 4, 37H, 4, 3CH, 4, 35H, 4
   \              3504        
   \   000000C8   3D0438044204       DC8 3DH, 4, 38H, 4, 42H, 4, 4CH, 4
   \              4C04        
   \   000000D0   0000               DC8 0, 0
   \   000000D2   0000               DC8 0, 0
   \   000000D4   440042005F00       DC8 44H, 0, 42H, 0, 5FH, 0, 4CH, 0
   \              4C00        
   \   000000DC   490053005400       DC8 49H, 0, 53H, 0, 54H, 0, 5FH, 0
   \              5F00        
   \   000000E4   53004F005500       DC8 53H, 0, 4FH, 0, 55H, 0, 4EH, 0
   \              4E00        
   \   000000EC   44005F004900       DC8 44H, 0, 5FH, 0, 49H, 0, 4DH, 0
   \              4D00        
   \   000000F4   45004C004F00       DC8 45H, 0, 4CH, 0, 4FH, 0, 44H, 0
   \              4400        
   \   000000FC   59005F004900       DC8 59H, 0, 5FH, 0, 49H, 0, 43H, 0
   \              4300        
   \   00000104   4E000000           DC8 4EH, 0, 0, 0
   \   00000108   170432044304       DC8 17H, 4, 32H, 4, 43H, 4, 3AH, 4
   \              3A04        
   \   00000110   0000               DC8 0, 0
   \   00000112   0000               DC8 0, 0
   \   00000114   440042005F00       DC8 44H, 0, 42H, 0, 5FH, 0, 4CH, 0
   \              4C00        
   \   0000011C   490053005400       DC8 49H, 0, 53H, 0, 54H, 0, 5FH, 0
   \              5F00        
   \   00000124   53004F005500       DC8 53H, 0, 4FH, 0, 55H, 0, 4EH, 0
   \              4E00        
   \   0000012C   44005F004500       DC8 44H, 0, 5FH, 0, 45H, 0, 4DH, 0
   \              4D00        
   \   00000134   45004C004F00       DC8 45H, 0, 4CH, 0, 4FH, 0, 44H, 0
   \              4400        
   \   0000013C   59005F004900       DC8 59H, 0, 5FH, 0, 49H, 0, 43H, 0
   \              4300        
   \   00000144   4E000000           DC8 4EH, 0, 0, 0
   \   00000148   1C0443043704       DC8 1CH, 4, 43H, 4, 37H, 4, 4BH, 4
   \              4B04        
   \   00000150   3A0430040000       DC8 3AH, 4, 30H, 4, 0, 0
   \   00000156   0000               DC8 0, 0
   \   00000158   45004E005400       DC8 45H, 0, 4EH, 0, 54H, 0, 45H, 0
   \              4500        
   \   00000160   520054004100       DC8 52H, 0, 54H, 0, 41H, 0, 49H, 0
   \              4900        
   \   00000168   4E004D004500       DC8 4EH, 0, 4DH, 0, 45H, 0, 4EH, 0
   \              4E00        
   \   00000170   54005F004D00       DC8 54H, 0, 5FH, 0, 4DH, 0, 45H, 0
   \              4500        
   \   00000178   4E0055005F00       DC8 4EH, 0, 55H, 0, 5FH, 0, 4DH, 0
   \              4D00        
   \   00000180   490044004900       DC8 49H, 0, 44H, 0, 49H, 0, 5FH, 0
   \              5F00        
   \   00000188   43004F004D00       DC8 43H, 0, 4FH, 0, 4DH, 0, 50H, 0
   \              5000        
   \   00000190   5F0049004300       DC8 5FH, 0, 49H, 0, 43H, 0, 4EH, 0
   \              4E00        
   \   00000198   0000               DC8 0, 0
   \   0000019A   0000               DC8 0, 0
   \   0000019C   45004E005400       DC8 45H, 0, 4EH, 0, 54H, 0, 45H, 0
   \              4500        
   \   000001A4   520054004100       DC8 52H, 0, 54H, 0, 41H, 0, 49H, 0
   \              4900        
   \   000001AC   4E004D004500       DC8 4EH, 0, 4DH, 0, 45H, 0, 4EH, 0
   \              4E00        
   \   000001B4   54005F004D00       DC8 54H, 0, 5FH, 0, 4DH, 0, 45H, 0
   \              4500        
   \   000001BC   4E0055005F00       DC8 4EH, 0, 55H, 0, 5FH, 0, 50H, 0
   \              5000        
   \   000001C4   490043005400       DC8 49H, 0, 43H, 0, 54H, 0, 55H, 0
   \              5500        
   \   000001CC   520045004500       DC8 52H, 0, 45H, 0, 45H, 0, 44H, 0
   \              4400        
   \   000001D4   490054004F00       DC8 49H, 0, 54H, 0, 4FH, 0, 52H, 0
   \              5200        
   \   000001DC   5F0049004300       DC8 5FH, 0, 49H, 0, 43H, 0, 4EH, 0
   \              4E00        
   \   000001E4   0000               DC8 0, 0
   \   000001E6   0000               DC8 0, 0
   \   000001E8   476F6E6F346B       DC8 "Gono4ki"
   \              6900        
      6          #include "Menu.h"
      7          #include "MyFUNC.h"
      8          #include "Game.h"
      9          #include "ErrorIAR.h"
     10          #include "Rec_Check.h"
     11          
     12          

   \                                 In segment DYN_PAGE, align 4, align-sorted
     13          const PAGE_MSG bk_msglst_gm[] @ "DYN_PAGE"  = 
   \                     bk_msglst_gm:
   \   00000000   42000000....       DC32 66, ??CreateGame, 64, 0H
   \              ....40000000
   \              00000000    
     14          {
     15            PAGE_ENTER_EVENT_TAG,    CreateGame,
     16            NIL_EVENT_TAG,           NULL
     17          };
     18          

   \                                 In segment DATA_C, align 4, align-sorted
     19          const PAGE_DESC bk_game = {"Game_GuiMenu_Page",0,bk_msglst_gm};
   \                     bk_game:
   \   00000000   ........0000       DC32 `?<Constant "Game_GuiMenu_Page">`, 0H, bk_msglst_gm
   \              0000........
     20          

   \                                 In segment CODE, align 4, keep-with-next
     21          void ShowResults(TABL*t)
     22          {
   \                     ??ShowResults:
   \   00000000   F0432DE9           PUSH     {R4-R9,LR}
     23            int text[60];
     24            int i, j;
     25            j=0;
     26            for(i=0; i<10; i++)
   \   00000004   ........           LDR      R7,??DataTable0  ;; `?<Constant L"\\x412\\x44b\\x439\\x442\\x438\\x20\\x43`
   \   00000008   F0D04DE2           SUB      SP,SP,#+240
   \   0000000C   0040A0E1           MOV      R4,R0
   \   00000010   0090A0E3           MOV      R9,#+0
   \   00000014   0050A0E3           MOV      R5,#+0
   \   00000018   FF80A0E3           MOV      R8,#+255
   \   0000001C   FF8C88E3           ORR      R8,R8,#0xFF00
     27            {
     28              text[j]=TextID_CreateIntegerID(i+1);
   \                     ??ShowResults_1:
   \   00000020   016085E2           ADD      R6,R5,#+1
   \   00000024   0600A0E1           MOV      R0,R6
   \   00000028   5C0100EF           SWI      +348
   \   0000002C   0D10A0E1           MOV      R1,SP
   \   00000030   090181E7           STR      R0,[R1, +R9, LSL #+2]
     29              j++;
   \   00000034   019089E2           ADD      R9,R9,#+1
     30              text[j]=STR(". ");
   \   00000038   0820A0E1           MOV      R2,R8
   \   0000003C   0010A0E3           MOV      R1,#+0
   \   00000040   480087E2           ADD      R0,R7,#+72
   \   00000044   5D0100EF           SWI      +349
   \   00000048   0D10A0E1           MOV      R1,SP
   \   0000004C   090181E7           STR      R0,[R1, +R9, LSL #+2]
     31              j++;
   \   00000050   019089E2           ADD      R9,R9,#+1
     32              text[j]=TextID_Create(t->name[i], ENC_UCS2, TEXTID_ANY_LEN);
   \   00000054   0820A0E1           MOV      R2,R8
   \   00000058   0010A0E3           MOV      R1,#+0
   \   0000005C   050284E0           ADD      R0,R4,R5, LSL #+4
   \   00000060   5D0100EF           SWI      +349
   \   00000064   0D10A0E1           MOV      R1,SP
   \   00000068   090181E7           STR      R0,[R1, +R9, LSL #+2]
     33              j++;
   \   0000006C   019089E2           ADD      R9,R9,#+1
     34              text[j]=STR(" - ");
   \   00000070   0820A0E1           MOV      R2,R8
   \   00000074   0010A0E3           MOV      R1,#+0
   \   00000078   500087E2           ADD      R0,R7,#+80
   \   0000007C   5D0100EF           SWI      +349
   \   00000080   0D10A0E1           MOV      R1,SP
   \   00000084   090181E7           STR      R0,[R1, +R9, LSL #+2]
     35              j++;
     36              text[j]=TextID_CreateIntegerID(t->rezultat[i]);
   \   00000088   050184E0           ADD      R0,R4,R5, LSL #+2
   \   0000008C   A00090E5           LDR      R0,[R0, #+160]
   \   00000090   019089E2           ADD      R9,R9,#+1
   \   00000094   5C0100EF           SWI      +348
   \   00000098   0D10A0E1           MOV      R1,SP
   \   0000009C   090181E7           STR      R0,[R1, +R9, LSL #+2]
     37              j++;
   \   000000A0   015089E2           ADD      R5,R9,#+1
     38              text[j]=STR("\n");
   \   000000A4   0820A0E1           MOV      R2,R8
   \   000000A8   0010A0E3           MOV      R1,#+0
   \   000000AC   180F8FE2           ADR      R0,??ShowResults_2  ;; 0x0A, 0x00, 0x00, 0x00
   \   000000B0   5D0100EF           SWI      +349
   \   000000B4   0D10A0E1           MOV      R1,SP
   \   000000B8   050181E7           STR      R0,[R1, +R5, LSL #+2]
     39              j++;
   \   000000BC   019085E2           ADD      R9,R5,#+1
     40            }
   \   000000C0   0650A0E1           MOV      R5,R6
   \   000000C4   0A0055E3           CMP      R5,#+10
   \   000000C8   D4FFFFBA           BLT      ??ShowResults_1
     41            int ID=TextID_Create(text, ENC_TEXTID, 60);
   \   000000CC   3C20A0E3           MOV      R2,#+60
   \   000000D0   0510A0E3           MOV      R1,#+5
   \   000000D4   0D00A0E1           MOV      R0,SP
   \   000000D8   5D0100EF           SWI      +349
   \   000000DC   0040A0E1           MOV      R4,R0
     42            MessageBox(STR("Результаты"), ID, NOIMAGE, 2, 0, 0);
   \   000000E0   0820A0E1           MOV      R2,R8
   \   000000E4   0010A0E3           MOV      R1,#+0
   \   000000E8   580087E2           ADD      R0,R7,#+88
   \   000000EC   5D0100EF           SWI      +349
   \   000000F0   0010A0E3           MOV      R1,#+0
   \   000000F4   02002DE9           PUSH     {R1}
   \   000000F8   02002DE9           PUSH     {R1}
   \   000000FC   0230A0E3           MOV      R3,#+2
   \   00000100   0820A0E1           MOV      R2,R8
   \   00000104   0410A0E1           MOV      R1,R4
   \   00000108   570200EF           SWI      +599
     43          }
   \   0000010C   F8D08DE2           ADD      SP,SP,#+248
   \   00000110   F083BDE8           POP      {R4-R9,PC}       ;; return
   \                     ??ShowResults_2:
   \   00000114   0A000000           DC8      0x0A, 0x00, 0x00, 0x00
     44          

   \                                 In segment CODE, align 4, keep-with-next
     45          void DestroyInputI()
     46          {
   \                     ??DestroyInputI:
   \   00000000   00402DE9           PUSH     {LR}
     47            GUIObject_Destroy(MyBK()->gui1);
   \   00000004   ........           _BLF     ??MyBK,??MyBK??rA
   \   00000008   880190E5           LDR      R0,[R0, #+392]
   \   0000000C   CE0100EF           SWI      +462
     48            MyBK()->gui1=0;
   \   00000010   ........           _BLF     ??MyBK,??MyBK??rA
   \   00000014   0010A0E3           MOV      R1,#+0
   \   00000018   881180E5           STR      R1,[R0, #+392]
     49            GUIObject_Show(MyBK()->gui);
   \   0000001C   ........           _BLF     ??MyBK,??MyBK??rA
   \   00000020   8C0190E5           LDR      R0,[R0, #+396]
   \   00000024   340100EF           SWI      +308
     50          }
   \   00000028   0080BDE8           POP      {PC}             ;; return
     51          
     52          

   \                                 In segment CODE, align 4, keep-with-next
     53          void OnEntInputI(BOOK * bk,wchar_t * string,int len)
     54          {
   \                     ??OnEntInputI:
   \   00000000   30402DE9           PUSH     {R4,R5,LR}
   \   00000004   0040A0E1           MOV      R4,R0
     55            wstrcpy(((MyBook*)bk)->nast->im->names[ListMenu_GetSelectedItem(((MyBook*)bk)->gui)], string);
   \   00000008   8C0194E5           LDR      R0,[R4, #+396]
   \   0000000C   0150A0E1           MOV      R5,R1
   \   00000010   3E0100EF           SWI      +318
   \   00000014   342394E5           LDR      R2,[R4, #+820]
   \   00000018   0510A0E1           MOV      R1,R5
   \   0000001C   042092E5           LDR      R2,[R2, #+4]
   \   00000020   000482E0           ADD      R0,R2,R0, LSL #+8
   \   00000024   520100EF           SWI      +338
     56            GUIObject_Destroy(((MyBook*)bk)->gui1);
   \   00000028   880194E5           LDR      R0,[R4, #+392]
   \   0000002C   CE0100EF           SWI      +462
     57            ((MyBook*)bk)->gui1=0;
   \   00000030   0000A0E3           MOV      R0,#+0
   \   00000034   880184E5           STR      R0,[R4, #+392]
     58            ImagesDel(bk);
   \   00000038   0400A0E1           MOV      R0,R4
   \   0000003C   ........           _BLF     ??ImagesDel,??ImagesDel??rA
     59            CheckResurs(MyBK());
   \   00000040   ........           _BLF     ??MyBK,??MyBK??rA
   \   00000044   ........           _BLF     ??CheckResurs,??CheckResurs??rA
     60            GUIObject_Show(((MyBook*)bk)->gui);
   \   00000048   8C0194E5           LDR      R0,[R4, #+396]
   \   0000004C   340100EF           SWI      +308
     61          }
   \   00000050   3080BDE8           POP      {R4,R5,PC}       ;; return
     62          

   \                                 In segment CODE, align 4, keep-with-next
     63          void CreateInputI(int x, IMGN*i, MyBook*bk)
     64          {
   \                     ??CreateInputI:
   \   00000000   F0402DE9           PUSH     {R4-R7,LR}
   \   00000004   0050A0E1           MOV      R5,R0
   \   00000008   0240A0E1           MOV      R4,R2
     65            if(bk->gui1) GUIObject_Destroy(bk->gui1);
   \   0000000C   880194E5           LDR      R0,[R4, #+392]
   \   00000010   0160A0E1           MOV      R6,R1
   \   00000014   000050E3           CMP      R0,#+0
   \   00000018   0100000A           BEQ      ??CreateInputI_1
   \   0000001C   CE0100EF           SWI      +462
     66            bk->gui1=0;
   \   00000020   0000A0E3           MOV      R0,#+0
   \                     ??CreateInputI_1:
   \   00000024   880184E5           STR      R0,[R4, #+392]
     67            bk->gui1=CreateStringInputVA(0,
     68                                                 VAR_PREV_ACTION_PROC(DestroyInputI),
     69                                                 VAR_LONG_BACK_PROC(DestroyInputI),
     70                                                 VAR_BOOK((BOOK*)bk),
     71                                                 VAR_STRINP_FIXED_TEXT(TextID_Create(L"Изменить имя:",ENC_UCS2, TEXTID_ANY_LEN)),
     72                                                 VAR_STRINP_TEXT(TextID_Create(i->names[x], ENC_UCS2, TEXTID_ANY_LEN)),
     73                                                 VAR_STRINP_MAX_LEN(127),
     74                                                 VAR_STRINP_MIN_LEN(0),
     75                                                 VAR_OK_PROC(OnEntInputI),
     76                                                 0); 
   \   00000028   FF70A0E3           MOV      R7,#+255
   \   0000002C   FF7C87E3           ORR      R7,R7,#0xFF00
   \   00000030   0720A0E1           MOV      R2,R7
   \   00000034   0010A0E3           MOV      R1,#+0
   \   00000038   050486E0           ADD      R0,R6,R5, LSL #+8
   \   0000003C   5D0100EF           SWI      +349
   \   00000040   0050A0E1           MOV      R5,R0
   \   00000044   90009FE5           LDR      R0,??CreateInputI_2  ;; `?<Constant L"\\x418\\x437\\x43c\\x435\\x43d\\x438\\x4_1`
   \   00000048   0720A0E1           MOV      R2,R7
   \   0000004C   0010A0E3           MOV      R1,#+0
   \   00000050   5D0100EF           SWI      +349
   \   00000054   84209FE5           LDR      R2,??CreateInputI_2+0x4  ;; ??DestroyInputI
   \   00000058   ........           LDR      R3,??DataTable14  ;; VAR_ARG_CALL_BACK_LONG_BACK
   \   0000005C   0010A0E3           MOV      R1,#+0
   \   00000060   02002DE9           PUSH     {R1}
   \   00000064   78109FE5           LDR      R1,??CreateInputI_2+0x8  ;; ??OnEntInputI
   \   00000068   02002DE9           PUSH     {R1}
   \   0000006C   ........           LDR      R1,??DataTable15  ;; VAR_ARG_CALL_BACK_OK
   \   00000070   02002DE9           PUSH     {R1}
   \   00000074   0010A0E3           MOV      R1,#+0
   \   00000078   02002DE9           PUSH     {R1}
   \   0000007C   ........           LDR      R1,??DataTable16  ;; VAR_ARG_STRINP_MIN_LEN
   \   00000080   02002DE9           PUSH     {R1}
   \   00000084   7F10A0E3           MOV      R1,#+127
   \   00000088   02002DE9           PUSH     {R1}
   \   0000008C   ........           LDR      R1,??DataTable17  ;; VAR_ARG_STRINP_MAX_LEN
   \   00000090   02002DE9           PUSH     {R1}
   \   00000094   ........           LDR      R1,??DataTable18  ;; VAR_ARG_STRINP_TEXT
   \   00000098   20002DE9           PUSH     {R5}
   \   0000009C   02002DE9           PUSH     {R1}
   \   000000A0   ........           LDR      R1,??DataTable19  ;; VAR_ARG_CALL_BACK_PREV_ACT
   \   000000A4   01002DE9           PUSH     {R0}
   \   000000A8   ........           LDR      R0,??DataTable20  ;; VAR_ARG_STRINP_FIXED_TEXT
   \   000000AC   01002DE9           PUSH     {R0}
   \   000000B0   0400A0E1           MOV      R0,R4
   \   000000B4   01002DE9           PUSH     {R0}
   \   000000B8   ........           LDR      R0,??DataTable21  ;; VAR_ARG_BOOK
   \   000000BC   01002DE9           PUSH     {R0}
   \   000000C0   0200A0E1           MOV      R0,R2
   \   000000C4   01002DE9           PUSH     {R0}
   \   000000C8   0000A0E3           MOV      R0,#+0
   \   000000CC   440100EF           SWI      +324
   \   000000D0   38D08DE2           ADD      SP,SP,#+56
   \   000000D4   880184E5           STR      R0,[R4, #+392]
     77          }
   \   000000D8   F080BDE8           POP      {R4-R7,PC}       ;; return
   \                     ??CreateInputI_2:
   \   000000DC   ........           DC32     `?<Constant L"\\x418\\x437\\x43c\\x435\\x43d\\x438\\x4_1`
   \   000000E0   ........           DC32     ??DestroyInputI
   \   000000E4   ........           DC32     ??OnEntInputI
     78          

   \                                 In segment CODE, align 4, keep-with-next
     79          void OnEntINM( BOOK* bk, GUI* )
     80          {
   \                     ??OnEntINM:
   \   00000000   30402DE9           PUSH     {R4,R5,LR}
   \   00000004   0040A0E1           MOV      R4,R0
     81            int item=ListMenu_GetSelectedItem(((MyBook*)bk)->gui);
   \   00000008   8C0194E5           LDR      R0,[R4, #+396]
   \   0000000C   3E0100EF           SWI      +318
     82            if(item<3)
   \   00000010   030050E3           CMP      R0,#+3
   \   00000014   040000AA           BGE      ??OnEntINM_1
     83            {
     84              CreateInputI(item, ((MyBook*)bk)->nast->im, (MyBook*)bk);
   \   00000018   341394E5           LDR      R1,[R4, #+820]
   \   0000001C   0420A0E1           MOV      R2,R4
   \   00000020   041091E5           LDR      R1,[R1, #+4]
   \   00000024   ........           BL       ??CreateInputI
   \   00000028   3080BDE8           POP      {R4,R5,PC}
     85            }
     86            else
     87            {
     88              if(MyBK()->nast->im->on) MyBK()->nast->im->on=0;
   \                     ??OnEntINM_1:
   \   0000002C   ........           _BLF     ??MyBK,??MyBK??rA
   \   00000030   340390E5           LDR      R0,[R0, #+820]
   \   00000034   0050A0E3           MOV      R5,#+0
   \   00000038   040090E5           LDR      R0,[R0, #+4]
   \   0000003C   000390E5           LDR      R0,[R0, #+768]
   \   00000040   000050E3           CMP      R0,#+0
   \   00000044   0400000A           BEQ      ??OnEntINM_2
   \   00000048   ........           _BLF     ??MyBK,??MyBK??rA
   \   0000004C   340390E5           LDR      R0,[R0, #+820]
   \   00000050   040090E5           LDR      R0,[R0, #+4]
   \   00000054   005380E5           STR      R5,[R0, #+768]
   \   00000058   040000EA           B        ??OnEntINM_3
     89              else MyBK()->nast->im->on=1;
   \                     ??OnEntINM_2:
   \   0000005C   ........           _BLF     ??MyBK,??MyBK??rA
   \   00000060   340390E5           LDR      R0,[R0, #+820]
   \   00000064   0110A0E3           MOV      R1,#+1
   \   00000068   040090E5           LDR      R0,[R0, #+4]
   \   0000006C   001380E5           STR      R1,[R0, #+768]
     90              GUIObject_Destroy(((MyBook*)bk)->gui);
   \                     ??OnEntINM_3:
   \   00000070   8C0194E5           LDR      R0,[R4, #+396]
   \   00000074   CE0100EF           SWI      +462
     91              ((MyBook*)bk)->gui=0;
   \   00000078   8C5184E5           STR      R5,[R4, #+396]
     92              CreateINM((MyBook*)bk, 3);
   \   0000007C   0310A0E3           MOV      R1,#+3
   \   00000080   0400A0E1           MOV      R0,R4
   \   00000084   ........           BL       ??CreateINM
     93            }      
     94          }
   \   00000088   3080BDE8           POP      {R4,R5,PC}       ;; return
     95          

   \                                 In segment CODE, align 4, keep-with-next
     96          int SetTitlePunktsINM(GUI_MESSAGE * msg)
     97          {
   \                     ??SetTitlePunktsINM:
   \   00000000   F0412DE9           PUSH     {R4-R8,LR}
   \   00000004   04D04DE2           SUB      SP,SP,#+4
   \   00000008   0040A0E1           MOV      R4,R0
     98            int item, ID;
     99            switch( GUIonMessage_GetMsg(msg) )
   \   0000000C   740300EF           SWI      +884
   \   00000010   010050E3           CMP      R0,#+1
   \   00000014   5300001A           BNE      ??SetTitlePunktsINM_1
    100            {
    101            case 1:
    102              item=GUIonMessage_GetCreatedItemIndex(msg);
    103              for(int i=0; i<3; i++)
   \   00000018   ........           LDR      R5,??DataTable28  ;; `?<Constant L"\\x43\\x41\\x4c\\x4c\\x53\\x5f\\x49\\x4e\\`
   \   0000001C   0400A0E1           MOV      R0,R4
   \   00000020   370100EF           SWI      +311
   \   00000024   0070A0E1           MOV      R7,R0
   \   00000028   0080A0E3           MOV      R8,#+0
   \   0000002C   FF60A0E3           MOV      R6,#+255
   \   00000030   FF6C86E3           ORR      R6,R6,#0xFF00
    104              {
    105                if(item==i)
   \                     ??SetTitlePunktsINM_2:
   \   00000034   080057E1           CMP      R7,R8
   \   00000038   1E00001A           BNE      ??SetTitlePunktsINM_3
    106                {
    107                  GUIonMessage_SetMenuItemText(msg,TextID_Create(GetNamesOfIMN(i, 0),ENC_UCS2,TEXTID_ANY_LEN));
   \   0000003C   0010A0E3           MOV      R1,#+0
   \   00000040   0800A0E1           MOV      R0,R8
   \   00000044   ........           _BLF     ??GetNamesOfIMN,??GetNamesOfIMN??rA
   \   00000048   0620A0E1           MOV      R2,R6
   \   0000004C   0010A0E3           MOV      R1,#+0
   \   00000050   5D0100EF           SWI      +349
   \   00000054   0010A0E1           MOV      R1,R0
   \   00000058   0400A0E1           MOV      R0,R4
   \   0000005C   380100EF           SWI      +312
    108                  GUIonMessage_SetMenuItemSecondLineText(msg,TextID_Create(((MyBook*)isBookX(NameMyElf, 0))->nast->im->names[i],ENC_UCS2,TEXTID_ANY_LEN));
   \   00000060   0010A0E3           MOV      R1,#+0
   \   00000064   7A0F85E2           ADD      R0,R5,#+488
   \   00000068   ........           _BLF     ??isBookX,??isBookX??rA
   \   0000006C   340390E5           LDR      R0,[R0, #+820]
   \   00000070   0620A0E1           MOV      R2,R6
   \   00000074   040090E5           LDR      R0,[R0, #+4]
   \   00000078   0010A0E3           MOV      R1,#+0
   \   0000007C   080480E0           ADD      R0,R0,R8, LSL #+8
   \   00000080   5D0100EF           SWI      +349
   \   00000084   0010A0E1           MOV      R1,R0
   \   00000088   0400A0E1           MOV      R0,R4
   \   0000008C   390100EF           SWI      +313
    109                  iconidname2id(L"DB_LIST_PICTURE_ICN", -1, &ID);
   \   00000090   0D20A0E1           MOV      R2,SP
   \   00000094   0010E0E3           MVN      R1,#+0
   \   00000098   280085E2           ADD      R0,R5,#+40
   \   0000009C   860200EF           SWI      +646
    110                  GUIonMessage_SetMenuItemIcon(msg, 0, ID);
   \   000000A0   00209DE5           LDR      R2,[SP, #+0]
   \   000000A4   0010A0E3           MOV      R1,#+0
   \   000000A8   0228A0E1           MOV      R2,R2, LSL #+16
   \   000000AC   2228A0E1           MOV      R2,R2, LSR #+16
   \   000000B0   0400A0E1           MOV      R0,R4
   \   000000B4   3C0100EF           SWI      +316
    111                }
    112              }
   \                     ??SetTitlePunktsINM_3:
   \   000000B8   018088E2           ADD      R8,R8,#+1
   \   000000BC   030058E3           CMP      R8,#+3
   \   000000C0   DBFFFFBA           BLT      ??SetTitlePunktsINM_2
    113              if(item==3)
   \   000000C4   030057E3           CMP      R7,#+3
   \   000000C8   2600001A           BNE      ??SetTitlePunktsINM_1
    114              {
    115                GUIonMessage_SetMenuItemText(msg,TextID_Create(L"Картинки:",ENC_UCS2,TEXTID_ANY_LEN));
   \   000000CC   0620A0E1           MOV      R2,R6
   \   000000D0   0010A0E3           MOV      R1,#+0
   \   000000D4   500085E2           ADD      R0,R5,#+80
   \   000000D8   5D0100EF           SWI      +349
   \   000000DC   0010A0E1           MOV      R1,R0
   \   000000E0   0400A0E1           MOV      R0,R4
   \   000000E4   380100EF           SWI      +312
    116                if(MyBK()->nast->im->on)
   \   000000E8   ........           _BLF     ??MyBK,??MyBK??rA
   \   000000EC   340390E5           LDR      R0,[R0, #+820]
   \   000000F0   0620A0E1           MOV      R2,R6
   \   000000F4   040090E5           LDR      R0,[R0, #+4]
   \   000000F8   0010A0E3           MOV      R1,#+0
   \   000000FC   000390E5           LDR      R0,[R0, #+768]
   \   00000100   000050E3           CMP      R0,#+0
   \   00000104   0800000A           BEQ      ??SetTitlePunktsINM_4
    117                {
    118                  GUIonMessage_SetMenuItemSecondLineText(msg,TextID_Create(L"Свои",ENC_UCS2,TEXTID_ANY_LEN));
   \   00000108   640085E2           ADD      R0,R5,#+100
   \   0000010C   5D0100EF           SWI      +349
   \   00000110   0010A0E1           MOV      R1,R0
   \   00000114   0400A0E1           MOV      R0,R4
   \   00000118   390100EF           SWI      +313
    119                  iconidname2id(L"CALLS_INCOMING_ICN", -1, &ID);
   \   0000011C   0D20A0E1           MOV      R2,SP
   \   00000120   0010E0E3           MVN      R1,#+0
   \   00000124   0500A0E1           MOV      R0,R5
   \   00000128   070000EA           B        ??SetTitlePunktsINM_5
    120                  GUIonMessage_SetMenuItemIcon(msg, 0, ID);
    121                }
    122                else
    123                {
    124                  GUIonMessage_SetMenuItemSecondLineText(msg,TextID_Create(L"Из эльфа",ENC_UCS2,TEXTID_ANY_LEN));
   \                     ??SetTitlePunktsINM_4:
   \   0000012C   700085E2           ADD      R0,R5,#+112
   \   00000130   5D0100EF           SWI      +349
   \   00000134   0010A0E1           MOV      R1,R0
   \   00000138   0400A0E1           MOV      R0,R4
   \   0000013C   390100EF           SWI      +313
    125                  iconidname2id(L"CALLS_OUTGOING_ICN", -1, &ID);
   \   00000140   0D20A0E1           MOV      R2,SP
   \   00000144   0010E0E3           MVN      R1,#+0
   \   00000148   840085E2           ADD      R0,R5,#+132
   \                     ??SetTitlePunktsINM_5:
   \   0000014C   860200EF           SWI      +646
    126                  GUIonMessage_SetMenuItemIcon(msg, 0, ID);
   \   00000150   00209DE5           LDR      R2,[SP, #+0]
   \   00000154   0010A0E3           MOV      R1,#+0
   \   00000158   0228A0E1           MOV      R2,R2, LSL #+16
   \   0000015C   2228A0E1           MOV      R2,R2, LSR #+16
   \   00000160   0400A0E1           MOV      R0,R4
   \   00000164   3C0100EF           SWI      +316
    127                }
    128              }
    129            }
    130            return 0;
   \                     ??SetTitlePunktsINM_1:
   \   00000168   0000A0E3           MOV      R0,#+0
   \   0000016C   F281BDE8           POP      {R1,R4-R8,PC}    ;; return
    131          }
    132          

   \                                 In segment CODE, align 4, keep-with-next
    133          void ExitINM( BOOK* bk, GUI* )
    134          {
   \                     ??ExitINM:
   \   00000000   10402DE9           PUSH     {R4,LR}
   \   00000004   0040A0E1           MOV      R4,R0
    135            GUIObject_Destroy(((MyBook*)bk)->gui);
   \   00000008   8C0194E5           LDR      R0,[R4, #+396]
   \   0000000C   CE0100EF           SWI      +462
    136            ((MyBook*)bk)->gui=0;
   \   00000010   0000A0E3           MOV      R0,#+0
   \   00000014   8C0184E5           STR      R0,[R4, #+396]
    137            CreateNM((MyBook*)bk);
   \   00000018   0400A0E1           MOV      R0,R4
   \   0000001C   1040BDE8           POP      {R4,LR}          ;; Pop
   \   00000020   ........           B        ??CreateNM       ;; tailcall
    138          }
    139          

   \                                 In segment CODE, align 4, keep-with-next
    140          void CreateINM(MyBook*bk, int x)
    141          {
   \                     ??CreateINM:
   \   00000000   F0402DE9           PUSH     {R4-R7,LR}
   \   00000004   0050A0E1           MOV      R5,R0
    142            if(bk->gui) GUIObject_Destroy(bk->gui);
   \   00000008   8C0195E5           LDR      R0,[R5, #+396]
   \   0000000C   0170A0E1           MOV      R7,R1
   \   00000010   000050E3           CMP      R0,#+0
   \   00000014   0100000A           BEQ      ??CreateINM_1
   \   00000018   CE0100EF           SWI      +462
    143            bk->gui=0;
   \   0000001C   0000A0E3           MOV      R0,#+0
   \                     ??CreateINM_1:
   \   00000020   8C0185E5           STR      R0,[R5, #+396]
    144            GUI_LIST*INM=CreateListMenu((BOOK*)bk,0);
   \   00000024   0010A0E3           MOV      R1,#+0
   \   00000028   0500A0E1           MOV      R0,R5
   \   0000002C   C00100EF           SWI      +448
   \   00000030   0040A0E1           MOV      R4,R0
    145            ((MyBook*)bk)->gui=INM;
   \   00000034   8C4185E5           STR      R4,[R5, #+396]
    146            GUIObject_SetTitleText(INM, TextID_Create(L"Картинки",ENC_UCS2,TEXTID_ANY_LEN));
   \   00000038   ........           LDR      R5,??DataTable28  ;; `?<Constant L"\\x43\\x41\\x4c\\x4c\\x53\\x5f\\x49\\x4e\\`
   \   0000003C   FF60A0E3           MOV      R6,#+255
   \   00000040   FF6C86E3           ORR      R6,R6,#0xFF00
   \   00000044   0620A0E1           MOV      R2,R6
   \   00000048   0010A0E3           MOV      R1,#+0
   \   0000004C   AC0085E2           ADD      R0,R5,#+172
   \   00000050   5D0100EF           SWI      +349
   \   00000054   0010A0E1           MOV      R1,R0
   \   00000058   0400A0E1           MOV      R0,R4
   \   0000005C   330100EF           SWI      +307
    147            ListMenu_SetItemCount(INM, 4);
   \   00000060   0410A0E3           MOV      R1,#+4
   \   00000064   0400A0E1           MOV      R0,R4
   \   00000068   C10100EF           SWI      +449
    148            OneOfMany_SetOnMessage(INM,SetTitlePunktsINM);
   \   0000006C   A4109FE5           LDR      R1,??CreateINM_2  ;; ??SetTitlePunktsINM
   \   00000070   0400A0E1           MOV      R0,R4
   \   00000074   E10100EF           SWI      +481
    149            ListMenu_SetCursorToItem(INM,x);
   \   00000078   0710A0E1           MOV      R1,R7
    150            ListMenu_SetItemStyle(INM,3);
    151            GUIObject_SoftKeys_SetAction(INM,ACTION_BACK,ExitINM);
   \   0000007C   98709FE5           LDR      R7,??CreateINM_2+0x4  ;; ??ExitINM
   \   00000080   0400A0E1           MOV      R0,R4
   \   00000084   350100EF           SWI      +309
   \   00000088   0310A0E3           MOV      R1,#+3
   \   0000008C   0400A0E1           MOV      R0,R4
   \   00000090   3F0100EF           SWI      +319
   \   00000094   ........           LDR      R0,??DataTable40  ;; ACTION_BACK
   \   00000098   0720A0E1           MOV      R2,R7
   \   0000009C   001090E5           LDR      R1,[R0, #+0]
   \   000000A0   0400A0E1           MOV      R0,R4
   \   000000A4   0118A0E1           MOV      R1,R1, LSL #+16
   \   000000A8   2118A0E1           MOV      R1,R1, LSR #+16
   \   000000AC   4B0100EF           SWI      +331
    152            GUIObject_SoftKeys_SetAction(INM,ACTION_LONG_BACK,ExitINM);
   \   000000B0   ........           LDR      R0,??DataTable41  ;; ACTION_LONG_BACK
   \   000000B4   0720A0E1           MOV      R2,R7
   \   000000B8   001090E5           LDR      R1,[R0, #+0]
   \   000000BC   0400A0E1           MOV      R0,R4
   \   000000C0   0118A0E1           MOV      R1,R1, LSL #+16
   \   000000C4   2118A0E1           MOV      R1,R1, LSR #+16
   \   000000C8   4B0100EF           SWI      +331
    153            GUIObject_SoftKeys_SetAction(INM,ACTION_SELECT1,OnEntINM);
   \   000000CC   ........           LDR      R0,??DataTable38  ;; ACTION_SELECT1
   \   000000D0   48209FE5           LDR      R2,??CreateINM_2+0x8  ;; ??OnEntINM
   \   000000D4   007090E5           LDR      R7,[R0, #+0]
   \   000000D8   0400A0E1           MOV      R0,R4
   \   000000DC   0718A0E1           MOV      R1,R7, LSL #+16
   \   000000E0   2118A0E1           MOV      R1,R1, LSR #+16
   \   000000E4   4B0100EF           SWI      +331
    154            GUIObject_SoftKeys_SetText(INM,ACTION_SELECT1,STR("Изменить"));
   \   000000E8   0620A0E1           MOV      R2,R6
   \   000000EC   0010A0E3           MOV      R1,#+0
   \   000000F0   C00085E2           ADD      R0,R5,#+192
   \   000000F4   5D0100EF           SWI      +349
   \   000000F8   0020A0E1           MOV      R2,R0
   \   000000FC   0718A0E1           MOV      R1,R7, LSL #+16
   \   00000100   2118A0E1           MOV      R1,R1, LSR #+16
   \   00000104   0400A0E1           MOV      R0,R4
   \   00000108   4C0100EF           SWI      +332
    155            GUIObject_Show(INM);
   \   0000010C   0400A0E1           MOV      R0,R4
   \   00000110   340100EF           SWI      +308
    156          }
   \   00000114   F080BDE8           POP      {R4-R7,PC}       ;; return
   \                     ??CreateINM_2:
   \   00000118   ........           DC32     ??SetTitlePunktsINM
   \   0000011C   ........           DC32     ??ExitINM
   \   00000120   ........           DC32     ??OnEntINM
    157          

   \                                 In segment CODE, align 4, keep-with-next
    158          void ExitMNM( BOOK* bk, GUI* )
    159          {
   \                     ??ExitMNM:
   \   00000000   10402DE9           PUSH     {R4,LR}
   \   00000004   0040A0E1           MOV      R4,R0
    160            GUIObject_Destroy(((MyBook*)bk)->gui);
   \   00000008   8C0194E5           LDR      R0,[R4, #+396]
   \   0000000C   CE0100EF           SWI      +462
    161            ((MyBook*)bk)->gui=0;
   \   00000010   0000A0E3           MOV      R0,#+0
   \   00000014   8C0184E5           STR      R0,[R4, #+396]
    162            CreateNM((MyBook*)bk);
   \   00000018   0400A0E1           MOV      R0,R4
   \   0000001C   1040BDE8           POP      {R4,LR}          ;; Pop
   \   00000020   ........           B        ??CreateNM       ;; tailcall
    163          }
    164          

   \                                 In segment CODE, align 4, keep-with-next
    165          void OnMNM1( BOOK* bk, GUI* )
    166          {
   \                     ??OnMNM1:
   \   00000000   70402DE9           PUSH     {R4-R6,LR}
   \   00000004   0040A0E1           MOV      R4,R0
    167            int item=ListMenu_GetSelectedItem(((MyBook*)bk)->gui);
   \   00000008   8C0194E5           LDR      R0,[R4, #+396]
    168            for(int i=0; i<6; i++)
   \   0000000C   0060A0E3           MOV      R6,#+0
   \   00000010   3E0100EF           SWI      +318
   \   00000014   0050A0E1           MOV      R5,R0
   \   00000018   0010A0E3           MOV      R1,#+0
    169            {
    170              if(item==i+1)
   \                     ??OnMNM1_1:
   \   0000001C   010081E2           ADD      R0,R1,#+1
   \   00000020   000055E1           CMP      R5,R0
   \   00000024   0A00001A           BNE      ??OnMNM1_2
    171              {
    172                if(((MyBook*)bk)->nast->sound->status[i]==0) ((MyBook*)bk)->nast->sound->status[i]=1;
   \   00000028   342394E5           LDR      R2,[R4, #+820]
   \   0000002C   002092E5           LDR      R2,[R2, #+0]
   \   00000030   012182E0           ADD      R2,R2,R1, LSL #+2
   \   00000034   002C92E5           LDR      R2,[R2, #+3072]
   \   00000038   000052E3           CMP      R2,#+0
   \   0000003C   342394E5           LDR      R2,[R4, #+820]
   \   00000040   002092E5           LDR      R2,[R2, #+0]
   \   00000044   011182E0           ADD      R1,R2,R1, LSL #+2
   \   00000048   0120A003           MOVEQ    R2,#+1
   \   0000004C   002C8105           STREQ    R2,[R1, #+3072]
    173                else ((MyBook*)bk)->nast->sound->status[i]=0;
   \   00000050   006C8115           STRNE    R6,[R1, #+3072]
    174              }
    175            }  
   \                     ??OnMNM1_2:
   \   00000054   0010A0E1           MOV      R1,R0
   \   00000058   060051E3           CMP      R1,#+6
   \   0000005C   EEFFFFBA           BLT      ??OnMNM1_1
    176            GUIObject_Destroy(((MyBook*)bk)->gui);
   \   00000060   8C0194E5           LDR      R0,[R4, #+396]
   \   00000064   CE0100EF           SWI      +462
    177            ((MyBook*)bk)->gui=0;
   \   00000068   8C6184E5           STR      R6,[R4, #+396]
    178            CreateMNM(((MyBook*)bk), item);
   \   0000006C   0510A0E1           MOV      R1,R5
   \   00000070   0400A0E1           MOV      R0,R4
   \   00000074   ........           BL       ??CreateMNM
    179          }
   \   00000078   7080BDE8           POP      {R4-R6,PC}       ;; return
    180          
    181          

   \                                 In segment CODE, align 4, keep-with-next
    182          void DestroyInput()
    183          {
   \                     ??DestroyInput:
   \   00000000   00402DE9           PUSH     {LR}
    184            GUIObject_Destroy(MyBK()->gui1);
   \   00000004   ........           _BLF     ??MyBK,??MyBK??rA
   \   00000008   880190E5           LDR      R0,[R0, #+392]
   \   0000000C   CE0100EF           SWI      +462
    185            MyBK()->gui1=0;
   \   00000010   ........           _BLF     ??MyBK,??MyBK??rA
   \   00000014   0010A0E3           MOV      R1,#+0
   \   00000018   881180E5           STR      R1,[R0, #+392]
    186            GUIObject_Show(MyBK()->gui);
   \   0000001C   ........           _BLF     ??MyBK,??MyBK??rA
   \   00000020   8C0190E5           LDR      R0,[R0, #+396]
   \   00000024   340100EF           SWI      +308
    187          }
   \   00000028   0080BDE8           POP      {PC}             ;; return
    188          
    189          

   \                                 In segment CODE, align 4, keep-with-next
    190          void OnEntInput(BOOK * bk,wchar_t * string,int len)
    191          {
   \                     ??OnEntInput:
   \   00000000   30402DE9           PUSH     {R4,R5,LR}
   \   00000004   0040A0E1           MOV      R4,R0
    192            int x=ListMenu_GetSelectedItem(((MyBook*)bk)->gui)-1;
   \   00000008   8C0194E5           LDR      R0,[R4, #+396]
   \   0000000C   0150A0E1           MOV      R5,R1
   \   00000010   3E0100EF           SWI      +318
    193            wstrcpy(((MyBook*)bk)->nast->sound->names[x], string);
   \   00000014   342394E5           LDR      R2,[R4, #+820]
   \   00000018   010040E2           SUB      R0,R0,#+1
   \   0000001C   002092E5           LDR      R2,[R2, #+0]
   \   00000020   0510A0E1           MOV      R1,R5
   \   00000024   800482E0           ADD      R0,R2,R0, LSL #+9
   \   00000028   520100EF           SWI      +338
    194            GUIObject_Destroy(((MyBook*)bk)->gui1);
   \   0000002C   880194E5           LDR      R0,[R4, #+392]
   \   00000030   CE0100EF           SWI      +462
    195            ((MyBook*)bk)->gui1=0;
   \   00000034   0000A0E3           MOV      R0,#+0
   \   00000038   880184E5           STR      R0,[R4, #+392]
    196            GUIObject_Show(((MyBook*)bk)->gui);
   \   0000003C   8C0194E5           LDR      R0,[R4, #+396]
   \   00000040   340100EF           SWI      +308
    197          }
   \   00000044   3080BDE8           POP      {R4,R5,PC}       ;; return
    198          
    199          
    200          
    201          

   \                                 In segment CODE, align 4, keep-with-next
    202          void CreateInput(int x, SOUND*s, MyBook*bk)
    203          {
   \                     ??CreateInput:
   \   00000000   F0402DE9           PUSH     {R4-R7,LR}
   \   00000004   0050A0E1           MOV      R5,R0
   \   00000008   0240A0E1           MOV      R4,R2
    204            if(bk->gui1) GUIObject_Destroy(bk->gui1);
   \   0000000C   880194E5           LDR      R0,[R4, #+392]
   \   00000010   0160A0E1           MOV      R6,R1
   \   00000014   000050E3           CMP      R0,#+0
   \   00000018   0100000A           BEQ      ??CreateInput_1
   \   0000001C   CE0100EF           SWI      +462
    205            bk->gui1=0;
   \   00000020   0000A0E3           MOV      R0,#+0
   \                     ??CreateInput_1:
   \   00000024   880184E5           STR      R0,[R4, #+392]
    206            bk->gui1=CreateStringInputVA(0,
    207                                                 VAR_PREV_ACTION_PROC(DestroyInput),
    208                                                 VAR_LONG_BACK_PROC(DestroyInput),
    209                                                 VAR_BOOK((BOOK*)bk),
    210                                                 VAR_STRINP_FIXED_TEXT(TextID_Create(L"Изменить:",ENC_UCS2, TEXTID_ANY_LEN)),
    211                                                 VAR_STRINP_TEXT(TextID_Create(s->names[x-1], ENC_UCS2, TEXTID_ANY_LEN)),
    212                                                 VAR_STRINP_MAX_LEN(255),
    213                                                 VAR_STRINP_MIN_LEN(0),
    214                                                 VAR_OK_PROC(OnEntInput),
    215                                                 0); 
   \   00000028   FF70A0E3           MOV      R7,#+255
   \   0000002C   FF7C87E3           ORR      R7,R7,#0xFF00
   \   00000030   0720A0E1           MOV      R2,R7
   \   00000034   0010A0E3           MOV      R1,#+0
   \   00000038   FF00E0E3           MVN      R0,#+255
   \   0000003C   400FC0E3           BIC      R0,R0,#0x100
   \   00000040   853486E0           ADD      R3,R6,R5, LSL #+9
   \   00000044   030080E0           ADD      R0,R0,R3
   \   00000048   5D0100EF           SWI      +349
   \   0000004C   0050A0E1           MOV      R5,R0
   \   00000050   90009FE5           LDR      R0,??CreateInput_2  ;; `?<Constant L"\\x418\\x437\\x43c\\x435\\x43d\\x438\\x4_2`
   \   00000054   0720A0E1           MOV      R2,R7
   \   00000058   0010A0E3           MOV      R1,#+0
   \   0000005C   5D0100EF           SWI      +349
   \   00000060   84209FE5           LDR      R2,??CreateInput_2+0x4  ;; ??DestroyInput
   \   00000064   ........           LDR      R3,??DataTable14  ;; VAR_ARG_CALL_BACK_LONG_BACK
   \   00000068   0010A0E3           MOV      R1,#+0
   \   0000006C   02002DE9           PUSH     {R1}
   \   00000070   78109FE5           LDR      R1,??CreateInput_2+0x8  ;; ??OnEntInput
   \   00000074   02002DE9           PUSH     {R1}
   \   00000078   ........           LDR      R1,??DataTable15  ;; VAR_ARG_CALL_BACK_OK
   \   0000007C   02002DE9           PUSH     {R1}
   \   00000080   0010A0E3           MOV      R1,#+0
   \   00000084   02002DE9           PUSH     {R1}
   \   00000088   ........           LDR      R1,??DataTable16  ;; VAR_ARG_STRINP_MIN_LEN
   \   0000008C   02002DE9           PUSH     {R1}
   \   00000090   FF10A0E3           MOV      R1,#+255
   \   00000094   02002DE9           PUSH     {R1}
   \   00000098   ........           LDR      R1,??DataTable17  ;; VAR_ARG_STRINP_MAX_LEN
   \   0000009C   02002DE9           PUSH     {R1}
   \   000000A0   ........           LDR      R1,??DataTable18  ;; VAR_ARG_STRINP_TEXT
   \   000000A4   20002DE9           PUSH     {R5}
   \   000000A8   02002DE9           PUSH     {R1}
   \   000000AC   ........           LDR      R1,??DataTable19  ;; VAR_ARG_CALL_BACK_PREV_ACT
   \   000000B0   01002DE9           PUSH     {R0}
   \   000000B4   ........           LDR      R0,??DataTable20  ;; VAR_ARG_STRINP_FIXED_TEXT
   \   000000B8   01002DE9           PUSH     {R0}
   \   000000BC   0400A0E1           MOV      R0,R4
   \   000000C0   01002DE9           PUSH     {R0}
   \   000000C4   ........           LDR      R0,??DataTable21  ;; VAR_ARG_BOOK
   \   000000C8   01002DE9           PUSH     {R0}
   \   000000CC   0200A0E1           MOV      R0,R2
   \   000000D0   01002DE9           PUSH     {R0}
   \   000000D4   0000A0E3           MOV      R0,#+0
   \   000000D8   440100EF           SWI      +324
   \   000000DC   38D08DE2           ADD      SP,SP,#+56
   \   000000E0   880184E5           STR      R0,[R4, #+392]
    216          }
   \   000000E4   F080BDE8           POP      {R4-R7,PC}       ;; return
   \                     ??CreateInput_2:
   \   000000E8   ........           DC32     `?<Constant L"\\x418\\x437\\x43c\\x435\\x43d\\x438\\x4_2`
   \   000000EC   ........           DC32     ??DestroyInput
   \   000000F0   ........           DC32     ??OnEntInput
    217          
    218          
    219          

   \                                 In segment CODE, align 4, keep-with-next
    220          void OnEntMNM( BOOK* bk, GUI* )
    221          {
   \                     ??OnEntMNM:
   \   00000000   30402DE9           PUSH     {R4,R5,LR}
   \   00000004   0040A0E1           MOV      R4,R0
    222            int item=ListMenu_GetSelectedItem(((MyBook*)bk)->gui);
   \   00000008   8C0194E5           LDR      R0,[R4, #+396]
   \   0000000C   3E0100EF           SWI      +318
    223            if(item==0)
   \   00000010   000050E3           CMP      R0,#+0
   \   00000014   1000001A           BNE      ??OnEntMNM_1
    224            {
    225              if(((MyBook*)bk)->nast->sound->sound==0) ((MyBook*)bk)->nast->sound->sound=1;
   \   00000018   340394E5           LDR      R0,[R4, #+820]
   \   0000001C   0050A0E3           MOV      R5,#+0
   \   00000020   000090E5           LDR      R0,[R0, #+0]
   \   00000024   180C90E5           LDR      R0,[R0, #+3096]
   \   00000028   000050E3           CMP      R0,#+0
   \   0000002C   340394E5           LDR      R0,[R4, #+820]
   \   00000030   0110A003           MOVEQ    R1,#+1
   \   00000034   000090E5           LDR      R0,[R0, #+0]
   \   00000038   181C8005           STREQ    R1,[R0, #+3096]
    226              else ((MyBook*)bk)->nast->sound->sound=0;
   \   0000003C   185C8015           STRNE    R5,[R0, #+3096]
    227              GUIObject_Destroy(((MyBook*)bk)->gui);
   \   00000040   8C0194E5           LDR      R0,[R4, #+396]
   \   00000044   CE0100EF           SWI      +462
    228              ((MyBook*)bk)->gui=0;
   \   00000048   8C5184E5           STR      R5,[R4, #+396]
    229              CreateMNM(((MyBook*)bk), item);
   \   0000004C   0010A0E3           MOV      R1,#+0
   \   00000050   0400A0E1           MOV      R0,R4
   \   00000054   ........           BL       ??CreateMNM
   \   00000058   3080BDE8           POP      {R4,R5,PC}
    230            }
    231            if(item>0)
   \                     ??OnEntMNM_1:
   \   0000005C   010050E3           CMP      R0,#+1
   \   00000060   3080BDB8           POPLT    {R4,R5,PC}
    232            {
    233              CreateInput(item, ((MyBook*)bk)->nast->sound, (MyBook*)bk);
   \   00000064   341394E5           LDR      R1,[R4, #+820]
   \   00000068   0420A0E1           MOV      R2,R4
   \   0000006C   001091E5           LDR      R1,[R1, #+0]
   \   00000070   ........           BL       ??CreateInput
    234            }
    235          }
   \   00000074   3080BDE8           POP      {R4,R5,PC}       ;; return
    236          

   \                                 In segment CODE, align 4, keep-with-next
    237          int SetTitlePunktsMNM(GUI_MESSAGE * msg)
    238          {
   \                     ??SetTitlePunktsMNM:
   \   00000000   F04F2DE9           PUSH     {R4-R11,LR}
   \   00000004   04D04DE2           SUB      SP,SP,#+4
   \   00000008   0040A0E1           MOV      R4,R0
    239            int item, ID;
    240            switch( GUIonMessage_GetMsg(msg) )
   \   0000000C   740300EF           SWI      +884
   \   00000010   010050E3           CMP      R0,#+1
   \   00000014   5500001A           BNE      ??SetTitlePunktsMNM_1
    241            {
    242              case 1:
    243                item=GUIonMessage_GetCreatedItemIndex(msg);
    244                if(item==0)
   \   00000018   ........           LDR      R8,??DataTable28  ;; `?<Constant L"\\x43\\x41\\x4c\\x4c\\x53\\x5f\\x49\\x4e\\`
   \   0000001C   0400A0E1           MOV      R0,R4
   \   00000020   370100EF           SWI      +311
   \   00000024   0050B0E1           MOVS     R5,R0
   \   00000028   7A6FA0E3           MOV      R6,#+488
   \   0000002C   FF70A0E3           MOV      R7,#+255
   \   00000030   FF7C87E3           ORR      R7,R7,#0xFF00
   \   00000034   2200001A           BNE      ??SetTitlePunktsMNM_2
    245                {
    246                  iconidname2id(L"DB_LIST_SOUND_IMELODY_ICN", -1, &ID);
   \   00000038   0D20A0E1           MOV      R2,SP
   \   0000003C   0010E0E3           MVN      R1,#+0
   \   00000040   D40088E2           ADD      R0,R8,#+212
   \   00000044   860200EF           SWI      +646
    247                  GUIonMessage_SetMenuItemIcon(msg, 0, ID);
   \   00000048   00209DE5           LDR      R2,[SP, #+0]
   \   0000004C   0010A0E3           MOV      R1,#+0
   \   00000050   0228A0E1           MOV      R2,R2, LSL #+16
   \   00000054   2228A0E1           MOV      R2,R2, LSR #+16
   \   00000058   0400A0E1           MOV      R0,R4
   \   0000005C   3C0100EF           SWI      +316
    248                  GUIonMessage_SetMenuItemText(msg,TextID_Create(L"Звук",ENC_UCS2,TEXTID_ANY_LEN));
   \   00000060   0720A0E1           MOV      R2,R7
   \   00000064   0010A0E3           MOV      R1,#+0
   \   00000068   420F88E2           ADD      R0,R8,#+264
   \   0000006C   5D0100EF           SWI      +349
   \   00000070   0010A0E1           MOV      R1,R0
   \   00000074   0400A0E1           MOV      R0,R4
   \   00000078   380100EF           SWI      +312
    249                  GUIonMessage_SetMenuItemSecondLineText(msg,GetStrokaIMG(StatusSettings(((MyBook*)isBookX(NameMyElf, 0))->nast->sound->sound),((MyBook*)isBookX(NameMyElf, 0))->nast->sound->sound));
   \   0000007C   0010A0E3           MOV      R1,#+0
   \   00000080   080086E0           ADD      R0,R6,R8
   \   00000084   ........           _BLF     ??isBookX,??isBookX??rA
   \   00000088   0090A0E1           MOV      R9,R0
   \   0000008C   0010A0E3           MOV      R1,#+0
   \   00000090   080086E0           ADD      R0,R6,R8
   \   00000094   ........           _BLF     ??isBookX,??isBookX??rA
   \   00000098   340390E5           LDR      R0,[R0, #+820]
   \   0000009C   000090E5           LDR      R0,[R0, #+0]
   \   000000A0   180C90E5           LDR      R0,[R0, #+3096]
   \   000000A4   ........           _BLF     ??StatusSettings,??StatusSettings??rA
   \   000000A8   341399E5           LDR      R1,[R9, #+820]
   \   000000AC   001091E5           LDR      R1,[R1, #+0]
   \   000000B0   181C91E5           LDR      R1,[R1, #+3096]
   \   000000B4   ........           _BLF     ??GetStrokaIMG,??GetStrokaIMG??rA
   \   000000B8   0010A0E1           MOV      R1,R0
   \   000000BC   0400A0E1           MOV      R0,R4
   \   000000C0   390100EF           SWI      +313
    250                }
    251                for(int i=0; i<6; i++)
   \                     ??SetTitlePunktsMNM_2:
   \   000000C4   0090A0E3           MOV      R9,#+0
    252                {
    253                  if(item==i+1)
   \                     ??SetTitlePunktsMNM_3:
   \   000000C8   01A089E2           ADD      R10,R9,#+1
   \   000000CC   0A0055E1           CMP      R5,R10
   \   000000D0   2300001A           BNE      ??SetTitlePunktsMNM_4
    254                  {
    255                    GUIonMessage_SetMenuItemText(msg,TextID_Create(NamesOfPunkts(i),ENC_UCS2,TEXTID_ANY_LEN));
   \   000000D4   0900A0E1           MOV      R0,R9
   \   000000D8   ........           _BLF     ??NamesOfPunkts,??NamesOfPunkts??rA
   \   000000DC   0720A0E1           MOV      R2,R7
   \   000000E0   0010A0E3           MOV      R1,#+0
   \   000000E4   5D0100EF           SWI      +349
   \   000000E8   0010A0E1           MOV      R1,R0
   \   000000EC   0400A0E1           MOV      R0,R4
   \   000000F0   380100EF           SWI      +312
    256                    GUIonMessage_SetMenuItemSecondLineText(msg,GetStrokaIMG(((MyBook*)isBookX(NameMyElf, 0))->nast->sound->names[i],((MyBook*)isBookX(NameMyElf, 0))->nast->sound->status[i]));
   \   000000F4   0010A0E3           MOV      R1,#+0
   \   000000F8   080086E0           ADD      R0,R6,R8
   \   000000FC   ........           _BLF     ??isBookX,??isBookX??rA
   \   00000100   00B0A0E1           MOV      R11,R0
   \   00000104   0010A0E3           MOV      R1,#+0
   \   00000108   080086E0           ADD      R0,R6,R8
   \   0000010C   ........           _BLF     ??isBookX,??isBookX??rA
   \   00000110   34139BE5           LDR      R1,[R11, #+820]
   \   00000114   340390E5           LDR      R0,[R0, #+820]
   \   00000118   001091E5           LDR      R1,[R1, #+0]
   \   0000011C   000090E5           LDR      R0,[R0, #+0]
   \   00000120   091181E0           ADD      R1,R1,R9, LSL #+2
   \   00000124   001C91E5           LDR      R1,[R1, #+3072]
   \   00000128   890480E0           ADD      R0,R0,R9, LSL #+9
   \   0000012C   ........           _BLF     ??GetStrokaIMG,??GetStrokaIMG??rA
   \   00000130   0010A0E1           MOV      R1,R0
   \   00000134   0400A0E1           MOV      R0,R4
   \   00000138   390100EF           SWI      +313
    257                    iconidname2id(L"DB_LIST_SOUND_EMELODY_ICN", -1, &ID);
   \   0000013C   0D20A0E1           MOV      R2,SP
   \   00000140   0010E0E3           MVN      R1,#+0
   \   00000144   450F88E2           ADD      R0,R8,#+276
   \   00000148   860200EF           SWI      +646
    258                    GUIonMessage_SetMenuItemIcon(msg, 0, ID);
   \   0000014C   00209DE5           LDR      R2,[SP, #+0]
   \   00000150   0010A0E3           MOV      R1,#+0
   \   00000154   0228A0E1           MOV      R2,R2, LSL #+16
   \   00000158   2228A0E1           MOV      R2,R2, LSR #+16
   \   0000015C   0400A0E1           MOV      R0,R4
   \   00000160   3C0100EF           SWI      +316
    259                  }
    260                }      
   \                     ??SetTitlePunktsMNM_4:
   \   00000164   0A90A0E1           MOV      R9,R10
   \   00000168   060059E3           CMP      R9,#+6
   \   0000016C   D5FFFFBA           BLT      ??SetTitlePunktsMNM_3
    261            }
    262            return(1);        
   \                     ??SetTitlePunktsMNM_1:
   \   00000170   0100A0E3           MOV      R0,#+1
   \   00000174   F28FBDE8           POP      {R1,R4-R11,PC}   ;; return
    263          }
    264          

   \                                 In segment CODE, align 4, keep-with-next
    265          void Set(int item)
    266          {
   \                     ??Set:
   \   00000000   F04F2DE9           PUSH     {R4-R11,LR}
    267            if(item==0)
   \   00000004   BC519FE5           LDR      R5,??Set_1+0x4   ;; ??OnEntMNM
   \   00000008   ........           LDR      R8,??DataTable28  ;; `?<Constant L"\\x43\\x41\\x4c\\x4c\\x53\\x5f\\x49\\x4e\\`
   \   0000000C   0040B0E1           MOVS     R4,R0
   \   00000010   FF60A0E3           MOV      R6,#+255
   \   00000014   FF6C86E3           ORR      R6,R6,#0xFF00
   \   00000018   7A7FA0E3           MOV      R7,#+488
   \   0000001C   2F00001A           BNE      ??Set_2
    268            {
    269              GUIObject_SoftKeys_SetAction(((MyBook*)isBookX(NameMyElf, 0))->gui,1,0);
   \   00000020   0010A0E3           MOV      R1,#+0
   \   00000024   080087E0           ADD      R0,R7,R8
   \   00000028   ........           _BLF     ??isBookX,??isBookX??rA
   \   0000002C   8C0190E5           LDR      R0,[R0, #+396]
   \   00000030   0020A0E3           MOV      R2,#+0
   \   00000034   0110A0E3           MOV      R1,#+1
   \   00000038   4B0100EF           SWI      +331
    270              GUIObject_SoftKeys_SetText(((MyBook*)isBookX(NameMyElf, 0))->gui, 1, TextID_Create(L" ",ENC_UCS2,TEXTID_ANY_LEN));
   \   0000003C   0620A0E1           MOV      R2,R6
   \   00000040   0010A0E3           MOV      R1,#+0
   \   00000044   5E0F8FE2           ADR      R0,??Set_1       ;; 0x20, 0x00, 0x00, 0x00
   \   00000048   5D0100EF           SWI      +349
   \   0000004C   0090A0E1           MOV      R9,R0
   \   00000050   0010A0E3           MOV      R1,#+0
   \   00000054   080087E0           ADD      R0,R7,R8
   \   00000058   ........           _BLF     ??isBookX,??isBookX??rA
   \   0000005C   8C0190E5           LDR      R0,[R0, #+396]
   \   00000060   0920A0E1           MOV      R2,R9
   \   00000064   0110A0E3           MOV      R1,#+1
   \   00000068   4C0100EF           SWI      +332
    271              GUIObject_SoftKeys_SetText(((MyBook*)isBookX(NameMyElf, 0))->gui, ACTION_SELECT1, TextID_Create(StatusSettings1(((MyBook*)isBookX(NameMyElf, 0))->nast->sound->sound),ENC_UCS2,TEXTID_ANY_LEN));
   \   0000006C   0010A0E3           MOV      R1,#+0
   \   00000070   080087E0           ADD      R0,R7,R8
   \   00000074   ........           _BLF     ??isBookX,??isBookX??rA
   \   00000078   340390E5           LDR      R0,[R0, #+820]
   \   0000007C   000090E5           LDR      R0,[R0, #+0]
   \   00000080   180C90E5           LDR      R0,[R0, #+3096]
   \   00000084   ........           _BLF     ??StatusSettings1,??StatusSettings1??rA
   \   00000088   0620A0E1           MOV      R2,R6
   \   0000008C   0010A0E3           MOV      R1,#+0
   \   00000090   5D0100EF           SWI      +349
   \   00000094   0090A0E1           MOV      R9,R0
   \   00000098   0010A0E3           MOV      R1,#+0
   \   0000009C   080087E0           ADD      R0,R7,R8
   \   000000A0   ........           _BLF     ??isBookX,??isBookX??rA
   \   000000A4   ........           LDR      R1,??DataTable38  ;; ACTION_SELECT1
   \   000000A8   8C0190E5           LDR      R0,[R0, #+396]
   \   000000AC   00B091E5           LDR      R11,[R1, #+0]
   \   000000B0   0920A0E1           MOV      R2,R9
   \   000000B4   0B18A0E1           MOV      R1,R11, LSL #+16
   \   000000B8   2118A0E1           MOV      R1,R1, LSR #+16
   \   000000BC   4C0100EF           SWI      +332
    272              GUIObject_SoftKeys_SetAction(((MyBook*)isBookX(NameMyElf, 0))->gui, ACTION_SELECT1, OnEntMNM);
   \   000000C0   0010A0E3           MOV      R1,#+0
   \   000000C4   080087E0           ADD      R0,R7,R8
   \   000000C8   ........           _BLF     ??isBookX,??isBookX??rA
   \   000000CC   8C0190E5           LDR      R0,[R0, #+396]
   \   000000D0   0520A0E1           MOV      R2,R5
   \   000000D4   0B18A0E1           MOV      R1,R11, LSL #+16
   \   000000D8   2118A0E1           MOV      R1,R1, LSR #+16
   \   000000DC   4B0100EF           SWI      +331
    273              //GUIonMessage_SetMenuItemIcon(msg, 0, IconID->I1);
    274            }
    275            for(int i=0; i<6; i++)
   \                     ??Set_2:
   \   000000E0   00A0A0E3           MOV      R10,#+0
    276            {
    277              if(item==i+1)
   \                     ??Set_3:
   \   000000E4   01908AE2           ADD      R9,R10,#+1
   \   000000E8   090054E1           CMP      R4,R9
   \   000000EC   3000001A           BNE      ??Set_4
    278              {
    279                GUIObject_SoftKeys_SetAction(((MyBook*)isBookX(NameMyElf, 0))->gui,1,OnMNM1);
   \   000000F0   0010A0E3           MOV      R1,#+0
   \   000000F4   080087E0           ADD      R0,R7,R8
   \   000000F8   ........           _BLF     ??isBookX,??isBookX??rA
   \   000000FC   8C0190E5           LDR      R0,[R0, #+396]
   \   00000100   C4209FE5           LDR      R2,??Set_1+0x8   ;; ??OnMNM1
   \   00000104   0110A0E3           MOV      R1,#+1
   \   00000108   4B0100EF           SWI      +331
    280                GUIObject_SoftKeys_SetText(((MyBook*)isBookX(NameMyElf, 0))->gui, 1, TextID_Create(StatusSettings1(((MyBook*)isBookX(NameMyElf, 0))->nast->sound->status[i]),ENC_UCS2,TEXTID_ANY_LEN));
   \   0000010C   0010A0E3           MOV      R1,#+0
   \   00000110   080087E0           ADD      R0,R7,R8
   \   00000114   ........           _BLF     ??isBookX,??isBookX??rA
   \   00000118   340390E5           LDR      R0,[R0, #+820]
   \   0000011C   000090E5           LDR      R0,[R0, #+0]
   \   00000120   0A0180E0           ADD      R0,R0,R10, LSL #+2
   \   00000124   000C90E5           LDR      R0,[R0, #+3072]
   \   00000128   ........           _BLF     ??StatusSettings1,??StatusSettings1??rA
   \   0000012C   0620A0E1           MOV      R2,R6
   \   00000130   0010A0E3           MOV      R1,#+0
   \   00000134   5D0100EF           SWI      +349
   \   00000138   00A0A0E1           MOV      R10,R0
   \   0000013C   0010A0E3           MOV      R1,#+0
   \   00000140   080087E0           ADD      R0,R7,R8
   \   00000144   ........           _BLF     ??isBookX,??isBookX??rA
   \   00000148   8C0190E5           LDR      R0,[R0, #+396]
   \   0000014C   0A20A0E1           MOV      R2,R10
   \   00000150   0110A0E3           MOV      R1,#+1
   \   00000154   4C0100EF           SWI      +332
    281                GUIObject_SoftKeys_SetText(((MyBook*)isBookX(NameMyElf, 0))->gui, ACTION_SELECT1, TextID_Create(L"Изменить",ENC_UCS2,TEXTID_ANY_LEN));
   \   00000158   0620A0E1           MOV      R2,R6
   \   0000015C   0010A0E3           MOV      R1,#+0
   \   00000160   C00088E2           ADD      R0,R8,#+192
   \   00000164   5D0100EF           SWI      +349
   \   00000168   00A0A0E1           MOV      R10,R0
   \   0000016C   0010A0E3           MOV      R1,#+0
   \   00000170   080087E0           ADD      R0,R7,R8
   \   00000174   ........           _BLF     ??isBookX,??isBookX??rA
   \   00000178   ........           LDR      R1,??DataTable38  ;; ACTION_SELECT1
   \   0000017C   8C0190E5           LDR      R0,[R0, #+396]
   \   00000180   00B091E5           LDR      R11,[R1, #+0]
   \   00000184   0A20A0E1           MOV      R2,R10
   \   00000188   0B18A0E1           MOV      R1,R11, LSL #+16
   \   0000018C   2118A0E1           MOV      R1,R1, LSR #+16
   \   00000190   4C0100EF           SWI      +332
    282                GUIObject_SoftKeys_SetAction(((MyBook*)isBookX(NameMyElf, 0))->gui, ACTION_SELECT1, OnEntMNM);
   \   00000194   0010A0E3           MOV      R1,#+0
   \   00000198   080087E0           ADD      R0,R7,R8
   \   0000019C   ........           _BLF     ??isBookX,??isBookX??rA
   \   000001A0   8C0190E5           LDR      R0,[R0, #+396]
   \   000001A4   0520A0E1           MOV      R2,R5
   \   000001A8   0B18A0E1           MOV      R1,R11, LSL #+16
   \   000001AC   2118A0E1           MOV      R1,R1, LSR #+16
   \   000001B0   4B0100EF           SWI      +331
    283                //GUIonMessage_SetMenuItemIcon(msg, 0, IconID->I2);
    284              }
    285            }
   \                     ??Set_4:
   \   000001B4   09A0A0E1           MOV      R10,R9
   \   000001B8   06005AE3           CMP      R10,#+6
   \   000001BC   C8FFFFBA           BLT      ??Set_3
    286          }
   \   000001C0   F08FBDE8           POP      {R4-R11,PC}      ;; return
   \                     ??Set_1:
   \   000001C4   20000000           DC8      0x20, 0x00, 0x00, 0x00
   \   000001C8   ........           DC32     ??OnEntMNM
   \   000001CC   ........           DC32     ??OnMNM1
    287          

   \                                 In segment CODE, align 4, keep-with-next
    288          void NewKey1(DISP_OBJ* p, int i1, int i2, int i3, int i4)
    289          {
   \                     ??NewKey1:
   \   00000000   F0412DE9           PUSH     {R4-R8,LR}
   \   00000004   18809DE5           LDR      R8,[SP, #+24]
   \   00000008   0040A0E1           MOV      R4,R0
    290            ((MyBook*)isBookX(NameMyElf, 0))->OldKey1(p, i1, i2, i3, i4);
   \   0000000C   44009FE5           LDR      R0,??NewKey1_1   ;; `?<Constant L"\\x43\\x41\\x4c\\x4c\\x53\\x5f\\x49\\x4e\\` + 488
   \   00000010   0150A0E1           MOV      R5,R1
   \   00000014   0260A0E1           MOV      R6,R2
   \   00000018   0370A0E1           MOV      R7,R3
   \   0000001C   0010A0E3           MOV      R1,#+0
   \   00000020   ........           _BLF     ??isBookX,??isBookX??rA
   \   00000024   00C0A0E1           MOV      R12,R0
   \   00000028   00012DE9           PUSH     {R8}
   \   0000002C   0730A0E1           MOV      R3,R7
   \   00000030   0620A0E1           MOV      R2,R6
   \   00000034   0510A0E1           MOV      R1,R5
   \   00000038   0400A0E1           MOV      R0,R4
   \   0000003C   48439CE5           LDR      R4,[R12, #+840]
   \   00000040   34FF2FE1           BLX      R4
    291            int item=ListMenu_GetSelectedItem(MyBK()->gui);
   \   00000044   ........           _BLF     ??MyBK,??MyBK??rA
   \   00000048   8C0190E5           LDR      R0,[R0, #+396]
   \   0000004C   3E0100EF           SWI      +318
    292            Set(item);
   \   00000050   ........           BL       ??Set
    293          }
   \   00000054   F181BDE8           POP      {R0,R4-R8,PC}    ;; return
   \                     ??NewKey1_1:
   \   00000058   ........           DC32     `?<Constant L"\\x43\\x41\\x4c\\x4c\\x53\\x5f\\x49\\x4e\\` + 488
    294          

   \                                 In segment CODE, align 4, keep-with-next
    295          void CreateMNM(MyBook*bk, int x)
    296          {
   \                     ??CreateMNM:
   \   00000000   F0402DE9           PUSH     {R4-R7,LR}
   \   00000004   0050A0E1           MOV      R5,R0
    297            if(bk->gui) GUIObject_Destroy(bk->gui);
   \   00000008   8C0195E5           LDR      R0,[R5, #+396]
   \   0000000C   0160A0E1           MOV      R6,R1
   \   00000010   000050E3           CMP      R0,#+0
   \   00000014   0100000A           BEQ      ??CreateMNM_1
   \   00000018   CE0100EF           SWI      +462
    298            bk->gui=0;
   \   0000001C   0000A0E3           MOV      R0,#+0
   \                     ??CreateMNM_1:
   \   00000020   8C0185E5           STR      R0,[R5, #+396]
    299            GUI_LIST*MNM=CreateListMenu((BOOK*)bk,0);
   \   00000024   0010A0E3           MOV      R1,#+0
    300            ((MyBook*)bk)->gui=MNM;
    301            GUIObject_SetTitleText(MNM, TextID_Create(L"Музыка",ENC_UCS2,TEXTID_ANY_LEN));
    302            ListMenu_SetItemCount(MNM, 7);
    303            OneOfMany_SetOnMessage(MNM,SetTitlePunktsMNM);
    304            ListMenu_SetCursorToItem(MNM,x);
    305            ListMenu_SetItemStyle(MNM,3);
    306            GUIObject_SoftKeys_SetAction(MNM,ACTION_BACK,ExitMNM);
   \   00000028   CC709FE5           LDR      R7,??CreateMNM_2  ;; ??ExitMNM
   \   0000002C   0500A0E1           MOV      R0,R5
   \   00000030   C00100EF           SWI      +448
   \   00000034   0040A0E1           MOV      R4,R0
   \   00000038   C0009FE5           LDR      R0,??CreateMNM_2+0x4  ;; `?<Constant L"\\x43\\x41\\x4c\\x4c\\x53\\x5f\\x49\\x4e\\` + 328
   \   0000003C   8C4185E5           STR      R4,[R5, #+396]
   \   00000040   FF20A0E3           MOV      R2,#+255
   \   00000044   FF2C82E3           ORR      R2,R2,#0xFF00
   \   00000048   0010A0E3           MOV      R1,#+0
   \   0000004C   5D0100EF           SWI      +349
   \   00000050   0010A0E1           MOV      R1,R0
   \   00000054   0400A0E1           MOV      R0,R4
   \   00000058   330100EF           SWI      +307
   \   0000005C   0710A0E3           MOV      R1,#+7
   \   00000060   0400A0E1           MOV      R0,R4
   \   00000064   C10100EF           SWI      +449
   \   00000068   94109FE5           LDR      R1,??CreateMNM_2+0x8  ;; ??SetTitlePunktsMNM
   \   0000006C   0400A0E1           MOV      R0,R4
   \   00000070   E10100EF           SWI      +481
   \   00000074   0610A0E1           MOV      R1,R6
   \   00000078   0400A0E1           MOV      R0,R4
   \   0000007C   350100EF           SWI      +309
   \   00000080   0310A0E3           MOV      R1,#+3
   \   00000084   0400A0E1           MOV      R0,R4
   \   00000088   3F0100EF           SWI      +319
   \   0000008C   ........           LDR      R0,??DataTable40  ;; ACTION_BACK
   \   00000090   0720A0E1           MOV      R2,R7
   \   00000094   001090E5           LDR      R1,[R0, #+0]
   \   00000098   0400A0E1           MOV      R0,R4
   \   0000009C   0118A0E1           MOV      R1,R1, LSL #+16
   \   000000A0   2118A0E1           MOV      R1,R1, LSR #+16
   \   000000A4   4B0100EF           SWI      +331
    307            GUIObject_SoftKeys_SetAction(MNM,ACTION_LONG_BACK,ExitMNM);
   \   000000A8   ........           LDR      R0,??DataTable41  ;; ACTION_LONG_BACK
   \   000000AC   0720A0E1           MOV      R2,R7
   \   000000B0   001090E5           LDR      R1,[R0, #+0]
   \   000000B4   0400A0E1           MOV      R0,R4
   \   000000B8   0118A0E1           MOV      R1,R1, LSL #+16
   \   000000BC   2118A0E1           MOV      R1,R1, LSR #+16
   \   000000C0   4B0100EF           SWI      +331
    308            Set(x);
   \   000000C4   0600A0E1           MOV      R0,R6
   \   000000C8   ........           BL       ??Set
    309            //GUIObject_SoftKeys_SetAction(MNM,ACTION_SELECT1,OnEntMNM);
    310            bk->OldKey1 = DispObject_GetOnKey( GUIObject_GetDispObject(MNM) );
   \   000000CC   0400A0E1           MOV      R0,R4
   \   000000D0   680100EF           SWI      +360
   \   000000D4   2B0200EF           SWI      +555
   \   000000D8   480385E5           STR      R0,[R5, #+840]
    311            DISP_DESC_SetOnKey( DispObject_GetDESC ( GUIObject_GetDispObject(MNM) ), NewKey1);
   \   000000DC   0400A0E1           MOV      R0,R4
   \   000000E0   680100EF           SWI      +360
   \   000000E4   1F0200EF           SWI      +543
   \   000000E8   18109FE5           LDR      R1,??CreateMNM_2+0xC  ;; ??NewKey1
   \   000000EC   2A0200EF           SWI      +554
    312            GUIObject_Show(MNM);
   \   000000F0   0400A0E1           MOV      R0,R4
   \   000000F4   340100EF           SWI      +308
    313          }
   \   000000F8   F080BDE8           POP      {R4-R7,PC}       ;; return
   \                     ??CreateMNM_2:
   \   000000FC   ........           DC32     ??ExitMNM
   \   00000100   ........           DC32     `?<Constant L"\\x43\\x41\\x4c\\x4c\\x53\\x5f\\x49\\x4e\\` + 328
   \   00000104   ........           DC32     ??SetTitlePunktsMNM
   \   00000108   ........           DC32     ??NewKey1
    314          

   \                                 In segment CODE, align 4, keep-with-next
    315          void ExitNM( BOOK* bk, GUI* )
    316          {
   \                     ??ExitNM:
   \   00000000   10402DE9           PUSH     {R4,LR}
   \   00000004   0040A0E1           MOV      R4,R0
    317            GUIObject_Destroy(((MyBook*)bk)->gui);
   \   00000008   8C0194E5           LDR      R0,[R4, #+396]
   \   0000000C   CE0100EF           SWI      +462
    318            ((MyBook*)bk)->gui=0;
   \   00000010   0000A0E3           MOV      R0,#+0
   \   00000014   8C0184E5           STR      R0,[R4, #+396]
    319            if(!((MyBook*)bk)->pause) CreateGM(0, bk);
   \   00000018   380394E5           LDR      R0,[R4, #+824]
   \   0000001C   000050E3           CMP      R0,#+0
   \   00000020   1080BD18           POPNE    {R4,PC}
   \   00000024   0410A0E1           MOV      R1,R4
   \   00000028   ........           BL       ??CreateGM
    320            //CreatePM(bk);
    321          }
   \   0000002C   1080BDE8           POP      {R4,PC}          ;; return
    322          

   \                                 In segment CODE, align 4, keep-with-next
    323          void OnEntGameM( BOOK* bk, GUI* )
    324          {
   \                     ??OnEntGameM:
   \   00000000   30402DE9           PUSH     {R4,R5,LR}
   \   00000004   0040A0E1           MOV      R4,R0
    325            int item=ListMenu_GetSelectedItem(((MyBook*)bk)->gui);
    326            ((MyBook*)bk)->speed=item+1;
   \   00000008   8C0194E5           LDR      R0,[R4, #+396]
    327            ((MyBook*)bk)->point=0;
   \   0000000C   0050A0E3           MOV      R5,#+0
   \   00000010   3E0100EF           SWI      +318
    328            ((MyBook*)bk)->lvl=0;
    329            BookObj_GotoPage(bk,&bk_game);
   \   00000014   24109FE5           LDR      R1,??OnEntGameM_1  ;; bk_game
   \   00000018   010080E2           ADD      R0,R0,#+1
   \   0000001C   2C0384E5           STR      R0,[R4, #+812]
   \   00000020   305384E5           STR      R5,[R4, #+816]
   \   00000024   285384E5           STR      R5,[R4, #+808]
   \   00000028   0400A0E1           MOV      R0,R4
   \   0000002C   2D0100EF           SWI      +301
    330            GUIObject_Destroy(((MyBook*)bk)->gui);
   \   00000030   8C0194E5           LDR      R0,[R4, #+396]
   \   00000034   CE0100EF           SWI      +462
    331            ((MyBook*)bk)->gui=0;  
   \   00000038   8C5184E5           STR      R5,[R4, #+396]
    332          }
   \   0000003C   3080BDE8           POP      {R4,R5,PC}       ;; return
   \                     ??OnEntGameM_1:
   \   00000040   ........           DC32     bk_game
    333          

   \                                 In segment CODE, align 4, keep-with-next
    334          void OnEntMR( BOOK* bk, GUI* )
    335          {
   \                     ??OnEntMR:
   \   00000000   10402DE9           PUSH     {R4,LR}
   \   00000004   0040A0E1           MOV      R4,R0
    336            int item=ListMenu_GetSelectedItem(((MyBook*)bk)->gui);
   \   00000008   8C0194E5           LDR      R0,[R4, #+396]
   \   0000000C   3E0100EF           SWI      +318
    337            if(item==0)
   \   00000010   000050E3           CMP      R0,#+0
   \   00000014   0400001A           BNE      ??OnEntMR_1
    338            {
    339              ShowResults(((MyBook*)bk)->nast->rez->te);
   \   00000018   340394E5           LDR      R0,[R4, #+820]
   \   0000001C   080090E5           LDR      R0,[R0, #+8]
   \   00000020   000090E5           LDR      R0,[R0, #+0]
   \   00000024   1040BDE8           POP      {R4,LR}          ;; Pop
   \   00000028   ........           B        ??ShowResults    ;; tailcall
    340            }
    341            if(item==1)
   \                     ??OnEntMR_1:
   \   0000002C   010050E3           CMP      R0,#+1
   \   00000030   0300001A           BNE      ??OnEntMR_2
    342            {
    343              ShowResults(((MyBook*)bk)->nast->rez->tn);  
   \   00000034   340394E5           LDR      R0,[R4, #+820]
   \   00000038   080090E5           LDR      R0,[R0, #+8]
   \   0000003C   040090E5           LDR      R0,[R0, #+4]
   \   00000040   040000EA           B        ??OnEntMR_3
    344            }
    345            if(item==2)
   \                     ??OnEntMR_2:
   \   00000044   020050E3           CMP      R0,#+2
   \   00000048   1080BD18           POPNE    {R4,PC}
    346            {
    347              ShowResults(((MyBook*)bk)->nast->rez->th);  
   \   0000004C   340394E5           LDR      R0,[R4, #+820]
   \   00000050   080090E5           LDR      R0,[R0, #+8]
   \   00000054   080090E5           LDR      R0,[R0, #+8]
   \                     ??OnEntMR_3:
   \   00000058   1040BDE8           POP      {R4,LR}          ;; Pop
   \   0000005C   ........           B        ??ShowResults    ;; tailcall
    348            }
    349          }
    350          

   \                                 In segment CODE, align 4, keep-with-next
    351          void OnEntNM( BOOK* bk, GUI* )
    352          {
   \                     ??OnEntNM:
   \   00000000   10402DE9           PUSH     {R4,LR}
   \   00000004   0040A0E1           MOV      R4,R0
    353            int item=ListMenu_GetSelectedItem(((MyBook*)bk)->gui);
   \   00000008   8C0194E5           LDR      R0,[R4, #+396]
   \   0000000C   3E0100EF           SWI      +318
    354            if(item==0)
   \   00000010   000050E3           CMP      R0,#+0
   \   00000014   0300001A           BNE      ??OnEntNM_1
    355            {
    356              CreateMNM((MyBook*)bk, 0);
   \   00000018   0010A0E3           MOV      R1,#+0
   \   0000001C   0400A0E1           MOV      R0,R4
   \   00000020   1040BDE8           POP      {R4,LR}          ;; Pop
   \   00000024   ........           B        ??CreateMNM      ;; tailcall
    357            }
    358            if(item==1)
   \                     ??OnEntNM_1:
   \   00000028   010050E3           CMP      R0,#+1
   \   0000002C   1080BD18           POPNE    {R4,PC}
    359            {
    360              CreateINM((MyBook*)bk, 0);   
   \   00000030   0010A0E3           MOV      R1,#+0
   \   00000034   0400A0E1           MOV      R0,R4
   \   00000038   1040BDE8           POP      {R4,LR}          ;; Pop
   \   0000003C   ........           B        ??CreateINM      ;; tailcall
    361            }
    362          }
    363          

   \                                 In segment CODE, align 4, keep-with-next
    364          int SetTitlePunktsNM(GUI_MESSAGE * msg)
    365          {
   \                     ??SetTitlePunktsNM:
   \   00000000   30402DE9           PUSH     {R4,R5,LR}
   \   00000004   04D04DE2           SUB      SP,SP,#+4
   \   00000008   0040A0E1           MOV      R4,R0
    366            int item, ID;
    367            switch( GUIonMessage_GetMsg(msg) )
   \   0000000C   740300EF           SWI      +884
   \   00000010   010050E3           CMP      R0,#+1
   \   00000014   2200001A           BNE      ??SetTitlePunktsNM_1
    368            {
    369              case 1:
    370                item=GUIonMessage_GetCreatedItemIndex(msg);
    371                if(item==0)
   \   00000018   ........           LDR      R5,??DataTable28  ;; `?<Constant L"\\x43\\x41\\x4c\\x4c\\x53\\x5f\\x49\\x4e\\`
   \   0000001C   0400A0E1           MOV      R0,R4
   \   00000020   370100EF           SWI      +311
   \   00000024   FF20A0E3           MOV      R2,#+255
   \   00000028   FF2C82E3           ORR      R2,R2,#0xFF00
   \   0000002C   000050E3           CMP      R0,#+0
   \   00000030   0900001A           BNE      ??SetTitlePunktsNM_2
    372                {
    373                  GUIonMessage_SetMenuItemText(msg,TextID_Create(L"Музыка",ENC_UCS2,TEXTID_ANY_LEN));
   \   00000034   0010A0E3           MOV      R1,#+0
   \   00000038   520F85E2           ADD      R0,R5,#+328
   \   0000003C   5D0100EF           SWI      +349
   \   00000040   0010A0E1           MOV      R1,R0
   \   00000044   0400A0E1           MOV      R0,R4
   \   00000048   380100EF           SWI      +312
    374                  iconidname2id(L"ENTERTAINMENT_MENU_MIDI_COMP_ICN", -1, &ID);
   \   0000004C   0D20A0E1           MOV      R2,SP
   \   00000050   0010E0E3           MVN      R1,#+0
   \   00000054   560F85E2           ADD      R0,R5,#+344
   \   00000058   0A0000EA           B        ??SetTitlePunktsNM_3
    375                  GUIonMessage_SetMenuItemIcon(msg, 0, ID);
    376                }
    377                if(item==1)
   \                     ??SetTitlePunktsNM_2:
   \   0000005C   010050E3           CMP      R0,#+1
   \   00000060   0F00001A           BNE      ??SetTitlePunktsNM_1
    378                {
    379                  GUIonMessage_SetMenuItemText(msg,TextID_Create(L"Картинки",ENC_UCS2,TEXTID_ANY_LEN));
   \   00000064   0010A0E3           MOV      R1,#+0
   \   00000068   AC0085E2           ADD      R0,R5,#+172
   \   0000006C   5D0100EF           SWI      +349
   \   00000070   0010A0E1           MOV      R1,R0
   \   00000074   0400A0E1           MOV      R0,R4
   \   00000078   380100EF           SWI      +312
    380                  iconidname2id(L"ENTERTAINMENT_MENU_PICTUREEDITOR_ICN", -1, &ID);
   \   0000007C   0D20A0E1           MOV      R2,SP
   \   00000080   0010E0E3           MVN      R1,#+0
   \   00000084   670F85E2           ADD      R0,R5,#+412
   \                     ??SetTitlePunktsNM_3:
   \   00000088   860200EF           SWI      +646
    381                  GUIonMessage_SetMenuItemIcon(msg, 0, ID);
   \   0000008C   00209DE5           LDR      R2,[SP, #+0]
   \   00000090   0010A0E3           MOV      R1,#+0
   \   00000094   0228A0E1           MOV      R2,R2, LSL #+16
   \   00000098   2228A0E1           MOV      R2,R2, LSR #+16
   \   0000009C   0400A0E1           MOV      R0,R4
   \   000000A0   3C0100EF           SWI      +316
    382                }
    383            }
    384            return(1);        
   \                     ??SetTitlePunktsNM_1:
   \   000000A4   0100A0E3           MOV      R0,#+1
   \   000000A8   3280BDE8           POP      {R1,R4,R5,PC}    ;; return
    385          }
    386          

   \                                 In segment CODE, align 4, keep-with-next
    387          void DeleteRes( BOOK* bk, GUI* )
    388          {
   \                     ??DeleteRes:
   \   00000000   10402DE9           PUSH     {R4,LR}
   \   00000004   0040A0E1           MOV      R4,R0
    389            int item=ListMenu_GetSelectedItem(((MyBook*)bk)->gui);
   \   00000008   8C0194E5           LDR      R0,[R4, #+396]
   \   0000000C   3E0100EF           SWI      +318
    390            if(item==0)
   \   00000010   000050E3           CMP      R0,#+0
   \   00000014   0400001A           BNE      ??DeleteRes_1
    391            {
    392              DELTABL(((MyBook*)bk)->nast->rez->te);
   \   00000018   340394E5           LDR      R0,[R4, #+820]
   \   0000001C   080090E5           LDR      R0,[R0, #+8]
   \   00000020   000090E5           LDR      R0,[R0, #+0]
   \   00000024   1040BDE8           POP      {R4,LR}          ;; Pop
   \   00000028   ........           _BF      ??DELTABL,??DELTABL??rA  ;; tailcall
    393            }
    394            if(item==1)
   \                     ??DeleteRes_1:
   \   0000002C   010050E3           CMP      R0,#+1
   \   00000030   0300001A           BNE      ??DeleteRes_2
    395            {
    396              DELTABL(((MyBook*)bk)->nast->rez->tn);  
   \   00000034   340394E5           LDR      R0,[R4, #+820]
   \   00000038   080090E5           LDR      R0,[R0, #+8]
   \   0000003C   040090E5           LDR      R0,[R0, #+4]
   \   00000040   040000EA           B        ??DeleteRes_3
    397            }
    398            if(item==2)
   \                     ??DeleteRes_2:
   \   00000044   020050E3           CMP      R0,#+2
   \   00000048   1080BD18           POPNE    {R4,PC}
    399            {
    400              DELTABL(((MyBook*)bk)->nast->rez->th);  
   \   0000004C   340394E5           LDR      R0,[R4, #+820]
   \   00000050   080090E5           LDR      R0,[R0, #+8]
   \   00000054   080090E5           LDR      R0,[R0, #+8]
   \                     ??DeleteRes_3:
   \   00000058   1040BDE8           POP      {R4,LR}          ;; Pop
   \   0000005C   ........           _BF      ??DELTABL,??DELTABL??rA  ;; tailcall
    401            }
    402          }
    403          

   \                                 In segment CODE, align 4, keep-with-next
    404          int SetTitlePunktsMR(GUI_MESSAGE * msg)
    405          {
   \                     ??SetTitlePunktsMR:
   \   00000000   30402DE9           PUSH     {R4,R5,LR}
   \   00000004   04D04DE2           SUB      SP,SP,#+4
   \   00000008   0040A0E1           MOV      R4,R0
    406            int item;
    407            int ID;
    408            switch( GUIonMessage_GetMsg(msg) )
   \   0000000C   740300EF           SWI      +884
   \   00000010   010050E3           CMP      R0,#+1
   \   00000014   2E00001A           BNE      ??SetTitlePunktsMR_1
    409            {
    410              case 1:
    411                item=GUIonMessage_GetCreatedItemIndex(msg);
    412                if(item==0)
   \   00000018   BC509FE5           LDR      R5,??SetTitlePunktsMR_2  ;; `?<Constant L"\\x41b\\x435\\x433\\x43a\\x43e">`
   \   0000001C   0400A0E1           MOV      R0,R4
   \   00000020   370100EF           SWI      +311
   \   00000024   FF20A0E3           MOV      R2,#+255
   \   00000028   FF2C82E3           ORR      R2,R2,#0xFF00
   \   0000002C   000050E3           CMP      R0,#+0
   \   00000030   0900001A           BNE      ??SetTitlePunktsMR_3
    413                {
    414                  GUIonMessage_SetMenuItemText(msg,TextID_Create(L"Легко",ENC_UCS2,TEXTID_ANY_LEN));
   \   00000034   0010A0E3           MOV      R1,#+0
   \   00000038   0500A0E1           MOV      R0,R5
   \   0000003C   5D0100EF           SWI      +349
   \   00000040   0010A0E1           MOV      R1,R0
   \   00000044   0400A0E1           MOV      R0,R4
   \   00000048   380100EF           SWI      +312
    415                  iconidname2id(L"WV_BUDDYLIST_CONTACT_AVAILABLE_ASHAMED_ICN", -1, &ID);
   \   0000004C   0D20A0E1           MOV      R2,SP
   \   00000050   0010E0E3           MVN      R1,#+0
   \   00000054   0C0085E2           ADD      R0,R5,#+12
   \   00000058   160000EA           B        ??SetTitlePunktsMR_4
    416                  GUIonMessage_SetMenuItemIcon(msg, 0, ID);
    417                }
    418                if(item==1)
   \                     ??SetTitlePunktsMR_3:
   \   0000005C   010050E3           CMP      R0,#+1
   \   00000060   0900001A           BNE      ??SetTitlePunktsMR_5
    419                {
    420                  GUIonMessage_SetMenuItemText(msg,TextID_Create(L"Средне",ENC_UCS2,TEXTID_ANY_LEN));
   \   00000064   0010A0E3           MOV      R1,#+0
   \   00000068   640085E2           ADD      R0,R5,#+100
   \   0000006C   5D0100EF           SWI      +349
   \   00000070   0010A0E1           MOV      R1,R0
   \   00000074   0400A0E1           MOV      R0,R4
   \   00000078   380100EF           SWI      +312
    421                  iconidname2id(L"WV_BUDDYLIST_CONTACT_AVAILABLE_ANXIOUS_ICN", -1, &ID);
   \   0000007C   0D20A0E1           MOV      R2,SP
   \   00000080   0010E0E3           MVN      R1,#+0
   \   00000084   740085E2           ADD      R0,R5,#+116
   \   00000088   0A0000EA           B        ??SetTitlePunktsMR_4
    422                  GUIonMessage_SetMenuItemIcon(msg, 0, ID);
    423                }
    424                if(item==2)
   \                     ??SetTitlePunktsMR_5:
   \   0000008C   020050E3           CMP      R0,#+2
   \   00000090   0F00001A           BNE      ??SetTitlePunktsMR_1
    425                {
    426                  GUIonMessage_SetMenuItemText(msg,TextID_Create(L"Тяжело",ENC_UCS2,TEXTID_ANY_LEN));
   \   00000094   0010A0E3           MOV      R1,#+0
   \   00000098   CC0085E2           ADD      R0,R5,#+204
   \   0000009C   5D0100EF           SWI      +349
   \   000000A0   0010A0E1           MOV      R1,R0
   \   000000A4   0400A0E1           MOV      R0,R4
   \   000000A8   380100EF           SWI      +312
    427                  iconidname2id(L"WV_BUDDYLIST_CONTACT_AVAILABLE_ANGRY_ICN", -1, &ID);
   \   000000AC   0D20A0E1           MOV      R2,SP
   \   000000B0   0010E0E3           MVN      R1,#+0
   \   000000B4   DC0085E2           ADD      R0,R5,#+220
   \                     ??SetTitlePunktsMR_4:
   \   000000B8   860200EF           SWI      +646
    428                  GUIonMessage_SetMenuItemIcon(msg, 0, ID);
   \   000000BC   00209DE5           LDR      R2,[SP, #+0]
   \   000000C0   0010A0E3           MOV      R1,#+0
   \   000000C4   0228A0E1           MOV      R2,R2, LSL #+16
   \   000000C8   2228A0E1           MOV      R2,R2, LSR #+16
   \   000000CC   0400A0E1           MOV      R0,R4
   \   000000D0   3C0100EF           SWI      +316
    429                }
    430            }
    431            return(1);        
   \                     ??SetTitlePunktsMR_1:
   \   000000D4   0100A0E3           MOV      R0,#+1
   \   000000D8   3280BDE8           POP      {R1,R4,R5,PC}    ;; return
   \                     ??SetTitlePunktsMR_2:
   \   000000DC   ........           DC32     `?<Constant L"\\x41b\\x435\\x433\\x43a\\x43e">`
    432          }
    433          

   \                                 In segment CODE, align 4, keep-with-next
    434          void MenuResultat(MyBook*bk)
    435          {
   \                     ??MenuResultat:
   \   00000000   F0402DE9           PUSH     {R4-R7,LR}
   \   00000004   0050A0E1           MOV      R5,R0
    436            if(bk->gui) GUIObject_Destroy(bk->gui);
   \   00000008   8C0195E5           LDR      R0,[R5, #+396]
   \   0000000C   000050E3           CMP      R0,#+0
   \   00000010   0100000A           BEQ      ??MenuResultat_1
   \   00000014   CE0100EF           SWI      +462
    437            bk->gui=0;
   \   00000018   0000A0E3           MOV      R0,#+0
   \                     ??MenuResultat_1:
   \   0000001C   8C0185E5           STR      R0,[R5, #+396]
    438            GUI_LIST*MR=CreateListMenu((BOOK*)bk,0);
   \   00000020   0010A0E3           MOV      R1,#+0
    439            ((MyBook*)bk)->gui=MR;
    440            GUIObject_SetTitleText(MR, TextID_Create(L"Результаты",ENC_UCS2,TEXTID_ANY_LEN));
    441            ListMenu_SetItemCount(MR, 3);
    442            OneOfMany_SetOnMessage(MR,SetTitlePunktsMR);
    443            ListMenu_SetCursorToItem(MR,0);
    444            ListMenu_SetItemStyle(MR,0);
    445            GUIObject_SoftKeys_SetAction(MR,ACTION_BACK,ExitNM);
   \   00000024   ........           LDR      R7,??DataTable42  ;; ??ExitNM
   \   00000028   0500A0E1           MOV      R0,R5
   \   0000002C   C00100EF           SWI      +448
   \   00000030   0040A0E1           MOV      R4,R0
   \   00000034   8C4185E5           STR      R4,[R5, #+396]
   \   00000038   ........           LDR      R5,??DataTable47  ;; `?<Constant L"\\x412\\x44b\\x439\\x442\\x438\\x20\\x43`
   \   0000003C   FF60A0E3           MOV      R6,#+255
   \   00000040   FF6C86E3           ORR      R6,R6,#0xFF00
   \   00000044   0620A0E1           MOV      R2,R6
   \   00000048   0010A0E3           MOV      R1,#+0
   \   0000004C   580085E2           ADD      R0,R5,#+88
   \   00000050   5D0100EF           SWI      +349
   \   00000054   0010A0E1           MOV      R1,R0
   \   00000058   0400A0E1           MOV      R0,R4
   \   0000005C   330100EF           SWI      +307
   \   00000060   0310A0E3           MOV      R1,#+3
   \   00000064   0400A0E1           MOV      R0,R4
   \   00000068   C10100EF           SWI      +449
   \   0000006C   ........           LDR      R1,??DataTable43  ;; ??SetTitlePunktsMR
   \   00000070   0400A0E1           MOV      R0,R4
   \   00000074   E10100EF           SWI      +481
   \   00000078   0010A0E3           MOV      R1,#+0
   \   0000007C   0400A0E1           MOV      R0,R4
   \   00000080   350100EF           SWI      +309
   \   00000084   0010A0E3           MOV      R1,#+0
   \   00000088   0400A0E1           MOV      R0,R4
   \   0000008C   3F0100EF           SWI      +319
   \   00000090   ........           LDR      R0,??DataTable40  ;; ACTION_BACK
   \   00000094   0720A0E1           MOV      R2,R7
   \   00000098   001090E5           LDR      R1,[R0, #+0]
   \   0000009C   0400A0E1           MOV      R0,R4
   \   000000A0   0118A0E1           MOV      R1,R1, LSL #+16
   \   000000A4   2118A0E1           MOV      R1,R1, LSR #+16
   \   000000A8   4B0100EF           SWI      +331
    446            GUIObject_SoftKeys_SetAction(MR,ACTION_LONG_BACK,ExitNM);
   \   000000AC   ........           LDR      R0,??DataTable41  ;; ACTION_LONG_BACK
   \   000000B0   0720A0E1           MOV      R2,R7
   \   000000B4   001090E5           LDR      R1,[R0, #+0]
   \   000000B8   0400A0E1           MOV      R0,R4
   \   000000BC   0118A0E1           MOV      R1,R1, LSL #+16
   \   000000C0   2118A0E1           MOV      R1,R1, LSR #+16
   \   000000C4   4B0100EF           SWI      +331
    447            GUIObject_SoftKeys_SetAction(MR,ACTION_SELECT1,OnEntMR);
   \   000000C8   ........           LDR      R0,??DataTable38  ;; ACTION_SELECT1
   \   000000CC   70209FE5           LDR      R2,??MenuResultat_2  ;; ??OnEntMR
   \   000000D0   007090E5           LDR      R7,[R0, #+0]
   \   000000D4   0400A0E1           MOV      R0,R4
   \   000000D8   0718A0E1           MOV      R1,R7, LSL #+16
   \   000000DC   2118A0E1           MOV      R1,R1, LSR #+16
   \   000000E0   4B0100EF           SWI      +331
    448            GUIObject_SoftKeys_SetAction(MR,1,DeleteRes);
   \   000000E4   5C209FE5           LDR      R2,??MenuResultat_2+0x4  ;; ??DeleteRes
   \   000000E8   0110A0E3           MOV      R1,#+1
   \   000000EC   0400A0E1           MOV      R0,R4
   \   000000F0   4B0100EF           SWI      +331
    449            GUIObject_SoftKeys_SetText(MR,1,STR("Сброс"));
   \   000000F4   0620A0E1           MOV      R2,R6
   \   000000F8   0010A0E3           MOV      R1,#+0
   \   000000FC   700085E2           ADD      R0,R5,#+112
   \   00000100   5D0100EF           SWI      +349
   \   00000104   0020A0E1           MOV      R2,R0
   \   00000108   0110A0E3           MOV      R1,#+1
   \   0000010C   0400A0E1           MOV      R0,R4
   \   00000110   4C0100EF           SWI      +332
    450            GUIObject_SoftKeys_SetText(MR,ACTION_SELECT1,STR("Просм."));
   \   00000114   0620A0E1           MOV      R2,R6
   \   00000118   0010A0E3           MOV      R1,#+0
   \   0000011C   7C0085E2           ADD      R0,R5,#+124
   \   00000120   5D0100EF           SWI      +349
   \   00000124   0020A0E1           MOV      R2,R0
   \   00000128   0718A0E1           MOV      R1,R7, LSL #+16
   \   0000012C   2118A0E1           MOV      R1,R1, LSR #+16
   \   00000130   0400A0E1           MOV      R0,R4
   \   00000134   4C0100EF           SWI      +332
    451            GUIObject_Show(MR);
   \   00000138   0400A0E1           MOV      R0,R4
   \   0000013C   340100EF           SWI      +308
    452          }
   \   00000140   F080BDE8           POP      {R4-R7,PC}       ;; return
   \                     ??MenuResultat_2:
   \   00000144   ........           DC32     ??OnEntMR
   \   00000148   ........           DC32     ??DeleteRes
    453          

   \                                 In segment CODE, align 4, keep-with-next
    454          void CreateNM(MyBook*bk)
    455          {
   \                     ??CreateNM:
   \   00000000   30402DE9           PUSH     {R4,R5,LR}
   \   00000004   0040A0E1           MOV      R4,R0
    456            if(bk->gui) GUIObject_Destroy(bk->gui);
   \   00000008   8C0194E5           LDR      R0,[R4, #+396]
   \   0000000C   000050E3           CMP      R0,#+0
   \   00000010   0100000A           BEQ      ??CreateNM_1
   \   00000014   CE0100EF           SWI      +462
    457            bk->gui=0;
   \   00000018   0000A0E3           MOV      R0,#+0
   \                     ??CreateNM_1:
   \   0000001C   8C0184E5           STR      R0,[R4, #+396]
    458            GUI_LIST*NM=CreateListMenu((BOOK*)bk,0);
   \   00000020   0010A0E3           MOV      R1,#+0
   \   00000024   0400A0E1           MOV      R0,R4
   \   00000028   C00100EF           SWI      +448
   \   0000002C   0050A0E1           MOV      R5,R0
    459            ((MyBook*)bk)->gui=NM;
    460            GUIObject_SetTitleText(NM, TextID_Create(L"Настройки",ENC_UCS2,TEXTID_ANY_LEN));
   \   00000030   B0009FE5           LDR      R0,??CreateNM_2  ;; `?<Constant L"\\x412\\x44b\\x439\\x442\\x438\\x20\\x43` + 140
   \   00000034   8C5184E5           STR      R5,[R4, #+396]
   \   00000038   FF20A0E3           MOV      R2,#+255
   \   0000003C   FF2C82E3           ORR      R2,R2,#0xFF00
    461            ListMenu_SetItemCount(NM, 2);
    462            OneOfMany_SetOnMessage(NM,SetTitlePunktsNM);
    463            ListMenu_SetCursorToItem(NM,0);
    464            ListMenu_SetItemStyle(NM,0);
    465            GUIObject_SoftKeys_SetAction(NM,ACTION_BACK,ExitNM);
   \   00000040   ........           LDR      R4,??DataTable42  ;; ??ExitNM
   \   00000044   0010A0E3           MOV      R1,#+0
   \   00000048   5D0100EF           SWI      +349
   \   0000004C   0010A0E1           MOV      R1,R0
   \   00000050   0500A0E1           MOV      R0,R5
   \   00000054   330100EF           SWI      +307
   \   00000058   0210A0E3           MOV      R1,#+2
   \   0000005C   0500A0E1           MOV      R0,R5
   \   00000060   C10100EF           SWI      +449
   \   00000064   80109FE5           LDR      R1,??CreateNM_2+0x4  ;; ??SetTitlePunktsNM
   \   00000068   0500A0E1           MOV      R0,R5
   \   0000006C   E10100EF           SWI      +481
   \   00000070   0010A0E3           MOV      R1,#+0
   \   00000074   0500A0E1           MOV      R0,R5
   \   00000078   350100EF           SWI      +309
   \   0000007C   0010A0E3           MOV      R1,#+0
   \   00000080   0500A0E1           MOV      R0,R5
   \   00000084   3F0100EF           SWI      +319
   \   00000088   ........           LDR      R0,??DataTable40  ;; ACTION_BACK
   \   0000008C   0420A0E1           MOV      R2,R4
   \   00000090   001090E5           LDR      R1,[R0, #+0]
   \   00000094   0500A0E1           MOV      R0,R5
   \   00000098   0118A0E1           MOV      R1,R1, LSL #+16
   \   0000009C   2118A0E1           MOV      R1,R1, LSR #+16
   \   000000A0   4B0100EF           SWI      +331
    466            GUIObject_SoftKeys_SetAction(NM,ACTION_LONG_BACK,ExitNM);
   \   000000A4   ........           LDR      R0,??DataTable41  ;; ACTION_LONG_BACK
   \   000000A8   0420A0E1           MOV      R2,R4
   \   000000AC   001090E5           LDR      R1,[R0, #+0]
   \   000000B0   0500A0E1           MOV      R0,R5
   \   000000B4   0118A0E1           MOV      R1,R1, LSL #+16
   \   000000B8   2118A0E1           MOV      R1,R1, LSR #+16
   \   000000BC   4B0100EF           SWI      +331
    467            GUIObject_SoftKeys_SetAction(NM,ACTION_SELECT1,OnEntNM);
   \   000000C0   ........           LDR      R0,??DataTable38  ;; ACTION_SELECT1
   \   000000C4   24209FE5           LDR      R2,??CreateNM_2+0x8  ;; ??OnEntNM
   \   000000C8   001090E5           LDR      R1,[R0, #+0]
   \   000000CC   0500A0E1           MOV      R0,R5
   \   000000D0   0118A0E1           MOV      R1,R1, LSL #+16
   \   000000D4   2118A0E1           MOV      R1,R1, LSR #+16
   \   000000D8   4B0100EF           SWI      +331
    468            GUIObject_Show(NM);
   \   000000DC   0500A0E1           MOV      R0,R5
   \   000000E0   340100EF           SWI      +308
    469          }
   \   000000E4   3080BDE8           POP      {R4,R5,PC}       ;; return
   \                     ??CreateNM_2:
   \   000000E8   ........           DC32     `?<Constant L"\\x412\\x44b\\x439\\x442\\x438\\x20\\x43` + 140
   \   000000EC   ........           DC32     ??SetTitlePunktsNM
   \   000000F0   ........           DC32     ??OnEntNM
    470            
    471          

   \                                 In segment CODE, align 4, keep-with-next
    472          void YesPress( BOOK* bk, GUI* )
    473          {
   \                     ??YesPress:
   \   00000000   00402DE9           PUSH     {LR}
    474            FreeBook(bk);
   \   00000004   2F0100EF           SWI      +303
    475          }
   \   00000008   0080BDE8           POP      {PC}             ;; return
    476          

   \                                 In segment CODE, align 4, keep-with-next
    477          void NoPress( BOOK* bk, GUI* )
    478          {
   \                     ??NoPress:
   \   00000000   10402DE9           PUSH     {R4,LR}
   \   00000004   0040A0E1           MOV      R4,R0
    479            GUIObject_Destroy(((MyBook*)bk)->gui1);
   \   00000008   880194E5           LDR      R0,[R4, #+392]
   \   0000000C   CE0100EF           SWI      +462
    480            ((MyBook*)bk)->gui1=0;
   \   00000010   0000A0E3           MOV      R0,#+0
   \   00000014   880184E5           STR      R0,[R4, #+392]
    481            GUIObject_Show(((MyBook*)bk)->gui);
   \   00000018   8C0194E5           LDR      R0,[R4, #+396]
   \   0000001C   340100EF           SWI      +308
    482          }
   \   00000020   1080BDE8           POP      {R4,PC}          ;; return
    483          

   \                                 In segment CODE, align 4, keep-with-next
    484          void YesNo(MyBook*bk)
    485          {
   \                     ??YesNo:
   \   00000000   30402DE9           PUSH     {R4,R5,LR}
    486            bk->gui1=CreateYesNoQuestionVA(0,
    487                                              VAR_BOOK(bk),
    488                                              VAR_YESNO_QUESTION(TextID_Create(L"Выйти?", ENC_UCS2, TEXTID_ANY_LEN)),
    489                                              0);
   \   00000004   FF20A0E3           MOV      R2,#+255
   \   00000008   0040A0E1           MOV      R4,R0
   \   0000000C   AC009FE5           LDR      R0,??YesNo_1     ;; `?<Constant L"\\x412\\x44b\\x439\\x442\\x438\\x3f">`
   \   00000010   FF2C82E3           ORR      R2,R2,#0xFF00
    490            GUIObject_SoftKeys_SetAction(bk->gui1, ACTION_YES, YesPress);
    491            GUIObject_SoftKeys_SetAction(bk->gui1, ACTION_NO,  NoPress);
   \   00000014   A8509FE5           LDR      R5,??YesNo_1+0x4  ;; ??NoPress
   \   00000018   0010A0E3           MOV      R1,#+0
   \   0000001C   5D0100EF           SWI      +349
   \   00000020   A0309FE5           LDR      R3,??YesNo_1+0x8  ;; VAR_ARG_YESNO_QUESTION
   \   00000024   0010A0E3           MOV      R1,#+0
   \   00000028   02002DE9           PUSH     {R1}
   \   0000002C   ........           LDR      R1,??DataTable39  ;; VAR_ARG_BOOK
   \   00000030   01002DE9           PUSH     {R0}
   \   00000034   0420A0E1           MOV      R2,R4
   \   00000038   0000A0E3           MOV      R0,#+0
   \   0000003C   A50200EF           SWI      +677
   \   00000040   84209FE5           LDR      R2,??YesNo_1+0xC  ;; ??YesPress
   \   00000044   880184E5           STR      R0,[R4, #+392]
   \   00000048   80009FE5           LDR      R0,??YesNo_1+0x10  ;; ACTION_YES
   \   0000004C   001090E5           LDR      R1,[R0, #+0]
   \   00000050   880194E5           LDR      R0,[R4, #+392]
   \   00000054   0118A0E1           MOV      R1,R1, LSL #+16
   \   00000058   2118A0E1           MOV      R1,R1, LSR #+16
   \   0000005C   4B0100EF           SWI      +331
   \   00000060   6C009FE5           LDR      R0,??YesNo_1+0x14  ;; ACTION_NO
   \   00000064   0520A0E1           MOV      R2,R5
   \   00000068   001090E5           LDR      R1,[R0, #+0]
   \   0000006C   880194E5           LDR      R0,[R4, #+392]
   \   00000070   0118A0E1           MOV      R1,R1, LSL #+16
   \   00000074   2118A0E1           MOV      R1,R1, LSR #+16
   \   00000078   4B0100EF           SWI      +331
    492            GUIObject_SoftKeys_SetAction(bk->gui1, ACTION_BACK, NoPress);
   \   0000007C   ........           LDR      R0,??DataTable40  ;; ACTION_BACK
   \   00000080   0520A0E1           MOV      R2,R5
   \   00000084   001090E5           LDR      R1,[R0, #+0]
   \   00000088   880194E5           LDR      R0,[R4, #+392]
   \   0000008C   0118A0E1           MOV      R1,R1, LSL #+16
   \   00000090   2118A0E1           MOV      R1,R1, LSR #+16
   \   00000094   4B0100EF           SWI      +331
    493            GUIObject_SoftKeys_SetAction(bk->gui1, ACTION_LONG_BACK, NoPress);
   \   00000098   ........           LDR      R0,??DataTable41  ;; ACTION_LONG_BACK
   \   0000009C   0520A0E1           MOV      R2,R5
   \   000000A0   001090E5           LDR      R1,[R0, #+0]
   \   000000A4   880194E5           LDR      R0,[R4, #+392]
   \   000000A8   0118A0E1           MOV      R1,R1, LSL #+16
   \   000000AC   2118A0E1           MOV      R1,R1, LSR #+16
   \   000000B0   4B0100EF           SWI      +331
    494            GUIObject_Show(((MyBook*)bk)->gui1);
   \   000000B4   880194E5           LDR      R0,[R4, #+392]
   \   000000B8   340100EF           SWI      +308
    495          }
   \   000000BC   3380BDE8           POP      {R0,R1,R4,R5,PC}  ;; return
   \                     ??YesNo_1:
   \   000000C0   ........           DC32     `?<Constant L"\\x412\\x44b\\x439\\x442\\x438\\x3f">`
   \   000000C4   ........           DC32     ??NoPress
   \   000000C8   ........           DC32     VAR_ARG_YESNO_QUESTION
   \   000000CC   ........           DC32     ??YesPress
   \   000000D0   ........           DC32     ACTION_YES
   \   000000D4   ........           DC32     ACTION_NO
    496          

   \                                 In segment CODE, align 4, keep-with-next
    497          void ExitGM( BOOK* bk, GUI* )
    498          {
    499            YesNo((MyBook*)bk);
   \                     ??ExitGM:
   \   00000000   ........           B        ??YesNo          ;; tailcall
    500          }
    501          
    502          
    503          

   \                                 In segment CODE, align 4, keep-with-next
    504          void CreateGameM(MyBook*bk)
    505          {
   \                     ??CreateGameM:
   \   00000000   30402DE9           PUSH     {R4,R5,LR}
   \   00000004   0040A0E1           MOV      R4,R0
    506            if(bk->gui) GUIObject_Destroy(bk->gui);
   \   00000008   8C0194E5           LDR      R0,[R4, #+396]
   \   0000000C   000050E3           CMP      R0,#+0
   \   00000010   0100000A           BEQ      ??CreateGameM_1
   \   00000014   CE0100EF           SWI      +462
    507            bk->gui=0;
   \   00000018   0000A0E3           MOV      R0,#+0
   \                     ??CreateGameM_1:
   \   0000001C   8C0184E5           STR      R0,[R4, #+396]
    508            GUI_LIST*GameM=CreateListMenu((BOOK*)bk,0);
   \   00000020   0010A0E3           MOV      R1,#+0
   \   00000024   0400A0E1           MOV      R0,R4
   \   00000028   C00100EF           SWI      +448
   \   0000002C   0050A0E1           MOV      R5,R0
    509            ((MyBook*)bk)->gui=GameM;
    510            GUIObject_SetTitleText(GameM, TextID_Create(L"Выбор уровня",ENC_UCS2,TEXTID_ANY_LEN));
   \   00000030   B0009FE5           LDR      R0,??CreateGameM_2  ;; `?<Constant L"\\x412\\x44b\\x431\\x43e\\x440\\x20\\x44`
   \   00000034   8C5184E5           STR      R5,[R4, #+396]
   \   00000038   FF20A0E3           MOV      R2,#+255
   \   0000003C   FF2C82E3           ORR      R2,R2,#0xFF00
    511            ListMenu_SetItemCount(GameM, 3);
    512            OneOfMany_SetOnMessage(GameM,SetTitlePunktsMR);
    513            ListMenu_SetCursorToItem(GameM,0);
    514            ListMenu_SetItemStyle(GameM,0);
    515            GUIObject_SoftKeys_SetAction(GameM,ACTION_BACK,ExitNM);
   \   00000040   ........           LDR      R4,??DataTable42  ;; ??ExitNM
   \   00000044   0010A0E3           MOV      R1,#+0
   \   00000048   5D0100EF           SWI      +349
   \   0000004C   0010A0E1           MOV      R1,R0
   \   00000050   0500A0E1           MOV      R0,R5
   \   00000054   330100EF           SWI      +307
   \   00000058   0310A0E3           MOV      R1,#+3
   \   0000005C   0500A0E1           MOV      R0,R5
   \   00000060   C10100EF           SWI      +449
   \   00000064   ........           LDR      R1,??DataTable43  ;; ??SetTitlePunktsMR
   \   00000068   0500A0E1           MOV      R0,R5
   \   0000006C   E10100EF           SWI      +481
   \   00000070   0010A0E3           MOV      R1,#+0
   \   00000074   0500A0E1           MOV      R0,R5
   \   00000078   350100EF           SWI      +309
   \   0000007C   0010A0E3           MOV      R1,#+0
   \   00000080   0500A0E1           MOV      R0,R5
   \   00000084   3F0100EF           SWI      +319
   \   00000088   ........           LDR      R0,??DataTable48  ;; ACTION_BACK
   \   0000008C   0420A0E1           MOV      R2,R4
   \   00000090   001090E5           LDR      R1,[R0, #+0]
   \   00000094   0500A0E1           MOV      R0,R5
   \   00000098   0118A0E1           MOV      R1,R1, LSL #+16
   \   0000009C   2118A0E1           MOV      R1,R1, LSR #+16
   \   000000A0   4B0100EF           SWI      +331
    516            GUIObject_SoftKeys_SetAction(GameM,ACTION_LONG_BACK,ExitNM);
   \   000000A4   ........           LDR      R0,??DataTable49  ;; ACTION_LONG_BACK
   \   000000A8   0420A0E1           MOV      R2,R4
   \   000000AC   001090E5           LDR      R1,[R0, #+0]
   \   000000B0   0500A0E1           MOV      R0,R5
   \   000000B4   0118A0E1           MOV      R1,R1, LSL #+16
   \   000000B8   2118A0E1           MOV      R1,R1, LSR #+16
   \   000000BC   4B0100EF           SWI      +331
    517            GUIObject_SoftKeys_SetAction(GameM,ACTION_SELECT1,OnEntGameM);
   \   000000C0   ........           LDR      R0,??DataTable50  ;; ACTION_SELECT1
   \   000000C4   20209FE5           LDR      R2,??CreateGameM_2+0x4  ;; ??OnEntGameM
   \   000000C8   001090E5           LDR      R1,[R0, #+0]
   \   000000CC   0500A0E1           MOV      R0,R5
   \   000000D0   0118A0E1           MOV      R1,R1, LSL #+16
   \   000000D4   2118A0E1           MOV      R1,R1, LSR #+16
   \   000000D8   4B0100EF           SWI      +331
    518            GUIObject_Show(GameM);
   \   000000DC   0500A0E1           MOV      R0,R5
   \   000000E0   340100EF           SWI      +308
    519          }
   \   000000E4   3080BDE8           POP      {R4,R5,PC}       ;; return
   \                     ??CreateGameM_2:
   \   000000E8   ........           DC32     `?<Constant L"\\x412\\x44b\\x431\\x43e\\x440\\x20\\x44`
   \   000000EC   ........           DC32     ??OnEntGameM
    520          

   \                                 In segment CODE, align 4, keep-with-next
    521          void OnEntGM( BOOK* bk, GUI* )
    522          {
   \                     ??OnEntGM:
   \   00000000   10402DE9           PUSH     {R4,LR}
   \   00000004   0040A0E1           MOV      R4,R0
    523            int item=ListMenu_GetSelectedItem(((MyBook*)bk)->gui);
   \   00000008   8C0194E5           LDR      R0,[R4, #+396]
   \   0000000C   3E0100EF           SWI      +318
    524            if(item==0)
   \   00000010   000050E3           CMP      R0,#+0
   \   00000014   0200001A           BNE      ??OnEntGM_1
    525            {
    526              CreateGameM((MyBook*)bk);
   \   00000018   0400A0E1           MOV      R0,R4
   \   0000001C   ........           BL       ??CreateGameM
   \   00000020   1080BDE8           POP      {R4,PC}
    527            }
    528            if(item==1)
   \                     ??OnEntGM_1:
   \   00000024   010050E3           CMP      R0,#+1
   \   00000028   0200001A           BNE      ??OnEntGM_2
    529            {
    530              CreateNM((MyBook*)bk);    
   \   0000002C   0400A0E1           MOV      R0,R4
   \   00000030   ........           BL       ??CreateNM
   \   00000034   1080BDE8           POP      {R4,PC}
    531            }
    532            if(item==2)
   \                     ??OnEntGM_2:
   \   00000038   020050E3           CMP      R0,#+2
   \   0000003C   0200001A           BNE      ??OnEntGM_3
    533            {
    534              MenuResultat((MyBook*)bk);
   \   00000040   0400A0E1           MOV      R0,R4
   \   00000044   ........           BL       ??MenuResultat
   \   00000048   1080BDE8           POP      {R4,PC}
    535            }
    536            if(item==3)
   \                     ??OnEntGM_3:
   \   0000004C   030050E3           CMP      R0,#+3
   \   00000050   0100001A           BNE      ??OnEntGM_4
    537            {
    538              ShowInfo();
   \   00000054   ........           _BLF     ??ShowInfo,??ShowInfo??rA
   \   00000058   1080BDE8           POP      {R4,PC}
    539            }
    540            if(item==4)
   \                     ??OnEntGM_4:
   \   0000005C   040050E3           CMP      R0,#+4
   \   00000060   1080BD18           POPNE    {R4,PC}
    541            {
    542              ExitGM(bk,0);
   \   00000064   0010A0E3           MOV      R1,#+0
   \   00000068   0400A0E1           MOV      R0,R4
   \   0000006C   ........           BL       ??ExitGM
    543            }
    544          }
   \   00000070   1080BDE8           POP      {R4,PC}          ;; return
    545          

   \                                 In segment CODE, align 4, keep-with-next
    546          int SetTitlePunktsGM(GUI_MESSAGE * msg)
    547          {
   \                     ??SetTitlePunktsGM:
   \   00000000   70402DE9           PUSH     {R4-R6,LR}
   \   00000004   04D04DE2           SUB      SP,SP,#+4
   \   00000008   0040A0E1           MOV      R4,R0
    548            int item;
    549            int ID;
    550            switch( GUIonMessage_GetMsg(msg) )
   \   0000000C   740300EF           SWI      +884
   \   00000010   010050E3           CMP      R0,#+1
   \   00000014   7800001A           BNE      ??SetTitlePunktsGM_1
    551            {
    552              case 1:
    553                item=GUIonMessage_GetCreatedItemIndex(msg);
    554                if(item==0)
   \   00000018   ........           LDR      R5,??DataTable47  ;; `?<Constant L"\\x412\\x44b\\x439\\x442\\x438\\x20\\x43`
   \   0000001C   0400A0E1           MOV      R0,R4
   \   00000020   370100EF           SWI      +311
   \   00000024   FF60A0E3           MOV      R6,#+255
   \   00000028   FF6C86E3           ORR      R6,R6,#0xFF00
   \   0000002C   000050E3           CMP      R0,#+0
   \   00000030   1300001A           BNE      ??SetTitlePunktsGM_2
    555                {
    556                  ID=TextID_Create(L"Новая игра",ENC_UCS2,TEXTID_ANY_LEN);
   \   00000034   0620A0E1           MOV      R2,R6
   \   00000038   0010A0E3           MOV      R1,#+0
   \   0000003C   A00085E2           ADD      R0,R5,#+160
   \   00000040   5D0100EF           SWI      +349
   \   00000044   00008DE5           STR      R0,[SP, #+0]
    557                  GUIonMessage_SetMenuItemText(msg,ID);
   \   00000048   0010A0E1           MOV      R1,R0
   \   0000004C   0400A0E1           MOV      R0,R4
   \   00000050   380100EF           SWI      +312
    558                  ID=TextID_Create(L"Начать игру!",ENC_UCS2,TEXTID_ANY_LEN);
   \   00000054   0620A0E1           MOV      R2,R6
   \   00000058   0010A0E3           MOV      R1,#+0
   \   0000005C   B80085E2           ADD      R0,R5,#+184
   \   00000060   5D0100EF           SWI      +349
   \   00000064   00008DE5           STR      R0,[SP, #+0]
    559                  GUIonMessage_SetMenuItemSecondLineText(msg,ID);
   \   00000068   0010A0E1           MOV      R1,R0
   \   0000006C   0400A0E1           MOV      R0,R4
   \   00000070   390100EF           SWI      +313
    560                  iconidname2id(L"PROFILE_INCAR_LIST_ICN", -1, &ID);
   \   00000074   0D20A0E1           MOV      R2,SP
   \   00000078   0010E0E3           MVN      R1,#+0
   \   0000007C   D40085E2           ADD      R0,R5,#+212
   \   00000080   560000EA           B        ??SetTitlePunktsGM_3
    561                  GUIonMessage_SetMenuItemIcon(msg, 0, ID);
    562                }
    563                if(item==1)
   \                     ??SetTitlePunktsGM_2:
   \   00000084   010050E3           CMP      R0,#+1
   \   00000088   1300001A           BNE      ??SetTitlePunktsGM_4
    564                {
    565                  ID=TextID_Create(L"Настройки",ENC_UCS2,TEXTID_ANY_LEN);
   \   0000008C   0620A0E1           MOV      R2,R6
   \   00000090   0010A0E3           MOV      R1,#+0
   \   00000094   8C0085E2           ADD      R0,R5,#+140
   \   00000098   5D0100EF           SWI      +349
   \   0000009C   00008DE5           STR      R0,[SP, #+0]
    566                  GUIonMessage_SetMenuItemText(msg,ID);
   \   000000A0   0010A0E1           MOV      R1,R0
   \   000000A4   0400A0E1           MOV      R0,R4
   \   000000A8   380100EF           SWI      +312
    567                  ID=TextID_Create(L"Поковыряца",ENC_UCS2,TEXTID_ANY_LEN);
   \   000000AC   0620A0E1           MOV      R2,R6
   \   000000B0   0010A0E3           MOV      R1,#+0
   \   000000B4   410F85E2           ADD      R0,R5,#+260
   \   000000B8   5D0100EF           SWI      +349
   \   000000BC   00008DE5           STR      R0,[SP, #+0]
    568                  GUIonMessage_SetMenuItemSecondLineText(msg,ID);
   \   000000C0   0010A0E1           MOV      R1,R0
   \   000000C4   0400A0E1           MOV      R0,R4
   \   000000C8   390100EF           SWI      +313
    569                  iconidname2id(L"MENU_SETTINGS_ICN", -1, &ID);
   \   000000CC   0D20A0E1           MOV      R2,SP
   \   000000D0   0010E0E3           MVN      R1,#+0
   \   000000D4   470F85E2           ADD      R0,R5,#+284
   \   000000D8   400000EA           B        ??SetTitlePunktsGM_3
    570                  GUIonMessage_SetMenuItemIcon(msg, 0, ID);
    571                }
    572                if(item==2)
   \                     ??SetTitlePunktsGM_4:
   \   000000DC   020050E3           CMP      R0,#+2
   \   000000E0   1300001A           BNE      ??SetTitlePunktsGM_5
    573                {
    574                  ID=TextID_Create(L"Результаты",ENC_UCS2,TEXTID_ANY_LEN);
   \   000000E4   0620A0E1           MOV      R2,R6
   \   000000E8   0010A0E3           MOV      R1,#+0
   \   000000EC   580085E2           ADD      R0,R5,#+88
   \   000000F0   5D0100EF           SWI      +349
   \   000000F4   00008DE5           STR      R0,[SP, #+0]
    575                  GUIonMessage_SetMenuItemText(msg,ID);
   \   000000F8   0010A0E1           MOV      R1,R0
   \   000000FC   0400A0E1           MOV      R0,R4
   \   00000100   380100EF           SWI      +312
    576                  ID=TextID_Create(L"Просмотр результатов",ENC_UCS2,TEXTID_ANY_LEN);
   \   00000104   0620A0E1           MOV      R2,R6
   \   00000108   0010A0E3           MOV      R1,#+0
   \   0000010C   500F85E2           ADD      R0,R5,#+320
   \   00000110   5D0100EF           SWI      +349
   \   00000114   00008DE5           STR      R0,[SP, #+0]
    577                  GUIonMessage_SetMenuItemSecondLineText(msg,ID);
   \   00000118   0010A0E1           MOV      R1,R0
   \   0000011C   0400A0E1           MOV      R0,R4
   \   00000120   390100EF           SWI      +313
    578                  iconidname2id(L"MISCELLANEOUS_ICN", -1, &ID);
   \   00000124   0D20A0E1           MOV      R2,SP
   \   00000128   0010E0E3           MVN      R1,#+0
   \   0000012C   5B0F85E2           ADD      R0,R5,#+364
   \   00000130   2A0000EA           B        ??SetTitlePunktsGM_3
    579                  GUIonMessage_SetMenuItemIcon(msg, 0, ID);
    580                }
    581                if(item==3)
   \                     ??SetTitlePunktsGM_5:
   \   00000134   030050E3           CMP      R0,#+3
   \   00000138   1300001A           BNE      ??SetTitlePunktsGM_6
    582                {
    583                  ID=TextID_Create(L"Инфо",ENC_UCS2,TEXTID_ANY_LEN);
   \   0000013C   0620A0E1           MOV      R2,R6
   \   00000140   0010A0E3           MOV      R1,#+0
   \   00000144   640F85E2           ADD      R0,R5,#+400
   \   00000148   5D0100EF           SWI      +349
   \   0000014C   00008DE5           STR      R0,[SP, #+0]
    584                  GUIonMessage_SetMenuItemText(msg,ID);
   \   00000150   0010A0E1           MOV      R1,R0
   \   00000154   0400A0E1           MOV      R0,R4
   \   00000158   380100EF           SWI      +312
    585                  ID=TextID_Create(L"Информация",ENC_UCS2,TEXTID_ANY_LEN);
   \   0000015C   0620A0E1           MOV      R2,R6
   \   00000160   0010A0E3           MOV      R1,#+0
   \   00000164   670F85E2           ADD      R0,R5,#+412
   \   00000168   5D0100EF           SWI      +349
   \   0000016C   00008DE5           STR      R0,[SP, #+0]
    586                  GUIonMessage_SetMenuItemSecondLineText(msg,ID);
   \   00000170   0010A0E1           MOV      R1,R0
   \   00000174   0400A0E1           MOV      R0,R4
   \   00000178   390100EF           SWI      +313
    587                  iconidname2id(L"HELP_TEXT_ICN", -1, &ID);
   \   0000017C   0D20A0E1           MOV      R2,SP
   \   00000180   0010E0E3           MVN      R1,#+0
   \   00000184   6D0F85E2           ADD      R0,R5,#+436
   \   00000188   140000EA           B        ??SetTitlePunktsGM_3
    588                  GUIonMessage_SetMenuItemIcon(msg, 0, ID);
    589                }
    590                if(item==4)
   \                     ??SetTitlePunktsGM_6:
   \   0000018C   040050E3           CMP      R0,#+4
   \   00000190   1900001A           BNE      ??SetTitlePunktsGM_1
    591                {
    592                  ID=TextID_Create(L"Выход",ENC_UCS2,TEXTID_ANY_LEN);
   \   00000194   0620A0E1           MOV      R2,R6
   \   00000198   0010A0E3           MOV      R1,#+0
   \   0000019C   740F85E2           ADD      R0,R5,#+464
   \   000001A0   5D0100EF           SWI      +349
   \   000001A4   00008DE5           STR      R0,[SP, #+0]
    593                  GUIonMessage_SetMenuItemText(msg,ID);
   \   000001A8   0010A0E1           MOV      R1,R0
   \   000001AC   0400A0E1           MOV      R0,R4
   \   000001B0   380100EF           SWI      +312
    594                  ID=TextID_Create(L"Выйти из игры",ENC_UCS2,TEXTID_ANY_LEN);
   \   000001B4   0620A0E1           MOV      R2,R6
   \   000001B8   0010A0E3           MOV      R1,#+0
   \   000001BC   0500A0E1           MOV      R0,R5
   \   000001C0   5D0100EF           SWI      +349
   \   000001C4   00008DE5           STR      R0,[SP, #+0]
    595                  GUIonMessage_SetMenuItemSecondLineText(msg,ID);
   \   000001C8   0010A0E1           MOV      R1,R0
   \   000001CC   0400A0E1           MOV      R0,R4
   \   000001D0   390100EF           SWI      +313
    596                  iconidname2id(L"FORBIDDEN_NETWORK_ICN", -1, &ID);
   \   000001D4   0D20A0E1           MOV      R2,SP
   \   000001D8   0010E0E3           MVN      R1,#+0
   \   000001DC   1C0085E2           ADD      R0,R5,#+28
   \                     ??SetTitlePunktsGM_3:
   \   000001E0   860200EF           SWI      +646
    597                  GUIonMessage_SetMenuItemIcon(msg, 0, ID);
   \   000001E4   00209DE5           LDR      R2,[SP, #+0]
   \   000001E8   0010A0E3           MOV      R1,#+0
   \   000001EC   0228A0E1           MOV      R2,R2, LSL #+16
   \   000001F0   2228A0E1           MOV      R2,R2, LSR #+16
   \   000001F4   0400A0E1           MOV      R0,R4
   \   000001F8   3C0100EF           SWI      +316
    598                }
    599            }
    600            return(1);        
   \                     ??SetTitlePunktsGM_1:
   \   000001FC   0100A0E3           MOV      R0,#+1
   \   00000200   7280BDE8           POP      {R1,R4-R6,PC}    ;; return
    601          }
    602          

   \                                 In segment CODE, align 4, keep-with-next
    603          int CreateGM(void*, BOOK*bk)
    604          {
   \                     ??CreateGM:
   \   00000000   30402DE9           PUSH     {R4,R5,LR}
   \   00000004   0140A0E1           MOV      R4,R1
    605            int ID;
    606            GUI_LIST*GM=CreateListMenu((BOOK*)bk,0);
   \   00000008   0010A0E3           MOV      R1,#+0
   \   0000000C   0400A0E1           MOV      R0,R4
   \   00000010   C00100EF           SWI      +448
   \   00000014   0050A0E1           MOV      R5,R0
    607            if(((MyBook*)bk)->gui) GUIObject_Destroy(((MyBook*)bk)->gui);
   \   00000018   8C0194E5           LDR      R0,[R4, #+396]
   \   0000001C   000050E3           CMP      R0,#+0
   \   00000020   0100000A           BEQ      ??CreateGM_1
   \   00000024   CE0100EF           SWI      +462
    608            ((MyBook*)bk)->gui=0;
   \   00000028   0000A0E3           MOV      R0,#+0
   \                     ??CreateGM_1:
   \   0000002C   8C0184E5           STR      R0,[R4, #+396]
    609            ((MyBook*)bk)->gui=GM;
    610            ID=TextID_Create(L"Gono4ki",ENC_UCS2,TEXTID_ANY_LEN);
   \   00000030   B4009FE5           LDR      R0,??CreateGM_2  ;; `?<Constant L"\\x47\\x6f\\x6e\\x6f\\x34\\x6b\\x69">`
   \   00000034   8C5184E5           STR      R5,[R4, #+396]
   \   00000038   FF20A0E3           MOV      R2,#+255
   \   0000003C   FF2C82E3           ORR      R2,R2,#0xFF00
    611            GUIObject_SetTitleText(GM, ID);
    612            ListMenu_SetItemCount(GM, 5);
    613            OneOfMany_SetOnMessage(GM,SetTitlePunktsGM);
    614            ListMenu_SetCursorToItem(GM,0);
    615            ListMenu_SetItemStyle(GM,3);
    616            GUIObject_SoftKeys_SetAction(GM,ACTION_BACK,ExitGM);
   \   00000040   A8409FE5           LDR      R4,??CreateGM_2+0x4  ;; ??ExitGM
   \   00000044   0010A0E3           MOV      R1,#+0
   \   00000048   5D0100EF           SWI      +349
   \   0000004C   0010A0E1           MOV      R1,R0
   \   00000050   0500A0E1           MOV      R0,R5
   \   00000054   330100EF           SWI      +307
   \   00000058   0510A0E3           MOV      R1,#+5
   \   0000005C   0500A0E1           MOV      R0,R5
   \   00000060   C10100EF           SWI      +449
   \   00000064   88109FE5           LDR      R1,??CreateGM_2+0x8  ;; ??SetTitlePunktsGM
   \   00000068   0500A0E1           MOV      R0,R5
   \   0000006C   E10100EF           SWI      +481
   \   00000070   0010A0E3           MOV      R1,#+0
   \   00000074   0500A0E1           MOV      R0,R5
   \   00000078   350100EF           SWI      +309
   \   0000007C   0310A0E3           MOV      R1,#+3
   \   00000080   0500A0E1           MOV      R0,R5
   \   00000084   3F0100EF           SWI      +319
   \   00000088   ........           LDR      R0,??DataTable48  ;; ACTION_BACK
   \   0000008C   0420A0E1           MOV      R2,R4
   \   00000090   001090E5           LDR      R1,[R0, #+0]
   \   00000094   0500A0E1           MOV      R0,R5
   \   00000098   0118A0E1           MOV      R1,R1, LSL #+16
   \   0000009C   2118A0E1           MOV      R1,R1, LSR #+16
   \   000000A0   4B0100EF           SWI      +331
    617            GUIObject_SoftKeys_SetAction(GM,ACTION_LONG_BACK,ExitGM);
   \   000000A4   ........           LDR      R0,??DataTable49  ;; ACTION_LONG_BACK
   \   000000A8   0420A0E1           MOV      R2,R4
   \   000000AC   001090E5           LDR      R1,[R0, #+0]
   \   000000B0   0500A0E1           MOV      R0,R5
   \   000000B4   0118A0E1           MOV      R1,R1, LSL #+16
   \   000000B8   2118A0E1           MOV      R1,R1, LSR #+16
   \   000000BC   4B0100EF           SWI      +331
    618            GUIObject_SoftKeys_SetAction(GM,ACTION_SELECT1,OnEntGM);
   \   000000C0   ........           LDR      R0,??DataTable50  ;; ACTION_SELECT1
   \   000000C4   2C209FE5           LDR      R2,??CreateGM_2+0xC  ;; ??OnEntGM
   \   000000C8   001090E5           LDR      R1,[R0, #+0]
   \   000000CC   0500A0E1           MOV      R0,R5
   \   000000D0   0118A0E1           MOV      R1,R1, LSL #+16
   \   000000D4   2118A0E1           MOV      R1,R1, LSR #+16
   \   000000D8   4B0100EF           SWI      +331
    619            GUIObject_Show(GM);
   \   000000DC   0500A0E1           MOV      R0,R5
   \   000000E0   340100EF           SWI      +308
    620            return 0;
   \   000000E4   0000A0E3           MOV      R0,#+0
   \   000000E8   3080BDE8           POP      {R4,R5,PC}       ;; return
   \                     ??CreateGM_2:
   \   000000EC   ........           DC32     `?<Constant L"\\x47\\x6f\\x6e\\x6f\\x34\\x6b\\x69">`
   \   000000F0   ........           DC32     ??ExitGM
   \   000000F4   ........           DC32     ??SetTitlePunktsGM
   \   000000F8   ........           DC32     ??OnEntGM
    621          }

   \                                 In segment CODE, align 4, keep-with-next
   \                     ??DataTable0:
   \   00000000   ........           DC32     `?<Constant L"\\x412\\x44b\\x439\\x442\\x438\\x20\\x43`

   \                                 In segment CODE, align 4, keep-with-next
   \                     ??DataTable14:
   \   00000000   ........           DC32     VAR_ARG_CALL_BACK_LONG_BACK

   \                                 In segment CODE, align 4, keep-with-next
   \                     ??DataTable15:
   \   00000000   ........           DC32     VAR_ARG_CALL_BACK_OK

   \                                 In segment CODE, align 4, keep-with-next
   \                     ??DataTable16:
   \   00000000   ........           DC32     VAR_ARG_STRINP_MIN_LEN

   \                                 In segment CODE, align 4, keep-with-next
   \                     ??DataTable17:
   \   00000000   ........           DC32     VAR_ARG_STRINP_MAX_LEN

   \                                 In segment CODE, align 4, keep-with-next
   \                     ??DataTable18:
   \   00000000   ........           DC32     VAR_ARG_STRINP_TEXT

   \                                 In segment CODE, align 4, keep-with-next
   \                     ??DataTable19:
   \   00000000   ........           DC32     VAR_ARG_CALL_BACK_PREV_ACT

   \                                 In segment CODE, align 4, keep-with-next
   \                     ??DataTable20:
   \   00000000   ........           DC32     VAR_ARG_STRINP_FIXED_TEXT

   \                                 In segment CODE, align 4, keep-with-next
   \                     ??DataTable21:
   \   00000000   ........           DC32     VAR_ARG_BOOK

   \                                 In segment CODE, align 4, keep-with-next
   \                     ??DataTable28:
   \   00000000   ........           DC32     `?<Constant L"\\x43\\x41\\x4c\\x4c\\x53\\x5f\\x49\\x4e\\`

   \                                 In segment CODE, align 4, keep-with-next
   \                     ??DataTable38:
   \   00000000   ........           DC32     ACTION_SELECT1

   \                                 In segment CODE, align 4, keep-with-next
   \                     ??DataTable39:
   \   00000000   ........           DC32     VAR_ARG_BOOK

   \                                 In segment CODE, align 4, keep-with-next
   \                     ??DataTable40:
   \   00000000   ........           DC32     ACTION_BACK

   \                                 In segment CODE, align 4, keep-with-next
   \                     ??DataTable41:
   \   00000000   ........           DC32     ACTION_LONG_BACK

   \                                 In segment CODE, align 4, keep-with-next
   \                     ??DataTable42:
   \   00000000   ........           DC32     ??ExitNM

   \                                 In segment CODE, align 4, keep-with-next
   \                     ??DataTable43:
   \   00000000   ........           DC32     ??SetTitlePunktsMR

   \                                 In segment CODE, align 4, keep-with-next
   \                     ??DataTable47:
   \   00000000   ........           DC32     `?<Constant L"\\x412\\x44b\\x439\\x442\\x438\\x20\\x43`

   \                                 In segment CODE, align 4, keep-with-next
   \                     ??DataTable48:
   \   00000000   ........           DC32     ACTION_BACK

   \                                 In segment CODE, align 4, keep-with-next
   \                     ??DataTable49:
   \   00000000   ........           DC32     ACTION_LONG_BACK

   \                                 In segment CODE, align 4, keep-with-next
   \                     ??DataTable50:
   \   00000000   ........           DC32     ACTION_SELECT1

   \                                 In segment DATA_C, align 4, align-sorted
   \   00000000   0A000000           DC8 0AH, 0, 0, 0

   \                                 In segment DATA_C, align 4, align-sorted
   \                     `?<Constant L"\\x412\\x44b\\x439\\x442\\x438\\x20\\x43`:
   \   00000000   12044B043904       DC8 12H, 4, 4BH, 4, 39H, 4, 42H, 4
   \              4204        
   \   00000008   380420003804       DC8 38H, 4, 20H, 0, 38H, 4, 37H, 4
   \              3704        
   \   00000010   200038043304       DC8 20H, 0, 38H, 4, 33H, 4, 40H, 4
   \              4004        
   \   00000018   4B040000           DC8 4BH, 4, 0, 0
   \   0000001C   46004F005200       DC8 46H, 0, 4FH, 0, 52H, 0, 42H, 0
   \              4200        
   \   00000024   490044004400       DC8 49H, 0, 44H, 0, 44H, 0, 45H, 0
   \              4500        
   \   0000002C   4E005F004E00       DC8 4EH, 0, 5FH, 0, 4EH, 0, 45H, 0
   \              4500        
   \   00000034   540057004F00       DC8 54H, 0, 57H, 0, 4FH, 0, 52H, 0
   \              5200        
   \   0000003C   4B005F004900       DC8 4BH, 0, 5FH, 0, 49H, 0, 43H, 0
   \              4300        
   \   00000044   4E000000           DC8 4EH, 0, 0, 0
   \   00000048   2E0020000000       DC8 2EH, 0, 20H, 0, 0, 0
   \   0000004E   0000               DC8 0, 0
   \   00000050   20002D002000       DC8 20H, 0, 2DH, 0, 20H, 0, 0, 0
   \              0000        
   \   00000058   200435043704       DC8 20H, 4, 35H, 4, 37H, 4, 43H, 4
   \              4304        
   \   00000060   3B044C044204       DC8 3BH, 4, 4CH, 4, 42H, 4, 30H, 4
   \              3004        
   \   00000068   42044B040000       DC8 42H, 4, 4BH, 4, 0, 0
   \   0000006E   0000               DC8 0, 0
   \   00000070   210431044004       DC8 21H, 4, 31H, 4, 40H, 4, 3EH, 4
   \              3E04        
   \   00000078   41040000           DC8 41H, 4, 0, 0
   \   0000007C   1F0440043E04       DC8 1FH, 4, 40H, 4, 3EH, 4, 41H, 4
   \              4104        
   \   00000084   3C042E000000       DC8 3CH, 4, 2EH, 0, 0, 0
   \   0000008A   0000               DC8 0, 0
   \   0000008C   1D0430044104       DC8 1DH, 4, 30H, 4, 41H, 4, 42H, 4
   \              4204        
   \   00000094   40043E043904       DC8 40H, 4, 3EH, 4, 39H, 4, 3AH, 4
   \              3A04        
   \   0000009C   38040000           DC8 38H, 4, 0, 0
   \   000000A0   1D043E043204       DC8 1DH, 4, 3EH, 4, 32H, 4, 30H, 4
   \              3004        
   \   000000A8   4F0420003804       DC8 4FH, 4, 20H, 0, 38H, 4, 33H, 4
   \              3304        
   \   000000B0   400430040000       DC8 40H, 4, 30H, 4, 0, 0
   \   000000B6   0000               DC8 0, 0
   \   000000B8   1D0430044704       DC8 1DH, 4, 30H, 4, 47H, 4, 30H, 4
   \              3004        
   \   000000C0   42044C042000       DC8 42H, 4, 4CH, 4, 20H, 0, 38H, 4
   \              3804        
   \   000000C8   330440044304       DC8 33H, 4, 40H, 4, 43H, 4, 21H, 0
   \              2100        
   \   000000D0   0000               DC8 0, 0
   \   000000D2   0000               DC8 0, 0
   \   000000D4   500052004F00       DC8 50H, 0, 52H, 0, 4FH, 0, 46H, 0
   \              4600        
   \   000000DC   49004C004500       DC8 49H, 0, 4CH, 0, 45H, 0, 5FH, 0
   \              5F00        
   \   000000E4   49004E004300       DC8 49H, 0, 4EH, 0, 43H, 0, 41H, 0
   \              4100        
   \   000000EC   52005F004C00       DC8 52H, 0, 5FH, 0, 4CH, 0, 49H, 0
   \              4900        
   \   000000F4   530054005F00       DC8 53H, 0, 54H, 0, 5FH, 0, 49H, 0
   \              4900        
   \   000000FC   43004E000000       DC8 43H, 0, 4EH, 0, 0, 0
   \   00000102   0000               DC8 0, 0
   \   00000104   1F043E043A04       DC8 1FH, 4, 3EH, 4, 3AH, 4, 3EH, 4
   \              3E04        
   \   0000010C   32044B044004       DC8 32H, 4, 4BH, 4, 40H, 4, 4FH, 4
   \              4F04        
   \   00000114   460430040000       DC8 46H, 4, 30H, 4, 0, 0
   \   0000011A   0000               DC8 0, 0
   \   0000011C   4D0045004E00       DC8 4DH, 0, 45H, 0, 4EH, 0, 55H, 0
   \              5500        
   \   00000124   5F0053004500       DC8 5FH, 0, 53H, 0, 45H, 0, 54H, 0
   \              5400        
   \   0000012C   540049004E00       DC8 54H, 0, 49H, 0, 4EH, 0, 47H, 0
   \              4700        
   \   00000134   53005F004900       DC8 53H, 0, 5FH, 0, 49H, 0, 43H, 0
   \              4300        
   \   0000013C   4E000000           DC8 4EH, 0, 0, 0
   \   00000140   1F0440043E04       DC8 1FH, 4, 40H, 4, 3EH, 4, 41H, 4
   \              4104        
   \   00000148   3C043E044204       DC8 3CH, 4, 3EH, 4, 42H, 4, 40H, 4
   \              4004        
   \   00000150   200040043504       DC8 20H, 0, 40H, 4, 35H, 4, 37H, 4
   \              3704        
   \   00000158   43043B044C04       DC8 43H, 4, 3BH, 4, 4CH, 4, 42H, 4
   \              4204        
   \   00000160   300442043E04       DC8 30H, 4, 42H, 4, 3EH, 4, 32H, 4
   \              3204        
   \   00000168   0000               DC8 0, 0
   \   0000016A   0000               DC8 0, 0
   \   0000016C   4D0049005300       DC8 4DH, 0, 49H, 0, 53H, 0, 43H, 0
   \              4300        
   \   00000174   45004C004C00       DC8 45H, 0, 4CH, 0, 4CH, 0, 41H, 0
   \              4100        
   \   0000017C   4E0045004F00       DC8 4EH, 0, 45H, 0, 4FH, 0, 55H, 0
   \              5500        
   \   00000184   53005F004900       DC8 53H, 0, 5FH, 0, 49H, 0, 43H, 0
   \              4300        
   \   0000018C   4E000000           DC8 4EH, 0, 0, 0
   \   00000190   18043D044404       DC8 18H, 4, 3DH, 4, 44H, 4, 3EH, 4
   \              3E04        
   \   00000198   0000               DC8 0, 0
   \   0000019A   0000               DC8 0, 0
   \   0000019C   18043D044404       DC8 18H, 4, 3DH, 4, 44H, 4, 3EH, 4
   \              3E04        
   \   000001A4   40043C043004       DC8 40H, 4, 3CH, 4, 30H, 4, 46H, 4
   \              4604        
   \   000001AC   38044F040000       DC8 38H, 4, 4FH, 4, 0, 0
   \   000001B2   0000               DC8 0, 0
   \   000001B4   480045004C00       DC8 48H, 0, 45H, 0, 4CH, 0, 50H, 0
   \              5000        
   \   000001BC   5F0054004500       DC8 5FH, 0, 54H, 0, 45H, 0, 58H, 0
   \              5800        
   \   000001C4   54005F004900       DC8 54H, 0, 5FH, 0, 49H, 0, 43H, 0
   \              4300        
   \   000001CC   4E000000           DC8 4EH, 0, 0, 0
   \   000001D0   12044B044504       DC8 12H, 4, 4BH, 4, 45H, 4, 3EH, 4
   \              3E04        
   \   000001D8   34040000           DC8 34H, 4, 0, 0

   \                                 In segment DATA_C, align 4, align-sorted
   \                     `?<Constant "Game_GuiMenu_Page">`:
   \   00000000   47616D655F47       DC8 "Game_GuiMenu_Page"
   \              75694D656E75
   \              5F5061676500
   \   00000012   0000               DC8 0, 0

   \                                 In segment DATA_C, align 4, align-sorted
   \                     `?<Constant L"\\x418\\x437\\x43c\\x435\\x43d\\x438\\x4_1`:
   \   00000000   180437043C04       DC8 18H, 4, 37H, 4, 3CH, 4, 35H, 4
   \              3504        
   \   00000008   3D0438044204       DC8 3DH, 4, 38H, 4, 42H, 4, 4CH, 4
   \              4C04        
   \   00000010   200038043C04       DC8 20H, 0, 38H, 4, 3CH, 4, 4FH, 4
   \              4F04        
   \   00000018   3A000000           DC8 3AH, 0, 0, 0

   \                                 In segment DATA_C, align 4, align-sorted
   \                     `?<Constant L"\\x47\\x6f\\x6e\\x6f\\x34\\x6b\\x69">`:
   \   00000000   47006F006E00       DC8 47H, 0, 6FH, 0, 6EH, 0, 6FH, 0
   \              6F00        
   \   00000008   34006B006900       DC8 34H, 0, 6BH, 0, 69H, 0, 0, 0
   \              0000        

   \                                 In segment DATA_C, align 4, align-sorted
   \                     `?<Constant L"\\x418\\x437\\x43c\\x435\\x43d\\x438\\x4_2`:
   \   00000000   180437043C04       DC8 18H, 4, 37H, 4, 3CH, 4, 35H, 4
   \              3504        
   \   00000008   3D0438044204       DC8 3DH, 4, 38H, 4, 42H, 4, 4CH, 4
   \              4C04        
   \   00000010   3A000000           DC8 3AH, 0, 0, 0

   \                                 In segment DATA_C, align 4, align-sorted
   \   00000000   20000000           DC8 20H, 0, 0, 0

   \                                 In segment DATA_C, align 4, align-sorted
   \                     `?<Constant L"\\x41b\\x435\\x433\\x43a\\x43e">`:
   \   00000000   1B0435043304       DC8 1BH, 4, 35H, 4, 33H, 4, 3AH, 4
   \              3A04        
   \   00000008   3E040000           DC8 3EH, 4, 0, 0
   \   0000000C   570056005F00       DC8 57H, 0, 56H, 0, 5FH, 0, 42H, 0
   \              4200        
   \   00000014   550044004400       DC8 55H, 0, 44H, 0, 44H, 0, 59H, 0
   \              5900        
   \   0000001C   4C0049005300       DC8 4CH, 0, 49H, 0, 53H, 0, 54H, 0
   \              5400        
   \   00000024   5F0043004F00       DC8 5FH, 0, 43H, 0, 4FH, 0, 4EH, 0
   \              4E00        
   \   0000002C   540041004300       DC8 54H, 0, 41H, 0, 43H, 0, 54H, 0
   \              5400        
   \   00000034   5F0041005600       DC8 5FH, 0, 41H, 0, 56H, 0, 41H, 0
   \              4100        
   \   0000003C   49004C004100       DC8 49H, 0, 4CH, 0, 41H, 0, 42H, 0
   \              4200        
   \   00000044   4C0045005F00       DC8 4CH, 0, 45H, 0, 5FH, 0, 41H, 0
   \              4100        
   \   0000004C   530048004100       DC8 53H, 0, 48H, 0, 41H, 0, 4DH, 0
   \              4D00        
   \   00000054   450044005F00       DC8 45H, 0, 44H, 0, 5FH, 0, 49H, 0
   \              4900        
   \   0000005C   43004E000000       DC8 43H, 0, 4EH, 0, 0, 0
   \   00000062   0000               DC8 0, 0
   \   00000064   210440043504       DC8 21H, 4, 40H, 4, 35H, 4, 34H, 4
   \              3404        
   \   0000006C   3D0435040000       DC8 3DH, 4, 35H, 4, 0, 0
   \   00000072   0000               DC8 0, 0
   \   00000074   570056005F00       DC8 57H, 0, 56H, 0, 5FH, 0, 42H, 0
   \              4200        
   \   0000007C   550044004400       DC8 55H, 0, 44H, 0, 44H, 0, 59H, 0
   \              5900        
   \   00000084   4C0049005300       DC8 4CH, 0, 49H, 0, 53H, 0, 54H, 0
   \              5400        
   \   0000008C   5F0043004F00       DC8 5FH, 0, 43H, 0, 4FH, 0, 4EH, 0
   \              4E00        
   \   00000094   540041004300       DC8 54H, 0, 41H, 0, 43H, 0, 54H, 0
   \              5400        
   \   0000009C   5F0041005600       DC8 5FH, 0, 41H, 0, 56H, 0, 41H, 0
   \              4100        
   \   000000A4   49004C004100       DC8 49H, 0, 4CH, 0, 41H, 0, 42H, 0
   \              4200        
   \   000000AC   4C0045005F00       DC8 4CH, 0, 45H, 0, 5FH, 0, 41H, 0
   \              4100        
   \   000000B4   4E0058004900       DC8 4EH, 0, 58H, 0, 49H, 0, 4FH, 0
   \              4F00        
   \   000000BC   550053005F00       DC8 55H, 0, 53H, 0, 5FH, 0, 49H, 0
   \              4900        
   \   000000C4   43004E000000       DC8 43H, 0, 4EH, 0, 0, 0
   \   000000CA   0000               DC8 0, 0
   \   000000CC   22044F043604       DC8 22H, 4, 4FH, 4, 36H, 4, 35H, 4
   \              3504        
   \   000000D4   3B043E040000       DC8 3BH, 4, 3EH, 4, 0, 0
   \   000000DA   0000               DC8 0, 0
   \   000000DC   570056005F00       DC8 57H, 0, 56H, 0, 5FH, 0, 42H, 0
   \              4200        
   \   000000E4   550044004400       DC8 55H, 0, 44H, 0, 44H, 0, 59H, 0
   \              5900        
   \   000000EC   4C0049005300       DC8 4CH, 0, 49H, 0, 53H, 0, 54H, 0
   \              5400        
   \   000000F4   5F0043004F00       DC8 5FH, 0, 43H, 0, 4FH, 0, 4EH, 0
   \              4E00        
   \   000000FC   540041004300       DC8 54H, 0, 41H, 0, 43H, 0, 54H, 0
   \              5400        
   \   00000104   5F0041005600       DC8 5FH, 0, 41H, 0, 56H, 0, 41H, 0
   \              4100        
   \   0000010C   49004C004100       DC8 49H, 0, 4CH, 0, 41H, 0, 42H, 0
   \              4200        
   \   00000114   4C0045005F00       DC8 4CH, 0, 45H, 0, 5FH, 0, 41H, 0
   \              4100        
   \   0000011C   4E0047005200       DC8 4EH, 0, 47H, 0, 52H, 0, 59H, 0
   \              5900        
   \   00000124   5F0049004300       DC8 5FH, 0, 49H, 0, 43H, 0, 4EH, 0
   \              4E00        
   \   0000012C   0000               DC8 0, 0
   \   0000012E   0000               DC8 0, 0

   \                                 In segment DATA_C, align 4, align-sorted
   \                     `?<Constant L"\\x412\\x44b\\x439\\x442\\x438\\x3f">`:
   \   00000000   12044B043904       DC8 12H, 4, 4BH, 4, 39H, 4, 42H, 4
   \              4204        
   \   00000008   38043F000000       DC8 38H, 4, 3FH, 0, 0, 0
   \   0000000E   0000               DC8 0, 0

   \                                 In segment DATA_C, align 4, align-sorted
   \                     `?<Constant L"\\x412\\x44b\\x431\\x43e\\x440\\x20\\x44`:
   \   00000000   12044B043104       DC8 12H, 4, 4BH, 4, 31H, 4, 3EH, 4
   \              3E04        
   \   00000008   400420004304       DC8 40H, 4, 20H, 0, 43H, 4, 40H, 4
   \              4004        
   \   00000010   3E0432043D04       DC8 3EH, 4, 32H, 4, 3DH, 4, 4FH, 4
   \              4F04        
   \   00000018   0000               DC8 0, 0
   \   0000001A   0000               DC8 0, 0

   Maximum stack usage in bytes:

     Function                       CSTACK
     --------                       ------
     CreateGM(void *, BOOK *)          12
     CreateGameM(MyBook *)             12
     CreateINM(MyBook *, int)          20
     CreateInput(int, SOUND *, MyBook *)
                                       76
     CreateInputI(int, IMGN *, MyBook *)
                                       76
     CreateMNM(MyBook *, int)          20
     CreateNM(MyBook *)                12
     DeleteRes(BOOK *, GUI *)           8
     DestroyInput()                     4
     DestroyInputI()                    4
     ExitGM(BOOK *, GUI *)              4
     ExitINM(BOOK *, GUI *)             8
     ExitMNM(BOOK *, GUI *)             8
     ExitNM(BOOK *, GUI *)              8
     MenuResultat(MyBook *)            20
     NewKey1(DISP_OBJ *, int, int, int, int)
                                       28
     NoPress(BOOK *, GUI *)             8
     OnEntGM(BOOK *, GUI *)             8
     OnEntGameM(BOOK *, GUI *)         12
     OnEntINM(BOOK *, GUI *)           12
     OnEntInput(BOOK *, wchar_t *, int)
                                       12
     OnEntInputI(BOOK *, wchar_t *, int)
                                       12
     OnEntMNM(BOOK *, GUI *)           12
     OnEntMR(BOOK *, GUI *)             8
     OnEntNM(BOOK *, GUI *)             8
     OnMNM1(BOOK *, GUI *)             16
     Set(int)                          36
     SetTitlePunktsGM(GUI_MESSAGE *)
                                       20
     SetTitlePunktsINM(GUI_MESSAGE *)
                                       28
     SetTitlePunktsMNM(GUI_MESSAGE *)
                                       40
     SetTitlePunktsMR(GUI_MESSAGE *)
                                       16
     SetTitlePunktsNM(GUI_MESSAGE *)
                                       16
     ShowResults(TABL *)              276
     YesNo(MyBook *)                   20
     YesPress(BOOK *, GUI *)            4


   Segment part sizes:

     Function/Label                 Bytes
     --------------                 -----
     ?<Constant L"\x43\x41\x4c\x4c\x53\x5f\x49\x4e\
                                     496
     bk_msglst_gm                     16
     bk_game                          12
     ShowResults(TABL *)             280
     DestroyInputI()                  44
     OnEntInputI(BOOK *, wchar_t *, int)
                                      84
     CreateInputI(int, IMGN *, MyBook *)
                                     232
     OnEntINM(BOOK *, GUI *)         140
     SetTitlePunktsINM(GUI_MESSAGE *)
                                     368
     ExitINM(BOOK *, GUI *)           36
     CreateINM(MyBook *, int)        292
     ExitMNM(BOOK *, GUI *)           36
     OnMNM1(BOOK *, GUI *)           124
     DestroyInput()                   44
     OnEntInput(BOOK *, wchar_t *, int)
                                      72
     CreateInput(int, SOUND *, MyBook *)
                                     244
     OnEntMNM(BOOK *, GUI *)         120
     SetTitlePunktsMNM(GUI_MESSAGE *)
                                     376
     Set(int)                        464
     NewKey1(DISP_OBJ *, int, int, int, int)
                                      92
     CreateMNM(MyBook *, int)        268
     ExitNM(BOOK *, GUI *)            48
     OnEntGameM(BOOK *, GUI *)        68
     OnEntMR(BOOK *, GUI *)           96
     OnEntNM(BOOK *, GUI *)           64
     SetTitlePunktsNM(GUI_MESSAGE *)
                                     172
     DeleteRes(BOOK *, GUI *)         96
     SetTitlePunktsMR(GUI_MESSAGE *)
                                     224
     MenuResultat(MyBook *)          332
     CreateNM(MyBook *)              244
     YesPress(BOOK *, GUI *)          12
     NoPress(BOOK *, GUI *)           36
     YesNo(MyBook *)                 216
     ExitGM(BOOK *, GUI *)             4
     CreateGameM(MyBook *)           240
     OnEntGM(BOOK *, GUI *)          116
     SetTitlePunktsGM(GUI_MESSAGE *)
                                     516
     CreateGM(void *, BOOK *)        252
     ??DataTable0                      4
     ??DataTable14                     4
     ??DataTable15                     4
     ??DataTable16                     4
     ??DataTable17                     4
     ??DataTable18                     4
     ??DataTable19                     4
     ??DataTable20                     4
     ??DataTable21                     4
     ??DataTable28                     4
     ??DataTable38                     4
     ??DataTable39                     4
     ??DataTable40                     4
     ??DataTable41                     4
     ??DataTable42                     4
     ??DataTable43                     4
     ??DataTable47                     4
     ??DataTable48                     4
     ??DataTable49                     4
     ??DataTable50                     4
     ?<Constant L"\xa">                4
     ?<Constant L"\x412\x44b\x439\x442\x438\x20\x43
                                     476
     ?<Constant "Game_GuiMenu_Page">
                                      20
     ?<Constant L"\x418\x437\x43c\x435\x43d\x438\x4_1
                                      28
     ?<Constant L"\x47\x6f\x6e\x6f\x34\x6b\x69">
                                      16
     ?<Constant L"\x418\x437\x43c\x435\x43d\x438\x4_2
                                      20
     ?<Constant L"\x20">               4
     ?<Constant L"\x41b\x435\x433\x43a\x43e">
                                     304
     ?<Constant L"\x412\x44b\x439\x442\x438\x3f">
                                      16
     ?<Constant L"\x412\x44b\x431\x43e\x440\x20\x44
                                      28
      Others                         272

 
 6 404 bytes in segment CODE
 1 424 bytes in segment DATA_C
    16 bytes in segment DYN_PAGE
 
 6 132 bytes of CODE  memory (+ 272 bytes shared)
 1 440 bytes of CONST memory

Errors: none
Warnings: none
