##############################################################################
#                                                                            #
# IAR ARM ANSI C/C++ Compiler V4.42A/W32 EVALUATION    10/Jun/2013  23:03:00 #
# Copyright 1999-2005 IAR Systems. All rights reserved.                      #
#                                                                            #
#    Cpu mode        =  interwork                                            #
#    Endian          =  little                                               #
#    Stack alignment =  4                                                    #
#    Source file     =  Z:\home\perk11\www\perk11.info\svn\SE\CoverArt\Decod #
#                       erInit.c                                             #
#    Command line    =  Z:\home\perk11\www\perk11.info\svn\SE\CoverArt\Decod #
#                       erInit.c -D NDEBUG -D OLDFUNCTIONS -lC               #
#                       Z:\home\perk11\www\perk11.info\svn\SE\CoverArt\EN\Li #
#                       st\ -lA Z:\home\perk11\www\perk11.info\svn\SE\CoverA #
#                       rt\EN\List\ -o Z:\home\perk11\www\perk11.info\svn\SE #
#                       \CoverArt\EN\Obj\ -s9 --cpu_mode arm --endian        #
#                       little --cpu ARM926EJ-S --stack_align 4 --interwork  #
#                       -e --enable_multibytes --fpu None --eec++            #
#                       --dlib_config Z:\home\perk11\IAR2\arm\LIB\dl5tpainl8 #
#                       n.h --preinclude Z:\home\perk11\www\perk11.info\svn\ #
#                       SE\CoverArt\LNG-EN.h -I Z:\home\perk11\IAR2\arm\INC\ #
#                        --inline_threshold=2                                #
#    List file       =  Z:\home\perk11\www\perk11.info\svn\SE\CoverArt\EN\Li #
#                       st\DecoderInit.lst                                   #
#    Object file     =  Z:\home\perk11\www\perk11.info\svn\SE\CoverArt\EN\Ob #
#                       j\DecoderInit.r79                                    #
#                                                                            #
#                                                                            #
##############################################################################

Z:\home\perk11\www\perk11.info\svn\SE\CoverArt\DecoderInit.c
      1          #include "..\include\Lib_Clara.h"
      2          #include "..\include\dir.h"
      3          #include "structs.h"
      4          #include "decoder.h"
      5          #include "config_data.h"
      6          #include "Externals.h"
      7          #include "images.h"
      8          
      9          IMG_DESC GetBitmap(wchar_t *path, wchar_t *name);

   \                                 In segment DATA_Z, align 4, align-sorted
     10          MUSIC nowmusic;
   \                     nowmusic:
   \   00000000                      DS8 10288
     11          

   \                                 In segment CODE, align 4, keep-with-next
     12          wchar_t * GetType_str(int cover_type)
     13          {
     14            if (cover_type<=3)
   \                     ??GetType_str:
   \   00000000   040050E3           CMP      R0,#+4
   \   00000004   110000AA           BGE      ??GetType_str_1
     15            {
     16              switch(cover_type)
   \   00000008   48109FE5           LDR      R1,??GetType_str_2  ;; `?<Constant L"\\x6a\\x70\\x67">`
   \   0000000C   000050E3           CMP      R0,#+0
   \   00000010   0600000A           BEQ      ??GetType_str_3
   \   00000014   010050E2           SUBS     R0,R0,#+1
   \   00000018   0600000A           BEQ      ??GetType_str_4
   \   0000001C   010050E2           SUBS     R0,R0,#+1
   \   00000020   0600000A           BEQ      ??GetType_str_5
   \   00000024   010050E2           SUBS     R0,R0,#+1
   \   00000028   0600000A           BEQ      ??GetType_str_6
   \   0000002C   070000EA           B        ??GetType_str_1
     17              {
     18                case 0:
     19                  return L"jpg";
   \                     ??GetType_str_3:
   \   00000030   0100A0E1           MOV      R0,R1
   \   00000034   1EFF2FE1           BX       LR
     20                case 1:
     21                  return L"gif";
   \                     ??GetType_str_4:
   \   00000038   080081E2           ADD      R0,R1,#+8
   \   0000003C   1EFF2FE1           BX       LR
     22                case 2:
     23                  return L"png";
   \                     ??GetType_str_5:
   \   00000040   100081E2           ADD      R0,R1,#+16
   \   00000044   1EFF2FE1           BX       LR
     24                case 3:
     25                  return L"bmp";
   \                     ??GetType_str_6:
   \   00000048   180081E2           ADD      R0,R1,#+24
   \   0000004C   1EFF2FE1           BX       LR
     26              }
     27              return 0;
   \                     ??GetType_str_1:
   \   00000050   0000A0E3           MOV      R0,#+0
   \   00000054   1EFF2FE1           BX       LR               ;; return
   \                     ??GetType_str_2:
   \   00000058   ........           DC32     `?<Constant L"\\x6a\\x70\\x67">`
     28            }
     29            return 0;
     30          }
     31          

   \                                 In segment CODE, align 4, keep-with-next
     32          wchar_t GetCover(void *TagStructure, wchar_t *path, wchar_t *name, METADATA *meta)
     33          {
   \                     ??GetCover:
   \   00000000   F04E2DE9           PUSH     {R4-R7,R9-R11,LR}
   \   00000004   0140A0E1           MOV      R4,R1
   \   00000008   0350A0E1           MOV      R5,R3
     34            IMAGEID imageID = NOIMAGE;
   \   0000000C   0410A0E3           MOV      R1,#+4
   \   00000010   A01D81E3           ORR      R1,R1,#0x2800
   \   00000014   057081E0           ADD      R7,R1,R5
   \   00000018   ........           LDR      R1,??DataTable4  ;; GetCover_SWI
   \   0000001C   14D04DE2           SUB      SP,SP,#+20
   \   00000020   001091E5           LDR      R1,[R1, #+0]
   \   00000024   02A0A0E1           MOV      R10,R2
   \   00000028   FF60A0E3           MOV      R6,#+255
   \   0000002C   FF6C86E3           ORR      R6,R6,#0xFF00
   \   00000030   B060CDE1           STRH     R6,[SP, #+0]
   \   00000034   0190A0E3           MOV      R9,#+1
   \   00000038   010051E3           CMP      R1,#+1
   \   0000003C   3900001A           BNE      ??GetCover_1
     35            if (GetCover_SWI==true)
     36            {
     37              char cover_type;
     38              int size;
     39              int cover_offset;
     40              if (MetaData_Desc_GetCoverInfo(TagStructure,&cover_type,&size,&cover_offset)!=0)
   \   00000040   08308DE2           ADD      R3,SP,#+8
   \   00000044   04208DE2           ADD      R2,SP,#+4
   \   00000048   02108DE2           ADD      R1,SP,#+2
   \   0000004C   010300EF           SWI      +769
   \   00000050   000050E3           CMP      R0,#+0
   \   00000054   3E00000A           BEQ      ??GetCover_2
     41              {
     42                int f;
     43                if (f=_fopen(path,name,FSX_O_RDONLY,FSX_S_IREAD|FSX_S_IWRITE,0x0)>=0)
   \   00000058   0000A0E3           MOV      R0,#+0
   \   0000005C   01002DE9           PUSH     {R0}
   \   00000060   603FA0E3           MOV      R3,#+384
   \   00000064   0120A0E3           MOV      R2,#+1
   \   00000068   0A10A0E1           MOV      R1,R10
   \   0000006C   0400A0E1           MOV      R0,R4
   \   00000070   160100EF           SWI      +278
   \   00000074   000050E3           CMP      R0,#+0
   \   00000078   04D08DE2           ADD      SP,SP,#+4
   \   0000007C   2100004A           BMI      ??GetCover_3
     44                {
     45                  if (lseek(f,cover_offset,0)>=0)
   \   00000080   08109DE5           LDR      R1,[SP, #+8]
   \   00000084   01A0A0E3           MOV      R10,#+1
   \   00000088   0020A0E3           MOV      R2,#+0
   \   0000008C   0900A0E1           MOV      R0,R9
   \   00000090   760100EF           SWI      +374
   \   00000094   000050E3           CMP      R0,#+0
   \   00000098   1F00004A           BMI      ??GetCover_4
     46                  {
     47                    char * my_buf=new char[size+1];
   \   0000009C   04009DE5           LDR      R0,[SP, #+4]
   \   000000A0   010080E2           ADD      R0,R0,#+1
   \   000000A4   ........           _BLF     `??operator new[]`,`??operator new[]??rA`
     48                    fread(f,my_buf,size);
   \   000000A8   04209DE5           LDR      R2,[SP, #+4]
   \   000000AC   00B0A0E1           MOV      R11,R0
   \   000000B0   0B10A0E1           MOV      R1,R11
   \   000000B4   0100A0E3           MOV      R0,#+1
   \   000000B8   180100EF           SWI      +280
     49                    meta->Handle=false;
   \   000000BC   0000A0E3           MOV      R0,#+0
   \   000000C0   0600C7E5           STRB     R0,[R7, #+6]
     50                    meta->ImageHandle=NOIMAGE;
   \   000000C4   B460C7E1           STRH     R6,[R7, #+4]
     51                    if (ImageID_GetIndirect(my_buf,size,0,GetType_str(cover_type),&imageID)==0)
   \   000000C8   0200DDE5           LDRB     R0,[SP, #+2]
   \   000000CC   ........           BL       ??GetType_str
   \   000000D0   0030A0E1           MOV      R3,R0
   \   000000D4   0D00A0E1           MOV      R0,SP
   \   000000D8   01002DE9           PUSH     {R0}
   \   000000DC   08109DE5           LDR      R1,[SP, #+8]
   \   000000E0   0020A0E3           MOV      R2,#+0
   \   000000E4   0B00A0E1           MOV      R0,R11
   \   000000E8   020300EF           SWI      +770
   \   000000EC   000050E3           CMP      R0,#+0
   \   000000F0   04D08DE2           ADD      SP,SP,#+4
   \   000000F4   0500001A           BNE      ??GetCover_5
     52                    {
     53                      meta->ImageID=imageID;
   \   000000F8   B000DDE1           LDRH     R0,[SP, #+0]
   \   000000FC   B200C7E1           STRH     R0,[R7, #+2]
     54                      meta->HasImage=true;
   \   00000100   0090C7E5           STRB     R9,[R7, #+0]
   \   00000104   040000EA           B        ??GetCover_4
     55                    }
   \                     ??GetCover_3:
   \   00000108   00A0A0E3           MOV      R10,#+0
   \   0000010C   020000EA           B        ??GetCover_4
     56                    else
     57                    {
     58                      meta->ImageID=NOIMAGE;
   \                     ??GetCover_5:
   \   00000110   B260C7E1           STRH     R6,[R7, #+2]
     59                      meta->HasImage=false;
   \   00000114   0000A0E3           MOV      R0,#+0
   \   00000118   0000C7E5           STRB     R0,[R7, #+0]
     60                    }
     61                  }
     62                }
     63                fclose(f);
   \                     ??GetCover_4:
   \   0000011C   0A00A0E1           MOV      R0,R10
   \   00000120   170100EF           SWI      +279
   \   00000124   0A0000EA           B        ??GetCover_2
     64              }
     65            }
     66            else
     67            {
     68              IMG_DESC id=GetBitmap(path,name);
   \                     ??GetCover_1:
   \   00000128   0410A0E1           MOV      R1,R4
   \   0000012C   0C008DE2           ADD      R0,SP,#+12
   \   00000130   ........           BL       ??GetBitmap
     69              meta->ImageID=id.ImageID;
   \   00000134   BC00DDE1           LDRH     R0,[SP, #+12]
   \   00000138   B200C7E1           STRH     R0,[R7, #+2]
     70              meta->HasImage=id.HasImage;
   \   0000013C   0E00DDE5           LDRB     R0,[SP, #+14]
   \   00000140   0000C7E5           STRB     R0,[R7, #+0]
     71              meta->ImageHandle=id.ImageHandle;
   \   00000144   B001DDE1           LDRH     R0,[SP, #+16]
   \   00000148   B400C7E1           STRH     R0,[R7, #+4]
     72              meta->Handle=id.Handle;
   \   0000014C   1200DDE5           LDRB     R0,[SP, #+18]
   \   00000150   0600C7E5           STRB     R0,[R7, #+6]
     73            }
     74            if (meta->HasImage==false && COVER_GETPNG==true)
   \                     ??GetCover_2:
   \   00000154   0000D7E5           LDRB     R0,[R7, #+0]
   \   00000158   000050E3           CMP      R0,#+0
   \   0000015C   0C00001A           BNE      ??GetCover_6
   \   00000160   38009FE5           LDR      R0,??GetCover_7  ;; COVER_GETPNG
   \   00000164   000090E5           LDR      R0,[R0, #+0]
   \   00000168   010050E3           CMP      R0,#+1
   \   0000016C   0800001A           BNE      ??GetCover_6
     75            {
     76              ImageHandler_Get(meta,path,L"album.png");
   \   00000170   ........           LDR      R2,??DataTable6  ;; `?<Constant L"\\x6a\\x70\\x67">` + 32
   \   00000174   0410A0E1           MOV      R1,R4
   \   00000178   0500A0E1           MOV      R0,R5
   \   0000017C   ........           _BLF     ??ImageHandler_Get,??ImageHandler_Get??rA
     77              if (meta->ImageID!=NOIMAGE)
   \   00000180   B200D7E1           LDRH     R0,[R7, #+2]
   \   00000184   060050E1           CMP      R0,R6
     78              {
     79                meta->HasImage=true;
   \   00000188   0090C715           STRBNE   R9,[R7, #+0]
     80              }
     81              else
     82              {
     83                meta->HasImage=false;
   \   0000018C   0000A003           MOVEQ    R0,#+0
   \   00000190   0000C705           STRBEQ   R0,[R7, #+0]
     84              }
     85            }
     86            return imageID;
   \                     ??GetCover_6:
   \   00000194   B000DDE1           LDRH     R0,[SP, #+0]
   \   00000198   14D08DE2           ADD      SP,SP,#+20
   \   0000019C   F08EBDE8           POP      {R4-R7,R9-R11,PC}
   \                     ??GetCover_7:
   \   000001A0   ........           DC32     COVER_GETPNG
     87          }
     88          void metadata_Read(wchar_t *path, wchar_t *name, METADATA *mt, TAG_REQUEST tr);

   \                                 In segment CODE, align 4, keep-with-next
     89          void metadata_Get(wchar_t *path, wchar_t *name, METADATA *meta)
     90          {
   \                     ??metadata_Get:
   \   00000000   F0412DE9           PUSH     {R4-R8,LR}
   \   00000004   08D04DE2           SUB      SP,SP,#+8
   \   00000008   0040A0E1           MOV      R4,R0
   \   0000000C   0150A0E1           MOV      R5,R1
   \   00000010   0260A0E1           MOV      R6,R2
     91              metadata_reset(meta);
   \   00000014   0600A0E1           MOV      R0,R6
   \   00000018   ........           _BLF     ??metadata_reset,??metadata_reset??rA
     92              if (GetCover_SWI!=true)
   \   0000001C   ........           LDR      R0,??DataTable4  ;; GetCover_SWI
   \   00000020   007090E5           LDR      R7,[R0, #+0]
   \   00000024   010057E3           CMP      R7,#+1
   \   00000028   0400000A           BEQ      ??metadata_Get_1
     93              {
     94                GetCover(0, path, name, meta);
   \   0000002C   0630A0E1           MOV      R3,R6
   \   00000030   0520A0E1           MOV      R2,R5
   \   00000034   0410A0E1           MOV      R1,R4
   \   00000038   0000A0E3           MOV      R0,#+0
   \   0000003C   ........           BL       ??GetCover
     95              }
     96              if (wstrlen(name)>5)
   \                     ??metadata_Get_1:
   \   00000040   0500A0E1           MOV      R0,R5
   \   00000044   570100EF           SWI      +343
   \   00000048   060050E3           CMP      R0,#+6
   \   0000004C   060000BA           BLT      ??metadata_Get_2
     97              {
     98                wstrncpy(meta->Title,name, wstrlen(name)-4);
   \   00000050   0500A0E1           MOV      R0,R5
   \   00000054   570100EF           SWI      +343
   \   00000058   042040E2           SUB      R2,R0,#+4
   \   0000005C   0510A0E1           MOV      R1,R5
   \   00000060   0600A0E1           MOV      R0,R6
   \   00000064   530100EF           SWI      +339
   \   00000068   020000EA           B        ??metadata_Get_3
     99              }
    100              else
    101              {
    102                wstrcpy(meta->Title,name);
   \                     ??metadata_Get_2:
   \   0000006C   0510A0E1           MOV      R1,R5
   \   00000070   0600A0E1           MOV      R0,R6
   \   00000074   520100EF           SWI      +338
    103              }
    104              TAG_REQUEST tr;
    105              tr.album=1;
   \                     ??metadata_Get_3:
   \   00000078   0100A0E3           MOV      R0,#+1
   \   0000007C   0200CDE5           STRB     R0,[SP, #+2]
    106              tr.title=1;
   \   00000080   0000CDE5           STRB     R0,[SP, #+0]
    107              tr.artist=1;
   \   00000084   0100CDE5           STRB     R0,[SP, #+1]
    108              tr.genre=1;
   \   00000088   0400CDE5           STRB     R0,[SP, #+4]
    109              tr.year=1;
   \   0000008C   0300CDE5           STRB     R0,[SP, #+3]
    110              void *TagStructure=0;
    111              if (TagStructure=MetaData_Desc_Create(path,name))
   \   00000090   0510A0E1           MOV      R1,R5
   \   00000094   0400A0E1           MOV      R0,R4
   \   00000098   EF0200EF           SWI      +751
   \   0000009C   0080B0E1           MOVS     R8,R0
   \   000000A0   5000000A           BEQ      ??metadata_Get_4
    112              {
    113                if (GetCover_SWI==true)
   \   000000A4   010057E3           CMP      R7,#+1
   \   000000A8   0300001A           BNE      ??metadata_Get_5
    114                {
    115                  GetCover(TagStructure, path, name, meta);
   \   000000AC   0630A0E1           MOV      R3,R6
   \   000000B0   0520A0E1           MOV      R2,R5
   \   000000B4   0410A0E1           MOV      R1,R4
   \   000000B8   ........           BL       ??GetCover
    116                }
    117                wchar_t *tag=0;
    118                if (tag=MetaData_Desc_GetTags(TagStructure,1))
   \                     ??metadata_Get_5:
   \   000000BC   0110A0E3           MOV      R1,#+1
   \   000000C0   0800A0E1           MOV      R0,R8
   \   000000C4   F10200EF           SWI      +753
   \   000000C8   0010B0E1           MOVS     R1,R0
    119                {
    120                  if (tag[0]!=0)
   \   000000CC   B000D111           LDRHNE   R0,[R1, #+0]
   \   000000D0   00005013           CMPNE    R0,#+0
   \   000000D4   0300000A           BEQ      ??metadata_Get_6
    121                  {
    122                    wstrcpy(meta->Title,tag);
   \   000000D8   0600A0E1           MOV      R0,R6
   \   000000DC   520100EF           SWI      +338
    123                    tr.title=0;
   \   000000E0   0010A0E3           MOV      R1,#+0
   \   000000E4   0010CDE5           STRB     R1,[SP, #+0]
    124                  }
    125                }
    126          
    127                tag=0;
    128                if (tag=MetaData_Desc_GetTags(TagStructure,2))
   \                     ??metadata_Get_6:
   \   000000E8   0210A0E3           MOV      R1,#+2
   \   000000EC   0800A0E1           MOV      R0,R8
   \   000000F0   F10200EF           SWI      +753
   \   000000F4   000050E3           CMP      R0,#+0
   \   000000F8   0700000A           BEQ      ??metadata_Get_7
    129                {
    130                  if (tag[0]!=0)
   \   000000FC   B010D0E1           LDRH     R1,[R0, #+0]
   \   00000100   000051E3           CMP      R1,#+0
   \   00000104   0500000A           BEQ      ??metadata_Get_8
    131                  {
    132                    wstrcpy(meta->Album,tag);
   \   00000108   0010A0E1           MOV      R1,R0
   \   0000010C   800E86E2           ADD      R0,R6,#+2048
   \   00000110   520100EF           SWI      +338
    133                    tr.album=0;
   \   00000114   0010A0E3           MOV      R1,#+0
   \   00000118   0210CDE5           STRB     R1,[SP, #+2]
    134                  }
    135                }
    136                
    137                tag=0;
    138                if (tag=MetaData_Desc_GetTags(TagStructure,0))
   \                     ??metadata_Get_7:
   \   0000011C   0010A0E3           MOV      R1,#+0
   \                     ??metadata_Get_8:
   \   00000120   0800A0E1           MOV      R0,R8
   \   00000124   F10200EF           SWI      +753
   \   00000128   000050E3           CMP      R0,#+0
    139                {
    140                  if (tag[0]!=0)
   \   0000012C   B010D011           LDRHNE   R1,[R0, #+0]
   \   00000130   00005113           CMPNE    R1,#+0
   \   00000134   0400000A           BEQ      ??metadata_Get_9
    141                  {
    142                    wstrcpy(meta->Artist,tag);
   \   00000138   0010A0E1           MOV      R1,R0
   \   0000013C   400D86E2           ADD      R0,R6,#+4096
   \   00000140   520100EF           SWI      +338
    143                    tr.artist=0;
   \   00000144   0010A0E3           MOV      R1,#+0
   \   00000148   0110CDE5           STRB     R1,[SP, #+1]
    144                  }
    145                }
    146                
    147                tag=0;
    148                if (tag=MetaData_Desc_GetTags(TagStructure,3))
   \                     ??metadata_Get_9:
   \   0000014C   0310A0E3           MOV      R1,#+3
   \   00000150   0800A0E1           MOV      R0,R8
   \   00000154   F10200EF           SWI      +753
   \   00000158   000050E3           CMP      R0,#+0
    149                {
    150                  if (tag[0]!=0)
   \   0000015C   B010D011           LDRHNE   R1,[R0, #+0]
   \   00000160   00005113           CMPNE    R1,#+0
   \   00000164   0400000A           BEQ      ??metadata_Get_10
    151                  {
    152                    wstrcpy(meta->Year,tag);
   \   00000168   0010A0E1           MOV      R1,R0
   \   0000016C   600D86E2           ADD      R0,R6,#+6144
   \   00000170   520100EF           SWI      +338
    153                    tr.year=0;
   \   00000174   0010A0E3           MOV      R1,#+0
   \   00000178   0310CDE5           STRB     R1,[SP, #+3]
    154                  }
    155                }
    156                
    157                tag=0;
    158                if (tag=MetaData_Desc_GetTags(TagStructure,4))
   \                     ??metadata_Get_10:
   \   0000017C   0410A0E3           MOV      R1,#+4
   \   00000180   0800A0E1           MOV      R0,R8
   \   00000184   F10200EF           SWI      +753
   \   00000188   000050E3           CMP      R0,#+0
   \   0000018C   0700000A           BEQ      ??metadata_Get_11
    159                {
    160                  if (tag[0]!=0)
   \   00000190   B010D0E1           LDRH     R1,[R0, #+0]
   \   00000194   000051E3           CMP      R1,#+0
   \   00000198   0500000A           BEQ      ??metadata_Get_12
    161                  {
    162                    wstrcpy(meta->Genre,tag);
   \   0000019C   0010A0E1           MOV      R1,R0
   \   000001A0   800D86E2           ADD      R0,R6,#+8192
   \   000001A4   520100EF           SWI      +338
    163                    tr.genre=0;
   \   000001A8   0010A0E3           MOV      R1,#+0
   \   000001AC   0410CDE5           STRB     R1,[SP, #+4]
    164                  }
    165                }
    166                
    167                if (MetaData_Desc_GetTrackNum(TagStructure,0)!=-1)
   \                     ??metadata_Get_11:
   \   000001B0   0010A0E3           MOV      R1,#+0
   \                     ??metadata_Get_12:
   \   000001B4   0800A0E1           MOV      R0,R8
   \   000001B8   F20200EF           SWI      +754
   \   000001BC   010070E3           CMN      R0,#+1
   \   000001C0   0300000A           BEQ      ??metadata_Get_13
    168                {
    169                  meta->TrackNum=MetaData_Desc_GetTrackNum(TagStructure,0);
   \   000001C4   0010A0E3           MOV      R1,#+0
   \   000001C8   0800A0E1           MOV      R0,R8
   \   000001CC   F20200EF           SWI      +754
   \   000001D0   000000EA           B        ??metadata_Get_14
    170                }
    171                else
    172                {
    173                  meta->TrackNum=0;
   \                     ??metadata_Get_13:
   \   000001D4   0000A0E3           MOV      R0,#+0
   \                     ??metadata_Get_14:
   \   000001D8   A01D86E2           ADD      R1,R6,#+10240
   \   000001DC   000081E5           STR      R0,[R1, #+0]
    174                }
    175                MetaData_Desc_Destroy(TagStructure);
   \   000001E0   0800A0E1           MOV      R0,R8
   \   000001E4   F00200EF           SWI      +752
    176              }
    177              if (tr.title || tr.album || tr.artist || tr.year || tr.genre)
   \                     ??metadata_Get_4:
   \   000001E8   0000DDE5           LDRB     R0,[SP, #+0]
   \   000001EC   0210DDE5           LDRB     R1,[SP, #+2]
   \   000001F0   000081E1           ORR      R0,R1,R0
   \   000001F4   0110DDE5           LDRB     R1,[SP, #+1]
   \   000001F8   000081E1           ORR      R0,R1,R0
   \   000001FC   0310DDE5           LDRB     R1,[SP, #+3]
   \   00000200   000081E1           ORR      R0,R1,R0
   \   00000204   0410DDE5           LDRB     R1,[SP, #+4]
   \   00000208   000091E1           ORRS     R0,R1,R0
   \   0000020C   F381BD08           POPEQ    {R0,R1,R4-R8,PC}
    178              {
    179                metadata_Read(path, name, meta, tr);
   \   00000210   0D00A0E1           MOV      R0,SP
   \   00000214   08D04DE2           SUB      SP,SP,#+8
   \   00000218   001090E5           LDR      R1,[R0, #0]
   \   0000021C   0D20A0E1           MOV      R2,SP
   \   00000220   001082E5           STR      R1,[R2, #+0]
   \   00000224   041090E5           LDR      R1,[R0, #+4]
   \   00000228   0400A0E1           MOV      R0,R4
   \   0000022C   041082E5           STR      R1,[R2, #+4]
   \   00000230   0800BDE8           POP      {R3}
   \   00000234   0620A0E1           MOV      R2,R6
   \   00000238   0510A0E1           MOV      R1,R5
   \   0000023C   ........           _BLF     ??metadata_Read,??metadata_Read??rA
   \   00000240   04D08DE2           ADD      SP,SP,#+4
    180              }
    181          };
   \   00000244   F381BDE8           POP      {R0,R1,R4-R8,PC}  ;; return
    182          

   \                                 In segment CODE, align 4, keep-with-next
    183          IMG_DESC GetBitmap(wchar_t *path, wchar_t *name)
    184          {
   \                     ??GetBitmap:
   \   00000000   F14F2DE9           PUSH     {R0,R4-R11,LR}
   \   00000004   80D04DE2           SUB      SP,SP,#+128
   \   00000008   0160A0E1           MOV      R6,R1
   \   0000000C   0280A0E1           MOV      R8,R2
   \   00000010   FF10A0E3           MOV      R1,#+255
   \   00000014   FF1C81E3           ORR      R1,R1,#0xFF00
   \   00000018   B410CDE1           STRH     R1,[SP, #+4]
    185            IMG_DESC id;
    186            id.ImageID=NOIMAGE;
    187            id.HasImage=false;
   \   0000001C   0010A0E3           MOV      R1,#+0
   \   00000020   0610CDE5           STRB     R1,[SP, #+6]
    188            id.ImageHandle=NOIMAGE;
   \   00000024   FF10A0E3           MOV      R1,#+255
   \   00000028   FF1C81E3           ORR      R1,R1,#0xFF00
   \   0000002C   B810CDE1           STRH     R1,[SP, #+8]
    189            id.Handle=false;
   \   00000030   0010A0E3           MOV      R1,#+0
   \   00000034   0A10CDE5           STRB     R1,[SP, #+10]
    190          
    191            int error;
    192            FileDelete(GetDir(DIR_INI),L"album.png",&error);
   \   00000038   1600A0E3           MOV      R0,#+22
   \   0000003C   050100EF           SWI      +261
   \   00000040   ........           LDR      R1,??DataTable6  ;; `?<Constant L"\\x6a\\x70\\x67">` + 32
   \   00000044   14208DE2           ADD      R2,SP,#+20
   \   00000048   0A0200EF           SWI      +522
    193            int inf=_fopen(path,name,FSX_O_RDONLY,FSX_S_IREAD|FSX_S_IWRITE,0);
   \   0000004C   0000A0E3           MOV      R0,#+0
   \   00000050   01002DE9           PUSH     {R0}
   \   00000054   603FA0E3           MOV      R3,#+384
   \   00000058   0120A0E3           MOV      R2,#+1
   \   0000005C   0810A0E1           MOV      R1,R8
   \   00000060   0600A0E1           MOV      R0,R6
   \   00000064   160100EF           SWI      +278
   \   00000068   0050A0E1           MOV      R5,R0
    194            char CHUCK[100+1];
    195            fread(inf,CHUCK,100);
   \   0000006C   6420A0E3           MOV      R2,#+100
   \   00000070   1C108DE2           ADD      R1,SP,#+28
   \   00000074   180100EF           SWI      +280
    196            if (CHUCK[0]=='I' && CHUCK[1]=='D' && CHUCK[2]=='3') //Присутствуют ли тэги версии 2.x?
   \   00000078   1C00DDE5           LDRB     R0,[SP, #+28]
   \   0000007C   04D08DE2           ADD      SP,SP,#+4
   \   00000080   490050E3           CMP      R0,#+73
   \   00000084   1900DD05           LDRBEQ   R0,[SP, #+25]
   \   00000088   44005003           CMPEQ    R0,#+68
   \   0000008C   1A00DD05           LDRBEQ   R0,[SP, #+26]
   \   00000090   33005003           CMPEQ    R0,#+51
   \   00000094   C300001A           BNE      ??GetBitmap_1
    197            {
    198          	char tagSize[4];
    199          	tagSize[0]=CHUCK[6];
   \   00000098   1E10DDE5           LDRB     R1,[SP, #+30]
    200          	tagSize[1]=CHUCK[7];
    201          	tagSize[2]=CHUCK[8];
    202          	tagSize[3]=CHUCK[9];
    203          	int size=synchsafeToNormal(tagSize);
   \   0000009C   10008DE2           ADD      R0,SP,#+16
    204                  int file=_fopen(path,name,FSX_O_RDONLY,FSX_S_IREAD|FSX_S_IWRITE,0);
    205          	char cm[4];
    206          	bool HasPic=false;
   \   000000A0   0090A0E3           MOV      R9,#+0
   \   000000A4   1010CDE5           STRB     R1,[SP, #+16]
   \   000000A8   1F10DDE5           LDRB     R1,[SP, #+31]
   \   000000AC   1110CDE5           STRB     R1,[SP, #+17]
   \   000000B0   2010DDE5           LDRB     R1,[SP, #+32]
   \   000000B4   1210CDE5           STRB     R1,[SP, #+18]
   \   000000B8   2110DDE5           LDRB     R1,[SP, #+33]
   \   000000BC   1310CDE5           STRB     R1,[SP, #+19]
   \   000000C0   ........           _BLF     ??synchsafeToNormal,??synchsafeToNormal??rA
   \   000000C4   0040A0E1           MOV      R4,R0
   \   000000C8   0000A0E3           MOV      R0,#+0
   \   000000CC   01002DE9           PUSH     {R0}
   \   000000D0   603FA0E3           MOV      R3,#+384
   \   000000D4   0120A0E3           MOV      R2,#+1
   \   000000D8   0810A0E1           MOV      R1,R8
   \   000000DC   0600A0E1           MOV      R0,R6
   \   000000E0   160100EF           SWI      +278
   \   000000E4   0060A0E1           MOV      R6,R0
    207          	bool isMid=false;
   \   000000E8   0080A0E3           MOV      R8,#+0
    208          	int NEEDPOS=0;
   \   000000EC   08B0A0E1           MOV      R11,R8
    209          	char *buff=new char[size+1];
   \   000000F0   010084E2           ADD      R0,R4,#+1
   \   000000F4   ........           _BLF     `??operator new[]`,`??operator new[]??rA`
   \   000000F8   00A0A0E1           MOV      R10,R0
    210          	fread(file,buff,size);
   \   000000FC   0420A0E1           MOV      R2,R4
   \   00000100   0A10A0E1           MOV      R1,R10
   \   00000104   0600A0E1           MOV      R0,R6
   \   00000108   180100EF           SWI      +280
   \   0000010C   04D08DE2           ADD      SP,SP,#+4
   \   00000110   000000EA           B        ??GetBitmap_2
    211          	while(NEEDPOS<size)
    212          	{
    213                    if (buff[NEEDPOS]=='P' && buff[NEEDPOS+1]=='I' && buff[NEEDPOS+2]=='C')
    214                    {
    215                      HasPic=true; //Есть картинка
    216                      break;
    217                    }
    218          	  NEEDPOS++;
   \                     ??GetBitmap_3:
   \   00000114   01B08BE2           ADD      R11,R11,#+1
   \                     ??GetBitmap_2:
   \   00000118   04005BE1           CMP      R11,R4
   \   0000011C   0B0000AA           BGE      ??GetBitmap_4
   \   00000120   0A00DBE7           LDRB     R0,[R11, +R10]
   \   00000124   500050E3           CMP      R0,#+80
   \   00000128   F9FFFF1A           BNE      ??GetBitmap_3
   \   0000012C   0A008BE0           ADD      R0,R11,R10
   \   00000130   0100D0E5           LDRB     R0,[R0, #+1]
   \   00000134   490050E3           CMP      R0,#+73
   \   00000138   F5FFFF1A           BNE      ??GetBitmap_3
   \   0000013C   0A008BE0           ADD      R0,R11,R10
   \   00000140   0200D0E5           LDRB     R0,[R0, #+2]
   \   00000144   430050E3           CMP      R0,#+67
   \   00000148   F1FFFF1A           BNE      ??GetBitmap_3
   \   0000014C   0190A0E3           MOV      R9,#+1
    219          	}	
    220          	NEEDPOS++;
    221          	mfree(buff);
   \                     ??GetBitmap_4:
   \   00000150   0A00A0E1           MOV      R0,R10
   \   00000154   040100EF           SWI      +260
    222          	lseek(file,NEEDPOS-2,SEEK_SET);
   \   00000158   0020A0E3           MOV      R2,#+0
   \   0000015C   01104BE2           SUB      R1,R11,#+1
   \   00000160   0600A0E1           MOV      R0,R6
   \   00000164   760100EF           SWI      +374
    223          	if (HasPic==true)
   \   00000168   000059E3           CMP      R9,#+0
   \   0000016C   8B00000A           BEQ      ??GetBitmap_5
    224                  { 
    225          	  int TotalSize;
    226          	  fread(file,cm,1);
   \   00000170   0120A0E3           MOV      R2,#+1
   \   00000174   0D10A0E1           MOV      R1,SP
   \   00000178   0600A0E1           MOV      R0,R6
   \   0000017C   180100EF           SWI      +280
    227          	  if(cm[0]==')')
   \   00000180   0000DDE5           LDRB     R0,[SP, #+0]
   \   00000184   290050E3           CMP      R0,#+41
   \   00000188   0D00001A           BNE      ??GetBitmap_6
    228          	  {
    229                      lseek(file,3,SEEK_CUR);
   \   0000018C   0120A0E3           MOV      R2,#+1
   \   00000190   0310A0E3           MOV      R1,#+3
   \   00000194   0600A0E1           MOV      R0,R6
   \   00000198   760100EF           SWI      +374
    230                      fread(file,cm,3);
   \   0000019C   0320A0E3           MOV      R2,#+3
   \   000001A0   0D10A0E1           MOV      R1,SP
   \   000001A4   0600A0E1           MOV      R0,R6
   \   000001A8   180100EF           SWI      +280
    231                      TotalSize = (cm[0]<<16)|(cm[1]<<8)|cm[2];
   \   000001AC   0000DDE5           LDRB     R0,[SP, #+0]
   \   000001B0   0110DDE5           LDRB     R1,[SP, #+1]
   \   000001B4   0114A0E1           LSL      R1,R1,#+8
   \   000001B8   000881E1           ORR      R0,R1,R0, LSL #+16
   \   000001BC   0210DDE5           LDRB     R1,[SP, #+2]
   \   000001C0   004081E1           ORR      R4,R1,R0
    232          	  }
    233          	  if(cm[0]=='A')
   \                     ??GetBitmap_6:
   \   000001C4   0000DDE5           LDRB     R0,[SP, #+0]
   \   000001C8   0190A0E3           MOV      R9,#+1
   \   000001CC   410050E3           CMP      R0,#+65
   \   000001D0   1F00001A           BNE      ??GetBitmap_7
    234          	  {
    235                      lseek(file,3,SEEK_CUR);
   \   000001D4   0120A0E3           MOV      R2,#+1
   \   000001D8   0310A0E3           MOV      R1,#+3
   \   000001DC   0600A0E1           MOV      R0,R6
   \   000001E0   760100EF           SWI      +374
    236                      fread(file,cm,4);
   \   000001E4   0420A0E3           MOV      R2,#+4
   \   000001E8   0D10A0E1           MOV      R1,SP
   \   000001EC   0600A0E1           MOV      R0,R6
   \   000001F0   180100EF           SWI      +280
    237                      TotalSize = (cm[0]<<24)|(cm[1]<<16)|(cm[2]<<8)|cm[3];
   \   000001F4   0000DDE5           LDRB     R0,[SP, #+0]
   \   000001F8   0110DDE5           LDRB     R1,[SP, #+1]
    238                      lseek(file,3+12,SEEK_CUR);
   \   000001FC   0920A0E1           MOV      R2,R9
   \   00000200   0118A0E1           LSL      R1,R1,#+16
   \   00000204   000C81E1           ORR      R0,R1,R0, LSL #+24
   \   00000208   0210DDE5           LDRB     R1,[SP, #+2]
   \   0000020C   010480E1           ORR      R0,R0,R1, LSL #+8
   \   00000210   0310DDE5           LDRB     R1,[SP, #+3]
   \   00000214   004081E1           ORR      R4,R1,R0
   \   00000218   0F10A0E3           MOV      R1,#+15
   \   0000021C   0600A0E1           MOV      R0,R6
   \   00000220   760100EF           SWI      +374
    239                      char checker;
    240                      fread(file,&checker,1);
   \   00000224   0920A0E1           MOV      R2,R9
   \   00000228   0C108DE2           ADD      R1,SP,#+12
   \   0000022C   0600A0E1           MOV      R0,R6
   \   00000230   180100EF           SWI      +280
    241                      if (checker!=0)
   \   00000234   0C00DDE5           LDRB     R0,[SP, #+12]
   \   00000238   000050E3           CMP      R0,#+0
   \   0000023C   0400000A           BEQ      ??GetBitmap_7
    242                      {
    243                        isMid=true;
   \   00000240   0180A0E3           MOV      R8,#+1
    244                        lseek(file,-1,SEEK_CUR);
   \   00000244   0820A0E1           MOV      R2,R8
   \   00000248   001062E2           RSB      R1,R2,#+0
   \   0000024C   0600A0E1           MOV      R0,R6
   \   00000250   760100EF           SWI      +374
    245                      }
    246          	  }
    247                    if (GetCover_SWI==0)
   \                     ??GetBitmap_7:
   \   00000254   ........           LDR      R1,??DataTable4  ;; GetCover_SWI
   \   00000258   010044E2           SUB      R0,R4,#+1
   \   0000025C   001091E5           LDR      R1,[R1, #+0]
   \   00000260   0D4044E2           SUB      R4,R4,#+13
   \   00000264   000051E3           CMP      R1,#+0
   \   00000268   2000001A           BNE      ??GetBitmap_8
    248                    {
    249                      //Сохраняем в файл
    250                      int psize=0;
    251                      if (isMid==false){
   \   0000026C   000058E3           CMP      R8,#+0
    252                        psize=TotalSize-1;
   \   00000270   0040A001           MOVEQ    R4,R0
    253                      }
    254                      else
    255                      {
    256                        psize=TotalSize-12-1;
    257                      }
    258                      char *picture=new char[psize+1];
   \   00000274   010084E2           ADD      R0,R4,#+1
   \   00000278   ........           _BLF     `??operator new[]`,`??operator new[]??rA`
   \   0000027C   0070A0E1           MOV      R7,R0
    259                      fread(file,picture,psize);
   \   00000280   0420A0E1           MOV      R2,R4
   \   00000284   0710A0E1           MOV      R1,R7
   \   00000288   0600A0E1           MOV      R0,R6
   \   0000028C   180100EF           SWI      +280
    260                      int f2;
    261                      f2 = _fopen(GetDir(DIR_INI),L"album.png",FSX_O_RDWR,FSX_S_IREAD|FSX_S_IWRITE,0);
   \   00000290   1600A0E3           MOV      R0,#+22
   \   00000294   050100EF           SWI      +261
   \   00000298   0010A0E3           MOV      R1,#+0
   \   0000029C   02002DE9           PUSH     {R1}
   \   000002A0   603FA0E3           MOV      R3,#+384
   \   000002A4   ........           LDR      R1,??DataTable6  ;; `?<Constant L"\\x6a\\x70\\x67">` + 32
   \   000002A8   0420A0E3           MOV      R2,#+4
   \   000002AC   160100EF           SWI      +278
   \   000002B0   0080A0E1           MOV      R8,R0
    262                      fwrite(f2,picture,psize);
   \   000002B4   0420A0E1           MOV      R2,R4
   \   000002B8   0710A0E1           MOV      R1,R7
   \   000002BC   190100EF           SWI      +281
    263                      fclose(f2);
   \   000002C0   0800A0E1           MOV      R0,R8
   \   000002C4   170100EF           SWI      +279
    264                      delete(picture);
   \   000002C8   0700A0E1           MOV      R0,R7
   \   000002CC   ........           _BLF     `??operator delete`,`??operator delete??rA`
    265                      ImageHandler_Get(&id,GetDir(DIR_INI),L"album.png");
   \   000002D0   1600A0E3           MOV      R0,#+22
   \   000002D4   050100EF           SWI      +261
   \   000002D8   ........           LDR      R2,??DataTable6  ;; `?<Constant L"\\x6a\\x70\\x67">` + 32
   \   000002DC   0010A0E1           MOV      R1,R0
   \   000002E0   08008DE2           ADD      R0,SP,#+8
   \   000002E4   ........           _BLF     ??ImageHandler_Get_1,??ImageHandler_Get??rA_1
   \   000002E8   04D08DE2           ADD      SP,SP,#+4
   \   000002EC   2B0000EA           B        ??GetBitmap_5
    266                    }
    267                    else if (GetCover_SWI==2)
   \                     ??GetBitmap_8:
   \   000002F0   020051E3           CMP      R1,#+2
   \   000002F4   2900001A           BNE      ??GetBitmap_5
    268                    {
    269                      //Берём напрямую из буфера
    270                      IMAGEID imageID;
    271                      int psize;
    272                      if (isMid==false){
    273                        psize=TotalSize-1;
    274                      }
    275                      else
    276                      {
    277                        psize=TotalSize-12-1;
    278                      }
    279                      char *picture=new char[psize+1];
    280                      fread(file,picture,psize);
    281                      nowmusic.meta.Handle=false;
   \   000002F8   E0A09FE5           LDR      R10,??GetBitmap_9  ;; nowmusic + 10280
   \   000002FC   000058E3           CMP      R8,#+0
   \   00000300   0040A001           MOVEQ    R4,R0
   \   00000304   010084E2           ADD      R0,R4,#+1
   \   00000308   ........           _BLF     `??operator new[]`,`??operator new[]??rA`
   \   0000030C   0080A0E1           MOV      R8,R0
   \   00000310   0420A0E1           MOV      R2,R4
   \   00000314   0810A0E1           MOV      R1,R8
   \   00000318   0600A0E1           MOV      R0,R6
   \   0000031C   180100EF           SWI      +280
    282                      if (ImageID_GetIndirect(picture,psize,0,L"png",&imageID)==0)
   \   00000320   BC309FE5           LDR      R3,??GetBitmap_9+0x4  ;; `?<Constant L"\\x6a\\x70\\x67">` + 16
   \   00000324   0000A0E3           MOV      R0,#+0
   \   00000328   0600CAE5           STRB     R0,[R10, #+6]
   \   0000032C   0E008DE2           ADD      R0,SP,#+14
   \   00000330   01002DE9           PUSH     {R0}
   \   00000334   0020A0E3           MOV      R2,#+0
   \   00000338   0410A0E1           MOV      R1,R4
   \   0000033C   0800A0E1           MOV      R0,R8
   \   00000340   020300EF           SWI      +770
   \   00000344   000050E3           CMP      R0,#+0
   \   00000348   04D08DE2           ADD      SP,SP,#+4
   \   0000034C   0800001A           BNE      ??GetBitmap_10
    283                      {
    284                        id.ImageID=imageID;
   \   00000350   BE10DDE1           LDRH     R1,[SP, #+14]
   \   00000354   B410CDE1           STRH     R1,[SP, #+4]
    285                        id.HasImage=true;
   \   00000358   0690CDE5           STRB     R9,[SP, #+6]
    286                        id.Handle=false;
   \   0000035C   0010A0E3           MOV      R1,#+0
   \   00000360   0A10CDE5           STRB     R1,[SP, #+10]
    287                        id.ImageHandle=NOIMAGE;
   \   00000364   FF10A0E3           MOV      R1,#+255
   \   00000368   FF1C81E3           ORR      R1,R1,#0xFF00
   \   0000036C   B810CDE1           STRH     R1,[SP, #+8]
   \   00000370   0A0000EA           B        ??GetBitmap_5
    288                      }
    289                      else
    290                      {
    291                        id.ImageID=NOIMAGE;
   \                     ??GetBitmap_10:
   \   00000374   FF10A0E3           MOV      R1,#+255
   \   00000378   FF1C81E3           ORR      R1,R1,#0xFF00
   \   0000037C   B410CDE1           STRH     R1,[SP, #+4]
    292                        id.HasImage=false;
   \   00000380   0010A0E3           MOV      R1,#+0
   \   00000384   0610CDE5           STRB     R1,[SP, #+6]
    293                        id.Handle=false;
   \   00000388   0A10CDE5           STRB     R1,[SP, #+10]
    294                        id.ImageHandle=NOIMAGE;
   \   0000038C   FF10A0E3           MOV      R1,#+255
   \   00000390   FF1C81E3           ORR      R1,R1,#0xFF00
   \   00000394   B810CDE1           STRH     R1,[SP, #+8]
    295                        nowmusic.meta.HasImage=false;
   \   00000398   0000A0E3           MOV      R0,#+0
   \   0000039C   0000CAE5           STRB     R0,[R10, #+0]
    296                      }
    297                    }
    298          	}
    299          	fclose(file);
   \                     ??GetBitmap_5:
   \   000003A0   0600A0E1           MOV      R0,R6
   \   000003A4   170100EF           SWI      +279
    300            }
    301            fclose(inf);
   \                     ??GetBitmap_1:
   \   000003A8   0500A0E1           MOV      R0,R5
   \   000003AC   170100EF           SWI      +279
    302            return id;
   \   000003B0   80009DE5           LDR      R0,[SP, #+128]
   \   000003B4   04108DE2           ADD      R1,SP,#+4
   \   000003B8   B020D1E1           LDRH     R2,[R1, #0]
   \   000003BC   B020C0E1           STRH     R2,[R0, #+0]
   \   000003C0   B220D1E1           LDRH     R2,[R1, #+2]
   \   000003C4   B220C0E1           STRH     R2,[R0, #+2]
   \   000003C8   B420D1E1           LDRH     R2,[R1, #+4]
   \   000003CC   B420C0E1           STRH     R2,[R0, #+4]
   \   000003D0   B620D1E1           LDRH     R2,[R1, #+6]
   \   000003D4   B620C0E1           STRH     R2,[R0, #+6]
   \   000003D8   84D08DE2           ADD      SP,SP,#+132
   \   000003DC   F08FBDE8           POP      {R4-R11,PC}      ;; return
   \                     ??GetBitmap_9:
   \   000003E0   ........           DC32     nowmusic + 10280
   \   000003E4   ........           DC32     `?<Constant L"\\x6a\\x70\\x67">` + 16
    303          };
    304          
    305          
    306          

   \                                 In segment CODE, align 4, keep-with-next
    307          void Cover_Free()
    308          {
    309            if(nowmusic.meta.HasImage==true)
   \                     ??Cover_Free:
   \   00000000   ........           LDR      R0,??DataTable8  ;; nowmusic
   \   00000004   10402DE9           PUSH     {R4,LR}
   \   00000008   2810A0E3           MOV      R1,#+40
   \   0000000C   A01D81E3           ORR      R1,R1,#0x2800
   \   00000010   004081E0           ADD      R4,R1,R0
   \   00000014   0010D4E5           LDRB     R1,[R4, #+0]
   \   00000018   000051E3           CMP      R1,#+0
   \   0000001C   0700000A           BEQ      ??Cover_Free_1
    310            {
    311              if (!nowmusic.meta.Handle)
   \   00000020   0610D4E5           LDRB     R1,[R4, #+6]
   \   00000024   000051E3           CMP      R1,#+0
   \   00000028   0200001A           BNE      ??Cover_Free_2
    312              {
    313                ImageID_Free(nowmusic.meta.ImageID);
   \   0000002C   B200D4E1           LDRH     R0,[R4, #+2]
   \   00000030   CD0200EF           SWI      +717
   \   00000034   010000EA           B        ??Cover_Free_1
    314              }
    315              else
    316              {
    317                ImageHandler_Free(&nowmusic.meta);
   \                     ??Cover_Free_2:
   \   00000038   240080E2           ADD      R0,R0,#+36
   \   0000003C   ........           _BLF     ??ImageHandler_Free,??ImageHandler_Free??rA
    318              }
    319            }
    320            nowmusic.meta.ImageID=NOIMAGE;
   \                     ??Cover_Free_1:
   \   00000040   FF00A0E3           MOV      R0,#+255
   \   00000044   FF0C80E3           ORR      R0,R0,#0xFF00
   \   00000048   B200C4E1           STRH     R0,[R4, #+2]
    321            nowmusic.meta.HasImage=false;
   \   0000004C   0010A0E3           MOV      R1,#+0
   \   00000050   0010C4E5           STRB     R1,[R4, #+0]
    322            nowmusic.meta.Handle=false;
   \   00000054   0610C4E5           STRB     R1,[R4, #+6]
    323            nowmusic.meta.ImageHandle=NOIMAGE;
   \   00000058   B400C4E1           STRH     R0,[R4, #+4]
    324          };
   \   0000005C   1080BDE8           POP      {R4,PC}          ;; return
    325          

   \                                 In segment CODE, align 4, keep-with-next
    326          void decoder_Init(wchar_t *path, wchar_t *name)
    327          {
   \                     ??decoder_Init:
   \   00000000   70402DE9           PUSH     {R4-R6,LR}
    328            Cover_Free();
    329            metadata_Get(path, name, &nowmusic.meta);
   \   00000004   ........           LDR      R6,??DataTable8  ;; nowmusic
   \   00000008   1CD04DE2           SUB      SP,SP,#+28
   \   0000000C   0040A0E1           MOV      R4,R0
   \   00000010   0150A0E1           MOV      R5,R1
   \   00000014   ........           BL       ??Cover_Free
   \   00000018   242086E2           ADD      R2,R6,#+36
   \   0000001C   0510A0E1           MOV      R1,R5
   \   00000020   0400A0E1           MOV      R0,R4
   \   00000024   ........           BL       ??metadata_Get
    330            nowmusic.hdr=ReadMP3Information(path, name);
   \   00000028   0520A0E1           MOV      R2,R5
   \   0000002C   0410A0E1           MOV      R1,R4
   \   00000030   0D00A0E1           MOV      R0,SP
   \   00000034   ........           _BLF     ??ReadMP3Information,??ReadMP3Information??rA
   \   00000038   080086E2           ADD      R0,R6,#+8
   \   0000003C   0D10A0E1           MOV      R1,SP
   \   00000040   7C5091E8           LDM      R1,{R2-R6,R12,LR}
   \   00000044   7C5080E8           STM      R0,{R2-R6,R12,LR}
    331          };
   \   00000048   1CD08DE2           ADD      SP,SP,#+28
   \   0000004C   7080BDE8           POP      {R4-R6,PC}       ;; return

   \                                 In segment CODE, align 4, keep-with-next
   \                     ??DataTable4:
   \   00000000   ........           DC32     GetCover_SWI

   \                                 In segment CODE, align 4, keep-with-next
   \                     ??DataTable6:
   \   00000000   ........           DC32     `?<Constant L"\\x6a\\x70\\x67">` + 32

   \                                 In segment CODE, align 4, keep-with-next
   \                     ??DataTable8:
   \   00000000   ........           DC32     nowmusic

   \                                 In segment DATA_C, align 4, align-sorted
   \                     `?<Constant L"\\x6a\\x70\\x67">`:
   \   00000000   6A0070006700       DC8 6AH, 0, 70H, 0, 67H, 0, 0, 0
   \              0000        
   \   00000008   670069006600       DC8 67H, 0, 69H, 0, 66H, 0, 0, 0
   \              0000        
   \   00000010   70006E006700       DC8 70H, 0, 6EH, 0, 67H, 0, 0, 0
   \              0000        
   \   00000018   62006D007000       DC8 62H, 0, 6DH, 0, 70H, 0, 0, 0
   \              0000        
   \   00000020   61006C006200       DC8 61H, 0, 6CH, 0, 62H, 0, 75H, 0
   \              7500        
   \   00000028   6D002E007000       DC8 6DH, 0, 2EH, 0, 70H, 0, 6EH, 0
   \              6E00        
   \   00000030   67000000           DC8 67H, 0, 0, 0
    332          

   Maximum stack usage in bytes:

     Function                       CSTACK
     --------                       ------
     Cover_Free()                       8
     GetBitmap(wchar_t *, wchar_t *)
                                      172
     GetCover(void *, wchar_t *, wchar_t *, METADATA *)
                                       60
     GetType_str(int)                   0
     decoder_Init(wchar_t *, wchar_t *)
                                       44
     metadata_Get(wchar_t *, wchar_t *, METADATA *)
                                       40


   Segment part sizes:

     Function/Label                 Bytes
     --------------                 -----
     nowmusic                       10288
     GetType_str(int)                  92
     GetCover(void *, wchar_t *, wchar_t *, METADATA *)
                                      420
     metadata_Get(wchar_t *, wchar_t *, METADATA *)
                                      584
     GetBitmap(wchar_t *, wchar_t *)
                                     1000
     Cover_Free()                      96
     decoder_Init(wchar_t *, wchar_t *)
                                       80
     ??DataTable4                       4
     ??DataTable6                       4
     ??DataTable8                       4
     ?<Constant L"\x6a\x70\x67">       52
      Others                          144

 
  2 416 bytes in segment CODE
     52 bytes in segment DATA_C
 10 288 bytes in segment DATA_Z
     12 bytes in segment INITTAB
 
  2 284 bytes of CODE  memory (+ 144 bytes shared)
     52 bytes of CONST memory
 10 288 bytes of DATA  memory

Errors: none
Warnings: none
