//////////////////////////////////////////////////////////////////////////////
//                                                                           /
// IAR ARM ANSI C/C++ Compiler V4.42A/W32 EVALUATION   10/Jun/2013  23:03:35 /
// Copyright 1999-2005 IAR Systems. All rights reserved.                     /
//                                                                           /
//    Cpu mode        =  interwork                                           /
//    Endian          =  little                                              /
//    Stack alignment =  4                                                   /
//    Source file     =  Z:\home\perk11\www\perk11.info\svn\SE\CoverArt\labe /
//                       ls.c                                                /
//    Command line    =  Z:\home\perk11\www\perk11.info\svn\SE\CoverArt\labe /
//                       ls.c -D NDEBUG -D OLDFUNCTIONS -lC                  /
//                       Z:\home\perk11\www\perk11.info\svn\SE\CoverArt\EN\L /
//                       ist\ -lA Z:\home\perk11\www\perk11.info\svn\SE\Cove /
//                       rArt\EN\List\ -o Z:\home\perk11\www\perk11.info\svn /
//                       \SE\CoverArt\EN\Obj\ -s9 --cpu_mode arm --endian    /
//                       little --cpu ARM926EJ-S --stack_align 4             /
//                       --interwork -e --enable_multibytes --fpu None       /
//                       --eec++ --dlib_config Z:\home\perk11\IAR2\arm\LIB\d /
//                       l5tpainl8n.h --preinclude                           /
//                       Z:\home\perk11\www\perk11.info\svn\SE\CoverArt\LNG- /
//                       EN.h -I Z:\home\perk11\IAR2\arm\INC\                /
//                       --inline_threshold=2                                /
//    List file       =  Z:\home\perk11\www\perk11.info\svn\SE\CoverArt\EN\L /
//                       ist\labels.s79                                      /
//                                                                           /
//                                                                           /
//////////////////////////////////////////////////////////////////////////////

        NAME labels

        RTMODEL "StackAlign4", "USED"
        RTMODEL "__cpu_mode", "__pcs__interwork"
        RTMODEL "__data_model", "absolute"
        RTMODEL "__endian", "little"
        RTMODEL "__rt_version", "6"

        RSEG CSTACK:DATA:NOROOT(2)

        ERROR
//NOTE: This module defines or uses C++ features that are not
//      accessible from assembler code. Assembling this file will
//      not produce an equivalent object file to the one produced
//      by the C++ compiler.

        PUBLIC ??CustomLbls
        FUNCTION ??CustomLbls,0203H
        LOCFRAME CSTACK, 20, STACK
        MULTWEAK ??CustomLbls??rT
??DataTable0 EQU 0
??DataTable1 EQU 0
??DataTable10 EQU 0
??DataTable11 EQU 0
??DataTable2 EQU 0
??DataTable24 EQU 0
??DataTable25 EQU 0
??DataTable26 EQU 0
??DataTable3 EQU 0
??DataTable4 EQU 0
??DataTable5 EQU 0
??DataTable6 EQU 0
??DataTable7 EQU 0
??DataTable8 EQU 0
??DataTable9 EQU 0
        PUBLIC ??Font_GetHeight
        FUNCTION ??Font_GetHeight,0203H
        LOCFRAME CSTACK, 4, STACK
        MULTWEAK ??Font_GetHeight??rT
        PUBLIC ??GetLabelSize
        FUNCTION ??GetLabelSize,0203H
        LOCFRAME CSTACK, 12, STACK
        MULTWEAK ??GetLabelSize??rT
        PUBLIC ??InitLbls
        FUNCTION ??InitLbls,0203H
        LOCFRAME CSTACK, 548, STACK
        MULTWEAK ??InitLbls??rT
        PUBLIC ??caprintf
        FUNCTION ??caprintf,0203H
        LOCFRAME CSTACK, 648, STACK
        MULTWEAK ??caprintf??rT
        MULTWEAK ??char2unicode??rA
        PUBLIC ??lbl_fill
        FUNCTION ??lbl_fill,0203H
        LOCFRAME CSTACK, 12, STACK
        MULTWEAK ??lbl_fill??rT
        PUBLIC ??lbl_kill
        FUNCTION ??lbl_kill,0203H
        LOCFRAME CSTACK, 16, STACK
        MULTWEAK ??lbl_kill??rT
        PUBLIC ??lbl_ofill
        FUNCTION ??lbl_ofill,0203H
        LOCFRAME CSTACK, 12, STACK
        MULTWEAK ??lbl_ofill??rT
        PUBLIC ??lbl_okill
        FUNCTION ??lbl_okill,0203H
        LOCFRAME CSTACK, 16, STACK
        MULTWEAK ??lbl_okill??rT
        PUBLIC ??optimized_InitLbls
        FUNCTION ??optimized_InitLbls,0203H
        LOCFRAME CSTACK, 548, STACK
        MULTWEAK ??optimized_InitLbls??rT
        PUBWEAK ?init?tab?DATA_Z
        PUBLIC labels
        
        CFI Names cfiNames0
        CFI StackFrame CFA R13 HUGEDATA
        CFI Resource R0:32, R1:32, R2:32, R3:32, R4:32, R5:32, R6:32, R7:32
        CFI Resource R8:32, R9:32, R10:32, R11:32, R12:32, CPSR:32, R13:32
        CFI Resource R14:32, SPSR:32
        CFI VirtualResource ?RET:32
        CFI EndNames cfiNames0
        
        CFI Common cfiCommon0 Using cfiNames0
        CFI CodeAlign 2
        CFI DataAlign 4
        CFI ReturnAddress ?RET CODE
        CFI CFA R13+0
        CFI R0 Undefined
        CFI R1 Undefined
        CFI R2 Undefined
        CFI R3 Undefined
        CFI R4 SameValue
        CFI R5 SameValue
        CFI R6 SameValue
        CFI R7 SameValue
        CFI R8 SameValue
        CFI R9 SameValue
        CFI R10 SameValue
        CFI R11 SameValue
        CFI R12 Undefined
        CFI CPSR SameValue
        CFI R14 Undefined
        CFI SPSR SameValue
        CFI ?RET R14
        CFI EndCommon cfiCommon0
        
        
        CFI Common cfiCommon1 Using cfiNames0
        CFI CodeAlign 4
        CFI DataAlign 4
        CFI ReturnAddress ?RET CODE
        CFI CFA R13+0
        CFI R0 Undefined
        CFI R1 Undefined
        CFI R2 Undefined
        CFI R3 Undefined
        CFI R4 SameValue
        CFI R5 SameValue
        CFI R6 SameValue
        CFI R7 SameValue
        CFI R8 SameValue
        CFI R9 SameValue
        CFI R10 SameValue
        CFI R11 SameValue
        CFI R12 Undefined
        CFI CPSR SameValue
        CFI R14 Undefined
        CFI SPSR SameValue
        CFI ?RET R14
        CFI EndCommon cfiCommon1
        


??CustomLbls??rT    SYMBOL "??rT", ??CustomLbls

??Font_GetHeight??rT SYMBOL "??rT", ??Font_GetHeight

??GetLabelSize??rT  SYMBOL "??rT", ??GetLabelSize

??InitLbls??rT      SYMBOL "??rT", ??InitLbls

??caprintf??rT      SYMBOL "??rT", ??caprintf
??char2unicode??rA  SYMBOL "??rA", ??char2unicode

??lbl_fill??rT      SYMBOL "??rT", ??lbl_fill

??lbl_kill??rT      SYMBOL "??rT", ??lbl_kill

??lbl_ofill??rT     SYMBOL "??rT", ??lbl_ofill

??lbl_okill??rT     SYMBOL "??rT", ??lbl_okill

??optimized_InitLbls??rT SYMBOL "??rT", ??optimized_InitLbls

        EXTERN ??char2unicode
        FUNCTION ??char2unicode,0202H
        EXTERN AverageVBR
        EXTERN CoverRC
        EXTERN CurrentTime
        EXTERN CustomRC
        EXTERN LABEL10_COLOR1
        EXTERN LABEL10_COLOR2
        EXTERN LABEL10_CT
        EXTERN LABEL10_FONT
        EXTERN LABEL10_LINE_DIST
        EXTERN LABEL10_LINE_MINUS
        EXTERN LABEL10_LINE_ON
        EXTERN LABEL10_LINE_SIZE
        EXTERN LABEL10_NAME
        EXTERN LABEL10_NEED_REDRAW
        EXTERN LABEL10_SCROLL_LEFT
        EXTERN LABEL10_SCROLL_LENGTH
        EXTERN LABEL10_SCROLL_LR
        EXTERN LABEL10_SCROLL_MP
        EXTERN LABEL10_SCROLL_RIGHT
        EXTERN LABEL10_SCROLL_STRLEN
        EXTERN LABEL10_SCROLL_YES
        EXTERN LABEL10_SHOW
        EXTERN LABEL10_X_POS
        EXTERN LABEL10_Y_POS
        EXTERN LABEL1_COLOR1
        EXTERN LABEL1_COLOR2
        EXTERN LABEL1_CT
        EXTERN LABEL1_FONT
        EXTERN LABEL1_LINE_DIST
        EXTERN LABEL1_LINE_MINUS
        EXTERN LABEL1_LINE_ON
        EXTERN LABEL1_LINE_SIZE
        EXTERN LABEL1_NAME
        EXTERN LABEL1_NEED_REDRAW
        EXTERN LABEL1_SCROLL_LEFT
        EXTERN LABEL1_SCROLL_LR
        EXTERN LABEL1_SCROLL_MP
        EXTERN LABEL1_SCROLL_RIGHT
        EXTERN LABEL1_SCROLL_STRLEN
        EXTERN LABEL1_SCROLL_YES
        EXTERN LABEL1_SHOW
        EXTERN LABEL1_X_POS
        EXTERN LABEL1_Y_POS
        EXTERN LABEL2_COLOR1
        EXTERN LABEL2_COLOR2
        EXTERN LABEL2_CT
        EXTERN LABEL2_FONT
        EXTERN LABEL2_LINE_DIST
        EXTERN LABEL2_LINE_MINUS
        EXTERN LABEL2_LINE_ON
        EXTERN LABEL2_LINE_SIZE
        EXTERN LABEL2_NAME
        EXTERN LABEL2_NEED_REDRAW
        EXTERN LABEL2_SCROLL_LEFT
        EXTERN LABEL2_SCROLL_LENGTH
        EXTERN LABEL2_SCROLL_LR
        EXTERN LABEL2_SCROLL_MP
        EXTERN LABEL2_SCROLL_RIGHT
        EXTERN LABEL2_SCROLL_STRLEN
        EXTERN LABEL2_SCROLL_YES
        EXTERN LABEL2_SHOW
        EXTERN LABEL2_X_POS
        EXTERN LABEL2_Y_POS
        EXTERN LABEL3_COLOR1
        EXTERN LABEL3_COLOR2
        EXTERN LABEL3_CT
        EXTERN LABEL3_FONT
        EXTERN LABEL3_LINE_DIST
        EXTERN LABEL3_LINE_MINUS
        EXTERN LABEL3_LINE_ON
        EXTERN LABEL3_LINE_SIZE
        EXTERN LABEL3_NAME
        EXTERN LABEL3_NEED_REDRAW
        EXTERN LABEL3_SCROLL_LEFT
        EXTERN LABEL3_SCROLL_LENGTH
        EXTERN LABEL3_SCROLL_LR
        EXTERN LABEL3_SCROLL_MP
        EXTERN LABEL3_SCROLL_RIGHT
        EXTERN LABEL3_SCROLL_STRLEN
        EXTERN LABEL3_SCROLL_YES
        EXTERN LABEL3_SHOW
        EXTERN LABEL3_X_POS
        EXTERN LABEL3_Y_POS
        EXTERN LABEL4_COLOR1
        EXTERN LABEL4_COLOR2
        EXTERN LABEL4_CT
        EXTERN LABEL4_FONT
        EXTERN LABEL4_LINE_DIST
        EXTERN LABEL4_LINE_MINUS
        EXTERN LABEL4_LINE_ON
        EXTERN LABEL4_LINE_SIZE
        EXTERN LABEL4_NAME
        EXTERN LABEL4_NEED_REDRAW
        EXTERN LABEL4_SCROLL_LEFT
        EXTERN LABEL4_SCROLL_LENGTH
        EXTERN LABEL4_SCROLL_LR
        EXTERN LABEL4_SCROLL_MP
        EXTERN LABEL4_SCROLL_RIGHT
        EXTERN LABEL4_SCROLL_STRLEN
        EXTERN LABEL4_SCROLL_YES
        EXTERN LABEL4_SHOW
        EXTERN LABEL4_X_POS
        EXTERN LABEL4_Y_POS
        EXTERN LABEL5_COLOR1
        EXTERN LABEL5_COLOR2
        EXTERN LABEL5_CT
        EXTERN LABEL5_FONT
        EXTERN LABEL5_LINE_DIST
        EXTERN LABEL5_LINE_MINUS
        EXTERN LABEL5_LINE_ON
        EXTERN LABEL5_LINE_SIZE
        EXTERN LABEL5_NAME
        EXTERN LABEL5_NEED_REDRAW
        EXTERN LABEL5_SCROLL_LEFT
        EXTERN LABEL5_SCROLL_LENGTH
        EXTERN LABEL5_SCROLL_LR
        EXTERN LABEL5_SCROLL_MP
        EXTERN LABEL5_SCROLL_RIGHT
        EXTERN LABEL5_SCROLL_STRLEN
        EXTERN LABEL5_SCROLL_YES
        EXTERN LABEL5_SHOW
        EXTERN LABEL5_X_POS
        EXTERN LABEL5_Y_POS
        EXTERN LABEL6_COLOR1
        EXTERN LABEL6_COLOR2
        EXTERN LABEL6_CT
        EXTERN LABEL6_FONT
        EXTERN LABEL6_LINE_DIST
        EXTERN LABEL6_LINE_MINUS
        EXTERN LABEL6_LINE_ON
        EXTERN LABEL6_LINE_SIZE
        EXTERN LABEL6_NAME
        EXTERN LABEL6_NEED_REDRAW
        EXTERN LABEL6_SCROLL_LEFT
        EXTERN LABEL6_SCROLL_LENGTH
        EXTERN LABEL6_SCROLL_LR
        EXTERN LABEL6_SCROLL_MP
        EXTERN LABEL6_SCROLL_RIGHT
        EXTERN LABEL6_SCROLL_STRLEN
        EXTERN LABEL6_SCROLL_YES
        EXTERN LABEL6_SHOW
        EXTERN LABEL6_X_POS
        EXTERN LABEL6_Y_POS
        EXTERN LABEL7_COLOR1
        EXTERN LABEL7_COLOR2
        EXTERN LABEL7_CT
        EXTERN LABEL7_FONT
        EXTERN LABEL7_LINE_DIST
        EXTERN LABEL7_LINE_MINUS
        EXTERN LABEL7_LINE_ON
        EXTERN LABEL7_LINE_SIZE
        EXTERN LABEL7_NAME
        EXTERN LABEL7_NEED_REDRAW
        EXTERN LABEL7_SCROLL_LEFT
        EXTERN LABEL7_SCROLL_LENGTH
        EXTERN LABEL7_SCROLL_LR
        EXTERN LABEL7_SCROLL_MP
        EXTERN LABEL7_SCROLL_RIGHT
        EXTERN LABEL7_SCROLL_STRLEN
        EXTERN LABEL7_SCROLL_YES
        EXTERN LABEL7_SHOW
        EXTERN LABEL7_X_POS
        EXTERN LABEL7_Y_POS
        EXTERN LABEL8_COLOR1
        EXTERN LABEL8_COLOR2
        EXTERN LABEL8_CT
        EXTERN LABEL8_FONT
        EXTERN LABEL8_LINE_DIST
        EXTERN LABEL8_LINE_MINUS
        EXTERN LABEL8_LINE_ON
        EXTERN LABEL8_LINE_SIZE
        EXTERN LABEL8_NAME
        EXTERN LABEL8_NEED_REDRAW
        EXTERN LABEL8_SCROLL_LEFT
        EXTERN LABEL8_SCROLL_LENGTH
        EXTERN LABEL8_SCROLL_LR
        EXTERN LABEL8_SCROLL_MP
        EXTERN LABEL8_SCROLL_RIGHT
        EXTERN LABEL8_SCROLL_STRLEN
        EXTERN LABEL8_SCROLL_YES
        EXTERN LABEL8_SHOW
        EXTERN LABEL8_X_POS
        EXTERN LABEL8_Y_POS
        EXTERN LABEL9_COLOR1
        EXTERN LABEL9_COLOR2
        EXTERN LABEL9_CT
        EXTERN LABEL9_FONT
        EXTERN LABEL9_LINE_DIST
        EXTERN LABEL9_LINE_MINUS
        EXTERN LABEL9_LINE_ON
        EXTERN LABEL9_LINE_SIZE
        EXTERN LABEL9_NAME
        EXTERN LABEL9_NEED_REDRAW
        EXTERN LABEL9_SCROLL_LEFT
        EXTERN LABEL9_SCROLL_LENGTH
        EXTERN LABEL9_SCROLL_LR
        EXTERN LABEL9_SCROLL_MP
        EXTERN LABEL9_SCROLL_RIGHT
        EXTERN LABEL9_SCROLL_STRLEN
        EXTERN LABEL9_SCROLL_YES
        EXTERN LABEL9_SHOW
        EXTERN LABEL9_X_POS
        EXTERN LABEL9_Y_POS
        EXTERN ScrollingMode
        EXTERN currenttrack
        EXTERN img
        EXTERN locCover_MaxX
        EXTERN locCover_MaxY
        EXTERN locCover_X
        EXTERN locCover_Y
        EXTERN nowmusic

// Z:\home\perk11\www\perk11.info\svn\SE\CoverArt\labels.c
//    1 #include "..\include\Lib_Clara.h"
//    2 #include "..\include\dir.h"
//    3 #include "config_data.h"
//    4 #include "structs.h"
//    5 #include "Externals.h"
//    6 

        RSEG DATA_Z:DATA:SORT:NOROOT(2)
//    7 LABEL labels[NUM];
labels:
        DS8 6200

        RSEG CODE:CODE:NOROOT(2)
        CFI Block cfiBlock0 Using cfiCommon0
        CFI NoFunction
        THUMB
??GetLabelSize??rT:
        BX       PC
        Nop      
        CFI EndBlock cfiBlock0
        REQUIRE ??GetLabelSize
//    8 

        RSEG CODE:CODE:NOROOT(2)
        CFI Block cfiBlock1 Using cfiCommon1
        CFI Function ??GetLabelSize
        ARM
//    9 int GetLabelSize(wchar_t *lbl, int FONT)
//   10 {
??GetLabelSize:
        PUSH     {R4,R5,LR}
        CFI ?RET Frame(CFA, -4)
        CFI R5 Frame(CFA, -8)
        CFI R4 Frame(CFA, -12)
        CFI CFA R13+12
        MOV      R4,R0
        MOV      R0,R1
//   11   // Получаем размер надписи функцией тела
//   12   SetFont(FONT);
        SWI      +497
//   13   int str=TextID_Create(lbl,ENC_UCS2,TEXTID_ANY_LEN);
        MOV      R2,#+255
        ORR      R2,R2,#0xFF00
        MOV      R1,#+0
        MOV      R0,R4
        SWI      +349
        MOV      R5,R0
//   14   int res = Disp_GetStrIdWidth(str, wstrlen(lbl));
        MOV      R0,R4
        SWI      +343
        MOV      R1,R0
        MOV      R0,R5
        SWI      +768
        MOV      R4,R0
//   15   TextID_Destroy(str);
        MOV      R0,R5
        SWI      +353
//   16   return res;
        MOV      R0,R4
        POP      {R4,R5,PC}       ;; return
        CFI EndBlock cfiBlock1
//   17 };

        RSEG CODE:CODE:NOROOT(2)
        CFI Block cfiBlock2 Using cfiCommon0
        CFI NoFunction
        THUMB
??caprintf??rT:
        BX       PC
        Nop      
        CFI EndBlock cfiBlock2
        REQUIRE ??caprintf
//   18 

        RSEG CODE:CODE:NOROOT(2)
        CFI Block cfiBlock3 Using cfiCommon1
        CFI Function ??caprintf
        ARM
//   19 void caprintf(wchar_t *prt, wchar_t *where)
//   20 {
??caprintf:
        PUSH     {R4-R10,LR}
        CFI ?RET Frame(CFA, -4)
        CFI R10 Frame(CFA, -8)
        CFI R9 Frame(CFA, -12)
        CFI R8 Frame(CFA, -16)
        CFI R7 Frame(CFA, -20)
        CFI R6 Frame(CFA, -24)
        CFI R5 Frame(CFA, -28)
        CFI R4 Frame(CFA, -32)
        CFI CFA R13+32
        SUB      SP,SP,#+612
        CFI CFA R13+644
        MOV      R4,R0
        MOV      R5,R1
//   21   // Функция записывает в *where переделанную строку prt
//   22   wchar_t returnvalue[256];
//   23   int x;
//   24   int nox=0;
        MOV      R7,#+0
//   25   for (x=0;x<wstrlen(prt);x++)
        MOV      R6,#+0
        B        ??caprintf_1
//   26   {
//   27     if (prt[x]!=L'$')
//   28     {
//   29       returnvalue[nox]=prt[x];
//   30       nox++;
//   31     }
//   32     else
//   33     {
//   34       if (prt[x+1]==L't' || prt[x+1]==L'0')
//   35       {
//   36 	wstrcpy(&returnvalue[nox],nowmusic.meta.Title);
//   37 	nox=nox+wstrlen(nowmusic.meta.Title);
//   38       }
//   39       else if (prt[x+1]==L'a' || prt[x+1]==L'1')
//   40       {
//   41 	wstrcpy(&returnvalue[nox],nowmusic.meta.Album);
//   42 	nox=nox+wstrlen(nowmusic.meta.Album);
//   43       }
//   44       else if (prt[x+1]==L'c' || prt[x+1]==L'2')
//   45       {
//   46 	wstrcpy(&returnvalue[nox],nowmusic.meta.Artist);
//   47 	nox=nox+wstrlen(nowmusic.meta.Artist);
//   48       }
//   49       else if (prt[x+1]==L'g' || prt[x+1]==L'3')
//   50       {
//   51 	wstrcpy(&returnvalue[nox],nowmusic.meta.Genre);
//   52 	nox=nox+wstrlen(nowmusic.meta.Genre);
//   53       }
//   54       else if (prt[x+1]==L'y' || prt[x+1]==L'4')
//   55       {
//   56 	wstrcpy(&returnvalue[nox],nowmusic.meta.Year);
//   57 	nox=nox+wstrlen(nowmusic.meta.Year);
//   58       }
//   59       else if (prt[x+1]==L'b' || prt[x+1]==L'5')
//   60       {
//   61         wchar_t bitrate[50];
//   62         if (nowmusic.hdr.VBR==true && AverageVBR==false)
//   63         {
//   64           wstrcpy(bitrate,L"VBR");
//   65         }
//   66         else
//   67         {
//   68           snwprintf(bitrate,TEXTID_ANY_LEN,L"%d",nowmusic.hdr.bitrate);
//   69         }
//   70 	wstrcpy(&returnvalue[nox],bitrate);
//   71 	nox=nox+wstrlen(bitrate);
//   72       }
//   73       else if (prt[x+1]==L'f' || prt[x+1]==L'6')
//   74       {
//   75         wchar_t frequency[50];
//   76         snwprintf(frequency,TEXTID_ANY_LEN,L"%d",nowmusic.hdr.frequency);
//   77 	wstrcpy(&returnvalue[nox],frequency);
//   78 	nox=nox+wstrlen(frequency);
//   79       }
//   80       else if (prt[x+1]==L'm' || prt[x+1]==L'7')
//   81       {
//   82         wchar_t mode[50];
//   83         if (nowmusic.hdr.mode==0)
//   84         {
//   85           wstrcpy(mode,L"Stereo");
//   86         }
//   87         else if (nowmusic.hdr.mode==1)
//   88         {
//   89           wstrcpy(mode,L"Joint Stereo");
//   90         }
//   91         else if (nowmusic.hdr.mode==2)
//   92         {
//   93           wstrcpy(mode,L"Dual Channel");
//   94         }
//   95          else if (nowmusic.hdr.mode==3)
//   96         {
//   97           wstrcpy(mode,L"Single Channel");
//   98         }
//   99         else
//  100         {
//  101           wstrcpy(mode,L" ");
//  102         }
//  103 	wstrcpy(&returnvalue[nox],mode);
//  104 	nox=nox+wstrlen(mode);
//  105       }
//  106       else if (prt[x+1]==L'l' || prt[x+1]==L'8')
//  107       {
//  108         int MIN=nowmusic.hdr.LengthInSeconds/60;
//  109         int SEC=nowmusic.hdr.LengthInSeconds%60;
//  110         wchar_t length[50];
//  111         snwprintf(length,TEXTID_ANY_LEN,L"%02d:%02d",MIN,SEC);
//  112         wstrcpy(&returnvalue[nox],length);
//  113 	nox=nox+wstrlen(length);
//  114       }
//  115       else if (prt[x+1]==L'n' || prt[x+1]==L'9')
//  116       {
//  117         wchar_t length[50];
//  118         snwprintf(length,TEXTID_ANY_LEN,L"%02d",nowmusic.meta.TrackNum);
//  119         wstrcpy(&returnvalue[nox],length);
//  120 	nox=nox+wstrlen(length);
//  121       }
//  122       else if (prt[x+1]==L's')
//  123       {
//  124         wchar_t length[50];
//  125         int MIN=CurrentTime/60;
//  126         int SEC=CurrentTime%60;
//  127         snwprintf(length,TEXTID_ANY_LEN,L"%02d:%02d",MIN,SEC);
//  128         wstrcpy(&returnvalue[nox],length);
//  129 	nox=nox+wstrlen(length);
//  130       }
//  131       else if (prt[x+1]==L'e')
//  132       {
//  133         wchar_t length[50];
//  134         int TimeLeft = currenttrack->fulltime-CurrentTime;
//  135         int MIN=TimeLeft/60;
//  136         int SEC=TimeLeft%60;
//  137         snwprintf(length,TEXTID_ANY_LEN,L"%02d:%02d",MIN,SEC);
//  138         wstrcpy(&returnvalue[nox],length);
//  139 	nox=nox+wstrlen(length);
//  140       }
//  141       else if (prt[x+1]==L'i')
//  142       {
//  143         wchar_t length[50];
//  144         int pos = currenttrack->pos;
//  145         snwprintf(length,TEXTID_ANY_LEN,L"%d",pos);
//  146         wstrcpy(&returnvalue[nox],length);
//  147 	nox=nox+wstrlen(length);
//  148       }
//  149       else if (prt[x+1]==L'p')
//  150       {
//  151         wchar_t length[50];
//  152         int count= currenttrack->tracks_count;
//  153         snwprintf(length,TEXTID_ANY_LEN,L"%d",count);
//  154         wstrcpy(&returnvalue[nox],length);
//  155 	nox=nox+wstrlen(length);
//  156       }
//  157       else
//  158       {
//  159 	nox+=1;
??caprintf_2:
        MOV      R7,R2
//  160       }
//  161       x++;
??caprintf_3:
        ADD      R6,R6,#+1
??caprintf_4:
        ADD      R6,R6,#+1
??caprintf_1:
        ADD      R0,SP,#+100
        ADD      R8,R0,R7, LSL #+1
        MOV      R0,R4
        SWI      +343
        CMP      R6,R0
        BGE      ??caprintf_5
        ADD      R3,R4,R6, LSL #+1
        LDRH     R0,[R3, #+0]
        ADD      R2,R7,#+1
        CMP      R0,#+36
        STRHNE   R0,[R8, #+0]
        MOVNE    R7,R2
        BNE      ??caprintf_4
        LDRH     R0,[R3, #+2]
        LDR      R9,??caprintf_6+0x4  ;; nowmusic
        CMP      R0,#+116
        CMPNE    R0,#+48
        BNE      ??caprintf_7
        ADD      R1,R9,#+36
        MOV      R0,R8
        SWI      +338
        ADD      R0,R9,#+36
??caprintf_8:
        SWI      +343
        ADD      R7,R0,R7
        B        ??caprintf_3
??caprintf_7:
        CMP      R0,#+97
        CMPNE    R0,#+49
        BNE      ??caprintf_9
        MOV      R10,#+36
        ORR      R10,R10,#0x800
        ADD      R1,R10,R9
        MOV      R0,R8
        SWI      +338
        ADD      R0,R10,R9
        B        ??caprintf_8
??caprintf_9:
        CMP      R0,#+99
        CMPNE    R0,#+50
        BNE      ??caprintf_10
        MOV      R0,#+36
        ORR      R0,R0,#0x1000
??caprintf_11:
        ADD      R9,R0,R9
        MOV      R1,R9
        MOV      R0,R8
        SWI      +338
        MOV      R0,R9
??caprintf_12:
        B        ??caprintf_8
??caprintf_10:
        CMP      R0,#+103
        CMPNE    R0,#+51
        BNE      ??caprintf_13
        MOV      R0,#+36
        ORR      R0,R0,#0x2000
        ADD      R9,R0,R9
        MOV      R1,R9
        MOV      R0,R8
        SWI      +338
        MOV      R0,R9
        B        ??caprintf_8
??caprintf_13:
        CMP      R0,#+121
        CMPNE    R0,#+52
        MOVEQ    R0,#+36
        ORREQ    R0,R0,#0x1800
        BEQ      ??caprintf_11
        LDRH     R10,[R3, #+2]
        LDR      R0,??caprintf_6+0x8  ;; `?<Constant L"\\x56\\x42\\x52">`
        ADD      R12,R9,#+8
        MOV      R1,#+255
        ORR      R1,R1,#0xFF00
        CMP      R10,#+98
        CMPNE    R10,#+53
        BNE      ??caprintf_14
        LDRB     R2,[R12, #+4]
        CMP      R2,#+0
        BEQ      ??caprintf_15
        LDR      R2,??caprintf_6+0xC  ;; AverageVBR
        LDR      R2,[R2, #+0]
        CMP      R2,#+0
        BNE      ??caprintf_15
        MOV      R1,R0
        MOV      R0,SP
        SWI      +338
        B        ??caprintf_16
??caprintf_15:
        LDR      R3,[R12, #+0]
        ADD      R2,R0,#+8
        MOV      R0,SP
        SWI      +277
??caprintf_16:
        MOV      R1,SP
        MOV      R0,R8
        SWI      +338
        MOV      R0,SP
        B        ??caprintf_8
??caprintf_14:
        CMP      R10,#+102
        CMPNE    R10,#+54
        BNE      ??caprintf_17
        LDR      R3,[R12, #+20]
        ADD      R2,R0,#+8
        MOV      R0,SP
        SWI      +277
        MOV      R1,SP
        MOV      R0,R8
        SWI      +338
        MOV      R0,SP
        SWI      +343
        ADD      R7,R0,R7
        B        ??caprintf_3
??caprintf_17:
        CMP      R10,#+109
        CMPNE    R10,#+55
        BNE      ??caprintf_18
        LDR      R1,[R12, #+24]
        CMP      R1,#+0
        ADDEQ    R1,R0,#+16
        BEQ      ??caprintf_19
        CMP      R1,#+1
        ADDEQ    R1,R0,#+32
        BEQ      ??caprintf_19
        CMP      R1,#+2
        ADDEQ    R1,R0,#+60
        BEQ      ??caprintf_19
        CMP      R1,#+3
        ADDEQ    R1,R0,#+88
        ADRNE    R1,??caprintf_6  ;; 0x20, 0x00, 0x00, 0x00
??caprintf_19:
        MOV      R0,SP
        SWI      +338
        B        ??caprintf_16
??caprintf_18:
        CMP      R10,#+108
        CMPNE    R10,#+56
        BNE      ??caprintf_20
        LDR      R2,[R12, #+8]
        LDR      R3,??caprintf_6+0x10  ;; 0xffffffff88888889
        SMULL    R9,R10,R2,R3
        MOV      R9,#+60
        ADD      R10,R10,R2
        ASR      R10,R10,#+5
        ADD      R10,R10,R2, LSR #+31
        MUL      R10,R9,R10
        SUB      R3,R2,R10
        PUSH     {R3}
        CFI CFA R13+648
        LDR      R3,??caprintf_6+0x10  ;; 0xffffffff88888889
        SMULL    R9,R10,R3,R2
        ADD      R10,R10,R2
        ASR      R10,R10,#+5
        ADD      R3,R10,R2, LSR #+31
??caprintf_21:
        ADD      R2,R0,#+120
        ADD      R0,SP,#+4
        SWI      +277
        ADD      R1,SP,#+4
        MOV      R0,R8
        SWI      +338
        ADD      R0,SP,#+4
        SWI      +343
        ADD      R7,R0,R7
        ADD      SP,SP,#+4
        CFI CFA R13+644
        B        ??caprintf_3
??caprintf_20:
        CMP      R10,#+110
        CMPNE    R10,#+57
        BNE      ??caprintf_22
        MOV      R2,#+36
        ORR      R2,R2,#0x2800
        LDR      R3,[R2, +R9]
        ADD      R2,R0,#+140
        MOV      R0,SP
        SWI      +277
        MOV      R1,SP
        MOV      R0,R8
        SWI      +338
        MOV      R0,SP
        B        ??caprintf_8
??caprintf_22:
        LDR      R9,??caprintf_6+0x14  ;; CurrentTime
        CMP      R10,#+115
        LDR      R9,[R9, #+0]
        BNE      ??caprintf_23
        LDR      R2,??caprintf_6+0x10  ;; 0xffffffff88888889
        SMULL    R3,R10,R9,R2
        MOV      R3,#+60
        ADD      R10,R10,R9
        ASR      R10,R10,#+5
        ADD      R10,R10,R9, LSR #+31
        MUL      R10,R3,R10
        SUB      R2,R9,R10
        PUSH     {R2}
        CFI CFA R13+648
        LDR      R2,??caprintf_6+0x10  ;; 0xffffffff88888889
        SMULL    R3,R10,R2,R9
        ADD      R10,R10,R9
        ASR      R10,R10,#+5
        ADD      R3,R10,R9, LSR #+31
        B        ??caprintf_21
        CFI CFA R13+644
??caprintf_23:
        LDRH     R12,[R3, #+2]
        LDR      R10,??caprintf_6+0x18  ;; currenttrack
        LDR      R10,[R10, #+0]
        CMP      R12,#+101
        BNE      ??caprintf_24
        LDR      R2,[R10, #+8]
        LDR      R3,??caprintf_6+0x10  ;; 0xffffffff88888889
        SUB      R2,R2,R9
        SMULL    R9,R10,R2,R3
        MOV      R9,#+60
        ADD      R10,R10,R2
        ASR      R10,R10,#+5
        ADD      R10,R10,R2, LSR #+31
        MUL      R10,R9,R10
        SUB      R3,R2,R10
        PUSH     {R3}
        CFI CFA R13+648
        LDR      R3,??caprintf_6+0x10  ;; 0xffffffff88888889
        SMULL    R9,R10,R3,R2
        ADD      R10,R10,R2
        ASR      R10,R10,#+5
        ADD      R3,R10,R2, LSR #+31
        B        ??caprintf_21
        CFI CFA R13+644
??caprintf_24:
        CMP      R12,#+105
        BNE      ??caprintf_25
        LDR      R3,[R10, #+12]
        ADD      R2,R0,#+8
        MOV      R0,SP
        SWI      +277
        B        ??caprintf_16
??caprintf_25:
        CMP      R12,#+112
        BNE      ??caprintf_2
        LDR      R3,[R10, #+16]
        ADD      R2,R0,#+8
        MOV      R0,SP
        SWI      +277
        MOV      R1,SP
        MOV      R0,R8
        SWI      +338
        MOV      R0,SP
        B        ??caprintf_8
//  162     }
//  163   }
//  164   returnvalue[nox]='\0';
??caprintf_5:
        MOV      R0,#+0
        STRH     R0,[R8, #+0]
//  165   wstrcpy(where,returnvalue);
        ADD      R1,SP,#+100
        MOV      R0,R5
        SWI      +338
//  166 };
        ADD      SP,SP,#+612
        CFI CFA R13+32
        POP      {R4-R10,PC}      ;; return
        DATA
??caprintf_6:
        DC8      0x20, 0x00, 0x00, 0x00
        DC32     nowmusic
        DC32     `?<Constant L"\\x56\\x42\\x52">`
        DC32     AverageVBR
        DC32     0xffffffff88888889
        DC32     CurrentTime
        DC32     currenttrack
        CFI EndBlock cfiBlock3

        RSEG CODE:CODE:NOROOT(2)
        CFI Block cfiBlock4 Using cfiCommon0
        CFI NoFunction
        THUMB
??optimized_InitLbls??rT:
        BX       PC
        Nop      
        CFI EndBlock cfiBlock4
        REQUIRE ??optimized_InitLbls
//  167 void lbl_okill();
//  168 void lbl_kill();
//  169 void lbl_ofill();
//  170 void lbl_fill();

        RSEG CODE:CODE:NOROOT(2)
        CFI Block cfiBlock5 Using cfiCommon1
        CFI Function ??optimized_InitLbls
        ARM
//  171 void optimized_InitLbls()
//  172 {
??optimized_InitLbls:
        PUSH     {R4-R11,LR}
        CFI ?RET Frame(CFA, -4)
        CFI R11 Frame(CFA, -8)
        CFI R10 Frame(CFA, -12)
        CFI R9 Frame(CFA, -16)
        CFI R8 Frame(CFA, -20)
        CFI R7 Frame(CFA, -24)
        CFI R6 Frame(CFA, -28)
        CFI R5 Frame(CFA, -32)
        CFI R4 Frame(CFA, -36)
        CFI CFA R13+36
//  173   wchar_t lbl[256];
//  174   lbl_okill();
//  175   if (labels[0].ChangeEveryTime)
        LDR      R4,??DataTable19  ;; labels
        SUB      SP,SP,#+512
        CFI CFA R13+548
        ADD      R5,R4,#+540
        BL       ??lbl_okill
        LDRB     R0,[R5, #+78]
        CMP      R0,#+0
        BEQ      ??optimized_InitLbls_1
//  176   {
//  177     char2unicode(lbl,LABEL1_NAME,strlen(LABEL1_NAME));
        LDR      R6,??DataTable12  ;; LABEL1_NAME
        MOV      R0,R6
        SWI      +346
        MOV      R2,R0
        MOV      R1,R6
        MOV      R0,SP
        _BLF     ??char2unicode,??char2unicode??rA
//  178     caprintf(lbl,labels[0].label);
        MOV      R1,R4
        MOV      R0,SP
        BL       ??caprintf
??optimized_InitLbls_1:
        LDRB     R0,[R5, #+698]
        CMP      R0,#+0
        BEQ      ??optimized_InitLbls_2
//  179   }
//  180     if (labels[1].ChangeEveryTime)
//  181   {
//  182     char2unicode(lbl,LABEL2_NAME,strlen(LABEL2_NAME));
        LDR      R6,??DataTable13  ;; LABEL2_NAME
        MOV      R0,R6
        SWI      +346
        MOV      R2,R0
        MOV      R1,R6
        MOV      R0,SP
        _BLF     ??char2unicode,??char2unicode??rA
//  183     caprintf(lbl,labels[1].label);
        ADD      R1,R4,#+620
        MOV      R0,SP
        BL       ??caprintf
??optimized_InitLbls_2:
        LDRB     R0,[R5, #+1318]
        CMP      R0,#+0
        BEQ      ??optimized_InitLbls_3
//  184   }
//  185     if (labels[2].ChangeEveryTime)
//  186   {
//  187     char2unicode(lbl,LABEL3_NAME,strlen(LABEL3_NAME));
        LDR      R6,??DataTable20  ;; LABEL3_NAME
        MOV      R0,R6
        SWI      +346
        MOV      R2,R0
        MOV      R1,R6
        MOV      R0,SP
        _BLF     ??char2unicode,??char2unicode??rA
//  188     caprintf(lbl,labels[2].label);
        MOV      R0,#+216
        ORR      R0,R0,#0x400
        ADD      R1,R0,R4
        MOV      R0,SP
        BL       ??caprintf
??optimized_InitLbls_3:
        LDRB     R0,[R5, #+1938]
        CMP      R0,#+0
        BEQ      ??optimized_InitLbls_4
//  189   }
//  190   
//  191     if (labels[3].ChangeEveryTime)
//  192   {
//  193     char2unicode(lbl,LABEL4_NAME,strlen(LABEL4_NAME));
        LDR      R6,??DataTable21  ;; LABEL4_NAME
        MOV      R0,R6
        SWI      +346
        MOV      R2,R0
        MOV      R1,R6
        MOV      R0,SP
        _BLF     ??char2unicode,??char2unicode??rA
//  194     caprintf(lbl,labels[3].label);
        MOV      R0,#+68
        ORR      R0,R0,#0x700
        ADD      R1,R0,R4
        MOV      R0,SP
        BL       ??caprintf
??optimized_InitLbls_4:
        LDRB     R0,[R5, #+2558]
        CMP      R0,#+0
        BEQ      ??optimized_InitLbls_5
//  195   }
//  196     if (labels[4].ChangeEveryTime)
//  197   {
//  198     char2unicode(lbl,LABEL5_NAME,strlen(LABEL5_NAME));
        LDR      R6,??DataTable22  ;; LABEL5_NAME
        MOV      R0,R6
        SWI      +346
        MOV      R2,R0
        MOV      R1,R6
        MOV      R0,SP
        _BLF     ??char2unicode,??char2unicode??rA
//  199     caprintf(lbl,labels[4].label);
        ADD      R1,R4,#+2480
        MOV      R0,SP
        BL       ??caprintf
??optimized_InitLbls_5:
        LDRB     R0,[R5, #+3178]
        CMP      R0,#+0
        BEQ      ??optimized_InitLbls_6
//  200   }
//  201     if (labels[5].ChangeEveryTime)
//  202   {
//  203     char2unicode(lbl,LABEL6_NAME,strlen(LABEL6_NAME));
        LDR      R6,??DataTable14  ;; LABEL6_NAME
        MOV      R0,R6
        SWI      +346
        MOV      R2,R0
        MOV      R1,R6
        MOV      R0,SP
        _BLF     ??char2unicode,??char2unicode??rA
//  204     caprintf(lbl,labels[5].label);
        MOV      R0,#+28
        ORR      R0,R0,#0xC00
        ADD      R1,R0,R4
        MOV      R0,SP
        BL       ??caprintf
//  205   }
//  206     if (labels[6].ChangeEveryTime)
??optimized_InitLbls_6:
        LDRB     R0,[R5, #+3798]
        MOV      R6,#+136
        ORR      R6,R6,#0xE00
        CMP      R0,#+0
        BEQ      ??optimized_InitLbls_7
//  207   {
//  208     char2unicode(lbl,LABEL7_NAME,strlen(LABEL7_NAME));
        LDR      R7,??DataTable15  ;; LABEL7_NAME
        MOV      R0,R7
        SWI      +346
        MOV      R2,R0
        MOV      R1,R7
        MOV      R0,SP
        _BLF     ??char2unicode,??char2unicode??rA
//  209     caprintf(lbl,labels[6].label);
        ADD      R1,R6,R4
        MOV      R0,SP
        BL       ??caprintf
//  210   }
//  211     if (labels[7].ChangeEveryTime)
??optimized_InitLbls_7:
        MOV      R0,#+16
        ORR      R0,R0,#0x1300
        ADD      R7,R0,R4
        SUB      R0,R0,#+540
        ADD      R8,R0,R4
        LDRB     R0,[R7, #+78]
        CMP      R0,#+0
        BEQ      ??optimized_InitLbls_8
//  212   {
//  213     char2unicode(lbl,LABEL8_NAME,strlen(LABEL8_NAME));
        LDR      R9,??DataTable16  ;; LABEL8_NAME
        MOV      R0,R9
        SWI      +346
        MOV      R2,R0
        MOV      R1,R9
        MOV      R0,SP
        _BLF     ??char2unicode,??char2unicode??rA
//  214     caprintf(lbl,labels[7].label);
        MOV      R1,R8
        MOV      R0,SP
        BL       ??caprintf
//  215   }
//  216     if (labels[8].ChangeEveryTime)
??optimized_InitLbls_8:
        MOV      R0,#+96
        ORR      R0,R0,#0x1300
        ADD      R9,R0,R4
        LDRB     R0,[R7, #+698]
        CMP      R0,#+0
        BEQ      ??optimized_InitLbls_9
//  217   {
//  218     char2unicode(lbl,LABEL9_NAME,strlen(LABEL9_NAME));
        LDR      R10,??DataTable17  ;; LABEL9_NAME
        MOV      R0,R10
        SWI      +346
        MOV      R2,R0
        MOV      R1,R10
        MOV      R0,SP
        _BLF     ??char2unicode,??char2unicode??rA
//  219     caprintf(lbl,labels[8].label);
        MOV      R1,R9
        MOV      R0,SP
        BL       ??caprintf
//  220   }
//  221   if (labels[9].ChangeEveryTime)
??optimized_InitLbls_9:
        MOV      R0,#+204
        ORR      R0,R0,#0x1500
        ADD      R10,R0,R4
        LDRB     R0,[R7, #+1318]
        CMP      R0,#+0
        BEQ      ??optimized_InitLbls_10
//  222   {
//  223     char2unicode(lbl,LABEL10_NAME,strlen(LABEL10_NAME));
        LDR      R11,??DataTable18  ;; LABEL10_NAME
        MOV      R0,R11
        SWI      +346
        MOV      R2,R0
        MOV      R1,R11
        MOV      R0,SP
        _BLF     ??char2unicode,??char2unicode??rA
//  224     caprintf(lbl,labels[9].label);
        MOV      R1,R10
        MOV      R0,SP
        BL       ??caprintf
//  225   }
//  226   if (ScrollingMode)
??optimized_InitLbls_10:
        LDR      R0,??DataTable23  ;; ScrollingMode
        LDR      R0,[R0, #+0]
        CMP      R0,#+0
        BEQ      ??optimized_InitLbls_11
//  227   {
//  228     labels[0].scr.SCROLL_FLEN=GetLabelSize(labels[0].label,labels[0].Font);
        LDR      R1,[R5, #+0]
        MOV      R0,R4
        BL       ??GetLabelSize
//  229     labels[1].scr.SCROLL_FLEN=GetLabelSize(labels[1].label,labels[1].Font);
        LDR      R1,[R5, #+620]
        STR      R0,[R5, #+44]
        ADD      R0,R4,#+620
        BL       ??GetLabelSize
//  230     labels[2].scr.SCROLL_FLEN=GetLabelSize(labels[2].label,labels[2].Font);
        LDR      R1,[R5, #+1240]
        STR      R0,[R5, #+664]
        SUB      R0,R6,#+2480
        ADD      R0,R0,R4
        BL       ??GetLabelSize
//  231     labels[3].scr.SCROLL_FLEN=GetLabelSize(labels[3].label,labels[3].Font);
        LDR      R1,[R5, #+1860]
        STR      R0,[R5, #+1284]
        MOV      R0,R6, LSR #+1
        ADD      R0,R0,R4
        BL       ??GetLabelSize
//  232     labels[4].scr.SCROLL_FLEN=GetLabelSize(labels[4].label,labels[4].Font);
        LDR      R1,[R5, #+2480]
        STR      R0,[R5, #+1904]
        ADD      R0,R4,#+2480
        BL       ??GetLabelSize
//  233     labels[5].scr.SCROLL_FLEN=GetLabelSize(labels[5].label,labels[5].Font);
        LDR      R1,[R5, #+3100]
        STR      R0,[R5, #+2524]
        SUB      R0,R6,#+620
        ADD      R0,R0,R4
        BL       ??GetLabelSize
//  234     labels[6].scr.SCROLL_FLEN=GetLabelSize(labels[6].label,labels[6].Font);
        LDR      R1,[R5, #+3720]
        STR      R0,[R5, #+3144]
        ADD      R0,R6,R4
        BL       ??GetLabelSize
//  235     labels[7].scr.SCROLL_FLEN=GetLabelSize(labels[7].label,labels[7].Font);
        LDR      R1,[R7, #+0]
        STR      R0,[R5, #+3764]
        MOV      R0,R8
        BL       ??GetLabelSize
//  236     labels[8].scr.SCROLL_FLEN=GetLabelSize(labels[8].label,labels[8].Font);
        LDR      R1,[R7, #+620]
        STR      R0,[R7, #+44]
        MOV      R0,R9
        BL       ??GetLabelSize
//  237     labels[9].scr.SCROLL_FLEN=GetLabelSize(labels[9].label,labels[9].Font);
        LDR      R1,[R7, #+1240]
        STR      R0,[R7, #+664]
        MOV      R0,R10
        BL       ??GetLabelSize
        STR      R0,[R7, #+1284]
//  238   }
//  239   lbl_ofill();
??optimized_InitLbls_11:
        BL       ??lbl_ofill
//  240 };
        ADD      SP,SP,#+512
        CFI CFA R13+36
        POP      {R4-R11,PC}      ;; return
        CFI EndBlock cfiBlock5

        RSEG CODE:CODE:NOROOT(2)
        CFI Block cfiBlock6 Using cfiCommon0
        CFI NoFunction
        THUMB
??InitLbls??rT:
        BX       PC
        Nop      
        CFI EndBlock cfiBlock6
        REQUIRE ??InitLbls
//  241 

        RSEG CODE:CODE:NOROOT(2)
        CFI Block cfiBlock7 Using cfiCommon1
        CFI Function ??InitLbls
        ARM
//  242 void InitLbls()
//  243 {
??InitLbls:
        PUSH     {R4-R11,LR}
        CFI ?RET Frame(CFA, -4)
        CFI R11 Frame(CFA, -8)
        CFI R10 Frame(CFA, -12)
        CFI R9 Frame(CFA, -16)
        CFI R8 Frame(CFA, -20)
        CFI R7 Frame(CFA, -24)
        CFI R6 Frame(CFA, -28)
        CFI R5 Frame(CFA, -32)
        CFI R4 Frame(CFA, -36)
        CFI CFA R13+36
//  244   lbl_kill();
//  245   wchar_t lbl[256];
//  246   char2unicode(lbl,LABEL1_NAME,strlen(LABEL1_NAME));
        LDR      R4,??DataTable12  ;; LABEL1_NAME
//  247   caprintf(lbl,labels[0].label);
//  248   
//  249   char2unicode(lbl,LABEL2_NAME,strlen(LABEL2_NAME));
        LDR      R5,??DataTable13  ;; LABEL2_NAME
//  250   caprintf(lbl,labels[1].label);
//  251   
//  252   char2unicode(lbl,LABEL3_NAME,strlen(LABEL3_NAME));
//  253   caprintf(lbl,labels[2].label);
//  254   
//  255   char2unicode(lbl,LABEL4_NAME,strlen(LABEL4_NAME));
//  256   caprintf(lbl,labels[3].label);
//  257   
//  258   char2unicode(lbl,LABEL5_NAME,strlen(LABEL5_NAME));
//  259   caprintf(lbl,labels[4].label);
//  260   
//  261   char2unicode(lbl,LABEL6_NAME,strlen(LABEL6_NAME));
        LDR      R6,??DataTable14  ;; LABEL6_NAME
//  262   caprintf(lbl,labels[5].label);
//  263                       
//  264   char2unicode(lbl,LABEL7_NAME,strlen(LABEL7_NAME));
        LDR      R7,??DataTable15  ;; LABEL7_NAME
//  265   caprintf(lbl,labels[6].label);
//  266   
//  267   char2unicode(lbl,LABEL8_NAME,strlen(LABEL8_NAME));
        LDR      R8,??DataTable16  ;; LABEL8_NAME
//  268   caprintf(lbl,labels[7].label);
//  269   
//  270   char2unicode(lbl,LABEL9_NAME,strlen(LABEL9_NAME));
        LDR      R9,??DataTable17  ;; LABEL9_NAME
//  271   caprintf(lbl,labels[8].label);
//  272   
//  273   char2unicode(lbl,LABEL10_NAME,strlen(LABEL10_NAME));
        LDR      R10,??DataTable18  ;; LABEL10_NAME
        SUB      SP,SP,#+512
        CFI CFA R13+548
        BL       ??lbl_kill
        MOV      R0,R4
        SWI      +346
        MOV      R1,R4
        LDR      R4,??DataTable19  ;; labels
        MOV      R2,R0
        MOV      R0,SP
        _BLF     ??char2unicode,??char2unicode??rA
        MOV      R1,R4
        MOV      R0,SP
        BL       ??caprintf
        MOV      R0,R5
        SWI      +346
        MOV      R1,R5
        LDR      R5,??DataTable20  ;; LABEL3_NAME
        MOV      R2,R0
        MOV      R0,SP
        _BLF     ??char2unicode,??char2unicode??rA
        ADD      R1,R4,#+620
        MOV      R0,SP
        BL       ??caprintf
        MOV      R0,R5
        SWI      +346
        MOV      R1,R5
        LDR      R5,??DataTable21  ;; LABEL4_NAME
        MOV      R2,R0
        MOV      R0,SP
        _BLF     ??char2unicode,??char2unicode??rA
        MOV      R0,#+216
        ORR      R0,R0,#0x400
        ADD      R1,R0,R4
        MOV      R0,SP
        BL       ??caprintf
        MOV      R0,R5
        SWI      +346
        MOV      R1,R5
        LDR      R5,??DataTable22  ;; LABEL5_NAME
        MOV      R2,R0
        MOV      R0,SP
        _BLF     ??char2unicode,??char2unicode??rA
        MOV      R0,#+68
        ORR      R0,R0,#0x700
        ADD      R1,R0,R4
        MOV      R0,SP
        BL       ??caprintf
        MOV      R0,R5
        SWI      +346
        MOV      R2,R0
        MOV      R1,R5
        MOV      R0,SP
        _BLF     ??char2unicode,??char2unicode??rA
        MOV      R5,#+2480
        ADD      R1,R5,R4
        MOV      R0,SP
        BL       ??caprintf
        MOV      R0,R6
        SWI      +346
        MOV      R2,R0
        MOV      R1,R6
        MOV      R0,SP
        _BLF     ??char2unicode,??char2unicode??rA
        ADD      R6,R5,#+620
        ADD      R1,R6,R4
        MOV      R0,SP
        BL       ??caprintf
        MOV      R0,R7
        SWI      +346
        MOV      R2,R0
        MOV      R1,R7
        MOV      R0,SP
        _BLF     ??char2unicode,??char2unicode??rA
        ADD      R7,R6,#+620
        ADD      R1,R7,R4
        MOV      R0,SP
        BL       ??caprintf
        MOV      R0,R8
        SWI      +346
        MOV      R2,R0
        MOV      R1,R8
        MOV      R0,SP
        _BLF     ??char2unicode,??char2unicode??rA
        ADD      R0,R7,#+620
        ADD      R8,R0,R4
        MOV      R1,R8
        MOV      R0,SP
        BL       ??caprintf
        MOV      R0,R9
        SWI      +346
        MOV      R2,R0
        MOV      R1,R9
        MOV      R0,SP
        _BLF     ??char2unicode,??char2unicode??rA
        ADD      R0,R5,#+2480
        ADD      R9,R0,R4
        MOV      R1,R9
        MOV      R0,SP
        BL       ??caprintf
        MOV      R0,R10
        SWI      +346
        MOV      R2,R0
        MOV      R1,R10
        MOV      R0,SP
        _BLF     ??char2unicode,??char2unicode??rA
//  274   caprintf(lbl,labels[9].label);
        ADD      R0,R6,#+2480
        ADD      R10,R0,R4
        MOV      R1,R10
        MOV      R0,SP
        BL       ??caprintf
//  275   
//  276   if (ScrollingMode)
        LDR      R0,??DataTable23  ;; ScrollingMode
        LDR      R0,[R0, #+0]
        CMP      R0,#+0
        BEQ      ??InitLbls_1
//  277   {
//  278     labels[0].scr.SCROLL_FLEN=GetLabelSize(labels[0].label,labels[0].Font);
        ADD      R11,R4,#+540
        LDR      R1,[R11, #+0]
        MOV      R0,R4
        BL       ??GetLabelSize
//  279     labels[1].scr.SCROLL_FLEN=GetLabelSize(labels[1].label,labels[1].Font);
        LDR      R1,[R11, #+620]
        STR      R0,[R11, #+44]
        ADD      R0,R4,#+620
        BL       ??GetLabelSize
//  280     labels[2].scr.SCROLL_FLEN=GetLabelSize(labels[2].label,labels[2].Font);
        LDR      R1,[R11, #+1240]
        STR      R0,[R11, #+664]
        MOV      R0,R5, LSR #+1
        ADD      R0,R0,R4
        BL       ??GetLabelSize
//  281     labels[3].scr.SCROLL_FLEN=GetLabelSize(labels[3].label,labels[3].Font);
        LDR      R1,[R11, #+1860]
        STR      R0,[R11, #+1284]
        SUB      R0,R5,#+620
        ADD      R0,R0,R4
        BL       ??GetLabelSize
//  282     labels[4].scr.SCROLL_FLEN=GetLabelSize(labels[4].label,labels[4].Font);
        LDR      R1,[R11, #+2480]
        STR      R0,[R11, #+1904]
        ADD      R0,R5,R4
        BL       ??GetLabelSize
//  283     labels[5].scr.SCROLL_FLEN=GetLabelSize(labels[5].label,labels[5].Font);
        LDR      R1,[R11, #+3100]
        STR      R0,[R11, #+2524]
        ADD      R0,R6,R4
        BL       ??GetLabelSize
//  284     labels[6].scr.SCROLL_FLEN=GetLabelSize(labels[6].label,labels[6].Font);
        LDR      R1,[R11, #+3720]
        STR      R0,[R11, #+3144]
        ADD      R0,R7,R4
        BL       ??GetLabelSize
        STR      R0,[R11, #+3764]
//  285     labels[7].scr.SCROLL_FLEN=GetLabelSize(labels[7].label,labels[7].Font);
        ADD      R0,R5,#+2400
        ADD      R4,R0,R4
        LDR      R1,[R4, #+0]
        MOV      R0,R8
        BL       ??GetLabelSize
//  286     labels[8].scr.SCROLL_FLEN=GetLabelSize(labels[8].label,labels[8].Font);
        LDR      R1,[R4, #+620]
        STR      R0,[R4, #+44]
        MOV      R0,R9
        BL       ??GetLabelSize
//  287     labels[9].scr.SCROLL_FLEN=GetLabelSize(labels[9].label,labels[9].Font);
        LDR      R1,[R4, #+1240]
        STR      R0,[R4, #+664]
        MOV      R0,R10
        BL       ??GetLabelSize
        STR      R0,[R4, #+1284]
//  288   }
//  289   lbl_fill();
??InitLbls_1:
        BL       ??lbl_fill
//  290 };
        ADD      SP,SP,#+512
        CFI CFA R13+36
        POP      {R4-R11,PC}      ;; return
        CFI EndBlock cfiBlock7

        RSEG CODE:CODE:NOROOT(2)
        DATA
??DataTable12:
        DC32     LABEL1_NAME

        RSEG CODE:CODE:NOROOT(2)
        DATA
??DataTable13:
        DC32     LABEL2_NAME

        RSEG CODE:CODE:NOROOT(2)
        DATA
??DataTable14:
        DC32     LABEL6_NAME

        RSEG CODE:CODE:NOROOT(2)
        DATA
??DataTable15:
        DC32     LABEL7_NAME

        RSEG CODE:CODE:NOROOT(2)
        DATA
??DataTable16:
        DC32     LABEL8_NAME

        RSEG CODE:CODE:NOROOT(2)
        DATA
??DataTable17:
        DC32     LABEL9_NAME

        RSEG CODE:CODE:NOROOT(2)
        DATA
??DataTable18:
        DC32     LABEL10_NAME

        RSEG CODE:CODE:NOROOT(2)
        DATA
??DataTable19:
        DC32     labels

        RSEG CODE:CODE:NOROOT(2)
        DATA
??DataTable20:
        DC32     LABEL3_NAME

        RSEG CODE:CODE:NOROOT(2)
        DATA
??DataTable21:
        DC32     LABEL4_NAME

        RSEG CODE:CODE:NOROOT(2)
        DATA
??DataTable22:
        DC32     LABEL5_NAME

        RSEG CODE:CODE:NOROOT(2)
        DATA
??DataTable23:
        DC32     ScrollingMode

        RSEG CODE:CODE:NOROOT(2)
        CFI Block cfiBlock8 Using cfiCommon0
        CFI NoFunction
        THUMB
??Font_GetHeight??rT:
        BX       PC
        Nop      
        CFI EndBlock cfiBlock8
        REQUIRE ??Font_GetHeight
//  291 

        RSEG CODE:CODE:NOROOT(2)
        CFI Block cfiBlock9 Using cfiCommon1
        CFI Function ??Font_GetHeight
        ARM
//  292 int Font_GetHeight(int FONT)
//  293 {
??Font_GetHeight:
        PUSH     {LR}
        CFI ?RET Frame(CFA, -4)
        CFI CFA R13+4
//  294   SetFont(FONT);
        SWI      +497
//  295   return GetImageHeight(' ');
        MOV      R0,#+32
        SWI      +660
        POP      {PC}             ;; return
        CFI EndBlock cfiBlock9
//  296 };

        RSEG CODE:CODE:NOROOT(2)
        CFI Block cfiBlock10 Using cfiCommon0
        CFI NoFunction
        THUMB
??CustomLbls??rT:
        BX       PC
        Nop      
        CFI EndBlock cfiBlock10
        REQUIRE ??CustomLbls
//  297 

        RSEG CODE:CODE:NOROOT(2)
        CFI Block cfiBlock11 Using cfiCommon1
        CFI Function ??CustomLbls
        ARM
//  298 void CustomLbls()
//  299 {
??CustomLbls:
        PUSH     {R4-R7,LR}
        CFI ?RET Frame(CFA, -4)
        CFI R7 Frame(CFA, -8)
        CFI R6 Frame(CFA, -12)
        CFI R5 Frame(CFA, -16)
        CFI R4 Frame(CFA, -20)
        CFI CFA R13+20
//  300   memset(labels,0,sizeof(LABEL)*NUM);
        LDR      R4,??CustomLbls_1  ;; labels
        MOV      R2,#+56
        ORR      R2,R2,#0x1800
        MOV      R1,#+0
        MOV      R0,R4
        SWI      +274
//  301   // Записываем всякую инфу в структуры надписей из бкфг.
//  302   img.x=CustomRC.x1;
        LDR      R0,??CustomLbls_1+0x4  ;; CustomRC
        LDRH     R1,[R0, #+0]
        LDRH     R3,[R0, #+4]
//  303   img.y=CustomRC.y1;
//  304   img.mx=CustomRC.x2-CustomRC.x1;
        LDRH     R5,[R0, #+2]
//  305   img.my=CustomRC.y2-CustomRC.y1;
        LDRH     R0,[R0, #+6]
        LDR      R2,??CustomLbls_1+0x8  ;; img
//  306     
//  307   locCover_X=CoverRC.x1;
//  308   locCover_Y=CoverRC.y1;
//  309   locCover_MaxX=CoverRC.x2-CoverRC.x1;
//  310   locCover_MaxY=CoverRC.y2-CoverRC.y1;
//  311   
//  312   //Label1
//  313   labels[0].SHOW=LABEL1_SHOW;
        ADD      R7,R4,#+516
        SUB      R0,R0,R3
        STR      R0,[R2, #+16]
        LDR      R0,??CustomLbls_1+0xC  ;; CoverRC
        STR      R1,[R2, #+4]
        SUB      R1,R5,R1
        LDRH     R5,[R0, #+2]
        STR      R1,[R2, #+12]
        LDRH     R1,[R0, #+0]
        STR      R3,[R2, #+8]
        LDR      R2,??CustomLbls_1+0x10  ;; locCover_X
        LDR      R3,??CustomLbls_1+0x14  ;; locCover_Y
        STR      R1,[R2, #+0]
        LDRH     R2,[R0, #+4]
        LDRH     R0,[R0, #+6]
        SUB      R1,R5,R1
        STR      R2,[R3, #+0]
        LDR      R3,??CustomLbls_1+0x18  ;; locCover_MaxX
        SUB      R0,R0,R2
//  314   
//  315   labels[0].X=LABEL1_X_POS;
//  316   labels[0].Y=LABEL1_Y_POS;
//  317 
//  318   labels[0].Color=LABEL1_COLOR1;
//  319   labels[0].borderColor=LABEL1_COLOR2;
//  320   labels[0].Font=LABEL1_FONT;
//  321   labels[0].CT=LABEL1_CT;
        LDR      R2,??CustomLbls_1+0x1C  ;; LABEL1_CT
        STR      R1,[R3, #+0]
        LDR      R1,??CustomLbls_1+0x20  ;; locCover_MaxY
        LDR      R2,[R2, #+0]
        STR      R0,[R1, #+0]
        LDR      R0,??CustomLbls_1+0x24  ;; LABEL1_SHOW
        STR      R2,[R7, #+20]
        LDR      R0,[R0, #+0]
//  322   labels[0].scr.SCROLL_USE=LABEL1_SCROLL_YES;
        LDR      R2,??CustomLbls_1+0x28  ;; LABEL1_SCROLL_YES
        CMP      R0,#+0
        LDR      R2,[R2, #+0]
        MOVNE    R0,#+1
        STRB     R0,[R7, #+0]
        LDR      R0,??CustomLbls_1+0x2C  ;; LABEL1_X_POS
        CMP      R2,#+0
        LDR      R1,[R0, #+0]
        STR      R1,[R7, #+4]
        LDR      R0,??CustomLbls_1+0x30  ;; LABEL1_Y_POS
//  323   labels[0].scr.SCROLL_DEF_X=LABEL1_X_POS;
        STR      R1,[R7, #+40]
//  324   labels[0].scr.SCROLL_WHERETO=LABEL1_SCROLL_LR;
        LDR      R1,??CustomLbls_1+0x34  ;; LABEL1_SCROLL_LR
        LDR      R0,[R0, #+0]
        LDR      R1,[R1, #+0]
        STR      R0,[R7, #+8]
        LDR      R0,??CustomLbls_1+0x38  ;; LABEL1_COLOR1
        STR      R1,[R7, #+44]
//  325   labels[0].scr.SCROLL_LEFT=LABEL1_SCROLL_LEFT;
        LDR      R1,??CustomLbls_1+0x3C  ;; LABEL1_SCROLL_LEFT
        LDR      R0,[R0, #+0]
        LDR      R1,[R1, #+0]
        MOVNE    R2,#+1
        STR      R1,[R7, #+48]
//  326   labels[0].scr.SCROLL_RIGHT=LABEL1_SCROLL_RIGHT;
        LDR      R1,??CustomLbls_1+0x40  ;; LABEL1_SCROLL_RIGHT
        STR      R0,[R7, #+28]
        LDR      R1,[R1, #+0]
        LDR      R0,??CustomLbls_1+0x44  ;; LABEL1_COLOR2
        STR      R1,[R7, #+52]
//  327   labels[0].scr.SCROLL_SPEED=LABEL1_SCROLL_MP;
        LDR      R1,??CustomLbls_1+0x48  ;; LABEL1_SCROLL_MP
        LDR      R0,[R0, #+0]
        LDR      R1,[R1, #+0]
        STR      R0,[R7, #+32]
        LDR      R0,??CustomLbls_1+0x4C  ;; LABEL1_FONT
        STR      R1,[R7, #+56]
//  328   labels[0].scr.SCROLL_STRLEN=LABEL1_SCROLL_STRLEN;
        LDR      R1,??CustomLbls_1+0x50  ;; LABEL1_SCROLL_STRLEN
        LDR      R0,[R0, #+0]
        LDR      R1,[R1, #+0]
        STR      R0,[R7, #+24]
        STR      R1,[R7, #+64]
//  329   labels[0].ChangeEveryTime=LABEL1_NEED_REDRAW;
        LDR      R1,??CustomLbls_1+0x54  ;; LABEL1_NEED_REDRAW
        STRB     R2,[R7, #+36]
        LDR      R1,[R1, #+0]
        MOV      R5,#+1
        CMP      R1,#+0
        MOVNE    R1,#+1
        STRB     R1,[R7, #+102]
//  330   labels[0].LINE_ON=LABEL1_LINE_ON;
        LDR      R1,??CustomLbls_1+0x58  ;; LABEL1_LINE_ON
        MOV      R6,#+0
        LDR      R1,[R1, #+0]
        STR      R1,[R7, #+80]
//  331   labels[0].LINE_DIST=LABEL1_LINE_DIST;
        LDR      R1,??CustomLbls_1+0x5C  ;; LABEL1_LINE_DIST
        LDR      R1,[R1, #+0]
        STR      R1,[R7, #+84]
//  332   labels[0].LINE_SIZE=LABEL1_LINE_SIZE;
        LDR      R1,??CustomLbls_1+0x60  ;; LABEL1_LINE_SIZE
        LDR      R1,[R1, #+0]
        STR      R1,[R7, #+88]
//  333   labels[0].FONT_SIZE=Font_GetHeight(labels[0].Font);
        SWI      +497
        MOV      R0,#+32
        SWI      +660
//  334   labels[0].LINE_MINUS=LABEL1_LINE_MINUS;
//  335   
//  336   //Label2
//  337   labels[1].SHOW=LABEL2_SHOW;
//  338   labels[1].X=LABEL2_X_POS;
//  339   labels[1].Y=LABEL2_Y_POS;
//  340   
//  341   labels[1].Color=LABEL2_COLOR1;
//  342   labels[1].borderColor=LABEL2_COLOR2;
//  343   labels[1].Font=LABEL2_FONT;
//  344   labels[1].CT=LABEL2_CT;
        LDR      R2,??CustomLbls_1+0x64  ;; LABEL2_CT
        STR      R0,[R7, #+96]
        LDR      R0,??CustomLbls_1+0x68  ;; LABEL1_LINE_MINUS
        LDR      R2,[R2, #+0]
        LDR      R0,[R0, #+0]
        STR      R2,[R7, #+640]
//  345   
//  346   labels[1].scr.SCROLL_USE=LABEL2_SCROLL_YES;
        LDR      R2,??CustomLbls_1+0x6C  ;; LABEL2_SCROLL_YES
        STR      R0,[R7, #+92]
        LDR      R0,??CustomLbls_1+0x70  ;; LABEL2_SHOW
        LDR      R2,[R2, #+0]
        LDR      R0,[R0, #+0]
        CMP      R0,#+0
        MOVNE    R0,#+1
        STRB     R0,[R7, #+620]
        LDR      R0,??CustomLbls_1+0x74  ;; LABEL2_X_POS
        CMP      R2,#+0
        LDR      R1,[R0, #+0]
        LDR      R0,??CustomLbls_1+0x78  ;; LABEL2_Y_POS
        STR      R1,[R7, #+624]
        LDR      R0,[R0, #+0]
        STR      R0,[R7, #+628]
        LDR      R0,??CustomLbls_1+0x7C  ;; LABEL2_COLOR1
        LDR      R0,[R0, #+0]
        STR      R0,[R7, #+648]
        LDR      R0,??CustomLbls_1+0x80  ;; LABEL2_COLOR2
        LDR      R0,[R0, #+0]
        STR      R0,[R7, #+652]
        LDR      R0,??CustomLbls_1+0x84  ;; LABEL2_FONT
        LDR      R0,[R0, #+0]
        STR      R0,[R7, #+644]
//  347   labels[1].scr.SCROLL_DEF_X=LABEL2_X_POS;
        STR      R1,[R7, #+660]
//  348   labels[1].scr.SCROLL_WHERETO=LABEL2_SCROLL_LR;
        LDR      R1,??CustomLbls_1+0x88  ;; LABEL2_SCROLL_LR
        MOVNE    R2,#+1
        LDR      R1,[R1, #+0]
        STRB     R2,[R7, #+656]
        STR      R1,[R7, #+664]
//  349   labels[1].scr.SCROLL_LEFT=LABEL2_SCROLL_LEFT;
        LDR      R1,??CustomLbls_1+0x8C  ;; LABEL2_SCROLL_LEFT
        LDR      R1,[R1, #+0]
        STR      R1,[R7, #+668]
//  350   labels[1].scr.SCROLL_RIGHT=LABEL2_SCROLL_RIGHT;
        LDR      R1,??CustomLbls_1+0x90  ;; LABEL2_SCROLL_RIGHT
        LDR      R1,[R1, #+0]
        STR      R1,[R7, #+672]
//  351   labels[1].scr.SCROLL_SPEED=LABEL2_SCROLL_MP;
        LDR      R1,??CustomLbls_1+0x94  ;; LABEL2_SCROLL_MP
        LDR      R1,[R1, #+0]
        STR      R1,[R7, #+676]
//  352   labels[1].scr.SCROLL_LENGTH=LABEL2_SCROLL_LENGTH;
        LDR      R1,??CustomLbls_1+0x98  ;; LABEL2_SCROLL_LENGTH
        LDR      R1,[R1, #+0]
        STR      R1,[R7, #+680]
//  353   labels[1].scr.SCROLL_STRLEN=LABEL2_SCROLL_STRLEN;
        LDR      R1,??CustomLbls_1+0x9C  ;; LABEL2_SCROLL_STRLEN
        LDR      R1,[R1, #+0]
        STR      R1,[R7, #+684]
//  354   labels[1].ChangeEveryTime=LABEL2_NEED_REDRAW;
        LDR      R1,??CustomLbls_1+0xA0  ;; LABEL2_NEED_REDRAW
        LDR      R1,[R1, #+0]
        CMP      R1,#+0
        MOVNE    R1,#+1
        STRB     R1,[R7, #+722]
//  355   labels[1].LINE_ON=LABEL2_LINE_ON;
        LDR      R1,??CustomLbls_1+0xA4  ;; LABEL2_LINE_ON
        LDR      R1,[R1, #+0]
        STR      R1,[R7, #+700]
//  356   labels[1].LINE_DIST=LABEL2_LINE_DIST;
        LDR      R1,??CustomLbls_1+0xA8  ;; LABEL2_LINE_DIST
        LDR      R1,[R1, #+0]
        STR      R1,[R7, #+704]
//  357   labels[1].LINE_SIZE=LABEL2_LINE_SIZE;
        LDR      R1,??CustomLbls_1+0xAC  ;; LABEL2_LINE_SIZE
        LDR      R1,[R1, #+0]
        STR      R1,[R7, #+708]
//  358   labels[1].FONT_SIZE=Font_GetHeight(labels[1].Font);
        SWI      +497
        MOV      R0,#+32
        SWI      +660
//  359   labels[1].LINE_MINUS=LABEL2_LINE_MINUS;
//  360   
//  361   //Label3
//  362   labels[2].SHOW=LABEL3_SHOW;
//  363   labels[2].X=LABEL3_X_POS;
//  364   labels[2].Y=LABEL3_Y_POS;
//  365 
//  366   labels[2].Color=LABEL3_COLOR1;
//  367   labels[2].borderColor=LABEL3_COLOR2;
//  368   labels[2].Font=LABEL3_FONT;
//  369   labels[2].CT=LABEL3_CT;
        LDR      R2,??CustomLbls_1+0xB0  ;; LABEL3_CT
        STR      R0,[R7, #+716]
        LDR      R0,??CustomLbls_1+0xB4  ;; LABEL2_LINE_MINUS
        LDR      R2,[R2, #+0]
        LDR      R0,[R0, #+0]
        STR      R2,[R7, #+1260]
//  370   
//  371   labels[2].scr.SCROLL_USE=LABEL3_SCROLL_YES;
        LDR      R2,??CustomLbls_1+0xB8  ;; LABEL3_SCROLL_YES
        STR      R0,[R7, #+712]
        LDR      R0,??CustomLbls_1+0xBC  ;; LABEL3_SHOW
        LDR      R2,[R2, #+0]
        LDR      R0,[R0, #+0]
        CMP      R0,#+0
        MOVNE    R0,#+1
        STRB     R0,[R7, #+1240]
        LDR      R0,??CustomLbls_1+0xC0  ;; LABEL3_X_POS
        CMP      R2,#+0
        LDR      R1,[R0, #+0]
        STR      R1,[R7, #+1244]
        LDR      R0,??CustomLbls_1+0xC4  ;; LABEL3_Y_POS
//  372   labels[2].scr.SCROLL_DEF_X=LABEL3_X_POS;
        STR      R1,[R7, #+1280]
//  373   labels[2].scr.SCROLL_WHERETO=LABEL3_SCROLL_LR;
        LDR      R1,??CustomLbls_1+0xC8  ;; LABEL3_SCROLL_LR
        LDR      R0,[R0, #+0]
        LDR      R1,[R1, #+0]
        STR      R0,[R7, #+1248]
        LDR      R0,??CustomLbls_1+0xCC  ;; LABEL3_COLOR1
        STR      R1,[R7, #+1284]
//  374   labels[2].scr.SCROLL_LEFT=LABEL3_SCROLL_LEFT;
        LDR      R1,??CustomLbls_1+0xD0  ;; LABEL3_SCROLL_LEFT
        LDR      R0,[R0, #+0]
        LDR      R1,[R1, #+0]
        MOVNE    R2,#+1
        STR      R1,[R7, #+1288]
//  375   labels[2].scr.SCROLL_RIGHT=LABEL3_SCROLL_RIGHT;
        LDR      R1,??CustomLbls_1+0xD4  ;; LABEL3_SCROLL_RIGHT
        STR      R0,[R7, #+1268]
        LDR      R1,[R1, #+0]
        LDR      R0,??CustomLbls_1+0xD8  ;; LABEL3_COLOR2
        STR      R1,[R7, #+1292]
//  376   labels[2].scr.SCROLL_SPEED=LABEL3_SCROLL_MP;
        LDR      R1,??CustomLbls_1+0xDC  ;; LABEL3_SCROLL_MP
        LDR      R0,[R0, #+0]
        LDR      R1,[R1, #+0]
        STR      R0,[R7, #+1272]
        LDR      R0,??CustomLbls_1+0xE0  ;; LABEL3_FONT
        STR      R1,[R7, #+1296]
//  377   labels[2].scr.SCROLL_LENGTH=LABEL3_SCROLL_LENGTH;
        LDR      R1,??CustomLbls_1+0xE4  ;; LABEL3_SCROLL_LENGTH
        LDR      R0,[R0, #+0]
        LDR      R1,[R1, #+0]
        STR      R0,[R7, #+1264]
        STR      R1,[R7, #+1300]
//  378   labels[2].scr.SCROLL_STRLEN=LABEL3_SCROLL_STRLEN;
        LDR      R1,??CustomLbls_1+0xE8  ;; LABEL3_SCROLL_STRLEN
        STRB     R2,[R7, #+1276]
        LDR      R1,[R1, #+0]
        STR      R1,[R7, #+1304]
//  379   labels[2].ChangeEveryTime=LABEL3_NEED_REDRAW;
        LDR      R1,??CustomLbls_1+0xEC  ;; LABEL3_NEED_REDRAW
        LDR      R1,[R1, #+0]
        CMP      R1,#+0
        MOVNE    R1,#+1
        STRB     R1,[R7, #+1342]
//  380   labels[2].LINE_ON=LABEL3_LINE_ON;
        LDR      R1,??CustomLbls_1+0xF0  ;; LABEL3_LINE_ON
        LDR      R1,[R1, #+0]
        STR      R1,[R7, #+1320]
//  381   labels[2].LINE_DIST=LABEL3_LINE_DIST;
        LDR      R1,??CustomLbls_1+0xF4  ;; LABEL3_LINE_DIST
        LDR      R1,[R1, #+0]
        STR      R1,[R7, #+1324]
//  382   labels[2].LINE_SIZE=LABEL3_LINE_SIZE;
        LDR      R1,??CustomLbls_1+0xF8  ;; LABEL3_LINE_SIZE
        LDR      R1,[R1, #+0]
        STR      R1,[R7, #+1328]
//  383   labels[2].FONT_SIZE=Font_GetHeight(labels[2].Font);
        SWI      +497
        MOV      R0,#+32
        SWI      +660
        STR      R0,[R7, #+1336]
//  384   labels[2].LINE_MINUS=LABEL3_LINE_MINUS;
        LDR      R0,??CustomLbls_1+0xFC  ;; LABEL3_LINE_MINUS
        LDR      R0,[R0, #+0]
        STR      R0,[R7, #+1332]
//  385   
//  386   //Label4
//  387   labels[3].SHOW=LABEL4_SHOW;
        LDR      R0,??CustomLbls_1+0x100  ;; LABEL4_SHOW
        LDR      R0,[R0, #+0]
        CMP      R0,#+0
        MOVNE    R0,#+1
        STRB     R0,[R7, #+1860]
//  388   labels[3].X=LABEL4_X_POS;
        LDR      R0,??CustomLbls_1+0x104  ;; LABEL4_X_POS
        LDR      R1,[R0, #+0]
//  389   labels[3].Y=LABEL4_Y_POS;
        LDR      R0,??CustomLbls_1+0x108  ;; LABEL4_Y_POS
        STR      R1,[R7, #+1864]
        LDR      R0,[R0, #+0]
        STR      R0,[R7, #+1868]
//  390 
//  391   labels[3].Color=LABEL4_COLOR1;
        LDR      R0,??CustomLbls_1+0x10C  ;; LABEL4_COLOR1
        LDR      R0,[R0, #+0]
        STR      R0,[R7, #+1888]
//  392   labels[3].borderColor=LABEL4_COLOR2;
        LDR      R0,??CustomLbls_1+0x110  ;; LABEL4_COLOR2
        LDR      R0,[R0, #+0]
        STR      R0,[R7, #+1892]
//  393   labels[3].Font=LABEL4_FONT;
        LDR      R0,??CustomLbls_1+0x114  ;; LABEL4_FONT
//  394   labels[3].CT=LABEL4_CT;
        LDR      R2,??CustomLbls_1+0x118  ;; LABEL4_CT
        LDR      R0,[R0, #+0]
        LDR      R2,[R2, #+0]
//  395   
//  396   labels[3].scr.SCROLL_USE=LABEL4_SCROLL_YES;
//  397   labels[3].scr.SCROLL_DEF_X=LABEL4_X_POS;
        STR      R1,[R7, #+1900]
//  398   labels[3].scr.SCROLL_WHERETO=LABEL4_SCROLL_LR;
        LDR      R1,??CustomLbls_1+0x11C  ;; LABEL4_SCROLL_LR
        STR      R2,[R7, #+1880]
        LDR      R1,[R1, #+0]
        LDR      R2,??CustomLbls_1+0x120  ;; LABEL4_SCROLL_YES
        STR      R1,[R7, #+1904]
//  399   labels[3].scr.SCROLL_LEFT=LABEL4_SCROLL_LEFT;
        LDR      R1,??CustomLbls_1+0x124  ;; LABEL4_SCROLL_LEFT
        LDR      R2,[R2, #+0]
        LDR      R1,[R1, #+0]
        CMP      R2,#+0
        STR      R1,[R7, #+1908]
//  400   labels[3].scr.SCROLL_RIGHT=LABEL4_SCROLL_RIGHT;
        LDR      R1,??CustomLbls_1+0x128  ;; LABEL4_SCROLL_RIGHT
        MOVNE    R2,#+1
        LDR      R1,[R1, #+0]
        STR      R0,[R7, #+1884]
        STR      R1,[R7, #+1912]
//  401   labels[3].scr.SCROLL_SPEED=LABEL4_SCROLL_MP;
        LDR      R1,??CustomLbls_1+0x12C  ;; LABEL4_SCROLL_MP
        STRB     R2,[R7, #+1896]
        LDR      R1,[R1, #+0]
        STR      R1,[R7, #+1916]
//  402   labels[3].scr.SCROLL_LENGTH=LABEL4_SCROLL_LENGTH;
        LDR      R1,??CustomLbls_1+0x130  ;; LABEL4_SCROLL_LENGTH
        LDR      R1,[R1, #+0]
        STR      R1,[R7, #+1920]
//  403   labels[3].scr.SCROLL_STRLEN=LABEL4_SCROLL_STRLEN;
        LDR      R1,??CustomLbls_1+0x134  ;; LABEL4_SCROLL_STRLEN
        LDR      R1,[R1, #+0]
        STR      R1,[R7, #+1924]
//  404   labels[3].ChangeEveryTime=LABEL4_NEED_REDRAW;
        LDR      R1,??CustomLbls_1+0x138  ;; LABEL4_NEED_REDRAW
        LDR      R1,[R1, #+0]
        CMP      R1,#+0
        MOVNE    R1,#+1
        STRB     R1,[R7, #+1962]
//  405   labels[3].LINE_ON=LABEL4_LINE_ON;
        LDR      R1,??CustomLbls_1+0x13C  ;; LABEL4_LINE_ON
        LDR      R1,[R1, #+0]
        STR      R1,[R7, #+1940]
//  406   labels[3].LINE_DIST=LABEL4_LINE_DIST;
        LDR      R1,??CustomLbls_1+0x140  ;; LABEL4_LINE_DIST
        LDR      R1,[R1, #+0]
        STR      R1,[R7, #+1944]
//  407   labels[3].LINE_SIZE=LABEL4_LINE_SIZE;
        LDR      R1,??CustomLbls_1+0x144  ;; LABEL4_LINE_SIZE
        LDR      R1,[R1, #+0]
        STR      R1,[R7, #+1948]
//  408   labels[3].FONT_SIZE=Font_GetHeight(labels[3].Font);
        SWI      +497
        MOV      R0,#+32
        SWI      +660
//  409   labels[3].LINE_MINUS=LABEL4_LINE_MINUS;
//  410   
//  411   //Label5
//  412   labels[4].SHOW=LABEL5_SHOW;
//  413   labels[4].X=LABEL5_X_POS;
//  414   labels[4].Y=LABEL5_Y_POS;
//  415 
//  416   labels[4].Color=LABEL5_COLOR1;
//  417   labels[4].borderColor=LABEL5_COLOR2;
//  418   labels[4].Font=LABEL5_FONT;
//  419   labels[4].CT=LABEL5_CT;
        LDR      R2,??CustomLbls_1+0x148  ;; LABEL5_CT
        STR      R0,[R7, #+1956]
        LDR      R0,??CustomLbls_1+0x14C  ;; LABEL4_LINE_MINUS
        LDR      R2,[R2, #+0]
        LDR      R0,[R0, #+0]
        STR      R2,[R7, #+2500]
//  420   
//  421   labels[4].scr.SCROLL_USE=LABEL5_SCROLL_YES;
        LDR      R2,??CustomLbls_1+0x150  ;; LABEL5_SCROLL_YES
        STR      R0,[R7, #+1952]
        LDR      R0,??CustomLbls_1+0x154  ;; LABEL5_SHOW
        LDR      R2,[R2, #+0]
        LDR      R0,[R0, #+0]
        CMP      R0,#+0
        MOVNE    R0,#+1
        STRB     R0,[R7, #+2480]
        LDR      R0,??CustomLbls_1+0x158  ;; LABEL5_X_POS
        CMP      R2,#+0
        LDR      R1,[R0, #+0]
        STR      R1,[R7, #+2484]
        LDR      R0,??CustomLbls_1+0x15C  ;; LABEL5_Y_POS
//  422   labels[4].scr.SCROLL_DEF_X=LABEL5_X_POS;
        STR      R1,[R7, #+2520]
//  423   labels[4].scr.SCROLL_WHERETO=LABEL5_SCROLL_LR;
        LDR      R1,??CustomLbls_1+0x160  ;; LABEL5_SCROLL_LR
        LDR      R0,[R0, #+0]
        LDR      R1,[R1, #+0]
        STR      R0,[R7, #+2488]
        LDR      R0,??CustomLbls_1+0x164  ;; LABEL5_COLOR1
        STR      R1,[R7, #+2524]
//  424   labels[4].scr.SCROLL_LEFT=LABEL5_SCROLL_LEFT;
        LDR      R1,??CustomLbls_1+0x168  ;; LABEL5_SCROLL_LEFT
        LDR      R0,[R0, #+0]
        LDR      R1,[R1, #+0]
        MOVNE    R2,#+1
        STR      R1,[R7, #+2528]
//  425   labels[4].scr.SCROLL_RIGHT=LABEL5_SCROLL_RIGHT;
        LDR      R1,??CustomLbls_1+0x16C  ;; LABEL5_SCROLL_RIGHT
        STR      R0,[R7, #+2508]
        LDR      R1,[R1, #+0]
        LDR      R0,??CustomLbls_1+0x170  ;; LABEL5_COLOR2
        STR      R1,[R7, #+2532]
//  426   labels[4].scr.SCROLL_SPEED=LABEL5_SCROLL_MP;
        LDR      R1,??CustomLbls_1+0x174  ;; LABEL5_SCROLL_MP
        LDR      R0,[R0, #+0]
        LDR      R1,[R1, #+0]
        STR      R0,[R7, #+2512]
        LDR      R0,??CustomLbls_1+0x178  ;; LABEL5_FONT
        STR      R1,[R7, #+2536]
//  427   labels[4].scr.SCROLL_LENGTH=LABEL5_SCROLL_LENGTH;
        LDR      R1,??CustomLbls_1+0x17C  ;; LABEL5_SCROLL_LENGTH
        LDR      R0,[R0, #+0]
        LDR      R1,[R1, #+0]
        STR      R0,[R7, #+2504]
        STR      R1,[R7, #+2540]
//  428   labels[4].scr.SCROLL_STRLEN=LABEL5_SCROLL_STRLEN;
        LDR      R1,??CustomLbls_1+0x180  ;; LABEL5_SCROLL_STRLEN
        STRB     R2,[R7, #+2516]
        LDR      R1,[R1, #+0]
        STR      R1,[R7, #+2544]
//  429   labels[4].ChangeEveryTime=LABEL5_NEED_REDRAW;
        LDR      R1,??CustomLbls_1+0x184  ;; LABEL5_NEED_REDRAW
        LDR      R1,[R1, #+0]
        CMP      R1,#+0
        MOVNE    R1,#+1
        STRB     R1,[R7, #+2582]
//  430   labels[4].LINE_ON=LABEL5_LINE_ON;
        LDR      R1,??CustomLbls_1+0x188  ;; LABEL5_LINE_ON
        LDR      R1,[R1, #+0]
        STR      R1,[R7, #+2560]
//  431   labels[4].LINE_DIST=LABEL5_LINE_DIST;
        LDR      R1,??CustomLbls_1+0x18C  ;; LABEL5_LINE_DIST
        LDR      R1,[R1, #+0]
        STR      R1,[R7, #+2564]
//  432   labels[4].LINE_SIZE=LABEL5_LINE_SIZE;
        LDR      R1,??CustomLbls_1+0x190  ;; LABEL5_LINE_SIZE
        LDR      R1,[R1, #+0]
        STR      R1,[R7, #+2568]
//  433   labels[4].FONT_SIZE=Font_GetHeight(labels[4].Font);
        SWI      +497
        MOV      R0,#+32
        SWI      +660
        STR      R0,[R7, #+2576]
//  434   labels[4].LINE_MINUS=LABEL5_LINE_MINUS;
        LDR      R0,??CustomLbls_1+0x194  ;; LABEL5_LINE_MINUS
        LDR      R0,[R0, #+0]
        STR      R0,[R7, #+2572]
//  435   
//  436   //Label6
//  437   labels[5].SHOW=LABEL6_SHOW;
        LDR      R0,??CustomLbls_1+0x198  ;; LABEL6_SHOW
        LDR      R0,[R0, #+0]
        CMP      R0,#+0
        MOVNE    R0,#+1
        STRB     R0,[R7, #+3100]
//  438   labels[5].X=LABEL6_X_POS;
        LDR      R0,??CustomLbls_1+0x19C  ;; LABEL6_X_POS
        LDR      R1,[R0, #+0]
//  439   labels[5].Y=LABEL6_Y_POS;
        LDR      R0,??CustomLbls_1+0x1A0  ;; LABEL6_Y_POS
        STR      R1,[R7, #+3104]
        LDR      R0,[R0, #+0]
//  440 
//  441   labels[5].Color=LABEL6_COLOR1;
//  442   labels[5].borderColor=LABEL6_COLOR2;
//  443   labels[5].Font=LABEL6_FONT;
//  444   labels[5].CT=LABEL6_CT;
        LDR      R2,??CustomLbls_1+0x1A4  ;; LABEL6_CT
//  445   labels[5].scr.SCROLL_USE=LABEL6_SCROLL_YES;
//  446   labels[5].scr.SCROLL_DEF_X=LABEL6_X_POS;
        STR      R1,[R7, #+3140]
//  447   labels[5].scr.SCROLL_WHERETO=LABEL6_SCROLL_LR;
        LDR      R1,??CustomLbls_1+0x1A8  ;; LABEL6_SCROLL_LR
        LDR      R2,[R2, #+0]
        LDR      R1,[R1, #+0]
        STR      R2,[R7, #+3120]
        LDR      R2,??CustomLbls_1+0x1AC  ;; LABEL6_SCROLL_YES
        STR      R1,[R7, #+3144]
//  448   labels[5].scr.SCROLL_LEFT=LABEL6_SCROLL_LEFT;
        LDR      R1,??CustomLbls_1+0x1B0  ;; LABEL6_SCROLL_LEFT
        LDR      R2,[R2, #+0]
        LDR      R1,[R1, #+0]
        STR      R0,[R7, #+3108]
        LDR      R0,??CustomLbls_1+0x1B4  ;; LABEL6_COLOR1
        STR      R1,[R7, #+3148]
//  449   labels[5].scr.SCROLL_RIGHT=LABEL6_SCROLL_RIGHT;
        LDR      R1,??CustomLbls_1+0x1B8  ;; LABEL6_SCROLL_RIGHT
        LDR      R0,[R0, #+0]
        LDR      R1,[R1, #+0]
        CMP      R2,#+0
        STR      R1,[R7, #+3152]
//  450   labels[5].scr.SCROLL_SPEED=LABEL6_SCROLL_MP;
        LDR      R1,??CustomLbls_1+0x1BC  ;; LABEL6_SCROLL_MP
        MOVNE    R2,#+1
        LDR      R1,[R1, #+0]
        STR      R0,[R7, #+3128]
        LDR      R0,??CustomLbls_1+0x1C0  ;; LABEL6_COLOR2
        STR      R1,[R7, #+3156]
//  451   labels[5].scr.SCROLL_LENGTH=LABEL6_SCROLL_LENGTH;
        LDR      R1,??CustomLbls_1+0x1C4  ;; LABEL6_SCROLL_LENGTH
        LDR      R0,[R0, #+0]
        LDR      R1,[R1, #+0]
        STR      R0,[R7, #+3132]
        LDR      R0,??CustomLbls_1+0x1C8  ;; LABEL6_FONT
        STR      R1,[R7, #+3160]
//  452   labels[5].scr.SCROLL_STRLEN=LABEL6_SCROLL_STRLEN;
        LDR      R1,??CustomLbls_1+0x1CC  ;; LABEL6_SCROLL_STRLEN
        LDR      R0,[R0, #+0]
        LDR      R1,[R1, #+0]
        STR      R0,[R7, #+3124]
        STR      R1,[R7, #+3164]
//  453   labels[5].ChangeEveryTime=LABEL6_NEED_REDRAW;
        LDR      R1,??CustomLbls_1+0x1D0  ;; LABEL6_NEED_REDRAW
        STRB     R2,[R7, #+3136]
        LDR      R1,[R1, #+0]
        CMP      R1,#+0
        MOVNE    R1,#+1
        STRB     R1,[R7, #+3202]
//  454   labels[5].LINE_ON=LABEL6_LINE_ON;
        LDR      R1,??CustomLbls_1+0x1D4  ;; LABEL6_LINE_ON
        LDR      R1,[R1, #+0]
        STR      R1,[R7, #+3180]
//  455   labels[5].LINE_DIST=LABEL6_LINE_DIST;
        LDR      R1,??CustomLbls_1+0x1D8  ;; LABEL6_LINE_DIST
        LDR      R1,[R1, #+0]
        STR      R1,[R7, #+3184]
//  456   labels[5].LINE_SIZE=LABEL6_LINE_SIZE;
        LDR      R1,??CustomLbls_1+0x1DC  ;; LABEL6_LINE_SIZE
        LDR      R1,[R1, #+0]
        STR      R1,[R7, #+3188]
//  457   labels[5].FONT_SIZE=Font_GetHeight(labels[5].Font);
        SWI      +497
        MOV      R0,#+32
        SWI      +660
//  458   labels[5].LINE_MINUS=LABEL6_LINE_MINUS;
//  459   
//  460   //Label7
//  461   labels[6].SHOW=LABEL7_SHOW;
//  462   labels[6].X=LABEL7_X_POS;
//  463   labels[6].Y=LABEL7_Y_POS;
//  464 
//  465   labels[6].Color=LABEL7_COLOR1;
//  466   labels[6].borderColor=LABEL7_COLOR2;
//  467   labels[6].Font=LABEL7_FONT;
//  468   labels[6].CT=LABEL7_CT;
        LDR      R2,??CustomLbls_1+0x1E0  ;; LABEL7_CT
        STR      R0,[R7, #+3196]
        LDR      R0,??CustomLbls_1+0x1E4  ;; LABEL6_LINE_MINUS
        LDR      R2,[R2, #+0]
        LDR      R0,[R0, #+0]
        STR      R2,[R7, #+3740]
//  469   labels[6].scr.SCROLL_USE=LABEL7_SCROLL_YES;
        LDR      R2,??CustomLbls_1+0x1E8  ;; LABEL7_SCROLL_YES
        STR      R0,[R7, #+3192]
        LDR      R0,??CustomLbls_1+0x1EC  ;; LABEL7_SHOW
        LDR      R2,[R2, #+0]
        LDR      R0,[R0, #+0]
        CMP      R0,#+0
        MOVNE    R0,#+1
        STRB     R0,[R7, #+3720]
        LDR      R0,??CustomLbls_1+0x1F0  ;; LABEL7_X_POS
        CMP      R2,#+0
        LDR      R1,[R0, #+0]
        STR      R1,[R7, #+3724]
        LDR      R0,??CustomLbls_1+0x1F4  ;; LABEL7_Y_POS
//  470   labels[6].scr.SCROLL_DEF_X=LABEL7_X_POS;
        STR      R1,[R7, #+3760]
//  471   labels[6].scr.SCROLL_WHERETO=LABEL7_SCROLL_LR;
        LDR      R1,??CustomLbls_1+0x1F8  ;; LABEL7_SCROLL_LR
        LDR      R0,[R0, #+0]
        LDR      R1,[R1, #+0]
        STR      R0,[R7, #+3728]
        LDR      R0,??CustomLbls_1+0x1FC  ;; LABEL7_COLOR1
        STR      R1,[R7, #+3764]
//  472   labels[6].scr.SCROLL_LEFT=LABEL7_SCROLL_LEFT;
        LDR      R1,??CustomLbls_1+0x200  ;; LABEL7_SCROLL_LEFT
        LDR      R0,[R0, #+0]
        LDR      R1,[R1, #+0]
        MOVNE    R2,#+1
        STR      R1,[R7, #+3768]
//  473   labels[6].scr.SCROLL_RIGHT=LABEL7_SCROLL_RIGHT;
        LDR      R1,??CustomLbls_1+0x204  ;; LABEL7_SCROLL_RIGHT
        STR      R0,[R7, #+3748]
        LDR      R1,[R1, #+0]
        LDR      R0,??CustomLbls_1+0x208  ;; LABEL7_COLOR2
        STR      R1,[R7, #+3772]
//  474   labels[6].scr.SCROLL_SPEED=LABEL7_SCROLL_MP;
        LDR      R1,??CustomLbls_1+0x20C  ;; LABEL7_SCROLL_MP
        LDR      R0,[R0, #+0]
        LDR      R1,[R1, #+0]
        STR      R0,[R7, #+3752]
        LDR      R0,??CustomLbls_1+0x210  ;; LABEL7_FONT
        STR      R1,[R7, #+3776]
//  475   labels[6].scr.SCROLL_LENGTH=LABEL7_SCROLL_LENGTH;
        LDR      R1,??CustomLbls_1+0x214  ;; LABEL7_SCROLL_LENGTH
        LDR      R0,[R0, #+0]
        LDR      R1,[R1, #+0]
        STR      R0,[R7, #+3744]
        STR      R1,[R7, #+3780]
//  476   labels[6].scr.SCROLL_STRLEN=LABEL7_SCROLL_STRLEN;
        LDR      R1,??CustomLbls_1+0x218  ;; LABEL7_SCROLL_STRLEN
        STRB     R2,[R7, #+3756]
        LDR      R1,[R1, #+0]
        STR      R1,[R7, #+3784]
//  477   labels[6].ChangeEveryTime=LABEL7_NEED_REDRAW;
        LDR      R1,??CustomLbls_1+0x21C  ;; LABEL7_NEED_REDRAW
        LDR      R1,[R1, #+0]
        CMP      R1,#+0
        MOVNE    R1,#+1
        STRB     R1,[R7, #+3822]
//  478   labels[6].LINE_ON=LABEL7_LINE_ON;
        LDR      R1,??CustomLbls_1+0x220  ;; LABEL7_LINE_ON
        LDR      R1,[R1, #+0]
        STR      R1,[R7, #+3800]
//  479   labels[6].LINE_DIST=LABEL7_LINE_DIST;
        LDR      R1,??CustomLbls_1+0x224  ;; LABEL7_LINE_DIST
        LDR      R1,[R1, #+0]
        STR      R1,[R7, #+3804]
//  480   labels[6].LINE_SIZE=LABEL7_LINE_SIZE;  
        LDR      R1,??CustomLbls_1+0x228  ;; LABEL7_LINE_SIZE
        LDR      R1,[R1, #+0]
        STR      R1,[R7, #+3808]
//  481   labels[6].FONT_SIZE=Font_GetHeight(labels[6].Font);
        SWI      +497
        MOV      R0,#+32
        SWI      +660
        STR      R0,[R7, #+3816]
//  482   labels[6].LINE_MINUS=LABEL7_LINE_MINUS;
        LDR      R0,??CustomLbls_1+0x22C  ;; LABEL7_LINE_MINUS
        LDR      R0,[R0, #+0]
        STR      R0,[R7, #+3812]
//  483   
//  484   //Label8
//  485   labels[7].SHOW=LABEL8_SHOW;
        LDR      R0,??CustomLbls_1+0x230  ;; LABEL8_SHOW
        LDR      R0,[R0, #+0]
        MOV      R1,#+248
        CMP      R0,#+0
        MOVNE    R0,#+1
//  486   labels[7].X=LABEL8_X_POS;
//  487   labels[7].Y=LABEL8_Y_POS;
//  488 
//  489   labels[7].Color=LABEL8_COLOR1;
//  490   labels[7].borderColor=LABEL8_COLOR2;
//  491   labels[7].Font=LABEL8_FONT;
//  492   labels[7].CT=LABEL8_CT;
        LDR      R2,??CustomLbls_1+0x234  ;; LABEL8_CT
        ORR      R1,R1,#0x1200
        LDR      R2,[R2, #+0]
        ADD      R7,R1,R4
        STRB     R0,[R7, #+0]
        LDR      R0,??CustomLbls_1+0x238  ;; LABEL8_X_POS
        STR      R2,[R7, #+20]
        LDR      R1,[R0, #+0]
        STR      R1,[R7, #+4]
        LDR      R0,??CustomLbls_1+0x23C  ;; LABEL8_Y_POS
//  493   labels[7].scr.SCROLL_USE=LABEL8_SCROLL_YES;
        LDR      R2,??CustomLbls_1+0x240  ;; LABEL8_SCROLL_YES
        LDR      R0,[R0, #+0]
        LDR      R2,[R2, #+0]
//  494   labels[7].scr.SCROLL_DEF_X=LABEL8_X_POS;
        STR      R1,[R7, #+40]
//  495   labels[7].scr.SCROLL_WHERETO=LABEL8_SCROLL_LR;
        LDR      R1,??CustomLbls_1+0x244  ;; LABEL8_SCROLL_LR
        STR      R0,[R7, #+8]
        LDR      R1,[R1, #+0]
        LDR      R0,??CustomLbls_1+0x248  ;; LABEL8_COLOR1
        STR      R1,[R7, #+44]
//  496   labels[7].scr.SCROLL_LEFT=LABEL8_SCROLL_LEFT;
        LDR      R1,??CustomLbls_1+0x24C  ;; LABEL8_SCROLL_LEFT
        LDR      R0,[R0, #+0]
        LDR      R1,[R1, #+0]
        CMP      R2,#+0
        STR      R1,[R7, #+48]
//  497   labels[7].scr.SCROLL_RIGHT=LABEL8_SCROLL_RIGHT;
        LDR      R1,??CustomLbls_1+0x250  ;; LABEL8_SCROLL_RIGHT
        MOVNE    R2,#+1
        LDR      R1,[R1, #+0]
        STR      R0,[R7, #+28]
        LDR      R0,??CustomLbls_1+0x254  ;; LABEL8_COLOR2
        STR      R1,[R7, #+52]
//  498   labels[7].scr.SCROLL_SPEED=LABEL8_SCROLL_MP;
        LDR      R1,??CustomLbls_1+0x258  ;; LABEL8_SCROLL_MP
        LDR      R0,[R0, #+0]
        LDR      R1,[R1, #+0]
        STR      R0,[R7, #+32]
        LDR      R0,??CustomLbls_1+0x25C  ;; LABEL8_FONT
        STR      R1,[R7, #+56]
//  499   labels[7].scr.SCROLL_LENGTH=LABEL8_SCROLL_LENGTH;
        LDR      R1,??CustomLbls_1+0x260  ;; LABEL8_SCROLL_LENGTH
        LDR      R0,[R0, #+0]
        LDR      R1,[R1, #+0]
        STR      R0,[R7, #+24]
        STR      R1,[R7, #+60]
//  500   labels[7].scr.SCROLL_STRLEN=LABEL8_SCROLL_STRLEN;
        LDR      R1,??CustomLbls_1+0x264  ;; LABEL8_SCROLL_STRLEN
        STRB     R2,[R7, #+36]
        LDR      R1,[R1, #+0]
        STR      R1,[R7, #+64]
//  501   labels[7].ChangeEveryTime=LABEL8_NEED_REDRAW;
        LDR      R1,??CustomLbls_1+0x268  ;; LABEL8_NEED_REDRAW
        LDR      R1,[R1, #+0]
        CMP      R1,#+0
        MOVNE    R1,#+1
        STRB     R1,[R7, #+102]
//  502   labels[7].LINE_ON=LABEL8_LINE_ON;
        LDR      R1,??CustomLbls_1+0x26C  ;; LABEL8_LINE_ON
        LDR      R1,[R1, #+0]
        STR      R1,[R7, #+80]
//  503   labels[7].LINE_DIST=LABEL8_LINE_DIST;
        LDR      R1,??CustomLbls_1+0x270  ;; LABEL8_LINE_DIST
        LDR      R1,[R1, #+0]
        STR      R1,[R7, #+84]
//  504   labels[7].LINE_SIZE=LABEL8_LINE_SIZE;
        LDR      R1,??CustomLbls_1+0x274  ;; LABEL8_LINE_SIZE
        LDR      R1,[R1, #+0]
        STR      R1,[R7, #+88]
//  505   labels[7].FONT_SIZE=Font_GetHeight(labels[7].Font);
        SWI      +497
        MOV      R0,#+32
        SWI      +660
//  506   labels[7].LINE_MINUS=LABEL8_LINE_MINUS;
//  507   
//  508   //Label9
//  509   labels[8].SHOW=LABEL9_SHOW;
//  510   labels[8].X=LABEL9_X_POS;
//  511   labels[8].Y=LABEL9_Y_POS;
//  512 
//  513   labels[8].Color=LABEL9_COLOR1;
//  514   labels[8].borderColor=LABEL9_COLOR2;
//  515   labels[8].Font=LABEL9_FONT;
//  516   labels[8].CT=LABEL9_CT;
        LDR      R2,??CustomLbls_1+0x278  ;; LABEL9_CT
        STR      R0,[R7, #+96]
        LDR      R0,??CustomLbls_1+0x27C  ;; LABEL8_LINE_MINUS
        LDR      R2,[R2, #+0]
        LDR      R0,[R0, #+0]
        STR      R2,[R7, #+640]
//  517   labels[8].scr.SCROLL_USE=LABEL9_SCROLL_YES;
        LDR      R2,??CustomLbls_1+0x280  ;; LABEL9_SCROLL_YES
        STR      R0,[R7, #+92]
        LDR      R0,??CustomLbls_1+0x284  ;; LABEL9_SHOW
        LDR      R2,[R2, #+0]
        LDR      R0,[R0, #+0]
        CMP      R0,#+0
        MOVNE    R0,#+1
        STRB     R0,[R7, #+620]
        LDR      R0,??CustomLbls_1+0x288  ;; LABEL9_X_POS
        CMP      R2,#+0
        LDR      R1,[R0, #+0]
        STR      R1,[R7, #+624]
        LDR      R0,??CustomLbls_1+0x28C  ;; LABEL9_Y_POS
//  518   labels[8].scr.SCROLL_DEF_X=LABEL9_X_POS;
        STR      R1,[R7, #+660]
//  519   labels[8].scr.SCROLL_WHERETO=LABEL9_SCROLL_LR;
        LDR      R1,??CustomLbls_1+0x290  ;; LABEL9_SCROLL_LR
        LDR      R0,[R0, #+0]
        LDR      R1,[R1, #+0]
        STR      R0,[R7, #+628]
        LDR      R0,??CustomLbls_1+0x294  ;; LABEL9_COLOR1
        STR      R1,[R7, #+664]
//  520   labels[8].scr.SCROLL_LEFT=LABEL9_SCROLL_LEFT;
        LDR      R1,??CustomLbls_1+0x298  ;; LABEL9_SCROLL_LEFT
        LDR      R0,[R0, #+0]
        LDR      R1,[R1, #+0]
        STR      R0,[R7, #+648]
        LDR      R0,??CustomLbls_1+0x29C  ;; LABEL9_COLOR2
        STR      R1,[R7, #+668]
//  521   labels[8].scr.SCROLL_RIGHT=LABEL9_SCROLL_RIGHT;
        LDR      R1,??CustomLbls_1+0x2A0  ;; LABEL9_SCROLL_RIGHT
        LDR      R0,[R0, #+0]
        LDR      R1,[R1, #+0]
        MOVNE    R2,#+1
        STR      R1,[R7, #+672]
//  522   labels[8].scr.SCROLL_SPEED=LABEL9_SCROLL_MP;
        LDR      R1,??CustomLbls_1+0x2A4  ;; LABEL9_SCROLL_MP
        STR      R0,[R7, #+652]
        LDR      R1,[R1, #+0]
        LDR      R0,??CustomLbls_1+0x2A8  ;; LABEL9_FONT
        STR      R1,[R7, #+676]
//  523   labels[8].scr.SCROLL_LENGTH=LABEL9_SCROLL_LENGTH;
        LDR      R1,??CustomLbls_1+0x2AC  ;; LABEL9_SCROLL_LENGTH
        LDR      R0,[R0, #+0]
        LDR      R1,[R1, #+0]
        STR      R0,[R7, #+644]
        STR      R1,[R7, #+680]
//  524   labels[8].scr.SCROLL_STRLEN=LABEL9_SCROLL_STRLEN;
        LDR      R1,??CustomLbls_1+0x2B0  ;; LABEL9_SCROLL_STRLEN
        STRB     R2,[R7, #+656]
        LDR      R1,[R1, #+0]
        STR      R1,[R7, #+684]
//  525   labels[8].ChangeEveryTime=LABEL9_NEED_REDRAW;
        LDR      R1,??CustomLbls_1+0x2B4  ;; LABEL9_NEED_REDRAW
        LDR      R1,[R1, #+0]
        CMP      R1,#+0
        MOVNE    R1,#+1
        STRB     R1,[R7, #+722]
//  526   labels[8].LINE_ON=LABEL9_LINE_ON;
        LDR      R1,??CustomLbls_1+0x2B8  ;; LABEL9_LINE_ON
        LDR      R1,[R1, #+0]
        STR      R1,[R7, #+700]
//  527   labels[8].LINE_DIST=LABEL9_LINE_DIST;
        LDR      R1,??CustomLbls_1+0x2BC  ;; LABEL9_LINE_DIST
        LDR      R1,[R1, #+0]
        STR      R1,[R7, #+704]
//  528   labels[8].LINE_SIZE=LABEL9_LINE_SIZE;
        LDR      R1,??CustomLbls_1+0x2C0  ;; LABEL9_LINE_SIZE
        LDR      R1,[R1, #+0]
        STR      R1,[R7, #+708]
//  529   labels[8].FONT_SIZE=Font_GetHeight(labels[8].Font);
        SWI      +497
        MOV      R0,#+32
        SWI      +660
//  530   labels[8].LINE_MINUS=LABEL9_LINE_MINUS;
//  531   
//  532   //Label10
//  533   labels[9].SHOW=LABEL10_SHOW;
//  534   labels[9].X=LABEL10_X_POS;
//  535   labels[9].Y=LABEL10_Y_POS;
//  536   labels[9].Color=LABEL10_COLOR1;
//  537   labels[9].borderColor=LABEL10_COLOR2;
//  538   labels[9].Font=LABEL10_FONT;
//  539   labels[9].CT=LABEL10_CT;
        LDR      R2,??CustomLbls_1+0x2C4  ;; LABEL10_CT
        STR      R0,[R7, #+716]
        LDR      R0,??CustomLbls_1+0x2C8  ;; LABEL9_LINE_MINUS
        LDR      R2,[R2, #+0]
        LDR      R0,[R0, #+0]
        STR      R2,[R7, #+1260]
//  540   labels[9].scr.SCROLL_USE=LABEL10_SCROLL_YES;
        LDR      R2,??CustomLbls_1+0x2CC  ;; LABEL10_SCROLL_YES
        STR      R0,[R7, #+712]
        LDR      R0,??CustomLbls_1+0x2D0  ;; LABEL10_SHOW
        LDR      R2,[R2, #+0]
        LDR      R0,[R0, #+0]
        CMP      R0,#+0
        MOVNE    R0,#+1
        STRB     R0,[R7, #+1240]
        LDR      R0,??CustomLbls_1+0x2D4  ;; LABEL10_X_POS
        CMP      R2,#+0
        LDR      R1,[R0, #+0]
        STR      R1,[R7, #+1244]
        LDR      R0,??CustomLbls_1+0x2D8  ;; LABEL10_Y_POS
//  541   labels[9].scr.SCROLL_DEF_X=LABEL10_X_POS;
        STR      R1,[R7, #+1280]
//  542   labels[9].scr.SCROLL_WHERETO=LABEL10_SCROLL_LR;
        LDR      R1,??CustomLbls_1+0x2DC  ;; LABEL10_SCROLL_LR
        LDR      R0,[R0, #+0]
        LDR      R1,[R1, #+0]
        STR      R0,[R7, #+1248]
        LDR      R0,??CustomLbls_1+0x2E0  ;; LABEL10_COLOR1
        STR      R1,[R7, #+1284]
//  543   labels[9].scr.SCROLL_LEFT=LABEL10_SCROLL_LEFT;
        LDR      R1,??CustomLbls_1+0x2E4  ;; LABEL10_SCROLL_LEFT
        LDR      R0,[R0, #+0]
        LDR      R1,[R1, #+0]
        MOVNE    R2,#+1
        STR      R1,[R7, #+1288]
//  544   labels[9].scr.SCROLL_RIGHT=LABEL10_SCROLL_RIGHT;
        LDR      R1,??CustomLbls_1+0x2E8  ;; LABEL10_SCROLL_RIGHT
        STR      R0,[R7, #+1268]
        LDR      R1,[R1, #+0]
        LDR      R0,??CustomLbls_1+0x2EC  ;; LABEL10_COLOR2
        STR      R1,[R7, #+1292]
//  545   labels[9].scr.SCROLL_SPEED=LABEL10_SCROLL_MP;
        LDR      R1,??CustomLbls_1+0x2F0  ;; LABEL10_SCROLL_MP
        LDR      R0,[R0, #+0]
        LDR      R1,[R1, #+0]
        STR      R0,[R7, #+1272]
        LDR      R0,??CustomLbls_1+0x2F4  ;; LABEL10_FONT
        STR      R1,[R7, #+1296]
//  546   labels[9].scr.SCROLL_LENGTH=LABEL10_SCROLL_LENGTH;
        LDR      R1,??CustomLbls_1+0x2F8  ;; LABEL10_SCROLL_LENGTH
        LDR      R0,[R0, #+0]
        LDR      R1,[R1, #+0]
        STR      R0,[R7, #+1264]
        STR      R1,[R7, #+1300]
//  547   labels[9].scr.SCROLL_STRLEN=LABEL10_SCROLL_STRLEN;
        LDR      R1,??CustomLbls_1+0x2FC  ;; LABEL10_SCROLL_STRLEN
        STRB     R2,[R7, #+1276]
        LDR      R1,[R1, #+0]
        STR      R1,[R7, #+1304]
//  548   labels[9].ChangeEveryTime=LABEL10_NEED_REDRAW;
        LDR      R1,??CustomLbls_1+0x300  ;; LABEL10_NEED_REDRAW
        LDR      R1,[R1, #+0]
        CMP      R1,#+0
//  549   labels[9].LINE_ON=LABEL10_LINE_ON;
        LDR      R1,??CustomLbls_1+0x304  ;; LABEL10_LINE_ON
        MOVEQ    R5,#+0
        LDR      R1,[R1, #+0]
        STRB     R5,[R7, #+1342]
        STR      R1,[R7, #+1320]
//  550   labels[9].LINE_DIST=LABEL10_LINE_DIST;
        LDR      R1,??CustomLbls_1+0x308  ;; LABEL10_LINE_DIST
        LDR      R1,[R1, #+0]
        STR      R1,[R7, #+1324]
//  551   labels[9].LINE_SIZE=LABEL10_LINE_SIZE;
        LDR      R1,??CustomLbls_1+0x30C  ;; LABEL10_LINE_SIZE
        LDR      R1,[R1, #+0]
        STR      R1,[R7, #+1328]
//  552   labels[9].FONT_SIZE=Font_GetHeight(labels[9].Font);
        SWI      +497
        MOV      R0,#+32
        SWI      +660
        STR      R0,[R7, #+1336]
//  553   labels[9].LINE_MINUS=LABEL10_LINE_MINUS;
        LDR      R0,??CustomLbls_1+0x310  ;; LABEL10_LINE_MINUS
//  554   //Поставим скроллинг влево на всех:
//  555   int x;
//  556   for (x=0;x<10;x++)
        MOV      R1,#+620
        LDR      R0,[R0, #+0]
        STR      R0,[R7, #+1332]
        MOV      R0,#+0
//  557   {
//  558     labels[x].scr.SCROLL_WHERE=0;
??CustomLbls_2:
        MLA      R2,R1,R0,R4
//  559   }
        ADD      R0,R0,#+1
        STR      R6,[R2, #+588]
        CMP      R0,#+10
        BLT      ??CustomLbls_2
//  560 };
        POP      {R4-R7,PC}       ;; return
        DATA
??CustomLbls_1:
        DC32     labels
        DC32     CustomRC
        DC32     img
        DC32     CoverRC
        DC32     locCover_X
        DC32     locCover_Y
        DC32     locCover_MaxX
        DC32     LABEL1_CT
        DC32     locCover_MaxY
        DC32     LABEL1_SHOW
        DC32     LABEL1_SCROLL_YES
        DC32     LABEL1_X_POS
        DC32     LABEL1_Y_POS
        DC32     LABEL1_SCROLL_LR
        DC32     LABEL1_COLOR1
        DC32     LABEL1_SCROLL_LEFT
        DC32     LABEL1_SCROLL_RIGHT
        DC32     LABEL1_COLOR2
        DC32     LABEL1_SCROLL_MP
        DC32     LABEL1_FONT
        DC32     LABEL1_SCROLL_STRLEN
        DC32     LABEL1_NEED_REDRAW
        DC32     LABEL1_LINE_ON
        DC32     LABEL1_LINE_DIST
        DC32     LABEL1_LINE_SIZE
        DC32     LABEL2_CT
        DC32     LABEL1_LINE_MINUS
        DC32     LABEL2_SCROLL_YES
        DC32     LABEL2_SHOW
        DC32     LABEL2_X_POS
        DC32     LABEL2_Y_POS
        DC32     LABEL2_COLOR1
        DC32     LABEL2_COLOR2
        DC32     LABEL2_FONT
        DC32     LABEL2_SCROLL_LR
        DC32     LABEL2_SCROLL_LEFT
        DC32     LABEL2_SCROLL_RIGHT
        DC32     LABEL2_SCROLL_MP
        DC32     LABEL2_SCROLL_LENGTH
        DC32     LABEL2_SCROLL_STRLEN
        DC32     LABEL2_NEED_REDRAW
        DC32     LABEL2_LINE_ON
        DC32     LABEL2_LINE_DIST
        DC32     LABEL2_LINE_SIZE
        DC32     LABEL3_CT
        DC32     LABEL2_LINE_MINUS
        DC32     LABEL3_SCROLL_YES
        DC32     LABEL3_SHOW
        DC32     LABEL3_X_POS
        DC32     LABEL3_Y_POS
        DC32     LABEL3_SCROLL_LR
        DC32     LABEL3_COLOR1
        DC32     LABEL3_SCROLL_LEFT
        DC32     LABEL3_SCROLL_RIGHT
        DC32     LABEL3_COLOR2
        DC32     LABEL3_SCROLL_MP
        DC32     LABEL3_FONT
        DC32     LABEL3_SCROLL_LENGTH
        DC32     LABEL3_SCROLL_STRLEN
        DC32     LABEL3_NEED_REDRAW
        DC32     LABEL3_LINE_ON
        DC32     LABEL3_LINE_DIST
        DC32     LABEL3_LINE_SIZE
        DC32     LABEL3_LINE_MINUS
        DC32     LABEL4_SHOW
        DC32     LABEL4_X_POS
        DC32     LABEL4_Y_POS
        DC32     LABEL4_COLOR1
        DC32     LABEL4_COLOR2
        DC32     LABEL4_FONT
        DC32     LABEL4_CT
        DC32     LABEL4_SCROLL_LR
        DC32     LABEL4_SCROLL_YES
        DC32     LABEL4_SCROLL_LEFT
        DC32     LABEL4_SCROLL_RIGHT
        DC32     LABEL4_SCROLL_MP
        DC32     LABEL4_SCROLL_LENGTH
        DC32     LABEL4_SCROLL_STRLEN
        DC32     LABEL4_NEED_REDRAW
        DC32     LABEL4_LINE_ON
        DC32     LABEL4_LINE_DIST
        DC32     LABEL4_LINE_SIZE
        DC32     LABEL5_CT
        DC32     LABEL4_LINE_MINUS
        DC32     LABEL5_SCROLL_YES
        DC32     LABEL5_SHOW
        DC32     LABEL5_X_POS
        DC32     LABEL5_Y_POS
        DC32     LABEL5_SCROLL_LR
        DC32     LABEL5_COLOR1
        DC32     LABEL5_SCROLL_LEFT
        DC32     LABEL5_SCROLL_RIGHT
        DC32     LABEL5_COLOR2
        DC32     LABEL5_SCROLL_MP
        DC32     LABEL5_FONT
        DC32     LABEL5_SCROLL_LENGTH
        DC32     LABEL5_SCROLL_STRLEN
        DC32     LABEL5_NEED_REDRAW
        DC32     LABEL5_LINE_ON
        DC32     LABEL5_LINE_DIST
        DC32     LABEL5_LINE_SIZE
        DC32     LABEL5_LINE_MINUS
        DC32     LABEL6_SHOW
        DC32     LABEL6_X_POS
        DC32     LABEL6_Y_POS
        DC32     LABEL6_CT
        DC32     LABEL6_SCROLL_LR
        DC32     LABEL6_SCROLL_YES
        DC32     LABEL6_SCROLL_LEFT
        DC32     LABEL6_COLOR1
        DC32     LABEL6_SCROLL_RIGHT
        DC32     LABEL6_SCROLL_MP
        DC32     LABEL6_COLOR2
        DC32     LABEL6_SCROLL_LENGTH
        DC32     LABEL6_FONT
        DC32     LABEL6_SCROLL_STRLEN
        DC32     LABEL6_NEED_REDRAW
        DC32     LABEL6_LINE_ON
        DC32     LABEL6_LINE_DIST
        DC32     LABEL6_LINE_SIZE
        DC32     LABEL7_CT
        DC32     LABEL6_LINE_MINUS
        DC32     LABEL7_SCROLL_YES
        DC32     LABEL7_SHOW
        DC32     LABEL7_X_POS
        DC32     LABEL7_Y_POS
        DC32     LABEL7_SCROLL_LR
        DC32     LABEL7_COLOR1
        DC32     LABEL7_SCROLL_LEFT
        DC32     LABEL7_SCROLL_RIGHT
        DC32     LABEL7_COLOR2
        DC32     LABEL7_SCROLL_MP
        DC32     LABEL7_FONT
        DC32     LABEL7_SCROLL_LENGTH
        DC32     LABEL7_SCROLL_STRLEN
        DC32     LABEL7_NEED_REDRAW
        DC32     LABEL7_LINE_ON
        DC32     LABEL7_LINE_DIST
        DC32     LABEL7_LINE_SIZE
        DC32     LABEL7_LINE_MINUS
        DC32     LABEL8_SHOW
        DC32     LABEL8_CT
        DC32     LABEL8_X_POS
        DC32     LABEL8_Y_POS
        DC32     LABEL8_SCROLL_YES
        DC32     LABEL8_SCROLL_LR
        DC32     LABEL8_COLOR1
        DC32     LABEL8_SCROLL_LEFT
        DC32     LABEL8_SCROLL_RIGHT
        DC32     LABEL8_COLOR2
        DC32     LABEL8_SCROLL_MP
        DC32     LABEL8_FONT
        DC32     LABEL8_SCROLL_LENGTH
        DC32     LABEL8_SCROLL_STRLEN
        DC32     LABEL8_NEED_REDRAW
        DC32     LABEL8_LINE_ON
        DC32     LABEL8_LINE_DIST
        DC32     LABEL8_LINE_SIZE
        DC32     LABEL9_CT
        DC32     LABEL8_LINE_MINUS
        DC32     LABEL9_SCROLL_YES
        DC32     LABEL9_SHOW
        DC32     LABEL9_X_POS
        DC32     LABEL9_Y_POS
        DC32     LABEL9_SCROLL_LR
        DC32     LABEL9_COLOR1
        DC32     LABEL9_SCROLL_LEFT
        DC32     LABEL9_COLOR2
        DC32     LABEL9_SCROLL_RIGHT
        DC32     LABEL9_SCROLL_MP
        DC32     LABEL9_FONT
        DC32     LABEL9_SCROLL_LENGTH
        DC32     LABEL9_SCROLL_STRLEN
        DC32     LABEL9_NEED_REDRAW
        DC32     LABEL9_LINE_ON
        DC32     LABEL9_LINE_DIST
        DC32     LABEL9_LINE_SIZE
        DC32     LABEL10_CT
        DC32     LABEL9_LINE_MINUS
        DC32     LABEL10_SCROLL_YES
        DC32     LABEL10_SHOW
        DC32     LABEL10_X_POS
        DC32     LABEL10_Y_POS
        DC32     LABEL10_SCROLL_LR
        DC32     LABEL10_COLOR1
        DC32     LABEL10_SCROLL_LEFT
        DC32     LABEL10_SCROLL_RIGHT
        DC32     LABEL10_COLOR2
        DC32     LABEL10_SCROLL_MP
        DC32     LABEL10_FONT
        DC32     LABEL10_SCROLL_LENGTH
        DC32     LABEL10_SCROLL_STRLEN
        DC32     LABEL10_NEED_REDRAW
        DC32     LABEL10_LINE_ON
        DC32     LABEL10_LINE_DIST
        DC32     LABEL10_LINE_SIZE
        DC32     LABEL10_LINE_MINUS
        CFI EndBlock cfiBlock11

        RSEG CODE:CODE:NOROOT(2)
        CFI Block cfiBlock12 Using cfiCommon0
        CFI NoFunction
        THUMB
??lbl_ofill??rT:
        BX       PC
        Nop      
        CFI EndBlock cfiBlock12
        REQUIRE ??lbl_ofill
//  561 

        RSEG CODE:CODE:NOROOT(2)
        CFI Block cfiBlock13 Using cfiCommon1
        CFI Function ??lbl_ofill
        ARM
//  562 void lbl_ofill()
//  563 {
??lbl_ofill:
        PUSH     {R4,R5,LR}
        CFI ?RET Frame(CFA, -4)
        CFI R5 Frame(CFA, -8)
        CFI R4 Frame(CFA, -12)
        CFI CFA R13+12
//  564   int x;
//  565   for (x=0;x<10;x++)
        MOV      R4,#+0
//  566   {
//  567     if (labels[x].ChangeEveryTime)
??lbl_ofill_1:
        LDR      R1,??DataTable27  ;; labels
        MOV      R0,#+620
        MLA      R5,R0,R4,R1
        LDRB     R0,[R5, #+618]
        CMP      R0,#+0
        BEQ      ??lbl_ofill_2
//  568     {
//  569       labels[x].str=TextID_Create(labels[x].label,ENC_UCS2,TEXTID_ANY_LEN);
        MOV      R2,#+255
        ORR      R2,R2,#0xFF00
        MOV      R1,#+0
        MOV      R0,R5
        SWI      +349
        STR      R0,[R5, #+512]
//  570     }
//  571   }
??lbl_ofill_2:
        ADD      R4,R4,#+1
        CMP      R4,#+10
        BLT      ??lbl_ofill_1
//  572 };
        POP      {R4,R5,PC}       ;; return
        CFI EndBlock cfiBlock13

        RSEG CODE:CODE:NOROOT(2)
        CFI Block cfiBlock14 Using cfiCommon0
        CFI NoFunction
        THUMB
??lbl_okill??rT:
        BX       PC
        Nop      
        CFI EndBlock cfiBlock14
        REQUIRE ??lbl_okill
//  573 

        RSEG CODE:CODE:NOROOT(2)
        CFI Block cfiBlock15 Using cfiCommon1
        CFI Function ??lbl_okill
        ARM
//  574 void lbl_okill()
//  575 {
??lbl_okill:
        PUSH     {R4-R6,LR}
        CFI ?RET Frame(CFA, -4)
        CFI R6 Frame(CFA, -8)
        CFI R5 Frame(CFA, -12)
        CFI R4 Frame(CFA, -16)
        CFI CFA R13+16
//  576   int x;
//  577   for (x=0;x<10;x++)
        MOV      R4,#+0
        MVN      R6,#-1879048192
//  578   {
//  579     if (labels[x].str!=0 && labels[x].str!=EMPTY_TEXTID && labels[x].ChangeEveryTime)
??lbl_okill_1:
        LDR      R1,??DataTable27  ;; labels
        MOV      R0,#+620
        MLA      R5,R0,R4,R1
        LDR      R0,[R5, #+512]
        CMP      R0,#+0
        CMPNE    R0,R6
        LDRBNE   R0,[R5, #+618]
        CMPNE    R0,#+0
        BEQ      ??lbl_okill_2
//  580     {
//  581       TextID_Destroy(labels[x].str);
        LDR      R0,[R5, #+512]
        SWI      +353
//  582       labels[x].str=EMPTY_TEXTID;
        STR      R6,[R5, #+512]
//  583     }
//  584   }
??lbl_okill_2:
        ADD      R4,R4,#+1
        CMP      R4,#+10
        BLT      ??lbl_okill_1
//  585 };
        POP      {R4-R6,PC}       ;; return
        CFI EndBlock cfiBlock15

        RSEG CODE:CODE:NOROOT(2)
        CFI Block cfiBlock16 Using cfiCommon0
        CFI NoFunction
        THUMB
??lbl_fill??rT:
        BX       PC
        Nop      
        CFI EndBlock cfiBlock16
        REQUIRE ??lbl_fill
//  586 

        RSEG CODE:CODE:NOROOT(2)
        CFI Block cfiBlock17 Using cfiCommon1
        CFI Function ??lbl_fill
        ARM
//  587 void lbl_fill()
//  588 {
??lbl_fill:
        PUSH     {R4,R5,LR}
        CFI ?RET Frame(CFA, -4)
        CFI R5 Frame(CFA, -8)
        CFI R4 Frame(CFA, -12)
        CFI CFA R13+12
//  589   int x;
//  590   for (x=0;x<10;x++)
        MOV      R4,#+0
//  591   {
//  592     labels[x].str=TextID_Create(labels[x].label,ENC_UCS2,TEXTID_ANY_LEN);
??lbl_fill_1:
        LDR      R1,??DataTable27  ;; labels
        MOV      R0,#+620
        MLA      R5,R0,R4,R1
        MOV      R2,#+255
        ORR      R2,R2,#0xFF00
        MOV      R1,#+0
        MOV      R0,R5
        SWI      +349
        STR      R0,[R5, #+512]
//  593   }
        ADD      R4,R4,#+1
        CMP      R4,#+10
        BLT      ??lbl_fill_1
//  594 };
        POP      {R4,R5,PC}       ;; return
        CFI EndBlock cfiBlock17

        RSEG CODE:CODE:NOROOT(2)
        CFI Block cfiBlock18 Using cfiCommon0
        CFI NoFunction
        THUMB
??lbl_kill??rT:
        BX       PC
        Nop      
        CFI EndBlock cfiBlock18
        REQUIRE ??lbl_kill
//  595 

        RSEG CODE:CODE:NOROOT(2)
        CFI Block cfiBlock19 Using cfiCommon1
        CFI Function ??lbl_kill
        ARM
//  596 void lbl_kill()
//  597 {
??lbl_kill:
        PUSH     {R4-R6,LR}
        CFI ?RET Frame(CFA, -4)
        CFI R6 Frame(CFA, -8)
        CFI R5 Frame(CFA, -12)
        CFI R4 Frame(CFA, -16)
        CFI CFA R13+16
//  598   int x;
//  599   for (x=0;x<10;x++)
        MOV      R4,#+0
        MVN      R6,#-1879048192
//  600   {
//  601     if (labels[x].str!=0 && labels[x].str!=EMPTY_TEXTID)
??lbl_kill_1:
        LDR      R1,??DataTable27  ;; labels
        MOV      R0,#+620
        MLA      R5,R0,R4,R1
        LDR      R0,[R5, #+512]
        CMP      R0,#+0
        CMPNE    R0,R6
        BEQ      ??lbl_kill_2
//  602     {
//  603       TextID_Destroy(labels[x].str);
        SWI      +353
//  604       labels[x].str=EMPTY_TEXTID;
        STR      R6,[R5, #+512]
//  605     }
//  606   }
??lbl_kill_2:
        ADD      R4,R4,#+1
        CMP      R4,#+10
        BLT      ??lbl_kill_1
//  607 };
        POP      {R4-R6,PC}       ;; return
        CFI EndBlock cfiBlock19

        RSEG CODE:CODE:NOROOT(2)
        DATA
??DataTable27:
        DC32     labels

        RSEG CODE:CODE:NOROOT(2)
        CFI Block cfiBlock20 Using cfiCommon1
        CFI NoFunction
        ARM
??char2unicode??rA:
        LDR      R12,??Subroutine10_0  ;; ??char2unicode
        BX       R12
        DATA
??Subroutine10_0:
        DC32     ??char2unicode
        CFI EndBlock cfiBlock20

        RSEG INITTAB:CODE:ROOT(2)
        DATA
?init?tab?DATA_Z:
        DCD      sfe(DATA_Z) - sfb(DATA_Z), sfb(DATA_Z), sfb(DATA_Z)

        RSEG DATA_C:CONST:SORT:NOROOT(2)
`?<Constant L"\\x56\\x42\\x52">`:
        DATA
        DC8 56H, 0, 42H, 0, 52H, 0, 0, 0
        DC8 25H, 0, 64H, 0, 0, 0
        DC8 0, 0
        DC8 53H, 0, 74H, 0, 65H, 0, 72H, 0
        DC8 65H, 0, 6FH, 0, 0, 0
        DC8 0, 0
        DC8 4AH, 0, 6FH, 0, 69H, 0, 6EH, 0
        DC8 74H, 0, 20H, 0, 53H, 0, 74H, 0
        DC8 65H, 0, 72H, 0, 65H, 0, 6FH, 0
        DC8 0, 0
        DC8 0, 0
        DC8 44H, 0, 75H, 0, 61H, 0, 6CH, 0
        DC8 20H, 0, 43H, 0, 68H, 0, 61H, 0
        DC8 6EH, 0, 6EH, 0, 65H, 0, 6CH, 0
        DC8 0, 0
        DC8 0, 0
        DC8 53H, 0, 69H, 0, 6EH, 0, 67H, 0
        DC8 6CH, 0, 65H, 0, 20H, 0, 43H, 0
        DC8 68H, 0, 61H, 0, 6EH, 0, 6EH, 0
        DC8 65H, 0, 6CH, 0, 0, 0
        DC8 0, 0
        DC8 25H, 0, 30H, 0, 32H, 0, 64H, 0
        DC8 3AH, 0, 25H, 0, 30H, 0, 32H, 0
        DC8 64H, 0, 0, 0
        DC8 25H, 0, 30H, 0, 32H, 0, 64H, 0
        DC8 0, 0
        DC8 0, 0

        RSEG DATA_C:CONST:SORT:NOROOT(2)
        DATA
        DC8 20H, 0, 0, 0

        END
// 
// 6 652 bytes in segment CODE
//   156 bytes in segment DATA_C
// 6 200 bytes in segment DATA_Z
//    12 bytes in segment INITTAB
// 
// 6 600 bytes of CODE  memory (+ 64 bytes shared)
//   156 bytes of CONST memory
// 6 200 bytes of DATA  memory
//
//Errors: none
//Warnings: none
