##############################################################################
#                                                                            #
# IAR ARM ANSI C/C++ Compiler V4.42A/W32 EVALUATION    10/Jun/2013  23:03:35 #
# Copyright 1999-2005 IAR Systems. All rights reserved.                      #
#                                                                            #
#    Cpu mode        =  interwork                                            #
#    Endian          =  little                                               #
#    Stack alignment =  4                                                    #
#    Source file     =  Z:\home\perk11\www\perk11.info\svn\SE\CoverArt\label #
#                       s.c                                                  #
#    Command line    =  Z:\home\perk11\www\perk11.info\svn\SE\CoverArt\label #
#                       s.c -D NDEBUG -D OLDFUNCTIONS -lC                    #
#                       Z:\home\perk11\www\perk11.info\svn\SE\CoverArt\EN\Li #
#                       st\ -lA Z:\home\perk11\www\perk11.info\svn\SE\CoverA #
#                       rt\EN\List\ -o Z:\home\perk11\www\perk11.info\svn\SE #
#                       \CoverArt\EN\Obj\ -s9 --cpu_mode arm --endian        #
#                       little --cpu ARM926EJ-S --stack_align 4 --interwork  #
#                       -e --enable_multibytes --fpu None --eec++            #
#                       --dlib_config Z:\home\perk11\IAR2\arm\LIB\dl5tpainl8 #
#                       n.h --preinclude Z:\home\perk11\www\perk11.info\svn\ #
#                       SE\CoverArt\LNG-EN.h -I Z:\home\perk11\IAR2\arm\INC\ #
#                        --inline_threshold=2                                #
#    List file       =  Z:\home\perk11\www\perk11.info\svn\SE\CoverArt\EN\Li #
#                       st\labels.lst                                        #
#    Object file     =  Z:\home\perk11\www\perk11.info\svn\SE\CoverArt\EN\Ob #
#                       j\labels.r79                                         #
#                                                                            #
#                                                                            #
##############################################################################

Z:\home\perk11\www\perk11.info\svn\SE\CoverArt\labels.c
      1          #include "..\include\Lib_Clara.h"
      2          #include "..\include\dir.h"
      3          #include "config_data.h"
      4          #include "structs.h"
      5          #include "Externals.h"
      6          

   \                                 In segment DATA_Z, align 4, align-sorted
      7          LABEL labels[NUM];
   \                     labels:
   \   00000000                      DS8 6200
      8          

   \                                 In segment CODE, align 4, keep-with-next
      9          int GetLabelSize(wchar_t *lbl, int FONT)
     10          {
   \                     ??GetLabelSize:
   \   00000000   30402DE9           PUSH     {R4,R5,LR}
   \   00000004   0040A0E1           MOV      R4,R0
   \   00000008   0100A0E1           MOV      R0,R1
     11            // Получаем размер надписи функцией тела
     12            SetFont(FONT);
   \   0000000C   F10100EF           SWI      +497
     13            int str=TextID_Create(lbl,ENC_UCS2,TEXTID_ANY_LEN);
   \   00000010   FF20A0E3           MOV      R2,#+255
   \   00000014   FF2C82E3           ORR      R2,R2,#0xFF00
   \   00000018   0010A0E3           MOV      R1,#+0
   \   0000001C   0400A0E1           MOV      R0,R4
   \   00000020   5D0100EF           SWI      +349
   \   00000024   0050A0E1           MOV      R5,R0
     14            int res = Disp_GetStrIdWidth(str, wstrlen(lbl));
   \   00000028   0400A0E1           MOV      R0,R4
   \   0000002C   570100EF           SWI      +343
   \   00000030   0010A0E1           MOV      R1,R0
   \   00000034   0500A0E1           MOV      R0,R5
   \   00000038   000300EF           SWI      +768
   \   0000003C   0040A0E1           MOV      R4,R0
     15            TextID_Destroy(str);
   \   00000040   0500A0E1           MOV      R0,R5
   \   00000044   610100EF           SWI      +353
     16            return res;
   \   00000048   0400A0E1           MOV      R0,R4
   \   0000004C   3080BDE8           POP      {R4,R5,PC}       ;; return
     17          };
     18          

   \                                 In segment CODE, align 4, keep-with-next
     19          void caprintf(wchar_t *prt, wchar_t *where)
     20          {
   \                     ??caprintf:
   \   00000000   F0472DE9           PUSH     {R4-R10,LR}
   \   00000004   99DF4DE2           SUB      SP,SP,#+612
   \   00000008   0040A0E1           MOV      R4,R0
   \   0000000C   0150A0E1           MOV      R5,R1
     21            // Функция записывает в *where переделанную строку prt
     22            wchar_t returnvalue[256];
     23            int x;
     24            int nox=0;
   \   00000010   0070A0E3           MOV      R7,#+0
     25            for (x=0;x<wstrlen(prt);x++)
   \   00000014   0060A0E3           MOV      R6,#+0
   \   00000018   020000EA           B        ??caprintf_1
     26            {
     27              if (prt[x]!=L'$')
     28              {
     29                returnvalue[nox]=prt[x];
     30                nox++;
     31              }
     32              else
     33              {
     34                if (prt[x+1]==L't' || prt[x+1]==L'0')
     35                {
     36          	wstrcpy(&returnvalue[nox],nowmusic.meta.Title);
     37          	nox=nox+wstrlen(nowmusic.meta.Title);
     38                }
     39                else if (prt[x+1]==L'a' || prt[x+1]==L'1')
     40                {
     41          	wstrcpy(&returnvalue[nox],nowmusic.meta.Album);
     42          	nox=nox+wstrlen(nowmusic.meta.Album);
     43                }
     44                else if (prt[x+1]==L'c' || prt[x+1]==L'2')
     45                {
     46          	wstrcpy(&returnvalue[nox],nowmusic.meta.Artist);
     47          	nox=nox+wstrlen(nowmusic.meta.Artist);
     48                }
     49                else if (prt[x+1]==L'g' || prt[x+1]==L'3')
     50                {
     51          	wstrcpy(&returnvalue[nox],nowmusic.meta.Genre);
     52          	nox=nox+wstrlen(nowmusic.meta.Genre);
     53                }
     54                else if (prt[x+1]==L'y' || prt[x+1]==L'4')
     55                {
     56          	wstrcpy(&returnvalue[nox],nowmusic.meta.Year);
     57          	nox=nox+wstrlen(nowmusic.meta.Year);
     58                }
     59                else if (prt[x+1]==L'b' || prt[x+1]==L'5')
     60                {
     61                  wchar_t bitrate[50];
     62                  if (nowmusic.hdr.VBR==true && AverageVBR==false)
     63                  {
     64                    wstrcpy(bitrate,L"VBR");
     65                  }
     66                  else
     67                  {
     68                    snwprintf(bitrate,TEXTID_ANY_LEN,L"%d",nowmusic.hdr.bitrate);
     69                  }
     70          	wstrcpy(&returnvalue[nox],bitrate);
     71          	nox=nox+wstrlen(bitrate);
     72                }
     73                else if (prt[x+1]==L'f' || prt[x+1]==L'6')
     74                {
     75                  wchar_t frequency[50];
     76                  snwprintf(frequency,TEXTID_ANY_LEN,L"%d",nowmusic.hdr.frequency);
     77          	wstrcpy(&returnvalue[nox],frequency);
     78          	nox=nox+wstrlen(frequency);
     79                }
     80                else if (prt[x+1]==L'm' || prt[x+1]==L'7')
     81                {
     82                  wchar_t mode[50];
     83                  if (nowmusic.hdr.mode==0)
     84                  {
     85                    wstrcpy(mode,L"Stereo");
     86                  }
     87                  else if (nowmusic.hdr.mode==1)
     88                  {
     89                    wstrcpy(mode,L"Joint Stereo");
     90                  }
     91                  else if (nowmusic.hdr.mode==2)
     92                  {
     93                    wstrcpy(mode,L"Dual Channel");
     94                  }
     95                   else if (nowmusic.hdr.mode==3)
     96                  {
     97                    wstrcpy(mode,L"Single Channel");
     98                  }
     99                  else
    100                  {
    101                    wstrcpy(mode,L" ");
    102                  }
    103          	wstrcpy(&returnvalue[nox],mode);
    104          	nox=nox+wstrlen(mode);
    105                }
    106                else if (prt[x+1]==L'l' || prt[x+1]==L'8')
    107                {
    108                  int MIN=nowmusic.hdr.LengthInSeconds/60;
    109                  int SEC=nowmusic.hdr.LengthInSeconds%60;
    110                  wchar_t length[50];
    111                  snwprintf(length,TEXTID_ANY_LEN,L"%02d:%02d",MIN,SEC);
    112                  wstrcpy(&returnvalue[nox],length);
    113          	nox=nox+wstrlen(length);
    114                }
    115                else if (prt[x+1]==L'n' || prt[x+1]==L'9')
    116                {
    117                  wchar_t length[50];
    118                  snwprintf(length,TEXTID_ANY_LEN,L"%02d",nowmusic.meta.TrackNum);
    119                  wstrcpy(&returnvalue[nox],length);
    120          	nox=nox+wstrlen(length);
    121                }
    122                else if (prt[x+1]==L's')
    123                {
    124                  wchar_t length[50];
    125                  int MIN=CurrentTime/60;
    126                  int SEC=CurrentTime%60;
    127                  snwprintf(length,TEXTID_ANY_LEN,L"%02d:%02d",MIN,SEC);
    128                  wstrcpy(&returnvalue[nox],length);
    129          	nox=nox+wstrlen(length);
    130                }
    131                else if (prt[x+1]==L'e')
    132                {
    133                  wchar_t length[50];
    134                  int TimeLeft = currenttrack->fulltime-CurrentTime;
    135                  int MIN=TimeLeft/60;
    136                  int SEC=TimeLeft%60;
    137                  snwprintf(length,TEXTID_ANY_LEN,L"%02d:%02d",MIN,SEC);
    138                  wstrcpy(&returnvalue[nox],length);
    139          	nox=nox+wstrlen(length);
    140                }
    141                else if (prt[x+1]==L'i')
    142                {
    143                  wchar_t length[50];
    144                  int pos = currenttrack->pos;
    145                  snwprintf(length,TEXTID_ANY_LEN,L"%d",pos);
    146                  wstrcpy(&returnvalue[nox],length);
    147          	nox=nox+wstrlen(length);
    148                }
    149                else if (prt[x+1]==L'p')
    150                {
    151                  wchar_t length[50];
    152                  int count= currenttrack->tracks_count;
    153                  snwprintf(length,TEXTID_ANY_LEN,L"%d",count);
    154                  wstrcpy(&returnvalue[nox],length);
    155          	nox=nox+wstrlen(length);
    156                }
    157                else
    158                {
    159          	nox+=1;
   \                     ??caprintf_2:
   \   0000001C   0270A0E1           MOV      R7,R2
    160                }
    161                x++;
   \                     ??caprintf_3:
   \   00000020   016086E2           ADD      R6,R6,#+1
   \                     ??caprintf_4:
   \   00000024   016086E2           ADD      R6,R6,#+1
   \                     ??caprintf_1:
   \   00000028   64008DE2           ADD      R0,SP,#+100
   \   0000002C   878080E0           ADD      R8,R0,R7, LSL #+1
   \   00000030   0400A0E1           MOV      R0,R4
   \   00000034   570100EF           SWI      +343
   \   00000038   000056E1           CMP      R6,R0
   \   0000003C   DA0000AA           BGE      ??caprintf_5
   \   00000040   863084E0           ADD      R3,R4,R6, LSL #+1
   \   00000044   B000D3E1           LDRH     R0,[R3, #+0]
   \   00000048   012087E2           ADD      R2,R7,#+1
   \   0000004C   240050E3           CMP      R0,#+36
   \   00000050   B000C811           STRHNE   R0,[R8, #+0]
   \   00000054   0270A011           MOVNE    R7,R2
   \   00000058   F1FFFF1A           BNE      ??caprintf_4
   \   0000005C   B200D3E1           LDRH     R0,[R3, #+2]
   \   00000060   64939FE5           LDR      R9,??caprintf_6+0x4  ;; nowmusic
   \   00000064   740050E3           CMP      R0,#+116
   \   00000068   30005013           CMPNE    R0,#+48
   \   0000006C   0600001A           BNE      ??caprintf_7
   \   00000070   241089E2           ADD      R1,R9,#+36
   \   00000074   0800A0E1           MOV      R0,R8
   \   00000078   520100EF           SWI      +338
   \   0000007C   240089E2           ADD      R0,R9,#+36
   \                     ??caprintf_8:
   \   00000080   570100EF           SWI      +343
   \   00000084   077080E0           ADD      R7,R0,R7
   \   00000088   E4FFFFEA           B        ??caprintf_3
   \                     ??caprintf_7:
   \   0000008C   610050E3           CMP      R0,#+97
   \   00000090   31005013           CMPNE    R0,#+49
   \   00000094   0600001A           BNE      ??caprintf_9
   \   00000098   24A0A0E3           MOV      R10,#+36
   \   0000009C   80AE8AE3           ORR      R10,R10,#0x800
   \   000000A0   09108AE0           ADD      R1,R10,R9
   \   000000A4   0800A0E1           MOV      R0,R8
   \   000000A8   520100EF           SWI      +338
   \   000000AC   09008AE0           ADD      R0,R10,R9
   \   000000B0   F2FFFFEA           B        ??caprintf_8
   \                     ??caprintf_9:
   \   000000B4   630050E3           CMP      R0,#+99
   \   000000B8   32005013           CMPNE    R0,#+50
   \   000000BC   0700001A           BNE      ??caprintf_10
   \   000000C0   2400A0E3           MOV      R0,#+36
   \   000000C4   400D80E3           ORR      R0,R0,#0x1000
   \                     ??caprintf_11:
   \   000000C8   099080E0           ADD      R9,R0,R9
   \   000000CC   0910A0E1           MOV      R1,R9
   \   000000D0   0800A0E1           MOV      R0,R8
   \   000000D4   520100EF           SWI      +338
   \   000000D8   0900A0E1           MOV      R0,R9
   \                     ??caprintf_12:
   \   000000DC   E7FFFFEA           B        ??caprintf_8
   \                     ??caprintf_10:
   \   000000E0   670050E3           CMP      R0,#+103
   \   000000E4   33005013           CMPNE    R0,#+51
   \   000000E8   0700001A           BNE      ??caprintf_13
   \   000000EC   2400A0E3           MOV      R0,#+36
   \   000000F0   800D80E3           ORR      R0,R0,#0x2000
   \   000000F4   099080E0           ADD      R9,R0,R9
   \   000000F8   0910A0E1           MOV      R1,R9
   \   000000FC   0800A0E1           MOV      R0,R8
   \   00000100   520100EF           SWI      +338
   \   00000104   0900A0E1           MOV      R0,R9
   \   00000108   DCFFFFEA           B        ??caprintf_8
   \                     ??caprintf_13:
   \   0000010C   790050E3           CMP      R0,#+121
   \   00000110   34005013           CMPNE    R0,#+52
   \   00000114   2400A003           MOVEQ    R0,#+36
   \   00000118   600D8003           ORREQ    R0,R0,#0x1800
   \   0000011C   E9FFFF0A           BEQ      ??caprintf_11
   \   00000120   B2A0D3E1           LDRH     R10,[R3, #+2]
   \   00000124   A4029FE5           LDR      R0,??caprintf_6+0x8  ;; `?<Constant L"\\x56\\x42\\x52">`
   \   00000128   08C089E2           ADD      R12,R9,#+8
   \   0000012C   FF10A0E3           MOV      R1,#+255
   \   00000130   FF1C81E3           ORR      R1,R1,#0xFF00
   \   00000134   62005AE3           CMP      R10,#+98
   \   00000138   35005A13           CMPNE    R10,#+53
   \   0000013C   1300001A           BNE      ??caprintf_14
   \   00000140   0420DCE5           LDRB     R2,[R12, #+4]
   \   00000144   000052E3           CMP      R2,#+0
   \   00000148   0700000A           BEQ      ??caprintf_15
   \   0000014C   80229FE5           LDR      R2,??caprintf_6+0xC  ;; AverageVBR
   \   00000150   002092E5           LDR      R2,[R2, #+0]
   \   00000154   000052E3           CMP      R2,#+0
   \   00000158   0300001A           BNE      ??caprintf_15
   \   0000015C   0010A0E1           MOV      R1,R0
   \   00000160   0D00A0E1           MOV      R0,SP
   \   00000164   520100EF           SWI      +338
   \   00000168   030000EA           B        ??caprintf_16
   \                     ??caprintf_15:
   \   0000016C   00309CE5           LDR      R3,[R12, #+0]
   \   00000170   082080E2           ADD      R2,R0,#+8
   \   00000174   0D00A0E1           MOV      R0,SP
   \   00000178   150100EF           SWI      +277
   \                     ??caprintf_16:
   \   0000017C   0D10A0E1           MOV      R1,SP
   \   00000180   0800A0E1           MOV      R0,R8
   \   00000184   520100EF           SWI      +338
   \   00000188   0D00A0E1           MOV      R0,SP
   \   0000018C   BBFFFFEA           B        ??caprintf_8
   \                     ??caprintf_14:
   \   00000190   66005AE3           CMP      R10,#+102
   \   00000194   36005A13           CMPNE    R10,#+54
   \   00000198   0A00001A           BNE      ??caprintf_17
   \   0000019C   14309CE5           LDR      R3,[R12, #+20]
   \   000001A0   082080E2           ADD      R2,R0,#+8
   \   000001A4   0D00A0E1           MOV      R0,SP
   \   000001A8   150100EF           SWI      +277
   \   000001AC   0D10A0E1           MOV      R1,SP
   \   000001B0   0800A0E1           MOV      R0,R8
   \   000001B4   520100EF           SWI      +338
   \   000001B8   0D00A0E1           MOV      R0,SP
   \   000001BC   570100EF           SWI      +343
   \   000001C0   077080E0           ADD      R7,R0,R7
   \   000001C4   95FFFFEA           B        ??caprintf_3
   \                     ??caprintf_17:
   \   000001C8   6D005AE3           CMP      R10,#+109
   \   000001CC   37005A13           CMPNE    R10,#+55
   \   000001D0   0F00001A           BNE      ??caprintf_18
   \   000001D4   18109CE5           LDR      R1,[R12, #+24]
   \   000001D8   000051E3           CMP      R1,#+0
   \   000001DC   10108002           ADDEQ    R1,R0,#+16
   \   000001E0   0800000A           BEQ      ??caprintf_19
   \   000001E4   010051E3           CMP      R1,#+1
   \   000001E8   20108002           ADDEQ    R1,R0,#+32
   \   000001EC   0500000A           BEQ      ??caprintf_19
   \   000001F0   020051E3           CMP      R1,#+2
   \   000001F4   3C108002           ADDEQ    R1,R0,#+60
   \   000001F8   0200000A           BEQ      ??caprintf_19
   \   000001FC   030051E3           CMP      R1,#+3
   \   00000200   58108002           ADDEQ    R1,R0,#+88
   \   00000204   6F1F8F12           ADRNE    R1,??caprintf_6  ;; 0x20, 0x00, 0x00, 0x00
   \                     ??caprintf_19:
   \   00000208   0D00A0E1           MOV      R0,SP
   \   0000020C   520100EF           SWI      +338
   \   00000210   D9FFFFEA           B        ??caprintf_16
   \                     ??caprintf_18:
   \   00000214   6C005AE3           CMP      R10,#+108
   \   00000218   38005A13           CMPNE    R10,#+56
   \   0000021C   1900001A           BNE      ??caprintf_20
   \   00000220   08209CE5           LDR      R2,[R12, #+8]
   \   00000224   AC319FE5           LDR      R3,??caprintf_6+0x10  ;; 0xffffffff88888889
   \   00000228   9293CAE0           SMULL    R9,R10,R2,R3
   \   0000022C   3C90A0E3           MOV      R9,#+60
   \   00000230   02A08AE0           ADD      R10,R10,R2
   \   00000234   CAA2A0E1           ASR      R10,R10,#+5
   \   00000238   A2AF8AE0           ADD      R10,R10,R2, LSR #+31
   \   0000023C   990A0AE0           MUL      R10,R9,R10
   \   00000240   0A3042E0           SUB      R3,R2,R10
   \   00000244   08002DE9           PUSH     {R3}
   \   00000248   88319FE5           LDR      R3,??caprintf_6+0x10  ;; 0xffffffff88888889
   \   0000024C   9392CAE0           SMULL    R9,R10,R3,R2
   \   00000250   02A08AE0           ADD      R10,R10,R2
   \   00000254   CAA2A0E1           ASR      R10,R10,#+5
   \   00000258   A23F8AE0           ADD      R3,R10,R2, LSR #+31
   \                     ??caprintf_21:
   \   0000025C   782080E2           ADD      R2,R0,#+120
   \   00000260   04008DE2           ADD      R0,SP,#+4
   \   00000264   150100EF           SWI      +277
   \   00000268   04108DE2           ADD      R1,SP,#+4
   \   0000026C   0800A0E1           MOV      R0,R8
   \   00000270   520100EF           SWI      +338
   \   00000274   04008DE2           ADD      R0,SP,#+4
   \   00000278   570100EF           SWI      +343
   \   0000027C   077080E0           ADD      R7,R0,R7
   \   00000280   04D08DE2           ADD      SP,SP,#+4
   \   00000284   65FFFFEA           B        ??caprintf_3
   \                     ??caprintf_20:
   \   00000288   6E005AE3           CMP      R10,#+110
   \   0000028C   39005A13           CMPNE    R10,#+57
   \   00000290   0A00001A           BNE      ??caprintf_22
   \   00000294   2420A0E3           MOV      R2,#+36
   \   00000298   A02D82E3           ORR      R2,R2,#0x2800
   \   0000029C   093092E7           LDR      R3,[R2, +R9]
   \   000002A0   8C2080E2           ADD      R2,R0,#+140
   \   000002A4   0D00A0E1           MOV      R0,SP
   \   000002A8   150100EF           SWI      +277
   \   000002AC   0D10A0E1           MOV      R1,SP
   \   000002B0   0800A0E1           MOV      R0,R8
   \   000002B4   520100EF           SWI      +338
   \   000002B8   0D00A0E1           MOV      R0,SP
   \   000002BC   6FFFFFEA           B        ??caprintf_8
   \                     ??caprintf_22:
   \   000002C0   14919FE5           LDR      R9,??caprintf_6+0x14  ;; CurrentTime
   \   000002C4   73005AE3           CMP      R10,#+115
   \   000002C8   009099E5           LDR      R9,[R9, #+0]
   \   000002CC   0E00001A           BNE      ??caprintf_23
   \   000002D0   00219FE5           LDR      R2,??caprintf_6+0x10  ;; 0xffffffff88888889
   \   000002D4   9932CAE0           SMULL    R3,R10,R9,R2
   \   000002D8   3C30A0E3           MOV      R3,#+60
   \   000002DC   09A08AE0           ADD      R10,R10,R9
   \   000002E0   CAA2A0E1           ASR      R10,R10,#+5
   \   000002E4   A9AF8AE0           ADD      R10,R10,R9, LSR #+31
   \   000002E8   930A0AE0           MUL      R10,R3,R10
   \   000002EC   0A2049E0           SUB      R2,R9,R10
   \   000002F0   04002DE9           PUSH     {R2}
   \   000002F4   DC209FE5           LDR      R2,??caprintf_6+0x10  ;; 0xffffffff88888889
   \   000002F8   9239CAE0           SMULL    R3,R10,R2,R9
   \   000002FC   09A08AE0           ADD      R10,R10,R9
   \   00000300   CAA2A0E1           ASR      R10,R10,#+5
   \   00000304   A93F8AE0           ADD      R3,R10,R9, LSR #+31
   \   00000308   D3FFFFEA           B        ??caprintf_21
   \                     ??caprintf_23:
   \   0000030C   B2C0D3E1           LDRH     R12,[R3, #+2]
   \   00000310   C8A09FE5           LDR      R10,??caprintf_6+0x18  ;; currenttrack
   \   00000314   00A09AE5           LDR      R10,[R10, #+0]
   \   00000318   65005CE3           CMP      R12,#+101
   \   0000031C   1000001A           BNE      ??caprintf_24
   \   00000320   08209AE5           LDR      R2,[R10, #+8]
   \   00000324   AC309FE5           LDR      R3,??caprintf_6+0x10  ;; 0xffffffff88888889
   \   00000328   092042E0           SUB      R2,R2,R9
   \   0000032C   9293CAE0           SMULL    R9,R10,R2,R3
   \   00000330   3C90A0E3           MOV      R9,#+60
   \   00000334   02A08AE0           ADD      R10,R10,R2
   \   00000338   CAA2A0E1           ASR      R10,R10,#+5
   \   0000033C   A2AF8AE0           ADD      R10,R10,R2, LSR #+31
   \   00000340   990A0AE0           MUL      R10,R9,R10
   \   00000344   0A3042E0           SUB      R3,R2,R10
   \   00000348   08002DE9           PUSH     {R3}
   \   0000034C   84309FE5           LDR      R3,??caprintf_6+0x10  ;; 0xffffffff88888889
   \   00000350   9392CAE0           SMULL    R9,R10,R3,R2
   \   00000354   02A08AE0           ADD      R10,R10,R2
   \   00000358   CAA2A0E1           ASR      R10,R10,#+5
   \   0000035C   A23F8AE0           ADD      R3,R10,R2, LSR #+31
   \   00000360   BDFFFFEA           B        ??caprintf_21
   \                     ??caprintf_24:
   \   00000364   69005CE3           CMP      R12,#+105
   \   00000368   0400001A           BNE      ??caprintf_25
   \   0000036C   0C309AE5           LDR      R3,[R10, #+12]
   \   00000370   082080E2           ADD      R2,R0,#+8
   \   00000374   0D00A0E1           MOV      R0,SP
   \   00000378   150100EF           SWI      +277
   \   0000037C   7EFFFFEA           B        ??caprintf_16
   \                     ??caprintf_25:
   \   00000380   70005CE3           CMP      R12,#+112
   \   00000384   24FFFF1A           BNE      ??caprintf_2
   \   00000388   10309AE5           LDR      R3,[R10, #+16]
   \   0000038C   082080E2           ADD      R2,R0,#+8
   \   00000390   0D00A0E1           MOV      R0,SP
   \   00000394   150100EF           SWI      +277
   \   00000398   0D10A0E1           MOV      R1,SP
   \   0000039C   0800A0E1           MOV      R0,R8
   \   000003A0   520100EF           SWI      +338
   \   000003A4   0D00A0E1           MOV      R0,SP
   \   000003A8   34FFFFEA           B        ??caprintf_8
    162              }
    163            }
    164            returnvalue[nox]='\0';
   \                     ??caprintf_5:
   \   000003AC   0000A0E3           MOV      R0,#+0
   \   000003B0   B000C8E1           STRH     R0,[R8, #+0]
    165            wstrcpy(where,returnvalue);
   \   000003B4   64108DE2           ADD      R1,SP,#+100
   \   000003B8   0500A0E1           MOV      R0,R5
   \   000003BC   520100EF           SWI      +338
    166          };
   \   000003C0   99DF8DE2           ADD      SP,SP,#+612
   \   000003C4   F087BDE8           POP      {R4-R10,PC}      ;; return
   \                     ??caprintf_6:
   \   000003C8   20000000           DC8      0x20, 0x00, 0x00, 0x00
   \   000003CC   ........           DC32     nowmusic
   \   000003D0   ........           DC32     `?<Constant L"\\x56\\x42\\x52">`
   \   000003D4   ........           DC32     AverageVBR
   \   000003D8   89888888           DC32     0xffffffff88888889
   \   000003DC   ........           DC32     CurrentTime
   \   000003E0   ........           DC32     currenttrack
    167          void lbl_okill();
    168          void lbl_kill();
    169          void lbl_ofill();
    170          void lbl_fill();

   \                                 In segment CODE, align 4, keep-with-next
    171          void optimized_InitLbls()
    172          {
   \                     ??optimized_InitLbls:
   \   00000000   F04F2DE9           PUSH     {R4-R11,LR}
    173            wchar_t lbl[256];
    174            lbl_okill();
    175            if (labels[0].ChangeEveryTime)
   \   00000004   ........           LDR      R4,??DataTable19  ;; labels
   \   00000008   80DF4DE2           SUB      SP,SP,#+512
   \   0000000C   875F84E2           ADD      R5,R4,#+540
   \   00000010   ........           BL       ??lbl_okill
   \   00000014   4E00D5E5           LDRB     R0,[R5, #+78]
   \   00000018   000050E3           CMP      R0,#+0
   \   0000001C   0900000A           BEQ      ??optimized_InitLbls_1
    176            {
    177              char2unicode(lbl,LABEL1_NAME,strlen(LABEL1_NAME));
   \   00000020   ........           LDR      R6,??DataTable12  ;; LABEL1_NAME
   \   00000024   0600A0E1           MOV      R0,R6
   \   00000028   5A0100EF           SWI      +346
   \   0000002C   0020A0E1           MOV      R2,R0
   \   00000030   0610A0E1           MOV      R1,R6
   \   00000034   0D00A0E1           MOV      R0,SP
   \   00000038   ........           _BLF     ??char2unicode,??char2unicode??rA
    178              caprintf(lbl,labels[0].label);
   \   0000003C   0410A0E1           MOV      R1,R4
   \   00000040   0D00A0E1           MOV      R0,SP
   \   00000044   ........           BL       ??caprintf
   \                     ??optimized_InitLbls_1:
   \   00000048   BA02D5E5           LDRB     R0,[R5, #+698]
   \   0000004C   000050E3           CMP      R0,#+0
   \   00000050   0900000A           BEQ      ??optimized_InitLbls_2
    179            }
    180              if (labels[1].ChangeEveryTime)
    181            {
    182              char2unicode(lbl,LABEL2_NAME,strlen(LABEL2_NAME));
   \   00000054   ........           LDR      R6,??DataTable13  ;; LABEL2_NAME
   \   00000058   0600A0E1           MOV      R0,R6
   \   0000005C   5A0100EF           SWI      +346
   \   00000060   0020A0E1           MOV      R2,R0
   \   00000064   0610A0E1           MOV      R1,R6
   \   00000068   0D00A0E1           MOV      R0,SP
   \   0000006C   ........           _BLF     ??char2unicode,??char2unicode??rA
    183              caprintf(lbl,labels[1].label);
   \   00000070   9B1F84E2           ADD      R1,R4,#+620
   \   00000074   0D00A0E1           MOV      R0,SP
   \   00000078   ........           BL       ??caprintf
   \                     ??optimized_InitLbls_2:
   \   0000007C   2605D5E5           LDRB     R0,[R5, #+1318]
   \   00000080   000050E3           CMP      R0,#+0
   \   00000084   0B00000A           BEQ      ??optimized_InitLbls_3
    184            }
    185              if (labels[2].ChangeEveryTime)
    186            {
    187              char2unicode(lbl,LABEL3_NAME,strlen(LABEL3_NAME));
   \   00000088   ........           LDR      R6,??DataTable20  ;; LABEL3_NAME
   \   0000008C   0600A0E1           MOV      R0,R6
   \   00000090   5A0100EF           SWI      +346
   \   00000094   0020A0E1           MOV      R2,R0
   \   00000098   0610A0E1           MOV      R1,R6
   \   0000009C   0D00A0E1           MOV      R0,SP
   \   000000A0   ........           _BLF     ??char2unicode,??char2unicode??rA
    188              caprintf(lbl,labels[2].label);
   \   000000A4   D800A0E3           MOV      R0,#+216
   \   000000A8   400E80E3           ORR      R0,R0,#0x400
   \   000000AC   041080E0           ADD      R1,R0,R4
   \   000000B0   0D00A0E1           MOV      R0,SP
   \   000000B4   ........           BL       ??caprintf
   \                     ??optimized_InitLbls_3:
   \   000000B8   9207D5E5           LDRB     R0,[R5, #+1938]
   \   000000BC   000050E3           CMP      R0,#+0
   \   000000C0   0B00000A           BEQ      ??optimized_InitLbls_4
    189            }
    190            
    191              if (labels[3].ChangeEveryTime)
    192            {
    193              char2unicode(lbl,LABEL4_NAME,strlen(LABEL4_NAME));
   \   000000C4   ........           LDR      R6,??DataTable21  ;; LABEL4_NAME
   \   000000C8   0600A0E1           MOV      R0,R6
   \   000000CC   5A0100EF           SWI      +346
   \   000000D0   0020A0E1           MOV      R2,R0
   \   000000D4   0610A0E1           MOV      R1,R6
   \   000000D8   0D00A0E1           MOV      R0,SP
   \   000000DC   ........           _BLF     ??char2unicode,??char2unicode??rA
    194              caprintf(lbl,labels[3].label);
   \   000000E0   4400A0E3           MOV      R0,#+68
   \   000000E4   700E80E3           ORR      R0,R0,#0x700
   \   000000E8   041080E0           ADD      R1,R0,R4
   \   000000EC   0D00A0E1           MOV      R0,SP
   \   000000F0   ........           BL       ??caprintf
   \                     ??optimized_InitLbls_4:
   \   000000F4   FE09D5E5           LDRB     R0,[R5, #+2558]
   \   000000F8   000050E3           CMP      R0,#+0
   \   000000FC   0900000A           BEQ      ??optimized_InitLbls_5
    195            }
    196              if (labels[4].ChangeEveryTime)
    197            {
    198              char2unicode(lbl,LABEL5_NAME,strlen(LABEL5_NAME));
   \   00000100   ........           LDR      R6,??DataTable22  ;; LABEL5_NAME
   \   00000104   0600A0E1           MOV      R0,R6
   \   00000108   5A0100EF           SWI      +346
   \   0000010C   0020A0E1           MOV      R2,R0
   \   00000110   0610A0E1           MOV      R1,R6
   \   00000114   0D00A0E1           MOV      R0,SP
   \   00000118   ........           _BLF     ??char2unicode,??char2unicode??rA
    199              caprintf(lbl,labels[4].label);
   \   0000011C   9B1E84E2           ADD      R1,R4,#+2480
   \   00000120   0D00A0E1           MOV      R0,SP
   \   00000124   ........           BL       ??caprintf
   \                     ??optimized_InitLbls_5:
   \   00000128   6A0CD5E5           LDRB     R0,[R5, #+3178]
   \   0000012C   000050E3           CMP      R0,#+0
   \   00000130   0B00000A           BEQ      ??optimized_InitLbls_6
    200            }
    201              if (labels[5].ChangeEveryTime)
    202            {
    203              char2unicode(lbl,LABEL6_NAME,strlen(LABEL6_NAME));
   \   00000134   ........           LDR      R6,??DataTable14  ;; LABEL6_NAME
   \   00000138   0600A0E1           MOV      R0,R6
   \   0000013C   5A0100EF           SWI      +346
   \   00000140   0020A0E1           MOV      R2,R0
   \   00000144   0610A0E1           MOV      R1,R6
   \   00000148   0D00A0E1           MOV      R0,SP
   \   0000014C   ........           _BLF     ??char2unicode,??char2unicode??rA
    204              caprintf(lbl,labels[5].label);
   \   00000150   1C00A0E3           MOV      R0,#+28
   \   00000154   C00E80E3           ORR      R0,R0,#0xC00
   \   00000158   041080E0           ADD      R1,R0,R4
   \   0000015C   0D00A0E1           MOV      R0,SP
   \   00000160   ........           BL       ??caprintf
    205            }
    206              if (labels[6].ChangeEveryTime)
   \                     ??optimized_InitLbls_6:
   \   00000164   D60ED5E5           LDRB     R0,[R5, #+3798]
   \   00000168   8860A0E3           MOV      R6,#+136
   \   0000016C   E06E86E3           ORR      R6,R6,#0xE00
   \   00000170   000050E3           CMP      R0,#+0
   \   00000174   0900000A           BEQ      ??optimized_InitLbls_7
    207            {
    208              char2unicode(lbl,LABEL7_NAME,strlen(LABEL7_NAME));
   \   00000178   ........           LDR      R7,??DataTable15  ;; LABEL7_NAME
   \   0000017C   0700A0E1           MOV      R0,R7
   \   00000180   5A0100EF           SWI      +346
   \   00000184   0020A0E1           MOV      R2,R0
   \   00000188   0710A0E1           MOV      R1,R7
   \   0000018C   0D00A0E1           MOV      R0,SP
   \   00000190   ........           _BLF     ??char2unicode,??char2unicode??rA
    209              caprintf(lbl,labels[6].label);
   \   00000194   041086E0           ADD      R1,R6,R4
   \   00000198   0D00A0E1           MOV      R0,SP
   \   0000019C   ........           BL       ??caprintf
    210            }
    211              if (labels[7].ChangeEveryTime)
   \                     ??optimized_InitLbls_7:
   \   000001A0   1000A0E3           MOV      R0,#+16
   \   000001A4   4C0D80E3           ORR      R0,R0,#0x1300
   \   000001A8   047080E0           ADD      R7,R0,R4
   \   000001AC   870F40E2           SUB      R0,R0,#+540
   \   000001B0   048080E0           ADD      R8,R0,R4
   \   000001B4   4E00D7E5           LDRB     R0,[R7, #+78]
   \   000001B8   000050E3           CMP      R0,#+0
   \   000001BC   0900000A           BEQ      ??optimized_InitLbls_8
    212            {
    213              char2unicode(lbl,LABEL8_NAME,strlen(LABEL8_NAME));
   \   000001C0   ........           LDR      R9,??DataTable16  ;; LABEL8_NAME
   \   000001C4   0900A0E1           MOV      R0,R9
   \   000001C8   5A0100EF           SWI      +346
   \   000001CC   0020A0E1           MOV      R2,R0
   \   000001D0   0910A0E1           MOV      R1,R9
   \   000001D4   0D00A0E1           MOV      R0,SP
   \   000001D8   ........           _BLF     ??char2unicode,??char2unicode??rA
    214              caprintf(lbl,labels[7].label);
   \   000001DC   0810A0E1           MOV      R1,R8
   \   000001E0   0D00A0E1           MOV      R0,SP
   \   000001E4   ........           BL       ??caprintf
    215            }
    216              if (labels[8].ChangeEveryTime)
   \                     ??optimized_InitLbls_8:
   \   000001E8   6000A0E3           MOV      R0,#+96
   \   000001EC   4C0D80E3           ORR      R0,R0,#0x1300
   \   000001F0   049080E0           ADD      R9,R0,R4
   \   000001F4   BA02D7E5           LDRB     R0,[R7, #+698]
   \   000001F8   000050E3           CMP      R0,#+0
   \   000001FC   0900000A           BEQ      ??optimized_InitLbls_9
    217            {
    218              char2unicode(lbl,LABEL9_NAME,strlen(LABEL9_NAME));
   \   00000200   ........           LDR      R10,??DataTable17  ;; LABEL9_NAME
   \   00000204   0A00A0E1           MOV      R0,R10
   \   00000208   5A0100EF           SWI      +346
   \   0000020C   0020A0E1           MOV      R2,R0
   \   00000210   0A10A0E1           MOV      R1,R10
   \   00000214   0D00A0E1           MOV      R0,SP
   \   00000218   ........           _BLF     ??char2unicode,??char2unicode??rA
    219              caprintf(lbl,labels[8].label);
   \   0000021C   0910A0E1           MOV      R1,R9
   \   00000220   0D00A0E1           MOV      R0,SP
   \   00000224   ........           BL       ??caprintf
    220            }
    221            if (labels[9].ChangeEveryTime)
   \                     ??optimized_InitLbls_9:
   \   00000228   CC00A0E3           MOV      R0,#+204
   \   0000022C   540D80E3           ORR      R0,R0,#0x1500
   \   00000230   04A080E0           ADD      R10,R0,R4
   \   00000234   2605D7E5           LDRB     R0,[R7, #+1318]
   \   00000238   000050E3           CMP      R0,#+0
   \   0000023C   0900000A           BEQ      ??optimized_InitLbls_10
    222            {
    223              char2unicode(lbl,LABEL10_NAME,strlen(LABEL10_NAME));
   \   00000240   ........           LDR      R11,??DataTable18  ;; LABEL10_NAME
   \   00000244   0B00A0E1           MOV      R0,R11
   \   00000248   5A0100EF           SWI      +346
   \   0000024C   0020A0E1           MOV      R2,R0
   \   00000250   0B10A0E1           MOV      R1,R11
   \   00000254   0D00A0E1           MOV      R0,SP
   \   00000258   ........           _BLF     ??char2unicode,??char2unicode??rA
    224              caprintf(lbl,labels[9].label);
   \   0000025C   0A10A0E1           MOV      R1,R10
   \   00000260   0D00A0E1           MOV      R0,SP
   \   00000264   ........           BL       ??caprintf
    225            }
    226            if (ScrollingMode)
   \                     ??optimized_InitLbls_10:
   \   00000268   ........           LDR      R0,??DataTable23  ;; ScrollingMode
   \   0000026C   000090E5           LDR      R0,[R0, #+0]
   \   00000270   000050E3           CMP      R0,#+0
   \   00000274   2A00000A           BEQ      ??optimized_InitLbls_11
    227            {
    228              labels[0].scr.SCROLL_FLEN=GetLabelSize(labels[0].label,labels[0].Font);
   \   00000278   001095E5           LDR      R1,[R5, #+0]
   \   0000027C   0400A0E1           MOV      R0,R4
   \   00000280   ........           BL       ??GetLabelSize
    229              labels[1].scr.SCROLL_FLEN=GetLabelSize(labels[1].label,labels[1].Font);
   \   00000284   6C1295E5           LDR      R1,[R5, #+620]
   \   00000288   2C0085E5           STR      R0,[R5, #+44]
   \   0000028C   9B0F84E2           ADD      R0,R4,#+620
   \   00000290   ........           BL       ??GetLabelSize
    230              labels[2].scr.SCROLL_FLEN=GetLabelSize(labels[2].label,labels[2].Font);
   \   00000294   D81495E5           LDR      R1,[R5, #+1240]
   \   00000298   980285E5           STR      R0,[R5, #+664]
   \   0000029C   9B0E46E2           SUB      R0,R6,#+2480
   \   000002A0   040080E0           ADD      R0,R0,R4
   \   000002A4   ........           BL       ??GetLabelSize
    231              labels[3].scr.SCROLL_FLEN=GetLabelSize(labels[3].label,labels[3].Font);
   \   000002A8   441795E5           LDR      R1,[R5, #+1860]
   \   000002AC   040585E5           STR      R0,[R5, #+1284]
   \   000002B0   A600A0E1           MOV      R0,R6, LSR #+1
   \   000002B4   040080E0           ADD      R0,R0,R4
   \   000002B8   ........           BL       ??GetLabelSize
    232              labels[4].scr.SCROLL_FLEN=GetLabelSize(labels[4].label,labels[4].Font);
   \   000002BC   B01995E5           LDR      R1,[R5, #+2480]
   \   000002C0   700785E5           STR      R0,[R5, #+1904]
   \   000002C4   9B0E84E2           ADD      R0,R4,#+2480
   \   000002C8   ........           BL       ??GetLabelSize
    233              labels[5].scr.SCROLL_FLEN=GetLabelSize(labels[5].label,labels[5].Font);
   \   000002CC   1C1C95E5           LDR      R1,[R5, #+3100]
   \   000002D0   DC0985E5           STR      R0,[R5, #+2524]
   \   000002D4   9B0F46E2           SUB      R0,R6,#+620
   \   000002D8   040080E0           ADD      R0,R0,R4
   \   000002DC   ........           BL       ??GetLabelSize
    234              labels[6].scr.SCROLL_FLEN=GetLabelSize(labels[6].label,labels[6].Font);
   \   000002E0   881E95E5           LDR      R1,[R5, #+3720]
   \   000002E4   480C85E5           STR      R0,[R5, #+3144]
   \   000002E8   040086E0           ADD      R0,R6,R4
   \   000002EC   ........           BL       ??GetLabelSize
    235              labels[7].scr.SCROLL_FLEN=GetLabelSize(labels[7].label,labels[7].Font);
   \   000002F0   001097E5           LDR      R1,[R7, #+0]
   \   000002F4   B40E85E5           STR      R0,[R5, #+3764]
   \   000002F8   0800A0E1           MOV      R0,R8
   \   000002FC   ........           BL       ??GetLabelSize
    236              labels[8].scr.SCROLL_FLEN=GetLabelSize(labels[8].label,labels[8].Font);
   \   00000300   6C1297E5           LDR      R1,[R7, #+620]
   \   00000304   2C0087E5           STR      R0,[R7, #+44]
   \   00000308   0900A0E1           MOV      R0,R9
   \   0000030C   ........           BL       ??GetLabelSize
    237              labels[9].scr.SCROLL_FLEN=GetLabelSize(labels[9].label,labels[9].Font);
   \   00000310   D81497E5           LDR      R1,[R7, #+1240]
   \   00000314   980287E5           STR      R0,[R7, #+664]
   \   00000318   0A00A0E1           MOV      R0,R10
   \   0000031C   ........           BL       ??GetLabelSize
   \   00000320   040587E5           STR      R0,[R7, #+1284]
    238            }
    239            lbl_ofill();
   \                     ??optimized_InitLbls_11:
   \   00000324   ........           BL       ??lbl_ofill
    240          };
   \   00000328   80DF8DE2           ADD      SP,SP,#+512
   \   0000032C   F08FBDE8           POP      {R4-R11,PC}      ;; return
    241          

   \                                 In segment CODE, align 4, keep-with-next
    242          void InitLbls()
    243          {
   \                     ??InitLbls:
   \   00000000   F04F2DE9           PUSH     {R4-R11,LR}
    244            lbl_kill();
    245            wchar_t lbl[256];
    246            char2unicode(lbl,LABEL1_NAME,strlen(LABEL1_NAME));
   \   00000004   ........           LDR      R4,??DataTable12  ;; LABEL1_NAME
    247            caprintf(lbl,labels[0].label);
    248            
    249            char2unicode(lbl,LABEL2_NAME,strlen(LABEL2_NAME));
   \   00000008   ........           LDR      R5,??DataTable13  ;; LABEL2_NAME
    250            caprintf(lbl,labels[1].label);
    251            
    252            char2unicode(lbl,LABEL3_NAME,strlen(LABEL3_NAME));
    253            caprintf(lbl,labels[2].label);
    254            
    255            char2unicode(lbl,LABEL4_NAME,strlen(LABEL4_NAME));
    256            caprintf(lbl,labels[3].label);
    257            
    258            char2unicode(lbl,LABEL5_NAME,strlen(LABEL5_NAME));
    259            caprintf(lbl,labels[4].label);
    260            
    261            char2unicode(lbl,LABEL6_NAME,strlen(LABEL6_NAME));
   \   0000000C   ........           LDR      R6,??DataTable14  ;; LABEL6_NAME
    262            caprintf(lbl,labels[5].label);
    263                                
    264            char2unicode(lbl,LABEL7_NAME,strlen(LABEL7_NAME));
   \   00000010   ........           LDR      R7,??DataTable15  ;; LABEL7_NAME
    265            caprintf(lbl,labels[6].label);
    266            
    267            char2unicode(lbl,LABEL8_NAME,strlen(LABEL8_NAME));
   \   00000014   ........           LDR      R8,??DataTable16  ;; LABEL8_NAME
    268            caprintf(lbl,labels[7].label);
    269            
    270            char2unicode(lbl,LABEL9_NAME,strlen(LABEL9_NAME));
   \   00000018   ........           LDR      R9,??DataTable17  ;; LABEL9_NAME
    271            caprintf(lbl,labels[8].label);
    272            
    273            char2unicode(lbl,LABEL10_NAME,strlen(LABEL10_NAME));
   \   0000001C   ........           LDR      R10,??DataTable18  ;; LABEL10_NAME
   \   00000020   80DF4DE2           SUB      SP,SP,#+512
   \   00000024   ........           BL       ??lbl_kill
   \   00000028   0400A0E1           MOV      R0,R4
   \   0000002C   5A0100EF           SWI      +346
   \   00000030   0410A0E1           MOV      R1,R4
   \   00000034   ........           LDR      R4,??DataTable19  ;; labels
   \   00000038   0020A0E1           MOV      R2,R0
   \   0000003C   0D00A0E1           MOV      R0,SP
   \   00000040   ........           _BLF     ??char2unicode,??char2unicode??rA
   \   00000044   0410A0E1           MOV      R1,R4
   \   00000048   0D00A0E1           MOV      R0,SP
   \   0000004C   ........           BL       ??caprintf
   \   00000050   0500A0E1           MOV      R0,R5
   \   00000054   5A0100EF           SWI      +346
   \   00000058   0510A0E1           MOV      R1,R5
   \   0000005C   ........           LDR      R5,??DataTable20  ;; LABEL3_NAME
   \   00000060   0020A0E1           MOV      R2,R0
   \   00000064   0D00A0E1           MOV      R0,SP
   \   00000068   ........           _BLF     ??char2unicode,??char2unicode??rA
   \   0000006C   9B1F84E2           ADD      R1,R4,#+620
   \   00000070   0D00A0E1           MOV      R0,SP
   \   00000074   ........           BL       ??caprintf
   \   00000078   0500A0E1           MOV      R0,R5
   \   0000007C   5A0100EF           SWI      +346
   \   00000080   0510A0E1           MOV      R1,R5
   \   00000084   ........           LDR      R5,??DataTable21  ;; LABEL4_NAME
   \   00000088   0020A0E1           MOV      R2,R0
   \   0000008C   0D00A0E1           MOV      R0,SP
   \   00000090   ........           _BLF     ??char2unicode,??char2unicode??rA
   \   00000094   D800A0E3           MOV      R0,#+216
   \   00000098   400E80E3           ORR      R0,R0,#0x400
   \   0000009C   041080E0           ADD      R1,R0,R4
   \   000000A0   0D00A0E1           MOV      R0,SP
   \   000000A4   ........           BL       ??caprintf
   \   000000A8   0500A0E1           MOV      R0,R5
   \   000000AC   5A0100EF           SWI      +346
   \   000000B0   0510A0E1           MOV      R1,R5
   \   000000B4   ........           LDR      R5,??DataTable22  ;; LABEL5_NAME
   \   000000B8   0020A0E1           MOV      R2,R0
   \   000000BC   0D00A0E1           MOV      R0,SP
   \   000000C0   ........           _BLF     ??char2unicode,??char2unicode??rA
   \   000000C4   4400A0E3           MOV      R0,#+68
   \   000000C8   700E80E3           ORR      R0,R0,#0x700
   \   000000CC   041080E0           ADD      R1,R0,R4
   \   000000D0   0D00A0E1           MOV      R0,SP
   \   000000D4   ........           BL       ??caprintf
   \   000000D8   0500A0E1           MOV      R0,R5
   \   000000DC   5A0100EF           SWI      +346
   \   000000E0   0020A0E1           MOV      R2,R0
   \   000000E4   0510A0E1           MOV      R1,R5
   \   000000E8   0D00A0E1           MOV      R0,SP
   \   000000EC   ........           _BLF     ??char2unicode,??char2unicode??rA
   \   000000F0   9B5EA0E3           MOV      R5,#+2480
   \   000000F4   041085E0           ADD      R1,R5,R4
   \   000000F8   0D00A0E1           MOV      R0,SP
   \   000000FC   ........           BL       ??caprintf
   \   00000100   0600A0E1           MOV      R0,R6
   \   00000104   5A0100EF           SWI      +346
   \   00000108   0020A0E1           MOV      R2,R0
   \   0000010C   0610A0E1           MOV      R1,R6
   \   00000110   0D00A0E1           MOV      R0,SP
   \   00000114   ........           _BLF     ??char2unicode,??char2unicode??rA
   \   00000118   9B6F85E2           ADD      R6,R5,#+620
   \   0000011C   041086E0           ADD      R1,R6,R4
   \   00000120   0D00A0E1           MOV      R0,SP
   \   00000124   ........           BL       ??caprintf
   \   00000128   0700A0E1           MOV      R0,R7
   \   0000012C   5A0100EF           SWI      +346
   \   00000130   0020A0E1           MOV      R2,R0
   \   00000134   0710A0E1           MOV      R1,R7
   \   00000138   0D00A0E1           MOV      R0,SP
   \   0000013C   ........           _BLF     ??char2unicode,??char2unicode??rA
   \   00000140   9B7F86E2           ADD      R7,R6,#+620
   \   00000144   041087E0           ADD      R1,R7,R4
   \   00000148   0D00A0E1           MOV      R0,SP
   \   0000014C   ........           BL       ??caprintf
   \   00000150   0800A0E1           MOV      R0,R8
   \   00000154   5A0100EF           SWI      +346
   \   00000158   0020A0E1           MOV      R2,R0
   \   0000015C   0810A0E1           MOV      R1,R8
   \   00000160   0D00A0E1           MOV      R0,SP
   \   00000164   ........           _BLF     ??char2unicode,??char2unicode??rA
   \   00000168   9B0F87E2           ADD      R0,R7,#+620
   \   0000016C   048080E0           ADD      R8,R0,R4
   \   00000170   0810A0E1           MOV      R1,R8
   \   00000174   0D00A0E1           MOV      R0,SP
   \   00000178   ........           BL       ??caprintf
   \   0000017C   0900A0E1           MOV      R0,R9
   \   00000180   5A0100EF           SWI      +346
   \   00000184   0020A0E1           MOV      R2,R0
   \   00000188   0910A0E1           MOV      R1,R9
   \   0000018C   0D00A0E1           MOV      R0,SP
   \   00000190   ........           _BLF     ??char2unicode,??char2unicode??rA
   \   00000194   9B0E85E2           ADD      R0,R5,#+2480
   \   00000198   049080E0           ADD      R9,R0,R4
   \   0000019C   0910A0E1           MOV      R1,R9
   \   000001A0   0D00A0E1           MOV      R0,SP
   \   000001A4   ........           BL       ??caprintf
   \   000001A8   0A00A0E1           MOV      R0,R10
   \   000001AC   5A0100EF           SWI      +346
   \   000001B0   0020A0E1           MOV      R2,R0
   \   000001B4   0A10A0E1           MOV      R1,R10
   \   000001B8   0D00A0E1           MOV      R0,SP
   \   000001BC   ........           _BLF     ??char2unicode,??char2unicode??rA
    274            caprintf(lbl,labels[9].label);
   \   000001C0   9B0E86E2           ADD      R0,R6,#+2480
   \   000001C4   04A080E0           ADD      R10,R0,R4
   \   000001C8   0A10A0E1           MOV      R1,R10
   \   000001CC   0D00A0E1           MOV      R0,SP
   \   000001D0   ........           BL       ??caprintf
    275            
    276            if (ScrollingMode)
   \   000001D4   ........           LDR      R0,??DataTable23  ;; ScrollingMode
   \   000001D8   000090E5           LDR      R0,[R0, #+0]
   \   000001DC   000050E3           CMP      R0,#+0
   \   000001E0   2C00000A           BEQ      ??InitLbls_1
    277            {
    278              labels[0].scr.SCROLL_FLEN=GetLabelSize(labels[0].label,labels[0].Font);
   \   000001E4   87BF84E2           ADD      R11,R4,#+540
   \   000001E8   00109BE5           LDR      R1,[R11, #+0]
   \   000001EC   0400A0E1           MOV      R0,R4
   \   000001F0   ........           BL       ??GetLabelSize
    279              labels[1].scr.SCROLL_FLEN=GetLabelSize(labels[1].label,labels[1].Font);
   \   000001F4   6C129BE5           LDR      R1,[R11, #+620]
   \   000001F8   2C008BE5           STR      R0,[R11, #+44]
   \   000001FC   9B0F84E2           ADD      R0,R4,#+620
   \   00000200   ........           BL       ??GetLabelSize
    280              labels[2].scr.SCROLL_FLEN=GetLabelSize(labels[2].label,labels[2].Font);
   \   00000204   D8149BE5           LDR      R1,[R11, #+1240]
   \   00000208   98028BE5           STR      R0,[R11, #+664]
   \   0000020C   A500A0E1           MOV      R0,R5, LSR #+1
   \   00000210   040080E0           ADD      R0,R0,R4
   \   00000214   ........           BL       ??GetLabelSize
    281              labels[3].scr.SCROLL_FLEN=GetLabelSize(labels[3].label,labels[3].Font);
   \   00000218   44179BE5           LDR      R1,[R11, #+1860]
   \   0000021C   04058BE5           STR      R0,[R11, #+1284]
   \   00000220   9B0F45E2           SUB      R0,R5,#+620
   \   00000224   040080E0           ADD      R0,R0,R4
   \   00000228   ........           BL       ??GetLabelSize
    282              labels[4].scr.SCROLL_FLEN=GetLabelSize(labels[4].label,labels[4].Font);
   \   0000022C   B0199BE5           LDR      R1,[R11, #+2480]
   \   00000230   70078BE5           STR      R0,[R11, #+1904]
   \   00000234   040085E0           ADD      R0,R5,R4
   \   00000238   ........           BL       ??GetLabelSize
    283              labels[5].scr.SCROLL_FLEN=GetLabelSize(labels[5].label,labels[5].Font);
   \   0000023C   1C1C9BE5           LDR      R1,[R11, #+3100]
   \   00000240   DC098BE5           STR      R0,[R11, #+2524]
   \   00000244   040086E0           ADD      R0,R6,R4
   \   00000248   ........           BL       ??GetLabelSize
    284              labels[6].scr.SCROLL_FLEN=GetLabelSize(labels[6].label,labels[6].Font);
   \   0000024C   881E9BE5           LDR      R1,[R11, #+3720]
   \   00000250   480C8BE5           STR      R0,[R11, #+3144]
   \   00000254   040087E0           ADD      R0,R7,R4
   \   00000258   ........           BL       ??GetLabelSize
   \   0000025C   B40E8BE5           STR      R0,[R11, #+3764]
    285              labels[7].scr.SCROLL_FLEN=GetLabelSize(labels[7].label,labels[7].Font);
   \   00000260   960E85E2           ADD      R0,R5,#+2400
   \   00000264   044080E0           ADD      R4,R0,R4
   \   00000268   001094E5           LDR      R1,[R4, #+0]
   \   0000026C   0800A0E1           MOV      R0,R8
   \   00000270   ........           BL       ??GetLabelSize
    286              labels[8].scr.SCROLL_FLEN=GetLabelSize(labels[8].label,labels[8].Font);
   \   00000274   6C1294E5           LDR      R1,[R4, #+620]
   \   00000278   2C0084E5           STR      R0,[R4, #+44]
   \   0000027C   0900A0E1           MOV      R0,R9
   \   00000280   ........           BL       ??GetLabelSize
    287              labels[9].scr.SCROLL_FLEN=GetLabelSize(labels[9].label,labels[9].Font);
   \   00000284   D81494E5           LDR      R1,[R4, #+1240]
   \   00000288   980284E5           STR      R0,[R4, #+664]
   \   0000028C   0A00A0E1           MOV      R0,R10
   \   00000290   ........           BL       ??GetLabelSize
   \   00000294   040584E5           STR      R0,[R4, #+1284]
    288            }
    289            lbl_fill();
   \                     ??InitLbls_1:
   \   00000298   ........           BL       ??lbl_fill
    290          };
   \   0000029C   80DF8DE2           ADD      SP,SP,#+512
   \   000002A0   F08FBDE8           POP      {R4-R11,PC}      ;; return
    291          

   \                                 In segment CODE, align 4, keep-with-next
    292          int Font_GetHeight(int FONT)
    293          {
   \                     ??Font_GetHeight:
   \   00000000   00402DE9           PUSH     {LR}
    294            SetFont(FONT);
   \   00000004   F10100EF           SWI      +497
    295            return GetImageHeight(' ');
   \   00000008   2000A0E3           MOV      R0,#+32
   \   0000000C   940200EF           SWI      +660
   \   00000010   0080BDE8           POP      {PC}             ;; return
    296          };
    297          

   \                                 In segment CODE, align 4, keep-with-next
    298          void CustomLbls()
    299          {
   \                     ??CustomLbls:
   \   00000000   F0402DE9           PUSH     {R4-R7,LR}
    300            memset(labels,0,sizeof(LABEL)*NUM);
   \   00000004   484B9FE5           LDR      R4,??CustomLbls_1  ;; labels
   \   00000008   3820A0E3           MOV      R2,#+56
   \   0000000C   602D82E3           ORR      R2,R2,#0x1800
   \   00000010   0010A0E3           MOV      R1,#+0
   \   00000014   0400A0E1           MOV      R0,R4
   \   00000018   120100EF           SWI      +274
    301            // Записываем всякую инфу в структуры надписей из бкфг.
    302            img.x=CustomRC.x1;
   \   0000001C   340B9FE5           LDR      R0,??CustomLbls_1+0x4  ;; CustomRC
   \   00000020   B010D0E1           LDRH     R1,[R0, #+0]
   \   00000024   B430D0E1           LDRH     R3,[R0, #+4]
    303            img.y=CustomRC.y1;
    304            img.mx=CustomRC.x2-CustomRC.x1;
   \   00000028   B250D0E1           LDRH     R5,[R0, #+2]
    305            img.my=CustomRC.y2-CustomRC.y1;
   \   0000002C   B600D0E1           LDRH     R0,[R0, #+6]
   \   00000030   242B9FE5           LDR      R2,??CustomLbls_1+0x8  ;; img
    306              
    307            locCover_X=CoverRC.x1;
    308            locCover_Y=CoverRC.y1;
    309            locCover_MaxX=CoverRC.x2-CoverRC.x1;
    310            locCover_MaxY=CoverRC.y2-CoverRC.y1;
    311            
    312            //Label1
    313            labels[0].SHOW=LABEL1_SHOW;
   \   00000034   817F84E2           ADD      R7,R4,#+516
   \   00000038   030040E0           SUB      R0,R0,R3
   \   0000003C   100082E5           STR      R0,[R2, #+16]
   \   00000040   180B9FE5           LDR      R0,??CustomLbls_1+0xC  ;; CoverRC
   \   00000044   041082E5           STR      R1,[R2, #+4]
   \   00000048   011045E0           SUB      R1,R5,R1
   \   0000004C   B250D0E1           LDRH     R5,[R0, #+2]
   \   00000050   0C1082E5           STR      R1,[R2, #+12]
   \   00000054   B010D0E1           LDRH     R1,[R0, #+0]
   \   00000058   083082E5           STR      R3,[R2, #+8]
   \   0000005C   002B9FE5           LDR      R2,??CustomLbls_1+0x10  ;; locCover_X
   \   00000060   003B9FE5           LDR      R3,??CustomLbls_1+0x14  ;; locCover_Y
   \   00000064   001082E5           STR      R1,[R2, #+0]
   \   00000068   B420D0E1           LDRH     R2,[R0, #+4]
   \   0000006C   B600D0E1           LDRH     R0,[R0, #+6]
   \   00000070   011045E0           SUB      R1,R5,R1
   \   00000074   002083E5           STR      R2,[R3, #+0]
   \   00000078   EC3A9FE5           LDR      R3,??CustomLbls_1+0x18  ;; locCover_MaxX
   \   0000007C   020040E0           SUB      R0,R0,R2
    314            
    315            labels[0].X=LABEL1_X_POS;
    316            labels[0].Y=LABEL1_Y_POS;
    317          
    318            labels[0].Color=LABEL1_COLOR1;
    319            labels[0].borderColor=LABEL1_COLOR2;
    320            labels[0].Font=LABEL1_FONT;
    321            labels[0].CT=LABEL1_CT;
   \   00000080   E82A9FE5           LDR      R2,??CustomLbls_1+0x1C  ;; LABEL1_CT
   \   00000084   001083E5           STR      R1,[R3, #+0]
   \   00000088   E41A9FE5           LDR      R1,??CustomLbls_1+0x20  ;; locCover_MaxY
   \   0000008C   002092E5           LDR      R2,[R2, #+0]
   \   00000090   000081E5           STR      R0,[R1, #+0]
   \   00000094   DC0A9FE5           LDR      R0,??CustomLbls_1+0x24  ;; LABEL1_SHOW
   \   00000098   142087E5           STR      R2,[R7, #+20]
   \   0000009C   000090E5           LDR      R0,[R0, #+0]
    322            labels[0].scr.SCROLL_USE=LABEL1_SCROLL_YES;
   \   000000A0   D42A9FE5           LDR      R2,??CustomLbls_1+0x28  ;; LABEL1_SCROLL_YES
   \   000000A4   000050E3           CMP      R0,#+0
   \   000000A8   002092E5           LDR      R2,[R2, #+0]
   \   000000AC   0100A013           MOVNE    R0,#+1
   \   000000B0   0000C7E5           STRB     R0,[R7, #+0]
   \   000000B4   C40A9FE5           LDR      R0,??CustomLbls_1+0x2C  ;; LABEL1_X_POS
   \   000000B8   000052E3           CMP      R2,#+0
   \   000000BC   001090E5           LDR      R1,[R0, #+0]
   \   000000C0   041087E5           STR      R1,[R7, #+4]
   \   000000C4   B80A9FE5           LDR      R0,??CustomLbls_1+0x30  ;; LABEL1_Y_POS
    323            labels[0].scr.SCROLL_DEF_X=LABEL1_X_POS;
   \   000000C8   281087E5           STR      R1,[R7, #+40]
    324            labels[0].scr.SCROLL_WHERETO=LABEL1_SCROLL_LR;
   \   000000CC   B41A9FE5           LDR      R1,??CustomLbls_1+0x34  ;; LABEL1_SCROLL_LR
   \   000000D0   000090E5           LDR      R0,[R0, #+0]
   \   000000D4   001091E5           LDR      R1,[R1, #+0]
   \   000000D8   080087E5           STR      R0,[R7, #+8]
   \   000000DC   A80A9FE5           LDR      R0,??CustomLbls_1+0x38  ;; LABEL1_COLOR1
   \   000000E0   2C1087E5           STR      R1,[R7, #+44]
    325            labels[0].scr.SCROLL_LEFT=LABEL1_SCROLL_LEFT;
   \   000000E4   A41A9FE5           LDR      R1,??CustomLbls_1+0x3C  ;; LABEL1_SCROLL_LEFT
   \   000000E8   000090E5           LDR      R0,[R0, #+0]
   \   000000EC   001091E5           LDR      R1,[R1, #+0]
   \   000000F0   0120A013           MOVNE    R2,#+1
   \   000000F4   301087E5           STR      R1,[R7, #+48]
    326            labels[0].scr.SCROLL_RIGHT=LABEL1_SCROLL_RIGHT;
   \   000000F8   941A9FE5           LDR      R1,??CustomLbls_1+0x40  ;; LABEL1_SCROLL_RIGHT
   \   000000FC   1C0087E5           STR      R0,[R7, #+28]
   \   00000100   001091E5           LDR      R1,[R1, #+0]
   \   00000104   8C0A9FE5           LDR      R0,??CustomLbls_1+0x44  ;; LABEL1_COLOR2
   \   00000108   341087E5           STR      R1,[R7, #+52]
    327            labels[0].scr.SCROLL_SPEED=LABEL1_SCROLL_MP;
   \   0000010C   881A9FE5           LDR      R1,??CustomLbls_1+0x48  ;; LABEL1_SCROLL_MP
   \   00000110   000090E5           LDR      R0,[R0, #+0]
   \   00000114   001091E5           LDR      R1,[R1, #+0]
   \   00000118   200087E5           STR      R0,[R7, #+32]
   \   0000011C   7C0A9FE5           LDR      R0,??CustomLbls_1+0x4C  ;; LABEL1_FONT
   \   00000120   381087E5           STR      R1,[R7, #+56]
    328            labels[0].scr.SCROLL_STRLEN=LABEL1_SCROLL_STRLEN;
   \   00000124   781A9FE5           LDR      R1,??CustomLbls_1+0x50  ;; LABEL1_SCROLL_STRLEN
   \   00000128   000090E5           LDR      R0,[R0, #+0]
   \   0000012C   001091E5           LDR      R1,[R1, #+0]
   \   00000130   180087E5           STR      R0,[R7, #+24]
   \   00000134   401087E5           STR      R1,[R7, #+64]
    329            labels[0].ChangeEveryTime=LABEL1_NEED_REDRAW;
   \   00000138   681A9FE5           LDR      R1,??CustomLbls_1+0x54  ;; LABEL1_NEED_REDRAW
   \   0000013C   2420C7E5           STRB     R2,[R7, #+36]
   \   00000140   001091E5           LDR      R1,[R1, #+0]
   \   00000144   0150A0E3           MOV      R5,#+1
   \   00000148   000051E3           CMP      R1,#+0
   \   0000014C   0110A013           MOVNE    R1,#+1
   \   00000150   6610C7E5           STRB     R1,[R7, #+102]
    330            labels[0].LINE_ON=LABEL1_LINE_ON;
   \   00000154   501A9FE5           LDR      R1,??CustomLbls_1+0x58  ;; LABEL1_LINE_ON
   \   00000158   0060A0E3           MOV      R6,#+0
   \   0000015C   001091E5           LDR      R1,[R1, #+0]
   \   00000160   501087E5           STR      R1,[R7, #+80]
    331            labels[0].LINE_DIST=LABEL1_LINE_DIST;
   \   00000164   441A9FE5           LDR      R1,??CustomLbls_1+0x5C  ;; LABEL1_LINE_DIST
   \   00000168   001091E5           LDR      R1,[R1, #+0]
   \   0000016C   541087E5           STR      R1,[R7, #+84]
    332            labels[0].LINE_SIZE=LABEL1_LINE_SIZE;
   \   00000170   3C1A9FE5           LDR      R1,??CustomLbls_1+0x60  ;; LABEL1_LINE_SIZE
   \   00000174   001091E5           LDR      R1,[R1, #+0]
   \   00000178   581087E5           STR      R1,[R7, #+88]
    333            labels[0].FONT_SIZE=Font_GetHeight(labels[0].Font);
   \   0000017C   F10100EF           SWI      +497
   \   00000180   2000A0E3           MOV      R0,#+32
   \   00000184   940200EF           SWI      +660
    334            labels[0].LINE_MINUS=LABEL1_LINE_MINUS;
    335            
    336            //Label2
    337            labels[1].SHOW=LABEL2_SHOW;
    338            labels[1].X=LABEL2_X_POS;
    339            labels[1].Y=LABEL2_Y_POS;
    340            
    341            labels[1].Color=LABEL2_COLOR1;
    342            labels[1].borderColor=LABEL2_COLOR2;
    343            labels[1].Font=LABEL2_FONT;
    344            labels[1].CT=LABEL2_CT;
   \   00000188   282A9FE5           LDR      R2,??CustomLbls_1+0x64  ;; LABEL2_CT
   \   0000018C   600087E5           STR      R0,[R7, #+96]
   \   00000190   240A9FE5           LDR      R0,??CustomLbls_1+0x68  ;; LABEL1_LINE_MINUS
   \   00000194   002092E5           LDR      R2,[R2, #+0]
   \   00000198   000090E5           LDR      R0,[R0, #+0]
   \   0000019C   802287E5           STR      R2,[R7, #+640]
    345            
    346            labels[1].scr.SCROLL_USE=LABEL2_SCROLL_YES;
   \   000001A0   182A9FE5           LDR      R2,??CustomLbls_1+0x6C  ;; LABEL2_SCROLL_YES
   \   000001A4   5C0087E5           STR      R0,[R7, #+92]
   \   000001A8   140A9FE5           LDR      R0,??CustomLbls_1+0x70  ;; LABEL2_SHOW
   \   000001AC   002092E5           LDR      R2,[R2, #+0]
   \   000001B0   000090E5           LDR      R0,[R0, #+0]
   \   000001B4   000050E3           CMP      R0,#+0
   \   000001B8   0100A013           MOVNE    R0,#+1
   \   000001BC   6C02C7E5           STRB     R0,[R7, #+620]
   \   000001C0   000A9FE5           LDR      R0,??CustomLbls_1+0x74  ;; LABEL2_X_POS
   \   000001C4   000052E3           CMP      R2,#+0
   \   000001C8   001090E5           LDR      R1,[R0, #+0]
   \   000001CC   F8099FE5           LDR      R0,??CustomLbls_1+0x78  ;; LABEL2_Y_POS
   \   000001D0   701287E5           STR      R1,[R7, #+624]
   \   000001D4   000090E5           LDR      R0,[R0, #+0]
   \   000001D8   740287E5           STR      R0,[R7, #+628]
   \   000001DC   EC099FE5           LDR      R0,??CustomLbls_1+0x7C  ;; LABEL2_COLOR1
   \   000001E0   000090E5           LDR      R0,[R0, #+0]
   \   000001E4   880287E5           STR      R0,[R7, #+648]
   \   000001E8   E4099FE5           LDR      R0,??CustomLbls_1+0x80  ;; LABEL2_COLOR2
   \   000001EC   000090E5           LDR      R0,[R0, #+0]
   \   000001F0   8C0287E5           STR      R0,[R7, #+652]
   \   000001F4   DC099FE5           LDR      R0,??CustomLbls_1+0x84  ;; LABEL2_FONT
   \   000001F8   000090E5           LDR      R0,[R0, #+0]
   \   000001FC   840287E5           STR      R0,[R7, #+644]
    347            labels[1].scr.SCROLL_DEF_X=LABEL2_X_POS;
   \   00000200   941287E5           STR      R1,[R7, #+660]
    348            labels[1].scr.SCROLL_WHERETO=LABEL2_SCROLL_LR;
   \   00000204   D0199FE5           LDR      R1,??CustomLbls_1+0x88  ;; LABEL2_SCROLL_LR
   \   00000208   0120A013           MOVNE    R2,#+1
   \   0000020C   001091E5           LDR      R1,[R1, #+0]
   \   00000210   9022C7E5           STRB     R2,[R7, #+656]
   \   00000214   981287E5           STR      R1,[R7, #+664]
    349            labels[1].scr.SCROLL_LEFT=LABEL2_SCROLL_LEFT;
   \   00000218   C0199FE5           LDR      R1,??CustomLbls_1+0x8C  ;; LABEL2_SCROLL_LEFT
   \   0000021C   001091E5           LDR      R1,[R1, #+0]
   \   00000220   9C1287E5           STR      R1,[R7, #+668]
    350            labels[1].scr.SCROLL_RIGHT=LABEL2_SCROLL_RIGHT;
   \   00000224   B8199FE5           LDR      R1,??CustomLbls_1+0x90  ;; LABEL2_SCROLL_RIGHT
   \   00000228   001091E5           LDR      R1,[R1, #+0]
   \   0000022C   A01287E5           STR      R1,[R7, #+672]
    351            labels[1].scr.SCROLL_SPEED=LABEL2_SCROLL_MP;
   \   00000230   B0199FE5           LDR      R1,??CustomLbls_1+0x94  ;; LABEL2_SCROLL_MP
   \   00000234   001091E5           LDR      R1,[R1, #+0]
   \   00000238   A41287E5           STR      R1,[R7, #+676]
    352            labels[1].scr.SCROLL_LENGTH=LABEL2_SCROLL_LENGTH;
   \   0000023C   A8199FE5           LDR      R1,??CustomLbls_1+0x98  ;; LABEL2_SCROLL_LENGTH
   \   00000240   001091E5           LDR      R1,[R1, #+0]
   \   00000244   A81287E5           STR      R1,[R7, #+680]
    353            labels[1].scr.SCROLL_STRLEN=LABEL2_SCROLL_STRLEN;
   \   00000248   A0199FE5           LDR      R1,??CustomLbls_1+0x9C  ;; LABEL2_SCROLL_STRLEN
   \   0000024C   001091E5           LDR      R1,[R1, #+0]
   \   00000250   AC1287E5           STR      R1,[R7, #+684]
    354            labels[1].ChangeEveryTime=LABEL2_NEED_REDRAW;
   \   00000254   98199FE5           LDR      R1,??CustomLbls_1+0xA0  ;; LABEL2_NEED_REDRAW
   \   00000258   001091E5           LDR      R1,[R1, #+0]
   \   0000025C   000051E3           CMP      R1,#+0
   \   00000260   0110A013           MOVNE    R1,#+1
   \   00000264   D212C7E5           STRB     R1,[R7, #+722]
    355            labels[1].LINE_ON=LABEL2_LINE_ON;
   \   00000268   88199FE5           LDR      R1,??CustomLbls_1+0xA4  ;; LABEL2_LINE_ON
   \   0000026C   001091E5           LDR      R1,[R1, #+0]
   \   00000270   BC1287E5           STR      R1,[R7, #+700]
    356            labels[1].LINE_DIST=LABEL2_LINE_DIST;
   \   00000274   80199FE5           LDR      R1,??CustomLbls_1+0xA8  ;; LABEL2_LINE_DIST
   \   00000278   001091E5           LDR      R1,[R1, #+0]
   \   0000027C   C01287E5           STR      R1,[R7, #+704]
    357            labels[1].LINE_SIZE=LABEL2_LINE_SIZE;
   \   00000280   78199FE5           LDR      R1,??CustomLbls_1+0xAC  ;; LABEL2_LINE_SIZE
   \   00000284   001091E5           LDR      R1,[R1, #+0]
   \   00000288   C41287E5           STR      R1,[R7, #+708]
    358            labels[1].FONT_SIZE=Font_GetHeight(labels[1].Font);
   \   0000028C   F10100EF           SWI      +497
   \   00000290   2000A0E3           MOV      R0,#+32
   \   00000294   940200EF           SWI      +660
    359            labels[1].LINE_MINUS=LABEL2_LINE_MINUS;
    360            
    361            //Label3
    362            labels[2].SHOW=LABEL3_SHOW;
    363            labels[2].X=LABEL3_X_POS;
    364            labels[2].Y=LABEL3_Y_POS;
    365          
    366            labels[2].Color=LABEL3_COLOR1;
    367            labels[2].borderColor=LABEL3_COLOR2;
    368            labels[2].Font=LABEL3_FONT;
    369            labels[2].CT=LABEL3_CT;
   \   00000298   64299FE5           LDR      R2,??CustomLbls_1+0xB0  ;; LABEL3_CT
   \   0000029C   CC0287E5           STR      R0,[R7, #+716]
   \   000002A0   60099FE5           LDR      R0,??CustomLbls_1+0xB4  ;; LABEL2_LINE_MINUS
   \   000002A4   002092E5           LDR      R2,[R2, #+0]
   \   000002A8   000090E5           LDR      R0,[R0, #+0]
   \   000002AC   EC2487E5           STR      R2,[R7, #+1260]
    370            
    371            labels[2].scr.SCROLL_USE=LABEL3_SCROLL_YES;
   \   000002B0   54299FE5           LDR      R2,??CustomLbls_1+0xB8  ;; LABEL3_SCROLL_YES
   \   000002B4   C80287E5           STR      R0,[R7, #+712]
   \   000002B8   50099FE5           LDR      R0,??CustomLbls_1+0xBC  ;; LABEL3_SHOW
   \   000002BC   002092E5           LDR      R2,[R2, #+0]
   \   000002C0   000090E5           LDR      R0,[R0, #+0]
   \   000002C4   000050E3           CMP      R0,#+0
   \   000002C8   0100A013           MOVNE    R0,#+1
   \   000002CC   D804C7E5           STRB     R0,[R7, #+1240]
   \   000002D0   3C099FE5           LDR      R0,??CustomLbls_1+0xC0  ;; LABEL3_X_POS
   \   000002D4   000052E3           CMP      R2,#+0
   \   000002D8   001090E5           LDR      R1,[R0, #+0]
   \   000002DC   DC1487E5           STR      R1,[R7, #+1244]
   \   000002E0   30099FE5           LDR      R0,??CustomLbls_1+0xC4  ;; LABEL3_Y_POS
    372            labels[2].scr.SCROLL_DEF_X=LABEL3_X_POS;
   \   000002E4   001587E5           STR      R1,[R7, #+1280]
    373            labels[2].scr.SCROLL_WHERETO=LABEL3_SCROLL_LR;
   \   000002E8   2C199FE5           LDR      R1,??CustomLbls_1+0xC8  ;; LABEL3_SCROLL_LR
   \   000002EC   000090E5           LDR      R0,[R0, #+0]
   \   000002F0   001091E5           LDR      R1,[R1, #+0]
   \   000002F4   E00487E5           STR      R0,[R7, #+1248]
   \   000002F8   20099FE5           LDR      R0,??CustomLbls_1+0xCC  ;; LABEL3_COLOR1
   \   000002FC   041587E5           STR      R1,[R7, #+1284]
    374            labels[2].scr.SCROLL_LEFT=LABEL3_SCROLL_LEFT;
   \   00000300   1C199FE5           LDR      R1,??CustomLbls_1+0xD0  ;; LABEL3_SCROLL_LEFT
   \   00000304   000090E5           LDR      R0,[R0, #+0]
   \   00000308   001091E5           LDR      R1,[R1, #+0]
   \   0000030C   0120A013           MOVNE    R2,#+1
   \   00000310   081587E5           STR      R1,[R7, #+1288]
    375            labels[2].scr.SCROLL_RIGHT=LABEL3_SCROLL_RIGHT;
   \   00000314   0C199FE5           LDR      R1,??CustomLbls_1+0xD4  ;; LABEL3_SCROLL_RIGHT
   \   00000318   F40487E5           STR      R0,[R7, #+1268]
   \   0000031C   001091E5           LDR      R1,[R1, #+0]
   \   00000320   04099FE5           LDR      R0,??CustomLbls_1+0xD8  ;; LABEL3_COLOR2
   \   00000324   0C1587E5           STR      R1,[R7, #+1292]
    376            labels[2].scr.SCROLL_SPEED=LABEL3_SCROLL_MP;
   \   00000328   00199FE5           LDR      R1,??CustomLbls_1+0xDC  ;; LABEL3_SCROLL_MP
   \   0000032C   000090E5           LDR      R0,[R0, #+0]
   \   00000330   001091E5           LDR      R1,[R1, #+0]
   \   00000334   F80487E5           STR      R0,[R7, #+1272]
   \   00000338   F4089FE5           LDR      R0,??CustomLbls_1+0xE0  ;; LABEL3_FONT
   \   0000033C   101587E5           STR      R1,[R7, #+1296]
    377            labels[2].scr.SCROLL_LENGTH=LABEL3_SCROLL_LENGTH;
   \   00000340   F0189FE5           LDR      R1,??CustomLbls_1+0xE4  ;; LABEL3_SCROLL_LENGTH
   \   00000344   000090E5           LDR      R0,[R0, #+0]
   \   00000348   001091E5           LDR      R1,[R1, #+0]
   \   0000034C   F00487E5           STR      R0,[R7, #+1264]
   \   00000350   141587E5           STR      R1,[R7, #+1300]
    378            labels[2].scr.SCROLL_STRLEN=LABEL3_SCROLL_STRLEN;
   \   00000354   E0189FE5           LDR      R1,??CustomLbls_1+0xE8  ;; LABEL3_SCROLL_STRLEN
   \   00000358   FC24C7E5           STRB     R2,[R7, #+1276]
   \   0000035C   001091E5           LDR      R1,[R1, #+0]
   \   00000360   181587E5           STR      R1,[R7, #+1304]
    379            labels[2].ChangeEveryTime=LABEL3_NEED_REDRAW;
   \   00000364   D4189FE5           LDR      R1,??CustomLbls_1+0xEC  ;; LABEL3_NEED_REDRAW
   \   00000368   001091E5           LDR      R1,[R1, #+0]
   \   0000036C   000051E3           CMP      R1,#+0
   \   00000370   0110A013           MOVNE    R1,#+1
   \   00000374   3E15C7E5           STRB     R1,[R7, #+1342]
    380            labels[2].LINE_ON=LABEL3_LINE_ON;
   \   00000378   C4189FE5           LDR      R1,??CustomLbls_1+0xF0  ;; LABEL3_LINE_ON
   \   0000037C   001091E5           LDR      R1,[R1, #+0]
   \   00000380   281587E5           STR      R1,[R7, #+1320]
    381            labels[2].LINE_DIST=LABEL3_LINE_DIST;
   \   00000384   BC189FE5           LDR      R1,??CustomLbls_1+0xF4  ;; LABEL3_LINE_DIST
   \   00000388   001091E5           LDR      R1,[R1, #+0]
   \   0000038C   2C1587E5           STR      R1,[R7, #+1324]
    382            labels[2].LINE_SIZE=LABEL3_LINE_SIZE;
   \   00000390   B4189FE5           LDR      R1,??CustomLbls_1+0xF8  ;; LABEL3_LINE_SIZE
   \   00000394   001091E5           LDR      R1,[R1, #+0]
   \   00000398   301587E5           STR      R1,[R7, #+1328]
    383            labels[2].FONT_SIZE=Font_GetHeight(labels[2].Font);
   \   0000039C   F10100EF           SWI      +497
   \   000003A0   2000A0E3           MOV      R0,#+32
   \   000003A4   940200EF           SWI      +660
   \   000003A8   380587E5           STR      R0,[R7, #+1336]
    384            labels[2].LINE_MINUS=LABEL3_LINE_MINUS;
   \   000003AC   9C089FE5           LDR      R0,??CustomLbls_1+0xFC  ;; LABEL3_LINE_MINUS
   \   000003B0   000090E5           LDR      R0,[R0, #+0]
   \   000003B4   340587E5           STR      R0,[R7, #+1332]
    385            
    386            //Label4
    387            labels[3].SHOW=LABEL4_SHOW;
   \   000003B8   94089FE5           LDR      R0,??CustomLbls_1+0x100  ;; LABEL4_SHOW
   \   000003BC   000090E5           LDR      R0,[R0, #+0]
   \   000003C0   000050E3           CMP      R0,#+0
   \   000003C4   0100A013           MOVNE    R0,#+1
   \   000003C8   4407C7E5           STRB     R0,[R7, #+1860]
    388            labels[3].X=LABEL4_X_POS;
   \   000003CC   84089FE5           LDR      R0,??CustomLbls_1+0x104  ;; LABEL4_X_POS
   \   000003D0   001090E5           LDR      R1,[R0, #+0]
    389            labels[3].Y=LABEL4_Y_POS;
   \   000003D4   80089FE5           LDR      R0,??CustomLbls_1+0x108  ;; LABEL4_Y_POS
   \   000003D8   481787E5           STR      R1,[R7, #+1864]
   \   000003DC   000090E5           LDR      R0,[R0, #+0]
   \   000003E0   4C0787E5           STR      R0,[R7, #+1868]
    390          
    391            labels[3].Color=LABEL4_COLOR1;
   \   000003E4   74089FE5           LDR      R0,??CustomLbls_1+0x10C  ;; LABEL4_COLOR1
   \   000003E8   000090E5           LDR      R0,[R0, #+0]
   \   000003EC   600787E5           STR      R0,[R7, #+1888]
    392            labels[3].borderColor=LABEL4_COLOR2;
   \   000003F0   6C089FE5           LDR      R0,??CustomLbls_1+0x110  ;; LABEL4_COLOR2
   \   000003F4   000090E5           LDR      R0,[R0, #+0]
   \   000003F8   640787E5           STR      R0,[R7, #+1892]
    393            labels[3].Font=LABEL4_FONT;
   \   000003FC   64089FE5           LDR      R0,??CustomLbls_1+0x114  ;; LABEL4_FONT
    394            labels[3].CT=LABEL4_CT;
   \   00000400   64289FE5           LDR      R2,??CustomLbls_1+0x118  ;; LABEL4_CT
   \   00000404   000090E5           LDR      R0,[R0, #+0]
   \   00000408   002092E5           LDR      R2,[R2, #+0]
    395            
    396            labels[3].scr.SCROLL_USE=LABEL4_SCROLL_YES;
    397            labels[3].scr.SCROLL_DEF_X=LABEL4_X_POS;
   \   0000040C   6C1787E5           STR      R1,[R7, #+1900]
    398            labels[3].scr.SCROLL_WHERETO=LABEL4_SCROLL_LR;
   \   00000410   58189FE5           LDR      R1,??CustomLbls_1+0x11C  ;; LABEL4_SCROLL_LR
   \   00000414   582787E5           STR      R2,[R7, #+1880]
   \   00000418   001091E5           LDR      R1,[R1, #+0]
   \   0000041C   50289FE5           LDR      R2,??CustomLbls_1+0x120  ;; LABEL4_SCROLL_YES
   \   00000420   701787E5           STR      R1,[R7, #+1904]
    399            labels[3].scr.SCROLL_LEFT=LABEL4_SCROLL_LEFT;
   \   00000424   4C189FE5           LDR      R1,??CustomLbls_1+0x124  ;; LABEL4_SCROLL_LEFT
   \   00000428   002092E5           LDR      R2,[R2, #+0]
   \   0000042C   001091E5           LDR      R1,[R1, #+0]
   \   00000430   000052E3           CMP      R2,#+0
   \   00000434   741787E5           STR      R1,[R7, #+1908]
    400            labels[3].scr.SCROLL_RIGHT=LABEL4_SCROLL_RIGHT;
   \   00000438   3C189FE5           LDR      R1,??CustomLbls_1+0x128  ;; LABEL4_SCROLL_RIGHT
   \   0000043C   0120A013           MOVNE    R2,#+1
   \   00000440   001091E5           LDR      R1,[R1, #+0]
   \   00000444   5C0787E5           STR      R0,[R7, #+1884]
   \   00000448   781787E5           STR      R1,[R7, #+1912]
    401            labels[3].scr.SCROLL_SPEED=LABEL4_SCROLL_MP;
   \   0000044C   2C189FE5           LDR      R1,??CustomLbls_1+0x12C  ;; LABEL4_SCROLL_MP
   \   00000450   6827C7E5           STRB     R2,[R7, #+1896]
   \   00000454   001091E5           LDR      R1,[R1, #+0]
   \   00000458   7C1787E5           STR      R1,[R7, #+1916]
    402            labels[3].scr.SCROLL_LENGTH=LABEL4_SCROLL_LENGTH;
   \   0000045C   20189FE5           LDR      R1,??CustomLbls_1+0x130  ;; LABEL4_SCROLL_LENGTH
   \   00000460   001091E5           LDR      R1,[R1, #+0]
   \   00000464   801787E5           STR      R1,[R7, #+1920]
    403            labels[3].scr.SCROLL_STRLEN=LABEL4_SCROLL_STRLEN;
   \   00000468   18189FE5           LDR      R1,??CustomLbls_1+0x134  ;; LABEL4_SCROLL_STRLEN
   \   0000046C   001091E5           LDR      R1,[R1, #+0]
   \   00000470   841787E5           STR      R1,[R7, #+1924]
    404            labels[3].ChangeEveryTime=LABEL4_NEED_REDRAW;
   \   00000474   10189FE5           LDR      R1,??CustomLbls_1+0x138  ;; LABEL4_NEED_REDRAW
   \   00000478   001091E5           LDR      R1,[R1, #+0]
   \   0000047C   000051E3           CMP      R1,#+0
   \   00000480   0110A013           MOVNE    R1,#+1
   \   00000484   AA17C7E5           STRB     R1,[R7, #+1962]
    405            labels[3].LINE_ON=LABEL4_LINE_ON;
   \   00000488   00189FE5           LDR      R1,??CustomLbls_1+0x13C  ;; LABEL4_LINE_ON
   \   0000048C   001091E5           LDR      R1,[R1, #+0]
   \   00000490   941787E5           STR      R1,[R7, #+1940]
    406            labels[3].LINE_DIST=LABEL4_LINE_DIST;
   \   00000494   F8179FE5           LDR      R1,??CustomLbls_1+0x140  ;; LABEL4_LINE_DIST
   \   00000498   001091E5           LDR      R1,[R1, #+0]
   \   0000049C   981787E5           STR      R1,[R7, #+1944]
    407            labels[3].LINE_SIZE=LABEL4_LINE_SIZE;
   \   000004A0   F0179FE5           LDR      R1,??CustomLbls_1+0x144  ;; LABEL4_LINE_SIZE
   \   000004A4   001091E5           LDR      R1,[R1, #+0]
   \   000004A8   9C1787E5           STR      R1,[R7, #+1948]
    408            labels[3].FONT_SIZE=Font_GetHeight(labels[3].Font);
   \   000004AC   F10100EF           SWI      +497
   \   000004B0   2000A0E3           MOV      R0,#+32
   \   000004B4   940200EF           SWI      +660
    409            labels[3].LINE_MINUS=LABEL4_LINE_MINUS;
    410            
    411            //Label5
    412            labels[4].SHOW=LABEL5_SHOW;
    413            labels[4].X=LABEL5_X_POS;
    414            labels[4].Y=LABEL5_Y_POS;
    415          
    416            labels[4].Color=LABEL5_COLOR1;
    417            labels[4].borderColor=LABEL5_COLOR2;
    418            labels[4].Font=LABEL5_FONT;
    419            labels[4].CT=LABEL5_CT;
   \   000004B8   DC279FE5           LDR      R2,??CustomLbls_1+0x148  ;; LABEL5_CT
   \   000004BC   A40787E5           STR      R0,[R7, #+1956]
   \   000004C0   D8079FE5           LDR      R0,??CustomLbls_1+0x14C  ;; LABEL4_LINE_MINUS
   \   000004C4   002092E5           LDR      R2,[R2, #+0]
   \   000004C8   000090E5           LDR      R0,[R0, #+0]
   \   000004CC   C42987E5           STR      R2,[R7, #+2500]
    420            
    421            labels[4].scr.SCROLL_USE=LABEL5_SCROLL_YES;
   \   000004D0   CC279FE5           LDR      R2,??CustomLbls_1+0x150  ;; LABEL5_SCROLL_YES
   \   000004D4   A00787E5           STR      R0,[R7, #+1952]
   \   000004D8   C8079FE5           LDR      R0,??CustomLbls_1+0x154  ;; LABEL5_SHOW
   \   000004DC   002092E5           LDR      R2,[R2, #+0]
   \   000004E0   000090E5           LDR      R0,[R0, #+0]
   \   000004E4   000050E3           CMP      R0,#+0
   \   000004E8   0100A013           MOVNE    R0,#+1
   \   000004EC   B009C7E5           STRB     R0,[R7, #+2480]
   \   000004F0   B4079FE5           LDR      R0,??CustomLbls_1+0x158  ;; LABEL5_X_POS
   \   000004F4   000052E3           CMP      R2,#+0
   \   000004F8   001090E5           LDR      R1,[R0, #+0]
   \   000004FC   B41987E5           STR      R1,[R7, #+2484]
   \   00000500   A8079FE5           LDR      R0,??CustomLbls_1+0x15C  ;; LABEL5_Y_POS
    422            labels[4].scr.SCROLL_DEF_X=LABEL5_X_POS;
   \   00000504   D81987E5           STR      R1,[R7, #+2520]
    423            labels[4].scr.SCROLL_WHERETO=LABEL5_SCROLL_LR;
   \   00000508   A4179FE5           LDR      R1,??CustomLbls_1+0x160  ;; LABEL5_SCROLL_LR
   \   0000050C   000090E5           LDR      R0,[R0, #+0]
   \   00000510   001091E5           LDR      R1,[R1, #+0]
   \   00000514   B80987E5           STR      R0,[R7, #+2488]
   \   00000518   98079FE5           LDR      R0,??CustomLbls_1+0x164  ;; LABEL5_COLOR1
   \   0000051C   DC1987E5           STR      R1,[R7, #+2524]
    424            labels[4].scr.SCROLL_LEFT=LABEL5_SCROLL_LEFT;
   \   00000520   94179FE5           LDR      R1,??CustomLbls_1+0x168  ;; LABEL5_SCROLL_LEFT
   \   00000524   000090E5           LDR      R0,[R0, #+0]
   \   00000528   001091E5           LDR      R1,[R1, #+0]
   \   0000052C   0120A013           MOVNE    R2,#+1
   \   00000530   E01987E5           STR      R1,[R7, #+2528]
    425            labels[4].scr.SCROLL_RIGHT=LABEL5_SCROLL_RIGHT;
   \   00000534   84179FE5           LDR      R1,??CustomLbls_1+0x16C  ;; LABEL5_SCROLL_RIGHT
   \   00000538   CC0987E5           STR      R0,[R7, #+2508]
   \   0000053C   001091E5           LDR      R1,[R1, #+0]
   \   00000540   7C079FE5           LDR      R0,??CustomLbls_1+0x170  ;; LABEL5_COLOR2
   \   00000544   E41987E5           STR      R1,[R7, #+2532]
    426            labels[4].scr.SCROLL_SPEED=LABEL5_SCROLL_MP;
   \   00000548   78179FE5           LDR      R1,??CustomLbls_1+0x174  ;; LABEL5_SCROLL_MP
   \   0000054C   000090E5           LDR      R0,[R0, #+0]
   \   00000550   001091E5           LDR      R1,[R1, #+0]
   \   00000554   D00987E5           STR      R0,[R7, #+2512]
   \   00000558   6C079FE5           LDR      R0,??CustomLbls_1+0x178  ;; LABEL5_FONT
   \   0000055C   E81987E5           STR      R1,[R7, #+2536]
    427            labels[4].scr.SCROLL_LENGTH=LABEL5_SCROLL_LENGTH;
   \   00000560   68179FE5           LDR      R1,??CustomLbls_1+0x17C  ;; LABEL5_SCROLL_LENGTH
   \   00000564   000090E5           LDR      R0,[R0, #+0]
   \   00000568   001091E5           LDR      R1,[R1, #+0]
   \   0000056C   C80987E5           STR      R0,[R7, #+2504]
   \   00000570   EC1987E5           STR      R1,[R7, #+2540]
    428            labels[4].scr.SCROLL_STRLEN=LABEL5_SCROLL_STRLEN;
   \   00000574   58179FE5           LDR      R1,??CustomLbls_1+0x180  ;; LABEL5_SCROLL_STRLEN
   \   00000578   D429C7E5           STRB     R2,[R7, #+2516]
   \   0000057C   001091E5           LDR      R1,[R1, #+0]
   \   00000580   F01987E5           STR      R1,[R7, #+2544]
    429            labels[4].ChangeEveryTime=LABEL5_NEED_REDRAW;
   \   00000584   4C179FE5           LDR      R1,??CustomLbls_1+0x184  ;; LABEL5_NEED_REDRAW
   \   00000588   001091E5           LDR      R1,[R1, #+0]
   \   0000058C   000051E3           CMP      R1,#+0
   \   00000590   0110A013           MOVNE    R1,#+1
   \   00000594   161AC7E5           STRB     R1,[R7, #+2582]
    430            labels[4].LINE_ON=LABEL5_LINE_ON;
   \   00000598   3C179FE5           LDR      R1,??CustomLbls_1+0x188  ;; LABEL5_LINE_ON
   \   0000059C   001091E5           LDR      R1,[R1, #+0]
   \   000005A0   001A87E5           STR      R1,[R7, #+2560]
    431            labels[4].LINE_DIST=LABEL5_LINE_DIST;
   \   000005A4   34179FE5           LDR      R1,??CustomLbls_1+0x18C  ;; LABEL5_LINE_DIST
   \   000005A8   001091E5           LDR      R1,[R1, #+0]
   \   000005AC   041A87E5           STR      R1,[R7, #+2564]
    432            labels[4].LINE_SIZE=LABEL5_LINE_SIZE;
   \   000005B0   2C179FE5           LDR      R1,??CustomLbls_1+0x190  ;; LABEL5_LINE_SIZE
   \   000005B4   001091E5           LDR      R1,[R1, #+0]
   \   000005B8   081A87E5           STR      R1,[R7, #+2568]
    433            labels[4].FONT_SIZE=Font_GetHeight(labels[4].Font);
   \   000005BC   F10100EF           SWI      +497
   \   000005C0   2000A0E3           MOV      R0,#+32
   \   000005C4   940200EF           SWI      +660
   \   000005C8   100A87E5           STR      R0,[R7, #+2576]
    434            labels[4].LINE_MINUS=LABEL5_LINE_MINUS;
   \   000005CC   14079FE5           LDR      R0,??CustomLbls_1+0x194  ;; LABEL5_LINE_MINUS
   \   000005D0   000090E5           LDR      R0,[R0, #+0]
   \   000005D4   0C0A87E5           STR      R0,[R7, #+2572]
    435            
    436            //Label6
    437            labels[5].SHOW=LABEL6_SHOW;
   \   000005D8   0C079FE5           LDR      R0,??CustomLbls_1+0x198  ;; LABEL6_SHOW
   \   000005DC   000090E5           LDR      R0,[R0, #+0]
   \   000005E0   000050E3           CMP      R0,#+0
   \   000005E4   0100A013           MOVNE    R0,#+1
   \   000005E8   1C0CC7E5           STRB     R0,[R7, #+3100]
    438            labels[5].X=LABEL6_X_POS;
   \   000005EC   FC069FE5           LDR      R0,??CustomLbls_1+0x19C  ;; LABEL6_X_POS
   \   000005F0   001090E5           LDR      R1,[R0, #+0]
    439            labels[5].Y=LABEL6_Y_POS;
   \   000005F4   F8069FE5           LDR      R0,??CustomLbls_1+0x1A0  ;; LABEL6_Y_POS
   \   000005F8   201C87E5           STR      R1,[R7, #+3104]
   \   000005FC   000090E5           LDR      R0,[R0, #+0]
    440          
    441            labels[5].Color=LABEL6_COLOR1;
    442            labels[5].borderColor=LABEL6_COLOR2;
    443            labels[5].Font=LABEL6_FONT;
    444            labels[5].CT=LABEL6_CT;
   \   00000600   F0269FE5           LDR      R2,??CustomLbls_1+0x1A4  ;; LABEL6_CT
    445            labels[5].scr.SCROLL_USE=LABEL6_SCROLL_YES;
    446            labels[5].scr.SCROLL_DEF_X=LABEL6_X_POS;
   \   00000604   441C87E5           STR      R1,[R7, #+3140]
    447            labels[5].scr.SCROLL_WHERETO=LABEL6_SCROLL_LR;
   \   00000608   EC169FE5           LDR      R1,??CustomLbls_1+0x1A8  ;; LABEL6_SCROLL_LR
   \   0000060C   002092E5           LDR      R2,[R2, #+0]
   \   00000610   001091E5           LDR      R1,[R1, #+0]
   \   00000614   302C87E5           STR      R2,[R7, #+3120]
   \   00000618   E0269FE5           LDR      R2,??CustomLbls_1+0x1AC  ;; LABEL6_SCROLL_YES
   \   0000061C   481C87E5           STR      R1,[R7, #+3144]
    448            labels[5].scr.SCROLL_LEFT=LABEL6_SCROLL_LEFT;
   \   00000620   DC169FE5           LDR      R1,??CustomLbls_1+0x1B0  ;; LABEL6_SCROLL_LEFT
   \   00000624   002092E5           LDR      R2,[R2, #+0]
   \   00000628   001091E5           LDR      R1,[R1, #+0]
   \   0000062C   240C87E5           STR      R0,[R7, #+3108]
   \   00000630   D0069FE5           LDR      R0,??CustomLbls_1+0x1B4  ;; LABEL6_COLOR1
   \   00000634   4C1C87E5           STR      R1,[R7, #+3148]
    449            labels[5].scr.SCROLL_RIGHT=LABEL6_SCROLL_RIGHT;
   \   00000638   CC169FE5           LDR      R1,??CustomLbls_1+0x1B8  ;; LABEL6_SCROLL_RIGHT
   \   0000063C   000090E5           LDR      R0,[R0, #+0]
   \   00000640   001091E5           LDR      R1,[R1, #+0]
   \   00000644   000052E3           CMP      R2,#+0
   \   00000648   501C87E5           STR      R1,[R7, #+3152]
    450            labels[5].scr.SCROLL_SPEED=LABEL6_SCROLL_MP;
   \   0000064C   BC169FE5           LDR      R1,??CustomLbls_1+0x1BC  ;; LABEL6_SCROLL_MP
   \   00000650   0120A013           MOVNE    R2,#+1
   \   00000654   001091E5           LDR      R1,[R1, #+0]
   \   00000658   380C87E5           STR      R0,[R7, #+3128]
   \   0000065C   B0069FE5           LDR      R0,??CustomLbls_1+0x1C0  ;; LABEL6_COLOR2
   \   00000660   541C87E5           STR      R1,[R7, #+3156]
    451            labels[5].scr.SCROLL_LENGTH=LABEL6_SCROLL_LENGTH;
   \   00000664   AC169FE5           LDR      R1,??CustomLbls_1+0x1C4  ;; LABEL6_SCROLL_LENGTH
   \   00000668   000090E5           LDR      R0,[R0, #+0]
   \   0000066C   001091E5           LDR      R1,[R1, #+0]
   \   00000670   3C0C87E5           STR      R0,[R7, #+3132]
   \   00000674   A0069FE5           LDR      R0,??CustomLbls_1+0x1C8  ;; LABEL6_FONT
   \   00000678   581C87E5           STR      R1,[R7, #+3160]
    452            labels[5].scr.SCROLL_STRLEN=LABEL6_SCROLL_STRLEN;
   \   0000067C   9C169FE5           LDR      R1,??CustomLbls_1+0x1CC  ;; LABEL6_SCROLL_STRLEN
   \   00000680   000090E5           LDR      R0,[R0, #+0]
   \   00000684   001091E5           LDR      R1,[R1, #+0]
   \   00000688   340C87E5           STR      R0,[R7, #+3124]
   \   0000068C   5C1C87E5           STR      R1,[R7, #+3164]
    453            labels[5].ChangeEveryTime=LABEL6_NEED_REDRAW;
   \   00000690   8C169FE5           LDR      R1,??CustomLbls_1+0x1D0  ;; LABEL6_NEED_REDRAW
   \   00000694   402CC7E5           STRB     R2,[R7, #+3136]
   \   00000698   001091E5           LDR      R1,[R1, #+0]
   \   0000069C   000051E3           CMP      R1,#+0
   \   000006A0   0110A013           MOVNE    R1,#+1
   \   000006A4   821CC7E5           STRB     R1,[R7, #+3202]
    454            labels[5].LINE_ON=LABEL6_LINE_ON;
   \   000006A8   78169FE5           LDR      R1,??CustomLbls_1+0x1D4  ;; LABEL6_LINE_ON
   \   000006AC   001091E5           LDR      R1,[R1, #+0]
   \   000006B0   6C1C87E5           STR      R1,[R7, #+3180]
    455            labels[5].LINE_DIST=LABEL6_LINE_DIST;
   \   000006B4   70169FE5           LDR      R1,??CustomLbls_1+0x1D8  ;; LABEL6_LINE_DIST
   \   000006B8   001091E5           LDR      R1,[R1, #+0]
   \   000006BC   701C87E5           STR      R1,[R7, #+3184]
    456            labels[5].LINE_SIZE=LABEL6_LINE_SIZE;
   \   000006C0   68169FE5           LDR      R1,??CustomLbls_1+0x1DC  ;; LABEL6_LINE_SIZE
   \   000006C4   001091E5           LDR      R1,[R1, #+0]
   \   000006C8   741C87E5           STR      R1,[R7, #+3188]
    457            labels[5].FONT_SIZE=Font_GetHeight(labels[5].Font);
   \   000006CC   F10100EF           SWI      +497
   \   000006D0   2000A0E3           MOV      R0,#+32
   \   000006D4   940200EF           SWI      +660
    458            labels[5].LINE_MINUS=LABEL6_LINE_MINUS;
    459            
    460            //Label7
    461            labels[6].SHOW=LABEL7_SHOW;
    462            labels[6].X=LABEL7_X_POS;
    463            labels[6].Y=LABEL7_Y_POS;
    464          
    465            labels[6].Color=LABEL7_COLOR1;
    466            labels[6].borderColor=LABEL7_COLOR2;
    467            labels[6].Font=LABEL7_FONT;
    468            labels[6].CT=LABEL7_CT;
   \   000006D8   54269FE5           LDR      R2,??CustomLbls_1+0x1E0  ;; LABEL7_CT
   \   000006DC   7C0C87E5           STR      R0,[R7, #+3196]
   \   000006E0   50069FE5           LDR      R0,??CustomLbls_1+0x1E4  ;; LABEL6_LINE_MINUS
   \   000006E4   002092E5           LDR      R2,[R2, #+0]
   \   000006E8   000090E5           LDR      R0,[R0, #+0]
   \   000006EC   9C2E87E5           STR      R2,[R7, #+3740]
    469            labels[6].scr.SCROLL_USE=LABEL7_SCROLL_YES;
   \   000006F0   44269FE5           LDR      R2,??CustomLbls_1+0x1E8  ;; LABEL7_SCROLL_YES
   \   000006F4   780C87E5           STR      R0,[R7, #+3192]
   \   000006F8   40069FE5           LDR      R0,??CustomLbls_1+0x1EC  ;; LABEL7_SHOW
   \   000006FC   002092E5           LDR      R2,[R2, #+0]
   \   00000700   000090E5           LDR      R0,[R0, #+0]
   \   00000704   000050E3           CMP      R0,#+0
   \   00000708   0100A013           MOVNE    R0,#+1
   \   0000070C   880EC7E5           STRB     R0,[R7, #+3720]
   \   00000710   2C069FE5           LDR      R0,??CustomLbls_1+0x1F0  ;; LABEL7_X_POS
   \   00000714   000052E3           CMP      R2,#+0
   \   00000718   001090E5           LDR      R1,[R0, #+0]
   \   0000071C   8C1E87E5           STR      R1,[R7, #+3724]
   \   00000720   20069FE5           LDR      R0,??CustomLbls_1+0x1F4  ;; LABEL7_Y_POS
    470            labels[6].scr.SCROLL_DEF_X=LABEL7_X_POS;
   \   00000724   B01E87E5           STR      R1,[R7, #+3760]
    471            labels[6].scr.SCROLL_WHERETO=LABEL7_SCROLL_LR;
   \   00000728   1C169FE5           LDR      R1,??CustomLbls_1+0x1F8  ;; LABEL7_SCROLL_LR
   \   0000072C   000090E5           LDR      R0,[R0, #+0]
   \   00000730   001091E5           LDR      R1,[R1, #+0]
   \   00000734   900E87E5           STR      R0,[R7, #+3728]
   \   00000738   10069FE5           LDR      R0,??CustomLbls_1+0x1FC  ;; LABEL7_COLOR1
   \   0000073C   B41E87E5           STR      R1,[R7, #+3764]
    472            labels[6].scr.SCROLL_LEFT=LABEL7_SCROLL_LEFT;
   \   00000740   0C169FE5           LDR      R1,??CustomLbls_1+0x200  ;; LABEL7_SCROLL_LEFT
   \   00000744   000090E5           LDR      R0,[R0, #+0]
   \   00000748   001091E5           LDR      R1,[R1, #+0]
   \   0000074C   0120A013           MOVNE    R2,#+1
   \   00000750   B81E87E5           STR      R1,[R7, #+3768]
    473            labels[6].scr.SCROLL_RIGHT=LABEL7_SCROLL_RIGHT;
   \   00000754   FC159FE5           LDR      R1,??CustomLbls_1+0x204  ;; LABEL7_SCROLL_RIGHT
   \   00000758   A40E87E5           STR      R0,[R7, #+3748]
   \   0000075C   001091E5           LDR      R1,[R1, #+0]
   \   00000760   F4059FE5           LDR      R0,??CustomLbls_1+0x208  ;; LABEL7_COLOR2
   \   00000764   BC1E87E5           STR      R1,[R7, #+3772]
    474            labels[6].scr.SCROLL_SPEED=LABEL7_SCROLL_MP;
   \   00000768   F0159FE5           LDR      R1,??CustomLbls_1+0x20C  ;; LABEL7_SCROLL_MP
   \   0000076C   000090E5           LDR      R0,[R0, #+0]
   \   00000770   001091E5           LDR      R1,[R1, #+0]
   \   00000774   A80E87E5           STR      R0,[R7, #+3752]
   \   00000778   E4059FE5           LDR      R0,??CustomLbls_1+0x210  ;; LABEL7_FONT
   \   0000077C   C01E87E5           STR      R1,[R7, #+3776]
    475            labels[6].scr.SCROLL_LENGTH=LABEL7_SCROLL_LENGTH;
   \   00000780   E0159FE5           LDR      R1,??CustomLbls_1+0x214  ;; LABEL7_SCROLL_LENGTH
   \   00000784   000090E5           LDR      R0,[R0, #+0]
   \   00000788   001091E5           LDR      R1,[R1, #+0]
   \   0000078C   A00E87E5           STR      R0,[R7, #+3744]
   \   00000790   C41E87E5           STR      R1,[R7, #+3780]
    476            labels[6].scr.SCROLL_STRLEN=LABEL7_SCROLL_STRLEN;
   \   00000794   D0159FE5           LDR      R1,??CustomLbls_1+0x218  ;; LABEL7_SCROLL_STRLEN
   \   00000798   AC2EC7E5           STRB     R2,[R7, #+3756]
   \   0000079C   001091E5           LDR      R1,[R1, #+0]
   \   000007A0   C81E87E5           STR      R1,[R7, #+3784]
    477            labels[6].ChangeEveryTime=LABEL7_NEED_REDRAW;
   \   000007A4   C4159FE5           LDR      R1,??CustomLbls_1+0x21C  ;; LABEL7_NEED_REDRAW
   \   000007A8   001091E5           LDR      R1,[R1, #+0]
   \   000007AC   000051E3           CMP      R1,#+0
   \   000007B0   0110A013           MOVNE    R1,#+1
   \   000007B4   EE1EC7E5           STRB     R1,[R7, #+3822]
    478            labels[6].LINE_ON=LABEL7_LINE_ON;
   \   000007B8   B4159FE5           LDR      R1,??CustomLbls_1+0x220  ;; LABEL7_LINE_ON
   \   000007BC   001091E5           LDR      R1,[R1, #+0]
   \   000007C0   D81E87E5           STR      R1,[R7, #+3800]
    479            labels[6].LINE_DIST=LABEL7_LINE_DIST;
   \   000007C4   AC159FE5           LDR      R1,??CustomLbls_1+0x224  ;; LABEL7_LINE_DIST
   \   000007C8   001091E5           LDR      R1,[R1, #+0]
   \   000007CC   DC1E87E5           STR      R1,[R7, #+3804]
    480            labels[6].LINE_SIZE=LABEL7_LINE_SIZE;  
   \   000007D0   A4159FE5           LDR      R1,??CustomLbls_1+0x228  ;; LABEL7_LINE_SIZE
   \   000007D4   001091E5           LDR      R1,[R1, #+0]
   \   000007D8   E01E87E5           STR      R1,[R7, #+3808]
    481            labels[6].FONT_SIZE=Font_GetHeight(labels[6].Font);
   \   000007DC   F10100EF           SWI      +497
   \   000007E0   2000A0E3           MOV      R0,#+32
   \   000007E4   940200EF           SWI      +660
   \   000007E8   E80E87E5           STR      R0,[R7, #+3816]
    482            labels[6].LINE_MINUS=LABEL7_LINE_MINUS;
   \   000007EC   8C059FE5           LDR      R0,??CustomLbls_1+0x22C  ;; LABEL7_LINE_MINUS
   \   000007F0   000090E5           LDR      R0,[R0, #+0]
   \   000007F4   E40E87E5           STR      R0,[R7, #+3812]
    483            
    484            //Label8
    485            labels[7].SHOW=LABEL8_SHOW;
   \   000007F8   84059FE5           LDR      R0,??CustomLbls_1+0x230  ;; LABEL8_SHOW
   \   000007FC   000090E5           LDR      R0,[R0, #+0]
   \   00000800   F810A0E3           MOV      R1,#+248
   \   00000804   000050E3           CMP      R0,#+0
   \   00000808   0100A013           MOVNE    R0,#+1
    486            labels[7].X=LABEL8_X_POS;
    487            labels[7].Y=LABEL8_Y_POS;
    488          
    489            labels[7].Color=LABEL8_COLOR1;
    490            labels[7].borderColor=LABEL8_COLOR2;
    491            labels[7].Font=LABEL8_FONT;
    492            labels[7].CT=LABEL8_CT;
   \   0000080C   74259FE5           LDR      R2,??CustomLbls_1+0x234  ;; LABEL8_CT
   \   00000810   481D81E3           ORR      R1,R1,#0x1200
   \   00000814   002092E5           LDR      R2,[R2, #+0]
   \   00000818   047081E0           ADD      R7,R1,R4
   \   0000081C   0000C7E5           STRB     R0,[R7, #+0]
   \   00000820   64059FE5           LDR      R0,??CustomLbls_1+0x238  ;; LABEL8_X_POS
   \   00000824   142087E5           STR      R2,[R7, #+20]
   \   00000828   001090E5           LDR      R1,[R0, #+0]
   \   0000082C   041087E5           STR      R1,[R7, #+4]
   \   00000830   58059FE5           LDR      R0,??CustomLbls_1+0x23C  ;; LABEL8_Y_POS
    493            labels[7].scr.SCROLL_USE=LABEL8_SCROLL_YES;
   \   00000834   58259FE5           LDR      R2,??CustomLbls_1+0x240  ;; LABEL8_SCROLL_YES
   \   00000838   000090E5           LDR      R0,[R0, #+0]
   \   0000083C   002092E5           LDR      R2,[R2, #+0]
    494            labels[7].scr.SCROLL_DEF_X=LABEL8_X_POS;
   \   00000840   281087E5           STR      R1,[R7, #+40]
    495            labels[7].scr.SCROLL_WHERETO=LABEL8_SCROLL_LR;
   \   00000844   4C159FE5           LDR      R1,??CustomLbls_1+0x244  ;; LABEL8_SCROLL_LR
   \   00000848   080087E5           STR      R0,[R7, #+8]
   \   0000084C   001091E5           LDR      R1,[R1, #+0]
   \   00000850   44059FE5           LDR      R0,??CustomLbls_1+0x248  ;; LABEL8_COLOR1
   \   00000854   2C1087E5           STR      R1,[R7, #+44]
    496            labels[7].scr.SCROLL_LEFT=LABEL8_SCROLL_LEFT;
   \   00000858   40159FE5           LDR      R1,??CustomLbls_1+0x24C  ;; LABEL8_SCROLL_LEFT
   \   0000085C   000090E5           LDR      R0,[R0, #+0]
   \   00000860   001091E5           LDR      R1,[R1, #+0]
   \   00000864   000052E3           CMP      R2,#+0
   \   00000868   301087E5           STR      R1,[R7, #+48]
    497            labels[7].scr.SCROLL_RIGHT=LABEL8_SCROLL_RIGHT;
   \   0000086C   30159FE5           LDR      R1,??CustomLbls_1+0x250  ;; LABEL8_SCROLL_RIGHT
   \   00000870   0120A013           MOVNE    R2,#+1
   \   00000874   001091E5           LDR      R1,[R1, #+0]
   \   00000878   1C0087E5           STR      R0,[R7, #+28]
   \   0000087C   24059FE5           LDR      R0,??CustomLbls_1+0x254  ;; LABEL8_COLOR2
   \   00000880   341087E5           STR      R1,[R7, #+52]
    498            labels[7].scr.SCROLL_SPEED=LABEL8_SCROLL_MP;
   \   00000884   20159FE5           LDR      R1,??CustomLbls_1+0x258  ;; LABEL8_SCROLL_MP
   \   00000888   000090E5           LDR      R0,[R0, #+0]
   \   0000088C   001091E5           LDR      R1,[R1, #+0]
   \   00000890   200087E5           STR      R0,[R7, #+32]
   \   00000894   14059FE5           LDR      R0,??CustomLbls_1+0x25C  ;; LABEL8_FONT
   \   00000898   381087E5           STR      R1,[R7, #+56]
    499            labels[7].scr.SCROLL_LENGTH=LABEL8_SCROLL_LENGTH;
   \   0000089C   10159FE5           LDR      R1,??CustomLbls_1+0x260  ;; LABEL8_SCROLL_LENGTH
   \   000008A0   000090E5           LDR      R0,[R0, #+0]
   \   000008A4   001091E5           LDR      R1,[R1, #+0]
   \   000008A8   180087E5           STR      R0,[R7, #+24]
   \   000008AC   3C1087E5           STR      R1,[R7, #+60]
    500            labels[7].scr.SCROLL_STRLEN=LABEL8_SCROLL_STRLEN;
   \   000008B0   00159FE5           LDR      R1,??CustomLbls_1+0x264  ;; LABEL8_SCROLL_STRLEN
   \   000008B4   2420C7E5           STRB     R2,[R7, #+36]
   \   000008B8   001091E5           LDR      R1,[R1, #+0]
   \   000008BC   401087E5           STR      R1,[R7, #+64]
    501            labels[7].ChangeEveryTime=LABEL8_NEED_REDRAW;
   \   000008C0   F4149FE5           LDR      R1,??CustomLbls_1+0x268  ;; LABEL8_NEED_REDRAW
   \   000008C4   001091E5           LDR      R1,[R1, #+0]
   \   000008C8   000051E3           CMP      R1,#+0
   \   000008CC   0110A013           MOVNE    R1,#+1
   \   000008D0   6610C7E5           STRB     R1,[R7, #+102]
    502            labels[7].LINE_ON=LABEL8_LINE_ON;
   \   000008D4   E4149FE5           LDR      R1,??CustomLbls_1+0x26C  ;; LABEL8_LINE_ON
   \   000008D8   001091E5           LDR      R1,[R1, #+0]
   \   000008DC   501087E5           STR      R1,[R7, #+80]
    503            labels[7].LINE_DIST=LABEL8_LINE_DIST;
   \   000008E0   DC149FE5           LDR      R1,??CustomLbls_1+0x270  ;; LABEL8_LINE_DIST
   \   000008E4   001091E5           LDR      R1,[R1, #+0]
   \   000008E8   541087E5           STR      R1,[R7, #+84]
    504            labels[7].LINE_SIZE=LABEL8_LINE_SIZE;
   \   000008EC   D4149FE5           LDR      R1,??CustomLbls_1+0x274  ;; LABEL8_LINE_SIZE
   \   000008F0   001091E5           LDR      R1,[R1, #+0]
   \   000008F4   581087E5           STR      R1,[R7, #+88]
    505            labels[7].FONT_SIZE=Font_GetHeight(labels[7].Font);
   \   000008F8   F10100EF           SWI      +497
   \   000008FC   2000A0E3           MOV      R0,#+32
   \   00000900   940200EF           SWI      +660
    506            labels[7].LINE_MINUS=LABEL8_LINE_MINUS;
    507            
    508            //Label9
    509            labels[8].SHOW=LABEL9_SHOW;
    510            labels[8].X=LABEL9_X_POS;
    511            labels[8].Y=LABEL9_Y_POS;
    512          
    513            labels[8].Color=LABEL9_COLOR1;
    514            labels[8].borderColor=LABEL9_COLOR2;
    515            labels[8].Font=LABEL9_FONT;
    516            labels[8].CT=LABEL9_CT;
   \   00000904   C0249FE5           LDR      R2,??CustomLbls_1+0x278  ;; LABEL9_CT
   \   00000908   600087E5           STR      R0,[R7, #+96]
   \   0000090C   BC049FE5           LDR      R0,??CustomLbls_1+0x27C  ;; LABEL8_LINE_MINUS
   \   00000910   002092E5           LDR      R2,[R2, #+0]
   \   00000914   000090E5           LDR      R0,[R0, #+0]
   \   00000918   802287E5           STR      R2,[R7, #+640]
    517            labels[8].scr.SCROLL_USE=LABEL9_SCROLL_YES;
   \   0000091C   B0249FE5           LDR      R2,??CustomLbls_1+0x280  ;; LABEL9_SCROLL_YES
   \   00000920   5C0087E5           STR      R0,[R7, #+92]
   \   00000924   AC049FE5           LDR      R0,??CustomLbls_1+0x284  ;; LABEL9_SHOW
   \   00000928   002092E5           LDR      R2,[R2, #+0]
   \   0000092C   000090E5           LDR      R0,[R0, #+0]
   \   00000930   000050E3           CMP      R0,#+0
   \   00000934   0100A013           MOVNE    R0,#+1
   \   00000938   6C02C7E5           STRB     R0,[R7, #+620]
   \   0000093C   98049FE5           LDR      R0,??CustomLbls_1+0x288  ;; LABEL9_X_POS
   \   00000940   000052E3           CMP      R2,#+0
   \   00000944   001090E5           LDR      R1,[R0, #+0]
   \   00000948   701287E5           STR      R1,[R7, #+624]
   \   0000094C   8C049FE5           LDR      R0,??CustomLbls_1+0x28C  ;; LABEL9_Y_POS
    518            labels[8].scr.SCROLL_DEF_X=LABEL9_X_POS;
   \   00000950   941287E5           STR      R1,[R7, #+660]
    519            labels[8].scr.SCROLL_WHERETO=LABEL9_SCROLL_LR;
   \   00000954   88149FE5           LDR      R1,??CustomLbls_1+0x290  ;; LABEL9_SCROLL_LR
   \   00000958   000090E5           LDR      R0,[R0, #+0]
   \   0000095C   001091E5           LDR      R1,[R1, #+0]
   \   00000960   740287E5           STR      R0,[R7, #+628]
   \   00000964   7C049FE5           LDR      R0,??CustomLbls_1+0x294  ;; LABEL9_COLOR1
   \   00000968   981287E5           STR      R1,[R7, #+664]
    520            labels[8].scr.SCROLL_LEFT=LABEL9_SCROLL_LEFT;
   \   0000096C   78149FE5           LDR      R1,??CustomLbls_1+0x298  ;; LABEL9_SCROLL_LEFT
   \   00000970   000090E5           LDR      R0,[R0, #+0]
   \   00000974   001091E5           LDR      R1,[R1, #+0]
   \   00000978   880287E5           STR      R0,[R7, #+648]
   \   0000097C   6C049FE5           LDR      R0,??CustomLbls_1+0x29C  ;; LABEL9_COLOR2
   \   00000980   9C1287E5           STR      R1,[R7, #+668]
    521            labels[8].scr.SCROLL_RIGHT=LABEL9_SCROLL_RIGHT;
   \   00000984   68149FE5           LDR      R1,??CustomLbls_1+0x2A0  ;; LABEL9_SCROLL_RIGHT
   \   00000988   000090E5           LDR      R0,[R0, #+0]
   \   0000098C   001091E5           LDR      R1,[R1, #+0]
   \   00000990   0120A013           MOVNE    R2,#+1
   \   00000994   A01287E5           STR      R1,[R7, #+672]
    522            labels[8].scr.SCROLL_SPEED=LABEL9_SCROLL_MP;
   \   00000998   58149FE5           LDR      R1,??CustomLbls_1+0x2A4  ;; LABEL9_SCROLL_MP
   \   0000099C   8C0287E5           STR      R0,[R7, #+652]
   \   000009A0   001091E5           LDR      R1,[R1, #+0]
   \   000009A4   50049FE5           LDR      R0,??CustomLbls_1+0x2A8  ;; LABEL9_FONT
   \   000009A8   A41287E5           STR      R1,[R7, #+676]
    523            labels[8].scr.SCROLL_LENGTH=LABEL9_SCROLL_LENGTH;
   \   000009AC   4C149FE5           LDR      R1,??CustomLbls_1+0x2AC  ;; LABEL9_SCROLL_LENGTH
   \   000009B0   000090E5           LDR      R0,[R0, #+0]
   \   000009B4   001091E5           LDR      R1,[R1, #+0]
   \   000009B8   840287E5           STR      R0,[R7, #+644]
   \   000009BC   A81287E5           STR      R1,[R7, #+680]
    524            labels[8].scr.SCROLL_STRLEN=LABEL9_SCROLL_STRLEN;
   \   000009C0   3C149FE5           LDR      R1,??CustomLbls_1+0x2B0  ;; LABEL9_SCROLL_STRLEN
   \   000009C4   9022C7E5           STRB     R2,[R7, #+656]
   \   000009C8   001091E5           LDR      R1,[R1, #+0]
   \   000009CC   AC1287E5           STR      R1,[R7, #+684]
    525            labels[8].ChangeEveryTime=LABEL9_NEED_REDRAW;
   \   000009D0   30149FE5           LDR      R1,??CustomLbls_1+0x2B4  ;; LABEL9_NEED_REDRAW
   \   000009D4   001091E5           LDR      R1,[R1, #+0]
   \   000009D8   000051E3           CMP      R1,#+0
   \   000009DC   0110A013           MOVNE    R1,#+1
   \   000009E0   D212C7E5           STRB     R1,[R7, #+722]
    526            labels[8].LINE_ON=LABEL9_LINE_ON;
   \   000009E4   20149FE5           LDR      R1,??CustomLbls_1+0x2B8  ;; LABEL9_LINE_ON
   \   000009E8   001091E5           LDR      R1,[R1, #+0]
   \   000009EC   BC1287E5           STR      R1,[R7, #+700]
    527            labels[8].LINE_DIST=LABEL9_LINE_DIST;
   \   000009F0   18149FE5           LDR      R1,??CustomLbls_1+0x2BC  ;; LABEL9_LINE_DIST
   \   000009F4   001091E5           LDR      R1,[R1, #+0]
   \   000009F8   C01287E5           STR      R1,[R7, #+704]
    528            labels[8].LINE_SIZE=LABEL9_LINE_SIZE;
   \   000009FC   10149FE5           LDR      R1,??CustomLbls_1+0x2C0  ;; LABEL9_LINE_SIZE
   \   00000A00   001091E5           LDR      R1,[R1, #+0]
   \   00000A04   C41287E5           STR      R1,[R7, #+708]
    529            labels[8].FONT_SIZE=Font_GetHeight(labels[8].Font);
   \   00000A08   F10100EF           SWI      +497
   \   00000A0C   2000A0E3           MOV      R0,#+32
   \   00000A10   940200EF           SWI      +660
    530            labels[8].LINE_MINUS=LABEL9_LINE_MINUS;
    531            
    532            //Label10
    533            labels[9].SHOW=LABEL10_SHOW;
    534            labels[9].X=LABEL10_X_POS;
    535            labels[9].Y=LABEL10_Y_POS;
    536            labels[9].Color=LABEL10_COLOR1;
    537            labels[9].borderColor=LABEL10_COLOR2;
    538            labels[9].Font=LABEL10_FONT;
    539            labels[9].CT=LABEL10_CT;
   \   00000A14   FC239FE5           LDR      R2,??CustomLbls_1+0x2C4  ;; LABEL10_CT
   \   00000A18   CC0287E5           STR      R0,[R7, #+716]
   \   00000A1C   F8039FE5           LDR      R0,??CustomLbls_1+0x2C8  ;; LABEL9_LINE_MINUS
   \   00000A20   002092E5           LDR      R2,[R2, #+0]
   \   00000A24   000090E5           LDR      R0,[R0, #+0]
   \   00000A28   EC2487E5           STR      R2,[R7, #+1260]
    540            labels[9].scr.SCROLL_USE=LABEL10_SCROLL_YES;
   \   00000A2C   EC239FE5           LDR      R2,??CustomLbls_1+0x2CC  ;; LABEL10_SCROLL_YES
   \   00000A30   C80287E5           STR      R0,[R7, #+712]
   \   00000A34   E8039FE5           LDR      R0,??CustomLbls_1+0x2D0  ;; LABEL10_SHOW
   \   00000A38   002092E5           LDR      R2,[R2, #+0]
   \   00000A3C   000090E5           LDR      R0,[R0, #+0]
   \   00000A40   000050E3           CMP      R0,#+0
   \   00000A44   0100A013           MOVNE    R0,#+1
   \   00000A48   D804C7E5           STRB     R0,[R7, #+1240]
   \   00000A4C   D4039FE5           LDR      R0,??CustomLbls_1+0x2D4  ;; LABEL10_X_POS
   \   00000A50   000052E3           CMP      R2,#+0
   \   00000A54   001090E5           LDR      R1,[R0, #+0]
   \   00000A58   DC1487E5           STR      R1,[R7, #+1244]
   \   00000A5C   C8039FE5           LDR      R0,??CustomLbls_1+0x2D8  ;; LABEL10_Y_POS
    541            labels[9].scr.SCROLL_DEF_X=LABEL10_X_POS;
   \   00000A60   001587E5           STR      R1,[R7, #+1280]
    542            labels[9].scr.SCROLL_WHERETO=LABEL10_SCROLL_LR;
   \   00000A64   C4139FE5           LDR      R1,??CustomLbls_1+0x2DC  ;; LABEL10_SCROLL_LR
   \   00000A68   000090E5           LDR      R0,[R0, #+0]
   \   00000A6C   001091E5           LDR      R1,[R1, #+0]
   \   00000A70   E00487E5           STR      R0,[R7, #+1248]
   \   00000A74   B8039FE5           LDR      R0,??CustomLbls_1+0x2E0  ;; LABEL10_COLOR1
   \   00000A78   041587E5           STR      R1,[R7, #+1284]
    543            labels[9].scr.SCROLL_LEFT=LABEL10_SCROLL_LEFT;
   \   00000A7C   B4139FE5           LDR      R1,??CustomLbls_1+0x2E4  ;; LABEL10_SCROLL_LEFT
   \   00000A80   000090E5           LDR      R0,[R0, #+0]
   \   00000A84   001091E5           LDR      R1,[R1, #+0]
   \   00000A88   0120A013           MOVNE    R2,#+1
   \   00000A8C   081587E5           STR      R1,[R7, #+1288]
    544            labels[9].scr.SCROLL_RIGHT=LABEL10_SCROLL_RIGHT;
   \   00000A90   A4139FE5           LDR      R1,??CustomLbls_1+0x2E8  ;; LABEL10_SCROLL_RIGHT
   \   00000A94   F40487E5           STR      R0,[R7, #+1268]
   \   00000A98   001091E5           LDR      R1,[R1, #+0]
   \   00000A9C   9C039FE5           LDR      R0,??CustomLbls_1+0x2EC  ;; LABEL10_COLOR2
   \   00000AA0   0C1587E5           STR      R1,[R7, #+1292]
    545            labels[9].scr.SCROLL_SPEED=LABEL10_SCROLL_MP;
   \   00000AA4   98139FE5           LDR      R1,??CustomLbls_1+0x2F0  ;; LABEL10_SCROLL_MP
   \   00000AA8   000090E5           LDR      R0,[R0, #+0]
   \   00000AAC   001091E5           LDR      R1,[R1, #+0]
   \   00000AB0   F80487E5           STR      R0,[R7, #+1272]
   \   00000AB4   8C039FE5           LDR      R0,??CustomLbls_1+0x2F4  ;; LABEL10_FONT
   \   00000AB8   101587E5           STR      R1,[R7, #+1296]
    546            labels[9].scr.SCROLL_LENGTH=LABEL10_SCROLL_LENGTH;
   \   00000ABC   88139FE5           LDR      R1,??CustomLbls_1+0x2F8  ;; LABEL10_SCROLL_LENGTH
   \   00000AC0   000090E5           LDR      R0,[R0, #+0]
   \   00000AC4   001091E5           LDR      R1,[R1, #+0]
   \   00000AC8   F00487E5           STR      R0,[R7, #+1264]
   \   00000ACC   141587E5           STR      R1,[R7, #+1300]
    547            labels[9].scr.SCROLL_STRLEN=LABEL10_SCROLL_STRLEN;
   \   00000AD0   78139FE5           LDR      R1,??CustomLbls_1+0x2FC  ;; LABEL10_SCROLL_STRLEN
   \   00000AD4   FC24C7E5           STRB     R2,[R7, #+1276]
   \   00000AD8   001091E5           LDR      R1,[R1, #+0]
   \   00000ADC   181587E5           STR      R1,[R7, #+1304]
    548            labels[9].ChangeEveryTime=LABEL10_NEED_REDRAW;
   \   00000AE0   6C139FE5           LDR      R1,??CustomLbls_1+0x300  ;; LABEL10_NEED_REDRAW
   \   00000AE4   001091E5           LDR      R1,[R1, #+0]
   \   00000AE8   000051E3           CMP      R1,#+0
    549            labels[9].LINE_ON=LABEL10_LINE_ON;
   \   00000AEC   64139FE5           LDR      R1,??CustomLbls_1+0x304  ;; LABEL10_LINE_ON
   \   00000AF0   0050A003           MOVEQ    R5,#+0
   \   00000AF4   001091E5           LDR      R1,[R1, #+0]
   \   00000AF8   3E55C7E5           STRB     R5,[R7, #+1342]
   \   00000AFC   281587E5           STR      R1,[R7, #+1320]
    550            labels[9].LINE_DIST=LABEL10_LINE_DIST;
   \   00000B00   54139FE5           LDR      R1,??CustomLbls_1+0x308  ;; LABEL10_LINE_DIST
   \   00000B04   001091E5           LDR      R1,[R1, #+0]
   \   00000B08   2C1587E5           STR      R1,[R7, #+1324]
    551            labels[9].LINE_SIZE=LABEL10_LINE_SIZE;
   \   00000B0C   4C139FE5           LDR      R1,??CustomLbls_1+0x30C  ;; LABEL10_LINE_SIZE
   \   00000B10   001091E5           LDR      R1,[R1, #+0]
   \   00000B14   301587E5           STR      R1,[R7, #+1328]
    552            labels[9].FONT_SIZE=Font_GetHeight(labels[9].Font);
   \   00000B18   F10100EF           SWI      +497
   \   00000B1C   2000A0E3           MOV      R0,#+32
   \   00000B20   940200EF           SWI      +660
   \   00000B24   380587E5           STR      R0,[R7, #+1336]
    553            labels[9].LINE_MINUS=LABEL10_LINE_MINUS;
   \   00000B28   34039FE5           LDR      R0,??CustomLbls_1+0x310  ;; LABEL10_LINE_MINUS
    554            //Поставим скроллинг влево на всех:
    555            int x;
    556            for (x=0;x<10;x++)
   \   00000B2C   9B1FA0E3           MOV      R1,#+620
   \   00000B30   000090E5           LDR      R0,[R0, #+0]
   \   00000B34   340587E5           STR      R0,[R7, #+1332]
   \   00000B38   0000A0E3           MOV      R0,#+0
    557            {
    558              labels[x].scr.SCROLL_WHERE=0;
   \                     ??CustomLbls_2:
   \   00000B3C   914022E0           MLA      R2,R1,R0,R4
    559            }
   \   00000B40   010080E2           ADD      R0,R0,#+1
   \   00000B44   4C6282E5           STR      R6,[R2, #+588]
   \   00000B48   0A0050E3           CMP      R0,#+10
   \   00000B4C   FAFFFFBA           BLT      ??CustomLbls_2
    560          };
   \   00000B50   F080BDE8           POP      {R4-R7,PC}       ;; return
   \                     ??CustomLbls_1:
   \   00000B54   ........           DC32     labels
   \   00000B58   ........           DC32     CustomRC
   \   00000B5C   ........           DC32     img
   \   00000B60   ........           DC32     CoverRC
   \   00000B64   ........           DC32     locCover_X
   \   00000B68   ........           DC32     locCover_Y
   \   00000B6C   ........           DC32     locCover_MaxX
   \   00000B70   ........           DC32     LABEL1_CT
   \   00000B74   ........           DC32     locCover_MaxY
   \   00000B78   ........           DC32     LABEL1_SHOW
   \   00000B7C   ........           DC32     LABEL1_SCROLL_YES
   \   00000B80   ........           DC32     LABEL1_X_POS
   \   00000B84   ........           DC32     LABEL1_Y_POS
   \   00000B88   ........           DC32     LABEL1_SCROLL_LR
   \   00000B8C   ........           DC32     LABEL1_COLOR1
   \   00000B90   ........           DC32     LABEL1_SCROLL_LEFT
   \   00000B94   ........           DC32     LABEL1_SCROLL_RIGHT
   \   00000B98   ........           DC32     LABEL1_COLOR2
   \   00000B9C   ........           DC32     LABEL1_SCROLL_MP
   \   00000BA0   ........           DC32     LABEL1_FONT
   \   00000BA4   ........           DC32     LABEL1_SCROLL_STRLEN
   \   00000BA8   ........           DC32     LABEL1_NEED_REDRAW
   \   00000BAC   ........           DC32     LABEL1_LINE_ON
   \   00000BB0   ........           DC32     LABEL1_LINE_DIST
   \   00000BB4   ........           DC32     LABEL1_LINE_SIZE
   \   00000BB8   ........           DC32     LABEL2_CT
   \   00000BBC   ........           DC32     LABEL1_LINE_MINUS
   \   00000BC0   ........           DC32     LABEL2_SCROLL_YES
   \   00000BC4   ........           DC32     LABEL2_SHOW
   \   00000BC8   ........           DC32     LABEL2_X_POS
   \   00000BCC   ........           DC32     LABEL2_Y_POS
   \   00000BD0   ........           DC32     LABEL2_COLOR1
   \   00000BD4   ........           DC32     LABEL2_COLOR2
   \   00000BD8   ........           DC32     LABEL2_FONT
   \   00000BDC   ........           DC32     LABEL2_SCROLL_LR
   \   00000BE0   ........           DC32     LABEL2_SCROLL_LEFT
   \   00000BE4   ........           DC32     LABEL2_SCROLL_RIGHT
   \   00000BE8   ........           DC32     LABEL2_SCROLL_MP
   \   00000BEC   ........           DC32     LABEL2_SCROLL_LENGTH
   \   00000BF0   ........           DC32     LABEL2_SCROLL_STRLEN
   \   00000BF4   ........           DC32     LABEL2_NEED_REDRAW
   \   00000BF8   ........           DC32     LABEL2_LINE_ON
   \   00000BFC   ........           DC32     LABEL2_LINE_DIST
   \   00000C00   ........           DC32     LABEL2_LINE_SIZE
   \   00000C04   ........           DC32     LABEL3_CT
   \   00000C08   ........           DC32     LABEL2_LINE_MINUS
   \   00000C0C   ........           DC32     LABEL3_SCROLL_YES
   \   00000C10   ........           DC32     LABEL3_SHOW
   \   00000C14   ........           DC32     LABEL3_X_POS
   \   00000C18   ........           DC32     LABEL3_Y_POS
   \   00000C1C   ........           DC32     LABEL3_SCROLL_LR
   \   00000C20   ........           DC32     LABEL3_COLOR1
   \   00000C24   ........           DC32     LABEL3_SCROLL_LEFT
   \   00000C28   ........           DC32     LABEL3_SCROLL_RIGHT
   \   00000C2C   ........           DC32     LABEL3_COLOR2
   \   00000C30   ........           DC32     LABEL3_SCROLL_MP
   \   00000C34   ........           DC32     LABEL3_FONT
   \   00000C38   ........           DC32     LABEL3_SCROLL_LENGTH
   \   00000C3C   ........           DC32     LABEL3_SCROLL_STRLEN
   \   00000C40   ........           DC32     LABEL3_NEED_REDRAW
   \   00000C44   ........           DC32     LABEL3_LINE_ON
   \   00000C48   ........           DC32     LABEL3_LINE_DIST
   \   00000C4C   ........           DC32     LABEL3_LINE_SIZE
   \   00000C50   ........           DC32     LABEL3_LINE_MINUS
   \   00000C54   ........           DC32     LABEL4_SHOW
   \   00000C58   ........           DC32     LABEL4_X_POS
   \   00000C5C   ........           DC32     LABEL4_Y_POS
   \   00000C60   ........           DC32     LABEL4_COLOR1
   \   00000C64   ........           DC32     LABEL4_COLOR2
   \   00000C68   ........           DC32     LABEL4_FONT
   \   00000C6C   ........           DC32     LABEL4_CT
   \   00000C70   ........           DC32     LABEL4_SCROLL_LR
   \   00000C74   ........           DC32     LABEL4_SCROLL_YES
   \   00000C78   ........           DC32     LABEL4_SCROLL_LEFT
   \   00000C7C   ........           DC32     LABEL4_SCROLL_RIGHT
   \   00000C80   ........           DC32     LABEL4_SCROLL_MP
   \   00000C84   ........           DC32     LABEL4_SCROLL_LENGTH
   \   00000C88   ........           DC32     LABEL4_SCROLL_STRLEN
   \   00000C8C   ........           DC32     LABEL4_NEED_REDRAW
   \   00000C90   ........           DC32     LABEL4_LINE_ON
   \   00000C94   ........           DC32     LABEL4_LINE_DIST
   \   00000C98   ........           DC32     LABEL4_LINE_SIZE
   \   00000C9C   ........           DC32     LABEL5_CT
   \   00000CA0   ........           DC32     LABEL4_LINE_MINUS
   \   00000CA4   ........           DC32     LABEL5_SCROLL_YES
   \   00000CA8   ........           DC32     LABEL5_SHOW
   \   00000CAC   ........           DC32     LABEL5_X_POS
   \   00000CB0   ........           DC32     LABEL5_Y_POS
   \   00000CB4   ........           DC32     LABEL5_SCROLL_LR
   \   00000CB8   ........           DC32     LABEL5_COLOR1
   \   00000CBC   ........           DC32     LABEL5_SCROLL_LEFT
   \   00000CC0   ........           DC32     LABEL5_SCROLL_RIGHT
   \   00000CC4   ........           DC32     LABEL5_COLOR2
   \   00000CC8   ........           DC32     LABEL5_SCROLL_MP
   \   00000CCC   ........           DC32     LABEL5_FONT
   \   00000CD0   ........           DC32     LABEL5_SCROLL_LENGTH
   \   00000CD4   ........           DC32     LABEL5_SCROLL_STRLEN
   \   00000CD8   ........           DC32     LABEL5_NEED_REDRAW
   \   00000CDC   ........           DC32     LABEL5_LINE_ON
   \   00000CE0   ........           DC32     LABEL5_LINE_DIST
   \   00000CE4   ........           DC32     LABEL5_LINE_SIZE
   \   00000CE8   ........           DC32     LABEL5_LINE_MINUS
   \   00000CEC   ........           DC32     LABEL6_SHOW
   \   00000CF0   ........           DC32     LABEL6_X_POS
   \   00000CF4   ........           DC32     LABEL6_Y_POS
   \   00000CF8   ........           DC32     LABEL6_CT
   \   00000CFC   ........           DC32     LABEL6_SCROLL_LR
   \   00000D00   ........           DC32     LABEL6_SCROLL_YES
   \   00000D04   ........           DC32     LABEL6_SCROLL_LEFT
   \   00000D08   ........           DC32     LABEL6_COLOR1
   \   00000D0C   ........           DC32     LABEL6_SCROLL_RIGHT
   \   00000D10   ........           DC32     LABEL6_SCROLL_MP
   \   00000D14   ........           DC32     LABEL6_COLOR2
   \   00000D18   ........           DC32     LABEL6_SCROLL_LENGTH
   \   00000D1C   ........           DC32     LABEL6_FONT
   \   00000D20   ........           DC32     LABEL6_SCROLL_STRLEN
   \   00000D24   ........           DC32     LABEL6_NEED_REDRAW
   \   00000D28   ........           DC32     LABEL6_LINE_ON
   \   00000D2C   ........           DC32     LABEL6_LINE_DIST
   \   00000D30   ........           DC32     LABEL6_LINE_SIZE
   \   00000D34   ........           DC32     LABEL7_CT
   \   00000D38   ........           DC32     LABEL6_LINE_MINUS
   \   00000D3C   ........           DC32     LABEL7_SCROLL_YES
   \   00000D40   ........           DC32     LABEL7_SHOW
   \   00000D44   ........           DC32     LABEL7_X_POS
   \   00000D48   ........           DC32     LABEL7_Y_POS
   \   00000D4C   ........           DC32     LABEL7_SCROLL_LR
   \   00000D50   ........           DC32     LABEL7_COLOR1
   \   00000D54   ........           DC32     LABEL7_SCROLL_LEFT
   \   00000D58   ........           DC32     LABEL7_SCROLL_RIGHT
   \   00000D5C   ........           DC32     LABEL7_COLOR2
   \   00000D60   ........           DC32     LABEL7_SCROLL_MP
   \   00000D64   ........           DC32     LABEL7_FONT
   \   00000D68   ........           DC32     LABEL7_SCROLL_LENGTH
   \   00000D6C   ........           DC32     LABEL7_SCROLL_STRLEN
   \   00000D70   ........           DC32     LABEL7_NEED_REDRAW
   \   00000D74   ........           DC32     LABEL7_LINE_ON
   \   00000D78   ........           DC32     LABEL7_LINE_DIST
   \   00000D7C   ........           DC32     LABEL7_LINE_SIZE
   \   00000D80   ........           DC32     LABEL7_LINE_MINUS
   \   00000D84   ........           DC32     LABEL8_SHOW
   \   00000D88   ........           DC32     LABEL8_CT
   \   00000D8C   ........           DC32     LABEL8_X_POS
   \   00000D90   ........           DC32     LABEL8_Y_POS
   \   00000D94   ........           DC32     LABEL8_SCROLL_YES
   \   00000D98   ........           DC32     LABEL8_SCROLL_LR
   \   00000D9C   ........           DC32     LABEL8_COLOR1
   \   00000DA0   ........           DC32     LABEL8_SCROLL_LEFT
   \   00000DA4   ........           DC32     LABEL8_SCROLL_RIGHT
   \   00000DA8   ........           DC32     LABEL8_COLOR2
   \   00000DAC   ........           DC32     LABEL8_SCROLL_MP
   \   00000DB0   ........           DC32     LABEL8_FONT
   \   00000DB4   ........           DC32     LABEL8_SCROLL_LENGTH
   \   00000DB8   ........           DC32     LABEL8_SCROLL_STRLEN
   \   00000DBC   ........           DC32     LABEL8_NEED_REDRAW
   \   00000DC0   ........           DC32     LABEL8_LINE_ON
   \   00000DC4   ........           DC32     LABEL8_LINE_DIST
   \   00000DC8   ........           DC32     LABEL8_LINE_SIZE
   \   00000DCC   ........           DC32     LABEL9_CT
   \   00000DD0   ........           DC32     LABEL8_LINE_MINUS
   \   00000DD4   ........           DC32     LABEL9_SCROLL_YES
   \   00000DD8   ........           DC32     LABEL9_SHOW
   \   00000DDC   ........           DC32     LABEL9_X_POS
   \   00000DE0   ........           DC32     LABEL9_Y_POS
   \   00000DE4   ........           DC32     LABEL9_SCROLL_LR
   \   00000DE8   ........           DC32     LABEL9_COLOR1
   \   00000DEC   ........           DC32     LABEL9_SCROLL_LEFT
   \   00000DF0   ........           DC32     LABEL9_COLOR2
   \   00000DF4   ........           DC32     LABEL9_SCROLL_RIGHT
   \   00000DF8   ........           DC32     LABEL9_SCROLL_MP
   \   00000DFC   ........           DC32     LABEL9_FONT
   \   00000E00   ........           DC32     LABEL9_SCROLL_LENGTH
   \   00000E04   ........           DC32     LABEL9_SCROLL_STRLEN
   \   00000E08   ........           DC32     LABEL9_NEED_REDRAW
   \   00000E0C   ........           DC32     LABEL9_LINE_ON
   \   00000E10   ........           DC32     LABEL9_LINE_DIST
   \   00000E14   ........           DC32     LABEL9_LINE_SIZE
   \   00000E18   ........           DC32     LABEL10_CT
   \   00000E1C   ........           DC32     LABEL9_LINE_MINUS
   \   00000E20   ........           DC32     LABEL10_SCROLL_YES
   \   00000E24   ........           DC32     LABEL10_SHOW
   \   00000E28   ........           DC32     LABEL10_X_POS
   \   00000E2C   ........           DC32     LABEL10_Y_POS
   \   00000E30   ........           DC32     LABEL10_SCROLL_LR
   \   00000E34   ........           DC32     LABEL10_COLOR1
   \   00000E38   ........           DC32     LABEL10_SCROLL_LEFT
   \   00000E3C   ........           DC32     LABEL10_SCROLL_RIGHT
   \   00000E40   ........           DC32     LABEL10_COLOR2
   \   00000E44   ........           DC32     LABEL10_SCROLL_MP
   \   00000E48   ........           DC32     LABEL10_FONT
   \   00000E4C   ........           DC32     LABEL10_SCROLL_LENGTH
   \   00000E50   ........           DC32     LABEL10_SCROLL_STRLEN
   \   00000E54   ........           DC32     LABEL10_NEED_REDRAW
   \   00000E58   ........           DC32     LABEL10_LINE_ON
   \   00000E5C   ........           DC32     LABEL10_LINE_DIST
   \   00000E60   ........           DC32     LABEL10_LINE_SIZE
   \   00000E64   ........           DC32     LABEL10_LINE_MINUS
    561          

   \                                 In segment CODE, align 4, keep-with-next
    562          void lbl_ofill()
    563          {
   \                     ??lbl_ofill:
   \   00000000   30402DE9           PUSH     {R4,R5,LR}
    564            int x;
    565            for (x=0;x<10;x++)
   \   00000004   0040A0E3           MOV      R4,#+0
    566            {
    567              if (labels[x].ChangeEveryTime)
   \                     ??lbl_ofill_1:
   \   00000008   ........           LDR      R1,??DataTable27  ;; labels
   \   0000000C   9B0FA0E3           MOV      R0,#+620
   \   00000010   901425E0           MLA      R5,R0,R4,R1
   \   00000014   6A02D5E5           LDRB     R0,[R5, #+618]
   \   00000018   000050E3           CMP      R0,#+0
   \   0000001C   0500000A           BEQ      ??lbl_ofill_2
    568              {
    569                labels[x].str=TextID_Create(labels[x].label,ENC_UCS2,TEXTID_ANY_LEN);
   \   00000020   FF20A0E3           MOV      R2,#+255
   \   00000024   FF2C82E3           ORR      R2,R2,#0xFF00
   \   00000028   0010A0E3           MOV      R1,#+0
   \   0000002C   0500A0E1           MOV      R0,R5
   \   00000030   5D0100EF           SWI      +349
   \   00000034   000285E5           STR      R0,[R5, #+512]
    570              }
    571            }
   \                     ??lbl_ofill_2:
   \   00000038   014084E2           ADD      R4,R4,#+1
   \   0000003C   0A0054E3           CMP      R4,#+10
   \   00000040   F0FFFFBA           BLT      ??lbl_ofill_1
    572          };
   \   00000044   3080BDE8           POP      {R4,R5,PC}       ;; return
    573          

   \                                 In segment CODE, align 4, keep-with-next
    574          void lbl_okill()
    575          {
   \                     ??lbl_okill:
   \   00000000   70402DE9           PUSH     {R4-R6,LR}
    576            int x;
    577            for (x=0;x<10;x++)
   \   00000004   0040A0E3           MOV      R4,#+0
   \   00000008   9064E0E3           MVN      R6,#-1879048192
    578            {
    579              if (labels[x].str!=0 && labels[x].str!=EMPTY_TEXTID && labels[x].ChangeEveryTime)
   \                     ??lbl_okill_1:
   \   0000000C   ........           LDR      R1,??DataTable27  ;; labels
   \   00000010   9B0FA0E3           MOV      R0,#+620
   \   00000014   901425E0           MLA      R5,R0,R4,R1
   \   00000018   000295E5           LDR      R0,[R5, #+512]
   \   0000001C   000050E3           CMP      R0,#+0
   \   00000020   06005011           CMPNE    R0,R6
   \   00000024   6A02D515           LDRBNE   R0,[R5, #+618]
   \   00000028   00005013           CMPNE    R0,#+0
   \   0000002C   0200000A           BEQ      ??lbl_okill_2
    580              {
    581                TextID_Destroy(labels[x].str);
   \   00000030   000295E5           LDR      R0,[R5, #+512]
   \   00000034   610100EF           SWI      +353
    582                labels[x].str=EMPTY_TEXTID;
   \   00000038   006285E5           STR      R6,[R5, #+512]
    583              }
    584            }
   \                     ??lbl_okill_2:
   \   0000003C   014084E2           ADD      R4,R4,#+1
   \   00000040   0A0054E3           CMP      R4,#+10
   \   00000044   F0FFFFBA           BLT      ??lbl_okill_1
    585          };
   \   00000048   7080BDE8           POP      {R4-R6,PC}       ;; return
    586          

   \                                 In segment CODE, align 4, keep-with-next
    587          void lbl_fill()
    588          {
   \                     ??lbl_fill:
   \   00000000   30402DE9           PUSH     {R4,R5,LR}
    589            int x;
    590            for (x=0;x<10;x++)
   \   00000004   0040A0E3           MOV      R4,#+0
    591            {
    592              labels[x].str=TextID_Create(labels[x].label,ENC_UCS2,TEXTID_ANY_LEN);
   \                     ??lbl_fill_1:
   \   00000008   ........           LDR      R1,??DataTable27  ;; labels
   \   0000000C   9B0FA0E3           MOV      R0,#+620
   \   00000010   901425E0           MLA      R5,R0,R4,R1
   \   00000014   FF20A0E3           MOV      R2,#+255
   \   00000018   FF2C82E3           ORR      R2,R2,#0xFF00
   \   0000001C   0010A0E3           MOV      R1,#+0
   \   00000020   0500A0E1           MOV      R0,R5
   \   00000024   5D0100EF           SWI      +349
   \   00000028   000285E5           STR      R0,[R5, #+512]
    593            }
   \   0000002C   014084E2           ADD      R4,R4,#+1
   \   00000030   0A0054E3           CMP      R4,#+10
   \   00000034   F3FFFFBA           BLT      ??lbl_fill_1
    594          };
   \   00000038   3080BDE8           POP      {R4,R5,PC}       ;; return
    595          

   \                                 In segment CODE, align 4, keep-with-next
    596          void lbl_kill()
    597          {
   \                     ??lbl_kill:
   \   00000000   70402DE9           PUSH     {R4-R6,LR}
    598            int x;
    599            for (x=0;x<10;x++)
   \   00000004   0040A0E3           MOV      R4,#+0
   \   00000008   9064E0E3           MVN      R6,#-1879048192
    600            {
    601              if (labels[x].str!=0 && labels[x].str!=EMPTY_TEXTID)
   \                     ??lbl_kill_1:
   \   0000000C   ........           LDR      R1,??DataTable27  ;; labels
   \   00000010   9B0FA0E3           MOV      R0,#+620
   \   00000014   901425E0           MLA      R5,R0,R4,R1
   \   00000018   000295E5           LDR      R0,[R5, #+512]
   \   0000001C   000050E3           CMP      R0,#+0
   \   00000020   06005011           CMPNE    R0,R6
   \   00000024   0100000A           BEQ      ??lbl_kill_2
    602              {
    603                TextID_Destroy(labels[x].str);
   \   00000028   610100EF           SWI      +353
    604                labels[x].str=EMPTY_TEXTID;
   \   0000002C   006285E5           STR      R6,[R5, #+512]
    605              }
    606            }
   \                     ??lbl_kill_2:
   \   00000030   014084E2           ADD      R4,R4,#+1
   \   00000034   0A0054E3           CMP      R4,#+10
   \   00000038   F3FFFFBA           BLT      ??lbl_kill_1
    607          };
   \   0000003C   7080BDE8           POP      {R4-R6,PC}       ;; return

   \                                 In segment CODE, align 4, keep-with-next
   \                     ??DataTable12:
   \   00000000   ........           DC32     LABEL1_NAME

   \                                 In segment CODE, align 4, keep-with-next
   \                     ??DataTable13:
   \   00000000   ........           DC32     LABEL2_NAME

   \                                 In segment CODE, align 4, keep-with-next
   \                     ??DataTable14:
   \   00000000   ........           DC32     LABEL6_NAME

   \                                 In segment CODE, align 4, keep-with-next
   \                     ??DataTable15:
   \   00000000   ........           DC32     LABEL7_NAME

   \                                 In segment CODE, align 4, keep-with-next
   \                     ??DataTable16:
   \   00000000   ........           DC32     LABEL8_NAME

   \                                 In segment CODE, align 4, keep-with-next
   \                     ??DataTable17:
   \   00000000   ........           DC32     LABEL9_NAME

   \                                 In segment CODE, align 4, keep-with-next
   \                     ??DataTable18:
   \   00000000   ........           DC32     LABEL10_NAME

   \                                 In segment CODE, align 4, keep-with-next
   \                     ??DataTable19:
   \   00000000   ........           DC32     labels

   \                                 In segment CODE, align 4, keep-with-next
   \                     ??DataTable20:
   \   00000000   ........           DC32     LABEL3_NAME

   \                                 In segment CODE, align 4, keep-with-next
   \                     ??DataTable21:
   \   00000000   ........           DC32     LABEL4_NAME

   \                                 In segment CODE, align 4, keep-with-next
   \                     ??DataTable22:
   \   00000000   ........           DC32     LABEL5_NAME

   \                                 In segment CODE, align 4, keep-with-next
   \                     ??DataTable23:
   \   00000000   ........           DC32     ScrollingMode

   \                                 In segment CODE, align 4, keep-with-next
   \                     ??DataTable27:
   \   00000000   ........           DC32     labels

   \                                 In segment DATA_C, align 4, align-sorted
   \                     `?<Constant L"\\x56\\x42\\x52">`:
   \   00000000   560042005200       DC8 56H, 0, 42H, 0, 52H, 0, 0, 0
   \              0000        
   \   00000008   250064000000       DC8 25H, 0, 64H, 0, 0, 0
   \   0000000E   0000               DC8 0, 0
   \   00000010   530074006500       DC8 53H, 0, 74H, 0, 65H, 0, 72H, 0
   \              7200        
   \   00000018   65006F000000       DC8 65H, 0, 6FH, 0, 0, 0
   \   0000001E   0000               DC8 0, 0
   \   00000020   4A006F006900       DC8 4AH, 0, 6FH, 0, 69H, 0, 6EH, 0
   \              6E00        
   \   00000028   740020005300       DC8 74H, 0, 20H, 0, 53H, 0, 74H, 0
   \              7400        
   \   00000030   650072006500       DC8 65H, 0, 72H, 0, 65H, 0, 6FH, 0
   \              6F00        
   \   00000038   0000               DC8 0, 0
   \   0000003A   0000               DC8 0, 0
   \   0000003C   440075006100       DC8 44H, 0, 75H, 0, 61H, 0, 6CH, 0
   \              6C00        
   \   00000044   200043006800       DC8 20H, 0, 43H, 0, 68H, 0, 61H, 0
   \              6100        
   \   0000004C   6E006E006500       DC8 6EH, 0, 6EH, 0, 65H, 0, 6CH, 0
   \              6C00        
   \   00000054   0000               DC8 0, 0
   \   00000056   0000               DC8 0, 0
   \   00000058   530069006E00       DC8 53H, 0, 69H, 0, 6EH, 0, 67H, 0
   \              6700        
   \   00000060   6C0065002000       DC8 6CH, 0, 65H, 0, 20H, 0, 43H, 0
   \              4300        
   \   00000068   680061006E00       DC8 68H, 0, 61H, 0, 6EH, 0, 6EH, 0
   \              6E00        
   \   00000070   65006C000000       DC8 65H, 0, 6CH, 0, 0, 0
   \   00000076   0000               DC8 0, 0
   \   00000078   250030003200       DC8 25H, 0, 30H, 0, 32H, 0, 64H, 0
   \              6400        
   \   00000080   3A0025003000       DC8 3AH, 0, 25H, 0, 30H, 0, 32H, 0
   \              3200        
   \   00000088   64000000           DC8 64H, 0, 0, 0
   \   0000008C   250030003200       DC8 25H, 0, 30H, 0, 32H, 0, 64H, 0
   \              6400        
   \   00000094   0000               DC8 0, 0
   \   00000096   0000               DC8 0, 0

   \                                 In segment DATA_C, align 4, align-sorted
   \   00000000   20000000           DC8 20H, 0, 0, 0

   Maximum stack usage in bytes:

     Function                       CSTACK
     --------                       ------
     CustomLbls()                      20
     Font_GetHeight(int)                4
     GetLabelSize(wchar_t *, int)      12
     InitLbls()                       548
     caprintf(wchar_t *, wchar_t *)   648
     lbl_fill()                        12
     lbl_kill()                        16
     lbl_ofill()                       12
     lbl_okill()                       16
     optimized_InitLbls()             548


   Segment part sizes:

     Function/Label                 Bytes
     --------------                 -----
     labels                         6200
     GetLabelSize(wchar_t *, int)     80
     caprintf(wchar_t *, wchar_t *)  996
     optimized_InitLbls()            816
     InitLbls()                      676
     Font_GetHeight(int)              20
     CustomLbls()                   3688
     lbl_ofill()                      72
     lbl_okill()                      76
     lbl_fill()                       60
     lbl_kill()                       64
     ??DataTable12                     4
     ??DataTable13                     4
     ??DataTable14                     4
     ??DataTable15                     4
     ??DataTable16                     4
     ??DataTable17                     4
     ??DataTable18                     4
     ??DataTable19                     4
     ??DataTable20                     4
     ??DataTable21                     4
     ??DataTable22                     4
     ??DataTable23                     4
     ??DataTable27                     4
     ?<Constant L"\x56\x42\x52">     152
     ?<Constant L"\x20">               4
      Others                          64

 
 6 652 bytes in segment CODE
   156 bytes in segment DATA_C
 6 200 bytes in segment DATA_Z
    12 bytes in segment INITTAB
 
 6 600 bytes of CODE  memory (+ 64 bytes shared)
   156 bytes of CONST memory
 6 200 bytes of DATA  memory

Errors: none
Warnings: none
