##############################################################################
#                                                                            #
# IAR ARM ANSI C/C++ Compiler V4.42A/W32 EVALUATION    10/Jun/2013  22:48:56 #
# Copyright 1999-2005 IAR Systems. All rights reserved.                      #
#                                                                            #
#    Cpu mode        =  interwork                                            #
#    Endian          =  little                                               #
#    Stack alignment =  4                                                    #
#    Source file     =  Z:\home\perk11\www\perk11.info\svn\SE\AdvSoftkeys\bo #
#                       oks.cpp                                              #
#    Command line    =  Z:\home\perk11\www\perk11.info\svn\SE\AdvSoftkeys\bo #
#                       oks.cpp -D NDEBUG -D OLDFUNCTIONS -lC                #
#                       Z:\home\perk11\www\perk11.info\svn\SE\AdvSoftkeys\Re #
#                       lease\List\ -lA Z:\home\perk11\www\perk11.info\svn\S #
#                       E\AdvSoftkeys\Release\List\ -o                       #
#                       Z:\home\perk11\www\perk11.info\svn\SE\AdvSoftkeys\Re #
#                       lease\Obj\ -s9 --cpu_mode arm --endian little --cpu  #
#                       ARM926EJ-S --stack_align 4 --interwork -e --fpu      #
#                       None --eec++ --dlib_config                           #
#                       Z:\home\perk11\IAR2\arm\LIB\dl5tpainl8n.h -I         #
#                       Z:\home\perk11\IAR2\arm\INC\ --inline_threshold=2    #
#    List file       =  Z:\home\perk11\www\perk11.info\svn\SE\AdvSoftkeys\Re #
#                       lease\List\books.lst                                 #
#    Object file     =  Z:\home\perk11\www\perk11.info\svn\SE\AdvSoftkeys\Re #
#                       lease\Obj\books.r79                                  #
#                                                                            #
#                                                                            #
##############################################################################

Z:\home\perk11\www\perk11.info\svn\SE\AdvSoftkeys\books.cpp
      1          #include "..\include\Lib_Clara.h"
      2          #include "..\include\Dir.h"
      3          #include "header\structs.h"
      4          #include "header\presets.h"
      5          extern int DB;
      6          void MyBook_OnClose(BOOK * book);
      7          

   \                                 In segment CODE, align 4, keep-with-next
      8          int isSoftkeysBook_ByName(BOOK *bk)
      9          {
     10            if (strcmp(bk->xbook->name,"Softkeys")==0)return 1;
   \                     ??isSoftkeysBook_ByName:
   \   00000000   20109FE5           LDR      R1,??isSoftkeysBook_ByName_1  ;; `?<Constant "Softkeys">`
   \   00000004   00402DE9           PUSH     {LR}
   \   00000008   000090E5           LDR      R0,[R0, #+0]
   \   0000000C   040090E5           LDR      R0,[R0, #+4]
   \   00000010   590100EF           SWI      +345
   \   00000014   000050E3           CMP      R0,#+0
   \   00000018   0100A003           MOVEQ    R0,#+1
   \   0000001C   0080BD08           POPEQ    {PC}
     11            return 0;
   \   00000020   0000A0E3           MOV      R0,#+0
   \   00000024   0080BDE8           POP      {PC}             ;; return
   \                     ??isSoftkeysBook_ByName_1:
   \   00000028   ........           DC32     `?<Constant "Softkeys">`
     12          };
     13          

   \                                 In segment CODE, align 4, keep-with-next
     14          int isMMBrowserBook(BOOK *bk)
     15          {
     16            if (strstr(bk->xbook->name,"MM_Browser")) return 1;
   \                     ??isMMBrowserBook:
   \   00000000   18109FE5           LDR      R1,??isMMBrowserBook_1  ;; `?<Constant "MM_Browser">`
   \   00000004   00402DE9           PUSH     {LR}
   \   00000008   000090E5           LDR      R0,[R0, #+0]
   \   0000000C   040090E5           LDR      R0,[R0, #+4]
   \   00000010   980200EF           SWI      +664
   \   00000014   000050E3           CMP      R0,#+0
   \   00000018   0100A013           MOVNE    R0,#+1
     17            return 0;
   \   0000001C   0080BDE8           POP      {PC}             ;; return
   \                     ??isMMBrowserBook_1:
   \   00000020   ........           DC32     `?<Constant "MM_Browser">`
     18          };
     19          

   \                                 In segment CODE, align 4, keep-with-next
     20          int isMenuBook(BOOK *bk)
     21          {
   \                     ??isMenuBook:
   \   00000000   30402DE9           PUSH     {R4,R5,LR}
     22            if (!strcmp(bk->xbook->name,"MenuBook"))return 1;
   \   00000004   40509FE5           LDR      R5,??isMenuBook_1  ;; `?<Constant "MenuBook">`
   \   00000008   0040A0E1           MOV      R4,R0
   \   0000000C   000094E5           LDR      R0,[R4, #+0]
   \   00000010   0510A0E1           MOV      R1,R5
   \   00000014   040090E5           LDR      R0,[R0, #+4]
   \   00000018   590100EF           SWI      +345
   \   0000001C   000050E3           CMP      R0,#+0
   \   00000020   0500000A           BEQ      ??isMenuBook_2
     23            if (!strcmp(bk->xbook->name,"Menu_Globals"))return 1;
   \   00000024   000094E5           LDR      R0,[R4, #+0]
   \   00000028   0C1085E2           ADD      R1,R5,#+12
   \   0000002C   040090E5           LDR      R0,[R0, #+4]
   \   00000030   590100EF           SWI      +345
   \   00000034   000050E3           CMP      R0,#+0
   \   00000038   0100001A           BNE      ??isMenuBook_3
   \                     ??isMenuBook_2:
   \   0000003C   0100A0E3           MOV      R0,#+1
   \   00000040   3080BDE8           POP      {R4,R5,PC}
     24            return 0;
   \                     ??isMenuBook_3:
   \   00000044   0000A0E3           MOV      R0,#+0
   \   00000048   3080BDE8           POP      {R4,R5,PC}       ;; return
   \                     ??isMenuBook_1:
   \   0000004C   ........           DC32     `?<Constant "MenuBook">`
     25          };
     26          

   \                                 In segment CODE, align 4, keep-with-next
     27          int isImageViewerBook(BOOK *bk)
     28          {
     29            if (!strcmp(bk->xbook->name,"ImageViewerBook"))return 1;
   \                     ??isImageViewerBook:
   \   00000000   ........           LDR      R1,??DataTable1  ;; `?<Constant "ImageViewerBook">`
   \   00000004   00402DE9           PUSH     {LR}
   \   00000008   000090E5           LDR      R0,[R0, #+0]
   \   0000000C   040090E5           LDR      R0,[R0, #+4]
   \   00000010   590100EF           SWI      +345
   \   00000014   000050E3           CMP      R0,#+0
   \   00000018   0100A003           MOVEQ    R0,#+1
   \   0000001C   0080BD08           POPEQ    {PC}
     30            return 0;
   \   00000020   0000A0E3           MOV      R0,#+0
   \   00000024   0080BDE8           POP      {PC}             ;; return
     31          };
     32          

   \                                 In segment CODE, align 4, keep-with-next
     33          int isSoftkeysBook(BOOK *bk)
     34          {
     35            if (bk->onClose == MyBook_OnClose)return 1;
   \                     ??isSoftkeysBook:
   \   00000000   040090E5           LDR      R0,[R0, #+4]
   \   00000004   10109FE5           LDR      R1,??isSoftkeysBook_1  ;; ??MyBook_OnClose
   \   00000008   010050E1           CMP      R0,R1
   \   0000000C   0100A003           MOVEQ    R0,#+1
   \   00000010   1EFF2F01           BXEQ     LR
     36            return 0;
   \   00000014   0000A0E3           MOV      R0,#+0
   \   00000018   1EFF2FE1           BX       LR               ;; return
   \                     ??isSoftkeysBook_1:
   \   0000001C   ........           DC32     ??MyBook_OnClose
     37          };
     38          
     39          

   \                                 In segment CODE, align 4, keep-with-next
     40          int isImageViewer(BOOK *bk)
     41          {
   \                     ??isImageViewer:
   \   00000000   00402DE9           PUSH     {LR}
     42            if (bk->xbook->name[0]=='I')
   \   00000004   000090E5           LDR      R0,[R0, #+0]
   \   00000008   041090E5           LDR      R1,[R0, #+4]
   \   0000000C   0010D1E5           LDRB     R1,[R1, #+0]
   \   00000010   490051E3           CMP      R1,#+73
   \   00000014   0F00001A           BNE      ??isImageViewer_1
     43            {
     44              if (bk->xbook->name[1]=='m')
   \   00000018   041090E5           LDR      R1,[R0, #+4]
   \   0000001C   0110D1E5           LDRB     R1,[R1, #+1]
   \   00000020   6D0051E3           CMP      R1,#+109
   \   00000024   0B00001A           BNE      ??isImageViewer_1
     45              {
     46                if (strcmp(bk->xbook->name,"ImageViewerBook")==0)
   \   00000028   040090E5           LDR      R0,[R0, #+4]
   \   0000002C   ........           LDR      R1,??DataTable1  ;; `?<Constant "ImageViewerBook">`
   \   00000030   590100EF           SWI      +345
   \   00000034   000050E3           CMP      R0,#+0
   \   00000038   0600001A           BNE      ??isImageViewer_1
     47                {
     48                  if (DB==2010)return 1;
   \   0000003C   1C009FE5           LDR      R0,??isImageViewer_2  ;; DB
   \   00000040   DA10A0E3           MOV      R1,#+218
   \   00000044   000090E5           LDR      R0,[R0, #+0]
   \   00000048   701E81E3           ORR      R1,R1,#0x700
   \   0000004C   010050E1           CMP      R0,R1
   \   00000050   0100A003           MOVEQ    R0,#+1
   \   00000054   0080BD08           POPEQ    {PC}
     49                }
     50              }
     51            }
     52            return 0;
   \                     ??isImageViewer_1:
   \   00000058   0000A0E3           MOV      R0,#+0
   \   0000005C   0080BDE8           POP      {PC}             ;; return
   \                     ??isImageViewer_2:
   \   00000060   ........           DC32     DB
     53          };

   \                                 In segment CODE, align 4, keep-with-next
   \                     ??DataTable1:
   \   00000000   ........           DC32     `?<Constant "ImageViewerBook">`

   \                                 In segment DATA_C, align 4, align-sorted
   \                     `?<Constant "Softkeys">`:
   \   00000000   536F66746B65       DC8 "Softkeys"
   \              797300      
   \   00000009   000000             DC8 0, 0, 0

   \                                 In segment DATA_C, align 4, align-sorted
   \                     `?<Constant "MM_Browser">`:
   \   00000000   4D4D5F42726F       DC8 "MM_Browser"
   \              7773657200  
   \   0000000B   00                 DC8 0

   \                                 In segment DATA_C, align 4, align-sorted
   \                     `?<Constant "MenuBook">`:
   \   00000000   4D656E75426F       DC8 "MenuBook"
   \              6F6B00      
   \   00000009   000000             DC8 0, 0, 0
   \   0000000C   4D656E755F47       DC8 "Menu_Globals"
   \              6C6F62616C73
   \              00          
   \   00000019   000000             DC8 0, 0, 0

   \                                 In segment DATA_C, align 4, align-sorted
   \                     `?<Constant "ImageViewerBook">`:
   \   00000000   496D61676556       DC8 "ImageViewerBook"
   \              696577657242
   \              6F6F6B00    

   Maximum stack usage in bytes:

     Function                      CSTACK
     --------                      ------
     isImageViewer(BOOK *)             4
     isImageViewerBook(BOOK *)         4
     isMMBrowserBook(BOOK *)           4
     isMenuBook(BOOK *)               12
     isSoftkeysBook(BOOK *)            0
     isSoftkeysBook_ByName(BOOK *)     4


   Segment part sizes:

     Function/Label                Bytes
     --------------                -----
     isSoftkeysBook_ByName(BOOK *)   44
     isMMBrowserBook(BOOK *)         36
     isMenuBook(BOOK *)              80
     isImageViewerBook(BOOK *)       40
     isSoftkeysBook(BOOK *)          32
     isImageViewer(BOOK *)          100
     ??DataTable1                     4
     ?<Constant "Softkeys">          12
     ?<Constant "MM_Browser">        12
     ?<Constant "MenuBook">          28
     ?<Constant "ImageViewerBook">   16
      Others                         24

 
 360 bytes in segment CODE
  68 bytes in segment DATA_C
 
 336 bytes of CODE  memory (+ 24 bytes shared)
  68 bytes of CONST memory

Errors: none
Warnings: none
