##############################################################################
#                                                                            #
# IAR ARM ANSI C/C++ Compiler V4.42A/W32 EVALUATION    10/Jun/2013  22:49:01 #
# Copyright 1999-2005 IAR Systems. All rights reserved.                      #
#                                                                            #
#    Cpu mode        =  interwork                                            #
#    Endian          =  little                                               #
#    Stack alignment =  4                                                    #
#    Source file     =  Z:\home\perk11\www\perk11.info\svn\SE\AdvSoftkeys\dr #
#                       aw.cpp                                               #
#    Command line    =  Z:\home\perk11\www\perk11.info\svn\SE\AdvSoftkeys\dr #
#                       aw.cpp -D NDEBUG -D OLDFUNCTIONS -lC                 #
#                       Z:\home\perk11\www\perk11.info\svn\SE\AdvSoftkeys\Re #
#                       lease\List\ -lA Z:\home\perk11\www\perk11.info\svn\S #
#                       E\AdvSoftkeys\Release\List\ -o                       #
#                       Z:\home\perk11\www\perk11.info\svn\SE\AdvSoftkeys\Re #
#                       lease\Obj\ -s9 --cpu_mode arm --endian little --cpu  #
#                       ARM926EJ-S --stack_align 4 --interwork -e --fpu      #
#                       None --eec++ --dlib_config                           #
#                       Z:\home\perk11\IAR2\arm\LIB\dl5tpainl8n.h -I         #
#                       Z:\home\perk11\IAR2\arm\INC\ --inline_threshold=2    #
#    List file       =  Z:\home\perk11\www\perk11.info\svn\SE\AdvSoftkeys\Re #
#                       lease\List\draw.lst                                  #
#    Object file     =  Z:\home\perk11\www\perk11.info\svn\SE\AdvSoftkeys\Re #
#                       lease\Obj\draw.r79                                   #
#                                                                            #
#                                                                            #
##############################################################################

Z:\home\perk11\www\perk11.info\svn\SE\AdvSoftkeys\draw.cpp
      1          #include "..\\include\Lib_Clara.h" 
      2          #include "..\\include\Dir.h" 
      3          
      4          extern int SoftSize;

   \                                 In segment CODE, align 4, keep-with-next
      5          void DrawHighlightID(int font,int text,int CEN, int XPos, int YPos, int MaxXPos, int MaxYPos, int borderColor, int NormalColor, bool extshadow)
      6          {
   \                     ??DrawHighlightID:
   \   00000000   F04F2DE9           PUSH     {R4-R11,LR}
   \   00000004   04D04DE2           SUB      SP,SP,#+4
   \   00000008   30609DE5           LDR      R6,[SP, #+48]
   \   0000000C   2CB09DE5           LDR      R11,[SP, #+44]
   \   00000010   34709DE5           LDR      R7,[SP, #+52]
   \   00000014   00A0A0E1           MOV      R10,R0
   \   00000018   0140A0E1           MOV      R4,R1
   \   0000001C   0250A0E1           MOV      R5,R2
      7            if (text && text!=EMPTY_TEXTID)
   \   00000020   000054E3           CMP      R4,#+0
   \   00000024   9004E013           MVNNE    R0,#-1879048192
   \   00000028   00005411           CMPNE    R4,R0
   \   0000002C   F18FBD08           POPEQ    {R0,R4-R11,PC}
      8            {
      9              int last=MaxXPos;
     10              if (CEN==0)
   \   00000030   000055E3           CMP      R5,#+0
   \   00000034   0300001A           BNE      ??DrawHighlightID_1
     11              {
     12                XPos=XPos-last;
   \   00000038   0B9043E0           SUB      R9,R3,R11
     13                MaxXPos=XPos+500-last;
   \   0000003C   7D0F89E2           ADD      R0,R9,#+500
   \   00000040   0B8040E0           SUB      R8,R0,R11
   \   00000044   0D0000EA           B        ??DrawHighlightID_2
     14              }
     15              else if (CEN==1)
   \                     ??DrawHighlightID_1:
   \   00000048   010055E3           CMP      R5,#+1
   \   0000004C   0400001A           BNE      ??DrawHighlightID_3
     16              {
     17                MaxXPos=XPos-last;
   \   00000050   0B8043E0           SUB      R8,R3,R11
     18                XPos=XPos-500-last;
   \   00000054   F300E0E3           MVN      R0,#+243
   \   00000058   400FC0E3           BIC      R0,R0,#0x100
   \   0000005C   030080E0           ADD      R0,R0,R3
   \   00000060   050000EA           B        ??DrawHighlightID_4
     19              }
     20              else
     21              {
     22                MaxXPos=Display_GetWidth(0)+500-last;
   \                     ??DrawHighlightID_3:
   \   00000064   0000A0E3           MOV      R0,#+0
   \   00000068   590200EF           SWI      +601
   \   0000006C   7D0F80E2           ADD      R0,R0,#+500
   \   00000070   0B8040E0           SUB      R8,R0,R11
     23                XPos=-500-last;
   \   00000074   F300E0E3           MVN      R0,#+243
   \   00000078   400FC0E3           BIC      R0,R0,#0x100
   \                     ??DrawHighlightID_4:
   \   0000007C   0B9040E0           SUB      R9,R0,R11
     24              }
     25              SetFont(font);
   \                     ??DrawHighlightID_2:
   \   00000080   0A00A0E1           MOV      R0,R10
   \   00000084   F10100EF           SWI      +497
   \   00000088   28009DE5           LDR      R0,[SP, #+40]
   \   0000008C   01A088E2           ADD      R10,R8,#+1
   \   00000090   01B080E2           ADD      R11,R0,#+1
   \   00000094   3C00DDE5           LDRB     R0,[SP, #+60]
   \   00000098   000050E3           CMP      R0,#+0
   \   0000009C   1000001A           BNE      ??DrawHighlightID_5
     26              if (!extshadow)
     27              {
     28                DrawString(text,CEN,XPos+1,YPos+1,MaxXPos+1,MaxYPos,60,0x05,borderColor,borderColor);
   \   000000A0   0700A0E1           MOV      R0,R7
   \   000000A4   01002DE9           PUSH     {R0}
   \   000000A8   80002DE9           PUSH     {R7}
   \   000000AC   0B30A0E1           MOV      R3,R11
   \   000000B0   0500A0E3           MOV      R0,#+5
   \   000000B4   01002DE9           PUSH     {R0}
   \   000000B8   012089E2           ADD      R2,R9,#+1
   \   000000BC   0510A0E1           MOV      R1,R5
   \   000000C0   3C00A0E3           MOV      R0,#+60
   \   000000C4   01002DE9           PUSH     {R0}
   \   000000C8   0600A0E1           MOV      R0,R6
   \   000000CC   01002DE9           PUSH     {R0}
   \   000000D0   00042DE9           PUSH     {R10}
   \   000000D4   0400A0E1           MOV      R0,R4
   \   000000D8   ED0100EF           SWI      +493
   \   000000DC   18D08DE2           ADD      SP,SP,#+24
   \   000000E0   850000EA           B        ??DrawHighlightID_6
     29              }
   \                     ??DrawHighlightID_5:
   \   000000E4   28109DE5           LDR      R1,[SP, #+40]
   \   000000E8   0700A0E1           MOV      R0,R7
   \   000000EC   011041E2           SUB      R1,R1,#+1
   \   000000F0   00108DE5           STR      R1,[SP, #+0]
   \   000000F4   01002DE9           PUSH     {R0}
   \   000000F8   01002DE9           PUSH     {R0}
   \   000000FC   0130A0E1           MOV      R3,R1
   \   00000100   012049E2           SUB      R2,R9,#+1
   \   00000104   0510A0E1           MOV      R1,R5
   \   00000108   0500A0E3           MOV      R0,#+5
   \   0000010C   01002DE9           PUSH     {R0}
   \   00000110   3C00A0E3           MOV      R0,#+60
   \   00000114   01002DE9           PUSH     {R0}
   \   00000118   010046E2           SUB      R0,R6,#+1
   \   0000011C   01002DE9           PUSH     {R0}
   \   00000120   010048E2           SUB      R0,R8,#+1
   \   00000124   01002DE9           PUSH     {R0}
   \   00000128   0400A0E1           MOV      R0,R4
     30              else
     31              {
     32                DrawString(text,CEN,XPos-1,YPos-1,MaxXPos-1,MaxYPos-1,60,0x05,borderColor,borderColor);
   \   0000012C   ED0100EF           SWI      +493
     33                DrawString(text,CEN,XPos-1,YPos,MaxXPos-1,MaxYPos,60,0x05,borderColor,borderColor);
   \   00000130   0700A0E1           MOV      R0,R7
   \   00000134   01002DE9           PUSH     {R0}
   \   00000138   01002DE9           PUSH     {R0}
   \   0000013C   012049E2           SUB      R2,R9,#+1
   \   00000140   0510A0E1           MOV      R1,R5
   \   00000144   0500A0E3           MOV      R0,#+5
   \   00000148   01002DE9           PUSH     {R0}
   \   0000014C   3C00A0E3           MOV      R0,#+60
   \   00000150   01002DE9           PUSH     {R0}
   \   00000154   0600A0E1           MOV      R0,R6
   \   00000158   01002DE9           PUSH     {R0}
   \   0000015C   010048E2           SUB      R0,R8,#+1
   \   00000160   01002DE9           PUSH     {R0}
   \   00000164   58309DE5           LDR      R3,[SP, #+88]
   \   00000168   0400A0E1           MOV      R0,R4
   \   0000016C   ED0100EF           SWI      +493
   \   00000170   30D08DE2           ADD      SP,SP,#+48
   \   00000174   0700A0E1           MOV      R0,R7
   \   00000178   01002DE9           PUSH     {R0}
   \   0000017C   01002DE9           PUSH     {R0}
   \   00000180   0B30A0E1           MOV      R3,R11
   \   00000184   012049E2           SUB      R2,R9,#+1
   \   00000188   0510A0E1           MOV      R1,R5
   \   0000018C   0500A0E3           MOV      R0,#+5
   \   00000190   01002DE9           PUSH     {R0}
   \   00000194   3C00A0E3           MOV      R0,#+60
   \   00000198   01002DE9           PUSH     {R0}
   \   0000019C   010086E2           ADD      R0,R6,#+1
   \   000001A0   01002DE9           PUSH     {R0}
   \   000001A4   010048E2           SUB      R0,R8,#+1
   \   000001A8   01002DE9           PUSH     {R0}
   \   000001AC   0400A0E1           MOV      R0,R4
     34                DrawString(text,CEN,XPos-1,YPos+1,MaxXPos-1,MaxYPos+1,60,0x05,borderColor,borderColor);
   \   000001B0   ED0100EF           SWI      +493
     35                DrawString(text,CEN,XPos,YPos-1,MaxXPos,MaxYPos-1,60,0x05,borderColor,borderColor);
   \   000001B4   0700A0E1           MOV      R0,R7
   \   000001B8   01002DE9           PUSH     {R0}
   \   000001BC   01002DE9           PUSH     {R0}
   \   000001C0   0920A0E1           MOV      R2,R9
   \   000001C4   0510A0E1           MOV      R1,R5
   \   000001C8   0500A0E3           MOV      R0,#+5
   \   000001CC   01002DE9           PUSH     {R0}
   \   000001D0   3C00A0E3           MOV      R0,#+60
   \   000001D4   01002DE9           PUSH     {R0}
   \   000001D8   010046E2           SUB      R0,R6,#+1
   \   000001DC   01002DE9           PUSH     {R0}
   \   000001E0   0800A0E1           MOV      R0,R8
   \   000001E4   01002DE9           PUSH     {R0}
   \   000001E8   30309DE5           LDR      R3,[SP, #+48]
   \   000001EC   0400A0E1           MOV      R0,R4
   \   000001F0   ED0100EF           SWI      +493
   \   000001F4   30D08DE2           ADD      SP,SP,#+48
     36                DrawString(text,CEN,XPos,YPos+1,MaxXPos,MaxYPos+1,60,0x05,borderColor,borderColor);
   \   000001F8   0700A0E1           MOV      R0,R7
   \   000001FC   01002DE9           PUSH     {R0}
   \   00000200   01002DE9           PUSH     {R0}
   \   00000204   0B30A0E1           MOV      R3,R11
   \   00000208   0920A0E1           MOV      R2,R9
   \   0000020C   0510A0E1           MOV      R1,R5
   \   00000210   0500A0E3           MOV      R0,#+5
   \   00000214   01002DE9           PUSH     {R0}
   \   00000218   3C00A0E3           MOV      R0,#+60
   \   0000021C   01002DE9           PUSH     {R0}
   \   00000220   010086E2           ADD      R0,R6,#+1
   \   00000224   01002DE9           PUSH     {R0}
   \   00000228   0800A0E1           MOV      R0,R8
   \   0000022C   01002DE9           PUSH     {R0}
   \   00000230   0400A0E1           MOV      R0,R4
   \   00000234   ED0100EF           SWI      +493
     37                DrawString(text,CEN,XPos+1,YPos-1,MaxXPos+1,MaxYPos-1,60,0x05,borderColor,borderColor);
   \   00000238   0700A0E1           MOV      R0,R7
   \   0000023C   01002DE9           PUSH     {R0}
   \   00000240   01002DE9           PUSH     {R0}
   \   00000244   012089E2           ADD      R2,R9,#+1
   \   00000248   0510A0E1           MOV      R1,R5
   \   0000024C   0500A0E3           MOV      R0,#+5
   \   00000250   01002DE9           PUSH     {R0}
   \   00000254   3C00A0E3           MOV      R0,#+60
   \   00000258   01002DE9           PUSH     {R0}
   \   0000025C   010046E2           SUB      R0,R6,#+1
   \   00000260   01002DE9           PUSH     {R0}
   \   00000264   0A00A0E1           MOV      R0,R10
   \   00000268   01002DE9           PUSH     {R0}
   \   0000026C   30309DE5           LDR      R3,[SP, #+48]
   \   00000270   0400A0E1           MOV      R0,R4
   \   00000274   ED0100EF           SWI      +493
   \   00000278   30D08DE2           ADD      SP,SP,#+48
     38                DrawString(text,CEN,XPos+1,YPos,MaxXPos+1,MaxYPos,60,0x05,borderColor,borderColor);
   \   0000027C   0700A0E1           MOV      R0,R7
   \   00000280   01002DE9           PUSH     {R0}
   \   00000284   01002DE9           PUSH     {R0}
   \   00000288   012089E2           ADD      R2,R9,#+1
   \   0000028C   0510A0E1           MOV      R1,R5
   \   00000290   0500A0E3           MOV      R0,#+5
   \   00000294   01002DE9           PUSH     {R0}
   \   00000298   3C00A0E3           MOV      R0,#+60
   \   0000029C   01002DE9           PUSH     {R0}
   \   000002A0   0600A0E1           MOV      R0,R6
   \   000002A4   01002DE9           PUSH     {R0}
   \   000002A8   0A00A0E1           MOV      R0,R10
   \   000002AC   01002DE9           PUSH     {R0}
   \   000002B0   40309DE5           LDR      R3,[SP, #+64]
   \   000002B4   0400A0E1           MOV      R0,R4
   \   000002B8   ED0100EF           SWI      +493
     39                DrawString(text,CEN,XPos+1,YPos+1,MaxXPos+1,MaxYPos+1,60,0x05,borderColor,borderColor);
   \   000002BC   0700A0E1           MOV      R0,R7
   \   000002C0   01002DE9           PUSH     {R0}
   \   000002C4   80002DE9           PUSH     {R7}
   \   000002C8   0B30A0E1           MOV      R3,R11
   \   000002CC   0500A0E3           MOV      R0,#+5
   \   000002D0   01002DE9           PUSH     {R0}
   \   000002D4   012089E2           ADD      R2,R9,#+1
   \   000002D8   0510A0E1           MOV      R1,R5
   \   000002DC   3C00A0E3           MOV      R0,#+60
   \   000002E0   01002DE9           PUSH     {R0}
   \   000002E4   010086E2           ADD      R0,R6,#+1
   \   000002E8   01002DE9           PUSH     {R0}
   \   000002EC   00042DE9           PUSH     {R10}
   \   000002F0   0400A0E1           MOV      R0,R4
   \   000002F4   ED0100EF           SWI      +493
   \   000002F8   30D08DE2           ADD      SP,SP,#+48
     40              }
     41              DrawString(text,CEN,XPos,YPos,MaxXPos,MaxYPos,60,0x05,NormalColor,NormalColor);
   \                     ??DrawHighlightID_6:
   \   000002FC   38009DE5           LDR      R0,[SP, #+56]
   \   00000300   0920A0E1           MOV      R2,R9
   \   00000304   01002DE9           PUSH     {R0}
   \   00000308   01002DE9           PUSH     {R0}
   \   0000030C   0510A0E1           MOV      R1,R5
   \   00000310   0500A0E3           MOV      R0,#+5
   \   00000314   01002DE9           PUSH     {R0}
   \   00000318   3C00A0E3           MOV      R0,#+60
   \   0000031C   01002DE9           PUSH     {R0}
   \   00000320   40002DE9           PUSH     {R6}
   \   00000324   00012DE9           PUSH     {R8}
   \   00000328   40309DE5           LDR      R3,[SP, #+64]
   \   0000032C   0400A0E1           MOV      R0,R4
   \   00000330   ED0100EF           SWI      +493
   \   00000334   18D08DE2           ADD      SP,SP,#+24
     42            }
     43          };
   \   00000338   F18FBDE8           POP      {R0,R4-R11,PC}   ;; return
     44          

   \                                 In segment CODE, align 4, keep-with-next
     45          void DrawHighlightID2(int font,int text,int ct, int XPos, int YPos, int borderColor, int NormalColor, bool extshadow)
     46          {
   \                     ??DrawHighlightID2:
   \   00000000   F04F2DE9           PUSH     {R4-R11,LR}
   \   00000004   04D04DE2           SUB      SP,SP,#+4
   \   00000008   2C709DE5           LDR      R7,[SP, #+44]
   \   0000000C   0140A0E1           MOV      R4,R1
   \   00000010   0250A0E1           MOV      R5,R2
   \   00000014   0360A0E1           MOV      R6,R3
     47            if (text && text!=EMPTY_TEXTID)
   \   00000018   000054E3           CMP      R4,#+0
   \   0000001C   9014E013           MVNNE    R1,#-1879048192
   \   00000020   01005411           CMPNE    R4,R1
   \   00000024   F18FBD08           POPEQ    {R0,R4-R11,PC}
     48            {
     49              SetFont(font); //Устанавливаем шрифт из первого параметра функции.
   \   00000028   F10100EF           SWI      +497
     50              int MaxXPos,MaxYPos;
     51              if (ct==0)
   \   0000002C   000055E3           CMP      R5,#+0
     52              {
     53                MaxXPos=XPos+500;
   \   00000030   7D8F8602           ADDEQ    R8,R6,#+500
   \   00000034   0B00000A           BEQ      ??DrawHighlightID2_1
     54              }
     55              else if (ct==1)
   \   00000038   010055E3           CMP      R5,#+1
   \   0000003C   0400001A           BNE      ??DrawHighlightID2_2
     56              {
     57                MaxXPos=XPos;
   \   00000040   0680A0E1           MOV      R8,R6
     58                XPos=XPos-500;
   \   00000044   F300E0E3           MVN      R0,#+243
   \   00000048   400FC0E3           BIC      R0,R0,#0x100
   \   0000004C   066080E0           ADD      R6,R0,R6
   \   00000050   040000EA           B        ??DrawHighlightID2_1
     59              }
     60              else
     61              {
     62                MaxXPos=Display_GetWidth(0)+500;
   \                     ??DrawHighlightID2_2:
   \   00000054   0000A0E3           MOV      R0,#+0
   \   00000058   590200EF           SWI      +601
   \   0000005C   7D8F80E2           ADD      R8,R0,#+500
     63                XPos=-500;
   \   00000060   F360E0E3           MVN      R6,#+243
   \   00000064   406FC6E3           BIC      R6,R6,#0x100
     64              }
     65              MaxYPos=SoftSize;
   \                     ??DrawHighlightID2_1:
   \   00000068   B4029FE5           LDR      R0,??DrawHighlightID2_3  ;; SoftSize
   \   0000006C   01A088E2           ADD      R10,R8,#+1
   \   00000070   009090E5           LDR      R9,[R0, #+0]
   \   00000074   28009DE5           LDR      R0,[SP, #+40]
   \   00000078   01B080E2           ADD      R11,R0,#+1
   \   0000007C   3400DDE5           LDRB     R0,[SP, #+52]
   \   00000080   000050E3           CMP      R0,#+0
   \   00000084   1000001A           BNE      ??DrawHighlightID2_4
     66              if (!extshadow)
     67              {
     68                DrawString(text,ct,XPos+1,YPos+1,MaxXPos+1,MaxYPos,60,0x05,borderColor,borderColor);
   \   00000088   0700A0E1           MOV      R0,R7
   \   0000008C   01002DE9           PUSH     {R0}
   \   00000090   80002DE9           PUSH     {R7}
   \   00000094   0B30A0E1           MOV      R3,R11
   \   00000098   0500A0E3           MOV      R0,#+5
   \   0000009C   01002DE9           PUSH     {R0}
   \   000000A0   012086E2           ADD      R2,R6,#+1
   \   000000A4   0510A0E1           MOV      R1,R5
   \   000000A8   3C00A0E3           MOV      R0,#+60
   \   000000AC   01002DE9           PUSH     {R0}
   \   000000B0   0900A0E1           MOV      R0,R9
   \   000000B4   01002DE9           PUSH     {R0}
   \   000000B8   00042DE9           PUSH     {R10}
   \   000000BC   0400A0E1           MOV      R0,R4
   \   000000C0   ED0100EF           SWI      +493
   \   000000C4   18D08DE2           ADD      SP,SP,#+24
   \   000000C8   850000EA           B        ??DrawHighlightID2_5
     69              }
   \                     ??DrawHighlightID2_4:
   \   000000CC   28109DE5           LDR      R1,[SP, #+40]
   \   000000D0   0700A0E1           MOV      R0,R7
   \   000000D4   011041E2           SUB      R1,R1,#+1
   \   000000D8   00108DE5           STR      R1,[SP, #+0]
   \   000000DC   01002DE9           PUSH     {R0}
   \   000000E0   01002DE9           PUSH     {R0}
   \   000000E4   0130A0E1           MOV      R3,R1
   \   000000E8   012046E2           SUB      R2,R6,#+1
   \   000000EC   0510A0E1           MOV      R1,R5
   \   000000F0   0500A0E3           MOV      R0,#+5
   \   000000F4   01002DE9           PUSH     {R0}
   \   000000F8   3C00A0E3           MOV      R0,#+60
   \   000000FC   01002DE9           PUSH     {R0}
   \   00000100   010049E2           SUB      R0,R9,#+1
   \   00000104   01002DE9           PUSH     {R0}
   \   00000108   010048E2           SUB      R0,R8,#+1
   \   0000010C   01002DE9           PUSH     {R0}
   \   00000110   0400A0E1           MOV      R0,R4
     70              else
     71              {
     72                DrawString(text,ct,XPos-1,YPos-1,MaxXPos-1,MaxYPos-1,60,0x05,borderColor,borderColor);
   \   00000114   ED0100EF           SWI      +493
     73                DrawString(text,ct,XPos-1,YPos,MaxXPos-1,MaxYPos,60,0x05,borderColor,borderColor);
   \   00000118   0700A0E1           MOV      R0,R7
   \   0000011C   01002DE9           PUSH     {R0}
   \   00000120   01002DE9           PUSH     {R0}
   \   00000124   012046E2           SUB      R2,R6,#+1
   \   00000128   0510A0E1           MOV      R1,R5
   \   0000012C   0500A0E3           MOV      R0,#+5
   \   00000130   01002DE9           PUSH     {R0}
   \   00000134   3C00A0E3           MOV      R0,#+60
   \   00000138   01002DE9           PUSH     {R0}
   \   0000013C   0900A0E1           MOV      R0,R9
   \   00000140   01002DE9           PUSH     {R0}
   \   00000144   010048E2           SUB      R0,R8,#+1
   \   00000148   01002DE9           PUSH     {R0}
   \   0000014C   58309DE5           LDR      R3,[SP, #+88]
   \   00000150   0400A0E1           MOV      R0,R4
   \   00000154   ED0100EF           SWI      +493
   \   00000158   30D08DE2           ADD      SP,SP,#+48
   \   0000015C   0700A0E1           MOV      R0,R7
   \   00000160   01002DE9           PUSH     {R0}
   \   00000164   01002DE9           PUSH     {R0}
   \   00000168   0B30A0E1           MOV      R3,R11
   \   0000016C   012046E2           SUB      R2,R6,#+1
   \   00000170   0510A0E1           MOV      R1,R5
   \   00000174   0500A0E3           MOV      R0,#+5
   \   00000178   01002DE9           PUSH     {R0}
   \   0000017C   3C00A0E3           MOV      R0,#+60
   \   00000180   01002DE9           PUSH     {R0}
   \   00000184   010089E2           ADD      R0,R9,#+1
   \   00000188   01002DE9           PUSH     {R0}
   \   0000018C   010048E2           SUB      R0,R8,#+1
   \   00000190   01002DE9           PUSH     {R0}
   \   00000194   0400A0E1           MOV      R0,R4
     74                DrawString(text,ct,XPos-1,YPos+1,MaxXPos-1,MaxYPos+1,60,0x05,borderColor,borderColor);
   \   00000198   ED0100EF           SWI      +493
     75                DrawString(text,ct,XPos,YPos-1,MaxXPos,MaxYPos-1,60,0x05,borderColor,borderColor);
   \   0000019C   0700A0E1           MOV      R0,R7
   \   000001A0   01002DE9           PUSH     {R0}
   \   000001A4   01002DE9           PUSH     {R0}
   \   000001A8   0620A0E1           MOV      R2,R6
   \   000001AC   0510A0E1           MOV      R1,R5
   \   000001B0   0500A0E3           MOV      R0,#+5
   \   000001B4   01002DE9           PUSH     {R0}
   \   000001B8   3C00A0E3           MOV      R0,#+60
   \   000001BC   01002DE9           PUSH     {R0}
   \   000001C0   010049E2           SUB      R0,R9,#+1
   \   000001C4   01002DE9           PUSH     {R0}
   \   000001C8   0800A0E1           MOV      R0,R8
   \   000001CC   01002DE9           PUSH     {R0}
   \   000001D0   30309DE5           LDR      R3,[SP, #+48]
   \   000001D4   0400A0E1           MOV      R0,R4
   \   000001D8   ED0100EF           SWI      +493
   \   000001DC   30D08DE2           ADD      SP,SP,#+48
     76                DrawString(text,ct,XPos,YPos+1,MaxXPos,MaxYPos+1,60,0x05,borderColor,borderColor);
   \   000001E0   0700A0E1           MOV      R0,R7
   \   000001E4   01002DE9           PUSH     {R0}
   \   000001E8   01002DE9           PUSH     {R0}
   \   000001EC   0B30A0E1           MOV      R3,R11
   \   000001F0   0620A0E1           MOV      R2,R6
   \   000001F4   0510A0E1           MOV      R1,R5
   \   000001F8   0500A0E3           MOV      R0,#+5
   \   000001FC   01002DE9           PUSH     {R0}
   \   00000200   3C00A0E3           MOV      R0,#+60
   \   00000204   01002DE9           PUSH     {R0}
   \   00000208   010089E2           ADD      R0,R9,#+1
   \   0000020C   01002DE9           PUSH     {R0}
   \   00000210   0800A0E1           MOV      R0,R8
   \   00000214   01002DE9           PUSH     {R0}
   \   00000218   0400A0E1           MOV      R0,R4
   \   0000021C   ED0100EF           SWI      +493
     77                DrawString(text,ct,XPos+1,YPos-1,MaxXPos+1,MaxYPos-1,60,0x05,borderColor,borderColor);
   \   00000220   0700A0E1           MOV      R0,R7
   \   00000224   01002DE9           PUSH     {R0}
   \   00000228   01002DE9           PUSH     {R0}
   \   0000022C   012086E2           ADD      R2,R6,#+1
   \   00000230   0510A0E1           MOV      R1,R5
   \   00000234   0500A0E3           MOV      R0,#+5
   \   00000238   01002DE9           PUSH     {R0}
   \   0000023C   3C00A0E3           MOV      R0,#+60
   \   00000240   01002DE9           PUSH     {R0}
   \   00000244   010049E2           SUB      R0,R9,#+1
   \   00000248   01002DE9           PUSH     {R0}
   \   0000024C   0A00A0E1           MOV      R0,R10
   \   00000250   01002DE9           PUSH     {R0}
   \   00000254   30309DE5           LDR      R3,[SP, #+48]
   \   00000258   0400A0E1           MOV      R0,R4
   \   0000025C   ED0100EF           SWI      +493
   \   00000260   30D08DE2           ADD      SP,SP,#+48
     78                DrawString(text,ct,XPos+1,YPos,MaxXPos+1,MaxYPos,60,0x05,borderColor,borderColor);
   \   00000264   0700A0E1           MOV      R0,R7
   \   00000268   01002DE9           PUSH     {R0}
   \   0000026C   01002DE9           PUSH     {R0}
   \   00000270   012086E2           ADD      R2,R6,#+1
   \   00000274   0510A0E1           MOV      R1,R5
   \   00000278   0500A0E3           MOV      R0,#+5
   \   0000027C   01002DE9           PUSH     {R0}
   \   00000280   3C00A0E3           MOV      R0,#+60
   \   00000284   01002DE9           PUSH     {R0}
   \   00000288   0900A0E1           MOV      R0,R9
   \   0000028C   01002DE9           PUSH     {R0}
   \   00000290   0A00A0E1           MOV      R0,R10
   \   00000294   01002DE9           PUSH     {R0}
   \   00000298   40309DE5           LDR      R3,[SP, #+64]
   \   0000029C   0400A0E1           MOV      R0,R4
   \   000002A0   ED0100EF           SWI      +493
     79                DrawString(text,ct,XPos+1,YPos+1,MaxXPos+1,MaxYPos+1,60,0x05,borderColor,borderColor);
   \   000002A4   0700A0E1           MOV      R0,R7
   \   000002A8   01002DE9           PUSH     {R0}
   \   000002AC   80002DE9           PUSH     {R7}
   \   000002B0   0B30A0E1           MOV      R3,R11
   \   000002B4   0500A0E3           MOV      R0,#+5
   \   000002B8   01002DE9           PUSH     {R0}
   \   000002BC   012086E2           ADD      R2,R6,#+1
   \   000002C0   0510A0E1           MOV      R1,R5
   \   000002C4   3C00A0E3           MOV      R0,#+60
   \   000002C8   01002DE9           PUSH     {R0}
   \   000002CC   010089E2           ADD      R0,R9,#+1
   \   000002D0   01002DE9           PUSH     {R0}
   \   000002D4   00042DE9           PUSH     {R10}
   \   000002D8   0400A0E1           MOV      R0,R4
   \   000002DC   ED0100EF           SWI      +493
   \   000002E0   30D08DE2           ADD      SP,SP,#+48
     80              }
     81              DrawString(text,ct,XPos,YPos,MaxXPos,MaxYPos,30,5,NormalColor,NormalColor);
   \                     ??DrawHighlightID2_5:
   \   000002E4   30009DE5           LDR      R0,[SP, #+48]
   \   000002E8   0620A0E1           MOV      R2,R6
   \   000002EC   01002DE9           PUSH     {R0}
   \   000002F0   01002DE9           PUSH     {R0}
   \   000002F4   0510A0E1           MOV      R1,R5
   \   000002F8   0500A0E3           MOV      R0,#+5
   \   000002FC   01002DE9           PUSH     {R0}
   \   00000300   1E00A0E3           MOV      R0,#+30
   \   00000304   01002DE9           PUSH     {R0}
   \   00000308   00022DE9           PUSH     {R9}
   \   0000030C   00012DE9           PUSH     {R8}
   \   00000310   40309DE5           LDR      R3,[SP, #+64]
   \   00000314   0400A0E1           MOV      R0,R4
   \   00000318   ED0100EF           SWI      +493
   \   0000031C   18D08DE2           ADD      SP,SP,#+24
     82            }
     83          };
   \   00000320   F18FBDE8           POP      {R0,R4-R11,PC}   ;; return
   \                     ??DrawHighlightID2_3:
   \   00000324   ........           DC32     SoftSize
     84          

   Maximum stack usage in bytes:

     Function                       CSTACK
     --------                       ------
     DrawHighlightID(int, int, int, int, int, int, int, int, int, bool)
                                       88
     DrawHighlightID2(int, int, int, int, int, int, int, bool)
                                       88


   Segment part sizes:

     Function/Label                 Bytes
     --------------                 -----
     DrawHighlightID(int, int, int, int, int, int, int, int, int, bool)
                                     828
     DrawHighlightID2(int, int, int, int, int, int, int, bool)
                                     808
      Others                           8

 
 1 644 bytes in segment CODE
 
 1 636 bytes of CODE memory (+ 8 bytes shared)

Errors: none
Warnings: none
