//////////////////////////////////////////////////////////////////////////////
//                                                                           /
// IAR ARM ANSI C/C++ Compiler V4.42A/W32 EVALUATION   10/Jun/2013  23:08:13 /
// Copyright 1999-2005 IAR Systems. All rights reserved.                     /
//                                                                           /
//    Cpu mode        =  interwork                                           /
//    Endian          =  little                                              /
//    Stack alignment =  4                                                   /
//    Source file     =  Z:\home\perk11\www\perk11.info\svn\SE\Tamagochi\mai /
//                       n.c                                                 /
//    Command line    =  Z:\home\perk11\www\perk11.info\svn\SE\Tamagochi\mai /
//                       n.c -D NDEBUG -D LANG_EN -D OLDFUNCTIONS -lC        /
//                       Z:\home\perk11\www\perk11.info\svn\SE\Tamagochi\Rel /
//                       ease_EN\List\ -lA Z:\home\perk11\www\perk11.info\sv /
//                       n\SE\Tamagochi\Release_EN\List\ -o                  /
//                       Z:\home\perk11\www\perk11.info\svn\SE\Tamagochi\Rel /
//                       ease_EN\Obj\ -s9 --no_unroll --no_inline            /
//                       --cpu_mode arm --endian little --cpu ARM926EJ-S     /
//                       --stack_align 4 --interwork -e --enable_multibytes  /
//                       --fpu None --eec++ --dlib_config                    /
//                       Z:\home\perk11\IAR2\arm\LIB\dl5tpainl8n.h -I        /
//                       Z:\home\perk11\IAR2\arm\INC\                        /
//    List file       =  Z:\home\perk11\www\perk11.info\svn\SE\Tamagochi\Rel /
//                       ease_EN\List\main.s79                               /
//                                                                           /
//                                                                           /
//////////////////////////////////////////////////////////////////////////////

        NAME main

        RTMODEL "StackAlign4", "USED"
        RTMODEL "__cpu_mode", "__pcs__interwork"
        RTMODEL "__data_model", "absolute"
        RTMODEL "__endian", "little"
        RTMODEL "__rt_version", "6"

        RSEG CSTACK:DATA:NOROOT(2)

        ERROR
//NOTE: This module defines or uses C++ features that are not
//      accessible from assembler code. Assembling this file will
//      not produce an equivalent object file to the one produced
//      by the C++ compiler.

        PUBWEAK `?*?DATA_ID`
        PUBLIC ??BatheCommand
        FUNCTION ??BatheCommand,0203H
        LOCFRAME CSTACK, 292, STACK
        MULTWEAK ??BatheCommand??rT
        PUBLIC ??ChangeName
        FUNCTION ??ChangeName,0203H
        LOCFRAME CSTACK, 84, STACK
        MULTWEAK ??ChangeName??rT
        PUBLIC ??ChangeStatusImage
        FUNCTION ??ChangeStatusImage,0203H
        LOCFRAME CSTACK, 292, STACK
        MULTWEAK ??ChangeStatusImage??rT
        PUBLIC ??CheckEv
        FUNCTION ??CheckEv,0203H
        MULTWEAK ??CheckEv??rT
        MULTWEAK ??CloseMenu??rA
        PUBLIC ??CreateTestFile
        FUNCTION ??CreateTestFile,0203H
        LOCFRAME CSTACK, 40, STACK
        MULTWEAK ??CreateTestFile??rT
??DataTable0 EQU 0
??DataTable1 EQU 0
??DataTable10 EQU 0
??DataTable102 EQU 0
??DataTable103 EQU 0
??DataTable105 EQU 0
??DataTable107 EQU 0
??DataTable109 EQU 0
??DataTable11 EQU 0
??DataTable110 EQU 0
??DataTable111 EQU 0
??DataTable112 EQU 0
??DataTable113 EQU 0
??DataTable115 EQU 0
??DataTable116 EQU 0
??DataTable117 EQU 0
??DataTable118 EQU 0
??DataTable120 EQU 0
??DataTable123 EQU 0
??DataTable124 EQU 0
??DataTable125 EQU 0
??DataTable126 EQU 0
??DataTable127 EQU 0
??DataTable128 EQU 0
??DataTable129 EQU 0
??DataTable13 EQU 0
??DataTable130 EQU 0
??DataTable136 EQU 0
??DataTable137 EQU 0
??DataTable138 EQU 0
??DataTable139 EQU 0
??DataTable14 EQU 0
??DataTable144 EQU 0
??DataTable145 EQU 0
??DataTable149 EQU 0
??DataTable15 EQU 0
??DataTable150 EQU 0
??DataTable151 EQU 0
??DataTable152 EQU 0
??DataTable153 EQU 0
??DataTable154 EQU 0
??DataTable155 EQU 0
??DataTable156 EQU 0
??DataTable157 EQU 0
??DataTable16 EQU 0
??DataTable165 EQU 0
??DataTable19 EQU 0
??DataTable2 EQU 0
??DataTable20 EQU 0
??DataTable22 EQU 0
??DataTable25 EQU 0
??DataTable26 EQU 0
??DataTable27 EQU 0
??DataTable28 EQU 0
??DataTable29 EQU 0
??DataTable3 EQU 0
??DataTable30 EQU 0
??DataTable31 EQU 0
??DataTable32 EQU 0
??DataTable33 EQU 0
??DataTable34 EQU 0
??DataTable35 EQU 0
??DataTable36 EQU 0
??DataTable37 EQU 0
??DataTable38 EQU 0
??DataTable39 EQU 0
??DataTable40 EQU 0
??DataTable41 EQU 0
??DataTable42 EQU 0
??DataTable43 EQU 0
??DataTable44 EQU 0
??DataTable45 EQU 0
??DataTable46 EQU 0
??DataTable48 EQU 0
??DataTable49 EQU 0
??DataTable5 EQU 0
??DataTable50 EQU 0
??DataTable51 EQU 0
??DataTable52 EQU 0
??DataTable53 EQU 0
??DataTable54 EQU 0
??DataTable55 EQU 0
??DataTable56 EQU 0
??DataTable59 EQU 0
??DataTable6 EQU 0
??DataTable61 EQU 0
??DataTable63 EQU 0
??DataTable64 EQU 0
??DataTable65 EQU 0
??DataTable67 EQU 0
??DataTable69 EQU 0
??DataTable72 EQU 0
??DataTable73 EQU 0
??DataTable79 EQU 0
??DataTable83 EQU 0
??DataTable84 EQU 0
??DataTable85 EQU 0
??DataTable86 EQU 0
??DataTable87 EQU 0
??DataTable88 EQU 0
??DataTable89 EQU 0
??DataTable90 EQU 0
??DataTable91 EQU 0
??DataTable92 EQU 0
??DataTable93 EQU 0
??DataTable95 EQU 0
??DataTable96 EQU 0
??DataTable97 EQU 0
??DataTable98 EQU 0
??DataTable99 EQU 0
        PUBLIC ??Discipline
        FUNCTION ??Discipline,0203H
        LOCFRAME CSTACK, 292, STACK
        MULTWEAK ??Discipline??rT
        PUBLIC ??Display_ReDraw
        FUNCTION ??Display_ReDraw,0603H
        LOCFRAME CSTACK, 24, STACK
        MULTWEAK ??Display_ReDraw??rT
        PUBLIC ??DrawParams
        FUNCTION ??DrawParams,0203H
        LOCFRAME CSTACK, 36, STACK
        MULTWEAK ??DrawParams??rT
        MULTWEAK ??EditConfig??rA
        PUBLIC ??FamilyLifeUpdate
        FUNCTION ??FamilyLifeUpdate,0203H
        MULTWEAK ??FamilyLifeUpdate??rT
        PUBLIC ??FatigueSleep
        FUNCTION ??FatigueSleep,0203H
        LOCFRAME CSTACK, 4, STACK
        MULTWEAK ??FatigueSleep??rT
        PUBLIC ??FindName
        FUNCTION ??FindName,0203H
        LOCFRAME CSTACK, 328, STACK
        MULTWEAK ??FindName??rT
        PUBLIC ??GameDetected
        FUNCTION ??GameDetected,0203H
        LOCFRAME CSTACK, 4, STACK
        MULTWEAK ??GameDetected??rT
        PUBLIC ??GamePlay
        FUNCTION ??GamePlay,0203H
        LOCFRAME CSTACK, 292, STACK
        MULTWEAK ??GamePlay??rT
        PUBLIC ??GetJavaName
        FUNCTION ??GetJavaName,0203H
        LOCFRAME CSTACK, 208, STACK
        MULTWEAK ??GetJavaName??rT
        PUBLIC ??HungerSleep
        FUNCTION ??HungerSleep,0203H
        LOCFRAME CSTACK, 4, STACK
        MULTWEAK ??HungerSleep??rT
        PUBLIC ??InfoStatus
        FUNCTION ??InfoStatus,0203H
        LOCFRAME CSTACK, 4, STACK
        MULTWEAK ??InfoStatus??rT
        MULTWEAK ??InitConfig??rA
        PUBLIC ??InitPetPos
        FUNCTION ??InitPetPos,0203H
        LOCFRAME CSTACK, 8, STACK
        MULTWEAK ??InitPetPos??rT
        PUBLIC ??InitPetVar
        FUNCTION ??InitPetVar,0203H
        LOCFRAME CSTACK, 4, STACK
        MULTWEAK ??InitPetVar??rT
        PUBLIC ??InitStatus
        FUNCTION ??InitStatus,0203H
        LOCFRAME CSTACK, 16, STACK
        MULTWEAK ??InitStatus??rT
        PUBWEAK ??LPARAM
        FUNCTION ??LPARAM,0203H
        MULTWEAK ??LPARAM??rA
        MULTWEAK ??LPARAM??rA_1
        PUBWEAK ??LPARAM_1
        FUNCTION ??LPARAM_1,0203H
        PUBLIC ??Light
        FUNCTION ??Light,0203H
        LOCFRAME CSTACK, 16, STACK
        MULTWEAK ??Light??rT
        PUBLIC ??LoadAllPets
        FUNCTION ??LoadAllPets,0203H
        LOCFRAME CSTACK, 12, STACK
        MULTWEAK ??LoadAllPets??rT
        PUBLIC ??LoadStatus
        FUNCTION ??LoadStatus,0203H
        LOCFRAME CSTACK, 776, STACK
        MULTWEAK ??LoadStatus??rT
        FUNCTION ??MainPageOnCreate,0603H
        LOCFRAME CSTACK, 724, STACK
        PUBLIC ??NewBabyCheck
        FUNCTION ??NewBabyCheck,0203H
        LOCFRAME CSTACK, 12, STACK
        MULTWEAK ??NewBabyCheck??rT
        PUBLIC ??NewKey
        FUNCTION ??NewKey,0603H
        LOCFRAME CSTACK, 12, STACK
        MULTWEAK ??NewKey??rT
        PUBLIC ??NightSleep
        FUNCTION ??NightSleep,0203H
        LOCFRAME CSTACK, 4, STACK
        MULTWEAK ??NightSleep??rT
        PUBLIC ??OnBackChangeName
        FUNCTION ??OnBackChangeName,0603H
        LOCFRAME CSTACK, 8, STACK
        MULTWEAK ??OnBackChangeName??rT
        PUBLIC ??OnOkChangeName
        FUNCTION ??OnOkChangeName,0603H
        LOCFRAME CSTACK, 148, STACK
        MULTWEAK ??OnOkChangeName??rT
        PUBWEAK ??Random
        FUNCTION ??Random,0203H
        MULTWEAK ??Random??rA
        PUBLIC ??Randomize
        FUNCTION ??Randomize,0203H
        LOCFRAME CSTACK, 12, STACK
        MULTWEAK ??Randomize??rT
        PUBLIC ??SB_ELF_Killed
        FUNCTION ??SB_ELF_Killed,0603H
        LOCFRAME CSTACK, 24, STACK
        MULTWEAK ??SB_ELF_Killed??rT
        PUBLIC ??SaveStatus
        FUNCTION ??SaveStatus,0203H
        LOCFRAME CSTACK, 488, STACK
        MULTWEAK ??SaveStatus??rT
        PUBLIC ??Send_REDRAW_RELEASE
        FUNCTION ??Send_REDRAW_RELEASE,0203H
        LOCFRAME CSTACK, 8, STACK
        MULTWEAK ??Send_REDRAW_RELEASE??rT
        PUBLIC ??ShowAuthorInfo
        FUNCTION ??ShowAuthorInfo,0603H
        LOCFRAME CSTACK, 20, STACK
        MULTWEAK ??ShowAuthorInfo??rT
        MULTWEAK ??ShowMenu??rA
        MULTWEAK ??ShowStatus??rA
        PUBLIC ??SleepCommand
        FUNCTION ??SleepCommand,0203H
        LOCFRAME CSTACK, 4, STACK
        MULTWEAK ??SleepCommand??rT
        PUBLIC ??SleepProc
        FUNCTION ??SleepProc,0203H
        LOCFRAME CSTACK, 296, STACK
        MULTWEAK ??SleepProc??rT
        PUBLIC ??Soft_ReDraw
        FUNCTION ??Soft_ReDraw,0603H
        LOCFRAME CSTACK, 4, STACK
        MULTWEAK ??Soft_ReDraw??rT
        PUBLIC ??Status_ReDraw
        FUNCTION ??Status_ReDraw,0603H
        LOCFRAME CSTACK, 4, STACK
        MULTWEAK ??Status_ReDraw??rT
        PUBLIC ??TerminateElf
        FUNCTION ??TerminateElf,0603H
        LOCFRAME CSTACK, 12, STACK
        MULTWEAK ??TerminateElf??rT
        FUNCTION ??UpdateName,0203H
        LOCFRAME CSTACK, 12, STACK
        PUBLIC ??UpdatePosition
        FUNCTION ??UpdatePosition,0203H
        MULTWEAK ??UpdatePosition??rT
        PUBLIC ??Vaccinate
        FUNCTION ??Vaccinate,0203H
        LOCFRAME CSTACK, 292, STACK
        MULTWEAK ??Vaccinate??rT
        PUBLIC ??VerifyStatus
        FUNCTION ??VerifyStatus,0203H
        MULTWEAK ??VerifyStatus??rT
        PUBLIC ??WriteLog
        FUNCTION ??WriteLog,0203H
        LOCFRAME CSTACK, 1056, STACK
        MULTWEAK ??WriteLog??rT
        MULTWEAK ??decrypt??rA
        PUBLIC ??elf_exit
        FUNCTION ??elf_exit,0603H
        LOCFRAME CSTACK, 4, STACK
        MULTWEAK ??elf_exit??rT
        MULTWEAK ??encrypt??rA
        MULTWEAK ??extractdir??rA
        PUBLIC ??free_icons
        FUNCTION ??free_icons,0203H
        LOCFRAME CSTACK, 20, STACK
        MULTWEAK ??free_icons??rT
        PUBLIC ??free_strings
        FUNCTION ??free_strings,0203H
        MULTWEAK ??free_strings??rT
        MULTWEAK ??getdir??rA
        PUBLIC ??isBookmanDaemonBook
        FUNCTION ??isBookmanDaemonBook,0203H
        LOCFRAME CSTACK, 4, STACK
        MULTWEAK ??isBookmanDaemonBook??rT
        PUBLIC ??isNight
        FUNCTION ??isNight,0203H
        LOCFRAME CSTACK, 12, STACK
        MULTWEAK ??isNight??rT
        PUBLIC ??isTamagochiBook
        FUNCTION ??isTamagochiBook,0603H
        LOCFRAME CSTACK, 8, STACK
        MULTWEAK ??isTamagochiBook??rT
        MULTWEAK ??kill_data??rA
        PUBLIC ??life_proc
        FUNCTION ??life_proc,0203H
        LOCFRAME CSTACK, 1688, STACK
        MULTWEAK ??life_proc??rT
        PUBLIC ??load_icons
        FUNCTION ??load_icons,0203H
        LOCFRAME CSTACK, 312, STACK
        MULTWEAK ??load_icons??rT
        PUBLIC ??load_strings
        FUNCTION ??load_strings,0203H
        LOCFRAME CSTACK, 4, STACK
        MULTWEAK ??load_strings??rT
        MULTWEAK ??main??rT
        MULTWEAK ??myCrc32??rA
        PUBLIC ??offTimerScreen
        FUNCTION ??offTimerScreen,0603H
        LOCFRAME CSTACK, 12, STACK
        MULTWEAK ??offTimerScreen??rT
        PUBLIC ??onBcfgConfig
        FUNCTION ??onBcfgConfig,0203H
        LOCFRAME CSTACK, 8, STACK
        MULTWEAK ??onBcfgConfig??rT
        PUBLIC ??onCloseTamagochiBook
        FUNCTION ??onCloseTamagochiBook,0603H
        LOCFRAME CSTACK, 280, STACK
        MULTWEAK ??onCloseTamagochiBook??rT
        PUBLIC ??onHelloMsg
        FUNCTION ??onHelloMsg,0603H
        LOCFRAME CSTACK, 296, STACK
        MULTWEAK ??onHelloMsg??rT
        FUNCTION ??onReconfigElf,0603H
        LOCFRAME CSTACK, 28, STACK
        PUBLIC ??onTimerScreen
        FUNCTION ??onTimerScreen,0603H
        LOCFRAME CSTACK, 12, STACK
        MULTWEAK ??onTimerScreen??rT
        PUBLIC ??onTimer_life
        FUNCTION ??onTimer_life,0603H
        LOCFRAME CSTACK, 24, STACK
        MULTWEAK ??onTimer_life??rT
        PUBLIC ??onTimer_refresh
        FUNCTION ??onTimer_refresh,0603H
        LOCFRAME CSTACK, 16, STACK
        MULTWEAK ??onTimer_refresh??rT
        PUBLIC ??onTimer_save
        FUNCTION ??onTimer_save,0603H
        LOCFRAME CSTACK, 16, STACK
        MULTWEAK ??onTimer_save??rT
        MULTWEAK `??operator delete??rA`
        MULTWEAK `??operator new??rA`
        PUBWEAK `??operator void *`
        FUNCTION `??operator void *`,0203H
        MULTWEAK `??operator void *??rA`
        PUBLIC ??set_all_old_img_status
        FUNCTION ??set_all_old_img_status,0203H
        MULTWEAK ??set_all_old_img_status??rT
        PUBLIC ??set_all_simg_status
        FUNCTION ??set_all_simg_status,0203H
        MULTWEAK ??set_all_simg_status??rT
        PUBLIC ??start_vibra
        FUNCTION ??start_vibra,0203H
        LOCFRAME CSTACK, 16, STACK
        MULTWEAK ??start_vibra??rT
        PUBWEAK ?init?tab?DATA_I
        PUBWEAK ?init?tab?DATA_Z
        PUBLIC DisplayHeight
        PUBLIC DisplayWidth
        PUBLIC Display_desc
        PUBLIC Display_oldReDraw
        PUBLIC GUI_display
        PUBLIC GUI_soft
        PUBLIC GUI_status
        PUBLIC Pets
        PUBLIC SmileSize
        PUBLIC SoftBarHeight
        PUBLIC SoftBarY
        PUBLIC Soft_desc
        PUBLIC Soft_oldReDraw
        PUBLIC StatSize
        PUBLIC StatusBarHeight
        PUBLIC StatusBarY
        PUBLIC Status_desc
        PUBLIC Status_oldReDraw
        PUBLIC TamagochiBook
        PUBLIC base_page
        PUBLIC game_list
        PUBLIC img_menu
        PUBLIC img_names
        PUBLIC img_status
        PUBLIC main
        FUNCTION main,0a03H
        LOCFRAME CSTACK, 36, STACK
        PUBLIC main_page
        PUBLIC offtimerScreen
        PUBLIC player_list
        PUBLIC rndindex
        PUBLIC screen
        PUBLIC timerScreen
        PUBLIC timer_life
        PUBLIC timer_refresh
        PUBLIC timer_save
        
        CFI Names cfiNames0
        CFI StackFrame CFA R13 HUGEDATA
        CFI Resource R0:32, R1:32, R2:32, R3:32, R4:32, R5:32, R6:32, R7:32
        CFI Resource R8:32, R9:32, R10:32, R11:32, R12:32, CPSR:32, R13:32
        CFI Resource R14:32, SPSR:32
        CFI VirtualResource ?RET:32
        CFI EndNames cfiNames0
        
        CFI Common cfiCommon0 Using cfiNames0
        CFI CodeAlign 4
        CFI DataAlign 4
        CFI ReturnAddress ?RET CODE
        CFI CFA R13+0
        CFI R0 Undefined
        CFI R1 Undefined
        CFI R2 Undefined
        CFI R3 Undefined
        CFI R4 SameValue
        CFI R5 SameValue
        CFI R6 SameValue
        CFI R7 SameValue
        CFI R8 SameValue
        CFI R9 SameValue
        CFI R10 SameValue
        CFI R11 SameValue
        CFI R12 Undefined
        CFI CPSR SameValue
        CFI R14 Undefined
        CFI SPSR SameValue
        CFI ?RET R14
        CFI EndCommon cfiCommon0
        
        
        CFI Common cfiCommon1 Using cfiNames0
        CFI CodeAlign 2
        CFI DataAlign 4
        CFI ReturnAddress ?RET CODE
        CFI CFA R13+0
        CFI R0 Undefined
        CFI R1 Undefined
        CFI R2 Undefined
        CFI R3 Undefined
        CFI R4 SameValue
        CFI R5 SameValue
        CFI R6 SameValue
        CFI R7 SameValue
        CFI R8 SameValue
        CFI R9 SameValue
        CFI R10 SameValue
        CFI R11 SameValue
        CFI R12 Undefined
        CFI CPSR SameValue
        CFI R14 Undefined
        CFI SPSR SameValue
        CFI ?RET R14
        CFI EndCommon cfiCommon1
        












kill_data           SYMBOL "kill_data"

??BatheCommand??rT  SYMBOL "??rT", ??BatheCommand

??ChangeName??rT    SYMBOL "??rT", ??ChangeName

??ChangeStatusImage??rT SYMBOL "??rT", ??ChangeStatusImage

??CheckEv??rT       SYMBOL "??rT", ??CheckEv
??CloseMenu??rA     SYMBOL "??rA", ??CloseMenu

??CreateTestFile??rT SYMBOL "??rT", ??CreateTestFile

??Discipline??rT    SYMBOL "??rT", ??Discipline

??Display_ReDraw??rT SYMBOL "??rT", ??Display_ReDraw

??DrawParams??rT    SYMBOL "??rT", ??DrawParams
??EditConfig??rA    SYMBOL "??rA", ??EditConfig

??FamilyLifeUpdate??rT SYMBOL "??rT", ??FamilyLifeUpdate

??FatigueSleep??rT  SYMBOL "??rT", ??FatigueSleep

??FindName??rT      SYMBOL "??rT", ??FindName

??GameDetected??rT  SYMBOL "??rT", ??GameDetected

??GamePlay??rT      SYMBOL "??rT", ??GamePlay

??GetJavaName??rT   SYMBOL "??rT", ??GetJavaName

??HungerSleep??rT   SYMBOL "??rT", ??HungerSleep

??InfoStatus??rT    SYMBOL "??rT", ??InfoStatus
??InitConfig??rA    SYMBOL "??rA", ??InitConfig

??InitPetPos??rT    SYMBOL "??rT", ??InitPetPos

??InitPetVar??rT    SYMBOL "??rT", ??InitPetVar

??InitStatus??rT    SYMBOL "??rT", ??InitStatus

??LPARAM??rA        SYMBOL "??rA", ??LPARAM

??LPARAM??rA_1      SYMBOL "??rA", ??LPARAM_1

??Light??rT         SYMBOL "??rT", ??Light

??LoadAllPets??rT   SYMBOL "??rT", ??LoadAllPets

??LoadStatus??rT    SYMBOL "??rT", ??LoadStatus

??NewBabyCheck??rT  SYMBOL "??rT", ??NewBabyCheck

??NewKey??rT        SYMBOL "??rT", ??NewKey

??NightSleep??rT    SYMBOL "??rT", ??NightSleep

??OnBackChangeName??rT SYMBOL "??rT", ??OnBackChangeName

??OnOkChangeName??rT SYMBOL "??rT", ??OnOkChangeName

??Random??rA        SYMBOL "??rA", ??Random

??Randomize??rT     SYMBOL "??rT", ??Randomize

??SB_ELF_Killed??rT SYMBOL "??rT", ??SB_ELF_Killed

??SaveStatus??rT    SYMBOL "??rT", ??SaveStatus

??Send_REDRAW_RELEASE??rT SYMBOL "??rT", ??Send_REDRAW_RELEASE

??ShowAuthorInfo??rT SYMBOL "??rT", ??ShowAuthorInfo
??ShowMenu??rA      SYMBOL "??rA", ??ShowMenu
??ShowStatus??rA    SYMBOL "??rA", ??ShowStatus

??SleepCommand??rT  SYMBOL "??rT", ??SleepCommand

??SleepProc??rT     SYMBOL "??rT", ??SleepProc

??Soft_ReDraw??rT   SYMBOL "??rT", ??Soft_ReDraw

??Status_ReDraw??rT SYMBOL "??rT", ??Status_ReDraw

??TerminateElf??rT  SYMBOL "??rT", ??TerminateElf

??UpdatePosition??rT SYMBOL "??rT", ??UpdatePosition

??Vaccinate??rT     SYMBOL "??rT", ??Vaccinate

??VerifyStatus??rT  SYMBOL "??rT", ??VerifyStatus

??WriteLog??rT      SYMBOL "??rT", ??WriteLog
??decrypt??rA       SYMBOL "??rA", ??decrypt

??elf_exit??rT      SYMBOL "??rT", ??elf_exit
??encrypt??rA       SYMBOL "??rA", ??encrypt
??extractdir??rA    SYMBOL "??rA", ??extractdir

??free_icons??rT    SYMBOL "??rT", ??free_icons

??free_strings??rT  SYMBOL "??rT", ??free_strings
??getdir??rA        SYMBOL "??rA", ??getdir

??isBookmanDaemonBook??rT SYMBOL "??rT", ??isBookmanDaemonBook

??isNight??rT       SYMBOL "??rT", ??isNight

??isTamagochiBook??rT SYMBOL "??rT", ??isTamagochiBook
??kill_data??rA     SYMBOL "??rA", kill_data

??life_proc??rT     SYMBOL "??rT", ??life_proc

??load_icons??rT    SYMBOL "??rT", ??load_icons

??load_strings??rT  SYMBOL "??rT", ??load_strings
main                SYMBOL "main"
??main??rT          SYMBOL "??rT", main
??myCrc32??rA       SYMBOL "??rA", ??myCrc32

??offTimerScreen??rT SYMBOL "??rT", ??offTimerScreen

??onBcfgConfig??rT  SYMBOL "??rT", ??onBcfgConfig

??onCloseTamagochiBook??rT SYMBOL "??rT", ??onCloseTamagochiBook

??onHelloMsg??rT    SYMBOL "??rT", ??onHelloMsg

??onTimerScreen??rT SYMBOL "??rT", ??onTimerScreen

??onTimer_life??rT  SYMBOL "??rT", ??onTimer_life

??onTimer_refresh??rT SYMBOL "??rT", ??onTimer_refresh

??onTimer_save??rT  SYMBOL "??rT", ??onTimer_save
`??operator delete??rA` SYMBOL "??rA", `??operator delete`
`??operator new??rA` SYMBOL "??rA", `??operator new`

`??operator void *??rA` SYMBOL "??rA", `??operator void *`

??set_all_old_img_status??rT SYMBOL "??rT", ??set_all_old_img_status

??set_all_simg_status??rT SYMBOL "??rT", ??set_all_simg_status

??start_vibra??rT   SYMBOL "??rT", ??start_vibra

        EXTERN ??CloseMenu
        FUNCTION ??CloseMenu,0202H
        EXTERN ??EditConfig
        FUNCTION ??EditConfig,0202H
        EXTERN ??InitConfig
        FUNCTION ??InitConfig,0202H
        EXTERN ??ShowMenu
        FUNCTION ??ShowMenu,0202H
        EXTERN ??ShowStatus
        FUNCTION ??ShowStatus,0202H
        EXTERN ??decrypt
        FUNCTION ??decrypt,0202H
        EXTERN ??encrypt
        FUNCTION ??encrypt,0202H
        EXTERN ??extractdir
        FUNCTION ??extractdir,0202H
        EXTERN ??getdir
        FUNCTION ??getdir,0202H
        EXTERN ??myCrc32
        FUNCTION ??myCrc32,0202H
        EXTERN `??operator delete`
        FUNCTION `??operator delete`,0202H
        EXTERN `??operator new`
        FUNCTION `??operator new`,0202H
        EXTERN ACTIVE_KEY
        EXTERN ACTIVE_KEY_STYLE
        EXTERN ELF_BEGIN
        EXTERN ENA_HELLO_MSG
        EXTERN GAMELIST_PATH
        EXTERN Is_Screen_Enabled
        EXTERN Is_Vibra_Enabled
        EXTERN MAXSIZE
        EXTERN MAX_PET_COUNT
        EXTERN MINSIZE
        EXTERN Malware_Ena
        EXTERN Motion_Ena
        EXTERN Music_Ena
        EXTERN Night_Ena
        EXTERN Night_begin
        EXTERN Night_end
        EXTERN PARENT_AGE
        EXTERN PET_PATH
        EXTERN PIC_PATH
        EXTERN PLAYERLIST_PATH
        EXTERN POS_X
        EXTERN POS_Y
        EXTERN REFRESH
        EXTERN RETURN_TO_STANDBY_EVENT
        EXTERN ROOM_PATH
        EXTERN SOUND_PATH
        EXTERN SYNC
        EXTERN Scan_Game_Ena
        EXTERN SpeedLife
        EXTERN TERMINATE_SESSION_EVENT
        EXTERN UI_SCREENSAVER_DEACTIVATE_EVENT
        EXTERN VAR_ARG_BOOK
        EXTERN VAR_ARG_CALL_BACK_OK
        EXTERN VAR_ARG_CALL_BACK_PREV_ACT
        EXTERN VAR_ARG_HTEXT
        EXTERN VAR_ARG_STRINP_IS_PASS_MODE
        EXTERN VAR_ARG_STRINP_MAX_LEN
        EXTERN VAR_ARG_STRINP_MIN_LEN
        EXTERN VAR_ARG_STRINP_MODE
        EXTERN VAR_ARG_STRINP_TEXT
        EXTERN VIBR_TYPE
        EXTERN cfg_screen_blink_speed
        EXTERN cfg_screen_level
        EXTERN cfg_screen_time
        EXTERN kill_data
        FUNCTION kill_data,0202H
        EXTERN msgShowTime
        EXTERN sndEnable
        EXTERN sndOnSilent
        EXTERN sndVolume
        EXTERN successed_config_name
        EXTERN successed_config_path
        EXTERN vibraTime

// Z:\home\perk11\www\perk11.info\svn\SE\Tamagochi\main.c
//    1 // Ёльф-тамагочи
//    2 // Eraser @2007
//    3 // anis_1981@mail.ru
//    4 // ICQ:308911945
//    5 
//    6 #include "..\\include\Lib_Clara.h"

        RSEG CODE:CODE:NOROOT(2)
        CFI Block cfiBlock0 Using cfiCommon0
        CFI Function ??LPARAM
        ARM
// __??Code32?? __code __interwork __atpcs LPARAM::LPARAM(int)
??LPARAM:
        STR      R1,[R0, #+0]
        BX       LR               ;; return
        CFI EndBlock cfiBlock0

        RSEG CODE:CODE:NOROOT(2)
        CFI Block cfiBlock1 Using cfiCommon0
        CFI Function ??LPARAM_1
        ARM
// __??Code32?? __code __interwork __atpcs LPARAM::LPARAM(void *)
??LPARAM_1:
        STR      R1,[R0, #+0]
        BX       LR               ;; return
        CFI EndBlock cfiBlock1

        RSEG CODE:CODE:NOROOT(2)
        CFI Block cfiBlock2 Using cfiCommon0
        CFI Function `??operator void *`
        ARM
// __??Code32?? __code __interwork __atpcs LPARAM::operator void *()
`??operator void *`:
        LDR      R0,[R0, #+0]
        BX       LR               ;; return
        CFI EndBlock cfiBlock2

        RSEG CODE:CODE:NOROOT(2)
        CFI Block cfiBlock3 Using cfiCommon1
        CFI NoFunction
        THUMB
??Randomize??rT:
        BX       PC
        Nop      
        CFI EndBlock cfiBlock3
        REQUIRE ??Randomize
//    7 #include "..\\include\Dir.h"
//    8 #include "..\\include\var_arg.h"
//    9 #include "..\\include\cfg_items.h"
//   10 #include "Tamagochi.h"
//   11 #include "RANDOM.h"

        RSEG DATA_Z:DATA:SORT:NOROOT(0)
// unsigned char __data rndindex
rndindex:
        DS8 1

        RSEG CODE:CODE:NOROOT(2)
        CFI Block cfiBlock4 Using cfiCommon0
        CFI Function ??Randomize
        ARM
// __??Code32?? __code __interwork __atpcs void Randomize()
??Randomize:
        LDR      R0,??DataTable8  ;; SYNC
        PUSH     {LR}
        CFI ?RET Frame(CFA, -4)
        CFI CFA R13+4
        SUB      SP,SP,#+8
        CFI CFA R13+12
        LDR      R0,[R0, #+0]
        MOV      R1,SP
        SWI      +366
        LDRB     R1,[SP, #+6]
        LDR      R0,??Randomize_1  ;; rndindex
        STRB     R1,[R0, #+0]
        POP      {R0,R1,PC}       ;; return
        DATA
??Randomize_1:
        DC32     rndindex
        CFI EndBlock cfiBlock4

        RSEG CODE:CODE:NOROOT(2)
        CFI Block cfiBlock5 Using cfiCommon1
        CFI NoFunction
        THUMB
??isBookmanDaemonBook??rT:
        BX       PC
        Nop      
        CFI EndBlock cfiBlock5
        REQUIRE ??isBookmanDaemonBook

        RSEG DATA_C:CONST:SORT:NOROOT(2)
`?<Constant L"\\x46\\x69\\x6c\\x65\\x73\\x79\\x73\\x74\\`:
        DATA
        DC8 46H, 0, 69H, 0, 6CH, 0, 65H, 0
        DC8 73H, 0, 79H, 0, 73H, 0, 74H, 0
        DC8 65H, 0, 6DH, 0, 20H, 0, 65H, 0
        DC8 72H, 0, 72H, 0, 6FH, 0, 72H, 0
        DC8 21H, 0, 0, 0

        RSEG DATA_C:CONST:SORT:NOROOT(2)
`?<Constant "Tamagochi">`:
        DATA
        DC8 "Tamagochi"
        DC8 0, 0
        DC8 "%s - %d age"

        RSEG DATA_C:CONST:SORT:NOROOT(2)
`?<Constant "CUIDisplayableBook">`:
        DATA
        DC8 "CUIDisplayableBook"
        DC8 0
//   12 #include "conf_loader.h"
//   13 #include "language.h"

        RSEG DATA_C:CONST:SORT:NOROOT(2)
// static wchar_t const *const __data SpeakMessage[37]
SpeakMessage:
        DATA
        DC32 `?<Constant L"\\x46\\x69\\x6c\\x65\\x73\\x79\\x73\\x74\\`
        DC32 `?<Constant L"\\x49\\x20\\x6b\\x6e\\x6f\\x77\\x20\\x62\\`
        DC32 `?<Constant L"\\x46\\x69\\x6c\\x65\\x73\\x79\\x73\\x74\\`
        DC32 `?<Constant L"\\x42\\x69\\x74\\x63\\x68\\x21\\x20\\x3a\\`
        DC32 `?<Constant L"\\x46\\x69\\x6c\\x65\\x73\\x79\\x73\\x74\\`
        DC32 `?<Constant L"\\x47\\x61\\x79\\x21\\x20\\x3a\\x29">`
        DC32 `?<Constant L"\\x46\\x69\\x6c\\x65\\x73\\x79\\x73\\x74\\`
        DC32 `?<Constant L"\\x4d\\x6f\\x72\\x6f\\x6e\\x21\\x20\\x3a\\`
        DC32 `?<Constant L"\\x46\\x69\\x6c\\x65\\x73\\x79\\x73\\x74\\`
        DC32 `?<Constant L"\\x49\\x20\\x77\\x61\\x6e\\x74\\x20\\x73\\`
        DC32 `?<Constant L"\\x46\\x69\\x6c\\x65\\x73\\x79\\x73\\x74\\`
        DC32 `?<Constant L"\\x49\\x20\\x6c\\x69\\x6b\\x65\\x20\\x62\\`
        DC32 `?<Constant L"\\x46\\x69\\x6c\\x65\\x73\\x79\\x73\\x74\\`
        DC32 `?<Constant L"\\x44\\x69\\x64\\x20\\x79\\x6f\\x75\\x20\\`
        DC32 `?<Constant L"\\x46\\x69\\x6c\\x65\\x73\\x79\\x73\\x74\\`
        DC32 `?<Constant L"\\x49\\x27\\x76\\x65\\x20\\x64\\x65\\x6c\\`
        DC32 `?<Constant L"\\x46\\x69\\x6c\\x65\\x73\\x79\\x73\\x74\\`
        DC32 `?<Constant L"\\x4d\\x61\\x79\\x20\\x69\\x20\\x66\\x6f\\`
        DC32 `?<Constant L"\\x46\\x69\\x6c\\x65\\x73\\x79\\x73\\x74\\`
        DC32 `?<Constant L"\\x42\\x6c\\x75\\x65\\x54\\x6f\\x6f\\x74\\`
        DC32 `?<Constant L"\\x46\\x69\\x6c\\x65\\x73\\x79\\x73\\x74\\`
        DC32 `?<Constant L"\\x4e\\x65\\x74\\x77\\x6f\\x72\\x6b\\x20\\`
        DC32 `?<Constant L"\\x46\\x69\\x6c\\x65\\x73\\x79\\x73\\x74\\`
        DC32 `?<Constant L"\\x53\\x69\\x6d\\x20\\x63\\x61\\x72\\x64\\`
        DC32 `?<Constant L"\\x46\\x69\\x6c\\x65\\x73\\x79\\x73\\x74\\`
        DC32 `?<Constant L"\\x50\\x49\\x4e\\x20\\x69\\x73\\x20\\x75\\`
        DC32 `?<Constant L"\\x46\\x69\\x6c\\x65\\x73\\x79\\x73\\x74\\`
        DC32 `?<Constant L"\\x4d\\x61\\x73\\x74\\x65\\x72\\x20\\x72\\`
        DC32 `?<Constant L"\\x46\\x69\\x6c\\x65\\x73\\x79\\x73\\x74\\`
        DC32 `?<Constant L"\\x47\\x69\\x76\\x65\\x20\\x6d\\x65\\x20\\`
        DC32 `?<Constant L"\\x46\\x69\\x6c\\x65\\x73\\x79\\x73\\x74\\`
        DC32 `?<Constant L"\\x50\\x72\\x65\\x73\\x73\\x20\\x6f\\x6e\\`
        DC32 `?<Constant L"\\x46\\x69\\x6c\\x65\\x73\\x79\\x73\\x74\\`
        DC32 `?<Constant L"\\x54\\x65\\x61\\x63\\x68\\x20\\x6d\\x65\\`
        DC32 `?<Constant L"\\x46\\x69\\x6c\\x65\\x73\\x79\\x73\\x74\\`
        DC32 `?<Constant L"\\x4e\\x65\\x77\\x20\\x73\\x79\\x73\\x74\\`
        DC32 `?<Constant L"\\x46\\x69\\x6c\\x65\\x73\\x79\\x73\\x74\\`
        DC32 `?<Constant L"\\x67\\x6c\\x6f\\x62\\x61\\x6c\\x2e\\x77\\`
        DC32 `?<Constant L"\\x68\\x65\\x6c\\x6c\\x6f\\x2e\\x77\\x61\\`
        DC32 `?<Constant L"\\x62\\x69\\x72\\x74\\x68\\x64\\x61\\x79\\`
        DC32 `?<Constant L"\\x61\\x6c\\x61\\x72\\x6d\\x2e\\x77\\x61\\`
        DC32 `?<Constant L"\\x63\\x6f\\x6d\\x65\\x6f\\x6e\\x2e\\x77\\`
        DC32 `?<Constant L"\\x69\\x6c\\x6c\\x67\\x65\\x74\\x79\\x6f\\`
        DC32 `?<Constant L"\\x62\\x6f\\x72\\x69\\x6e\\x67\\x2e\\x77\\`
        DC32 `?<Constant L"\\x62\\x79\\x65\\x62\\x79\\x65\\x2e\\x77\\`
        DC32 `?<Constant L"\\x66\\x61\\x74\\x61\\x6c\\x69\\x74\\x79\\`
        DC32 `?<Constant L"\\x66\\x69\\x72\\x73\\x74\\x62\\x6c\\x6f\\`
        DC32 `?<Constant L"\\x6c\\x61\\x75\\x67\\x68\\x2e\\x77\\x61\\`
        DC32 `?<Constant L"\\x6c\\x65\\x61\\x76\\x65\\x6d\\x65\\x2e\\`
        DC32 `?<Constant L"\\x6e\\x6f\\x6f\\x6f\\x2e\\x77\\x61\\x76"`
        DC32 `?<Constant L"\\x6f\\x68\\x64\\x65\\x65\\x72\\x2e\\x77\\`
        DC32 `?<Constant L"\\x73\\x6c\\x65\\x65\\x70\\x2e\\x77\\x61\\`
        DC32 `?<Constant L"\\x6f\\x75\\x63\\x68\\x2e\\x77\\x61\\x76"`
        DC32 `?<Constant L"\\x6f\\x77\\x2e\\x77\\x61\\x76">`
        DC32 `?<Constant L"\\x79\\x65\\x73\\x73\\x69\\x72\\x2e\\x77\\`
        DC32 `?<Constant L"\\x63\\x72\\x79\\x2e\\x77\\x61\\x76">`
        DC32 `?<Constant L"\\x63\\x68\\x65\\x65\\x72\\x5f\\x66\\x65\\`
        DC32 `?<Constant L"\\x63\\x68\\x65\\x65\\x72\\x5f\\x6d\\x61\\`
        DC32 `?<Constant L"\\x62\\x61\\x74\\x68\\x65\\x2e\\x77\\x61\\`
        DC8 54H, 0, 6FH, 0, 6FH, 0, 20H, 0
        DC8 6DH, 0, 75H, 0, 63H, 0, 68H, 0
        DC8 20H, 0, 6EH, 0, 61H, 0, 73H, 0
        DC8 74H, 0, 79H, 0, 20H, 0, 73H, 0
        DC8 63H, 0, 72H, 0, 61H, 0, 70H, 0
        DC8 73H, 0, 20H, 0, 69H, 0, 6EH, 0
        DC8 20H, 0, 6DH, 0, 79H, 0, 20H, 0
        DC8 72H, 0, 6FH, 0, 6FH, 0, 6DH, 0
        DC8 21H, 0, 20H, 0, 3AH, 0, 2FH, 0
        DC8 0, 0
        DC8 0, 0
        DC8 49H, 0, 27H, 0, 6DH, 0, 20H, 0
        DC8 72H, 0, 65H, 0, 61H, 0, 6CH, 0
        DC8 6CH, 0, 79H, 0, 20H, 0, 42H, 0
        DC8 4FH, 0, 52H, 0, 45H, 0, 44H, 0
        DC8 21H, 0, 0, 0
        DC8 49H, 0, 27H, 0, 6DH, 0, 20H, 0
        DC8 68H, 0, 75H, 0, 6EH, 0, 67H, 0
        DC8 65H, 0, 72H, 0, 21H, 0, 20H, 0
        DC8 47H, 0, 69H, 0, 76H, 0, 65H, 0
        DC8 20H, 0, 6DH, 0, 65H, 0, 20H, 0
        DC8 6EH, 0, 65H, 0, 77H, 0, 20H, 0
        DC8 66H, 0, 6FH, 0, 6FH, 0, 64H, 0
        DC8 21H, 0, 0, 0
        DC8 49H, 0, 27H, 0, 6DH, 0, 20H, 0
        DC8 73H, 0, 69H, 0, 63H, 0, 6BH, 0
        DC8 20H, 0, 61H, 0, 6EH, 0, 64H, 0
        DC8 20H, 0, 74H, 0, 69H, 0, 72H, 0
        DC8 65H, 0, 64H, 0, 2EH, 0, 2EH, 0
        DC8 2EH, 0, 20H, 0, 3DH, 0, 28H, 0
        DC8 0, 0
        DC8 0, 0
        DC8 49H, 0, 27H, 0, 6DH, 0, 20H, 0
        DC8 64H, 0, 65H, 0, 61H, 0, 64H, 0
        DC8 21H, 0, 20H, 0, 20H, 0, 2BH, 0
        DC8 2FH, 0, 2DH, 0, 28H, 0, 0, 0
        DC8 49H, 0, 27H, 0, 6DH, 0, 20H, 0
        DC8 73H, 0, 6CH, 0, 65H, 0, 65H, 0
        DC8 70H, 0, 69H, 0, 6EH, 0, 67H, 0
        DC8 21H, 0, 20H, 0, 5AH, 0, 7AH, 0
        DC8 7AH, 0, 2EH, 0, 2EH, 0, 0, 0
        DC8 43H, 0, 6FH, 0, 6FH, 0, 6CH, 0
        DC8 20H, 0, 67H, 0, 61H, 0, 6DH, 0
        DC8 65H, 0, 21H, 0, 20H, 0, 3AH, 0
        DC8 29H, 0, 0, 0
        DC8 44H, 0, 6FH, 0, 6EH, 0, 27H, 0
        DC8 74H, 0, 20H, 0, 64H, 0, 69H, 0
        DC8 73H, 0, 74H, 0, 75H, 0, 72H, 0
        DC8 62H, 0, 21H, 0, 20H, 0, 49H, 0
        DC8 27H, 0, 6DH, 0, 20H, 0, 62H, 0
        DC8 75H, 0, 73H, 0, 79H, 0, 21H, 0
        DC8 0, 0
        DC8 0, 0
        DC8 41H, 0, 75H, 0, 21H, 0, 20H, 0
        DC8 50H, 0, 61H, 0, 69H, 0, 6EH, 0
        DC8 66H, 0, 75H, 0, 6CH, 0, 21H, 0
        DC8 20H, 0, 3AH, 0, 27H, 0, 28H, 0
        DC8 0, 0
        DC8 0, 0
        DC8 59H, 0, 6FH, 0, 75H, 0, 20H, 0
        DC8 61H, 0, 72H, 0, 65H, 0, 20H, 0
        DC8 73H, 0, 68H, 0, 72H, 0, 65H, 0
        DC8 77H, 0, 21H, 0, 20H, 0, 3AH, 0
        DC8 2FH, 0, 0, 0
        DC8 4EH, 0, 69H, 0, 67H, 0, 68H, 0
        DC8 74H, 0, 21H, 0, 20H, 0, 49H, 0
        DC8 20H, 0, 77H, 0, 69H, 0, 6CH, 0
        DC8 6CH, 0, 20H, 0, 73H, 0, 6CH, 0
        DC8 65H, 0, 65H, 0, 70H, 0, 21H, 0
        DC8 0, 0
        DC8 0, 0
        DC8 48H, 0, 75H, 0, 72H, 0, 72H, 0
        DC8 61H, 0, 68H, 0, 21H, 0, 20H, 0
        DC8 41H, 0, 67H, 0, 61H, 0, 69H, 0
        DC8 6EH, 0, 20H, 0, 6DH, 0, 6FH, 0
        DC8 72H, 0, 6EH, 0, 69H, 0, 6EH, 0
        DC8 67H, 0, 21H, 0, 0, 0
        DC8 0, 0
        DC8 54H, 0, 69H, 0, 72H, 0, 65H, 0
        DC8 64H, 0, 2CH, 0, 20H, 0, 69H, 0
        DC8 74H, 0, 20H, 0, 69H, 0, 73H, 0
        DC8 20H, 0, 6EH, 0, 65H, 0, 63H, 0
        DC8 65H, 0, 73H, 0, 73H, 0, 61H, 0
        DC8 72H, 0, 79H, 0, 20H, 0, 74H, 0
        DC8 6FH, 0, 20H, 0, 68H, 0, 61H, 0
        DC8 76H, 0, 65H, 0, 20H, 0, 61H, 0
        DC8 20H, 0, 72H, 0, 65H, 0, 73H, 0
        DC8 74H, 0, 21H, 0, 0, 0
        DC8 0, 0
        DC8 48H, 0, 61H, 0, 73H, 0, 20H, 0
        DC8 73H, 0, 6CH, 0, 65H, 0, 70H, 0
        DC8 74H, 0, 2CH, 0, 20H, 0, 69H, 0
        DC8 74H, 0, 20H, 0, 69H, 0, 73H, 0
        DC8 20H, 0, 70H, 0, 6FH, 0, 73H, 0
        DC8 73H, 0, 69H, 0, 62H, 0, 6CH, 0
        DC8 65H, 0, 20H, 0, 74H, 0, 6FH, 0
        DC8 20H, 0, 68H, 0, 61H, 0, 76H, 0
        DC8 65H, 0, 20H, 0, 61H, 0, 20H, 0
        DC8 67H, 0, 6FH, 0, 6FH, 0, 64H, 0
        DC8 20H, 0, 74H, 0, 69H, 0, 6DH, 0
        DC8 65H, 0, 21H, 0, 0, 0
        DC8 0, 0
        DC8 49H, 0, 20H, 0, 61H, 0, 6DH, 0
        DC8 20H, 0, 73H, 0, 6CH, 0, 65H, 0
        DC8 65H, 0, 70H, 0, 21H, 0, 0, 0
        DC8 49H, 0, 20H, 0, 61H, 0, 6DH, 0
        DC8 20H, 0, 77H, 0, 61H, 0, 6BH, 0
        DC8 65H, 0, 75H, 0, 70H, 0, 21H, 0
        DC8 0, 0
        DC8 0, 0
        DC8 49H, 0, 6EH, 0, 20H, 0, 70H, 0
        DC8 65H, 0, 72H, 0, 66H, 0, 65H, 0
        DC8 63H, 0, 74H, 0, 20H, 0, 62H, 0
        DC8 6CH, 0, 69H, 0, 73H, 0, 73H, 0
        DC8 21H, 0, 0, 0
        DC8 43H, 0, 68H, 0, 65H, 0, 65H, 0
        DC8 72H, 0, 73H, 0, 21H, 0, 20H, 0
        DC8 57H, 0, 65H, 0, 20H, 0, 68H, 0
        DC8 61H, 0, 76H, 0, 65H, 0, 20H, 0
        DC8 6DH, 0, 6FH, 0, 72H, 0, 65H, 0
        DC8 21H, 0, 0, 0
        DC8 42H, 0, 69H, 0, 72H, 0, 74H, 0
        DC8 68H, 0, 64H, 0, 61H, 0, 79H, 0
        DC8 20H, 0, 6DH, 0, 6FH, 0, 6DH, 0
        DC8 65H, 0, 6EH, 0, 74H, 0, 21H, 0
        DC8 20H, 0, 5EH, 0, 5EH, 0, 0, 0
        DC8 2FH, 0, 2AH, 0, 2EH, 0, 2AH, 0
        DC8 0, 0
        DC8 0, 0
        DC8 2EH, 0, 67H, 0, 76H, 0, 6EH, 0
        DC8 0, 0
        DC8 0, 0
        DC8 67H, 0, 76H, 0, 6EH, 0, 0, 0
        DC8 49H, 0, 20H, 0, 63H, 0, 61H, 0
        DC8 6EH, 0, 20H, 0, 6EH, 0, 6FH, 0
        DC8 74H, 0, 20H, 0, 65H, 0, 6EH, 0
        DC8 74H, 0, 65H, 0, 72H, 0, 20H, 0
        DC8 69H, 0, 6EH, 0, 74H, 0, 6FH, 0
        DC8 20H, 0, 61H, 0, 20H, 0, 72H, 0
        DC8 6FH, 0, 6FH, 0, 6DH, 0, 20H, 0
        DC8 77H, 0, 69H, 0, 74H, 0, 68H, 0
        DC8 20H, 0, 6DH, 0, 65H, 0, 61H, 0
        DC8 6CH, 0, 21H, 0, 0, 0
        DC8 0, 0
        DC8 49H, 0, 20H, 0, 6EH, 0, 65H, 0
        DC8 65H, 0, 64H, 0, 20H, 0, 61H, 0
        DC8 20H, 0, 66H, 0, 72H, 0, 69H, 0
        DC8 65H, 0, 6EH, 0, 64H, 0, 21H, 0
        DC8 0, 0
        DC8 0, 0
        DC8 49H, 0, 20H, 0, 6EH, 0, 65H, 0
        DC8 65H, 0, 64H, 0, 20H, 0, 61H, 0
        DC8 20H, 0, 67H, 0, 69H, 0, 72H, 0
        DC8 6CH, 0, 2DH, 0, 66H, 0, 72H, 0
        DC8 69H, 0, 65H, 0, 6EH, 0, 64H, 0
        DC8 21H, 0, 0, 0
        DC8 54H, 0, 61H, 0, 6DH, 0, 61H, 0
        DC8 67H, 0, 6FH, 0, 63H, 0, 68H, 0
        DC8 69H, 0, 0AH, 0, 49H, 0, 27H, 0
        DC8 6DH, 0, 20H, 0, 61H, 0, 6CH, 0
        DC8 72H, 0, 65H, 0, 61H, 0, 64H, 0
        DC8 79H, 0, 20H, 0, 68H, 0, 65H, 0
        DC8 72H, 0, 65H, 0, 21H, 0, 0, 0
        DC8 54H, 0, 61H, 0, 6DH, 0, 61H, 0
        DC8 67H, 0, 6FH, 0, 63H, 0, 68H, 0
        DC8 69H, 0, 0, 0
        DC8 25H, 0, 6CH, 0, 73H, 0, 0, 0
        DC8 54H, 0, 61H, 0, 6DH, 0, 61H, 0
        DC8 67H, 0, 6FH, 0, 63H, 0, 68H, 0
        DC8 69H, 0, 20H, 0, 6CH, 0, 6FH, 0
        DC8 61H, 0, 64H, 0, 69H, 0, 6EH, 0
        DC8 67H, 0, 21H, 0, 0, 0
        DC8 0, 0
`?<Constant L"\\x67\\x6c\\x6f\\x62\\x61\\x6c\\x2e\\x77\\`:
        DC8 67H, 0, 6CH, 0, 6FH, 0, 62H, 0
        DC8 61H, 0, 6CH, 0, 2EH, 0, 77H, 0
        DC8 61H, 0, 76H, 0, 0, 0
        DC8 0, 0
`?<Constant L"\\x62\\x69\\x72\\x74\\x68\\x64\\x61\\x79\\`:
        DC8 62H, 0, 69H, 0, 72H, 0, 74H, 0
        DC8 68H, 0, 64H, 0, 61H, 0, 79H, 0
        DC8 2EH, 0, 77H, 0, 61H, 0, 76H, 0
        DC8 0, 0
        DC8 0, 0
`?<Constant L"\\x63\\x6f\\x6d\\x65\\x6f\\x6e\\x2e\\x77\\`:
        DC8 63H, 0, 6FH, 0, 6DH, 0, 65H, 0
        DC8 6FH, 0, 6EH, 0, 2EH, 0, 77H, 0
        DC8 61H, 0, 76H, 0, 0, 0
        DC8 0, 0
`?<Constant L"\\x69\\x6c\\x6c\\x67\\x65\\x74\\x79\\x6f\\`:
        DC8 69H, 0, 6CH, 0, 6CH, 0, 67H, 0
        DC8 65H, 0, 74H, 0, 79H, 0, 6FH, 0
        DC8 75H, 0, 2EH, 0, 77H, 0, 61H, 0
        DC8 76H, 0, 0, 0
`?<Constant L"\\x62\\x6f\\x72\\x69\\x6e\\x67\\x2e\\x77\\`:
        DC8 62H, 0, 6FH, 0, 72H, 0, 69H, 0
        DC8 6EH, 0, 67H, 0, 2EH, 0, 77H, 0
        DC8 61H, 0, 76H, 0, 0, 0
        DC8 0, 0
`?<Constant L"\\x62\\x79\\x65\\x62\\x79\\x65\\x2e\\x77\\`:
        DC8 62H, 0, 79H, 0, 65H, 0, 62H, 0
        DC8 79H, 0, 65H, 0, 2EH, 0, 77H, 0
        DC8 61H, 0, 76H, 0, 0, 0
        DC8 0, 0
`?<Constant L"\\x66\\x61\\x74\\x61\\x6c\\x69\\x74\\x79\\`:
        DC8 66H, 0, 61H, 0, 74H, 0, 61H, 0
        DC8 6CH, 0, 69H, 0, 74H, 0, 79H, 0
        DC8 2EH, 0, 77H, 0, 61H, 0, 76H, 0
        DC8 0, 0
        DC8 0, 0
`?<Constant L"\\x6c\\x61\\x75\\x67\\x68\\x2e\\x77\\x61\\`:
        DC8 6CH, 0, 61H, 0, 75H, 0, 67H, 0
        DC8 68H, 0, 2EH, 0, 77H, 0, 61H, 0
        DC8 76H, 0, 0, 0
`?<Constant L"\\x6c\\x65\\x61\\x76\\x65\\x6d\\x65\\x2e\\`:
        DC8 6CH, 0, 65H, 0, 61H, 0, 76H, 0
        DC8 65H, 0, 6DH, 0, 65H, 0, 2EH, 0
        DC8 77H, 0, 61H, 0, 76H, 0, 0, 0
`?<Constant L"\\x6e\\x6f\\x6f\\x6f\\x2e\\x77\\x61\\x76"`:
        DC8 6EH, 0, 6FH, 0, 6FH, 0, 6FH, 0
        DC8 2EH, 0, 77H, 0, 61H, 0, 76H, 0
        DC8 0, 0
        DC8 0, 0
`?<Constant L"\\x6f\\x68\\x64\\x65\\x65\\x72\\x2e\\x77\\`:
        DC8 6FH, 0, 68H, 0, 64H, 0, 65H, 0
        DC8 65H, 0, 72H, 0, 2EH, 0, 77H, 0
        DC8 61H, 0, 76H, 0, 0, 0
        DC8 0, 0
`?<Constant L"\\x73\\x6c\\x65\\x65\\x70\\x2e\\x77\\x61\\`:
        DC8 73H, 0, 6CH, 0, 65H, 0, 65H, 0
        DC8 70H, 0, 2EH, 0, 77H, 0, 61H, 0
        DC8 76H, 0, 0, 0
`?<Constant L"\\x6f\\x75\\x63\\x68\\x2e\\x77\\x61\\x76"`:
        DC8 6FH, 0, 75H, 0, 63H, 0, 68H, 0
        DC8 2EH, 0, 77H, 0, 61H, 0, 76H, 0
        DC8 0, 0
        DC8 0, 0
`?<Constant L"\\x6f\\x77\\x2e\\x77\\x61\\x76">`:
        DC8 6FH, 0, 77H, 0, 2EH, 0, 77H, 0
        DC8 61H, 0, 76H, 0, 0, 0
        DC8 0, 0
`?<Constant L"\\x79\\x65\\x73\\x73\\x69\\x72\\x2e\\x77\\`:
        DC8 79H, 0, 65H, 0, 73H, 0, 73H, 0
        DC8 69H, 0, 72H, 0, 2EH, 0, 77H, 0
        DC8 61H, 0, 76H, 0, 0, 0
        DC8 0, 0
`?<Constant L"\\x63\\x72\\x79\\x2e\\x77\\x61\\x76">`:
        DC8 63H, 0, 72H, 0, 79H, 0, 2EH, 0
        DC8 77H, 0, 61H, 0, 76H, 0, 0, 0
`?<Constant L"\\x62\\x61\\x74\\x68\\x65\\x2e\\x77\\x61\\`:
        DC8 62H, 0, 61H, 0, 74H, 0, 68H, 0
        DC8 65H, 0, 2EH, 0, 77H, 0, 61H, 0
        DC8 76H, 0, 0, 0

        RSEG DATA_C:CONST:SORT:NOROOT(2)
`?<Constant L"\\x6d\\x69\\x6e\\x5f\\x73\\x74\\x72\\x69\\`:
        DATA
        DC8 6DH, 0, 69H, 0, 6EH, 0, 5FH, 0
        DC8 73H, 0, 74H, 0, 72H, 0, 69H, 0
        DC8 6EH, 0, 67H, 0, 5FH, 0, 6CH, 0
        DC8 65H, 0, 6EH, 0, 3AH, 0, 20H, 0
        DC8 31H, 0, 0AH, 0, 6DH, 0, 61H, 0
        DC8 78H, 0, 5FH, 0, 73H, 0, 74H, 0
        DC8 72H, 0, 69H, 0, 6EH, 0, 67H, 0
        DC8 5FH, 0, 6CH, 0, 65H, 0, 6EH, 0
        DC8 3AH, 0, 20H, 0, 25H, 0, 64H, 0
        DC8 0, 0
        DC8 0, 0

        RSEG DATA_C:CONST:SORT:NOROOT(2)
`?<Constant L"\\x64\\x65\\x61\\x74\\x68\\x2e\\x70\\x6e\\`:
        DATA
        DC8 64H, 0, 65H, 0, 61H, 0, 74H, 0
        DC8 68H, 0, 2EH, 0, 70H, 0, 6EH, 0
        DC8 67H, 0, 0, 0

        RSEG DATA_C:CONST:SORT:NOROOT(2)
`?<Constant L"\\x50\\x65\\x74">`:
        DATA
        DC8 50H, 0, 65H, 0, 74H, 0, 0, 0
        DC8 50H, 0, 65H, 0, 74H, 0, 25H, 0
        DC8 64H, 0, 0, 0

        RSEG DATA_C:CONST:SORT:NOROOT(2)
`?<Constant L"\\x50\\x65\\x74\\x2e\\x63\\x66\\x67">`:
        DATA
        DC8 50H, 0, 65H, 0, 74H, 0, 2EH, 0
        DC8 63H, 0, 66H, 0, 67H, 0, 0, 0
        DC8 50H, 0, 65H, 0, 74H, 0, 25H, 0
        DC8 64H, 0, 2EH, 0, 63H, 0, 66H, 0
        DC8 67H, 0, 0, 0
        DC8 2FH, 0, 74H, 0, 70H, 0, 61H, 0
        DC8 2FH, 0, 73H, 0, 79H, 0, 73H, 0
        DC8 74H, 0, 65H, 0, 6DH, 0, 2FH, 0
        DC8 73H, 0, 65H, 0, 74H, 0, 74H, 0
        DC8 69H, 0, 6EH, 0, 67H, 0, 73H, 0
        DC8 0, 0
        DC8 0, 0
        DC8 66H, 0, 69H, 0, 6CH, 0, 65H, 0
        DC8 74H, 0, 79H, 0, 70H, 0, 65H, 0
        DC8 2EH, 0, 62H, 0, 69H, 0, 6EH, 0
        DC8 0, 0
        DC8 0, 0

        RSEG DATA_C:CONST:SORT:NOROOT(2)
`?<Constant L"\\x45\\x72\\x72\\x6f\\x72\\x20\\x73\\x61\\`:
        DATA
        DC8 45H, 0, 72H, 0, 72H, 0, 6FH, 0
        DC8 72H, 0, 20H, 0, 73H, 0, 61H, 0
        DC8 76H, 0, 65H, 0, 20H, 0, 50H, 0
        DC8 65H, 0, 74H, 0, 2EH, 0, 63H, 0
        DC8 66H, 0, 67H, 0, 21H, 0, 0, 0

        RSEG DATA_C:CONST:SORT:NOROOT(2)
`?<Constant L"\\x54\\x61\\x6d\\x61\\x67\\x6f\\x63\\x68\\_3`:
        DATA
        DC8 54H, 0, 61H, 0, 6DH, 0, 61H, 0
        DC8 67H, 0, 6FH, 0, 63H, 0, 68H, 0
        DC8 69H, 0, 0AH, 0, 76H, 0, 34H, 0
        DC8 2EH, 0, 31H, 0, 0AH, 0, 0A9H, 0
        DC8 20H, 0, 42H, 0, 69H, 0, 67H, 0
        DC8 48H, 0, 65H, 0, 72H, 0, 63H, 0
        DC8 75H, 0, 6CH, 0, 65H, 0, 73H, 0
        DC8 20H, 0, 26H, 0, 20H, 0, 50H, 0
        DC8 6CH, 0, 6FH, 0, 69H, 0, 6BH, 0
        DC8 0AH, 0, 0AH, 0, 4FH, 0, 72H, 0
        DC8 69H, 0, 67H, 0, 69H, 0, 6EH, 0
        DC8 61H, 0, 6CH, 0, 20H, 0, 69H, 0
        DC8 64H, 0, 65H, 0, 61H, 0, 3AH, 0
        DC8 20H, 0, 45H, 0, 72H, 0, 61H, 0
        DC8 73H, 0, 65H, 0, 72H, 0, 20H, 0
        DC8 28H, 0, 53H, 0, 69H, 0, 65H, 0
        DC8 6DH, 0, 65H, 0, 6EH, 0, 73H, 0
        DC8 29H, 0, 0, 0

        RSEG DATA_C:CONST:SORT:NOROOT(2)
`?<Constant L"\\x54\\x61\\x6d\\x61\\x67\\x6f\\x63\\x68\\_4`:
        DATA
        DC8 54H, 0, 61H, 0, 6DH, 0, 61H, 0
        DC8 67H, 0, 6FH, 0, 63H, 0, 68H, 0
        DC8 69H, 0, 20H, 0, 73H, 0, 65H, 0
        DC8 74H, 0, 74H, 0, 69H, 0, 6EH, 0
        DC8 67H, 0, 73H, 0, 20H, 0, 75H, 0
        DC8 70H, 0, 64H, 0, 61H, 0, 74H, 0
        DC8 65H, 0, 64H, 0, 21H, 0, 0, 0

        RSEG DATA_C:CONST:SORT:NOROOT(2)
`?<Constant L"\\x49\\x20\\x6b\\x6e\\x6f\\x77\\x20\\x62\\`:
        DATA
        DC8 49H, 0, 20H, 0, 6BH, 0, 6EH, 0
        DC8 6FH, 0, 77H, 0, 20H, 0, 62H, 0
        DC8 61H, 0, 64H, 0, 20H, 0, 77H, 0
        DC8 6FH, 0, 72H, 0, 64H, 0, 73H, 0
        DC8 21H, 0, 0, 0

        RSEG DATA_C:CONST:SORT:NOROOT(2)
`?<Constant L"\\x42\\x69\\x74\\x63\\x68\\x21\\x20\\x3a\\`:
        DATA
        DC8 42H, 0, 69H, 0, 74H, 0, 63H, 0
        DC8 68H, 0, 21H, 0, 20H, 0, 3AH, 0
        DC8 29H, 0, 0, 0

        RSEG DATA_C:CONST:SORT:NOROOT(2)
`?<Constant L"\\x47\\x61\\x79\\x21\\x20\\x3a\\x29">`:
        DATA
        DC8 47H, 0, 61H, 0, 79H, 0, 21H, 0
        DC8 20H, 0, 3AH, 0, 29H, 0, 0, 0

        RSEG DATA_C:CONST:SORT:NOROOT(2)
`?<Constant L"\\x4d\\x6f\\x72\\x6f\\x6e\\x21\\x20\\x3a\\`:
        DATA
        DC8 4DH, 0, 6FH, 0, 72H, 0, 6FH, 0
        DC8 6EH, 0, 21H, 0, 20H, 0, 3AH, 0
        DC8 29H, 0, 0, 0

        RSEG DATA_C:CONST:SORT:NOROOT(2)
`?<Constant L"\\x49\\x20\\x77\\x61\\x6e\\x74\\x20\\x73\\`:
        DATA
        DC8 49H, 0, 20H, 0, 77H, 0, 61H, 0
        DC8 6EH, 0, 74H, 0, 20H, 0, 73H, 0
        DC8 65H, 0, 78H, 0, 21H, 0, 20H, 0
        DC8 3AH, 0, 29H, 0, 0, 0
        DC8 0, 0

        RSEG DATA_C:CONST:SORT:NOROOT(2)
`?<Constant L"\\x49\\x20\\x6c\\x69\\x6b\\x65\\x20\\x62\\`:
        DATA
        DC8 49H, 0, 20H, 0, 6CH, 0, 69H, 0
        DC8 6BH, 0, 65H, 0, 20H, 0, 62H, 0
        DC8 69H, 0, 67H, 0, 20H, 0, 74H, 0
        DC8 69H, 0, 74H, 0, 73H, 0, 21H, 0
        DC8 20H, 0, 3AH, 0, 29H, 0, 0, 0

        RSEG DATA_C:CONST:SORT:NOROOT(2)
`?<Constant L"\\x44\\x69\\x64\\x20\\x79\\x6f\\x75\\x20\\`:
        DATA
        DC8 44H, 0, 69H, 0, 64H, 0, 20H, 0
        DC8 79H, 0, 6FH, 0, 75H, 0, 20H, 0
        DC8 6DH, 0, 61H, 0, 73H, 0, 74H, 0
        DC8 75H, 0, 72H, 0, 62H, 0, 61H, 0
        DC8 74H, 0, 65H, 0, 20H, 0, 74H, 0
        DC8 6FH, 0, 64H, 0, 61H, 0, 79H, 0
        DC8 3FH, 0, 20H, 0, 3AH, 0, 29H, 0
        DC8 0, 0
        DC8 0, 0

        RSEG DATA_C:CONST:SORT:NOROOT(2)
`?<Constant L"\\x49\\x27\\x76\\x65\\x20\\x64\\x65\\x6c\\`:
        DATA
        DC8 49H, 0, 27H, 0, 76H, 0, 65H, 0
        DC8 20H, 0, 64H, 0, 65H, 0, 6CH, 0
        DC8 65H, 0, 74H, 0, 65H, 0, 64H, 0
        DC8 20H, 0, 73H, 0, 6FH, 0, 6DH, 0
        DC8 65H, 0, 20H, 0, 66H, 0, 69H, 0
        DC8 6CH, 0, 65H, 0, 73H, 0, 20H, 0
        DC8 66H, 0, 72H, 0, 6FH, 0, 6DH, 0
        DC8 20H, 0, 7AH, 0, 62H, 0, 69H, 0
        DC8 6EH, 0, 2FH, 0, 65H, 0, 74H, 0
        DC8 63H, 0, 2EH, 0, 2EH, 0, 20H, 0
        DC8 3AH, 0, 29H, 0, 0, 0
        DC8 0, 0

        RSEG DATA_C:CONST:SORT:NOROOT(2)
`?<Constant L"\\x4d\\x61\\x79\\x20\\x69\\x20\\x66\\x6f\\`:
        DATA
        DC8 4DH, 0, 61H, 0, 79H, 0, 20H, 0
        DC8 69H, 0, 20H, 0, 66H, 0, 6FH, 0
        DC8 72H, 0, 6DH, 0, 61H, 0, 74H, 0
        DC8 20H, 0, 6DH, 0, 6DH, 0, 63H, 0
        DC8 61H, 0, 72H, 0, 64H, 0, 20H, 0
        DC8 6EH, 0, 6FH, 0, 77H, 0, 3FH, 0
        DC8 0, 0
        DC8 0, 0

        RSEG DATA_C:CONST:SORT:NOROOT(2)
`?<Constant L"\\x42\\x6c\\x75\\x65\\x54\\x6f\\x6f\\x74\\`:
        DATA
        DC8 42H, 0, 6CH, 0, 75H, 0, 65H, 0
        DC8 54H, 0, 6FH, 0, 6FH, 0, 74H, 0
        DC8 68H, 0, 20H, 0, 73H, 0, 65H, 0
        DC8 72H, 0, 76H, 0, 69H, 0, 63H, 0
        DC8 65H, 0, 20H, 0, 73H, 0, 74H, 0
        DC8 6FH, 0, 70H, 0, 70H, 0, 65H, 0
        DC8 64H, 0, 21H, 0, 0, 0
        DC8 0, 0

        RSEG DATA_C:CONST:SORT:NOROOT(2)
`?<Constant L"\\x4e\\x65\\x74\\x77\\x6f\\x72\\x6b\\x20\\`:
        DATA
        DC8 4EH, 0, 65H, 0, 74H, 0, 77H, 0
        DC8 6FH, 0, 72H, 0, 6BH, 0, 20H, 0
        DC8 69H, 0, 73H, 0, 20H, 0, 6CH, 0
        DC8 6FH, 0, 73H, 0, 74H, 0, 21H, 0
        DC8 0, 0
        DC8 0, 0

        RSEG DATA_C:CONST:SORT:NOROOT(2)
`?<Constant L"\\x53\\x69\\x6d\\x20\\x63\\x61\\x72\\x64\\`:
        DATA
        DC8 53H, 0, 69H, 0, 6DH, 0, 20H, 0
        DC8 63H, 0, 61H, 0, 72H, 0, 64H, 0
        DC8 20H, 0, 69H, 0, 73H, 0, 20H, 0
        DC8 62H, 0, 6CH, 0, 6FH, 0, 63H, 0
        DC8 6BH, 0, 65H, 0, 64H, 0, 21H, 0
        DC8 0, 0
        DC8 0, 0

        RSEG DATA_C:CONST:SORT:NOROOT(2)
`?<Constant L"\\x50\\x49\\x4e\\x20\\x69\\x73\\x20\\x75\\`:
        DATA
        DC8 50H, 0, 49H, 0, 4EH, 0, 20H, 0
        DC8 69H, 0, 73H, 0, 20H, 0, 75H, 0
        DC8 6EH, 0, 61H, 0, 76H, 0, 61H, 0
        DC8 69H, 0, 6CH, 0, 61H, 0, 62H, 0
        DC8 6CH, 0, 65H, 0, 20H, 0, 6EH, 0
        DC8 6FH, 0, 77H, 0, 21H, 0, 0, 0

        RSEG DATA_C:CONST:SORT:NOROOT(2)
`?<Constant L"\\x4d\\x61\\x73\\x74\\x65\\x72\\x20\\x72\\`:
        DATA
        DC8 4DH, 0, 61H, 0, 73H, 0, 74H, 0
        DC8 65H, 0, 72H, 0, 20H, 0, 72H, 0
        DC8 65H, 0, 73H, 0, 65H, 0, 74H, 0
        DC8 20H, 0, 73H, 0, 74H, 0, 61H, 0
        DC8 72H, 0, 74H, 0, 73H, 0, 21H, 0
        DC8 0, 0
        DC8 0, 0

        RSEG DATA_C:CONST:SORT:NOROOT(2)
`?<Constant L"\\x47\\x69\\x76\\x65\\x20\\x6d\\x65\\x20\\`:
        DATA
        DC8 47H, 0, 69H, 0, 76H, 0, 65H, 0
        DC8 20H, 0, 6DH, 0, 65H, 0, 20H, 0
        DC8 79H, 0, 6FH, 0, 75H, 0, 72H, 0
        DC8 20H, 0, 6DH, 0, 61H, 0, 6DH, 0
        DC8 61H, 0, 21H, 0, 20H, 0, 3AH, 0
        DC8 29H, 0, 0, 0

        RSEG DATA_C:CONST:SORT:NOROOT(2)
`?<Constant L"\\x50\\x72\\x65\\x73\\x73\\x20\\x6f\\x6e\\`:
        DATA
        DC8 50H, 0, 72H, 0, 65H, 0, 73H, 0
        DC8 73H, 0, 20H, 0, 6FH, 0, 6EH, 0
        DC8 20H, 0, 6DH, 0, 65H, 0, 21H, 0
        DC8 20H, 0, 4CH, 0, 6FH, 0, 77H, 0
        DC8 65H, 0, 72H, 0, 2EH, 0, 2EH, 0
        DC8 20H, 0, 4CH, 0, 6FH, 0, 77H, 0
        DC8 65H, 0, 72H, 0, 2EH, 0, 2EH, 0
        DC8 2EH, 0, 0, 0

        RSEG DATA_C:CONST:SORT:NOROOT(2)
`?<Constant L"\\x54\\x65\\x61\\x63\\x68\\x20\\x6d\\x65\\`:
        DATA
        DC8 54H, 0, 65H, 0, 61H, 0, 63H, 0
        DC8 68H, 0, 20H, 0, 6DH, 0, 65H, 0
        DC8 20H, 0, 68H, 0, 6FH, 0, 77H, 0
        DC8 20H, 0, 74H, 0, 6FH, 0, 20H, 0
        DC8 73H, 0, 74H, 0, 65H, 0, 61H, 0
        DC8 6CH, 0, 20H, 0, 6DH, 0, 6FH, 0
        DC8 6EH, 0, 65H, 0, 79H, 0, 21H, 0
        DC8 0, 0
        DC8 0, 0

        RSEG DATA_C:CONST:SORT:NOROOT(2)
`?<Constant L"\\x4e\\x65\\x77\\x20\\x73\\x79\\x73\\x74\\`:
        DATA
        DC8 4EH, 0, 65H, 0, 77H, 0, 20H, 0
        DC8 73H, 0, 79H, 0, 73H, 0, 74H, 0
        DC8 65H, 0, 6DH, 0, 20H, 0, 74H, 0
        DC8 69H, 0, 6DH, 0, 65H, 0, 20H, 0
        DC8 61H, 0, 63H, 0, 63H, 0, 65H, 0
        DC8 70H, 0, 74H, 0, 65H, 0, 64H, 0
        DC8 21H, 0, 0, 0

        RSEG DATA_C:CONST:SORT:NOROOT(2)
`?<Constant L"\\x68\\x65\\x6c\\x6c\\x6f\\x2e\\x77\\x61\\`:
        DATA
        DC8 68H, 0, 65H, 0, 6CH, 0, 6CH, 0
        DC8 6FH, 0, 2EH, 0, 77H, 0, 61H, 0
        DC8 76H, 0, 0, 0

        RSEG DATA_C:CONST:SORT:NOROOT(2)
`?<Constant L"\\x61\\x6c\\x61\\x72\\x6d\\x2e\\x77\\x61\\`:
        DATA
        DC8 61H, 0, 6CH, 0, 61H, 0, 72H, 0
        DC8 6DH, 0, 2EH, 0, 77H, 0, 61H, 0
        DC8 76H, 0, 0, 0

        RSEG DATA_C:CONST:SORT:NOROOT(2)
`?<Constant L"\\x66\\x69\\x72\\x73\\x74\\x62\\x6c\\x6f\\`:
        DATA
        DC8 66H, 0, 69H, 0, 72H, 0, 73H, 0
        DC8 74H, 0, 62H, 0, 6CH, 0, 6FH, 0
        DC8 6FH, 0, 64H, 0, 2EH, 0, 77H, 0
        DC8 61H, 0, 76H, 0, 0, 0
        DC8 0, 0

        RSEG DATA_C:CONST:SORT:NOROOT(2)
`?<Constant L"\\x63\\x68\\x65\\x65\\x72\\x5f\\x66\\x65\\`:
        DATA
        DC8 63H, 0, 68H, 0, 65H, 0, 65H, 0
        DC8 72H, 0, 5FH, 0, 66H, 0, 65H, 0
        DC8 6DH, 0, 61H, 0, 6CH, 0, 65H, 0
        DC8 2EH, 0, 77H, 0, 61H, 0, 76H, 0
        DC8 0, 0
        DC8 0, 0

        RSEG DATA_C:CONST:SORT:NOROOT(2)
`?<Constant L"\\x63\\x68\\x65\\x65\\x72\\x5f\\x6d\\x61\\`:
        DATA
        DC8 63H, 0, 68H, 0, 65H, 0, 65H, 0
        DC8 72H, 0, 5FH, 0, 6DH, 0, 61H, 0
        DC8 6CH, 0, 65H, 0, 2EH, 0, 77H, 0
        DC8 61H, 0, 76H, 0, 0, 0
        DC8 0, 0

        RSEG DATA_C:CONST:SORT:NOROOT(2)
`?<Constant L"\\x73\\x6d\\x69\\x6c\\x65\\x2e\\x70\\x6e\\`:
        DATA
        DC8 73H, 0, 6DH, 0, 69H, 0, 6CH, 0
        DC8 65H, 0, 2EH, 0, 70H, 0, 6EH, 0
        DC8 67H, 0, 0, 0

        RSEG DATA_C:CONST:SORT:NOROOT(2)
`?<Constant L"\\x43\\x68\\x61\\x6e\\x67\\x65\\x20\\x6e\\`:
        DATA
        DC8 43H, 0, 68H, 0, 61H, 0, 6EH, 0
        DC8 67H, 0, 65H, 0, 20H, 0, 6EH, 0
        DC8 61H, 0, 6DH, 0, 65H, 0, 0, 0

        RSEG DATA_C:CONST:SORT:NOROOT(2)
`?<Constant L"\\x64\\x72\\x65\\x61\\x6d\\x2e\\x70\\x6e\\`:
        DATA
        DC8 64H, 0, 72H, 0, 65H, 0, 61H, 0
        DC8 6DH, 0, 2EH, 0, 70H, 0, 6EH, 0
        DC8 67H, 0, 0, 0

        RSEG DATA_C:CONST:SORT:NOROOT(2)
`?<Constant L"\\x68\\x75\\x6e\\x67\\x65\\x72\\x2e\\x70\\`:
        DATA
        DC8 68H, 0, 75H, 0, 6EH, 0, 67H, 0
        DC8 65H, 0, 72H, 0, 2EH, 0, 70H, 0
        DC8 6EH, 0, 67H, 0, 0, 0
        DC8 0, 0

        RSEG DATA_C:CONST:SORT:NOROOT(2)
`?<Constant L"\\x48\\x65\\x61\\x6c\\x74\\x68\\x2e\\x70\\`:
        DATA
        DC8 48H, 0, 65H, 0, 61H, 0, 6CH, 0
        DC8 74H, 0, 68H, 0, 2EH, 0, 70H, 0
        DC8 6EH, 0, 67H, 0, 0, 0
        DC8 0, 0

        RSEG DATA_C:CONST:SORT:NOROOT(2)
`?<Constant L"\\x48\\x61\\x70\\x70\\x69\\x6e\\x65\\x73\\`:
        DATA
        DC8 48H, 0, 61H, 0, 70H, 0, 70H, 0
        DC8 69H, 0, 6EH, 0, 65H, 0, 73H, 0
        DC8 73H, 0, 2EH, 0, 70H, 0, 6EH, 0
        DC8 67H, 0, 0, 0

        RSEG DATA_C:CONST:SORT:NOROOT(2)
`?<Constant L"\\x44\\x69\\x72\\x74\\x69\\x6e\\x65\\x73\\`:
        DATA
        DC8 44H, 0, 69H, 0, 72H, 0, 74H, 0
        DC8 69H, 0, 6EH, 0, 65H, 0, 73H, 0
        DC8 73H, 0, 2EH, 0, 70H, 0, 6EH, 0
        DC8 67H, 0, 0, 0

        RSEG DATA_C:CONST:SORT:NOROOT(2)
`?<Constant L"\\x42\\x6f\\x72\\x65\\x64\\x6f\\x6d\\x2e\\`:
        DATA
        DC8 42H, 0, 6FH, 0, 72H, 0, 65H, 0
        DC8 64H, 0, 6FH, 0, 6DH, 0, 2EH, 0
        DC8 70H, 0, 6EH, 0, 67H, 0, 0, 0

        RSEG DATA_C:CONST:SORT:NOROOT(2)
`?<Constant L"\\x42\\x65\\x68\\x61\\x76\\x69\\x6f\\x75\\`:
        DATA
        DC8 42H, 0, 65H, 0, 68H, 0, 61H, 0
        DC8 76H, 0, 69H, 0, 6FH, 0, 75H, 0
        DC8 72H, 0, 2EH, 0, 70H, 0, 6EH, 0
        DC8 67H, 0, 0, 0

        RSEG DATA_C:CONST:SORT:NOROOT(2)
`?<Constant L"\\x73\\x69\\x6e\\x67\\x6c\\x65\\x2e\\x70\\`:
        DATA
        DC8 73H, 0, 69H, 0, 6EH, 0, 67H, 0
        DC8 6CH, 0, 65H, 0, 2EH, 0, 70H, 0
        DC8 6EH, 0, 67H, 0, 0, 0
        DC8 0, 0

        RSEG DATA_C:CONST:SORT:NOROOT(2)
`?<Constant L"\\x69\\x6e\\x5f\\x6c\\x6f\\x76\\x65\\x2e\\`:
        DATA
        DC8 69H, 0, 6EH, 0, 5FH, 0, 6CH, 0
        DC8 6FH, 0, 76H, 0, 65H, 0, 2EH, 0
        DC8 70H, 0, 6EH, 0, 67H, 0, 0, 0

        RSEG DATA_C:CONST:SORT:NOROOT(2)
`?<Constant L"\\x62\\x61\\x74\\x68\\x65\\x2e\\x70\\x6e\\`:
        DATA
        DC8 62H, 0, 61H, 0, 74H, 0, 68H, 0
        DC8 65H, 0, 2EH, 0, 70H, 0, 6EH, 0
        DC8 67H, 0, 0, 0

        RSEG DATA_C:CONST:SORT:NOROOT(2)
`?<Constant L"\\x6e\\x75\\x6c\\x6c\\x2e\\x70\\x6e\\x67"`:
        DATA
        DC8 6EH, 0, 75H, 0, 6CH, 0, 6CH, 0
        DC8 2EH, 0, 70H, 0, 6EH, 0, 67H, 0
        DC8 0, 0
        DC8 0, 0

        RSEG DATA_C:CONST:SORT:NOROOT(2)
`?<Constant L"\\x67\\x61\\x6d\\x65\\x2e\\x70\\x6e\\x67"`:
        DATA
        DC8 67H, 0, 61H, 0, 6DH, 0, 65H, 0
        DC8 2EH, 0, 70H, 0, 6EH, 0, 67H, 0
        DC8 0, 0
        DC8 0, 0

        RSEG DATA_C:CONST:SORT:NOROOT(2)
`?<Constant L"\\x6d\\x6f\\x6f\\x6e\\x2e\\x70\\x6e\\x67"`:
        DATA
        DC8 6DH, 0, 6FH, 0, 6FH, 0, 6EH, 0
        DC8 2EH, 0, 70H, 0, 6EH, 0, 67H, 0
        DC8 0, 0
        DC8 0, 0

        RSEG DATA_C:CONST:SORT:NOROOT(2)
`?<Constant L"\\x6d\\x75\\x73\\x69\\x63\\x2e\\x70\\x6e\\`:
        DATA
        DC8 6DH, 0, 75H, 0, 73H, 0, 69H, 0
        DC8 63H, 0, 2EH, 0, 70H, 0, 6EH, 0
        DC8 67H, 0, 0, 0

        RSEG DATA_C:CONST:SORT:NOROOT(2)
`?<Constant L"\\x76\\x61\\x63\\x63\\x69\\x6e\\x61\\x74\\`:
        DATA
        DC8 76H, 0, 61H, 0, 63H, 0, 63H, 0
        DC8 69H, 0, 6EH, 0, 61H, 0, 74H, 0
        DC8 65H, 0, 2EH, 0, 70H, 0, 6EH, 0
        DC8 67H, 0, 0, 0

        RSEG DATA_C:CONST:SORT:NOROOT(2)
`?<Constant L"\\x64\\x69\\x73\\x63\\x69\\x70\\x6c\\x69\\`:
        DATA
        DC8 64H, 0, 69H, 0, 73H, 0, 63H, 0
        DC8 69H, 0, 70H, 0, 6CH, 0, 69H, 0
        DC8 6EH, 0, 65H, 0, 2EH, 0, 70H, 0
        DC8 6EH, 0, 67H, 0, 0, 0
        DC8 0, 0

        RSEG DATA_C:CONST:SORT:NOROOT(2)
`?<Constant L"\\x73\\x6c\\x65\\x65\\x70\\x2e\\x70\\x6e\\`:
        DATA
        DC8 73H, 0, 6CH, 0, 65H, 0, 65H, 0
        DC8 70H, 0, 2EH, 0, 70H, 0, 6EH, 0
        DC8 67H, 0, 0, 0

        RSEG DATA_C:CONST:SORT:NOROOT(2)
`?<Constant L"\\x73\\x74\\x61\\x74\\x75\\x73\\x2e\\x70\\`:
        DATA
        DC8 73H, 0, 74H, 0, 61H, 0, 74H, 0
        DC8 75H, 0, 73H, 0, 2EH, 0, 70H, 0
        DC8 6EH, 0, 67H, 0, 0, 0
        DC8 0, 0

        RSEG DATA_C:CONST:SORT:NOROOT(2)
`?<Constant L"\\x73\\x6d\\x5f\\x73\\x6d\\x69\\x6c\\x65\\`:
        DATA
        DC8 73H, 0, 6DH, 0, 5FH, 0, 73H, 0
        DC8 6DH, 0, 69H, 0, 6CH, 0, 65H, 0
        DC8 2EH, 0, 70H, 0, 6EH, 0, 67H, 0
        DC8 0, 0
        DC8 0, 0

        RSEG DATA_C:CONST:SORT:NOROOT(2)
`?<Constant L"\\x73\\x65\\x74\\x74\\x69\\x6e\\x67\\x73\\`:
        DATA
        DC8 73H, 0, 65H, 0, 74H, 0, 74H, 0
        DC8 69H, 0, 6EH, 0, 67H, 0, 73H, 0
        DC8 2EH, 0, 70H, 0, 6EH, 0, 67H, 0
        DC8 0, 0
        DC8 0, 0

        RSEG DATA_C:CONST:SORT:NOROOT(2)
`?<Constant L"\\x61\\x62\\x6f\\x75\\x74\\x2e\\x70\\x6e\\`:
        DATA
        DC8 61H, 0, 62H, 0, 6FH, 0, 75H, 0
        DC8 74H, 0, 2EH, 0, 70H, 0, 6EH, 0
        DC8 67H, 0, 0, 0

        RSEG DATA_C:CONST:SORT:NOROOT(2)
`?<Constant L"\\x68\\x65\\x61\\x72\\x74\\x2e\\x70\\x6e\\`:
        DATA
        DC8 68H, 0, 65H, 0, 61H, 0, 72H, 0
        DC8 74H, 0, 2EH, 0, 70H, 0, 6EH, 0
        DC8 67H, 0, 0, 0

        RSEG DATA_C:CONST:SORT:NOROOT(2)
`?<Constant L"\\x73\\x6d\\x5f\\x68\\x75\\x6e\\x67\\x65\\`:
        DATA
        DC8 73H, 0, 6DH, 0, 5FH, 0, 68H, 0
        DC8 75H, 0, 6EH, 0, 67H, 0, 65H, 0
        DC8 72H, 0, 2EH, 0, 70H, 0, 6EH, 0
        DC8 67H, 0, 0, 0

        RSEG DATA_C:CONST:SORT:NOROOT(2)
`?<Constant L"\\x73\\x6d\\x5f\\x48\\x61\\x70\\x70\\x69\\`:
        DATA
        DC8 73H, 0, 6DH, 0, 5FH, 0, 48H, 0
        DC8 61H, 0, 70H, 0, 70H, 0, 69H, 0
        DC8 6EH, 0, 65H, 0, 73H, 0, 73H, 0
        DC8 2EH, 0, 70H, 0, 6EH, 0, 67H, 0
        DC8 0, 0
        DC8 0, 0

        RSEG DATA_C:CONST:SORT:NOROOT(2)
`?<Constant L"\\x73\\x6d\\x5f\\x44\\x69\\x72\\x74\\x69\\`:
        DATA
        DC8 73H, 0, 6DH, 0, 5FH, 0, 44H, 0
        DC8 69H, 0, 72H, 0, 74H, 0, 69H, 0
        DC8 6EH, 0, 65H, 0, 73H, 0, 73H, 0
        DC8 2EH, 0, 70H, 0, 6EH, 0, 67H, 0
        DC8 0, 0
        DC8 0, 0

        RSEG DATA_C:CONST:SORT:NOROOT(2)
`?<Constant L"\\x73\\x6d\\x5f\\x42\\x6f\\x72\\x65\\x64\\`:
        DATA
        DC8 73H, 0, 6DH, 0, 5FH, 0, 42H, 0
        DC8 6FH, 0, 72H, 0, 65H, 0, 64H, 0
        DC8 6FH, 0, 6DH, 0, 2EH, 0, 70H, 0
        DC8 6EH, 0, 67H, 0, 0, 0
        DC8 0, 0

        RSEG DATA_C:CONST:SORT:NOROOT(2)
`?<Constant L"\\x73\\x6d\\x5f\\x42\\x65\\x68\\x61\\x76\\`:
        DATA
        DC8 73H, 0, 6DH, 0, 5FH, 0, 42H, 0
        DC8 65H, 0, 68H, 0, 61H, 0, 76H, 0
        DC8 69H, 0, 6FH, 0, 75H, 0, 72H, 0
        DC8 2EH, 0, 70H, 0, 6EH, 0, 67H, 0
        DC8 0, 0
        DC8 0, 0

        RSEG DATA_C:CONST:SORT:NOROOT(2)
`?<Constant L"\\x73\\x6d\\x5f\\x64\\x72\\x65\\x61\\x6d\\`:
        DATA
        DC8 73H, 0, 6DH, 0, 5FH, 0, 64H, 0
        DC8 72H, 0, 65H, 0, 61H, 0, 6DH, 0
        DC8 2EH, 0, 70H, 0, 6EH, 0, 67H, 0
        DC8 0, 0
        DC8 0, 0

        RSEG DATA_C:CONST:SORT:NOROOT(2)
`?<Constant L"\\x73\\x6d\\x5f\\x73\\x65\\x78\\x2e\\x70\\`:
        DATA
        DC8 73H, 0, 6DH, 0, 5FH, 0, 73H, 0
        DC8 65H, 0, 78H, 0, 2EH, 0, 70H, 0
        DC8 6EH, 0, 67H, 0, 0, 0
        DC8 0, 0

        RSEG DATA_C:CONST:SORT:NOROOT(2)
`?<Constant L"\\x73\\x6d\\x5f\\x6d\\x61\\x6c\\x65\\x2e\\`:
        DATA
        DC8 73H, 0, 6DH, 0, 5FH, 0, 6DH, 0
        DC8 61H, 0, 6CH, 0, 65H, 0, 2EH, 0
        DC8 70H, 0, 6EH, 0, 67H, 0, 0, 0

        RSEG DATA_C:CONST:SORT:NOROOT(2)
`?<Constant L"\\x73\\x6d\\x5f\\x66\\x65\\x6d\\x61\\x6c\\`:
        DATA
        DC8 73H, 0, 6DH, 0, 5FH, 0, 66H, 0
        DC8 65H, 0, 6DH, 0, 61H, 0, 6CH, 0
        DC8 65H, 0, 2EH, 0, 70H, 0, 6EH, 0
        DC8 67H, 0, 0, 0

        RSEG DATA_C:CONST:SORT:NOROOT(2)
`?<Constant L"\\x73\\x6d\\x5f\\x66\\x61\\x6d\\x69\\x6c\\`:
        DATA
        DC8 73H, 0, 6DH, 0, 5FH, 0, 66H, 0
        DC8 61H, 0, 6DH, 0, 69H, 0, 6CH, 0
        DC8 79H, 0, 2EH, 0, 70H, 0, 6EH, 0
        DC8 67H, 0, 0, 0

        RSEG DATA_C:CONST:SORT:NOROOT(2)
`?<Constant L"\\x73\\x6d\\x5f\\x62\\x61\\x74\\x68\\x65\\`:
        DATA
        DC8 73H, 0, 6DH, 0, 5FH, 0, 62H, 0
        DC8 61H, 0, 74H, 0, 68H, 0, 65H, 0
        DC8 2EH, 0, 70H, 0, 6EH, 0, 67H, 0
        DC8 0, 0
        DC8 0, 0

        RSEG DATA_C:CONST:SORT:NOROOT(2)
`?<Constant L"\\x72\\x6f\\x6f\\x6d\\x2e\\x70\\x6e\\x67"`:
        DATA
        DC8 72H, 0, 6FH, 0, 6FH, 0, 6DH, 0
        DC8 2EH, 0, 70H, 0, 6EH, 0, 67H, 0
        DC8 0, 0
        DC8 0, 0

        RSEG DATA_C:CONST:SORT:NOROOT(2)
`?<Constant "Tamagochi_MainPage">`:
        DATA
        DC8 "Tamagochi_MainPage"
        DC8 0

        RSEG DATA_C:CONST:SORT:NOROOT(2)
`?<Constant "Tamagochi_BasePage">`:
        DATA
        DC8 "Tamagochi_BasePage"
        DC8 0

        RSEG DATA_C:CONST:SORT:NOROOT(2)
`?<Constant "BookManagerDaemon">`:
        DATA
        DC8 "BookManagerDaemon"
        DC8 0, 0

        RSEG DATA_C:CONST:SORT:NOROOT(2)
`?<Constant L"\\x46\\x6f\\x72\\x65\\x69\\x67\\x6e\\x20\\`:
        DATA
        DC8 46H, 0, 6FH, 0, 72H, 0, 65H, 0
        DC8 69H, 0, 67H, 0, 6EH, 0, 20H, 0
        DC8 61H, 0, 70H, 0, 70H, 0, 0, 0
        DC8 4AH, 0, 61H, 0, 76H, 0, 61H, 0
        DC8 0, 0
        DC8 0, 0

        RSEG DATA_C:CONST:SORT:NOROOT(2)
`?<Constant L"\\x54\\x61\\x6d\\x61\\x67\\x6f\\x63\\x68\\_5`:
        DATA
        DC8 54H, 0, 61H, 0, 6DH, 0, 61H, 0
        DC8 67H, 0, 6FH, 0, 63H, 0, 68H, 0
        DC8 69H, 0, 4CH, 0, 6FH, 0, 67H, 0
        DC8 2EH, 0, 74H, 0, 78H, 0, 74H, 0
        DC8 0, 0
        DC8 0, 0
        DC8 "%02d:%02d:%02d %s\012"
        DC8 0

        RSEG DATA_C:CONST:SORT:NOROOT(2)
// static unsigned char const __data rndtable[256]
rndtable:
        DATA
        DC8 0, 8, 109, 220, 222, 241, 149, 107, 75, 248, 254, 140, 16, 66, 74
        DC8 21, 211, 47, 80, 242, 154, 27, 205, 128, 161, 89, 77, 36, 95, 110
        DC8 85, 48, 212, 140, 211, 249, 22, 79, 200, 50, 28, 188, 52, 140, 202
        DC8 120, 68, 145, 62, 70, 184, 190, 91, 197, 152, 224, 149, 104, 25
        DC8 178, 252, 182, 202, 182, 141, 197, 4, 81, 181, 242, 145, 42, 39
        DC8 227, 156, 198, 225, 193, 219, 93, 122, 175, 249, 0, 175, 143, 70
        DC8 239, 46, 246, 163, 53, 163, 109, 168, 135, 2, 235, 25, 92, 20, 145
        DC8 138, 77, 69, 166, 78, 176, 173, 212, 166, 113, 94, 161, 41, 50, 239
        DC8 49, 111, 164, 70, 60, 2, 37, 171, 75, 136, 156, 11, 56, 42, 146
        DC8 138, 229, 73, 146, 77, 61, 98, 196, 135, 106, 63, 197, 195, 86, 96
        DC8 203, 113, 101, 170, 247, 181, 113, 80, 250, 108, 7, 255, 237, 129
        DC8 226, 79, 107, 112, 166, 103, 241, 24, 223, 239, 120, 198, 58, 60
        DC8 82, 128, 3, 184, 66, 143, 224, 145, 224, 81, 206, 163, 45, 63, 90
        DC8 168, 114, 59, 33, 159, 95, 28, 139, 123, 98, 125, 196, 15, 70, 194
        DC8 253, 54, 14, 109, 226, 71, 17, 161, 93, 186, 87, 244, 138, 20, 52
        DC8 123, 251, 26, 36, 17, 46, 52, 231, 232, 76, 31, 221, 84, 37, 216
        DC8 165, 212, 106, 197, 242, 98, 43, 39, 175, 254, 145, 190, 84, 118
        DC8 222, 187, 136, 120, 163, 236, 249
//   14 #include "misc_util.h"
//   15 #include "crypt.h"
//   16 
//   17 #define ELF_HELLO_MSG_EVENT 777
//   18 #define NAME_LEN  64
//   19 
//   20 #define TESTPATH L"/tpa/system/settings"
//   21 #define TESTFILE L"filetype.bin"
//   22 
//   23 typedef struct
//   24 {
//   25   BOOK * book;
//   26   wchar_t name[NAME_LEN];
//   27 }HELLO_MSG;
//   28 
//   29 #define TMR_SECOND  1000
//   30 
//   31 #define STATUS_HEIGHT_128  14
//   32 #define STATUS_HEIGHT_160  14
//   33 #define STATUS_HEIGHT_208  18
//   34 #define STATUS_HEIGHT_220  18
//   35 #define STATUS_HEIGHT_320  25
//   36 
//   37 #define SOFT_HEIGHT_128  18
//   38 #define SOFT_HEIGHT_160  18
//   39 #define SOFT_HEIGHT_208  26
//   40 #define SOFT_HEIGHT_220  26
//   41 #define SOFT_HEIGHT_320  30
//   42 
//   43 enum SLEEP_TYPE {
//   44   NIGHT_SLEEP = 0,
//   45   FATIGUE_SLEEP,
//   46   HUNGER_SLEEP,
//   47   COMMAND_SLEEP
//   48 };
//   49 
//   50 enum FIND_NAME {
//   51   NOT_FOUND = 0,
//   52   GAME_FOUND,
//   53   PLAYER_FOUND
//   54 };
//   55 
//   56 typedef struct
//   57 {
//   58   BOOK * book;
//   59 }MSG;
//   60 
//   61 static const wchar_t * const SoundName[SOUND_NAME_COUNT]=
//   62 {
//   63   L"global.wav",     //tuk-tuk 0
//   64   L"hello.wav",      //privet 1
//   65   L"birthday.wav",   //den' rozhdeniya 2
//   66   L"alarm.wav",      //toropis'! 3
//   67   L"comeon.wav",     //nu davaj-davaj 4
//   68   L"illgetyou.wav",  //nu pogodi 5
//   69   L"boring.wav",     //skuchno 6
//   70   L"byebye.wav",     //poka 7
//   71   L"fatality.wav",   //ubit 8
//   72   L"firstblood.wav", //pervaya krov' 9
//   73   L"laugh.wav",      //haha 10
//   74   L"leaveme.wav",    //ostav' menya 11
//   75   L"nooo.wav",       //neee 12
//   76   L"ohdeer.wav",     //oj-e-e-e-ej 13
//   77   L"sleep.wav",      //zevaet 14
//   78   L"ouch.wav",       //oj bol'na 15
//   79   L"ow.wav",         //au! 16
//   80   L"yessir.wav",     //da ser 17
//   81   L"cry.wav",
//   82   L"cheer_female.wav",
//   83   L"cheer_male.wav",
//   84   L"bathe.wav"
//   85 };
//   86 

        RSEG DATA_C:CONST:SORT:NOROOT(2)
//   87 static const wchar_t * const icons_names[ICONS_NAMES_COUNT]=
icons_names:
        DATA
        DC32 `?<Constant L"\\x73\\x6d\\x69\\x6c\\x65\\x2e\\x70\\x6e\\`
        DC32 `?<Constant L"\\x64\\x65\\x61\\x74\\x68\\x2e\\x70\\x6e\\`
        DC32 `?<Constant L"\\x64\\x72\\x65\\x61\\x6d\\x2e\\x70\\x6e\\`
        DC32 `?<Constant L"\\x68\\x75\\x6e\\x67\\x65\\x72\\x2e\\x70\\`
        DC32 `?<Constant L"\\x48\\x65\\x61\\x6c\\x74\\x68\\x2e\\x70\\`
        DC32 `?<Constant L"\\x48\\x61\\x70\\x70\\x69\\x6e\\x65\\x73\\`
        DC32 `?<Constant L"\\x44\\x69\\x72\\x74\\x69\\x6e\\x65\\x73\\`
        DC32 `?<Constant L"\\x42\\x6f\\x72\\x65\\x64\\x6f\\x6d\\x2e\\`
        DC32 `?<Constant L"\\x42\\x65\\x68\\x61\\x76\\x69\\x6f\\x75\\`
        DC32 `?<Constant L"\\x73\\x69\\x6e\\x67\\x6c\\x65\\x2e\\x70\\`
        DC32 `?<Constant L"\\x69\\x6e\\x5f\\x6c\\x6f\\x76\\x65\\x2e\\`
        DC32 `?<Constant L"\\x62\\x61\\x74\\x68\\x65\\x2e\\x70\\x6e\\`
        DC32 `?<Constant L"\\x6e\\x75\\x6c\\x6c\\x2e\\x70\\x6e\\x67"`
        DC32 `?<Constant L"\\x67\\x61\\x6d\\x65\\x2e\\x70\\x6e\\x67"`
        DC32 `?<Constant L"\\x6d\\x6f\\x6f\\x6e\\x2e\\x70\\x6e\\x67"`
        DC32 `?<Constant L"\\x6d\\x75\\x73\\x69\\x63\\x2e\\x70\\x6e\\`
        DC32 `?<Constant L"\\x67\\x61\\x6d\\x65\\x2e\\x70\\x6e\\x67"`
        DC32 `?<Constant L"\\x76\\x61\\x63\\x63\\x69\\x6e\\x61\\x74\\`
        DC32 `?<Constant L"\\x64\\x69\\x73\\x63\\x69\\x70\\x6c\\x69\\`
        DC32 `?<Constant L"\\x73\\x6c\\x65\\x65\\x70\\x2e\\x70\\x6e\\`
        DC32 `?<Constant L"\\x73\\x74\\x61\\x74\\x75\\x73\\x2e\\x70\\`
        DC32 `?<Constant L"\\x73\\x6d\\x5f\\x73\\x6d\\x69\\x6c\\x65\\`
        DC32 `?<Constant L"\\x73\\x65\\x74\\x74\\x69\\x6e\\x67\\x73\\`
        DC32 `?<Constant L"\\x61\\x62\\x6f\\x75\\x74\\x2e\\x70\\x6e\\`
        DC32 `?<Constant L"\\x73\\x6d\\x5f\\x73\\x6d\\x69\\x6c\\x65\\`
        DC32 `?<Constant L"\\x68\\x65\\x61\\x72\\x74\\x2e\\x70\\x6e\\`
        DC32 `?<Constant L"\\x73\\x6d\\x5f\\x68\\x75\\x6e\\x67\\x65\\`
        DC32 `?<Constant L"\\x73\\x6d\\x5f\\x48\\x61\\x70\\x70\\x69\\`
        DC32 `?<Constant L"\\x73\\x6d\\x5f\\x44\\x69\\x72\\x74\\x69\\`
        DC32 `?<Constant L"\\x73\\x6d\\x5f\\x42\\x6f\\x72\\x65\\x64\\`
        DC32 `?<Constant L"\\x73\\x6d\\x5f\\x42\\x65\\x68\\x61\\x76\\`
        DC32 `?<Constant L"\\x73\\x6d\\x5f\\x64\\x72\\x65\\x61\\x6d\\`
        DC32 `?<Constant L"\\x73\\x6d\\x5f\\x73\\x65\\x78\\x2e\\x70\\`
        DC32 `?<Constant L"\\x73\\x6d\\x5f\\x6d\\x61\\x6c\\x65\\x2e\\`
        DC32 `?<Constant L"\\x73\\x6d\\x5f\\x66\\x65\\x6d\\x61\\x6c\\`
        DC32 `?<Constant L"\\x73\\x6d\\x5f\\x66\\x61\\x6d\\x69\\x6c\\`
        DC32 `?<Constant L"\\x73\\x6d\\x5f\\x62\\x61\\x74\\x68\\x65\\`
        DC32 `?<Constant L"\\x72\\x6f\\x6f\\x6d\\x2e\\x70\\x6e\\x67"`
//   88 {
//   89   L"smile.png",
//   90   L"death.png",
//   91   L"dream.png",
//   92   L"hunger.png",
//   93   L"Health.png",
//   94   L"Happiness.png",
//   95   L"Dirtiness.png",
//   96   L"Boredom.png",
//   97   L"Behaviour.png",
//   98   L"single.png",
//   99   L"in_love.png",
//  100   L"bathe.png"
//  101 };
//  102 
//  103 static const wchar_t * const icons_status[ICONS_STATUS_COUNT]=
//  104 {
//  105   L"null.png",
//  106   L"game.png",
//  107   L"moon.png",
//  108   L"music.png"
//  109 };
//  110 
//  111 static const wchar_t * const icons_menu[ICONS_MENU_COUNT]=
//  112 {
//  113   L"game.png",
//  114   L"vaccinate.png",
//  115   L"discipline.png",
//  116   L"sleep.png",
//  117   L"status.png",
//  118   L"sm_smile.png",
//  119   L"settings.png",
//  120   L"about.png",
//  121   L"sm_smile.png",
//  122   L"heart.png",
//  123   L"sm_hunger.png",
//  124   L"sm_Happiness.png",
//  125   L"sm_Dirtiness.png",
//  126   L"sm_Boredom.png",
//  127   L"sm_Behaviour.png",
//  128   L"sm_dream.png",
//  129   L"sm_sex.png",
//  130   L"sm_male.png",
//  131   L"sm_female.png",
//  132   L"sm_family.png",
//  133   L"sm_bathe.png",
//  134   L"room.png"
//  135 };
//  136 
//  137 DISP_OBJ_ONREDRAW_METHOD Status_oldReDraw = 0;
//  138 DISP_OBJ ** GUI_status = 0;
//  139 DISP_DESC * Status_desc = 0;
//  140 
//  141 DISP_OBJ_ONREDRAW_METHOD Display_oldReDraw = 0;
//  142 DISP_OBJ * GUI_display = 0;
//  143 DISP_DESC * Display_desc = 0;
//  144 
//  145 DISP_OBJ_ONREDRAW_METHOD Soft_oldReDraw = 0;
//  146 DISP_OBJ * GUI_soft = 0;
//  147 DISP_DESC * Soft_desc = 0;
//  148 
//  149 int DisplayWidth  = 0; //ширина диспле€ в пиксел€х
//  150 int DisplayHeight = 0; //высота диспле€ в пиксел€х
//  151 int SoftBarHeight   = 0;
//  152 int StatusBarHeight = 0;
//  153 int SoftBarY   = 0;
//  154 int StatusBarY = 0;
//  155 
//  156 MyBOOK *TamagochiBook = 0;
//  157 
//  158 static char myappname[128]=ELFNAME;
//  159 
//  160 IMAGEID img_names[ICONS_NAMES_COUNT] = {NOIMAGE,NOIMAGE,NOIMAGE,NOIMAGE,
//  161                                     NOIMAGE,NOIMAGE,NOIMAGE,NOIMAGE,
//  162                                     NOIMAGE,NOIMAGE,NOIMAGE};
//  163 
//  164 IMAGEID img_status[ICONS_STATUS_COUNT] = {NOIMAGE,NOIMAGE,NOIMAGE,NOIMAGE};
//  165 
//  166 IMAGEID img_menu[ICONS_MENU_COUNT] = {NOIMAGE,NOIMAGE,NOIMAGE,NOIMAGE,
//  167                                   NOIMAGE,NOIMAGE,NOIMAGE,NOIMAGE,
//  168                                   NOIMAGE,NOIMAGE,NOIMAGE,NOIMAGE,
//  169                                   NOIMAGE,NOIMAGE,NOIMAGE,NOIMAGE,
//  170                                   NOIMAGE,NOIMAGE,NOIMAGE,NOIMAGE,
//  171                                   NOIMAGE,NOIMAGE};
//  172 
//  173 int SmileSize = 0;
//  174 int StatSize  = 0;
//  175 
//  176 //—татусы питомцев

        RSEG DATA_Z:DATA:SORT:NOROOT(2)
//  177 TStatusPets Pets[MAX_PET_COUNT_GLB];
Pets:
        DS8 8704
//  178 
//  179 char game_list[GAME_PLAYER_LIST_LEN];
//  180 char player_list[GAME_PLAYER_LIST_LEN];
//  181 
//  182 u16 timer_save    = 0;
//  183 u16 timer_refresh = 0;
//  184 u16 timer_life    = 0;
//  185 
//  186 int screen = 0;
//  187 u16 timerScreen = 0;
//  188 u16 offtimerScreen = 0;
//  189 
//  190 void InitStatus(int indx, int age, int sex);
//  191 void InitPetVar(int indx);
//  192 int SaveStatus(int indx);
//  193 void LoadAllPets();
//  194 int NewKey(int key, int r1 , int mode, LPARAM, DISP_OBJ*);
//  195 int isTamagochiBook(BOOK * book);
//  196 void onTimer_save (u16 timerID, LPARAM lparam);
//  197 void onTimer_refresh (u16 timerID, LPARAM lparam);
//  198 void onTimer_life (u16 timerID, LPARAM lparam);
//  199 

        RSEG CODE:CODE:NOROOT(2)
        CFI Block cfiBlock6 Using cfiCommon0
        CFI Function ??isBookmanDaemonBook
        ARM
//  200 int isBookmanDaemonBook(BOOK * book)
//  201 {
//  202   if(!strcmp(book->xbook->name,"BookManagerDaemon")) return(1);
??isBookmanDaemonBook:
        LDR      R1,??isBookmanDaemonBook_1  ;; `?<Constant "BookManagerDaemon">`
        PUSH     {LR}
        CFI ?RET Frame(CFA, -4)
        CFI CFA R13+4
        LDR      R0,[R0, #+0]
        LDR      R0,[R0, #+4]
        SWI      +345
        CMP      R0,#+0
        MOVEQ    R0,#+1
        POPEQ    {PC}
//  203   return(0);
        MOV      R0,#+0
        POP      {PC}             ;; return
        DATA
??isBookmanDaemonBook_1:
        DC32     `?<Constant "BookManagerDaemon">`
        CFI EndBlock cfiBlock6
//  204 }

        RSEG CODE:CODE:NOROOT(2)
        CFI Block cfiBlock7 Using cfiCommon1
        CFI NoFunction
        THUMB
??CheckEv??rT:
        BX       PC
        Nop      
        CFI EndBlock cfiBlock7
        REQUIRE ??CheckEv
//  205 
//  206 // проверка, обрабатывает ли base_page книги событие

        RSEG CODE:CODE:NOROOT(2)
        CFI Block cfiBlock8 Using cfiCommon0
        CFI Function ??CheckEv
        ARM
//  207 int CheckEv(BOOK * bk, int ev)
//  208 {
//  209   PAGE_MSG * pm;
//  210   if (bk->base_page)
??CheckEv:
        LDR      R0,[R0, #+16]
        CMP      R0,#+0
        BXEQ     LR
//  211   {
//  212     pm=(PAGE_MSG *)bk->base_page->msg_lst;
        LDR      R0,[R0, #+8]
//  213     if (pm)
        CMP      R0,#+0
        BNE      ??CheckEv_1
//  214     {
//  215       while ((pm->msg) && (pm->proc))
//  216       {
//  217         if (pm->msg==ev)
//  218         {
//  219           return(1);
//  220         }
//  221         pm++;
//  222       }
//  223     }
//  224   }
//  225   return(0);
??CheckEv_2:
        MOV      R0,#+0
        BX       LR               ;; return
??CheckEv_3:
        ADD      R0,R0,#+8
??CheckEv_1:
        LDR      R2,[R0, #+0]
        CMP      R2,#+0
        LDRNE    R3,[R0, #+4]
        CMPNE    R3,#+0
        BEQ      ??CheckEv_2
        CMP      R2,R1
        BNE      ??CheckEv_3
        MOV      R0,#+1
        BX       LR
        CFI EndBlock cfiBlock8
//  226 }

        RSEG CODE:CODE:NOROOT(2)
        CFI Block cfiBlock9 Using cfiCommon1
        CFI NoFunction
        THUMB
??GetJavaName??rT:
        BX       PC
        Nop      
        CFI EndBlock cfiBlock9
        REQUIRE ??GetJavaName
//  227 
//  228 // получить им€ жавы

        RSEG CODE:CODE:NOROOT(2)
        CFI Block cfiBlock10 Using cfiCommon0
        CFI Function ??GetJavaName
        ARM
//  229 int GetJavaName(BOOK * bk)
//  230 {
??GetJavaName:
        PUSH     {R4,LR}
        CFI ?RET Frame(CFA, -4)
        CFI R4 Frame(CFA, -8)
        CFI CFA R13+8
//  231   wchar_t ws[100];
//  232   TextID_GetWString(BookObj_GetSession(bk)->name,ws,100);
//  233   if (!wstrncmp(ws,L"Foreign app",11))
        LDR      R4,??GetJavaName_1  ;; `?<Constant L"\\x46\\x6f\\x72\\x65\\x69\\x67\\x6e\\x20\\`
        SUB      SP,SP,#+200
        CFI CFA R13+208
        SWI      +579
        LDR      R0,[R0, #+4]
        MOV      R2,#+100
        MOV      R1,SP
        SWI      +351
        MOV      R2,#+11
        MOV      R1,R4
        MOV      R0,SP
        SWI      +507
        CMP      R0,#+0
        BNE      ??GetJavaName_2
//  234   {
//  235     return(JavaSession_GetName());
??GetJavaName_3:
        SWI      +577
        ADD      SP,SP,#+200
        CFI CFA R13+8
        POP      {R4,PC}
        CFI CFA R13+208
//  236   }
//  237   if (!wstrcmp(ws,L"Java"))
??GetJavaName_2:
        ADD      R1,R4,#+24
        MOV      R0,SP
        SWI      +342
        CMP      R0,#+0
        BEQ      ??GetJavaName_3
//  238   {
//  239     return(JavaSession_GetName());
//  240   }
//  241   return(0);
        MOV      R0,#+0
        ADD      SP,SP,#+200
        CFI CFA R13+8
        POP      {R4,PC}          ;; return
        DATA
??GetJavaName_1:
        DC32     `?<Constant L"\\x46\\x6f\\x72\\x65\\x69\\x67\\x6e\\x20\\`
        CFI EndBlock cfiBlock10
//  242 }

        RSEG CODE:CODE:NOROOT(2)
        CFI Block cfiBlock11 Using cfiCommon1
        CFI NoFunction
        THUMB
??WriteLog??rT:
        BX       PC
        Nop      
        CFI EndBlock cfiBlock11
        REQUIRE ??WriteLog
//  243 

        RSEG CODE:CODE:NOROOT(2)
        CFI Block cfiBlock12 Using cfiCommon0
        CFI Function ??WriteLog
        ARM
//  244 void WriteLog(char *buf)
//  245 {
??WriteLog:
        PUSH     {R4-R6,LR}
        CFI ?RET Frame(CFA, -4)
        CFI R6 Frame(CFA, -8)
        CFI R5 Frame(CFA, -12)
        CFI R4 Frame(CFA, -16)
        CFI CFA R13+16
//  246   int flog;
//  247   wchar_t path[256];
//  248   char msg[512];
//  249   DATETIME dt;
//  250 
//  251   REQUEST_DATEANDTIME_GET(SYNC,&dt);
//  252 
//  253   wstrcpy(path,GetDir(DIR_OTHER|MEM_EXTERNAL));
//  254   if ((flog=_fopen(path,L"TamagochiLog.txt",FSX_O_CREAT|FSX_O_APPEND|FSX_O_RDWR,FSX_S_IREAD|FSX_S_IWRITE,0)) < 0) { return; }
        LDR      R5,??WriteLog_1  ;; `?<Constant L"\\x54\\x61\\x6d\\x61\\x67\\x6f\\x63\\x68\\_5`
        MOV      R4,R0
        LDR      R0,??DataTable8  ;; SYNC
        SUB      SP,SP,#+8
        CFI CFA R13+24
        SUB      SP,SP,#+1024
        CFI CFA R13+1048
        LDR      R0,[R0, #+0]
        MOV      R1,SP
        SWI      +366
        MOV      R0,#+8
        SWI      +261
        MOV      R1,R0
        ADD      R0,SP,#+8
        SWI      +338
        MOV      R0,#+0
        PUSH     {R0}
        CFI CFA R13+1052
        MOV      R3,#+384
        MOV      R2,#+268
        MOV      R1,R5
        ADD      R0,SP,#+12
        SWI      +278
        MOVS     R6,R0
        ADD      SP,SP,#+4
        CFI CFA R13+1048
        BMI      ??WriteLog_2
//  255 
//  256   sprintf(msg, "%02d:%02d:%02d %s\n", dt.time.hour, dt.time.min, dt.time.sec, buf);
        PUSH     {R4}
        CFI CFA R13+1052
        LDRB     R0,[SP, #+10]
        ADD      R1,R5,#+36
        PUSH     {R0}
        CFI CFA R13+1056
        LDRB     R2,[SP, #+12]
        LDRB     R3,[SP, #+13]
        ADD      R0,SP,#+528
        SWI      +276
//  257   fwrite(flog,msg,strlen(msg));
        ADD      R0,SP,#+528
        SWI      +346
        MOV      R2,R0
        ADD      R1,SP,#+528
        MOV      R0,R6
        SWI      +281
//  258   fclose(flog);
        MOV      R0,R6
        SWI      +279
//  259 }
        ADD      SP,SP,#+8
        CFI CFA R13+1048
??WriteLog_2:
        ADD      SP,SP,#+8
        CFI CFA R13+1040
        ADD      SP,SP,#+1024
        CFI CFA R13+16
        POP      {R4-R6,PC}       ;; return
        DATA
??WriteLog_1:
        DC32     `?<Constant L"\\x54\\x61\\x6d\\x61\\x67\\x6f\\x63\\x68\\_5`
        CFI EndBlock cfiBlock12

        RSEG CODE:CODE:NOROOT(2)
        CFI Block cfiBlock13 Using cfiCommon1
        CFI NoFunction
        THUMB
??free_strings??rT:
        BX       PC
        Nop      
        CFI EndBlock cfiBlock13
        REQUIRE ??free_strings
//  260 
//  261 /*
//  262 wchar_t ImageID=NOIMAGE;
//  263 wchar_t ImageHandle=NOIMAGE;
//  264 
//  265 wchar_t RegisterImage(wchar_t * path, wchar_t * fname)
//  266 {
//  267   FSTAT _fstat;
//  268   char error_code;
//  269   int sync=0;
//  270   if(fstat(path,fname,&_fstat)==0)
//  271   {
//  272     if (!REQUEST_IMAGEHANDLER_INTERNAL_GETHANDLE(&sync,(u16 *)&ImageHandle,&error_code))
//  273     {
//  274       if(!Gif2ID(ImageHandle,path,fname,&ImageID))
//  275       {
//  276         if (!REQUEST_IMAGEHANDLER_INTERNAL_REGISTER(&sync,ImageHandle,path,fname,0,&ImageID,&error_code))
//  277         {
//  278           if (error_code) ImageHandle=NOIMAGE;
//  279         }
//  280       }
//  281     }
//  282   }
//  283   return(ImageID);
//  284 }
//  285 
//  286 wchar_t UnRegisterImage()
//  287 {
//  288   char error_code;
//  289   REQUEST_IMAGEHANDLER_INTERNAL_UNREGISTER(SYNC,ImageHandle,0,0,ImageID,1,&error_code);
//  290   ImageID=NOIMAGE;
//  291   ImageHandle=NOIMAGE;
//  292   return 0;
//  293 };
//  294 */
//  295 

        RSEG CODE:CODE:NOROOT(2)
        CFI Block cfiBlock14 Using cfiCommon0
        CFI Function ??free_strings
        ARM
//  296 void free_strings()
//  297 {
//  298 
//  299 }
??free_strings:
        BX       LR               ;; return
        CFI EndBlock cfiBlock14

        RSEG CODE:CODE:NOROOT(2)
        CFI Block cfiBlock15 Using cfiCommon1
        CFI NoFunction
        THUMB
??load_strings??rT:
        BX       PC
        Nop      
        CFI EndBlock cfiBlock15
        REQUIRE ??load_strings
//  300 

        RSEG CODE:CODE:NOROOT(2)
        CFI Block cfiBlock16 Using cfiCommon0
        CFI Function ??load_strings
        ARM
//  301 void load_strings()
//  302 {
//  303   free_strings();
??load_strings:
        B        ??free_strings   ;; tailcall
        CFI EndBlock cfiBlock16
//  304 
//  305 }

        RSEG CODE:CODE:NOROOT(2)
        CFI Block cfiBlock17 Using cfiCommon1
        CFI NoFunction
        THUMB
??free_icons??rT:
        BX       PC
        Nop      
        CFI EndBlock cfiBlock17
        REQUIRE ??free_icons
//  306 

        RSEG CODE:CODE:NOROOT(2)
        CFI Block cfiBlock18 Using cfiCommon0
        CFI Function ??free_icons
        ARM
//  307 void free_icons()
//  308 {
??free_icons:
        PUSH     {R4-R7,LR}
        CFI ?RET Frame(CFA, -4)
        CFI R7 Frame(CFA, -8)
        CFI R6 Frame(CFA, -12)
        CFI R5 Frame(CFA, -16)
        CFI R4 Frame(CFA, -20)
        CFI CFA R13+20
//  309   for (int i=0;i<ICONS_NAMES_COUNT;i++)
        LDR      R4,??DataTable23  ;; img_names
        MOV      R6,#+0
        MOV      R5,#+255
        ORR      R5,R5,#0xFF00
//  310   {
//  311       if(img_names[i] != NOIMAGE)
??free_icons_1:
        ADD      R7,R4,R6, LSL #+1
        LDRH     R0,[R7, #+0]
        CMP      R0,R5
        BEQ      ??free_icons_2
//  312       {
//  313           ImageID_Free(img_names[i]);
        SWI      +717
//  314           img_names[i] = NOIMAGE;
        STRH     R5,[R7, #+0]
//  315       }
//  316   }
??free_icons_2:
        ADD      R6,R6,#+1
        CMP      R6,#+12
        BLT      ??free_icons_1
//  317   for (int i=0;i<ICONS_STATUS_COUNT;i++)
        MOV      R6,#+0
//  318   {
//  319       if(img_status[i] != NOIMAGE)
??free_icons_3:
        ADD      R7,R4,R6, LSL #+1
        LDRH     R0,[R7, #+24]
        CMP      R0,R5
        BEQ      ??free_icons_4
//  320       {
//  321           ImageID_Free(img_status[i]);
        SWI      +717
//  322           img_status[i] = NOIMAGE;
        STRH     R5,[R7, #+24]
//  323       }
//  324   }
??free_icons_4:
        ADD      R6,R6,#+1
        CMP      R6,#+4
        BLT      ??free_icons_3
//  325   for (int i=0;i<ICONS_MENU_COUNT;i++)
        MOV      R6,#+0
//  326   {
//  327       if(img_menu[i] != NOIMAGE)
??free_icons_5:
        ADD      R7,R4,R6, LSL #+1
        LDRH     R0,[R7, #+32]
        CMP      R0,R5
        BEQ      ??free_icons_6
//  328       {
//  329           ImageID_Free(img_menu[i]);
        SWI      +717
//  330           img_menu[i] = NOIMAGE;
        STRH     R5,[R7, #+32]
//  331       }
//  332   }
??free_icons_6:
        ADD      R6,R6,#+1
        CMP      R6,#+22
        BLT      ??free_icons_5
//  333 
//  334 //  UnRegisterImage();
//  335 }
        POP      {R4-R7,PC}       ;; return
        CFI EndBlock cfiBlock18

        RSEG CODE:CODE:NOROOT(2)
        CFI Block cfiBlock19 Using cfiCommon1
        CFI NoFunction
        THUMB
??load_icons??rT:
        BX       PC
        Nop      
        CFI EndBlock cfiBlock19
        REQUIRE ??load_icons
//  336 

        RSEG CODE:CODE:NOROOT(2)
        CFI Block cfiBlock20 Using cfiCommon0
        CFI Function ??load_icons
        ARM
//  337 void load_icons()
//  338 {
//  339   FSTAT _fstat;
//  340   wchar_t path[128];
//  341   getdir(path,PIC_PATH);
??load_icons:
        LDR      R1,??load_icons_1  ;; PIC_PATH
        PUSH     {R4-R9,LR}
        CFI ?RET Frame(CFA, -4)
        CFI R9 Frame(CFA, -8)
        CFI R8 Frame(CFA, -12)
        CFI R7 Frame(CFA, -16)
        CFI R6 Frame(CFA, -20)
        CFI R5 Frame(CFA, -24)
        CFI R4 Frame(CFA, -28)
        CFI CFA R13+28
//  342 
//  343   free_icons();
//  344 
//  345   for(int i=0; i< ICONS_NAMES_COUNT; i++)
        LDR      R4,??load_icons_1+0x4  ;; icons_names
        LDR      R6,??DataTable23  ;; img_names
        SUB      SP,SP,#+284
        CFI CFA R13+312
        ADD      R0,SP,#+28
        _BLF     ??getdir,??getdir??rA
        BL       ??free_icons
        MOV      R7,#+0
        MOV      R5,#+255
        ORR      R5,R5,#0xFF00
//  346   {
//  347     if(fstat(path,icons_names[i],&_fstat)==0)
??load_icons_2:
        LDR      R8,[R4, +R7, LSL #+2]
        MOV      R2,SP
        MOV      R1,R8
        ADD      R0,SP,#+28
        SWI      +284
        CMP      R0,#+0
        BNE      ??load_icons_3
//  348     {
//  349       if(ImageID_Get(path,icons_names[i],&img_names[i])<0) img_names[i] = NOIMAGE;
        ADD      R9,R6,R7, LSL #+1
        MOV      R2,R9
        MOV      R1,R8
        ADD      R0,SP,#+28
        SWI      +716
        CMP      R0,#+0
        STRHMI   R5,[R9, #+0]
//  350     }
//  351   }
??load_icons_3:
        ADD      R7,R7,#+1
        CMP      R7,#+12
        BLT      ??load_icons_2
//  352 
//  353   SmileSize = GetImageWidth(img_names[0]);
        LDRH     R0,[R6, #+0]
//  354 
//  355   for(int i=0; i< ICONS_STATUS_COUNT; i++)
        MOV      R7,#+0
        SWI      +659
        STR      R0,[R6, #+76]
??load_icons_4:
        ADD      R0,R4,R7, LSL #+2
        LDR      R8,[R0, #+48]
        MOV      R2,SP
        MOV      R1,R8
        ADD      R0,SP,#+28
//  356   {
//  357     if(fstat(path,icons_status[i],&_fstat)==0)
        SWI      +284
        CMP      R0,#+0
        BNE      ??load_icons_5
//  358     {
//  359       if(ImageID_Get(path,icons_status[i],&img_status[i])<0) img_status[i] = NOIMAGE;
        ADD      R9,R6,R7, LSL #+1
        ADD      R2,R9,#+24
        MOV      R1,R8
        ADD      R0,SP,#+28
        SWI      +716
        CMP      R0,#+0
        STRHMI   R5,[R9, #+24]
//  360     }
//  361   }
??load_icons_5:
        ADD      R7,R7,#+1
        CMP      R7,#+4
        BLT      ??load_icons_4
//  362 
//  363   StatSize = GetImageWidth(img_status[0]);
        LDRH     R0,[R6, #+24]
//  364 
//  365   for(int i=0; i< ICONS_MENU_COUNT; i++)
        MOV      R7,#+0
        SWI      +659
        STR      R0,[R6, #+80]
??load_icons_6:
        ADD      R0,R4,R7, LSL #+2
        LDR      R8,[R0, #+64]
        MOV      R2,SP
        MOV      R1,R8
        ADD      R0,SP,#+28
//  366   {
//  367     if(fstat(path,icons_menu[i],&_fstat)==0)
        SWI      +284
        CMP      R0,#+0
        BNE      ??load_icons_7
//  368     {
//  369       if(ImageID_Get(path,icons_menu[i],&img_menu[i])<0) img_menu[i] = NOIMAGE;
        ADD      R9,R6,R7, LSL #+1
        ADD      R2,R9,#+32
        MOV      R1,R8
        ADD      R0,SP,#+28
        SWI      +716
        CMP      R0,#+0
        STRHMI   R5,[R9, #+32]
//  370     }
//  371   }
??load_icons_7:
        ADD      R7,R7,#+1
        CMP      R7,#+22
        BLT      ??load_icons_6
//  372 //  RegisterImage(path, L"test.gif");
//  373 }
        ADD      SP,SP,#+284      ;; stack cleaning
        CFI CFA R13+28
        POP      {R4-R9,PC}       ;; return
        DATA
??load_icons_1:
        DC32     PIC_PATH
        DC32     icons_names
        CFI EndBlock cfiBlock20

        RSEG CODE:CODE:NOROOT(2)
        CFI Block cfiBlock21 Using cfiCommon1
        CFI NoFunction
        THUMB
??UpdateName??rT:
        BX       PC
        Nop      
        CFI EndBlock cfiBlock21
        REQUIRE ??UpdateName
//  374 
//  375 // ----------------------------------------------------------------------------

        RSEG CODE:CODE:NOROOT(2)
        CFI Block cfiBlock22 Using cfiCommon0
        CFI Function ??UpdateName
        ARM
//  376 static void UpdateName(void)
//  377 {
//  378   sprintf(myappname,"%s - %d age",ELFNAME, Pets[0].Status.Age);
??UpdateName:
        LDR      R0,??DataTable4  ;; `?<Constant "Tamagochi">`
        LDR      R1,??DataTable47  ;; Pets
        PUSH     {R4,R5,LR}
        CFI ?RET Frame(CFA, -4)
        CFI R5 Frame(CFA, -8)
        CFI R4 Frame(CFA, -12)
        CFI CFA R13+12
        LDR      R3,[R1, #+0]
        LDR      R5,??DataTable21  ;; timer_save
        MOV      R4,#+2128
        MOV      R2,R0
        ADD      R1,R0,#+12
        ADD      R0,R4,R5
        SWI      +276
//  379   TextID_Destroy(((BOOK *)TamagochiBook)->xbook->app_session->name);
        LDR      R0,[R5, #+72]
        LDR      R0,[R0, #+0]
        LDR      R0,[R0, #+8]
        LDR      R0,[R0, #+4]
        SWI      +353
//  380   ((BOOK *)TamagochiBook)->xbook->app_session->name = TextID_Create(myappname,ENC_LAT1,TEXTID_ANY_LEN);
        MOV      R2,#+255
        ORR      R2,R2,#0xFF00
        MOV      R1,#+6
        ADD      R0,R4,R5
        SWI      +349
        LDR      R1,[R5, #+72]
        LDR      R1,[R1, #+0]
        LDR      R1,[R1, #+8]
        STR      R0,[R1, #+4]
//  381 }
        POP      {R4,R5,PC}       ;; return
        CFI EndBlock cfiBlock22

        RSEG CODE:CODE:NOROOT(2)
        DATA
??DataTable4:
        DC32     `?<Constant "Tamagochi">`

        RSEG CODE:CODE:NOROOT(2)
        CFI Block cfiBlock23 Using cfiCommon1
        CFI NoFunction
        THUMB
??isNight??rT:
        BX       PC
        Nop      
        CFI EndBlock cfiBlock23
        REQUIRE ??isNight
//  382 
//  383 // ----------------------------------------------------------------------------

        RSEG CODE:CODE:NOROOT(2)
        CFI Block cfiBlock24 Using cfiCommon0
        CFI Function ??isNight
        ARM
//  384 int isNight()
//  385 {
//  386   if (Night_Ena)
??isNight:
        LDR      R0,??DataTable7  ;; Night_Ena
        PUSH     {LR}
        CFI ?RET Frame(CFA, -4)
        CFI CFA R13+4
        SUB      SP,SP,#+8
        CFI CFA R13+12
        LDR      R0,[R0, #+0]
        CMP      R0,#+0
        POPEQ    {R1,R2,PC}
//  387   {
//  388       //проверка ночи
//  389       DATETIME dt;
//  390       REQUEST_DATEANDTIME_GET(SYNC,&dt);
        LDR      R0,??DataTable8  ;; SYNC
        MOV      R1,SP
        LDR      R0,[R0, #+0]
        SWI      +366
//  391 
//  392       if (Night_begin>=Night_end)
        LDR      R0,??isNight_1   ;; Night_end
        LDR      R1,??isNight_1+0x4  ;; Night_begin
        LDR      R0,[R0, #+0]
        LDR      R1,[R1, #+0]
        LDRB     R2,[SP, #+4]
        CMP      R1,R0
        BCC      ??isNight_2
//  393         if ((dt.time.hour>=Night_begin)||(dt.time.hour<Night_end))
        CMP      R2,R1
        BCS      ??isNight_3
        CMP      R2,R0
        BCS      ??isNight_4
//  394           return 1;
??isNight_3:
        MOV      R0,#+1
        POP      {R1,R2,PC}
//  395 
//  396       if (Night_begin<Night_end)
//  397         if ((dt.time.hour>=Night_begin)&&(dt.time.hour<Night_end))
??isNight_2:
        CMP      R2,R1
        BCC      ??isNight_4
        CMP      R2,R0
        BCC      ??isNight_3
//  398           return 1;
//  399   }
//  400   return 0;
??isNight_4:
        MOV      R0,#+0
        POP      {R1,R2,PC}       ;; return
        DATA
??isNight_1:
        DC32     Night_end
        DC32     Night_begin
        CFI EndBlock cfiBlock24
//  401 }

        RSEG CODE:CODE:NOROOT(2)
        DATA
??DataTable7:
        DC32     Night_Ena

        RSEG CODE:CODE:NOROOT(2)
        DATA
??DataTable8:
        DC32     SYNC

        RSEG CODE:CODE:NOROOT(2)
        CFI Block cfiBlock25 Using cfiCommon1
        CFI NoFunction
        THUMB
??start_vibra??rT:
        BX       PC
        Nop      
        CFI EndBlock cfiBlock25
        REQUIRE ??start_vibra
//  402 
//  403 // ----------------------------------------------------------------------------

        RSEG CODE:CODE:NOROOT(2)
        CFI Block cfiBlock26 Using cfiCommon0
        CFI Function ??start_vibra
        ARM
//  404 void start_vibra(void)
//  405 {
//  406   if(Is_Vibra_Enabled)
??start_vibra:
        LDR      R0,??start_vibra_1  ;; Is_Vibra_Enabled
        PUSH     {R4-R6,LR}
        CFI ?RET Frame(CFA, -4)
        CFI R6 Frame(CFA, -8)
        CFI R5 Frame(CFA, -12)
        CFI R4 Frame(CFA, -16)
        CFI CFA R13+16
        LDR      R0,[R0, #+0]
        CMP      R0,#+0
        POPEQ    {R4-R6,PC}
//  407   {
//  408     int full,on,off;
//  409     if(VIBR_TYPE == 0)
        LDR      R0,??start_vibra_1+0x4  ;; vibraTime
        LDR      R4,[R0, #+0]
        LDR      R0,??start_vibra_1+0x8  ;; VIBR_TYPE
        LDR      R0,[R0, #+0]
        CMP      R0,#+0
//  410     {
//  411       on = vibraTime;
        MOVEQ    R5,R4
//  412       off = 0;
        MOVEQ    R6,#+0
//  413       full = vibraTime;
        BEQ      ??start_vibra_2
//  414     }
//  415     else
//  416     {
//  417       int t = vibraTime/20;
        LDR      R0,??DataTable9  ;; 0xffffffffcccccccd
        UMULL    R1,R6,R0,R4
//  418       on = 9*t;
//  419       off = t;
//  420       full = 20*t;
        MOV      R0,#+20
        LSR      R6,R6,#+4
        MUL      R4,R0,R6
        ADD      R5,R6,R6, LSL #+3
//  421     }
//  422     PAudioControl pAC = AudioControl_Init();
??start_vibra_2:
        SWI      +479
//  423     if( !pAC ) pAC = *GetAudioControlPtr();
        CMP      R0,#+0
        BNE      ??start_vibra_3
        SWI      +33233
        LDR      R0,[R0, #+0]
//  424     AudioControl_Vibrate(pAC, on, off, full);
??start_vibra_3:
        MOV      R3,R4
        MOV      R2,R6
        MOV      R1,R5
        SWI      +466
//  425   }
//  426 }
        POP      {R4-R6,PC}       ;; return
        DATA
??start_vibra_1:
        DC32     Is_Vibra_Enabled
        DC32     vibraTime
        DC32     VIBR_TYPE
        CFI EndBlock cfiBlock26

        RSEG CODE:CODE:NOROOT(2)
        DATA
??DataTable9:
        DC32     0xffffffffcccccccd

        RSEG CODE:CODE:NOROOT(2)
        CFI Block cfiBlock27 Using cfiCommon1
        CFI NoFunction
        THUMB
??offTimerScreen??rT:
        BX       PC
        Nop      
        CFI EndBlock cfiBlock27
        REQUIRE ??offTimerScreen
//  427 
//  428 // ----------------------------------------------------------------------------

        RSEG CODE:CODE:NOROOT(2)
        CFI Block cfiBlock28 Using cfiCommon0
        CFI Function ??offTimerScreen
        ARM
//  429 void offTimerScreen(u16 timerID, LPARAM lparam)
//  430 {
??offTimerScreen:
        PUSH     {R4,R5,LR}
        CFI ?RET Frame(CFA, -4)
        CFI R5 Frame(CFA, -8)
        CFI R4 Frame(CFA, -12)
        CFI CFA R13+12
//  431   if(timerScreen)
        LDR      R5,??DataTable21  ;; timer_save
        MOV      R4,#+0
        LDRH     R0,[R5, #+6]
        CMP      R0,#+0
        BEQ      ??offTimerScreen_1
//  432   {
//  433     Timer_Kill(&timerScreen);
        ADD      R0,R5,#+6
        SWI      +298
//  434     timerScreen = 0;
//  435     IndicationDevice_Backlight_FadeToLevel(0,cfg_screen_level);
        LDR      R0,??DataTable12  ;; cfg_screen_level
        STRH     R4,[R5, #+6]
        LDR      R1,[R0, #+0]
        MOV      R0,#+0
        SWI      +367
//  436   }
//  437   screen = 0;
??offTimerScreen_1:
        STR      R4,[R5, #+76]
//  438 }
        POP      {R4,R5,PC}       ;; return
        CFI EndBlock cfiBlock28

        RSEG CODE:CODE:NOROOT(2)
        CFI Block cfiBlock29 Using cfiCommon1
        CFI NoFunction
        THUMB
??onTimerScreen??rT:
        BX       PC
        Nop      
        CFI EndBlock cfiBlock29
        REQUIRE ??onTimerScreen
//  439 

        RSEG CODE:CODE:NOROOT(2)
        CFI Block cfiBlock30 Using cfiCommon0
        CFI Function ??onTimerScreen
        ARM
//  440 void onTimerScreen(u16 timerID, LPARAM lparam)
//  441 {
//  442     IndicationDevice_Backlight_FadeToLevel(0,screen ^= cfg_screen_level);
??onTimerScreen:
        LDR      R1,??DataTable12  ;; cfg_screen_level
        PUSH     {R4,LR}
        CFI ?RET Frame(CFA, -4)
        CFI R4 Frame(CFA, -8)
        CFI CFA R13+8
        LDR      R4,??DataTable21  ;; timer_save
        SUB      SP,SP,#+4
        CFI CFA R13+12
        LDR      R0,[R4, #+76]
        LDR      R1,[R1, #+0]
        EOR      R1,R1,R0
        STR      R1,[R4, #+76]
        MOV      R0,#+0
        SWI      +367
//  443     Timer_ReSet(&timerScreen,cfg_screen_blink_speed,onTimerScreen,0);
        MOV      R1,#+0
        MOV      R0,SP
        _BLF     ??LPARAM,??LPARAM??rA
        LDR      R0,??DataTable17  ;; cfg_screen_blink_speed
        LDR      R3,[SP, #+0]
        LDR      R2,??DataTable18  ;; ??onTimerScreen
        LDR      R1,[R0, #+0]
        ADD      R0,R4,#+6
        SWI      +296
//  444 }
        POP      {R0,R4,PC}       ;; return
        CFI EndBlock cfiBlock30

        RSEG CODE:CODE:NOROOT(2)
        DATA
??DataTable12:
        DC32     cfg_screen_level

        RSEG CODE:CODE:NOROOT(2)
        CFI Block cfiBlock31 Using cfiCommon1
        CFI NoFunction
        THUMB
??Light??rT:
        BX       PC
        Nop      
        CFI EndBlock cfiBlock31
        REQUIRE ??Light
//  445 

        RSEG CODE:CODE:NOROOT(2)
        CFI Block cfiBlock32 Using cfiCommon0
        CFI Function ??Light
        ARM
//  446 void Light()
//  447 {
//  448   if(Is_Screen_Enabled)
??Light:
        LDR      R0,??Light_1     ;; Is_Screen_Enabled
        PUSH     {R4,LR}
        CFI ?RET Frame(CFA, -4)
        CFI R4 Frame(CFA, -8)
        CFI CFA R13+8
        SUB      SP,SP,#+8
        CFI CFA R13+16
        LDR      R0,[R0, #+0]
        CMP      R0,#+0
        POPEQ    {R0,R1,R4,PC}
//  449   {
//  450     BOOK * ScreenSaverBook = FindBook(get_IsScreenSaverBook());
        SWI      +33089
        SWI      +304
//  451     if (ScreenSaverBook)
        CMP      R0,#+0
        BEQ      ??Light_2
//  452     {
//  453       UI_Event_toBookID(UI_SCREENSAVER_DEACTIVATE_EVENT,BookObj_GetBookID(ScreenSaverBook));
        SWI      +506
        MOV      R1,R0
        LDR      R0,??Light_1+0x4  ;; UI_SCREENSAVER_DEACTIVATE_EVENT
        LDR      R0,[R0, #+0]
        SWI      +426
//  454     }
//  455     timerScreen=Timer_Set(cfg_screen_blink_speed,onTimerScreen,0);
??Light_2:
        MOV      R1,#+0
        LDR      R4,??DataTable21  ;; timer_save
        MOV      R0,SP
        _BLF     ??LPARAM,??LPARAM??rA
        LDR      R0,??DataTable17  ;; cfg_screen_blink_speed
        LDR      R2,[SP, #+0]
        LDR      R0,[R0, #+0]
        LDR      R1,??DataTable18  ;; ??onTimerScreen
        SWI      +297
        STRH     R0,[R4, #+6]
//  456     offtimerScreen=Timer_Set(cfg_screen_time*1000,offTimerScreen,0);
        MOV      R1,#+0
        ADD      R0,SP,#+4
        _BLF     ??LPARAM,??LPARAM??rA
        LDR      R0,??Light_1+0x8  ;; cfg_screen_time
        LDR      R2,[SP, #+4]
        LDR      R0,[R0, #+0]
        LDR      R1,??Light_1+0xC  ;; ??offTimerScreen
        MOV      R3,#+1000
        MUL      R0,R3,R0
        SWI      +297
        STRH     R0,[R4, #+8]
//  457   }
//  458 }
        POP      {R0,R1,R4,PC}    ;; return
        DATA
??Light_1:
        DC32     Is_Screen_Enabled
        DC32     UI_SCREENSAVER_DEACTIVATE_EVENT
        DC32     cfg_screen_time
        DC32     ??offTimerScreen
        CFI EndBlock cfiBlock32

        RSEG CODE:CODE:NOROOT(2)
        DATA
??DataTable17:
        DC32     cfg_screen_blink_speed

        RSEG CODE:CODE:NOROOT(2)
        DATA
??DataTable18:
        DC32     ??onTimerScreen

        RSEG CODE:CODE:NOROOT(2)
        CFI Block cfiBlock33 Using cfiCommon1
        CFI NoFunction
        THUMB
??set_all_simg_status??rT:
        BX       PC
        Nop      
        CFI EndBlock cfiBlock33
        REQUIRE ??set_all_simg_status
//  459 
//  460 // ----------------------------------------------------------------------------
//  461 

        RSEG CODE:CODE:NOROOT(2)
        CFI Block cfiBlock34 Using cfiCommon0
        CFI Function ??set_all_simg_status
        ARM
//  462 void set_all_simg_status(int status)
//  463 {
//  464   for(int i=0; i<MAX_PET_COUNT_GLB; i++) Pets[i].simg_status = status;
??set_all_simg_status:
        MOV      R1,#+0
        MOV      R2,#+272
??set_all_simg_status_1:
        LDR      R3,??DataTable47  ;; Pets
        MLA      R3,R2,R1,R3
        ADD      R1,R1,#+1
        STR      R0,[R3, #+248]
        CMP      R1,#+32
        BLT      ??set_all_simg_status_1
//  465 }
        BX       LR               ;; return
        CFI EndBlock cfiBlock34

        RSEG CODE:CODE:NOROOT(2)
        CFI Block cfiBlock35 Using cfiCommon1
        CFI NoFunction
        THUMB
??set_all_old_img_status??rT:
        BX       PC
        Nop      
        CFI EndBlock cfiBlock35
        REQUIRE ??set_all_old_img_status
//  466 

        RSEG CODE:CODE:NOROOT(2)
        CFI Block cfiBlock36 Using cfiCommon0
        CFI Function ??set_all_old_img_status
        ARM
//  467 void set_all_old_img_status(int status)
//  468 {
//  469   for(int i=0; i<MAX_PET_COUNT_GLB; i++) Pets[i].old_img_status = status;
??set_all_old_img_status:
        MOV      R1,#+0
        MOV      R2,#+272
??set_all_old_img_status_1:
        LDR      R3,??DataTable47  ;; Pets
        MLA      R3,R2,R1,R3
        ADD      R1,R1,#+1
        STR      R0,[R3, #+240]
        CMP      R1,#+32
        BLT      ??set_all_old_img_status_1
//  470 }
        BX       LR               ;; return
        CFI EndBlock cfiBlock36

        RSEG CODE:CODE:NOROOT(2)
        CFI Block cfiBlock37 Using cfiCommon1
        CFI NoFunction
        THUMB
??FindName??rT:
        BX       PC
        Nop      
        CFI EndBlock cfiBlock37
        REQUIRE ??FindName
//  471 // ----------------------------------------------------------------------------

        RSEG CODE:CODE:NOROOT(2)
        CFI Block cfiBlock38 Using cfiCommon0
        CFI Function ??FindName
        ARM
//  472 int FindName()
//  473 {
??FindName:
        PUSH     {R4-R9,LR}
        CFI ?RET Frame(CFA, -4)
        CFI R9 Frame(CFA, -8)
        CFI R8 Frame(CFA, -12)
        CFI R7 Frame(CFA, -16)
        CFI R6 Frame(CFA, -20)
        CFI R5 Frame(CFA, -24)
        CFI R4 Frame(CFA, -28)
        CFI CFA R13+28
        SUB      SP,SP,#+300
        CFI CFA R13+328
//  474   int i,j,k;
//  475   int mask=((int)LastExtDB())&0xF8000000;
//  476   BOOK * book;
//  477   UI_APP_SESSION * session;
//  478 
//  479   i=root_list_get_session_count();
//  480   for (j=0; j<i; j++)
        MOV      R6,#+0
        SWI      +33365
        AND      R4,R0,#0xF8000000
        SWI      +499
        MOV      R5,R0
        B        ??FindName_1
??FindName_2:
        ADD      R6,R6,#+1
??FindName_1:
        CMP      R6,R5
        BGE      ??FindName_3
//  481   {
//  482     session=root_list_get_session(j);
        MOV      R0,R6
        SWI      +500
        MOV      R7,R0
//  483     for (k=0;k<session->listbook->FirstFree;k++)
        MOV      R8,#+0
        B        ??FindName_4
??FindName_5:
        ADD      R8,R8,#+1
??FindName_4:
        LDR      R0,[R7, #+0]
        LDRH     R1,[R0, #+2]
        CMP      R8,R1
        BGE      ??FindName_2
//  484     {
//  485       book=(BOOK*)List_Get(session->listbook,k);
        MOV      R1,R8
        SWI      +429
        MOV      R9,R0
//  486       if( (book->xguilist->guilist->FirstFree) || (((((int)book->onClose)&0xF8000000) != mask)))
        LDR      R0,[R9, #+20]
        LDR      R0,[R0, #+4]
        LDRH     R0,[R0, #+2]
        CMP      R0,#+0
        BNE      ??FindName_6
        LDR      R0,[R9, #+4]
        AND      R0,R0,#0xF8000000
        CMP      R0,R4
        BEQ      ??FindName_5
//  487       {
//  488         char s[100];
//  489         wchar_t ws[100];
//  490         if(strcmp(book->xbook->name,"CUIDisplayableBook"))
??FindName_6:
        LDR      R0,[R9, #+0]
        LDR      R1,??FindName_7  ;; `?<Constant "CUIDisplayableBook">`
        LDR      R0,[R0, #+4]
        SWI      +345
        CMP      R0,#+0
        BEQ      ??FindName_8
//  491         {
//  492           str2wstr(ws,book->xbook->name);
        LDR      R0,[R9, #+0]
        LDR      R1,[R0, #+4]
        MOV      R0,SP
        SWI      +344
        B        ??FindName_9
//  493         }
//  494         else
//  495         {
//  496           TextID_GetWString(book->xbook->app_session->name,ws,100);
??FindName_8:
        LDR      R0,[R9, #+0]
        MOV      R2,#+100
        LDR      R0,[R0, #+8]
        MOV      R1,SP
        LDR      R0,[R0, #+4]
        SWI      +351
//  497         }
//  498         int nameID;
//  499         if((nameID = GetJavaName(book)))
??FindName_9:
        MOV      R0,R9
        BL       ??GetJavaName
        CMP      R0,#+0
        BEQ      ??FindName_10
//  500         {
//  501           TextID_GetWString(nameID,ws,100);
        MOV      R2,#+100
        MOV      R1,SP
        SWI      +351
//  502         }
//  503         wstr2strn (s, ws, 99);
//  504         if(strstr(game_list,s)) return GAME_FOUND;
??FindName_10:
        LDR      R9,??DataTable21  ;; timer_save
        MOV      R2,#+99
        MOV      R1,SP
        ADD      R0,SP,#+200
        SWI      +347
        ADD      R1,SP,#+200
        ADD      R0,R9,#+80
        SWI      +664
        CMP      R0,#+0
        MOVNE    R0,#+1
        BNE      ??FindName_11
//  505         if(strstr(player_list,s)) return PLAYER_FOUND;
        ADD      R1,SP,#+200
        ADD      R0,R9,#+1104
        SWI      +664
        CMP      R0,#+0
        BEQ      ??FindName_5
        MOV      R0,#+2
        ADD      SP,SP,#+300
        CFI CFA R13+28
        POP      {R4-R9,PC}
        CFI CFA R13+328
//  506       }
//  507     }
//  508   }
//  509   return NOT_FOUND;
??FindName_3:
        MOV      R0,#+0
??FindName_11:
        ADD      SP,SP,#+300      ;; stack cleaning
        CFI CFA R13+28
        POP      {R4-R9,PC}       ;; return
        DATA
??FindName_7:
        DC32     `?<Constant "CUIDisplayableBook">`
        CFI EndBlock cfiBlock38
//  510 }

        RSEG CODE:CODE:NOROOT(2)
        DATA
??DataTable21:
        DC32     timer_save

        RSEG CODE:CODE:NOROOT(2)
        CFI Block cfiBlock39 Using cfiCommon1
        CFI NoFunction
        THUMB
??GameDetected??rT:
        BX       PC
        Nop      
        CFI EndBlock cfiBlock39
        REQUIRE ??GameDetected
//  511 

        RSEG CODE:CODE:NOROOT(2)
        CFI Block cfiBlock40 Using cfiCommon0
        CFI Function ??GameDetected
        ARM
//  512 int GameDetected(void)
//  513 {
??GameDetected:
        PUSH     {LR}
        CFI ?RET Frame(CFA, -4)
        CFI CFA R13+4
//  514   int find=0;
//  515 
//  516   if((find = FindName()) != NOT_FOUND) // поиск по game_list и player_list
        BL       ??FindName
        CMP      R0,#+0
        BEQ      ??GameDetected_1
//  517   {
//  518     if(find == GAME_FOUND)
        CMP      R0,#+1
        BEQ      ??GameDetected_2
//  519     {
//  520       set_all_simg_status(GAME_ICN);
//  521       return 1;
//  522     }
//  523     if(find == PLAYER_FOUND)
        CMP      R0,#+2
        BNE      ??GameDetected_3
//  524     {
//  525       set_all_simg_status(MUSIC_ICN);
??GameDetected_4:
        MOV      R0,#+3
??GameDetected_2:
        BL       ??set_all_simg_status
//  526       return 1;
        MOV      R0,#+1
        POP      {PC}
//  527     }
//  528   }
//  529   else if(FindBook(get_IsAudioPlayerBook())) // ищем медиаплеер
??GameDetected_1:
        SWI      +33419
        SWI      +304
        CMP      R0,#+0
        BNE      ??GameDetected_4
//  530   {
//  531     set_all_simg_status(MUSIC_ICN);
//  532     return 1;
//  533   }
//  534   else if(FindBook(get_IsFmRadioBook())) // ищем радио
        SWI      +33418
        SWI      +304
        CMP      R0,#+0
        BNE      ??GameDetected_4
//  535   {
//  536     set_all_simg_status(MUSIC_ICN);
//  537     return 1;
//  538   }
//  539   return 0;
??GameDetected_3:
        MOV      R0,#+0
        POP      {PC}             ;; return
        CFI EndBlock cfiBlock40
//  540 }

        RSEG CODE:CODE:NOROOT(2)
        CFI Block cfiBlock41 Using cfiCommon1
        CFI NoFunction
        THUMB
??ChangeStatusImage??rT:
        BX       PC
        Nop      
        CFI EndBlock cfiBlock41
        REQUIRE ??ChangeStatusImage
//  541 
//  542 // ----------------------------------------------------------------------------

        RSEG CODE:CODE:NOROOT(2)
        CFI Block cfiBlock42 Using cfiCommon0
        CFI Function ??ChangeStatusImage
        ARM
//  543 void ChangeStatusImage(int indx, BOOK *bk, int snd)
//  544 {
??ChangeStatusImage:
        PUSH     {R4,R6-R9,LR}
        CFI ?RET Frame(CFA, -4)
        CFI R9 Frame(CFA, -8)
        CFI R8 Frame(CFA, -12)
        CFI R7 Frame(CFA, -16)
        CFI R6 Frame(CFA, -20)
        CFI R4 Frame(CFA, -24)
        CFI CFA R13+24
        MOV      R4,R2
//  545   TStatusPet *StatusPet = &Pets[indx].Status;
        LDR      R2,??DataTable47  ;; Pets
        MOV      R1,#+272
        MLA      R8,R1,R0,R2
//  546   int SIZE = MINSIZE + StatusPet->Age;
        LDR      R0,??ChangeStatusImage_1  ;; MINSIZE
        SUB      SP,SP,#+256
        CFI CFA R13+280
        LDR      R0,[R0, #+0]
        LDR      R1,[R8, #+0]
//  547   if (SIZE > MAXSIZE) SIZE = MAXSIZE;
//  548 
//  549   Pets[indx].img_size = SmileSize * SIZE / 100;
//  550 
//  551   // —татусные картинки
//  552   StatusPet->ImageStatus=SMILE_ICN;
        MOV      R9,#+0
        ADD      R1,R1,R0
        LDR      R0,??ChangeStatusImage_1+0x4  ;; MAXSIZE
        LDR      R0,[R0, #+0]
        CMP      R0,R1
        MOVCC    R1,R0
        LDR      R0,??DataTable23  ;; img_names
        LDR      R2,[R0, #+76]
        MUL      R2,R1,R2
        LDR      R1,??ChangeStatusImage_1+0x8  ;; 0x51eb851f
        SMULL    R3,R6,R1,R2
//  553   if (StatusPet->needFriend) StatusPet->ImageStatus=SINGLE_ICN;
//  554   if (StatusPet->haveFriend == 1) StatusPet->ImageStatus=INLOVE_ICN;
//  555   if (StatusPet->Behaviour < StatusPet->MaxBehaviour/3) StatusPet->ImageStatus=BEHAVIOUR_ICN;
        LDR      R3,??DataTable24  ;; 0x55555556
        ASR      R6,R6,#+5
        ADD      R1,R6,R2, LSR #+31
        STR      R1,[R8, #+252]
        STR      R9,[R8, #+60]
        LDR      R1,[R8, #+204]
        CMP      R1,#+0
        MOVNE    R1,#+9
        STRNE    R1,[R8, #+60]
        LDR      R1,[R8, #+208]
        CMP      R1,#+1
        MOVEQ    R1,#+10
        STREQ    R1,[R8, #+60]
        LDR      R2,[R8, #+52]
        LDR      R1,[R8, #+48]
        SMULL    R6,R7,R3,R2
        ADD      R2,R7,R2, LSR #+31
        CMP      R1,R2
        MOVLT    R1,#+8
        STRLT    R1,[R8, #+60]
//  556   if (StatusPet->Boredom   > StatusPet->MaxBoredom/2)   StatusPet->ImageStatus=BOREDOM_ICN;
        LDR      R1,[R8, #+44]
        LDR      R2,[R8, #+40]
        ADD      R1,R1,R1, LSR #+31
        CMP      R2,R1, ASR #+1
        MOVGT    R1,#+7
        STRGT    R1,[R8, #+60]
//  557   if (StatusPet->Dirtiness > StatusPet->MaxDirtiness/2) StatusPet->ImageStatus=DIRTINESS_ICN;
        LDR      R1,[R8, #+36]
        LDR      R2,[R8, #+32]
        ADD      R1,R1,R1, LSR #+31
        CMP      R2,R1, ASR #+1
        MOVGT    R1,#+6
        STRGT    R1,[R8, #+60]
//  558   if (StatusPet->Hunger    > StatusPet->MaxHunger/2)    StatusPet->ImageStatus=HUNGER_ICN;
        LDR      R1,[R8, #+20]
        LDR      R2,[R8, #+16]
        ADD      R1,R1,R1, LSR #+31
        CMP      R2,R1, ASR #+1
        MOVGT    R1,#+3
        STRGT    R1,[R8, #+60]
//  559   if (StatusPet->Health    < StatusPet->MaxHealth/2)    StatusPet->ImageStatus=HEALTH_ICN;
        LDR      R1,[R8, #+12]
        LDR      R2,[R8, #+8]
        ADD      R1,R1,R1, LSR #+31
        CMP      R2,R1, ASR #+1
        MOVLT    R1,#+4
        STRLT    R1,[R8, #+60]
//  560   if (StatusPet->Happiness < StatusPet->MaxHappiness/2) StatusPet->ImageStatus=HAPPINESS_ICN;
        LDR      R1,[R8, #+28]
        LDR      R2,[R8, #+24]
        ADD      R1,R1,R1, LSR #+31
        CMP      R2,R1, ASR #+1
        MOVLT    R1,#+5
        STRLT    R1,[R8, #+60]
//  561 
//  562   if (Pets[indx].Bathe) StatusPet->ImageStatus = BATHE_ICN;
        LDR      R1,[R8, #+228]
        CMP      R1,#+0
        MOVNE    R1,#+11
        STRNE    R1,[R8, #+60]
//  563   // сон
//  564   if (Pets[indx].Sleep != 0) StatusPet->ImageStatus = DREAM_ICN;
        LDR      R1,[R8, #+220]
        CMP      R1,#+0
        MOVNE    R1,#+2
        STRNE    R1,[R8, #+60]
//  565   if (StatusPet->StatusDeath == 1) StatusPet->ImageStatus = DEATH_ICN;
        LDR      R1,[R8, #+56]
        CMP      R1,#+1
        STREQ    R1,[R8, #+60]
//  566 
//  567   if (Pets[indx].old_simg_status != Pets[indx].simg_status)
        LDR      R1,[R8, #+248]
        LDR      R2,[R8, #+244]
        CMP      R2,R1
        BEQ      ??ChangeStatusImage_2
//  568   {
//  569     Pets[indx].StatImg = &img_status[Pets[indx].simg_status];
        ADD      R1,R0,R1, LSL #+1
        ADD      R1,R1,#+24
        STR      R1,[R8, #+236]
//  570     Pets[indx].old_simg_status = Pets[indx].simg_status;
        LDR      R1,[R8, #+248]
        STR      R1,[R8, #+244]
//  571   }
//  572 
//  573   if (Pets[indx].old_img_status != StatusPet->ImageStatus)
??ChangeStatusImage_2:
        LDR      R1,[R8, #+60]
        LDR      R2,[R8, #+240]
        CMP      R2,R1
        BEQ      ??ChangeStatusImage_3
//  574   {
//  575     Pets[indx].Smile = &img_names[StatusPet->ImageStatus];
        ADD      R0,R0,R1, LSL #+1
        STR      R0,[R8, #+232]
//  576     start_vibra();
        BL       ??start_vibra
//  577     Light();
        BL       ??Light
//  578     Pets[indx].old_img_status = StatusPet->ImageStatus;
        LDR      R0,[R8, #+60]
        STR      R0,[R8, #+240]
//  579   }
//  580 
//  581   if(StatusPet->StatusDeath == 1) return;
??ChangeStatusImage_3:
        LDR      R0,[R8, #+56]
        CMP      R0,#+1
        BEQ      ??ChangeStatusImage_4
//  582 
//  583   const wchar_t *sound_name = 0;
//  584   wchar_t  sound_path[128];
//  585   getdir(sound_path,SOUND_PATH);
        LDR      R1,??DataTable57  ;; SOUND_PATH
//  586 
//  587   if (StatusPet->Dirtiness >= (StatusPet->MaxDirtiness - 10))
        LDR      R6,??DataTable58  ;; SpeakMessage
        MOV      R0,SP
        _BLF     ??getdir,??getdir??rA
        LDR      R0,[R8, #+32]
        LDR      R1,[R8, #+36]
        MOV      R7,#+255
        ORR      R7,R7,#0xFF00
        SUB      R1,R1,#+10
        CMP      R0,R1
        BLT      ??ChangeStatusImage_5
//  588   {
//  589     MessageBox(TextID_Create(Pets[indx].Status.name,ENC_UCS2,TEXTID_ANY_LEN), TextID_Create(LG_MSGDIRTINESS,ENC_UCS2,TEXTID_ANY_LEN), NOIMAGE, 1, 5000*msgShowTime, 0);
        MOV      R2,R7
        MOV      R1,#+0
        ADD      R0,R6,#+236
        SWI      +349
        MOV      R9,R0
        MOV      R2,R7
        MOV      R1,#+0
        ADD      R0,R8,#+64
        SWI      +349
        MOV      R1,#+0
        PUSH     {R1}
        CFI CFA R13+284
        LDR      R1,??DataTable62  ;; msgShowTime
        MOV      R2,#+136
        LDR      R1,[R1, #+0]
        ORR      R2,R2,#0x1300
        MUL      R1,R2,R1
        MOV      R3,#+1
        PUSH     {R1}
        CFI CFA R13+288
        MOV      R2,R7
        MOV      R1,R9
        SWI      +599
//  590     sound_name = SoundName[OHDEER_SND];
        MOV      R0,#+148
        ORR      R0,R0,#0x600
        ADD      R9,R0,R6
        ADD      SP,SP,#+8
        CFI CFA R13+280
//  591   }
//  592   if (StatusPet->Boredom >= (StatusPet->MaxBoredom - 10))
??ChangeStatusImage_5:
        LDR      R0,[R8, #+40]
        LDR      R1,[R8, #+44]
        SUB      R1,R1,#+10
        CMP      R0,R1
        BLT      ??ChangeStatusImage_6
//  593   {
//  594     MessageBox(TextID_Create(Pets[indx].Status.name,ENC_UCS2,TEXTID_ANY_LEN), TextID_Create(LG_MSGBOREDOM,ENC_UCS2,TEXTID_ANY_LEN), NOIMAGE, 1, 5000*msgShowTime, 0);
        MOV      R2,R7
        MOV      R1,#+0
        ADD      R0,R6,#+312
        SWI      +349
        MOV      R9,R0
        MOV      R2,R7
        MOV      R1,#+0
        ADD      R0,R8,#+64
        SWI      +349
        MOV      R1,#+0
        PUSH     {R1}
        CFI CFA R13+284
        LDR      R1,??DataTable62  ;; msgShowTime
        MOV      R2,#+136
        LDR      R1,[R1, #+0]
        ORR      R2,R2,#0x1300
        MUL      R1,R2,R1
        MOV      R3,#+1
        PUSH     {R1}
        CFI CFA R13+288
        MOV      R2,R7
        MOV      R1,R9
        SWI      +599
//  595     sound_name = SoundName[BORING_SND];
        MOV      R0,#+8
        ORR      R0,R0,#0x600
        ADD      R9,R0,R6
        ADD      SP,SP,#+8
        CFI CFA R13+280
//  596   }
//  597   if (StatusPet->Hunger >= (StatusPet->MaxHunger - 10))
??ChangeStatusImage_6:
        LDR      R0,[R8, #+16]
        LDR      R1,[R8, #+20]
        SUB      R1,R1,#+10
        CMP      R0,R1
        BLT      ??ChangeStatusImage_7
//  598   {
//  599     MessageBox(TextID_Create(Pets[indx].Status.name,ENC_UCS2,TEXTID_ANY_LEN), TextID_Create(LG_MSGHUNGER,ENC_UCS2,TEXTID_ANY_LEN), NOIMAGE, 1, 5000*msgShowTime, 0);
        MOV      R2,R7
        MOV      R1,#+0
        ADD      R0,R6,#+348
        SWI      +349
        MOV      R9,R0
        MOV      R2,R7
        MOV      R1,#+0
        ADD      R0,R8,#+64
        SWI      +349
        MOV      R1,#+0
        PUSH     {R1}
        CFI CFA R13+284
        LDR      R1,??DataTable62  ;; msgShowTime
        MOV      R2,#+136
        LDR      R1,[R1, #+0]
        ORR      R2,R2,#0x1300
        MUL      R1,R2,R1
        MOV      R3,#+1
        PUSH     {R1}
        CFI CFA R13+288
        MOV      R2,R7
        MOV      R1,R9
        SWI      +599
//  600     sound_name = SoundName[ILLGETYOU_SND];
        MOV      R0,#+236
        ORR      R0,R0,#0x500
        ADD      R9,R0,R6
        ADD      SP,SP,#+8
        CFI CFA R13+280
//  601   }
//  602   if (StatusPet->Health <= 10)
??ChangeStatusImage_7:
        LDR      R0,[R8, #+8]
        CMP      R0,#+11
        BGE      ??ChangeStatusImage_8
//  603   {
//  604     MessageBox(TextID_Create(Pets[indx].Status.name,ENC_UCS2,TEXTID_ANY_LEN), TextID_Create(LG_MSGHEALTH,ENC_UCS2,TEXTID_ANY_LEN), NOIMAGE, 1, 5000*msgShowTime, 0);
        MOV      R2,R7
        MOV      R1,#+0
        ADD      R0,R6,#+408
        SWI      +349
        MOV      R9,R0
        MOV      R2,R7
        MOV      R1,#+0
        ADD      R0,R8,#+64
        SWI      +349
        MOV      R1,#+0
        PUSH     {R1}
        CFI CFA R13+284
        LDR      R1,??DataTable62  ;; msgShowTime
        MOV      R2,#+136
        LDR      R1,[R1, #+0]
        ORR      R2,R2,#0x1300
        MUL      R1,R2,R1
        MOV      R3,#+1
        PUSH     {R1}
        CFI CFA R13+288
        MOV      R2,R7
        MOV      R1,R9
        SWI      +599
//  605     sound_name = SoundName[COMEON_SND];
        MOV      R0,#+212
        ORR      R0,R0,#0x500
        ADD      R9,R0,R6
        ADD      SP,SP,#+8
        CFI CFA R13+280
//  606   }
//  607   if (StatusPet->Happiness <= 10)
??ChangeStatusImage_8:
        LDR      R0,[R8, #+24]
        CMP      R0,#+11
//  608     sound_name = SoundName[NOOO_SND];
        ADDLT    R9,R6,#+1664
//  609 
//  610   if(sound_name && snd) PlayFileV(sound_path, sound_name, sndVolume);
        CMP      R9,#+0
        CMPNE    R4,#+0
        BEQ      ??ChangeStatusImage_4
        LDR      R0,??DataTable60  ;; sndVolume
        MOV      R1,R9
        LDR      R2,[R0, #+0]
        MOV      R0,SP
        SWI      +586
??ChangeStatusImage_4:
        ADD      SP,SP,#+256      ;; stack cleaning
        CFI CFA R13+24
        POP      {R4,R6-R9,PC}
        DATA
??ChangeStatusImage_1:
        DC32     MINSIZE
        DC32     MAXSIZE
        DC32     0x51eb851f
        CFI EndBlock cfiBlock42
//  611 }

        RSEG CODE:CODE:NOROOT(2)
        DATA
??DataTable23:
        DC32     img_names

        RSEG CODE:CODE:NOROOT(2)
        DATA
??DataTable24:
        DC32     0x55555556

        RSEG CODE:CODE:NOROOT(2)
        CFI Block cfiBlock43 Using cfiCommon1
        CFI NoFunction
        THUMB
??VerifyStatus??rT:
        BX       PC
        Nop      
        CFI EndBlock cfiBlock43
        REQUIRE ??VerifyStatus
//  612 
//  613 // ----------------------------------------------------------------------------

        RSEG CODE:CODE:NOROOT(2)
        CFI Block cfiBlock44 Using cfiCommon0
        CFI Function ??VerifyStatus
        ARM
//  614 void VerifyStatus(int indx)
//  615 {
//  616   TStatusPet *StatusPet = &Pets[indx].Status;
??VerifyStatus:
        LDR      R2,??DataTable47  ;; Pets
        MOV      R1,#+272
        MLA      R0,R1,R0,R2
//  617 // проверки максимальных - минимальных значений
//  618   if (StatusPet->Hunger > StatusPet->MaxHunger) StatusPet->Hunger = StatusPet->MaxHunger;
        LDR      R2,[R0, #+20]
        LDR      R3,[R0, #+16]
        CMP      R2,R3
        STRLT    R2,[R0, #+16]
//  619   if (StatusPet->Hunger < 0) StatusPet->Hunger = 0;
        LDR      R3,[R0, #+16]
        MOV      R2,#+0
        CMP      R3,#+0
        STRMI    R2,[R0, #+16]
//  620   if (StatusPet->Happiness > StatusPet->MaxHappiness) StatusPet->Happiness = StatusPet->MaxHappiness;
        LDR      R3,[R0, #+28]
        LDR      R12,[R0, #+24]
        CMP      R3,R12
        STRLT    R3,[R0, #+24]
//  621   if (StatusPet->Happiness < 0) StatusPet->Happiness = 0;
        LDR      R3,[R0, #+24]
        CMP      R3,#+0
        STRMI    R2,[R0, #+24]
//  622   if (StatusPet->Health > StatusPet->MaxHealth) StatusPet->Health = StatusPet->MaxHealth;
        LDR      R3,[R0, #+12]
        LDR      R12,[R0, #+8]
        CMP      R3,R12
        STRLT    R3,[R0, #+8]
//  623   if (StatusPet->Health < 0) StatusPet->Health = 0;
        LDR      R3,[R0, #+8]
        CMP      R3,#+0
        STRMI    R2,[R0, #+8]
//  624   if (StatusPet->Dirtiness > StatusPet->MaxDirtiness) StatusPet->Dirtiness = StatusPet->MaxDirtiness;
        LDR      R3,[R0, #+36]
        LDR      R12,[R0, #+32]
        CMP      R3,R12
        STRLT    R3,[R0, #+32]
//  625   if (StatusPet->Dirtiness < 0) StatusPet->Dirtiness = 0;
        LDR      R3,[R0, #+32]
        CMP      R3,#+0
        STRMI    R2,[R0, #+32]
//  626   if (StatusPet->Boredom > StatusPet->MaxBoredom) StatusPet->Boredom = StatusPet->MaxBoredom;
        LDR      R3,[R0, #+44]
        LDR      R12,[R0, #+40]
        CMP      R3,R12
        STRLT    R3,[R0, #+40]
//  627   if (StatusPet->Boredom < 0) StatusPet->Boredom = 0;
        LDR      R3,[R0, #+40]
        CMP      R3,#+0
        STRMI    R2,[R0, #+40]
//  628   if (StatusPet->Behaviour > StatusPet->MaxBehaviour) StatusPet->Behaviour = StatusPet->MaxBehaviour;
        LDR      R3,[R0, #+52]
        LDR      R12,[R0, #+48]
        CMP      R3,R12
        STRLT    R3,[R0, #+48]
//  629   if (StatusPet->Behaviour < 0) StatusPet->Behaviour = 0;
        LDR      R3,[R0, #+48]
        CMP      R3,#+0
        STRMI    R2,[R0, #+48]
//  630   if (Pets[indx].Fatigue > 100) Pets[indx].Fatigue = 100;
        LDR      R1,[R0, #+216]
        CMP      R1,#+101
        MOVGE    R1,#+100
        STRGE    R1,[R0, #+216]
        BXGE     LR
//  631   if (Pets[indx].Fatigue < 0) Pets[indx].Fatigue=0;
        CMP      R1,#+0
        STRMI    R2,[R0, #+216]
//  632 }
        BX       LR               ;; return
        CFI EndBlock cfiBlock44

        RSEG CODE:CODE:NOROOT(2)
        CFI Block cfiBlock45 Using cfiCommon1
        CFI NoFunction
        THUMB
??InfoStatus??rT:
        BX       PC
        Nop      
        CFI EndBlock cfiBlock45
        REQUIRE ??InfoStatus
//  633 // ---------------------------------------------------------------------------
//  634 

        RSEG CODE:CODE:NOROOT(2)
        CFI Block cfiBlock46 Using cfiCommon0
        CFI Function ??InfoStatus
        ARM
//  635 void InfoStatus(int indx, BOOK * book, int)
//  636 {
??InfoStatus:
        MOV      R0,R1
//  637   ShowStatus(book);
        _BF      ??ShowStatus,??ShowStatus??rA  ;; tailcall
        CFI EndBlock cfiBlock46
//  638 }

        RSEG CODE:CODE:NOROOT(2)
        CFI Block cfiBlock47 Using cfiCommon1
        CFI NoFunction
        THUMB
??GamePlay??rT:
        BX       PC
        Nop      
        CFI EndBlock cfiBlock47
        REQUIRE ??GamePlay
//  639 // ----------------------------------------------------------------------------

        RSEG CODE:CODE:NOROOT(2)
        CFI Block cfiBlock48 Using cfiCommon0
        CFI Function ??GamePlay
        ARM
//  640 void GamePlay(int indx, BOOK * bk, int snd)
//  641 {
??GamePlay:
        PUSH     {R4-R9,LR}
        CFI ?RET Frame(CFA, -4)
        CFI R9 Frame(CFA, -8)
        CFI R8 Frame(CFA, -12)
        CFI R7 Frame(CFA, -16)
        CFI R6 Frame(CFA, -20)
        CFI R5 Frame(CFA, -24)
        CFI R4 Frame(CFA, -28)
        CFI CFA R13+28
        SUB      SP,SP,#+256
        CFI CFA R13+284
        MOV      R6,R0
        MOV      R7,R1
//  642   wchar_t  sound_path[128];
//  643   getdir(sound_path,SOUND_PATH);
        LDR      R1,??DataTable57  ;; SOUND_PATH
        MOV      R8,R2
//  644 
//  645   if(Pets[indx].Status.StatusDeath == 1)
        LDR      R9,??DataTable58  ;; SpeakMessage
        MOV      R0,SP
        _BLF     ??getdir,??getdir??rA
        LDR      R1,??DataTable47  ;; Pets
        MOV      R0,#+272
        MLA      R5,R0,R6,R1
        LDR      R0,??DataTable60  ;; sndVolume
        MOV      R4,#+255
        LDR      R2,[R0, #+0]
        LDR      R0,[R5, #+56]
        ORR      R4,R4,#0xFF00
        CMP      R0,#+1
        BNE      ??GamePlay_1
//  646   {
//  647     if(snd) PlayFileV(sound_path, SoundName[FATALITY_SND], sndVolume);
        CMP      R8,#+0
        BEQ      ??GamePlay_2
        MOV      R0,#+56
        ORR      R0,R0,#0x600
        ADD      R1,R0,R9
        MOV      R0,SP
        SWI      +586
//  648     MessageBox(TextID_Create(Pets[indx].Status.name,ENC_UCS2,TEXTID_ANY_LEN), TextID_Create(LG_IAMDIE,ENC_UCS2,TEXTID_ANY_LEN), NOIMAGE, 1, 5000*msgShowTime, 0);
??GamePlay_2:
        MOV      R2,R4
        MOV      R1,#+0
        ADD      R0,R9,#+460
        B        ??GamePlay_3
//  649     return;
//  650   }
//  651 
//  652   if(Pets[indx].Sleep != 0)
??GamePlay_1:
        LDR      R0,[R5, #+220]
        CMP      R0,#+0
        BEQ      ??GamePlay_4
//  653   {
//  654     if(snd) PlayFileV(sound_path, SoundName[LEAVEME_SND], sndVolume);
        CMP      R8,#+0
        BEQ      ??GamePlay_5
        MOV      R0,#+104
        ORR      R0,R0,#0x600
        ADD      R1,R0,R9
        MOV      R0,SP
        SWI      +586
//  655     MessageBox(TextID_Create(Pets[indx].Status.name,ENC_UCS2,TEXTID_ANY_LEN), TextID_Create(LG_IAMSLEEP,ENC_UCS2,TEXTID_ANY_LEN), NOIMAGE, 1, 5000*msgShowTime, 0);
??GamePlay_5:
        MOV      R2,R4
        MOV      R1,#+0
        ADD      R0,R9,#+492
??GamePlay_3:
        SWI      +349
        MOV      R6,R0
        MOV      R2,R4
        MOV      R1,#+0
        ADD      R0,R5,#+64
        SWI      +349
        MOV      R1,#+0
        PUSH     {R1}
        CFI CFA R13+288
        LDR      R1,??DataTable62  ;; msgShowTime
        MOV      R2,#+136
        LDR      R1,[R1, #+0]
        ORR      R2,R2,#0x1300
        MUL      R1,R2,R1
        MOV      R3,#+1
        PUSH     {R1}
        CFI CFA R13+292
        MOV      R2,R4
        MOV      R1,R6
        SWI      +599
//  656     return;
        ADD      SP,SP,#+8
        CFI CFA R13+284
        ADD      SP,SP,#+256
        CFI CFA R13+28
        POP      {R4-R9,PC}
        CFI CFA R13+284
//  657   }
//  658 
//  659   Pets[indx].Status.Happiness += 10;
??GamePlay_4:
        LDR      R0,[R5, #+24]
//  660   Pets[indx].Status.Boredom   -= 10;
//  661   Pets[indx].Status.Hunger    += 10;
//  662   Pets[indx].Fatigue                 += 10;
//  663   if(snd) PlayFileV(sound_path, SoundName[LAUGH_SND], sndVolume);
        CMP      R8,#+0
        ADD      R0,R0,#+10
        STR      R0,[R5, #+24]
        LDR      R0,[R5, #+40]
        SUB      R0,R0,#+10
        STR      R0,[R5, #+40]
        LDR      R0,[R5, #+16]
        ADD      R0,R0,#+10
        STR      R0,[R5, #+16]
        LDR      R0,[R5, #+216]
        ADD      R0,R0,#+10
        STR      R0,[R5, #+216]
        BEQ      ??GamePlay_6
        MOV      R0,#+84
        ORR      R0,R0,#0x600
        ADD      R1,R0,R9
        MOV      R0,SP
        SWI      +586
//  664   MessageBox(TextID_Create(Pets[indx].Status.name,ENC_UCS2,TEXTID_ANY_LEN), TextID_Create(LG_COOL,ENC_UCS2,TEXTID_ANY_LEN), NOIMAGE, 1, 5000*msgShowTime, 0);
??GamePlay_6:
        MOV      R2,R4
        MOV      R1,#+0
        ADD      R0,R9,#+532
        SWI      +349
        MOV      R9,R0
        MOV      R2,R4
        MOV      R1,#+0
        ADD      R0,R5,#+64
        SWI      +349
        MOV      R1,#+0
        PUSH     {R1}
        CFI CFA R13+288
        LDR      R1,??DataTable62  ;; msgShowTime
        MOV      R2,#+136
        LDR      R1,[R1, #+0]
        ORR      R2,R2,#0x1300
        MUL      R1,R2,R1
        MOV      R3,#+1
        PUSH     {R1}
        CFI CFA R13+292
        MOV      R2,R4
        MOV      R1,R9
        SWI      +599
//  665   ChangeStatusImage(indx, bk, snd);
        MOV      R2,R8
        MOV      R1,R7
        MOV      R0,R6
        BL       ??ChangeStatusImage
//  666   VerifyStatus(indx);
        MOV      R0,R6
        BL       ??VerifyStatus
//  667 }
        ADD      SP,SP,#+8
        CFI CFA R13+284
        ADD      SP,SP,#+256
        CFI CFA R13+28
        POP      {R4-R9,PC}       ;; return
        CFI EndBlock cfiBlock48

        RSEG CODE:CODE:NOROOT(2)
        CFI Block cfiBlock49 Using cfiCommon1
        CFI NoFunction
        THUMB
??Vaccinate??rT:
        BX       PC
        Nop      
        CFI EndBlock cfiBlock49
        REQUIRE ??Vaccinate
//  668 // ----------------------------------------------------------------------------

        RSEG CODE:CODE:NOROOT(2)
        CFI Block cfiBlock50 Using cfiCommon0
        CFI Function ??Vaccinate
        ARM
//  669 void Vaccinate(int indx, BOOK * bk, int snd)
//  670 {
??Vaccinate:
        PUSH     {R4-R9,LR}
        CFI ?RET Frame(CFA, -4)
        CFI R9 Frame(CFA, -8)
        CFI R8 Frame(CFA, -12)
        CFI R7 Frame(CFA, -16)
        CFI R6 Frame(CFA, -20)
        CFI R5 Frame(CFA, -24)
        CFI R4 Frame(CFA, -28)
        CFI CFA R13+28
        SUB      SP,SP,#+256
        CFI CFA R13+284
        MOV      R6,R0
        MOV      R7,R1
//  671   wchar_t  sound_path[128];
//  672   getdir(sound_path,SOUND_PATH);
        LDR      R1,??DataTable57  ;; SOUND_PATH
        MOV      R8,R2
//  673 
//  674   if (Pets[indx].Status.StatusDeath == 1)
        LDR      R9,??DataTable58  ;; SpeakMessage
        MOV      R0,SP
        _BLF     ??getdir,??getdir??rA
        LDR      R1,??DataTable47  ;; Pets
        MOV      R0,#+272
        MLA      R5,R0,R6,R1
        LDR      R0,??DataTable60  ;; sndVolume
        MOV      R4,#+255
        LDR      R2,[R0, #+0]
        LDR      R0,[R5, #+56]
        ORR      R4,R4,#0xFF00
        CMP      R0,#+1
        BNE      ??Vaccinate_1
//  675   {
//  676     if(snd) PlayFileV(sound_path, SoundName[FATALITY_SND], sndVolume);
        CMP      R8,#+0
        BEQ      ??Vaccinate_2
        MOV      R0,#+56
        ORR      R0,R0,#0x600
        ADD      R1,R0,R9
        MOV      R0,SP
        SWI      +586
//  677     MessageBox(TextID_Create(Pets[indx].Status.name,ENC_UCS2,TEXTID_ANY_LEN), TextID_Create(LG_IAMDIE,ENC_UCS2,TEXTID_ANY_LEN), NOIMAGE, 1, 5000*msgShowTime, 0);
??Vaccinate_2:
        MOV      R2,R4
        MOV      R1,#+0
        ADD      R0,R9,#+460
        B        ??Vaccinate_3
//  678     return;
//  679   }
//  680   if (Pets[indx].Sleep != 0)
??Vaccinate_1:
        LDR      R1,[R5, #+220]
        MOV      R0,#+104
        ORR      R0,R0,#0x600
        CMP      R1,#+0
        BEQ      ??Vaccinate_4
//  681   {
//  682     if(snd) PlayFileV(sound_path, SoundName[LEAVEME_SND], sndVolume);
        CMP      R8,#+0
        BEQ      ??Vaccinate_5
        ADD      R1,R0,R9
        MOV      R0,SP
        SWI      +586
//  683     MessageBox(TextID_Create(Pets[indx].Status.name,ENC_UCS2,TEXTID_ANY_LEN), TextID_Create(LG_IAMSLEEP,ENC_UCS2,TEXTID_ANY_LEN), NOIMAGE, 1, 5000*msgShowTime, 0);
??Vaccinate_5:
        MOV      R2,R4
        MOV      R1,#+0
        ADD      R0,R9,#+492
??Vaccinate_3:
        SWI      +349
        MOV      R6,R0
        MOV      R2,R4
        MOV      R1,#+0
        ADD      R0,R5,#+64
        SWI      +349
        MOV      R1,#+0
        PUSH     {R1}
        CFI CFA R13+288
        LDR      R1,??DataTable62  ;; msgShowTime
        MOV      R2,#+136
        LDR      R1,[R1, #+0]
        ORR      R2,R2,#0x1300
        MUL      R1,R2,R1
        MOV      R3,#+1
        PUSH     {R1}
        CFI CFA R13+292
        MOV      R2,R4
        MOV      R1,R6
        SWI      +599
//  684     return;
        ADD      SP,SP,#+8
        CFI CFA R13+284
        ADD      SP,SP,#+256
        CFI CFA R13+28
        POP      {R4-R9,PC}
        CFI CFA R13+284
//  685   }
//  686   if (Pets[indx].Status.Behaviour < Pets[indx].Status.MaxBehaviour/4)
??Vaccinate_4:
        LDR      R1,[R5, #+52]
        LDR      R3,[R5, #+48]
        ASR      R12,R1,#+1
        ADD      R1,R1,R12, LSR #+30
        CMP      R3,R1, ASR #+2
        BGE      ??Vaccinate_6
//  687   {
//  688     if(snd) PlayFileV(sound_path, SoundName[LEAVEME_SND], sndVolume);
        CMP      R8,#+0
        BEQ      ??Vaccinate_7
        ADD      R1,R0,R9
        MOV      R0,SP
        SWI      +586
//  689     MessageBox(TextID_Create(Pets[indx].Status.name,ENC_UCS2,TEXTID_ANY_LEN), TextID_Create(LG_DONTDISTURB,ENC_UCS2,TEXTID_ANY_LEN), NOIMAGE, 1, 5000*msgShowTime, 0);
??Vaccinate_7:
        MOV      R2,R4
        MOV      R1,#+0
        ADD      R0,R9,#+560
        B        ??Vaccinate_3
//  690     return;
//  691   }
//  692 
//  693   Pets[indx].Status.Happiness -= 10;
??Vaccinate_6:
        LDR      R0,[R5, #+24]
//  694   Pets[indx].Status.Health    += 10;
//  695   Pets[indx].Status.Boredom   -= 10;
//  696 
//  697   if(snd) PlayFileV(sound_path, SoundName[OUCH_SND], sndVolume);
        CMP      R8,#+0
        SUB      R0,R0,#+10
        STR      R0,[R5, #+24]
        LDR      R0,[R5, #+8]
        ADD      R0,R0,#+10
        STR      R0,[R5, #+8]
        LDR      R0,[R5, #+40]
        SUB      R0,R0,#+10
        STR      R0,[R5, #+40]
        BEQ      ??Vaccinate_8
        ADD      R1,R9,#+1728
        MOV      R0,SP
        SWI      +586
//  698   MessageBox(TextID_Create(Pets[indx].Status.name,ENC_UCS2,TEXTID_ANY_LEN), TextID_Create(LG_PAIN,ENC_UCS2,TEXTID_ANY_LEN), NOIMAGE, 1, 5000*msgShowTime, 0);
??Vaccinate_8:
        MOV      R2,R4
        MOV      R1,#+0
        ADD      R0,R9,#+612
        SWI      +349
        MOV      R9,R0
        MOV      R2,R4
        MOV      R1,#+0
        ADD      R0,R5,#+64
        SWI      +349
        MOV      R1,#+0
        PUSH     {R1}
        CFI CFA R13+288
        LDR      R1,??DataTable62  ;; msgShowTime
        MOV      R2,#+136
        LDR      R1,[R1, #+0]
        ORR      R2,R2,#0x1300
        MUL      R1,R2,R1
        MOV      R3,#+1
        PUSH     {R1}
        CFI CFA R13+292
        MOV      R2,R4
        MOV      R1,R9
        SWI      +599
//  699   ChangeStatusImage(indx, bk, snd);
        MOV      R2,R8
        MOV      R1,R7
        MOV      R0,R6
        BL       ??ChangeStatusImage
//  700   VerifyStatus(indx);
        MOV      R0,R6
        BL       ??VerifyStatus
//  701 }
        ADD      SP,SP,#+8
        CFI CFA R13+284
        ADD      SP,SP,#+256
        CFI CFA R13+28
        POP      {R4-R9,PC}       ;; return
        CFI EndBlock cfiBlock50

        RSEG CODE:CODE:NOROOT(2)
        CFI Block cfiBlock51 Using cfiCommon1
        CFI NoFunction
        THUMB
??Discipline??rT:
        BX       PC
        Nop      
        CFI EndBlock cfiBlock51
        REQUIRE ??Discipline
//  702 // ----------------------------------------------------------------------------

        RSEG CODE:CODE:NOROOT(2)
        CFI Block cfiBlock52 Using cfiCommon0
        CFI Function ??Discipline
        ARM
//  703 void Discipline(int indx, BOOK * bk, int snd)
//  704 {
??Discipline:
        PUSH     {R4-R9,LR}
        CFI ?RET Frame(CFA, -4)
        CFI R9 Frame(CFA, -8)
        CFI R8 Frame(CFA, -12)
        CFI R7 Frame(CFA, -16)
        CFI R6 Frame(CFA, -20)
        CFI R5 Frame(CFA, -24)
        CFI R4 Frame(CFA, -28)
        CFI CFA R13+28
        SUB      SP,SP,#+256
        CFI CFA R13+284
        MOV      R6,R0
        MOV      R7,R1
//  705   wchar_t  sound_path[128];
//  706   getdir(sound_path,SOUND_PATH);
        LDR      R1,??DataTable57  ;; SOUND_PATH
        MOV      R8,R2
//  707 
//  708   if (Pets[indx].Status.StatusDeath == 1)
        LDR      R9,??DataTable58  ;; SpeakMessage
        MOV      R0,SP
        _BLF     ??getdir,??getdir??rA
        LDR      R1,??DataTable47  ;; Pets
        MOV      R0,#+272
        MLA      R5,R0,R6,R1
        LDR      R0,??DataTable60  ;; sndVolume
        MOV      R4,#+255
        LDR      R2,[R0, #+0]
        LDR      R0,[R5, #+56]
        ORR      R4,R4,#0xFF00
        CMP      R0,#+1
        BNE      ??Discipline_1
//  709   {
//  710     if(snd) PlayFileV(sound_path, SoundName[FATALITY_SND], sndVolume);
        CMP      R8,#+0
        BEQ      ??Discipline_2
        MOV      R0,#+56
        ORR      R0,R0,#0x600
        ADD      R1,R0,R9
        MOV      R0,SP
        SWI      +586
//  711     MessageBox(TextID_Create(Pets[indx].Status.name,ENC_UCS2,TEXTID_ANY_LEN), TextID_Create(LG_IAMDIE,ENC_UCS2,TEXTID_ANY_LEN), NOIMAGE, 1, 5000*msgShowTime, 0);
??Discipline_2:
        MOV      R2,R4
        MOV      R1,#+0
        ADD      R0,R9,#+460
        B        ??Discipline_3
//  712     return;
//  713   }
//  714   if (Pets[indx].Sleep != 0)
??Discipline_1:
        LDR      R0,[R5, #+220]
        CMP      R0,#+0
        BEQ      ??Discipline_4
//  715   {
//  716     if(snd) PlayFileV(sound_path, SoundName[LEAVEME_SND], sndVolume);
        CMP      R8,#+0
        BEQ      ??Discipline_5
        MOV      R0,#+104
        ORR      R0,R0,#0x600
        ADD      R1,R0,R9
        MOV      R0,SP
        SWI      +586
//  717     MessageBox(TextID_Create(Pets[indx].Status.name,ENC_UCS2,TEXTID_ANY_LEN), TextID_Create(LG_IAMSLEEP,ENC_UCS2,TEXTID_ANY_LEN), NOIMAGE, 1, 5000*msgShowTime, 0);
??Discipline_5:
        MOV      R2,R4
        MOV      R1,#+0
        ADD      R0,R9,#+492
??Discipline_3:
        SWI      +349
        MOV      R6,R0
        MOV      R2,R4
        MOV      R1,#+0
        ADD      R0,R5,#+64
        SWI      +349
        MOV      R1,#+0
        PUSH     {R1}
        CFI CFA R13+288
        LDR      R1,??DataTable62  ;; msgShowTime
        MOV      R2,#+136
        LDR      R1,[R1, #+0]
        ORR      R2,R2,#0x1300
        MUL      R1,R2,R1
        MOV      R3,#+1
        PUSH     {R1}
        CFI CFA R13+292
        MOV      R2,R4
        MOV      R1,R6
        SWI      +599
//  718     return;
        ADD      SP,SP,#+8
        CFI CFA R13+284
        ADD      SP,SP,#+256
        CFI CFA R13+28
        POP      {R4-R9,PC}
        CFI CFA R13+284
//  719   }
//  720 
//  721   Pets[indx].Status.Happiness -= 10;
??Discipline_4:
        LDR      R0,[R5, #+24]
//  722   Pets[indx].Status.Behaviour += 10;
//  723   Pets[indx].Status.Boredom   -= 10;
//  724 
//  725   if(snd) PlayFileV(sound_path, SoundName[YESSIR_SND], sndVolume);
        CMP      R8,#+0
        SUB      R0,R0,#+10
        STR      R0,[R5, #+24]
        LDR      R0,[R5, #+48]
        ADD      R0,R0,#+10
        STR      R0,[R5, #+48]
        LDR      R0,[R5, #+40]
        SUB      R0,R0,#+10
        STR      R0,[R5, #+40]
        BEQ      ??Discipline_6
        MOV      R0,#+228
        ORR      R0,R0,#0x600
        ADD      R1,R0,R9
        MOV      R0,SP
        SWI      +586
//  726   MessageBox(TextID_Create(Pets[indx].Status.name,ENC_UCS2,TEXTID_ANY_LEN), TextID_Create(LG_SHREW,ENC_UCS2,TEXTID_ANY_LEN), NOIMAGE, 1, 5000*msgShowTime, 0);
??Discipline_6:
        MOV      R2,R4
        MOV      R1,#+0
        ADD      R0,R9,#+648
        SWI      +349
        MOV      R9,R0
        MOV      R2,R4
        MOV      R1,#+0
        ADD      R0,R5,#+64
        SWI      +349
        MOV      R1,#+0
        PUSH     {R1}
        CFI CFA R13+288
        LDR      R1,??DataTable62  ;; msgShowTime
        MOV      R2,#+136
        LDR      R1,[R1, #+0]
        ORR      R2,R2,#0x1300
        MUL      R1,R2,R1
        MOV      R3,#+1
        PUSH     {R1}
        CFI CFA R13+292
        MOV      R2,R4
        MOV      R1,R9
        SWI      +599
//  727   ChangeStatusImage(indx, bk, snd);
        MOV      R2,R8
        MOV      R1,R7
        MOV      R0,R6
        BL       ??ChangeStatusImage
//  728   VerifyStatus(indx);
        MOV      R0,R6
        BL       ??VerifyStatus
//  729 }
        ADD      SP,SP,#+8
        CFI CFA R13+284
        ADD      SP,SP,#+256
        CFI CFA R13+28
        POP      {R4-R9,PC}       ;; return
        CFI EndBlock cfiBlock52

        RSEG CODE:CODE:NOROOT(2)
        DATA
??DataTable47:
        DC32     Pets

        RSEG CODE:CODE:NOROOT(2)
        CFI Block cfiBlock53 Using cfiCommon1
        CFI NoFunction
        THUMB
??SleepProc??rT:
        BX       PC
        Nop      
        CFI EndBlock cfiBlock53
        REQUIRE ??SleepProc
//  730 // ----------------------------------------------------------------------------

        RSEG CODE:CODE:NOROOT(2)
        CFI Block cfiBlock54 Using cfiCommon0
        CFI Function ??SleepProc
        ARM
//  731 void SleepProc(int indx, BOOK *bk, int snd, int type)
//  732 {
??SleepProc:
        PUSH     {R4-R10,LR}
        CFI ?RET Frame(CFA, -4)
        CFI R10 Frame(CFA, -8)
        CFI R9 Frame(CFA, -12)
        CFI R8 Frame(CFA, -16)
        CFI R7 Frame(CFA, -20)
        CFI R6 Frame(CFA, -24)
        CFI R5 Frame(CFA, -28)
        CFI R4 Frame(CFA, -32)
        CFI CFA R13+32
        SUB      SP,SP,#+256
        CFI CFA R13+288
        MOV      R5,R0
        MOV      R6,R1
//  733   wchar_t sound_path[128];
//  734   const wchar_t *sound_name0;
//  735   wchar_t *msg0;
//  736   const wchar_t *sound_name1;
//  737   wchar_t *msg1;
//  738   getdir(sound_path,SOUND_PATH);
        LDR      R1,??DataTable57  ;; SOUND_PATH
        MOV      R7,R2
        MOV      R9,R3
//  739 
//  740   if (Pets[indx].Status.StatusDeath==1)
        LDR      R10,??DataTable58  ;; SpeakMessage
        MOV      R0,SP
        _BLF     ??getdir,??getdir??rA
        LDR      R1,??DataTable74  ;; Pets
        MOV      R0,#+272
        MLA      R8,R0,R5,R1
        LDR      R0,??DataTable60  ;; sndVolume
        MOV      R4,#+255
        LDR      R2,[R0, #+0]
        LDR      R0,[R8, #+56]
        ORR      R4,R4,#0xFF00
        CMP      R0,#+1
        BNE      ??SleepProc_1
//  741   {
//  742     if(snd) PlayFileV(sound_path, SoundName[FATALITY_SND], sndVolume);
        CMP      R7,#+0
        BEQ      ??SleepProc_2
        MOV      R0,#+56
        ORR      R0,R0,#0x600
        ADD      R1,R0,R10
        MOV      R0,SP
        SWI      +586
//  743     MessageBox(TextID_Create(Pets[indx].Status.name,ENC_UCS2,TEXTID_ANY_LEN), TextID_Create(LG_IAMDIE,ENC_UCS2,TEXTID_ANY_LEN), NOIMAGE, 1, 5000*msgShowTime, 0);
??SleepProc_2:
        MOV      R2,R4
        MOV      R1,#+0
        ADD      R0,R10,#+460
??SleepProc_3:
        B        ??SleepProc_4
//  744     return;
//  745   }
//  746 
//  747   if (Pets[indx].Status.Behaviour < Pets[indx].Status.MaxBehaviour/4)
??SleepProc_1:
        LDR      R0,[R8, #+52]
        LDR      R1,[R8, #+48]
        ASR      R3,R0,#+1
        ADD      R0,R0,R3, LSR #+30
        CMP      R1,R0, ASR #+2
        BGE      ??SleepProc_5
//  748   {
//  749     if(snd) PlayFileV(sound_path, SoundName[LEAVEME_SND], sndVolume);
        CMP      R7,#+0
        BEQ      ??SleepProc_6
        MOV      R0,#+104
        ORR      R0,R0,#0x600
        ADD      R1,R0,R10
        MOV      R0,SP
        SWI      +586
//  750     if(Pets[indx].Sleep)
??SleepProc_6:
        LDR      R0,[R8, #+220]
        MOV      R2,R4
        CMP      R0,#+0
        MOV      R1,#+0
//  751       MessageBox(TextID_Create(Pets[indx].Status.name,ENC_UCS2,TEXTID_ANY_LEN), TextID_Create(LG_IAMSLEEP,ENC_UCS2,TEXTID_ANY_LEN), NOIMAGE, 1, 5000*msgShowTime, 0);
        ADDNE    R0,R10,#+492
        BNE      ??SleepProc_4
//  752     else
//  753       MessageBox(TextID_Create(Pets[indx].Status.name,ENC_UCS2,TEXTID_ANY_LEN), TextID_Create(LG_DONTDISTURB,ENC_UCS2,TEXTID_ANY_LEN), NOIMAGE, 1, 5000*msgShowTime, 0);
        ADD      R0,R10,#+560
??SleepProc_4:
        SWI      +349
        MOV      R5,R0
        MOV      R2,R4
        MOV      R1,#+0
        ADD      R0,R8,#+64
        SWI      +349
        MOV      R1,#+0
        PUSH     {R1}
        CFI CFA R13+292
        LDR      R1,??DataTable62  ;; msgShowTime
        MOV      R2,#+136
        LDR      R1,[R1, #+0]
        ORR      R2,R2,#0x1300
        MUL      R1,R2,R1
        MOV      R3,#+1
        PUSH     {R1}
        CFI CFA R13+296
        MOV      R2,R4
        MOV      R1,R5
        SWI      +599
        ADD      SP,SP,#+8
        CFI CFA R13+288
        ADD      SP,SP,#+256
        CFI CFA R13+32
        POP      {R4-R10,PC}
        CFI CFA R13+288
//  754     return;
//  755   }
//  756 
//  757   if(type == NIGHT_SLEEP)
??SleepProc_5:
        MOV      R0,#+212
        ORR      R0,R0,#0x600
        SUB      R1,R0,#+40
        CMP      R9,#+0
        BNE      ??SleepProc_7
//  758   {
//  759     sound_name0 = SoundName[SLEEP_SND];
        ADD      R1,R1,R10
//  760     sound_name1 = SoundName[OW_SND];
        ADD      R0,R0,R10
//  761     msg0 = LG_MSGNIGHTSLEEP;
        ADD      R9,R10,#+684
//  762     msg1 = LG_MSGNIGHTNOTSLEEP;
        ADD      R10,R10,#+728
        B        ??SleepProc_8
//  763   }
//  764   else if(type == FATIGUE_SLEEP)
??SleepProc_7:
        CMP      R9,#+1
        BNE      ??SleepProc_9
//  765   {
//  766     sound_name0 = SoundName[SLEEP_SND];
        ADD      R1,R1,R10
//  767     sound_name1 = SoundName[OW_SND];
        ADD      R0,R0,R10
//  768     msg0 = LG_MSGFATIGUESLEEP;
        ADD      R9,R10,#+776
//  769     msg1 = LG_MSGFATIGUENOTSLEEP;
        ADD      R10,R10,#+856
        B        ??SleepProc_8
//  770   }
//  771   else if(type == HUNGER_SLEEP)
??SleepProc_9:
        SUB      R0,R0,#+232
        CMP      R9,#+2
        BNE      ??SleepProc_10
//  772   {
//  773     sound_name0 = SoundName[ILLGETYOU_SND];
        ADD      R1,R0,R10
//  774     sound_name1 = SoundName[ILLGETYOU_SND];
        ADD      R0,R0,R10
//  775     msg0 = LG_MSGHUNGER;
        MOV      R3,#+348
        ADD      R9,R3,R10
//  776     msg1 = LG_MSGHUNGER;
        ADD      R10,R3,R10
        B        ??SleepProc_8
//  777   }
//  778   else
//  779   {
//  780     sound_name0 = SoundName[SLEEP_SND];
??SleepProc_10:
        ADD      R1,R1,R10
//  781     sound_name1 = SoundName[ILLGETYOU_SND];
        ADD      R0,R0,R10
//  782     msg0 = LG_MSGSLEEP;
        ADD      R9,R10,#+952
//  783     msg1 = LG_MSGNOTSLEEP;
        ADD      R10,R10,#+976
//  784   }
//  785 
//  786   if(Pets[indx].Sleep==0)
??SleepProc_8:
        LDR      R12,[R8, #+220]
        MOV      R3,#+0
        CMP      R12,#+0
        BNE      ??SleepProc_11
//  787   {
//  788     Pets[indx].Sleep=1;
        MOV      R0,#+1
        STR      R0,[R8, #+220]
//  789     Pets[indx].Bathe=0;
        STR      R3,[R8, #+228]
//  790     if(snd) PlayFileV(sound_path, sound_name0, sndVolume);
        CMP      R7,#+0
        BEQ      ??SleepProc_12
        MOV      R0,SP
        SWI      +586
//  791     MessageBox(TextID_Create(Pets[indx].Status.name,ENC_UCS2,TEXTID_ANY_LEN), TextID_Create(msg0,ENC_UCS2,TEXTID_ANY_LEN), NOIMAGE, 1, 5000*msgShowTime, 0);
??SleepProc_12:
        MOV      R2,R4
        MOV      R1,#+0
        MOV      R0,R9
        B        ??SleepProc_13
//  792   }
//  793   else
//  794   {
//  795     Pets[indx].Sleep=0;
??SleepProc_11:
        STR      R3,[R8, #+220]
//  796     if(snd) PlayFileV(sound_path, sound_name1, sndVolume);
        CMP      R7,#+0
        BEQ      ??SleepProc_14
        MOV      R1,R0
        MOV      R0,SP
        SWI      +586
//  797     MessageBox(TextID_Create(Pets[indx].Status.name,ENC_UCS2,TEXTID_ANY_LEN), TextID_Create(msg1,ENC_UCS2,TEXTID_ANY_LEN), NOIMAGE, 1, 5000*msgShowTime, 0);
??SleepProc_14:
        MOV      R2,R4
        MOV      R1,#+0
        MOV      R0,R10
??SleepProc_13:
        SWI      +349
        MOV      R9,R0
        MOV      R2,R4
        MOV      R1,#+0
        ADD      R0,R8,#+64
        SWI      +349
        MOV      R1,#+0
        PUSH     {R1}
        CFI CFA R13+292
        LDR      R1,??DataTable62  ;; msgShowTime
        MOV      R2,#+136
        LDR      R1,[R1, #+0]
        ORR      R2,R2,#0x1300
        MUL      R1,R2,R1
        MOV      R3,#+1
        PUSH     {R1}
        CFI CFA R13+296
        MOV      R2,R4
        MOV      R1,R9
        SWI      +599
        ADD      SP,SP,#+8
        CFI CFA R13+288
//  798   }
//  799   ChangeStatusImage(indx, bk, snd);
        MOV      R2,R7
        MOV      R1,R6
        MOV      R0,R5
        BL       ??ChangeStatusImage
//  800 
//  801 }
        ADD      SP,SP,#+256
        CFI CFA R13+32
        POP      {R4-R10,PC}      ;; return
        CFI EndBlock cfiBlock54

        RSEG CODE:CODE:NOROOT(2)
        CFI Block cfiBlock55 Using cfiCommon1
        CFI NoFunction
        THUMB
??NightSleep??rT:
        BX       PC
        Nop      
        CFI EndBlock cfiBlock55
        REQUIRE ??NightSleep
//  802 
//  803 // ----------------------------------------------------------------------------

        RSEG CODE:CODE:NOROOT(2)
        CFI Block cfiBlock56 Using cfiCommon0
        CFI Function ??NightSleep
        ARM
//  804 void NightSleep(int indx, BOOK *bk, int snd)
//  805 {
//  806   SleepProc(indx, bk, snd, NIGHT_SLEEP);
??NightSleep:
        MOV      R3,#+0
        B        ??SleepProc      ;; tailcall
        CFI EndBlock cfiBlock56
//  807 }

        RSEG CODE:CODE:NOROOT(2)
        CFI Block cfiBlock57 Using cfiCommon1
        CFI NoFunction
        THUMB
??FatigueSleep??rT:
        BX       PC
        Nop      
        CFI EndBlock cfiBlock57
        REQUIRE ??FatigueSleep
//  808 

        RSEG CODE:CODE:NOROOT(2)
        CFI Block cfiBlock58 Using cfiCommon0
        CFI Function ??FatigueSleep
        ARM
//  809 void FatigueSleep(int indx, BOOK *bk, int snd)
//  810 {
//  811   SleepProc(indx, bk, snd, FATIGUE_SLEEP);
??FatigueSleep:
        MOV      R3,#+1
        B        ??SleepProc      ;; tailcall
        CFI EndBlock cfiBlock58
//  812 }

        RSEG CODE:CODE:NOROOT(2)
        CFI Block cfiBlock59 Using cfiCommon1
        CFI NoFunction
        THUMB
??HungerSleep??rT:
        BX       PC
        Nop      
        CFI EndBlock cfiBlock59
        REQUIRE ??HungerSleep
//  813 

        RSEG CODE:CODE:NOROOT(2)
        CFI Block cfiBlock60 Using cfiCommon0
        CFI Function ??HungerSleep
        ARM
//  814 void HungerSleep(int indx, BOOK *bk, int snd)
//  815 {
//  816   SleepProc(indx, bk, snd, HUNGER_SLEEP);
??HungerSleep:
        MOV      R3,#+2
        B        ??SleepProc      ;; tailcall
        CFI EndBlock cfiBlock60
//  817 }

        RSEG CODE:CODE:NOROOT(2)
        CFI Block cfiBlock61 Using cfiCommon1
        CFI NoFunction
        THUMB
??SleepCommand??rT:
        BX       PC
        Nop      
        CFI EndBlock cfiBlock61
        REQUIRE ??SleepCommand
//  818 

        RSEG CODE:CODE:NOROOT(2)
        CFI Block cfiBlock62 Using cfiCommon0
        CFI Function ??SleepCommand
        ARM
//  819 void SleepCommand(int indx, BOOK *bk, int snd)
//  820 {
//  821   SleepProc(indx, bk, snd, COMMAND_SLEEP);
??SleepCommand:
        MOV      R3,#+3
        B        ??SleepProc      ;; tailcall
        CFI EndBlock cfiBlock62
//  822 }

        RSEG CODE:CODE:NOROOT(2)
        CFI Block cfiBlock63 Using cfiCommon1
        CFI NoFunction
        THUMB
??BatheCommand??rT:
        BX       PC
        Nop      
        CFI EndBlock cfiBlock63
        REQUIRE ??BatheCommand
//  823 
//  824 // ----------------------------------------------------------------------------

        RSEG CODE:CODE:NOROOT(2)
        CFI Block cfiBlock64 Using cfiCommon0
        CFI Function ??BatheCommand
        ARM
//  825 void BatheCommand(int indx, BOOK *bk, int snd)
//  826 {
??BatheCommand:
        PUSH     {R4-R9,LR}
        CFI ?RET Frame(CFA, -4)
        CFI R9 Frame(CFA, -8)
        CFI R8 Frame(CFA, -12)
        CFI R7 Frame(CFA, -16)
        CFI R6 Frame(CFA, -20)
        CFI R5 Frame(CFA, -24)
        CFI R4 Frame(CFA, -28)
        CFI CFA R13+28
        SUB      SP,SP,#+256
        CFI CFA R13+284
        MOV      R6,R0
        MOV      R7,R1
//  827   wchar_t  sound_path[128];
//  828   getdir(sound_path,SOUND_PATH);
        LDR      R1,??DataTable57  ;; SOUND_PATH
        MOV      R8,R2
//  829 
//  830   if (Pets[indx].Status.StatusDeath == 1)
        LDR      R9,??DataTable58  ;; SpeakMessage
        MOV      R0,SP
        _BLF     ??getdir,??getdir??rA
        LDR      R1,??DataTable74  ;; Pets
        MOV      R0,#+272
        MLA      R5,R0,R6,R1
        LDR      R0,??DataTable60  ;; sndVolume
        MOV      R4,#+255
        LDR      R2,[R0, #+0]
        LDR      R0,[R5, #+56]
        ORR      R4,R4,#0xFF00
        CMP      R0,#+1
        BNE      ??BatheCommand_1
//  831   {
//  832     if(snd) PlayFileV(sound_path, SoundName[FATALITY_SND], sndVolume);
        CMP      R8,#+0
        BEQ      ??BatheCommand_2
        MOV      R0,#+56
        ORR      R0,R0,#0x600
        ADD      R1,R0,R9
        MOV      R0,SP
        SWI      +586
//  833     MessageBox(TextID_Create(Pets[indx].Status.name,ENC_UCS2,TEXTID_ANY_LEN), TextID_Create(LG_IAMDIE,ENC_UCS2,TEXTID_ANY_LEN), NOIMAGE, 1, 5000*msgShowTime, 0);
??BatheCommand_2:
        MOV      R2,R4
        MOV      R1,#+0
        ADD      R0,R9,#+460
        B        ??BatheCommand_3
//  834     return;
//  835   }
//  836   if (Pets[indx].Sleep != 0)
??BatheCommand_1:
        LDR      R0,[R5, #+220]
        CMP      R0,#+0
        BEQ      ??BatheCommand_4
//  837   {
//  838     if(snd) PlayFileV(sound_path, SoundName[LEAVEME_SND], sndVolume);
        CMP      R8,#+0
        BEQ      ??BatheCommand_5
        MOV      R0,#+104
        ORR      R0,R0,#0x600
        ADD      R1,R0,R9
        MOV      R0,SP
        SWI      +586
//  839     MessageBox(TextID_Create(Pets[indx].Status.name,ENC_UCS2,TEXTID_ANY_LEN), TextID_Create(LG_IAMSLEEP,ENC_UCS2,TEXTID_ANY_LEN), NOIMAGE, 1, 5000*msgShowTime, 0);
??BatheCommand_5:
        MOV      R2,R4
        MOV      R1,#+0
        ADD      R0,R9,#+492
??BatheCommand_3:
        SWI      +349
        MOV      R6,R0
        MOV      R2,R4
        MOV      R1,#+0
        ADD      R0,R5,#+64
        SWI      +349
        MOV      R1,#+0
        PUSH     {R1}
        CFI CFA R13+288
        LDR      R1,??DataTable62  ;; msgShowTime
        MOV      R2,#+136
        LDR      R1,[R1, #+0]
        ORR      R2,R2,#0x1300
        MUL      R1,R2,R1
        MOV      R3,#+1
        PUSH     {R1}
        CFI CFA R13+292
        MOV      R2,R4
        MOV      R1,R6
        SWI      +599
//  840     return;
        ADD      SP,SP,#+8
        CFI CFA R13+284
        ADD      SP,SP,#+256
        CFI CFA R13+28
        POP      {R4-R9,PC}
        CFI CFA R13+284
//  841   }
//  842 
//  843   Pets[indx].Bathe = 1;
??BatheCommand_4:
        MOV      R0,#+1
        STR      R0,[R5, #+228]
//  844 
//  845   if(snd) PlayFileV(sound_path, SoundName[BATHE_SND], sndVolume);
        CMP      R8,#+0
        BEQ      ??BatheCommand_6
        MOV      R0,#+12
        ORR      R0,R0,#0x700
        ADD      R1,R0,R9
        MOV      R0,SP
        SWI      +586
//  846   MessageBox(TextID_Create(Pets[indx].Status.name,ENC_UCS2,TEXTID_ANY_LEN), TextID_Create(LG_BLISS,ENC_UCS2,TEXTID_ANY_LEN), NOIMAGE, 1, 5000*msgShowTime, 0);
??BatheCommand_6:
        MOV      R2,R4
        MOV      R1,#+0
        ADD      R0,R9,#+1004
        SWI      +349
        MOV      R9,R0
        MOV      R2,R4
        MOV      R1,#+0
        ADD      R0,R5,#+64
        SWI      +349
        MOV      R1,#+0
        PUSH     {R1}
        CFI CFA R13+288
        LDR      R1,??DataTable62  ;; msgShowTime
        MOV      R2,#+136
        LDR      R1,[R1, #+0]
        ORR      R2,R2,#0x1300
        MUL      R1,R2,R1
        MOV      R3,#+1
        PUSH     {R1}
        CFI CFA R13+292
        MOV      R2,R4
        MOV      R1,R9
        SWI      +599
//  847   ChangeStatusImage(indx, bk, snd);
        MOV      R2,R8
        MOV      R1,R7
        MOV      R0,R6
        BL       ??ChangeStatusImage
//  848   VerifyStatus(indx);
        MOV      R0,R6
        BL       ??VerifyStatus
//  849 }
        ADD      SP,SP,#+8
        CFI CFA R13+284
        ADD      SP,SP,#+256
        CFI CFA R13+28
        POP      {R4-R9,PC}       ;; return
        CFI EndBlock cfiBlock64

        RSEG CODE:CODE:NOROOT(2)
        DATA
??DataTable57:
        DC32     SOUND_PATH

        RSEG CODE:CODE:NOROOT(2)
        DATA
??DataTable58:
        DC32     SpeakMessage

        RSEG CODE:CODE:NOROOT(2)
        DATA
??DataTable60:
        DC32     sndVolume

        RSEG CODE:CODE:NOROOT(2)
        DATA
??DataTable62:
        DC32     msgShowTime

        RSEG CODE:CODE:NOROOT(2)
        CFI Block cfiBlock65 Using cfiCommon1
        CFI NoFunction
        THUMB
??OnBackChangeName??rT:
        BX       PC
        Nop      
        CFI EndBlock cfiBlock65
        REQUIRE ??OnBackChangeName
//  850 
//  851 // ----------------------------------------------------------------------------

        RSEG CODE:CODE:NOROOT(2)
        CFI Block cfiBlock66 Using cfiCommon0
        CFI Function ??OnBackChangeName
        ARM
//  852 void OnBackChangeName(BOOK * book, u16 *string, int len)
//  853 {
??OnBackChangeName:
        PUSH     {R4,LR}
        CFI ?RET Frame(CFA, -4)
        CFI R4 Frame(CFA, -8)
        CFI CFA R13+8
        MOV      R4,R0
//  854   MyBOOK * bk = (MyBOOK *)book;
//  855   FREE_GUI(bk->text_input);
        LDR      R0,[R4, #+28]
        CMP      R0,#+0
        POPEQ    {R4,PC}
        SWI      +462
        MOV      R0,#+0
        STR      R0,[R4, #+28]
//  856 }
        POP      {R4,PC}          ;; return
        CFI EndBlock cfiBlock66

        RSEG CODE:CODE:NOROOT(2)
        CFI Block cfiBlock67 Using cfiCommon1
        CFI NoFunction
        THUMB
??OnOkChangeName??rT:
        BX       PC
        Nop      
        CFI EndBlock cfiBlock67
        REQUIRE ??OnOkChangeName
//  857 

        RSEG CODE:CODE:NOROOT(2)
        CFI Block cfiBlock68 Using cfiCommon0
        CFI Function ??OnOkChangeName
        ARM
//  858 void OnOkChangeName(BOOK * book, wchar_t *string, int len)
//  859 {
??OnOkChangeName:
        PUSH     {R4,R5,LR}
        CFI ?RET Frame(CFA, -4)
        CFI R5 Frame(CFA, -8)
        CFI R4 Frame(CFA, -12)
        CFI CFA R13+12
        SUB      SP,SP,#+128
        CFI CFA R13+140
        MOV      R4,R0
//  860   MyBOOK * bk=(MyBOOK *)book;
//  861   int indx = bk->cur_indx;
        LDR      R0,[R4, #+32]
//  862 
//  863   if ((len < 1) || (len > MAXELEMS(Pets[indx].Status.name)))
        CMP      R2,#+1
        BLT      ??OnOkChangeName_1
        CMP      R2,#+65
        BCC      ??OnOkChangeName_2
//  864   {
//  865     wchar_t ustr[64];
//  866     snwprintf(ustr,MAXELEMS(ustr)-1,L"min_string_len: 1\nmax_string_len: %d",MAXELEMS(Pets[indx].Status.name));
??OnOkChangeName_1:
        LDR      R2,??OnOkChangeName_3  ;; `?<Constant L"\\x6d\\x69\\x6e\\x5f\\x73\\x74\\x72\\x69\\`
        MOV      R3,#+64
        MOV      R1,#+63
        MOV      R0,SP
        SWI      +277
//  867     MessageBox(EMPTY_TEXTID,TextID_Create(ustr,ENC_UCS2,TEXTID_ANY_LEN), NOIMAGE, 1, 5000, book);
        MOV      R5,#+255
        ORR      R5,R5,#0xFF00
        MOV      R2,R5
        MOV      R1,#+0
        MOV      R0,SP
        SWI      +349
        PUSH     {R4}
        CFI CFA R13+144
        MOV      R1,#+136
        ORR      R1,R1,#0x1300
        PUSH     {R1}
        CFI CFA R13+148
        MOV      R3,#+1
        MOV      R2,R5
        MOV      R1,R0
        MVN      R0,#-1879048192
        SWI      +599
        ADD      SP,SP,#+8
        CFI CFA R13+140
        ADD      SP,SP,#+128
        CFI CFA R13+12
        POP      {R4,R5,PC}
        CFI CFA R13+140
//  868   }
//  869   else
//  870   {
//  871     wstrncpy(Pets[indx].Status.name,string,MAXELEMS(Pets[indx].Status.name)-1);
??OnOkChangeName_2:
        LDR      R5,??DataTable74  ;; Pets
        MOV      R3,#+272
        MLA      R0,R3,R0,R5
        MOV      R2,#+63
        ADD      R0,R0,#+64
        SWI      +339
//  872     FREE_GUI(bk->text_input);
        LDR      R0,[R4, #+28]
        CMP      R0,#+0
        BEQ      ??OnOkChangeName_4
        SWI      +462
        MOV      R0,#+0
        STR      R0,[R4, #+28]
//  873 //    CloseMenu(book);
//  874 //    ShowMenu(book);
//  875   }
//  876 }
??OnOkChangeName_4:
        ADD      SP,SP,#+128      ;; stack cleaning
        CFI CFA R13+12
        POP      {R4,R5,PC}       ;; return
        DATA
??OnOkChangeName_3:
        DC32     `?<Constant L"\\x6d\\x69\\x6e\\x5f\\x73\\x74\\x72\\x69\\`
        CFI EndBlock cfiBlock68

        RSEG CODE:CODE:NOROOT(2)
        CFI Block cfiBlock69 Using cfiCommon1
        CFI NoFunction
        THUMB
??ChangeName??rT:
        BX       PC
        Nop      
        CFI EndBlock cfiBlock69
        REQUIRE ??ChangeName
//  877 

        RSEG CODE:CODE:NOROOT(2)
        CFI Block cfiBlock70 Using cfiCommon0
        CFI Function ??ChangeName
        ARM
//  878 void ChangeName(int indx, BOOK * book, int snd)
//  879 {
??ChangeName:
        PUSH     {R4-R7,LR}
        CFI ?RET Frame(CFA, -4)
        CFI R7 Frame(CFA, -8)
        CFI R6 Frame(CFA, -12)
        CFI R5 Frame(CFA, -16)
        CFI R4 Frame(CFA, -20)
        CFI CFA R13+20
        MOV      R4,R1
        MOV      R6,R0
//  880   TEXTID text, header_name;
//  881   MyBOOK * bk = (MyBOOK *)book;
//  882   bk->cur_indx = indx;
//  883   header_name = TextID_Create(LG_NAME,ENC_UCS2,TEXTID_ANY_LEN);
        LDR      R0,??ChangeName_1  ;; `?<Constant L"\\x43\\x68\\x61\\x6e\\x67\\x65\\x20\\x6e\\`
        STR      R6,[R4, #+32]
        MOV      R7,#+255
        ORR      R7,R7,#0xFF00
        MOV      R2,R7
        MOV      R1,#+0
        SWI      +349
//  884   text = TextID_Create(Pets[indx].Status.name,ENC_UCS2,TEXTID_ANY_LEN);
        LDR      R3,??DataTable74  ;; Pets
        MOV      R5,R0
        MOV      R0,#+272
        MLA      R3,R0,R6,R3
        MOV      R2,R7
        MOV      R1,#+0
        ADD      R0,R3,#+64
        SWI      +349
        MOV      R6,R0
//  885   FREE_GUI(bk->text_input);
        LDR      R0,[R4, #+28]
        CMP      R0,#+0
        BEQ      ??ChangeName_2
        SWI      +462
        MOV      R0,#+0
        STR      R0,[R4, #+28]
//  886   bk->text_input = CreateStringInputVA(0,
//  887                                           VAR_HEADER_TEXT(header_name),
//  888                                           VAR_STRINP_MIN_LEN(1),
//  889                                           VAR_STRINP_MAX_LEN(MAXELEMS(Pets[indx].Status.name)),
//  890                                           VAR_STRINP_MODE(IT_STRING),
//  891                                           VAR_BOOK(bk),
//  892                                           VAR_STRINP_TEXT(text),
//  893                                           VAR_PREV_ACTION_PROC(OnBackChangeName),
//  894                                           VAR_OK_PROC(OnOkChangeName),
//  895                                           VAR_STRINP_IS_PASS_MODE(0),
//  896                                           0);
??ChangeName_2:
        LDR      R3,??ChangeName_1+0x4  ;; VAR_ARG_STRINP_MIN_LEN
        LDR      R1,??ChangeName_1+0x8  ;; VAR_ARG_HTEXT
        PUSH     {R0}
        CFI CFA R13+24
        MOV      R2,R5
        MOV      R0,#+0
        PUSH     {R0}
        CFI CFA R13+28
        LDR      R0,??ChangeName_1+0xC  ;; VAR_ARG_STRINP_IS_PASS_MODE
        PUSH     {R0}
        CFI CFA R13+32
        LDR      R0,??ChangeName_1+0x10  ;; ??OnOkChangeName
        PUSH     {R0}
        CFI CFA R13+36
        LDR      R0,??ChangeName_1+0x14  ;; VAR_ARG_CALL_BACK_OK
        PUSH     {R0}
        CFI CFA R13+40
        LDR      R0,??ChangeName_1+0x18  ;; ??OnBackChangeName
        PUSH     {R0}
        CFI CFA R13+44
        LDR      R0,??ChangeName_1+0x1C  ;; VAR_ARG_CALL_BACK_PREV_ACT
        PUSH     {R0}
        CFI CFA R13+48
        LDR      R0,??ChangeName_1+0x20  ;; VAR_ARG_STRINP_TEXT
        PUSH     {R6}
        CFI CFA R13+52
        PUSH     {R0}
        CFI CFA R13+56
        MOV      R0,R4
        PUSH     {R0}
        CFI CFA R13+60
        LDR      R0,??ChangeName_1+0x24  ;; VAR_ARG_BOOK
        PUSH     {R0}
        CFI CFA R13+64
        MOV      R0,#+1
        PUSH     {R0}
        CFI CFA R13+68
        LDR      R0,??ChangeName_1+0x28  ;; VAR_ARG_STRINP_MODE
        PUSH     {R0}
        CFI CFA R13+72
        MOV      R0,#+64
        PUSH     {R0}
        CFI CFA R13+76
        LDR      R0,??ChangeName_1+0x2C  ;; VAR_ARG_STRINP_MAX_LEN
        PUSH     {R0}
        CFI CFA R13+80
        MOV      R0,#+1
        PUSH     {R0}
        CFI CFA R13+84
        MOV      R0,#+0
        SWI      +324
        ADD      SP,SP,#+64
        CFI CFA R13+20
        STR      R0,[R4, #+28]
//  897 }
        POP      {R4-R7,PC}       ;; return
        DATA
??ChangeName_1:
        DC32     `?<Constant L"\\x43\\x68\\x61\\x6e\\x67\\x65\\x20\\x6e\\`
        DC32     VAR_ARG_STRINP_MIN_LEN
        DC32     VAR_ARG_HTEXT
        DC32     VAR_ARG_STRINP_IS_PASS_MODE
        DC32     ??OnOkChangeName
        DC32     VAR_ARG_CALL_BACK_OK
        DC32     ??OnBackChangeName
        DC32     VAR_ARG_CALL_BACK_PREV_ACT
        DC32     VAR_ARG_STRINP_TEXT
        DC32     VAR_ARG_BOOK
        DC32     VAR_ARG_STRINP_MODE
        DC32     VAR_ARG_STRINP_MAX_LEN
        CFI EndBlock cfiBlock70

        RSEG CODE:CODE:NOROOT(2)
        CFI Block cfiBlock71 Using cfiCommon1
        CFI NoFunction
        THUMB
??FamilyLifeUpdate??rT:
        BX       PC
        Nop      
        CFI EndBlock cfiBlock71
        REQUIRE ??FamilyLifeUpdate
//  898 
//  899 // ----------------------------------------------------------------------------

        RSEG CODE:CODE:NOROOT(2)
        CFI Block cfiBlock72 Using cfiCommon0
        CFI Function ??FamilyLifeUpdate
        ARM
//  900 void FamilyLifeUpdate(int indx)
//  901 {
//  902   if((indx == 0) && (Pets[0].Status.Count > 1))
??FamilyLifeUpdate:
        CMP      R0,#+0
        BXNE     LR
        LDR      R0,??DataTable74  ;; Pets
        LDR      R1,[R0, #+196]
        CMP      R1,#+2
        BXLT     LR
//  903   {
//  904     if((Pets[0].Status.Age >= PARENT_AGE) && (Pets[1].Status.Age >= PARENT_AGE))
        LDR      R1,??DataTable66  ;; PARENT_AGE
        LDR      R3,[R0, #+0]
        LDR      R1,[R1, #+0]
        MOV      R2,#+472
        CMP      R3,R1
        LDRCS    R3,[R0, #+272]
        CMPCS    R3,R1
        BCC      ??FamilyLifeUpdate_1
//  905     {
//  906       ++Pets[0].Status.FamilyLife;
        LDR      R1,[R0, #+200]
        ADD      R1,R1,#+1
        B        ??FamilyLifeUpdate_2
//  907       Pets[1].Status.FamilyLife = Pets[0].Status.FamilyLife;
//  908     }
//  909     else
//  910     {
//  911       Pets[0].Status.FamilyLife = 0;
??FamilyLifeUpdate_1:
        MOV      R1,#+0
??FamilyLifeUpdate_2:
        STR      R1,[R0, #+200]
//  912       Pets[1].Status.FamilyLife = 0;
        STR      R1,[R2, +R0]
//  913     }
//  914   }
//  915 }
        BX       LR               ;; return
        CFI EndBlock cfiBlock72

        RSEG CODE:CODE:NOROOT(2)
        DATA
??DataTable66:
        DC32     PARENT_AGE

        RSEG CODE:CODE:NOROOT(2)
        CFI Block cfiBlock73 Using cfiCommon1
        CFI NoFunction
        THUMB
??NewBabyCheck??rT:
        BX       PC
        Nop      
        CFI EndBlock cfiBlock73
        REQUIRE ??NewBabyCheck
//  916 

        RSEG CODE:CODE:NOROOT(2)
        CFI Block cfiBlock74 Using cfiCommon0
        CFI Function ??NewBabyCheck
        ARM
//  917 int NewBabyCheck(int indx)
//  918 {
??NewBabyCheck:
        PUSH     {R4,R5,LR}
        CFI ?RET Frame(CFA, -4)
        CFI R5 Frame(CFA, -8)
        CFI R4 Frame(CFA, -12)
        CFI CFA R13+12
//  919   if(indx == 0)
        CMP      R0,#+0
        BNE      ??NewBabyCheck_1
//  920   {
//  921     if((Pets[0].Status.Count > 1) && (Pets[0].Status.Count < (MAX_PET_COUNT - 1)))
        LDR      R4,??DataTable74  ;; Pets
        LDR      R0,[R4, #+196]
        CMP      R0,#+2
        BLT      ??NewBabyCheck_1
        LDR      R1,??DataTable68  ;; MAX_PET_COUNT
        LDR      R1,[R1, #+0]
        SUB      R2,R1,#+1
        CMP      R0,R2
        BCS      ??NewBabyCheck_1
//  922     {
//  923       if(Pets[0].Status.FamilyLife >= ((Pets[0].Status.Count - 1) * 2))
        LDR      R2,[R4, #+200]
        SUB      R0,R0,#+1
        CMP      R2,R0, LSL #+1
        BLT      ??NewBabyCheck_1
//  924       {
//  925         int NewCount = (Pets[0].Status.FamilyLife/2) + 2;
        ADD      R0,R2,R2, LSR #+31
        MOV      R2,#+2
        ADD      R5,R2,R0, ASR #+1
//  926         if(NewCount > MAX_PET_COUNT) NewCount = MAX_PET_COUNT;
        CMP      R1,R5
        BCS      ??NewBabyCheck_2
        MOV      R5,R1
        B        ??NewBabyCheck_2
//  927         while(Pets[0].Status.Count < NewCount)
//  928         {
//  929           InitStatus(Pets[0].Status.Count, 0, 2);
??NewBabyCheck_3:
        MOV      R2,#+2
        MOV      R1,#+0
        BL       ??InitStatus
//  930           InitPetVar(Pets[0].Status.Count);
        LDR      R0,[R4, #+196]
        BL       ??InitPetVar
//  931           ++Pets[0].Status.Count;
        LDR      R0,[R4, #+196]
        ADD      R0,R0,#+1
        STR      R0,[R4, #+196]
//  932         }
??NewBabyCheck_2:
        LDR      R0,[R4, #+196]
        CMP      R0,R5
        BLT      ??NewBabyCheck_3
//  933         return 1;
        MOV      R0,#+1
        POP      {R4,R5,PC}
//  934       }
//  935     }
//  936   }
//  937   return 0;
??NewBabyCheck_1:
        MOV      R0,#+0
        POP      {R4,R5,PC}       ;; return
        CFI EndBlock cfiBlock74
//  938 }

        RSEG CODE:CODE:NOROOT(2)
        DATA
??DataTable68:
        DC32     MAX_PET_COUNT

        RSEG CODE:CODE:NOROOT(2)
        CFI Block cfiBlock75 Using cfiCommon1
        CFI NoFunction
        THUMB
??onTimer_save??rT:
        BX       PC
        Nop      
        CFI EndBlock cfiBlock75
        REQUIRE ??onTimer_save
//  939 
//  940 // ----------------------------------------------------------------------------
//  941 

        RSEG CODE:CODE:NOROOT(2)
        CFI Block cfiBlock76 Using cfiCommon0
        CFI Function ??onTimer_save
        ARM
//  942 void onTimer_save (u16 timerID, LPARAM lparam)
//  943 {
??onTimer_save:
        PUSH     {R4,R5,LR}
        CFI ?RET Frame(CFA, -4)
        CFI R5 Frame(CFA, -8)
        CFI R4 Frame(CFA, -12)
        CFI CFA R13+12
//  944   Randomize();
//  945   for(int i=0; i < Pets[0].Status.Count; i++) { SaveStatus(i); }
        LDR      R5,??DataTable74  ;; Pets
        SUB      SP,SP,#+4
        CFI CFA R13+16
        MOV      R4,#+0
        BL       ??Randomize
        LDR      R0,[R5, #+196]
        CMP      R0,#+1
        BGE      ??onTimer_save_1
        B        ??onTimer_save_2
??onTimer_save_3:
        MOV      R0,R4
        BL       ??SaveStatus
        ADD      R4,R4,#+1
??onTimer_save_1:
        LDR      R0,[R5, #+196]
        CMP      R4,R0
        BLT      ??onTimer_save_3
//  946   Timer_ReSet(&timer_save,TMR_SECOND*60*5,onTimer_save,0);
??onTimer_save_2:
        MOV      R1,#+0
        MOV      R0,SP
        _BLF     ??LPARAM,??LPARAM??rA
        LDR      R3,[SP, #+0]
        LDR      R2,??DataTable70  ;; ??onTimer_save
        LDR      R0,??DataTable71  ;; timer_save
        MOV      R1,#+299008
        ORR      R1,R1,#0x3E0
        SWI      +296
//  947 }
        POP      {R0,R4,R5,PC}    ;; return
        CFI EndBlock cfiBlock76

        RSEG CODE:CODE:NOROOT(2)
        DATA
??DataTable70:
        DC32     ??onTimer_save

        RSEG CODE:CODE:NOROOT(2)
        DATA
??DataTable71:
        DC32     timer_save

        RSEG CODE:CODE:NOROOT(2)
        CFI Block cfiBlock77 Using cfiCommon1
        CFI NoFunction
        THUMB
??UpdatePosition??rT:
        BX       PC
        Nop      
        CFI EndBlock cfiBlock77
        REQUIRE ??UpdatePosition
//  948 

        RSEG CODE:CODE:NOROOT(2)
        CFI Block cfiBlock78 Using cfiCommon0
        CFI Function ??UpdatePosition
        ARM
//  949 void UpdatePosition(int indx)
//  950 {
//  951   if((Pets[indx].Sleep == 0) && (Pets[indx].Status.StatusDeath != 1))
??UpdatePosition:
        LDR      R2,??DataTable74  ;; Pets
        MOV      R1,#+272
        MLA      R0,R1,R0,R2
        LDR      R1,[R0, #+220]
        CMP      R1,#+0
        BXNE     LR
        LDR      R1,[R0, #+56]
        CMP      R1,#+1
        BXEQ     LR
//  952   {
//  953     if ((Pets[indx].x > (DisplayWidth - Pets[indx].img_size - 5)) && (Pets[indx].dx > 0)) Pets[indx].dx = 0-Pets[indx].dx;
        LDR      R1,??DataTable75  ;; timer_save
        LDR      R3,[R0, #+252]
        LDR      R2,[R1, #+48]
        SUB      R2,R2,R3
        LDR      R3,[R0, #+256]
        SUB      R2,R2,#+5
        CMP      R2,R3
        BGE      ??UpdatePosition_1
        LDR      R2,[R0, #+264]
        CMP      R2,#+1
        RSBGE    R2,R2,#+0
        STRGE    R2,[R0, #+264]
//  954     if ((Pets[indx].x < 5) && (Pets[indx].dx < 0)) Pets[indx].dx = 0-Pets[indx].dx;
??UpdatePosition_1:
        CMP      R3,#+5
        BGE      ??UpdatePosition_2
        LDR      R2,[R0, #+264]
        CMP      R2,#+0
        RSBMI    R2,R2,#+0
        STRMI    R2,[R0, #+264]
//  955     Pets[indx].x += Pets[indx].dx;
??UpdatePosition_2:
        MOV      R2,R3
        LDR      R3,[R0, #+264]
        ADD      R2,R3,R2
        STR      R2,[R0, #+256]
//  956 
//  957     if ((Pets[indx].y > (DisplayHeight - SoftBarHeight - Pets[indx].img_size - 5)) && (Pets[indx].dy > 0)) Pets[indx].dy = 0-Pets[indx].dy;
        LDR      R2,[R1, #+52]
        LDR      R3,[R1, #+56]
        SUB      R2,R2,R3
        LDR      R3,[R0, #+252]
        SUB      R2,R2,R3
        LDR      R3,[R0, #+260]
        SUB      R2,R2,#+5
        CMP      R2,R3
        BGE      ??UpdatePosition_3
        LDR      R2,[R0, #+268]
        CMP      R2,#+1
        RSBGE    R2,R2,#+0
        STRGE    R2,[R0, #+268]
//  958     if ((Pets[indx].y < (StatusBarHeight + 5)) && (Pets[indx].dy < 0)) Pets[indx].dy = 0-Pets[indx].dy;
??UpdatePosition_3:
        LDR      R1,[R1, #+60]
        ADD      R1,R1,#+5
        CMP      R3,R1
        BGE      ??UpdatePosition_4
        LDR      R1,[R0, #+268]
        CMP      R1,#+0
        RSBMI    R1,R1,#+0
        STRMI    R1,[R0, #+268]
//  959     Pets[indx].y += Pets[indx].dy;
??UpdatePosition_4:
        LDR      R2,[R0, #+268]
        ADD      R1,R2,R3
        STR      R1,[R0, #+260]
//  960   }
//  961 }
        BX       LR               ;; return
        CFI EndBlock cfiBlock78

        RSEG CODE:CODE:NOROOT(2)
        CFI Block cfiBlock79 Using cfiCommon1
        CFI NoFunction
        THUMB
??onTimer_refresh??rT:
        BX       PC
        Nop      
        CFI EndBlock cfiBlock79
        REQUIRE ??onTimer_refresh
//  962 

        RSEG CODE:CODE:NOROOT(2)
        CFI Block cfiBlock80 Using cfiCommon0
        CFI Function ??onTimer_refresh
        ARM
//  963 void onTimer_refresh (u16 timerID, LPARAM lparam)
//  964 {
//  965   if(Motion_Ena)
??onTimer_refresh:
        LDR      R0,??onTimer_refresh_1  ;; Motion_Ena
        PUSH     {R4,R5,LR}
        CFI ?RET Frame(CFA, -4)
        CFI R5 Frame(CFA, -8)
        CFI R4 Frame(CFA, -12)
        CFI CFA R13+12
        SUB      SP,SP,#+4
        CFI CFA R13+16
        LDR      R0,[R0, #+0]
        CMP      R0,#+0
        BEQ      ??onTimer_refresh_2
//  966   {
//  967     for(int i=0; i<Pets[0].Status.Count; i++)
        LDR      R5,??DataTable74  ;; Pets
        MOV      R4,#+0
        LDR      R0,[R5, #+196]
        CMP      R0,#+1
        BGE      ??onTimer_refresh_3
        B        ??onTimer_refresh_2
//  968     {
//  969       UpdatePosition(i);
??onTimer_refresh_4:
        MOV      R0,R4
        BL       ??UpdatePosition
//  970     }
        ADD      R4,R4,#+1
??onTimer_refresh_3:
        LDR      R0,[R5, #+196]
        CMP      R4,R0
        BLT      ??onTimer_refresh_4
//  971   }
//  972   if(GUI_display) DispObject_InvalidateRect(GUI_display,0);
??onTimer_refresh_2:
        LDR      R4,??DataTable75  ;; timer_save
        LDR      R0,[R4, #+28]
        CMP      R0,#+0
        BEQ      ??onTimer_refresh_5
        MOV      R1,#+0
        SWI      +495
//  973   Timer_ReSet(&timer_refresh,REFRESH*TMR_SECOND/10,onTimer_refresh,0);
??onTimer_refresh_5:
        MOV      R1,#+0
        LDR      R5,??DataTable76  ;; 0xffffffffcccccccd
        MOV      R0,SP
        _BLF     ??LPARAM,??LPARAM??rA
        LDR      R0,??DataTable77  ;; REFRESH
        LDR      R3,[SP, #+0]
        LDR      R0,[R0, #+0]
        LDR      R2,??DataTable78  ;; ??onTimer_refresh
        MOV      R1,#+1000
        MUL      R0,R1,R0
        UMULL    R12,R1,R5,R0
        ADD      R0,R4,#+2
        LSR      R1,R1,#+3
        SWI      +296
//  974 }
        POP      {R0,R4,R5,PC}    ;; return
        DATA
??onTimer_refresh_1:
        DC32     Motion_Ena
        CFI EndBlock cfiBlock80

        RSEG CODE:CODE:NOROOT(2)
        DATA
??DataTable74:
        DC32     Pets

        RSEG CODE:CODE:NOROOT(2)
        DATA
??DataTable75:
        DC32     timer_save

        RSEG CODE:CODE:NOROOT(2)
        DATA
??DataTable76:
        DC32     0xffffffffcccccccd

        RSEG CODE:CODE:NOROOT(2)
        DATA
??DataTable77:
        DC32     REFRESH

        RSEG CODE:CODE:NOROOT(2)
        DATA
??DataTable78:
        DC32     ??onTimer_refresh

        RSEG CODE:CODE:NOROOT(2)
        CFI Block cfiBlock81 Using cfiCommon1
        CFI NoFunction
        THUMB
??life_proc??rT:
        BX       PC
        Nop      
        CFI EndBlock cfiBlock81
        REQUIRE ??life_proc
//  975 
//  976 //главна€ процедура жизненного цикла питомца

        RSEG CODE:CODE:NOROOT(2)
        CFI Block cfiBlock82 Using cfiCommon0
        CFI Function ??life_proc
        ARM
//  977 void life_proc(int indx, BOOK *bk, int snd)
//  978 {
??life_proc:
        PUSH     {R1,R4-R11,LR}
        CFI ?RET Frame(CFA, -4)
        CFI R11 Frame(CFA, -8)
        CFI R10 Frame(CFA, -12)
        CFI R9 Frame(CFA, -16)
        CFI R8 Frame(CFA, -20)
        CFI R7 Frame(CFA, -24)
        CFI R6 Frame(CFA, -28)
        CFI R5 Frame(CFA, -32)
        CFI R4 Frame(CFA, -36)
        CFI CFA R13+40
        LDR      R1,??DataTable104  ;; Pets
        MOV      R4,R0
        MOV      R0,#+272
        MLA      R6,R0,R4,R1
        SUB      SP,SP,#+616
        CFI CFA R13+656
        SUB      SP,SP,#+1024
        CFI CFA R13+1680
        LDR      R0,[R6, #+56]
        MOV      R5,R2
        CMP      R0,#+1
        BNE      ??life_proc_1
//  979   wchar_t  sound_path[128];
//  980 
//  981   if (Pets[indx].Status.StatusDeath == 1)
//  982   {
//  983     Pets[indx].simg_status = NULL_ICN;
        MOV      R0,#+0
        STR      R0,[R6, #+248]
//  984     ChangeStatusImage(indx, bk, snd);
??life_proc_2:
        LDR      R1,[SP, #+1640]
        B        ??life_proc_3
//  985     return ;
//  986   }
//  987 
//  988   BATT batt;
//  989   int isCharging = 0;
//  990   GetBatteryState(SYNC,&batt);
??life_proc_1:
        LDR      R0,??DataTable80  ;; SYNC
        MOV      R1,#+0
        LDR      R0,[R0, #+0]
        STR      R1,[SP, #+4]
        ADD      R1,SP,#+536
        ADD      R1,R1,#+1024
        SWI      +484
//  991   if((batt.ChargingState == 2) || (batt.ChargingState == 8))
        LDRB     R0,[SP, #+1560]
//  992   {
//  993     isCharging = 1;
//  994   }
//  995 
//  996   if (Night_Ena)
        MOV      R9,#+2
        CMP      R0,#+2
        CMPNE    R0,#+8
        LDR      R0,??DataTable81  ;; Night_Ena
        MOVEQ    R1,#+1
        STREQ    R1,[SP, #+4]
        LDR      R0,[R0, #+0]
        CMP      R0,#+0
        BEQ      ??life_proc_4
//  997   {
//  998       //проверка ночи
//  999       int fNight=isNight();
        BL       ??isNight
// 1000       //если включена зар€дка и можно поесть, то просыпаемс€ и едим
// 1001       if(isCharging && (Pets[indx].Status.Hunger > 0)) fNight = 0;
        LDR      R1,[SP, #+4]
        CMP      R1,#+0
        BEQ      ??life_proc_5
        LDR      R1,[R6, #+16]
        CMP      R1,#+1
        MOVGE    R0,#+0
// 1002 
// 1003       if (Pets[indx].Sleep!=5)
??life_proc_5:
        LDR      R1,[R6, #+220]
        CMP      R1,#+5
        BEQ      ??life_proc_6
// 1004       {
// 1005         //не спит
// 1006         if (fNight)
        CMP      R0,#+0
        BEQ      ??life_proc_4
// 1007         {
// 1008           if (Pets[indx].Sleep!=0) NightSleep(indx, bk, snd);
        CMP      R1,#+0
        BEQ      ??life_proc_7
        LDR      R1,[SP, #+1640]
        MOV      R2,R5
        MOV      R0,R4
        BL       ??NightSleep
// 1009           Pets[indx].Sleep=5;
??life_proc_7:
        MOV      R0,#+5
        STR      R0,[R6, #+220]
// 1010           Pets[indx].Bathe=0;
        MOV      R0,#+0
        STR      R0,[R6, #+228]
// 1011           Pets[indx].Status.ImageStatus=DREAM_ICN;
        STR      R9,[R6, #+60]
// 1012           Pets[indx].simg_status=MOON_ICN;
        STR      R9,[R6, #+248]
// 1013           ChangeStatusImage(indx, bk, snd);
??life_proc_8:
        MOV      R2,R5
        B        ??life_proc_2
// 1014           return;
// 1015         }
// 1016       }
// 1017       if (Pets[indx].Sleep==5)
// 1018       {
// 1019         //спит
// 1020         if (!fNight)
??life_proc_6:
        CMP      R0,#+0
        BNE      ??life_proc_9
// 1021         {
// 1022          NightSleep(indx, bk, snd);
        LDR      R1,[SP, #+1640]
        MOV      R2,R5
        MOV      R0,R4
        BL       ??NightSleep
// 1023          Pets[indx].simg_status=NULL_ICN;
        MOV      R0,#+0
        STR      R0,[R6, #+248]
// 1024         }
// 1025         else
// 1026         {
// 1027          Pets[indx].Status.ImageStatus=DREAM_ICN;
// 1028          Pets[indx].simg_status=MOON_ICN;
// 1029          ChangeStatusImage(indx, bk, snd);
// 1030          return;
// 1031         }
// 1032       }
// 1033   }
// 1034 
// 1035   getdir(sound_path,SOUND_PATH);
??life_proc_4:
        LDR      R1,??DataTable82  ;; SOUND_PATH
        ADD      R0,SP,#+24
        ADD      R0,R0,#+1024
        _BLF     ??getdir,??getdir??rA
// 1036 
// 1037 // усталость =100 сон
// 1038 // усталость =0 подъем
// 1039   if ((Pets[indx].Fatigue >= 100))
        LDR      R0,[R6, #+216]
        CMP      R0,#+100
        BLT      ??life_proc_10
// 1040     FatigueSleep(indx, bk, snd);
        LDR      R1,[SP, #+1640]
        MOV      R2,R5
        MOV      R0,R4
        BL       ??FatigueSleep
// 1041   if ((Pets[indx].Sleep != 0) && (Pets[indx].Fatigue <= 0))
??life_proc_10:
        LDR      R0,[R6, #+220]
        CMP      R0,#+0
        BEQ      ??life_proc_11
        LDR      R0,[R6, #+216]
        CMP      R0,#+1
        BGE      ??life_proc_11
// 1042     FatigueSleep(indx, bk, snd);
        LDR      R1,[SP, #+1640]
        MOV      R2,R5
        MOV      R0,R4
        BL       ??FatigueSleep
// 1043   if (Pets[indx].Sleep == 0) ++Pets[indx].Fatigue; else --Pets[indx].Fatigue;
??life_proc_11:
        LDR      R0,[R6, #+220]
        CMP      R0,#+0
        LDR      R0,[R6, #+216]
        SUBNE    R0,R0,#+1
        ADDEQ    R0,R0,#+1
        B        ??life_proc_12
??life_proc_9:
        STR      R9,[R6, #+60]
        STR      R9,[R6, #+248]
        LDR      R1,[SP, #+1640]
        MOV      R2,R5
??life_proc_3:
        MOV      R0,R4
        BL       ??ChangeStatusImage
        ADD      SP,SP,#+620
        CFI CFA R13+1060
        ADD      SP,SP,#+1024
        CFI CFA R13+36
        POP      {R4-R11,PC}
        CFI CFA R13+1680
// 1044 
// 1045 //  ++Behaviour;
// 1046   ++Pets[indx].Status.TimeAge;
// 1047   if (Pets[indx].Status.TimeAge >= Pets[indx].Status.Age*10+100)
??life_proc_12:
        LDR      R8,??life_proc_13  ;; SpeakMessage
        STR      R0,[R6, #+216]
        LDR      R0,[R6, #+4]
        MOV      R2,#+10
        ADD      R0,R0,#+1
        STR      R0,[R6, #+4]
        LDR      R1,[R6, #+0]
        MOV      R7,#+255
        MUL      R3,R2,R1
        ORR      R7,R7,#0xFF00
        ADD      R2,R3,#+100
        CMP      R0,R2
        BLT      ??life_proc_14
// 1048   {
// 1049     ++Pets[indx].Status.Age;
        ADD      R0,R1,#+1
// 1050     Pets[indx].Status.TimeAge       = 0;
// 1051     Pets[indx].Status.MaxHealth    += 2;
// 1052     Pets[indx].Status.MaxHunger    += 2;
// 1053     Pets[indx].Status.MaxHappiness += 2;
// 1054     Pets[indx].Status.MaxDirtiness += 2;
// 1055     Pets[indx].Status.MaxBoredom   += 2;
// 1056     Pets[indx].Status.MaxBehaviour += 2;
// 1057 
// 1058     //StatusPet.Health=StatusPet.MaxHealth;
// 1059     //StatusPet.Hunger=0;
// 1060     Pets[indx].Status.Happiness = Pets[indx].Status.MaxHappiness;
// 1061     Pets[indx].Status.Boredom=0;
// 1062     Pets[indx].Status.Behaviour = (int)2*Pets[indx].Status.MaxBehaviour/3;
        LDR      R1,??DataTable94  ;; 0x55555556
        STR      R0,[R6, #+0]
        MOV      R0,#+0
        STR      R0,[R6, #+4]
        LDR      R0,[R6, #+12]
        ADD      R0,R0,#+2
        STR      R0,[R6, #+12]
        LDR      R0,[R6, #+20]
        ADD      R0,R0,#+2
        STR      R0,[R6, #+20]
        LDR      R0,[R6, #+28]
        ADD      R0,R0,#+2
        STR      R0,[R6, #+28]
        LDR      R0,[R6, #+36]
        ADD      R0,R0,#+2
        STR      R0,[R6, #+36]
        LDR      R0,[R6, #+44]
        ADD      R0,R0,#+2
        STR      R0,[R6, #+44]
        LDR      R0,[R6, #+52]
        ADD      R0,R0,#+2
        STR      R0,[R6, #+52]
        LDR      R0,[R6, #+28]
        STR      R0,[R6, #+24]
        MOV      R0,#+0
        STR      R0,[R6, #+40]
        LDR      R0,[R6, #+52]
        LSL      R0,R0,#+1
        SMULL    R2,R3,R1,R0
        ADD      R0,R3,R0, LSR #+31
        STR      R0,[R6, #+48]
// 1063 
// 1064     FamilyLifeUpdate(indx);
        MOV      R0,R4
        BL       ??FamilyLifeUpdate
// 1065     if(NewBabyCheck(indx))
        MOV      R0,R4
        BL       ??NewBabyCheck
        CMP      R0,#+0
        BEQ      ??life_proc_15
// 1066     {
// 1067         if(snd) PlayFileV(sound_path, SoundName[CRY_SND], sndVolume);
        CMP      R5,#+0
        BEQ      ??life_proc_16
        LDR      R0,??DataTable100  ;; sndVolume
        LDR      R2,[R0, #+0]
        MOV      R0,#+252
        ORR      R0,R0,#0x600
        ADD      R1,R0,R8
        ADD      R0,SP,#+24
        ADD      R0,R0,#+1024
        SWI      +586
// 1068         start_vibra();
??life_proc_16:
        BL       ??start_vibra
// 1069         Light();
        BL       ??Light
// 1070         MessageBox(TextID_Create(Pets[indx].Status.name,ENC_UCS2,TEXTID_ANY_LEN), TextID_Create(LG_MSGNEWPET,ENC_UCS2,TEXTID_ANY_LEN), NOIMAGE, 1, 5000*msgShowTime, 0);
        MOV      R2,R7
        MOV      R1,#+0
        ADD      R0,R8,#+1040
        B        ??life_proc_17
// 1071     }
// 1072     else
// 1073     {
// 1074       if(snd) PlayFileV(sound_path, SoundName[BIRTHDAY_SND], sndVolume);
??life_proc_15:
        CMP      R5,#+0
        BEQ      ??life_proc_18
        LDR      R0,??DataTable100  ;; sndVolume
        LDR      R2,[R0, #+0]
        MOV      R0,#+184
        ORR      R0,R0,#0x500
        ADD      R1,R0,R8
        ADD      R0,SP,#+24
        ADD      R0,R0,#+1024
        SWI      +586
// 1075       start_vibra();
??life_proc_18:
        BL       ??start_vibra
// 1076       Light();
        BL       ??Light
// 1077       MessageBox(TextID_Create(Pets[indx].Status.name,ENC_UCS2,TEXTID_ANY_LEN), TextID_Create(LG_MSGAGE,ENC_UCS2,TEXTID_ANY_LEN), NOIMAGE, 1, 5000*msgShowTime, 0);
        MOV      R2,R7
        MOV      R1,#+0
        MOV      R0,#+60
        ORR      R0,R0,#0x400
        ADD      R0,R0,R8
??life_proc_17:
        SWI      +349
        MOV      R10,R0
        MOV      R2,R7
        MOV      R1,#+0
        ADD      R0,R6,#+64
        SWI      +349
        MOV      R1,#+0
        PUSH     {R1}
        CFI CFA R13+1684
        LDR      R1,??DataTable101  ;; msgShowTime
        MOV      R2,#+136
        LDR      R1,[R1, #+0]
        ORR      R2,R2,#0x1300
        MUL      R1,R2,R1
        MOV      R3,#+1
        PUSH     {R1}
        CFI CFA R13+1688
        MOV      R2,R7
        MOV      R1,R10
        SWI      +599
        ADD      SP,SP,#+8
        CFI CFA R13+1680
// 1078     }
// 1079 
// 1080     UpdateName();
        BL       ??UpdateName
// 1081   }
// 1082 
// 1083   // сон - процессы замедл€ютс€
// 1084   if ((Pets[indx].Sleep != 0) && (Pets[indx].Sleep != 3))
??life_proc_14:
        LDR      R0,[R6, #+220]
        CMP      R0,#+0
        BEQ      ??life_proc_19
        CMP      R0,#+3
        BEQ      ??life_proc_20
// 1085   {
// 1086     ++ Pets[indx].Sleep;
        ADD      R0,R0,#+1
        STR      R0,[R6, #+220]
// 1087     Pets[indx].Status.ImageStatus = DREAM_ICN;
        STR      R9,[R6, #+60]
// 1088     ChangeStatusImage(indx, bk, snd);
        B        ??life_proc_8
// 1089     return;
// 1090   }
// 1091 
// 1092   if (Pets[indx].Sleep != 0) Pets[indx].Sleep = 1;
??life_proc_20:
        MOV      R0,#+1
        STR      R0,[R6, #+220]
// 1093 
// 1094   //во врем€ сна
// 1095   if (Pets[indx].Sleep != 0)
// 1096   {
// 1097     ++Pets[indx].Status.Happiness;
        LDR      R0,[R6, #+24]
        ADD      R0,R0,#+1
        STR      R0,[R6, #+24]
// 1098     Pets[indx].Bathe = 0;
        MOV      R0,#+0
        STR      R0,[R6, #+228]
// 1099   }
// 1100 
// 1101   //когда не спит
// 1102   if (Pets[indx].Sleep == 0)
        LDR      R0,[R6, #+220]
        CMP      R0,#+0
        BNE      ??life_proc_21
// 1103   {
// 1104       if(!isCharging) --Pets[indx].Status.Behaviour; // дисциплина
??life_proc_19:
        LDR      R0,[SP, #+4]
        CMP      R0,#+0
        LDREQ    R0,[R6, #+48]
        SUBEQ    R0,R0,#+1
        STREQ    R0,[R6, #+48]
// 1105       // пакость = убивает процесс, если совсем дисциплина на нуле,
// 1106       // и чтобы сильно не ругали дисциплина увеличиваетс€ до 30%
// 1107 
// 1108        if ((Pets[indx].Status.Behaviour <= 0) && Malware_Ena)
        LDR      R0,[R6, #+48]
        CMP      R0,#+1
        BGE      ??life_proc_22
        LDR      R0,??life_proc_13+0x4  ;; Malware_Ena
        LDR      R0,[R0, #+0]
        CMP      R0,#+0
        BEQ      ??life_proc_22
// 1109        {
// 1110          int i,j,k;
// 1111          int mask=((int)LastExtDB())&0xF8000000;
        SWI      +33365
        AND      R0,R0,#0xF8000000
        STR      R0,[SP, #+16]
// 1112          BOOK * book;
// 1113          UI_APP_SESSION * session;
// 1114          int fkill=1;
        MOV      R10,#+1
// 1115 
// 1116          i=root_list_get_session_count();
        SWI      +499
        STR      R0,[SP, #+0]
// 1117          for (j=0;j<i;j++)
        MOV      R1,#+0
        STR      R1,[SP, #+8]
        CMP      R0,#+1
        BGE      ??life_proc_23
// 1118          {
// 1119            session=root_list_get_session(j);
// 1120            for (k=0;k<session->listbook->FirstFree;k++)
// 1121            {
// 1122              book=(BOOK*)List_Get(session->listbook,k);
// 1123              if (fkill)
// 1124              if (!isBookmanDaemonBook(book))
// 1125              {
// 1126                if((book->xguilist->guilist->FirstFree)||(((((int)book->onClose)&0xF8000000)!=mask)))
// 1127                {
// 1128                  if((!IsVolumeControllerBook(book))&&(!IsRightNowBook(book)))
// 1129                  {
// 1130                    if (((((int)book->onClose)&0xF8000000)==mask))
// 1131                    {// book or java
// 1132                      if (Find_StandbyBook()!=book)
// 1133                      {
// 1134                        if (int nameID = GetJavaName(book))
// 1135                        {
// 1136                          JavaSession_Manager(0x0E);
// 1137                        }
// 1138                        else
// 1139                        {
// 1140                          UI_Event_toBookID(RETURN_TO_STANDBY_EVENT,BookObj_GetBookID(book));
// 1141                          UI_Event_toBookID(TERMINATE_SESSION_EVENT,BookObj_GetBookID(book));
// 1142                        }
// 1143                        fkill=0;
// 1144                        Pets[indx].Status.Behaviour = Pets[indx].Status.MaxBehaviour/3;
// 1145                        if(snd) PlayFileV(sound_path, SoundName[OHDEER_SND], sndVolume);
// 1146                      }
// 1147                    }
// 1148                    else
// 1149                    {// elf
// 1150                      if(!isTamagochiBook(book))
// 1151                      {
// 1152                        if(Find_StandbyBook()!=book)
// 1153                        {
// 1154                          if (CheckEv(book,ELF_TERMINATE_EVENT))
// 1155                          {
// 1156                            UI_Event_toBookID(ELF_TERMINATE_EVENT,BookObj_GetBookID(book));
// 1157                            fkill=0;
// 1158                            Pets[indx].Status.Behaviour = Pets[indx].Status.MaxBehaviour/3;
// 1159                            if(snd) PlayFileV(sound_path, SoundName[OHDEER_SND], sndVolume);
// 1160                          }
// 1161                        }
// 1162                      }
// 1163                    }
// 1164                  }
// 1165                }
// 1166              }
// 1167            }
// 1168          }
// 1169        }
// 1170 
// 1171       // проверка на наличие в процессах игр
// 1172       if (Scan_Game_Ena)
??life_proc_22:
        LDR      R0,??life_proc_13+0x8  ;; Scan_Game_Ena
        LDR      R0,[R0, #+0]
        CMP      R0,#+0
        BEQ      ??life_proc_24
// 1173       {
// 1174         if (GameDetected())
        BL       ??GameDetected
        CMP      R0,#+0
        BEQ      ??life_proc_25
// 1175         {
// 1176           --Pets[indx].Status.Boredom; // скука
        LDR      R0,[R6, #+40]
        SUB      R0,R0,#+1
        STR      R0,[R6, #+40]
// 1177           ++Pets[indx].Status.Happiness;
        LDR      R0,[R6, #+24]
        ADD      R0,R0,#+1
        STR      R0,[R6, #+24]
        B        ??life_proc_26
// 1178         }
??life_proc_27:
        LDR      R1,[SP, #+8]
        ADD      R1,R1,#+1
        STR      R1,[SP, #+8]
??life_proc_23:
        LDR      R0,[SP, #+8]
        LDR      R1,[SP, #+0]
        CMP      R0,R1
        BGE      ??life_proc_22
        SWI      +500
        STR      R0,[SP, #+12]
        LDR      R0,[R0, #+0]
        MOV      R9,#+0
        LDRH     R0,[R0, #+2]
        CMP      R0,#+0
        BNE      ??life_proc_28
        B        ??life_proc_27
??life_proc_29:
        MOV      R0,R11
        BL       ??isTamagochiBook
        CMP      R0,#+0
        BNE      ??life_proc_30
        SWI      +305
        CMP      R0,R11
        BEQ      ??life_proc_30
        MOV      R1,#+229
        ORR      R1,R1,#0x300
        MOV      R0,R11
        BL       ??CheckEv
        CMP      R0,#+0
        BEQ      ??life_proc_30
        MOV      R0,R11
        SWI      +506
        MOV      R1,R0
        MOV      R0,#+229
        ORR      R0,R0,#0x300
??life_proc_31:
        SWI      +426
??life_proc_32:
        LDR      R0,[R6, #+52]
        LDR      R1,??DataTable94  ;; 0x55555556
        MOV      R10,#+0
        SMULL    R2,R3,R1,R0
        CMP      R5,#+0
        ADD      R0,R3,R0, LSR #+31
        STR      R0,[R6, #+48]
        BEQ      ??life_proc_30
        LDR      R0,??DataTable100  ;; sndVolume
        LDR      R2,[R0, #+0]
        MOV      R0,#+148
        ORR      R0,R0,#0x600
        ADD      R1,R0,R8
        ADD      R0,SP,#+24
        ADD      R0,R0,#+1024
        SWI      +586
??life_proc_30:
        ADD      R9,R9,#+1
??life_proc_28:
        LDR      R0,[SP, #+12]
        LDR      R0,[R0, #+0]
        LDRH     R1,[R0, #+2]
        CMP      R9,R1
        BGE      ??life_proc_27
        MOV      R1,R9
        SWI      +429
        MOV      R11,R0
        CMP      R10,#+0
        BEQ      ??life_proc_30
        BL       ??isBookmanDaemonBook
        CMP      R0,#+0
        BNE      ??life_proc_30
        LDR      R0,[R11, #+20]
        LDR      R0,[R0, #+4]
        LDRH     R0,[R0, #+2]
        CMP      R0,#+0
        BNE      ??life_proc_33
        LDR      R0,[R11, #+4]
        LDR      R1,[SP, #+16]
        AND      R0,R0,#0xF8000000
        CMP      R0,R1
        BEQ      ??life_proc_30
??life_proc_33:
        MOV      R0,R11
        SWI      +457
        CMP      R0,#+0
        BNE      ??life_proc_30
        MOV      R0,R11
        SWI      +456
        CMP      R0,#+0
        BNE      ??life_proc_30
        LDR      R0,[R11, #+4]
        LDR      R1,[SP, #+16]
        AND      R0,R0,#0xF8000000
        CMP      R0,R1
        BNE      ??life_proc_29
        SWI      +305
        CMP      R0,R11
        BEQ      ??life_proc_30
        MOV      R0,R11
        BL       ??GetJavaName
        CMP      R0,#+0
        BEQ      ??life_proc_34
        MOV      R0,#+14
        SWI      +576
        B        ??life_proc_32
??life_proc_34:
        MOV      R0,R11
        SWI      +506
        MOV      R1,R0
        LDR      R0,??life_proc_13+0xC  ;; RETURN_TO_STANDBY_EVENT
        LDR      R0,[R0, #+0]
        SWI      +426
        MOV      R0,R11
        SWI      +506
        MOV      R1,R0
        LDR      R0,??life_proc_13+0x10  ;; TERMINATE_SESSION_EVENT
        LDR      R0,[R0, #+0]
        B        ??life_proc_31
// 1179         else
// 1180         {
// 1181           //--StatusPet.Happiness;
// 1182           if(Pets[indx].Bathe == 0) ++Pets[indx].Status.Boredom; // скука
??life_proc_25:
        LDR      R0,[R6, #+228]
        CMP      R0,#+0
        LDREQ    R0,[R6, #+40]
        ADDEQ    R0,R0,#+1
        STREQ    R0,[R6, #+40]
// 1183           Pets[indx].simg_status=0;
        MOV      R0,#+0
        STR      R0,[R6, #+248]
        B        ??life_proc_26
// 1184         }
// 1185       }
// 1186       else
// 1187       {
// 1188           if(Pets[indx].Bathe == 0) ++Pets[indx].Status.Boredom; // скука
??life_proc_24:
        LDR      R0,[R6, #+228]
        CMP      R0,#+0
        LDREQ    R0,[R6, #+40]
        ADDEQ    R0,R0,#+1
        STREQ    R0,[R6, #+40]
// 1189       }
// 1190       // если скучно включаем музыку (если разрешили)
// 1191       if(Music_Ena)
??life_proc_26:
        LDR      R0,??life_proc_13+0x14  ;; Music_Ena
        LDR      R0,[R0, #+0]
        CMP      R0,#+0
        BEQ      ??life_proc_35
// 1192       if(Pets[indx].Status.Boredom > (Pets[indx].Status.MaxBoredom - 10))
        LDR      R0,[R6, #+44]
        LDR      R1,[R6, #+40]
        SUB      R0,R0,#+10
        CMP      R0,R1
        BGE      ??life_proc_35
// 1193       {
// 1194         if(!FindBook(get_IsAudioPlayerBook()) && (!FindBook(get_IsFmRadioBook())))
        SWI      +33419
        SWI      +304
        CMP      R0,#+0
        BNE      ??life_proc_35
        SWI      +33418
        SWI      +304
        CMP      R0,#+0
        BNE      ??life_proc_35
// 1195         {
// 1196           GoMusic();
        SWI      +583
        B        ??life_proc_35
// 1197         }
// 1198       }
// 1199   }
// 1200   else
// 1201   {
// 1202       // проверка на наличие в процессах игр
// 1203       if (Scan_Game_Ena)
??life_proc_21:
        LDR      R0,??life_proc_13+0x8  ;; Scan_Game_Ena
        LDR      R0,[R0, #+0]
        CMP      R0,#+0
        BEQ      ??life_proc_35
// 1204       {
// 1205         // ≈сли игры найдены, то просыпаемс€ поиграть
// 1206         if (GameDetected())
        BL       ??GameDetected
        CMP      R0,#+0
        BEQ      ??life_proc_35
// 1207         {
// 1208           SleepCommand(indx, bk, snd);
        LDR      R1,[SP, #+1640]
        MOV      R2,R5
        MOV      R0,R4
        BL       ??SleepCommand
// 1209           --Pets[indx].Status.Boredom; // скука
        LDR      R0,[R6, #+40]
        SUB      R0,R0,#+1
        STR      R0,[R6, #+40]
// 1210           ++Pets[indx].Status.Happiness;
        LDR      R0,[R6, #+24]
        ADD      R0,R0,#+1
        STR      R0,[R6, #+24]
// 1211         }
// 1212       }
// 1213   }
// 1214 
// 1215   // питание
// 1216   if(!isCharging) ++Pets[indx].Status.Hunger;
??life_proc_35:
        LDR      R0,[SP, #+4]
// 1217   // проверка наличи€ жратвы и наличие мусора
// 1218   int Eat=0;
// 1219   if (Pets[indx].Status.Hunger > (int)Pets[indx].Status.MaxHunger/3) Eat=1;
        LDR      R1,??DataTable94  ;; 0x55555556
        CMP      R0,#+0
        LDREQ    R0,[R6, #+16]
        MOV      R9,#+0
        ADDEQ    R0,R0,#+1
        STREQ    R0,[R6, #+16]
        LDR      R0,[R6, #+20]
        SMULL    R2,R3,R1,R0
        LDR      R1,[R6, #+16]
        ADD      R0,R3,R0, LSR #+31
        CMP      R0,R1
// 1220   // ест только когда не спит
// 1221   if (Pets[indx].Sleep!=0) Eat=0;
        LDR      R0,[R6, #+220]
        MOVLT    R9,#+1
        CMP      R0,#+0
// 1222   //если зар€дка, то будем кушать
// 1223   if(isCharging) Eat=1;
        LDR      R0,[SP, #+4]
        MOVNE    R9,#+0
        CMP      R0,#+0
        MOVNE    R9,#+1
// 1224 
// 1225   int findgvn=0;
        MOV      R1,#+0
        STR      R1,[SP, #+20]
// 1226   int fEat=0;
        STR      R1,[SP, #+12]
// 1227   wchar_t eat_path[256];
// 1228   wchar_t eat_filter[128];
// 1229   DIR_HANDLE * dirHandle = 0;
// 1230   wchar_t * ext;
// 1231 
// 1232   getdir(eat_path, ROOM_PATH);
        LDR      R1,??life_proc_13+0x18  ;; ROOM_PATH
        ADD      R0,SP,#+536
        _BLF     ??getdir,??getdir??rA
// 1233   wstrcpy(eat_filter,eat_path);
        ADD      R1,SP,#+536
        ADD      R0,SP,#+280
        ADD      R0,R0,#+1024
        SWI      +338
// 1234   wstrcat(eat_filter,L"/*.*");
        MOV      R0,#+100
        ORR      R0,R0,#0x400
        ADD      R1,R0,R8
        ADD      R0,SP,#+280
        ADD      R0,R0,#+1024
        SWI      +340
// 1235 
// 1236   dirHandle = AllocDirHandle(eat_path);
        ADD      R0,SP,#+536
        SWI      +285
        STR      R0,[SP, #+0]
// 1237   if(dirHandle)
        CMP      R0,#+0
        BEQ      ??life_proc_36
// 1238   {
// 1239     DirHandle_SetFilterStr(dirHandle, eat_filter);
        ADD      R1,SP,#+280
        ADD      R1,R1,#+1024
        SWI      +767
// 1240     FILELISTITEM *buf = (FILELISTITEM *)malloc(sizeof(FILELISTITEM));
        MOV      R0,#+768
        SWI      +259
        STR      R0,[SP, #+16]
// 1241     FILELISTITEM *item = GetFname(dirHandle,buf);
        MOV      R1,R0
        LDR      R0,[SP, #+0]
        SWI      +286
        MOVS     R10,R0
        BEQ      ??life_proc_37
// 1242     FSTAT _fstat;
// 1243     while(item)
// 1244     {
// 1245       ext = getFileExtention(item->fname);
??life_proc_38:
        LDR      R0,[R10, #+8]
        SWI      +294
// 1246       fstat(item->path,item->fname,&_fstat);
        LDR      R1,[R10, #+8]
        MOV      R11,R0
        LDR      R0,[R10, #+4]
        ADD      R2,SP,#+588
        ADD      R2,R2,#+1024
        SWI      +284
// 1247 
// 1248       chmod(item->path,item->fname, 0x1FF);
        LDR      R0,[R10, #+4]
        LDR      R1,[R10, #+8]
        BIC      R2,R7,#0xFE00
        SWI      +657
// 1249 
// 1250       if(wstrncmp(ext,L"gvn",3) == 0)
        MOV      R2,#+3
        MOV      R0,#+124
        ORR      R0,R0,#0x400
        ADD      R1,R0,R8
        MOV      R0,R11
        SWI      +507
        CMP      R0,#+0
        BNE      ??life_proc_39
// 1251       {
// 1252         int err = 0;
        MOV      R1,#+0
        STR      R1,[SP, #+8]
// 1253         if((findgvn < BATHE_THRESHOLD) && (Pets[indx].Bathe)) FileDelete(item->path,item->fname,&err);
        LDR      R0,[SP, #+20]
        CMP      R0,#+3
        BGE      ??life_proc_40
        LDR      R0,[R6, #+228]
        CMP      R0,#+0
        BEQ      ??life_proc_40
        LDR      R1,[R10, #+8]
        LDR      R0,[R10, #+4]
        ADD      R2,SP,#+8
        SWI      +522
// 1254         ++findgvn;
??life_proc_40:
        LDR      R1,[SP, #+20]
        ADD      R1,R1,#+1
        STR      R1,[SP, #+20]
        B        ??life_proc_41
// 1255       }
// 1256       else
// 1257       {
// 1258         //кормимс€
// 1259         if (Eat)
??life_proc_39:
        CMP      R9,#+0
        BEQ      ??life_proc_41
// 1260         if (Pets[indx].Status.Hunger > 0)
        LDR      R0,[R6, #+16]
        CMP      R0,#+1
        BLT      ??life_proc_41
// 1261         // ≈сли зар€дка включена, то вместо файлов питаемс€ от зар€дки.
// 1262         if(isCharging)
        LDR      R1,[SP, #+4]
        CMP      R1,#+0
        BEQ      ??life_proc_42
// 1263         {
// 1264           Pets[indx].Status.Hunger -= 5;
        SUB      R0,R0,#+5
        STR      R0,[R6, #+16]
// 1265           fEat=1;
        MOV      R1,#+1
        STR      R1,[SP, #+12]
// 1266           Eat = 0; // при зар€дке едим один раз за цикл
        MOV      R9,#+0
        B        ??life_proc_41
// 1267         }
// 1268         else
// 1269         {
// 1270           if (_fstat.fsize < (Pets[indx].Status.Age+1+5)*1024)
??life_proc_42:
        LDR      R0,[SP, #+1620]
        LDR      R1,[R6, #+0]
        ADD      R1,R1,#+6
        CMP      R0,R1, LSL #+10
        BGE      ??life_proc_41
// 1271           {
// 1272             int in = (int)_fstat.fsize/1024;
        ASR      R1,R0,#+9
        ADD      R0,R0,R1, LSR #+22
// 1273             if (in == 0) in = 1;
// 1274             Pets[indx].Status.Hunger -= in;
        LDR      R1,[R6, #+16]
        ASRS     R0,R0,#+10
        MOVEQ    R0,#+1
        SUB      R0,R1,R0
        STR      R0,[R6, #+16]
// 1275             // файл перименовываем в мусор
// 1276             wchar_t name2[256];
// 1277             wstrcpy(name2,item->fname);
        LDR      R1,[R10, #+8]
        ADD      R0,SP,#+24
        SWI      +338
// 1278             wstrcat(name2,L".gvn");
        ADD      R1,R8,#+1136
        ADD      R0,SP,#+24
        SWI      +340
// 1279             rename(item->path, item->fname, item->path, name2, 0);
        LDR      R0,[R10, #+4]
        MOV      R1,#+0
        PUSH     {R1}
        CFI CFA R13+1684
        LDR      R1,[R10, #+8]
        ADD      R3,SP,#+28
        MOV      R2,R0
        SWI      +658
// 1280             fEat=1;
        MOV      R1,#+1
        STR      R1,[SP, #+16]
        ADD      SP,SP,#+4
        CFI CFA R13+1680
// 1281           }
// 1282         }
// 1283       }
// 1284       item = GetFname(dirHandle,buf);
??life_proc_41:
        LDR      R0,[SP, #+0]
        LDR      R1,[SP, #+16]
        SWI      +286
        MOVS     R10,R0
// 1285     }
        BNE      ??life_proc_38
// 1286     if(fEat && snd) PlayFileV(sound_path, SoundName[OHDEER_SND], sndVolume);
        LDR      R0,[SP, #+12]
        CMP      R0,#+0
        CMPNE    R5,#+0
        BEQ      ??life_proc_37
        LDR      R0,??DataTable100  ;; sndVolume
        LDR      R2,[R0, #+0]
        MOV      R0,#+148
        ORR      R0,R0,#0x600
        ADD      R1,R0,R8
        ADD      R0,SP,#+24
        ADD      R0,R0,#+1024
        SWI      +586
// 1287     mfree(buf);
??life_proc_37:
        LDR      R0,[SP, #+16]
        SWI      +260
// 1288     DestroyDirHandle(dirHandle);
        LDR      R0,[SP, #+0]
        SWI      +596
        B        ??life_proc_43
// 1289   }
// 1290   else
// 1291   {
// 1292     if(snd) PlayFileV(sound_path, SoundName[OHDEER_SND], sndVolume);
??life_proc_36:
        CMP      R5,#+0
        BEQ      ??life_proc_44
        LDR      R0,??DataTable100  ;; sndVolume
        LDR      R2,[R0, #+0]
        MOV      R0,#+148
        ORR      R0,R0,#0x600
        ADD      R1,R0,R8
        ADD      R0,SP,#+24
        ADD      R0,R0,#+1024
        SWI      +586
// 1293     MessageBox(TextID_Create(Pets[indx].Status.name,ENC_UCS2,TEXTID_ANY_LEN), TextID_Create(LG_MSGROOMERR,ENC_UCS2,TEXTID_ANY_LEN), NOIMAGE, 1, 5000*msgShowTime, 0);
??life_proc_44:
        MOV      R2,R7
        MOV      R1,#+0
        MOV      R0,#+132
        ORR      R0,R0,#0x400
        ADD      R0,R0,R8
        SWI      +349
        MOV      R9,R0
        MOV      R2,R7
        MOV      R1,#+0
        ADD      R0,R6,#+64
        SWI      +349
        MOV      R1,#+0
        PUSH     {R1}
        CFI CFA R13+1684
        LDR      R1,??DataTable101  ;; msgShowTime
        MOV      R2,#+136
        LDR      R1,[R1, #+0]
        ORR      R2,R2,#0x1300
        MUL      R1,R2,R1
        MOV      R3,#+1
        PUSH     {R1}
        CFI CFA R13+1688
        MOV      R2,R7
        MOV      R1,R9
        SWI      +599
        ADD      SP,SP,#+8
        CFI CFA R13+1680
// 1294   }
// 1295   // голод
// 1296   if (Pets[indx].Status.Hunger > 2*Pets[indx].Status.MaxHunger/3)
??life_proc_43:
        LDR      R0,[R6, #+20]
        LDR      R1,??DataTable94  ;; 0x55555556
        LSL      R0,R0,#+1
        SMULL    R2,R3,R1,R0
        LDR      R1,[R6, #+16]
        ADD      R0,R3,R0, LSR #+31
        CMP      R0,R1
        BGE      ??life_proc_45
// 1297   {
// 1298     if(!isCharging) --Pets[indx].Status.Happiness;
        LDR      R0,[SP, #+4]
        CMP      R0,#+0
        LDREQ    R0,[R6, #+24]
        SUBEQ    R0,R0,#+1
        STREQ    R0,[R6, #+24]
// 1299     if (Pets[indx].Sleep!=0) HungerSleep(indx, bk, snd);
        LDR      R0,[R6, #+220]
        CMP      R0,#+0
        BEQ      ??life_proc_45
        LDR      R1,[SP, #+1640]
        MOV      R2,R5
        MOV      R0,R4
        BL       ??HungerSleep
// 1300   }
// 1301   // сытый
// 1302   if (Pets[indx].Status.Hunger==0) ++Pets[indx].Status.Happiness;
??life_proc_45:
        LDR      R0,[R6, #+16]
        CMP      R0,#+0
        LDREQ    R0,[R6, #+24]
        ADDEQ    R0,R0,#+1
        STREQ    R0,[R6, #+24]
// 1303 
// 1304   // чистота
// 1305   Pets[indx].Status.Dirtiness = findgvn;
        LDR      R0,[SP, #+20]
        STR      R0,[R6, #+32]
// 1306   if (Pets[indx].Status.Dirtiness == 0) Pets[indx].Bathe = 0;
        CMP      R0,#+0
        STREQ    R0,[R6, #+228]
// 1307   if (Pets[indx].Status.Dirtiness > Pets[indx].Status.MaxDirtiness/2) --Pets[indx].Status.Health;
        LDR      R0,[R6, #+36]
        LDR      R1,[R6, #+32]
        ADD      R0,R0,R0, LSR #+31
        CMP      R1,R0, ASR #+1
        LDRGT    R0,[R6, #+8]
// 1308   if (Pets[indx].Status.Dirtiness > 2*Pets[indx].Status.MaxDirtiness/3) --Pets[indx].Status.Happiness;
        LDR      R1,??DataTable94  ;; 0x55555556
        SUBGT    R0,R0,#+1
        STRGT    R0,[R6, #+8]
        LDR      R0,[R6, #+36]
        LSL      R0,R0,#+1
        SMULL    R2,R3,R1,R0
        LDR      R1,[R6, #+32]
        ADD      R0,R3,R0, LSR #+31
        CMP      R0,R1
        LDRLT    R0,[R6, #+24]
// 1309 
// 1310   if (Pets[indx].Status.Behaviour <= Pets[indx].Status.MaxBehaviour/10) --Pets[indx].Status.Health;
        LDR      R1,??life_proc_13+0x1C  ;; 0x66666667
        SUBLT    R0,R0,#+1
        STRLT    R0,[R6, #+24]
        LDR      R0,[R6, #+52]
        SMULL    R2,R3,R1,R0
        LDR      R1,[R6, #+48]
        ASR      R3,R3,#+2
        ADD      R0,R3,R0, LSR #+31
        CMP      R0,R1
        LDRGE    R0,[R6, #+8]
        SUBGE    R0,R0,#+1
        STRGE    R0,[R6, #+8]
// 1311   if (Pets[indx].Status.Boredom   >  Pets[indx].Status.MaxBoredom/2) --Pets[indx].Status.Happiness;
        LDR      R0,[R6, #+44]
        LDR      R1,[R6, #+40]
        ADD      R0,R0,R0, LSR #+31
        CMP      R1,R0, ASR #+1
        LDRGT    R0,[R6, #+24]
        SUBGT    R0,R0,#+1
        STRGT    R0,[R6, #+24]
// 1312   if (Pets[indx].Status.Happiness <= Pets[indx].Status.MaxHappiness/2) --Pets[indx].Status.Health;
        LDR      R0,[R6, #+28]
        LDR      R1,[R6, #+24]
        ADD      R0,R0,R0, LSR #+31
        CMP      R1,R0, ASR #+1
        LDRLE    R0,[R6, #+8]
        SUBLE    R0,R0,#+1
        STRLE    R0,[R6, #+8]
// 1313 
// 1314   // проверки максимальных - минимальных значений
// 1315   VerifyStatus(indx);
        MOV      R0,R4
        BL       ??VerifyStatus
// 1316 
// 1317   // только дл€ основного питомца
// 1318   if(indx == 0)
        CMP      R4,#+0
        BNE      ??life_proc_46
// 1319   {
// 1320 //    MyBOOK* book = (MyBOOK *)bk;
// 1321     if(Pets[0].Status.Age >= PARENT_AGE)
        LDR      R0,??DataTable104  ;; Pets
        LDR      R1,??DataTable122  ;; PARENT_AGE
        LDR      R0,[R0, #+0]
        LDR      R1,[R1, #+0]
        CMP      R0,R1
        BCC      ??life_proc_46
// 1322     if(Pets[0].Status.Count == 1)
        LDR      R0,??life_proc_13+0x20  ;; Pets + 196
        LDR      R0,[R0, #+0]
        CMP      R0,#+1
        BNE      ??life_proc_47
// 1323     {
// 1324       if(Pets[0].Sleep == 0)
        LDR      R0,??life_proc_13+0x24  ;; Pets + 220
        LDR      R0,[R0, #+0]
        CMP      R0,#+0
        BNE      ??life_proc_46
// 1325       if((Pets[0].Status.TimeAge & 0xF) == 0)
        LDR      R0,??life_proc_13+0x28  ;; Pets + 4
        LDR      R0,[R0, #+0]
        TST      R0,#0xF
        BNE      ??life_proc_46
// 1326       if((Pets[0].Status.Sex == 0) || (Pets[0].Status.Sex == 1))
        LDR      R0,??life_proc_13+0x2C  ;; Pets + 192
        LDR      R0,[R0, #+0]
        CMP      R0,#+0
        BEQ      ??life_proc_48
        CMP      R0,#+1
        BNE      ??life_proc_46
// 1327       {
// 1328         if(Pets[0].Status.Sex == 0)
// 1329           MessageBox(TextID_Create(Pets[0].Status.name,ENC_UCS2,TEXTID_ANY_LEN), TextID_Create(LG_MSGNEEDFRIEND,ENC_UCS2,TEXTID_ANY_LEN), NOIMAGE, 1, 5000*msgShowTime, 0);
// 1330         else
// 1331           MessageBox(TextID_Create(Pets[0].Status.name,ENC_UCS2,TEXTID_ANY_LEN), TextID_Create(LG_MSGNEEDGIRL,ENC_UCS2,TEXTID_ANY_LEN), NOIMAGE, 1, 5000*msgShowTime, 0);
        MOV      R2,R7
        MOV      R1,#+0
        MOV      R0,#+248
??life_proc_49:
        ORR      R0,R0,#0x400
        ADD      R0,R0,R8
        SWI      +349
        MOV      R9,R0
        LDR      R0,??life_proc_13+0x30  ;; Pets + 64
        MOV      R2,R7
        MOV      R1,#+0
        SWI      +349
        MOV      R1,#+0
        PUSH     {R1}
        CFI CFA R13+1684
        LDR      R1,??DataTable101  ;; msgShowTime
        MOV      R2,#+136
        LDR      R1,[R1, #+0]
        ORR      R2,R2,#0x1300
        MUL      R1,R2,R1
        MOV      R3,#+1
        PUSH     {R1}
        CFI CFA R13+1688
        MOV      R2,R7
        MOV      R1,R9
        SWI      +599
        ADD      SP,SP,#+8
        CFI CFA R13+1680
// 1332 
// 1333         if(snd) PlayFileV(sound_path, SoundName[OW_SND], sndVolume);
        CMP      R5,#+0
        BEQ      ??life_proc_50
        LDR      R0,??DataTable100  ;; sndVolume
        LDR      R2,[R0, #+0]
        MOV      R0,#+212
        ORR      R0,R0,#0x600
        ADD      R1,R0,R8
        ADD      R0,SP,#+24
        ADD      R0,R0,#+1024
        SWI      +586
// 1334         start_vibra();
??life_proc_50:
        BL       ??start_vibra
// 1335         Light();
        BL       ??Light
// 1336         Pets[0].Status.needFriend = 1;
        LDR      R0,??life_proc_13+0x34  ;; Pets + 204
        MOV      R1,#+1
        B        ??life_proc_51
??life_proc_48:
        MOV      R2,R7
        MOV      R1,#+0
        MOV      R0,#+212
        B        ??life_proc_49
// 1337       }
// 1338     }
// 1339     else
// 1340     {
// 1341       Pets[0].Status.needFriend = 0;
??life_proc_47:
        LDR      R0,??life_proc_13+0x34  ;; Pets + 204
        MOV      R1,#+0
??life_proc_51:
        STR      R1,[R0, #+0]
// 1342     }
// 1343   }
// 1344 
// 1345   // суицид и смерть
// 1346   if ((Pets[indx].Status.Health == 0) ||
// 1347       (Pets[indx].Status.Hunger >= Pets[indx].Status.MaxHunger) ||
// 1348       (Pets[indx].Status.Happiness == 0))
??life_proc_46:
        LDR      R0,[R6, #+8]
        CMP      R0,#+0
        BEQ      ??life_proc_52
        LDR      R0,[R6, #+16]
        LDR      R1,[R6, #+20]
        CMP      R0,R1
        BGE      ??life_proc_52
        LDR      R0,[R6, #+24]
        CMP      R0,#+0
        BNE      ??life_proc_53
// 1349   {
// 1350     Pets[indx].Status.StatusDeath=1;
??life_proc_52:
        MOV      R0,#+1
        STR      R0,[R6, #+56]
// 1351     if(snd) PlayFileV(sound_path, SoundName[BYEBYE_SND], sndVolume);
        CMP      R5,#+0
        BEQ      ??life_proc_54
        LDR      R0,??DataTable100  ;; sndVolume
        ADD      R1,R8,#+1568
        LDR      R2,[R0, #+0]
        ADD      R0,SP,#+24
        ADD      R0,R0,#+1024
        SWI      +586
// 1352     start_vibra();
??life_proc_54:
        BL       ??start_vibra
// 1353     Light();
        BL       ??Light
// 1354   }
// 1355 
// 1356   ChangeStatusImage(indx, bk, snd);
??life_proc_53:
        LDR      R1,[SP, #+1640]
        MOV      R2,R5
        MOV      R0,R4
        BL       ??ChangeStatusImage
// 1357 
// 1358   // звуки и сообщени€
// 1359   // дисциплина
// 1360   if (Pets[indx].Status.StatusDeath !=1)
        LDR      R0,[R6, #+56]
        CMP      R0,#+1
        BEQ      ??life_proc_55
// 1361   if (Pets[indx].Sleep==0)
        LDR      R0,[R6, #+220]
        CMP      R0,#+0
        BNE      ??life_proc_55
// 1362   if (Pets[indx].Behaviour >= Pets[indx].Status.Behaviour)
        LDR      R0,[R6, #+224]
        LDR      R1,[R6, #+48]
        CMP      R0,R1
        BLT      ??life_proc_55
// 1363   {
// 1364     if(snd) PlayFileV(sound_path, SoundName[GLOBAL_SND], sndVolume);
        CMP      R5,#+0
        BEQ      ??life_proc_56
        LDR      R0,??DataTable100  ;; sndVolume
        ADD      R1,R8,#+1440
        LDR      R2,[R0, #+0]
        ADD      R0,SP,#+24
        ADD      R0,R0,#+1024
        SWI      +586
// 1365     start_vibra();
??life_proc_56:
        BL       ??start_vibra
// 1366     Light();
        BL       ??Light
// 1367     Pets[indx].Behaviour=0;
        MOV      R0,#+0
        STR      R0,[R6, #+224]
// 1368     MessageBox(TextID_Create(Pets[indx].Status.name,ENC_UCS2,TEXTID_ANY_LEN), TextID_Create(SpeakMessage[Random() & mess_mask],ENC_UCS2,TEXTID_ANY_LEN), NOIMAGE, 1, 5000*msgShowTime, 0);
        _BLF     ??Random,??Random??rA
        AND      R0,R0,#0x1F
        LDR      R0,[R8, +R0, LSL #+2]
        MOV      R2,R7
        MOV      R1,#+0
        SWI      +349
        MOV      R4,R0
        MOV      R2,R7
        MOV      R1,#+0
        ADD      R0,R6,#+64
        SWI      +349
        MOV      R1,#+0
        PUSH     {R1}
        CFI CFA R13+1684
        LDR      R1,??DataTable101  ;; msgShowTime
        MOV      R2,#+136
        LDR      R1,[R1, #+0]
        ORR      R2,R2,#0x1300
        MUL      R1,R2,R1
        MOV      R3,#+1
        PUSH     {R1}
        CFI CFA R13+1688
        MOV      R2,R7
        MOV      R1,R4
        SWI      +599
        ADD      SP,SP,#+8
        CFI CFA R13+1680
??life_proc_55:
        ADD      SP,SP,#+620
        CFI CFA R13+1060
        ADD      SP,SP,#+1024
        CFI CFA R13+36
        POP      {R4-R11,PC}      ;; return
        DATA
??life_proc_13:
        DC32     SpeakMessage
        DC32     Malware_Ena
        DC32     Scan_Game_Ena
        DC32     RETURN_TO_STANDBY_EVENT
        DC32     TERMINATE_SESSION_EVENT
        DC32     Music_Ena
        DC32     ROOM_PATH
        DC32     0x66666667
        DC32     Pets + 196
        DC32     Pets + 220
        DC32     Pets + 4
        DC32     Pets + 192
        DC32     Pets + 64
        DC32     Pets + 204
        CFI EndBlock cfiBlock82
// 1369   }
// 1370 }

        RSEG CODE:CODE:NOROOT(2)
        DATA
??DataTable80:
        DC32     SYNC

        RSEG CODE:CODE:NOROOT(2)
        DATA
??DataTable81:
        DC32     Night_Ena

        RSEG CODE:CODE:NOROOT(2)
        DATA
??DataTable82:
        DC32     SOUND_PATH

        RSEG CODE:CODE:NOROOT(2)
        DATA
??DataTable94:
        DC32     0x55555556

        RSEG CODE:CODE:NOROOT(2)
        DATA
??DataTable100:
        DC32     sndVolume

        RSEG CODE:CODE:NOROOT(2)
        DATA
??DataTable101:
        DC32     msgShowTime

        RSEG CODE:CODE:NOROOT(2)
        CFI Block cfiBlock83 Using cfiCommon1
        CFI NoFunction
        THUMB
??onTimer_life??rT:
        BX       PC
        Nop      
        CFI EndBlock cfiBlock83
        REQUIRE ??onTimer_life
// 1371 

        RSEG CODE:CODE:NOROOT(2)
        CFI Block cfiBlock84 Using cfiCommon0
        CFI Function ??onTimer_life
        ARM
// 1372 void onTimer_life (u16 timerID, LPARAM lparam)
// 1373 {
??onTimer_life:
        PUSH     {R1,R4-R7,LR}
        CFI ?RET Frame(CFA, -4)
        CFI R7 Frame(CFA, -8)
        CFI R6 Frame(CFA, -12)
        CFI R5 Frame(CFA, -16)
        CFI R4 Frame(CFA, -20)
        CFI CFA R13+24
// 1374   BOOK *bk = (BOOK *)lparam;
        MOV      R0,SP
        _BLF     `??operator void *`,`??operator void *??rA`
        MOV      R4,R0
// 1375   int snd = (!GetSilent() || sndOnSilent) && sndEnable && (!isNight());
        SWI      +587
        CMP      R0,#+0
        BEQ      ??onTimer_life_1
        LDR      R0,??DataTable146  ;; sndOnSilent
        LDR      R0,[R0, #+0]
        CMP      R0,#+0
        BEQ      ??onTimer_life_2
??onTimer_life_1:
        LDR      R0,??DataTable147  ;; sndEnable
        LDR      R0,[R0, #+0]
        CMP      R0,#+0
        BEQ      ??onTimer_life_2
        BL       ??isNight
        CMP      R0,#+0
        MOVEQ    R5,#+1
        BEQ      ??onTimer_life_3
??onTimer_life_2:
        MOV      R5,#+0
// 1376 
// 1377   for(int i=0; i<Pets[0].Status.Count; i++) life_proc(i, bk, snd);
??onTimer_life_3:
        LDR      R7,??DataTable104  ;; Pets
        MOV      R6,#+0
        LDR      R0,[R7, #+196]
        CMP      R0,#+1
        BGE      ??onTimer_life_4
        B        ??onTimer_life_5
??onTimer_life_6:
        MOV      R2,R5
        MOV      R1,R4
        MOV      R0,R6
        BL       ??life_proc
        ADD      R6,R6,#+1
??onTimer_life_4:
        LDR      R0,[R7, #+196]
        CMP      R6,R0
        BLT      ??onTimer_life_6
// 1378 
// 1379   Timer_ReSet(&timer_life,TMR_SECOND*60*(SpeedLife+1),onTimer_life,lparam);
??onTimer_life_5:
        LDR      R0,??onTimer_life_7  ;; SpeedLife
        LDR      R3,[SP, #+0]
        LDR      R0,[R0, #+0]
        LDR      R2,??DataTable132  ;; ??onTimer_life
        ADD      R0,R0,#+1
        MOV      R4,#+96
        ORR      R4,R4,#0xEA00
        MUL      R1,R4,R0
        LDR      R0,??onTimer_life_7+0x4  ;; timer_save + 4
        SWI      +296
// 1380 }
        POP      {R0,R4-R7,PC}    ;; return
        DATA
??onTimer_life_7:
        DC32     SpeedLife
        DC32     timer_save + 4
        CFI EndBlock cfiBlock84

        RSEG CODE:CODE:NOROOT(2)
        DATA
??DataTable104:
        DC32     Pets

        RSEG CODE:CODE:NOROOT(2)
        CFI Block cfiBlock85 Using cfiCommon1
        CFI NoFunction
        THUMB
??NewKey??rT:
        BX       PC
        Nop      
        CFI EndBlock cfiBlock85
        REQUIRE ??NewKey
// 1381 
// 1382 // ----------------------------------------------------------------------------
// 1383 

        RSEG CODE:CODE:NOROOT(2)
        CFI Block cfiBlock86 Using cfiCommon0
        CFI Function ??NewKey
        ARM
// 1384 int NewKey(int key, int r1 , int mode, LPARAM, DISP_OBJ*)
// 1385 {
??NewKey:
        PUSH     {R4,R5,LR}
        CFI ?RET Frame(CFA, -4)
        CFI R5 Frame(CFA, -8)
        CFI R4 Frame(CFA, -12)
        CFI CFA R13+12
        MOV      R4,R0
        MOV      R5,R2
// 1386   if(!isKeylocked())
        SWI      +439
        CMP      R0,#+0
        BNE      ??NewKey_1
// 1387   {
// 1388     if (mode==ACTIVE_KEY_STYLE)
        LDR      R0,??NewKey_2    ;; ACTIVE_KEY_STYLE
        LDR      R0,[R0, #+0]
        CMP      R5,R0
        BNE      ??NewKey_1
// 1389     {
// 1390       if (key==ACTIVE_KEY)
        LDR      R0,??NewKey_2+0x4  ;; ACTIVE_KEY
        LDR      R0,[R0, #+0]
        CMP      R4,R0
        BNE      ??NewKey_1
// 1391       {
// 1392         if (isKeylocked()) return(0);
        SWI      +439
        CMP      R0,#+0
        BEQ      ??NewKey_3
??NewKey_1:
        MOV      R0,#+0
        POP      {R4,R5,PC}       ;; return
// 1393         if(MyBOOK * bk = (MyBOOK *)FindBook(isTamagochiBook))
??NewKey_3:
        LDR      R0,??DataTable106  ;; ??isTamagochiBook
        SWI      +304
        CMP      R0,#+0
        POPEQ    {R4,R5,PC}
// 1394         {
// 1395           if(!bk->gui)
        LDR      R1,[R0, #+40]
        CMP      R1,#+0
        BNE      ??NewKey_4
// 1396           {
// 1397             ShowMenu((BOOK *)bk);
        _BLF     ??ShowMenu,??ShowMenu??rA
// 1398             return(-1);
        MVN      R0,#+0
        POP      {R4,R5,PC}
// 1399           }
// 1400           else
// 1401           {
// 1402             CloseMenu((BOOK *)bk);
??NewKey_4:
        _BLF     ??CloseMenu,??CloseMenu??rA
        MOV      R0,#+0
        POP      {R4,R5,PC}
        DATA
??NewKey_2:
        DC32     ACTIVE_KEY_STYLE
        DC32     ACTIVE_KEY
        CFI EndBlock cfiBlock86
// 1403           }
// 1404         }
// 1405       }
// 1406     }
// 1407   }
// 1408   return(0);
// 1409 }

        RSEG CODE:CODE:NOROOT(2)
        DATA
??DataTable106:
        DC32     ??isTamagochiBook

        RSEG CODE:CODE:NOROOT(2)
        CFI Block cfiBlock87 Using cfiCommon1
        CFI NoFunction
        THUMB
??DrawParams??rT:
        BX       PC
        Nop      
        CFI EndBlock cfiBlock87
        REQUIRE ??DrawParams
// 1410 
// 1411 // ----------------------------------------------------------------------------

        RSEG CODE:CODE:NOROOT(2)
        CFI Block cfiBlock88 Using cfiCommon0
        CFI Function ??DrawParams
        ARM
// 1412 void DrawParams(int y)
// 1413 {
??DrawParams:
        PUSH     {R4-R9,LR}
        CFI ?RET Frame(CFA, -4)
        CFI R9 Frame(CFA, -8)
        CFI R8 Frame(CFA, -12)
        CFI R7 Frame(CFA, -16)
        CFI R6 Frame(CFA, -20)
        CFI R5 Frame(CFA, -24)
        CFI R4 Frame(CFA, -28)
        CFI CFA R13+28
// 1414   GC *GC_DISP=get_DisplayGC ();
// 1415   for(int i=0; i<Pets[0].Status.Count; i++)
        LDR      R7,??DataTable148  ;; Pets
        LDR      R9,??DataTable108  ;; img_names
        MOV      R4,R0
        SWI      +485
        MOV      R5,R0
        LDR      R0,[R7, #+196]
        MOV      R6,#+0
        CMP      R0,#+1
        BGE      ??DrawParams_1
        POP      {R4-R9,PC}
// 1416   {
// 1417     GC_PutChar(GC_DISP, Pets[i].x, Pets[i].y - y, Pets[i].img_size, Pets[i].img_size, img_names[Pets[i].Status.ImageStatus]);
??DrawParams_2:
        MOV      R0,#+272
        MLA      R8,R0,R6,R7
        LDR      R3,[R8, #+252]
        LDR      R0,[R8, #+60]
        ADD      R0,R9,R0, LSL #+1
        LDRH     R0,[R0, #+0]
        PUSH     {R0}
        CFI CFA R13+32
        MOV      R0,R3
        PUSH     {R0}
        CFI CFA R13+36
        LDR      R1,[R8, #+256]
        LDR      R0,[R8, #+260]
        SUB      R2,R0,R4
        MOV      R0,R5
        SWI      +320
// 1418     if(Pets[i].simg_status) GC_PutChar(GC_DISP, Pets[i].x + Pets[i].img_size - StatSize, Pets[i].y + Pets[i].img_size - StatSize - y, StatSize, StatSize, img_status[Pets[i].simg_status]);
        LDR      R1,[R8, #+248]
        ADD      SP,SP,#+8
        CFI CFA R13+28
        CMP      R1,#+0
        BEQ      ??DrawParams_3
        LDR      R0,[R9, #+80]
        ADD      R1,R9,R1, LSL #+1
        LDRH     R1,[R1, #+24]
        MOV      R3,R0
        PUSH     {R1}
        CFI CFA R13+32
        MOV      R1,R0
        PUSH     {R1}
        CFI CFA R13+36
        LDR      R2,[R8, #+252]
        LDR      R1,[R8, #+260]
        ADD      R1,R2,R1
        SUB      R1,R1,R0
        SUB      R2,R1,R4
        LDR      R1,[R8, #+256]
        LDR      R8,[R8, #+252]
        ADD      R1,R8,R1
        SUB      R1,R1,R0
        MOV      R0,R5
        SWI      +320
        ADD      SP,SP,#+8
        CFI CFA R13+28
// 1419   }
??DrawParams_3:
        ADD      R6,R6,#+1
??DrawParams_1:
        LDR      R0,[R7, #+196]
        CMP      R6,R0
        BLT      ??DrawParams_2
// 1420 //  if(ImageID != NOIMAGE) DrawString(ImageID + 0x78000000,0,50,50,150,150,1,1,clGreen,clRed);
// 1421 //  if(ImageID != NOIMAGE) GC_PutChar(GC_DISP, 150, 150, 0, 0, ImageID);
// 1422 }
        POP      {R4-R9,PC}       ;; return
        CFI EndBlock cfiBlock88

        RSEG CODE:CODE:NOROOT(2)
        DATA
??DataTable108:
        DC32     img_names

        RSEG CODE:CODE:NOROOT(2)
        CFI Block cfiBlock89 Using cfiCommon1
        CFI NoFunction
        THUMB
??Display_ReDraw??rT:
        BX       PC
        Nop      
        CFI EndBlock cfiBlock89
        REQUIRE ??Display_ReDraw
// 1423 

        RSEG CODE:CODE:NOROOT(2)
        CFI Block cfiBlock90 Using cfiCommon0
        CFI Function ??Display_ReDraw
        ARM
// 1424 void Display_ReDraw(DISP_OBJ* DO,int a,int b,int c)
// 1425 {
??Display_ReDraw:
        PUSH     {R4-R8,LR}
        CFI ?RET Frame(CFA, -4)
        CFI R8 Frame(CFA, -8)
        CFI R7 Frame(CFA, -12)
        CFI R6 Frame(CFA, -16)
        CFI R5 Frame(CFA, -20)
        CFI R4 Frame(CFA, -24)
        CFI CFA R13+24
// 1426   DrawParams(StatusBarY);
        LDR      R8,??DataTable140  ;; timer_save
        MOV      R4,R0
        LDR      R0,[R8, #+68]
        MOV      R5,R1
        MOV      R6,R2
        MOV      R7,R3
        BL       ??DrawParams
// 1427   if(Display_oldReDraw) Display_oldReDraw(DO,a,b,c);
        LDR      R8,[R8, #+24]
        CMP      R8,#+0
        POPEQ    {R4-R8,PC}
        MOV      R3,R7
        MOV      R2,R6
        MOV      R1,R5
        MOV      R0,R4
        BLX      R8
// 1428 }
        POP      {R4-R8,PC}       ;; return
        CFI EndBlock cfiBlock90

        RSEG CODE:CODE:NOROOT(2)
        CFI Block cfiBlock91 Using cfiCommon1
        CFI NoFunction
        THUMB
??Status_ReDraw??rT:
        BX       PC
        Nop      
        CFI EndBlock cfiBlock91
        REQUIRE ??Status_ReDraw
// 1429 

        RSEG CODE:CODE:NOROOT(2)
        CFI Block cfiBlock92 Using cfiCommon0
        CFI Function ??Status_ReDraw
        ARM
// 1430 void Status_ReDraw(DISP_OBJ * d, int a, int b, int c)
// 1431 {
??Status_ReDraw:
        LDR      R12,??Status_ReDraw_1  ;; timer_save + 12
        PUSH     {LR}
        CFI ?RET Frame(CFA, -4)
        CFI CFA R13+4
        LDR      R12,[R12, #+0]
        CMP      R12,#+0
        POPEQ    {PC}
// 1432   if(Status_oldReDraw) Status_oldReDraw(d, a, b, c);
        BLX      R12
// 1433 //  DrawParams(0);
// 1434 }
        POP      {PC}             ;; return
        DATA
??Status_ReDraw_1:
        DC32     timer_save + 12
        CFI EndBlock cfiBlock92

        RSEG CODE:CODE:NOROOT(2)
        CFI Block cfiBlock93 Using cfiCommon1
        CFI NoFunction
        THUMB
??Soft_ReDraw??rT:
        BX       PC
        Nop      
        CFI EndBlock cfiBlock93
        REQUIRE ??Soft_ReDraw
// 1435 

        RSEG CODE:CODE:NOROOT(2)
        CFI Block cfiBlock94 Using cfiCommon0
        CFI Function ??Soft_ReDraw
        ARM
// 1436 void Soft_ReDraw(DISP_OBJ* DO,int a,int b,int c)
// 1437 {
??Soft_ReDraw:
        LDR      R12,??Soft_ReDraw_1  ;; timer_save + 36
        PUSH     {LR}
        CFI ?RET Frame(CFA, -4)
        CFI CFA R13+4
        LDR      R12,[R12, #+0]
        CMP      R12,#+0
        POPEQ    {PC}
// 1438 //  DrawParams(SoftBarY);
// 1439   if(Soft_oldReDraw) Soft_oldReDraw(DO,a,b,c);
        BLX      R12
// 1440 }
        POP      {PC}             ;; return
        DATA
??Soft_ReDraw_1:
        DC32     timer_save + 36
        CFI EndBlock cfiBlock94

        RSEG CODE:CODE:NOROOT(2)
        CFI Block cfiBlock95 Using cfiCommon1
        CFI NoFunction
        THUMB
??InitStatus??rT:
        BX       PC
        Nop      
        CFI EndBlock cfiBlock95
        REQUIRE ??InitStatus
// 1441 

        RSEG CODE:CODE:NOROOT(2)
        CFI Block cfiBlock96 Using cfiCommon0
        CFI Function ??InitStatus
        ARM
// 1442 void InitStatus(int indx, int age, int sex)
// 1443 {
??InitStatus:
        PUSH     {R4-R6,LR}
        CFI ?RET Frame(CFA, -4)
        CFI R6 Frame(CFA, -8)
        CFI R5 Frame(CFA, -12)
        CFI R4 Frame(CFA, -16)
        CFI CFA R13+16
        MOV      R3,R0
// 1444     Pets[indx].Status.TimeAge      = 0;
        LDR      R0,??DataTable148  ;; Pets
        MOV      R4,R2
        MOV      R2,#+272
        MLA      R5,R2,R3,R0
        MOV      R6,#+0
        STR      R6,[R5, #+4]
// 1445     Pets[indx].Status.Age          = age;
        STR      R1,[R5, #+0]
        MOV      R2,#+100
        ADD      R1,R2,R1, LSL #+1
        STR      R1,[R5, #+8]
// 1446     Pets[indx].Status.Health       = 100 + (2*age);
// 1447     Pets[indx].Status.MaxHealth    = 100 + (2*age);
        STR      R1,[R5, #+12]
// 1448     Pets[indx].Status.Hunger       = 0;
        STR      R6,[R5, #+16]
// 1449     Pets[indx].Status.MaxHunger    = 100 + (2*age);
        STR      R1,[R5, #+20]
// 1450     Pets[indx].Status.Happiness    = 100 + (2*age);
        STR      R1,[R5, #+24]
// 1451     Pets[indx].Status.MaxHappiness = 100 + (2*age);
        STR      R1,[R5, #+28]
// 1452     Pets[indx].Status.Dirtiness    = 0;
        STR      R6,[R5, #+32]
// 1453     Pets[indx].Status.MaxDirtiness = 100 + (2*age);
        STR      R1,[R5, #+36]
// 1454     Pets[indx].Status.Boredom      = 0;
        STR      R6,[R5, #+40]
// 1455     Pets[indx].Status.MaxBoredom   = 100 + (2*age);
        STR      R1,[R5, #+44]
// 1456     Pets[indx].Status.Behaviour    = 100 + (2*age);
        STR      R1,[R5, #+48]
// 1457     Pets[indx].Status.MaxBehaviour = 100 + (2*age);
        STR      R1,[R5, #+52]
// 1458     Pets[indx].Status.StatusDeath  = 0;
// 1459     Pets[indx].Status.ImageStatus  = SMILE_ICN;
// 1460     if(indx == 0)
        LDR      R1,??InitStatus_1  ;; `?<Constant L"\\x50\\x65\\x74">`
        STR      R6,[R5, #+56]
        STR      R6,[R5, #+60]
        CMP      R3,#+0
        BNE      ??InitStatus_2
// 1461       wstrncpy(Pets[indx].Status.name,L"Pet",MAXELEMS(Pets[indx].Status.name));
        MOV      R2,#+64
        ADD      R0,R0,#+64
        SWI      +339
        B        ??InitStatus_3
// 1462     else
// 1463       snwprintf(Pets[indx].Status.name,MAXELEMS(Pets[indx].Status.name)-1,L"Pet%d",indx);
??InitStatus_2:
        ADD      R2,R1,#+8
        MOV      R1,#+63
        ADD      R0,R5,#+64
        SWI      +277
// 1464     Pets[indx].Status.Sex = 2;
??InitStatus_3:
        MOV      R0,#+2
        STR      R0,[R5, #+192]
// 1465     Pets[indx].Status.Count = 1;
        MOV      R0,#+1
        STR      R0,[R5, #+196]
// 1466     if((sex == 0) || (sex == 1)) Pets[indx].Status.Sex = sex;
        CMP      R4,#+0
        CMPNE    R4,#+1
        STREQ    R4,[R5, #+192]
// 1467     Pets[indx].Status.FamilyLife = 0;
        STR      R6,[R5, #+200]
// 1468     Pets[indx].Status.needFriend = 0;
        STR      R6,[R5, #+204]
// 1469     Pets[indx].Status.haveFriend = 0;
        STR      R6,[R5, #+208]
// 1470     Pets[indx].Status.crc = myCrc32((unsigned char *)&Pets[indx].Status, sizeof(TStatusPet) - sizeof(unsigned int));
        MOV      R1,#+212
        MOV      R0,R5
        _BLF     ??myCrc32,??myCrc32??rA
        STR      R0,[R5, #+212]
// 1471 }
        POP      {R4-R6,PC}       ;; return
        DATA
??InitStatus_1:
        DC32     `?<Constant L"\\x50\\x65\\x74">`
        CFI EndBlock cfiBlock96

        RSEG CODE:CODE:NOROOT(2)
        CFI Block cfiBlock97 Using cfiCommon1
        CFI NoFunction
        THUMB
??LoadStatus??rT:
        BX       PC
        Nop      
        CFI EndBlock cfiBlock97
        REQUIRE ??LoadStatus
// 1472 

        RSEG CODE:CODE:NOROOT(2)
        CFI Block cfiBlock98 Using cfiCommon0
        CFI Function ??LoadStatus
        ARM
// 1473 int LoadStatus(int indx)
// 1474 {
// 1475   FSTAT _fstat,_fstat2;
// 1476   int f, l;
// 1477   wchar_t path[64];
// 1478   wchar_t name[64];
// 1479   unsigned  char inp[sizeof(TStatusPet)], out[sizeof(TStatusPet)];
// 1480 
// 1481   getdir(path,PET_PATH);
??LoadStatus:
        LDR      R1,??DataTable114  ;; PET_PATH
        PUSH     {R4-R8,LR}
        CFI ?RET Frame(CFA, -4)
        CFI R8 Frame(CFA, -8)
        CFI R7 Frame(CFA, -12)
        CFI R6 Frame(CFA, -16)
        CFI R5 Frame(CFA, -20)
        CFI R4 Frame(CFA, -24)
        CFI CFA R13+24
// 1482   if(indx == 0)
        LDR      R4,??DataTable119  ;; `?<Constant L"\\x50\\x65\\x74\\x2e\\x63\\x66\\x67">`
        SUB      SP,SP,#+748
        CFI CFA R13+772
        MOV      R6,R0
        ADD      R0,SP,#+464
        _BLF     ??getdir,??getdir??rA
        CMP      R6,#+0
        BNE      ??LoadStatus_1
// 1483   {
// 1484     wstrncpy(name,CFG_NAME,MAXELEMS(name));
        MOV      R2,#+64
        MOV      R1,R4
        ADD      R0,SP,#+592
        SWI      +339
        B        ??LoadStatus_2
// 1485   }
// 1486   else
// 1487   {
// 1488     snwprintf(name,MAXELEMS(name)-1,CFG_NAME_FORMAT,indx);
??LoadStatus_1:
        MOV      R3,R6
        ADD      R2,R4,#+16
        MOV      R1,#+63
        ADD      R0,SP,#+592
        SWI      +277
// 1489   }
// 1490 
// 1491   if (fstat(path,name,&_fstat) != -1)
??LoadStatus_2:
        MVN      R5,#+0
        ADD      R2,SP,#+4
        ADD      R1,SP,#+592
        ADD      R0,SP,#+464
        SWI      +284
        CMP      R0,R5
        BEQ      ??LoadStatus_3
// 1492   {
// 1493     if ((f=_fopen(path,name,FSX_O_RDONLY,FSX_S_IREAD|FSX_S_IWRITE,0))>=0)
        MOV      R0,#+0
        PUSH     {R0}
        CFI CFA R13+776
        MOV      R3,#+384
        MOV      R2,#+1
        ADD      R1,SP,#+596
        ADD      R0,SP,#+468
        SWI      +278
        MOVS     R7,R0
        ADD      SP,SP,#+4
        CFI CFA R13+772
        BMI      ??LoadStatus_3
// 1494     {
// 1495       InitStatus(indx, 0, 2);
        MOV      R2,#+2
        MOV      R1,#+0
        MOV      R0,R6
        BL       ??InitStatus
// 1496       l = fread(f,&inp, sizeof(TStatusPet));
        MOV      R2,#+216
        ADD      R1,SP,#+32
        MOV      R0,R7
        SWI      +280
        MOV      R8,R0
// 1497       fclose(f);
        MOV      R0,R7
        SWI      +279
// 1498 
// 1499       if(l !=_fstat.fsize)
        LDR      R0,[SP, #+12]
        CMP      R8,R0
        BEQ      ??LoadStatus_4
// 1500       {
// 1501         return -1;
??LoadStatus_3:
        MOV      R0,R5
        ADD      SP,SP,#+748
        CFI CFA R13+24
        POP      {R4-R8,PC}
        CFI CFA R13+772
// 1502       }
// 1503       unsigned int len = _fstat.fsize - sizeof(unsigned int);
??LoadStatus_4:
        SUB      R7,R0,#+4
// 1504       unsigned int crc;
// 1505       memcpy(&crc, &inp[len], sizeof(unsigned int));
        MOV      R2,#+4
        ADD      R0,SP,#+32
        ADD      R1,R7,R0
        MOV      R0,SP
        SWI      +275
// 1506       decrypt(out, inp, len, crc);
        LDR      R3,[SP, #+0]
        MOV      R2,R7
        ADD      R1,SP,#+32
        ADD      R0,SP,#+248
        _BLF     ??decrypt,??decrypt??rA
// 1507       if(crc == myCrc32(out, len))
        MOV      R1,R7
        ADD      R0,SP,#+248
        _BLF     ??myCrc32,??myCrc32??rA
        LDR      R2,??DataTable148  ;; Pets
        MOV      R1,#+272
        MLA      R6,R1,R6,R2
        LDR      R1,[SP, #+0]
        CMP      R1,R0
// 1508       {
// 1509         memcpy(&Pets[indx].Status, out, len);
        MOVEQ    R2,R7
        ADDEQ    R1,SP,#+248
        BEQ      ??LoadStatus_5
// 1510       }
// 1511       else
// 1512       {
// 1513         if (fstat(TESTPATH,TESTFILE,&_fstat2) != -1)
        ADD      R2,SP,#+720
        ADD      R1,R4,#+80
        ADD      R0,R4,#+36
        SWI      +284
        CMP      R0,R5
        BNE      ??LoadStatus_6
// 1514         {
// 1515         }
// 1516         else
// 1517         {
// 1518           memcpy(&Pets[indx].Status, inp, _fstat.fsize);
        LDR      R2,[SP, #+12]
        ADD      R1,SP,#+32
??LoadStatus_5:
        MOV      R0,R6
        SWI      +275
// 1519         }
// 1520       }
// 1521       return 0;
??LoadStatus_6:
        MOV      R0,#+0
        ADD      SP,SP,#+748
        CFI CFA R13+24
        POP      {R4-R8,PC}       ;; return
        CFI EndBlock cfiBlock98
// 1522     }
// 1523   }
// 1524   return -1;
// 1525 }

        RSEG CODE:CODE:NOROOT(2)
        CFI Block cfiBlock99 Using cfiCommon1
        CFI NoFunction
        THUMB
??SaveStatus??rT:
        BX       PC
        Nop      
        CFI EndBlock cfiBlock99
        REQUIRE ??SaveStatus
// 1526 

        RSEG CODE:CODE:NOROOT(2)
        CFI Block cfiBlock100 Using cfiCommon0
        CFI Function ??SaveStatus
        ARM
// 1527 int SaveStatus(int indx)
// 1528 {
??SaveStatus:
        PUSH     {R4,R5,LR}
        CFI ?RET Frame(CFA, -4)
        CFI R5 Frame(CFA, -8)
        CFI R4 Frame(CFA, -12)
        CFI CFA R13+12
        SUB      SP,SP,#+472
        CFI CFA R13+484
        MOV      R4,R0
// 1529   int f;
// 1530   wchar_t path[64];
// 1531   wchar_t name[64];
// 1532   TStatusPet out;
// 1533 
// 1534   if(indx >= MAX_PET_COUNT_GLB) return -1;
        CMP      R4,#+32
        BGE      ??SaveStatus_1
// 1535 
// 1536   getdir(path,PET_PATH);
        LDR      R1,??DataTable114  ;; PET_PATH
        ADD      R0,SP,#+216
        _BLF     ??getdir,??getdir??rA
// 1537   if(indx == 0)
        LDR      R1,??DataTable119  ;; `?<Constant L"\\x50\\x65\\x74\\x2e\\x63\\x66\\x67">`
        CMP      R4,#+0
        BNE      ??SaveStatus_2
// 1538   {
// 1539     wstrncpy(name,CFG_NAME,MAXELEMS(name));
        MOV      R2,#+64
        ADD      R0,SP,#+344
        SWI      +339
        B        ??SaveStatus_3
// 1540   }
// 1541   else
// 1542   {
// 1543     snwprintf(name,MAXELEMS(name)-1,CFG_NAME_FORMAT,indx);
??SaveStatus_2:
        MOV      R3,R4
        ADD      R2,R1,#+16
        MOV      R1,#+63
        ADD      R0,SP,#+344
        SWI      +277
// 1544   }
// 1545   if ((f=_fopen(path,name,FSX_O_RDWR|FSX_O_TRUNC,FSX_S_IREAD|FSX_S_IWRITE,0))>=0)
??SaveStatus_3:
        MOV      R0,#+0
        PUSH     {R0}
        CFI CFA R13+488
        MOV      R3,#+384
        MOV      R2,#+516
        ADD      R1,SP,#+348
        ADD      R0,SP,#+220
        SWI      +278
        MOVS     R5,R0
        ADD      SP,SP,#+4
        CFI CFA R13+484
        BMI      ??SaveStatus_1
// 1546   {
// 1547     unsigned int len = sizeof(TStatusPet) - sizeof(unsigned int);
// 1548     Pets[indx].Status.crc = myCrc32((unsigned char *)&Pets[indx].Status, len);
        LDR      R1,??DataTable148  ;; Pets
        MOV      R0,#+272
        MLA      R4,R0,R4,R1
        MOV      R1,#+212
        MOV      R0,R4
        _BLF     ??myCrc32,??myCrc32??rA
        STR      R0,[R4, #+212]
// 1549     encrypt(&out, &Pets[indx].Status, len, Pets[indx].Status.crc);
        MOV      R3,R0
        MOV      R2,#+212
        MOV      R1,R4
        MOV      R0,SP
        _BLF     ??encrypt,??encrypt??rA
// 1550     out.crc = Pets[indx].Status.crc;
        LDR      R1,[R4, #+212]
// 1551     fwrite(f,&out, sizeof(TStatusPet));
        MOV      R2,#+216
        STR      R1,[SP, #+212]
        MOV      R1,SP
        MOV      R0,R5
        SWI      +281
// 1552     fclose(f);
        MOV      R0,R5
        SWI      +279
// 1553     return 0;
        MOV      R0,#+0
        ADD      SP,SP,#+472
        CFI CFA R13+12
        POP      {R4,R5,PC}
        CFI CFA R13+484
// 1554   }
// 1555   return -1;
??SaveStatus_1:
        MVN      R0,#+0
        ADD      SP,SP,#+472
        CFI CFA R13+12
        POP      {R4,R5,PC}       ;; return
        CFI EndBlock cfiBlock100
// 1556 }

        RSEG CODE:CODE:NOROOT(2)
        DATA
??DataTable114:
        DC32     PET_PATH

        RSEG CODE:CODE:NOROOT(2)
        CFI Block cfiBlock101 Using cfiCommon1
        CFI NoFunction
        THUMB
??InitPetPos??rT:
        BX       PC
        Nop      
        CFI EndBlock cfiBlock101
        REQUIRE ??InitPetPos
// 1557 

        RSEG CODE:CODE:NOROOT(2)
        CFI Block cfiBlock102 Using cfiCommon0
        CFI Function ??InitPetPos
        ARM
// 1558 void InitPetPos(int indx)
// 1559 {
// 1560   Pets[indx].x = POS_X + 10 * indx;
??InitPetPos:
        LDR      R2,??DataTable148  ;; Pets
        PUSH     {R4,LR}
        CFI ?RET Frame(CFA, -4)
        CFI R4 Frame(CFA, -8)
        CFI CFA R13+8
        MOV      R1,#+272
        MLA      R4,R1,R0,R2
        MOV      R1,#+10
        MUL      R0,R1,R0
        LDR      R1,??InitPetPos_1  ;; POS_X
        LDR      R1,[R1, #+0]
        ADD      R1,R0,R1
        STR      R1,[R4, #+256]
// 1561   Pets[indx].y = POS_Y + 10 * indx;
        LDR      R1,??InitPetPos_1+0x4  ;; POS_Y
        LDR      R1,[R1, #+0]
        ADD      R0,R0,R1
        STR      R0,[R4, #+260]
// 1562   Pets[indx].dx = (Random() > 128) ? 2 : -2;
        _BLF     ??Random,??Random??rA
        CMP      R0,#+129
        MOVCS    R0,#+2
        MVNCC    R0,#+1
        STR      R0,[R4, #+264]
// 1563   Pets[indx].dy = (Random() > 128) ? 3 : -3;
        _BLF     ??Random,??Random??rA
        CMP      R0,#+129
        MOVCS    R0,#+3
        MVNCC    R0,#+2
        STR      R0,[R4, #+268]
// 1564 }
        POP      {R4,PC}          ;; return
        DATA
??InitPetPos_1:
        DC32     POS_X
        DC32     POS_Y
        CFI EndBlock cfiBlock102

        RSEG CODE:CODE:NOROOT(2)
        CFI Block cfiBlock103 Using cfiCommon1
        CFI NoFunction
        THUMB
??InitPetVar??rT:
        BX       PC
        Nop      
        CFI EndBlock cfiBlock103
        REQUIRE ??InitPetVar
// 1565 

        RSEG CODE:CODE:NOROOT(2)
        CFI Block cfiBlock104 Using cfiCommon0
        CFI Function ??InitPetVar
        ARM
// 1566 void InitPetVar(int indx)
// 1567 {
// 1568   Pets[indx].Fatigue=0; //усталость
??InitPetVar:
        LDR      R1,??DataTable148  ;; Pets
        MOV      R2,#+272
        MLA      R1,R2,R0,R1
        MOV      R2,#+0
        STR      R2,[R1, #+216]
// 1569   Pets[indx].Sleep=0;
        STR      R2,[R1, #+220]
// 1570   Pets[indx].Behaviour=0;
        STR      R2,[R1, #+224]
// 1571   Pets[indx].Bathe=0;
        STR      R2,[R1, #+228]
// 1572 
// 1573   // дл€ отрисовки смайла и статуса
// 1574   Pets[indx].Smile = 0;
        STR      R2,[R1, #+232]
// 1575   Pets[indx].StatImg = 0;
        STR      R2,[R1, #+236]
// 1576   Pets[indx].old_img_status  = 99;
        MOV      R3,#+99
        STR      R3,[R1, #+240]
// 1577   Pets[indx].old_simg_status = 99;
        STR      R3,[R1, #+244]
// 1578   Pets[indx].simg_status     = 0;
        STR      R2,[R1, #+248]
// 1579   Pets[indx].img_size        = 0;
        STR      R2,[R1, #+252]
// 1580   InitPetPos(indx);
        B        ??InitPetPos     ;; tailcall
        CFI EndBlock cfiBlock104
// 1581 }

        RSEG CODE:CODE:NOROOT(2)
        CFI Block cfiBlock105 Using cfiCommon1
        CFI NoFunction
        THUMB
??CreateTestFile??rT:
        BX       PC
        Nop      
        CFI EndBlock cfiBlock105
        REQUIRE ??CreateTestFile
// 1582 

        RSEG CODE:CODE:NOROOT(2)
        CFI Block cfiBlock106 Using cfiCommon0
        CFI Function ??CreateTestFile
        ARM
// 1583 void CreateTestFile()
// 1584 {
??CreateTestFile:
        PUSH     {R4,LR}
        CFI ?RET Frame(CFA, -4)
        CFI R4 Frame(CFA, -8)
        CFI CFA R13+8
// 1585   FSTAT _fstat;
// 1586   int f;
// 1587   if (fstat(TESTPATH,TESTFILE,&_fstat) != -1) return;
        LDR      R4,??DataTable119  ;; `?<Constant L"\\x50\\x65\\x74\\x2e\\x63\\x66\\x67">`
        SUB      SP,SP,#+28
        CFI CFA R13+36
        MOV      R2,SP
        ADD      R1,R4,#+80
        ADD      R0,R4,#+36
        SWI      +284
        CMN      R0,#+1
        BNE      ??CreateTestFile_1
// 1588   if ((f=_fopen(TESTPATH,TESTFILE,FSX_O_RDWR|FSX_O_TRUNC,FSX_S_IREAD|FSX_S_IWRITE,0))>=0) fclose(f);
        MOV      R0,#+0
        PUSH     {R0}
        CFI CFA R13+40
        MOV      R3,#+384
        MOV      R2,#+516
        ADD      R1,R4,#+80
        ADD      R0,R4,#+36
        SWI      +278
        CMP      R0,#+0
        ADD      SP,SP,#+4
        CFI CFA R13+36
        BMI      ??CreateTestFile_1
        SWI      +279
??CreateTestFile_1:
        ADD      SP,SP,#+28       ;; stack cleaning
        CFI CFA R13+8
        POP      {R4,PC}          ;; return
        CFI EndBlock cfiBlock106
// 1589 }

        RSEG CODE:CODE:NOROOT(2)
        DATA
??DataTable119:
        DC32     `?<Constant L"\\x50\\x65\\x74\\x2e\\x63\\x66\\x67">`

        RSEG CODE:CODE:NOROOT(2)
        CFI Block cfiBlock107 Using cfiCommon1
        CFI NoFunction
        THUMB
??LoadAllPets??rT:
        BX       PC
        Nop      
        CFI EndBlock cfiBlock107
        REQUIRE ??LoadAllPets
// 1590 

        RSEG CODE:CODE:NOROOT(2)
        CFI Block cfiBlock108 Using cfiCommon0
        CFI Function ??LoadAllPets
        ARM
// 1591 void LoadAllPets()
// 1592 {
??LoadAllPets:
        PUSH     {R4,R5,LR}
        CFI ?RET Frame(CFA, -4)
        CFI R5 Frame(CFA, -8)
        CFI R4 Frame(CFA, -12)
        CFI CFA R13+12
// 1593   LoadStatus(0);
// 1594   if(Pets[0].Status.Count > MAX_PET_COUNT) Pets[0].Status.Count = MAX_PET_COUNT;
        LDR      R4,??DataTable148  ;; Pets
        MOV      R0,#+0
        BL       ??LoadStatus
        LDR      R0,??DataTable121  ;; MAX_PET_COUNT
        LDR      R1,[R4, #+196]
        LDR      R0,[R0, #+0]
        CMP      R0,R1
// 1595   if(Pets[0].Status.Age >= PARENT_AGE)
        LDR      R1,??DataTable122  ;; PARENT_AGE
        STRCC    R0,[R4, #+196]
        LDR      R0,[R4, #+0]
        LDR      R1,[R1, #+0]
        CMP      R0,R1
        POPCC    {R4,R5,PC}
// 1596   {
// 1597     for(int i = 1; i < Pets[0].Status.Count; i++)
        LDR      R0,[R4, #+196]
        MOV      R5,#+1
        CMP      R0,#+2
        BGE      ??LoadAllPets_1
// 1598     {
// 1599       if(LoadStatus(i))
// 1600       {
// 1601         if(i == 1)
// 1602         {
// 1603           InitStatus(i, 0, Pets[0].Status.Sex ^ 1);
// 1604         }
// 1605         else
// 1606         {
// 1607           InitStatus(i, 0, 2);
// 1608         }
// 1609       }
// 1610       InitPetVar(i);
// 1611     }
// 1612   }
// 1613 }
        POP      {R4,R5,PC}       ;; return
??LoadAllPets_2:
        MOV      R2,#+2
        MOV      R1,#+0
        MOV      R0,R5
??LoadAllPets_3:
        BL       ??InitStatus
??LoadAllPets_4:
        MOV      R0,R5
        BL       ??InitPetVar
        ADD      R5,R5,#+1
??LoadAllPets_1:
        LDR      R0,[R4, #+196]
        CMP      R5,R0
        POPGE    {R4,R5,PC}
        MOV      R0,R5
        BL       ??LoadStatus
        CMP      R0,#+0
        BEQ      ??LoadAllPets_4
        CMP      R5,#+1
        BNE      ??LoadAllPets_2
        LDR      R0,[R4, #+192]
        MOV      R1,#+0
        EOR      R2,R0,#0x1
        MOV      R0,#+1
        B        ??LoadAllPets_3
        CFI EndBlock cfiBlock108

        RSEG CODE:CODE:NOROOT(2)
        DATA
??DataTable121:
        DC32     MAX_PET_COUNT

        RSEG CODE:CODE:NOROOT(2)
        DATA
??DataTable122:
        DC32     PARENT_AGE

        RSEG CODE:CODE:NOROOT(2)
        CFI Block cfiBlock109 Using cfiCommon1
        CFI NoFunction
        THUMB
??MainPageOnCreate??rT:
        BX       PC
        Nop      
        CFI EndBlock cfiBlock109
        REQUIRE ??MainPageOnCreate
// 1614 
// 1615 // ----------------------------------------------------------------------------

        RSEG CODE:CODE:NOROOT(2)
        CFI Block cfiBlock110 Using cfiCommon0
        CFI Function ??MainPageOnCreate
        ARM
// 1616 static int MainPageOnCreate(void *, BOOK *bk)
// 1617 {
??MainPageOnCreate:
        PUSH     {R4-R11,LR}
        CFI ?RET Frame(CFA, -4)
        CFI R11 Frame(CFA, -8)
        CFI R10 Frame(CFA, -12)
        CFI R9 Frame(CFA, -16)
        CFI R8 Frame(CFA, -20)
        CFI R7 Frame(CFA, -24)
        CFI R6 Frame(CFA, -28)
        CFI R5 Frame(CFA, -32)
        CFI R4 Frame(CFA, -36)
        CFI CFA R13+36
// 1618   load_icons();
// 1619   load_strings();
// 1620 
// 1621   if(LoadStatus(0))
        LDR      R6,??DataTable148  ;; Pets
        SUB      SP,SP,#+680
        CFI CFA R13+716
        MOV      R4,R1
        BL       ??load_icons
        BL       ??load_strings
        MOV      R0,#+0
        BL       ??LoadStatus
        CMP      R0,#+0
        BEQ      ??MainPageOnCreate_1
// 1622   {
// 1623     InitStatus(0, 0, 2);
        MOV      R2,#+2
        MOV      R1,#+0
        MOV      R0,#+0
        BL       ??InitStatus
// 1624     if(SaveStatus(0))
        MOV      R0,#+0
        BL       ??SaveStatus
        CMP      R0,#+0
        BEQ      ??MainPageOnCreate_1
// 1625     {
// 1626       MessageBox(TextID_Create(Pets[0].Status.name,ENC_UCS2,TEXTID_ANY_LEN), TextID_Create(LG_ERRSTATUS,ENC_UCS2,TEXTID_ANY_LEN), NOIMAGE, 1, 5000*msgShowTime, 0);
        LDR      R0,??MainPageOnCreate_2  ;; `?<Constant L"\\x45\\x72\\x72\\x6f\\x72\\x20\\x73\\x61\\`
        MOV      R5,#+255
        ORR      R5,R5,#0xFF00
        MOV      R2,R5
        MOV      R1,#+0
        SWI      +349
        MOV      R7,R0
        MOV      R2,R5
        MOV      R1,#+0
        ADD      R0,R6,#+64
        SWI      +349
        MOV      R1,#+0
        PUSH     {R1}
        CFI CFA R13+720
        LDR      R1,??DataTable171  ;; msgShowTime
        MOV      R2,#+136
        LDR      R1,[R1, #+0]
        ORR      R2,R2,#0x1300
        MUL      R1,R2,R1
        MOV      R3,#+1
        PUSH     {R1}
        CFI CFA R13+724
        MOV      R2,R5
        MOV      R1,R7
        SWI      +599
        ADD      SP,SP,#+8
        CFI CFA R13+716
// 1627     }
// 1628   }
// 1629   InitPetVar(0);
        MOV      R0,#+0
??MainPageOnCreate_1:
        BL       ??InitPetVar
// 1630 
// 1631   //≈сли достигли возраста родител€, то пробуем загрузить остальных
// 1632   LoadAllPets();
        BL       ??LoadAllPets
// 1633   CreateTestFile();
        BL       ??CreateTestFile
// 1634 
// 1635   if(Pets[0].Status.Count > 1)
        LDR      R0,[R6, #+196]
        MOV      R7,#+0
        CMP      R0,#+2
        BLT      ??MainPageOnCreate_3
// 1636   {
// 1637     Pets[0].Status.needFriend = 0;
        STR      R7,[R6, #+204]
// 1638     Pets[0].Status.haveFriend = 1;
        MOV      R0,#+1
        STR      R0,[R6, #+208]
// 1639     Pets[1].Status.needFriend = 0;
        STR      R7,[R6, #+476]
// 1640     Pets[1].Status.haveFriend = 1;
        STR      R0,[R6, #+480]
        B        ??MainPageOnCreate_4
// 1641   }
// 1642   else
// 1643     Pets[0].Status.haveFriend = 0;
??MainPageOnCreate_3:
        STR      R7,[R6, #+208]
// 1644 
// 1645   FSTAT _fstat;
// 1646   int f, sz;
// 1647   wchar_t path[256];
// 1648   wchar_t name[64];
// 1649 
// 1650   //«агрузка списка игр
// 1651   extractdir(path, name, GAMELIST_PATH);
// 1652   game_list[0] = 0;
??MainPageOnCreate_4:
        LDR      R5,??DataTable159  ;; timer_save
        LDR      R2,??MainPageOnCreate_2+0x4  ;; GAMELIST_PATH
        ADD      R1,SP,#+524
        ADD      R0,SP,#+12
        _BLF     ??extractdir,??extractdir??rA
        STRB     R7,[R5, #+80]
// 1653   if(fstat(path,name,&_fstat)!= -1)
        MOV      R8,#+255
        ORR      R8,R8,#0x300
        MVN      R9,R7
        ADD      R2,SP,#+652
        ADD      R1,SP,#+524
        ADD      R0,SP,#+12
        SWI      +284
        CMP      R0,R9
        BEQ      ??MainPageOnCreate_5
// 1654   {
// 1655     if ((f=_fopen(path,name,FSX_O_RDONLY,FSX_S_IREAD|FSX_S_IWRITE,0))>=0)
        MOV      R0,#+0
        PUSH     {R0}
        CFI CFA R13+720
        MOV      R3,#+384
        MOV      R2,#+1
        ADD      R1,SP,#+528
        ADD      R0,SP,#+16
        SWI      +278
        MOVS     R10,R0
        ADD      SP,SP,#+4
        CFI CFA R13+716
        BMI      ??MainPageOnCreate_5
// 1656     {
// 1657       sz = fread(f,game_list, GAME_PLAYER_LIST_LEN - 1);
        MOV      R2,R8
        ADD      R1,R5,#+80
        SWI      +280
        MOV      R11,R0
// 1658       fclose(f);
        MOV      R0,R10
        SWI      +279
// 1659       if(sz >= 0) game_list[sz] = 0;
        CMP      R11,#+0
        ADDPL    R0,R11,R5
        STRBPL   R7,[R0, #+80]
// 1660     }
// 1661   }
// 1662 
// 1663   //«агрузка списка плейеров
// 1664   extractdir(path, name, PLAYERLIST_PATH);
??MainPageOnCreate_5:
        LDR      R2,??MainPageOnCreate_2+0x8  ;; PLAYERLIST_PATH
        ADD      R1,SP,#+524
        ADD      R0,SP,#+12
        _BLF     ??extractdir,??extractdir??rA
// 1665   player_list[0] = 0;
        MOV      R11,#+1104
        STRB     R7,[R11, +R5]
// 1666   if(fstat(path,name,&_fstat)!= -1)
        ADD      R2,SP,#+652
        ADD      R1,SP,#+524
        ADD      R0,SP,#+12
        SWI      +284
        CMP      R0,R9
        BEQ      ??MainPageOnCreate_6
// 1667   {
// 1668     if ((f=_fopen(path,name,FSX_O_RDONLY,FSX_S_IREAD|FSX_S_IWRITE,0))>=0)
        MOV      R0,#+0
        PUSH     {R0}
        CFI CFA R13+720
        MOV      R3,#+384
        MOV      R2,#+1
        ADD      R1,SP,#+528
        ADD      R0,SP,#+16
        SWI      +278
        MOVS     R10,R0
        ADD      SP,SP,#+4
        CFI CFA R13+716
        BMI      ??MainPageOnCreate_6
// 1669     {
// 1670       sz = fread(f,player_list, GAME_PLAYER_LIST_LEN - 1);
        MOV      R2,R8
        ADD      R1,R11,R5
        SWI      +280
        MOV      R11,R0
// 1671       fclose(f);
        MOV      R0,R10
        SWI      +279
// 1672       if(sz >= 0) player_list[sz] = 0;
        CMP      R11,#+0
        ADDPL    R0,R11,R5
        STRBPL   R7,[R0, #+1104]
// 1673     }
// 1674   }
// 1675 
// 1676   UpdateName();
??MainPageOnCreate_6:
        BL       ??UpdateName
// 1677   int snd = (!GetSilent() || sndOnSilent) && sndEnable && (!isNight());
        SWI      +587
        CMP      R0,#+0
        BEQ      ??MainPageOnCreate_7
        LDR      R0,??DataTable146  ;; sndOnSilent
        LDR      R0,[R0, #+0]
        CMP      R0,#+0
        BEQ      ??MainPageOnCreate_8
??MainPageOnCreate_7:
        LDR      R0,??DataTable147  ;; sndEnable
        LDR      R0,[R0, #+0]
        CMP      R0,#+0
        BEQ      ??MainPageOnCreate_8
        BL       ??isNight
        CMP      R0,#+0
        MOVEQ    R7,#+1
// 1678   for(int i=0; i<Pets[0].Status.Count; i++) ChangeStatusImage(i, bk, snd);
??MainPageOnCreate_8:
        LDR      R0,[R6, #+196]
        MOV      R8,#+0
        CMP      R0,#+1
        BGE      ??MainPageOnCreate_9
        B        ??MainPageOnCreate_10
??MainPageOnCreate_11:
        MOV      R2,R7
        MOV      R1,R4
        MOV      R0,R8
        BL       ??ChangeStatusImage
        ADD      R8,R8,#+1
??MainPageOnCreate_9:
        LDR      R0,[R6, #+196]
        CMP      R8,R0
        BLT      ??MainPageOnCreate_11
// 1679 
// 1680   if(!GUI_status)
??MainPageOnCreate_10:
        LDR      R0,[R5, #+16]
        CMP      R0,#+0
        BNE      ??MainPageOnCreate_12
// 1681   {
// 1682     GUI_status = StatusRow_p();
        SWI      +33266
        STR      R0,[R5, #+16]
// 1683     Status_desc = DispObject_GetDESC (* GUI_status);
        LDR      R0,[R0, #+0]
        SWI      +543
        STR      R0,[R5, #+20]
// 1684     Status_oldReDraw = DispObject_GetOnRedraw (* GUI_status);
        LDR      R0,[R5, #+16]
        LDR      R0,[R0, #+0]
        SWI      +553
// 1685     DISP_DESC_SetOnRedraw (Status_desc, (DISP_OBJ_ONREDRAW_METHOD)Status_ReDraw);
        LDR      R1,??DataTable141  ;; ??Status_ReDraw
        STR      R0,[R5, #+12]
        LDR      R0,[R5, #+20]
        SWI      +552
// 1686   }
// 1687   if(!GUI_soft)
??MainPageOnCreate_12:
        LDR      R0,[R5, #+40]
        CMP      R0,#+0
        BNE      ??MainPageOnCreate_13
// 1688   {
// 1689     GUI_soft = DispObject_SoftKeys_Get();
        SWI      +675
        STR      R0,[R5, #+40]
// 1690     Soft_desc = DispObject_GetDESC (GUI_soft);
        SWI      +543
        STR      R0,[R5, #+44]
// 1691     Soft_oldReDraw = DispObject_GetOnRedraw(GUI_soft);
        LDR      R0,[R5, #+40]
        SWI      +553
// 1692     DISP_DESC_SetOnRedraw(Soft_desc, (DISP_OBJ_ONREDRAW_METHOD)Soft_ReDraw);
        LDR      R1,??DataTable143  ;; ??Soft_ReDraw
        STR      R0,[R5, #+36]
        LDR      R0,[R5, #+44]
        SWI      +552
// 1693   }
// 1694   if(!GUI_display)
??MainPageOnCreate_13:
        LDR      R0,[R5, #+28]
        CMP      R0,#+0
        BNE      ??MainPageOnCreate_14
// 1695   {
// 1696     GUI_display = GUIObject_GetDispObject( SBY_GetStatusIndication(Find_StandbyBook()) );
        SWI      +305
        SWI      +536
        SWI      +360
        STR      R0,[R5, #+28]
// 1697     Display_oldReDraw = DispObject_GetOnRedraw(GUI_display);
        SWI      +553
        STR      R0,[R5, #+24]
// 1698     Display_desc = DispObject_GetDESC (GUI_display);
        LDR      R0,[R5, #+28]
        SWI      +543
// 1699     DISP_DESC_SetOnRedraw(Display_desc, Display_ReDraw);
        LDR      R1,??DataTable142  ;; ??Display_ReDraw
        STR      R0,[R5, #+32]
        SWI      +552
// 1700   }
// 1701 
// 1702   //запуск жизненного цикла
// 1703   Timer_ReSet(&timer_life,TMR_SECOND,onTimer_life,(LPARAM)bk);
??MainPageOnCreate_14:
        MOV      R1,R4
// 1704   Timer_ReSet(&timer_save,TMR_SECOND*60*5,onTimer_save,0);
// 1705   Timer_ReSet(&timer_refresh,REFRESH*TMR_SECOND/10,onTimer_refresh,0);
        LDR      R4,??DataTable131  ;; 0xffffffffcccccccd
        MOV      R0,SP
        _BLF     ??LPARAM_1,??LPARAM??rA_1
        LDR      R3,[SP, #+0]
        LDR      R2,??DataTable132  ;; ??onTimer_life
        MOV      R1,#+1000
        ADD      R0,R5,#+4
        SWI      +296
        MOV      R1,#+0
        ADD      R0,SP,#+4
        _BLF     ??LPARAM,??LPARAM??rA
        LDR      R3,[SP, #+4]
        LDR      R2,??DataTable133  ;; ??onTimer_save
        MOV      R1,#+299008
        ORR      R1,R1,#0x3E0
        MOV      R0,R5
        SWI      +296
        MOV      R1,#+0
        ADD      R0,SP,#+8
        _BLF     ??LPARAM,??LPARAM??rA
        LDR      R0,??DataTable134  ;; REFRESH
        LDR      R3,[SP, #+8]
        LDR      R0,[R0, #+0]
        LDR      R2,??DataTable135  ;; ??onTimer_refresh
        MOV      R1,#+1000
        MUL      R0,R1,R0
        UMULL    R6,R1,R4,R0
        ADD      R0,R5,#+2
        LSR      R1,R1,#+3
        SWI      +296
// 1706 
// 1707   return 1;
        MOV      R0,#+1
        ADD      SP,SP,#+680
        CFI CFA R13+36
        POP      {R4-R11,PC}      ;; return
        DATA
??MainPageOnCreate_2:
        DC32     `?<Constant L"\\x45\\x72\\x72\\x6f\\x72\\x20\\x73\\x61\\`
        DC32     GAMELIST_PATH
        DC32     PLAYERLIST_PATH
        CFI EndBlock cfiBlock110
// 1708 }

        RSEG CODE:CODE:NOROOT(2)
        DATA
??DataTable131:
        DC32     0xffffffffcccccccd

        RSEG CODE:CODE:NOROOT(2)
        DATA
??DataTable132:
        DC32     ??onTimer_life

        RSEG CODE:CODE:NOROOT(2)
        DATA
??DataTable133:
        DC32     ??onTimer_save

        RSEG CODE:CODE:NOROOT(2)
        DATA
??DataTable134:
        DC32     REFRESH

        RSEG CODE:CODE:NOROOT(2)
        DATA
??DataTable135:
        DC32     ??onTimer_refresh

        RSEG CODE:CODE:NOROOT(2)
        CFI Block cfiBlock111 Using cfiCommon1
        CFI NoFunction
        THUMB
??Send_REDRAW_RELEASE??rT:
        BX       PC
        Nop      
        CFI EndBlock cfiBlock111
        REQUIRE ??Send_REDRAW_RELEASE
// 1709 

        RSEG DYN_PAGE:CONST:SORT:NOROOT(2)
// 1710 const PAGE_MSG Tamagochi_MainPageEvents[]@ "DYN_PAGE" ={
Tamagochi_MainPageEvents:
        DATA
        DC32 66, ??MainPageOnCreate, 64, 0H
// 1711   PAGE_ENTER_EVENT_TAG, MainPageOnCreate,
// 1712   NIL_EVENT_TAG,        NULL
// 1713 };
// 1714 
// 1715 PAGE_DESC main_page ={"Tamagochi_MainPage",0,Tamagochi_MainPageEvents};
// 1716 

        RSEG CODE:CODE:NOROOT(2)
        CFI Block cfiBlock112 Using cfiCommon0
        CFI Function ??Send_REDRAW_RELEASE
        ARM
// 1717 void Send_REDRAW_RELEASE()
// 1718 {
??Send_REDRAW_RELEASE:
        PUSH     {R4,LR}
        CFI ?RET Frame(CFA, -4)
        CFI R4 Frame(CFA, -8)
        CFI CFA R13+8
// 1719   REDRAW_RELEASE_MESSAGE * sbm = new REDRAW_RELEASE_MESSAGE;
        MOV      R0,#+24
        _BLF     `??operator new`,`??operator new??rA`
        MOV      R4,R0
// 1720 
// 1721   // Status
// 1722   sbm->SI_OldOnRedraw = Status_oldReDraw;
        LDR      R0,??DataTable140  ;; timer_save
        LDR      R1,[R0, #+12]
        STR      R1,[R4, #+8]
// 1723   sbm->SI_NewOnRedraw = Status_ReDraw;
        LDR      R1,??DataTable141  ;; ??Status_ReDraw
        STR      R1,[R4, #+12]
// 1724   // Screen
// 1725   sbm->SB_OldOnRedraw = Display_oldReDraw;
        LDR      R1,[R0, #+24]
        STR      R1,[R4, #+0]
// 1726   sbm->SB_NewOnRedraw = Display_ReDraw;
        LDR      R1,??DataTable142  ;; ??Display_ReDraw
        STR      R1,[R4, #+4]
// 1727   // Soft
// 1728   sbm->SK_OldOnRedraw = Soft_oldReDraw;
        LDR      R0,[R0, #+36]
        STR      R0,[R4, #+16]
// 1729   sbm->SK_NewOnRedraw = Soft_ReDraw;
        LDR      R0,??DataTable143  ;; ??Soft_ReDraw
        STR      R0,[R4, #+20]
// 1730 
// 1731   // посылаем всем  мессагу со старыми и своими методами Redraw
// 1732   UI_Event_wData(SBY_REDRAW_RELEASE_EVENT, sbm, (void (*)(void*))mfree_adr());
        SWI      +33028
        MOV      R2,R0
        MOV      R1,R4
        MOV      R0,#+227
        ORR      R0,R0,#0x300
        SWI      +425
// 1733 }
        POP      {R4,PC}          ;; return
        CFI EndBlock cfiBlock112

        RSEG CODE:CODE:NOROOT(2)
        CFI Block cfiBlock113 Using cfiCommon1
        CFI NoFunction
        THUMB
??SB_ELF_Killed??rT:
        BX       PC
        Nop      
        CFI EndBlock cfiBlock113
        REQUIRE ??SB_ELF_Killed
// 1734 

        RSEG CODE:CODE:NOROOT(2)
        CFI Block cfiBlock114 Using cfiCommon0
        CFI Function ??SB_ELF_Killed
        ARM
// 1735 int SB_ELF_Killed(void *mess, BOOK* book)
// 1736 {
??SB_ELF_Killed:
        PUSH     {R4-R8,LR}
        CFI ?RET Frame(CFA, -4)
        CFI R8 Frame(CFA, -8)
        CFI R7 Frame(CFA, -12)
        CFI R6 Frame(CFA, -16)
        CFI R5 Frame(CFA, -20)
        CFI R4 Frame(CFA, -24)
        CFI CFA R13+24
// 1737   // если был убит эльф рисующий на √Ё или просто нужно перетосовать методы
// 1738   REDRAW_RELEASE_MESSAGE * sbm =(REDRAW_RELEASE_MESSAGE*)mess;
// 1739   REDRAW_RELEASE_MESSAGE * ms = 0;
// 1740 
// 1741   //ѕроверим статус
// 1742   //его ли метод мы используем в качестве oldRedraw?
// 1743   if (sbm->SI_NewOnRedraw == Status_oldReDraw)
        LDR      R7,??DataTable140  ;; timer_save
        MOV      R6,R0
        LDR      R0,[R6, #+12]
        LDR      R1,[R7, #+12]
        MOV      R5,#+0
        MVN      R4,R5
        CMP      R0,R1
        BNE      ??SB_ELF_Killed_1
// 1744   {
// 1745     ms = new REDRAW_RELEASE_MESSAGE;
// 1746     memcpy(ms, sbm, sizeof(REDRAW_RELEASE_MESSAGE));
// 1747 
// 1748     // если он был убит, то замен€ем свой oldRedraw на его..
// 1749     if (sbm->SI_OldOnRedraw!=EMPTY_REDRAW_METHOD) Status_oldReDraw = sbm->SI_OldOnRedraw;
// 1750 
// 1751     // ставим свой метод наверх
// 1752     DISP_DESC_SetOnRedraw(DispObject_GetDESC(*GUI_status), Status_ReDraw);
        LDR      R8,??DataTable141  ;; ??Status_ReDraw
        MOV      R0,#+24
        _BLF     `??operator new`,`??operator new??rA`
        MOV      R5,R0
        MOV      R2,#+24
        MOV      R1,R6
        SWI      +275
        LDR      R0,[R6, #+8]
        CMP      R0,R4
        STRNE    R0,[R7, #+12]
        LDR      R0,[R7, #+16]
        LDR      R0,[R0, #+0]
        SWI      +543
        MOV      R1,R8
        SWI      +552
// 1753 
// 1754     // и шлЄм мессагу снова, чтоб следующие ельфы сделали тоже самое
// 1755     ms->SI_OldOnRedraw = EMPTY_REDRAW_METHOD;
        STR      R4,[R5, #+8]
// 1756     ms->SI_NewOnRedraw = Status_ReDraw;
        STR      R8,[R5, #+12]
// 1757   }
// 1758 
// 1759   //ѕроверим главный экран
// 1760   //его ли метод мы используем в качестве oldRedraw?
// 1761   if (sbm->SB_NewOnRedraw == Display_oldReDraw)
??SB_ELF_Killed_1:
        LDR      R0,[R6, #+4]
        LDR      R1,[R7, #+24]
        CMP      R0,R1
        BNE      ??SB_ELF_Killed_2
// 1762   {
// 1763     if(!ms)
        CMP      R5,#+0
        BNE      ??SB_ELF_Killed_3
// 1764     {
// 1765       ms = new REDRAW_RELEASE_MESSAGE;
        MOV      R0,#+24
        _BLF     `??operator new`,`??operator new??rA`
        MOV      R5,R0
// 1766       memcpy(ms, sbm, sizeof(REDRAW_RELEASE_MESSAGE));
        MOV      R2,#+24
        MOV      R1,R6
        SWI      +275
// 1767     }
// 1768 
// 1769     // если он был убит, то замен€ем свой oldRedraw на его..
// 1770     if (sbm->SB_OldOnRedraw!=EMPTY_REDRAW_METHOD) Display_oldReDraw = sbm->SB_OldOnRedraw;
??SB_ELF_Killed_3:
        LDR      R0,[R6, #+0]
// 1771 
// 1772     // ставим сdой метод наверх
// 1773     DISP_DESC_SetOnRedraw(DispObject_GetDESC(GUI_display), Display_ReDraw);
        LDR      R8,??DataTable142  ;; ??Display_ReDraw
        CMP      R0,R4
        STRNE    R0,[R7, #+24]
        LDR      R0,[R7, #+28]
        SWI      +543
        MOV      R1,R8
        SWI      +552
// 1774 
// 1775     // и шлЄм мессагу снова, чтоб следующие ельфы сделали тоже самое
// 1776     ms->SB_OldOnRedraw = EMPTY_REDRAW_METHOD;
        STR      R4,[R5, #+0]
// 1777     ms->SB_NewOnRedraw = Display_ReDraw;
        STR      R8,[R5, #+4]
// 1778   }
// 1779 
// 1780   //ѕроверим софт
// 1781   //его ли метод мы используем в качестве oldRedraw?
// 1782   if (sbm->SK_NewOnRedraw == Soft_oldReDraw)
??SB_ELF_Killed_2:
        LDR      R0,[R6, #+20]
        LDR      R1,[R7, #+36]
        CMP      R0,R1
        BNE      ??SB_ELF_Killed_4
// 1783   {
// 1784     if(!ms)
        CMP      R5,#+0
        BNE      ??SB_ELF_Killed_5
// 1785     {
// 1786       ms = new REDRAW_RELEASE_MESSAGE;
        MOV      R0,#+24
        _BLF     `??operator new`,`??operator new??rA`
        MOV      R5,R0
// 1787       memcpy(ms, sbm, sizeof(REDRAW_RELEASE_MESSAGE));
        MOV      R2,#+24
        MOV      R1,R6
        SWI      +275
// 1788     }
// 1789 
// 1790     // если он был убит, то замен€ем свой oldRedraw на его..
// 1791     if (sbm->SK_OldOnRedraw!=EMPTY_REDRAW_METHOD) Soft_oldReDraw = sbm->SK_OldOnRedraw;
??SB_ELF_Killed_5:
        LDR      R0,[R6, #+16]
// 1792 
// 1793     // ставим сdой метод наверх
// 1794     DISP_DESC_SetOnRedraw(DispObject_GetDESC(GUI_soft), Soft_ReDraw);
        LDR      R6,??DataTable143  ;; ??Soft_ReDraw
        CMP      R0,R4
        STRNE    R0,[R7, #+36]
        LDR      R0,[R7, #+40]
        SWI      +543
        MOV      R1,R6
        SWI      +552
// 1795 
// 1796     // и шлЄм мессагу снова, чтоб следующие ельфы сделали тоже самое
// 1797     ms->SK_OldOnRedraw = EMPTY_REDRAW_METHOD;
        STR      R4,[R5, #+16]
// 1798     ms->SK_NewOnRedraw = Soft_ReDraw;
        STR      R6,[R5, #+20]
// 1799   }
// 1800   if(ms)
??SB_ELF_Killed_4:
        CMP      R5,#+0
        BEQ      ??SB_ELF_Killed_6
// 1801   {
// 1802     UI_Event_wData(SBY_REDRAW_RELEASE_EVENT ,ms,(void (*)(void*))mfree_adr());
        SWI      +33028
        MOV      R2,R0
        MOV      R1,R5
        MOV      R0,#+227
        ORR      R0,R0,#0x300
        SWI      +425
// 1803     return(BLOCK_EVENT_GLOBALLY);
        MOV      R0,#+154
        ORR      R0,R0,#0x200
        POP      {R4-R8,PC}
// 1804   }
// 1805   return(0);
??SB_ELF_Killed_6:
        MOV      R0,#+0
        POP      {R4-R8,PC}       ;; return
        CFI EndBlock cfiBlock114
// 1806 }

        RSEG CODE:CODE:NOROOT(2)
        DATA
??DataTable140:
        DC32     timer_save

        RSEG CODE:CODE:NOROOT(2)
        DATA
??DataTable141:
        DC32     ??Status_ReDraw

        RSEG CODE:CODE:NOROOT(2)
        DATA
??DataTable142:
        DC32     ??Display_ReDraw

        RSEG CODE:CODE:NOROOT(2)
        DATA
??DataTable143:
        DC32     ??Soft_ReDraw

        RSEG CODE:CODE:NOROOT(2)
        CFI Block cfiBlock115 Using cfiCommon1
        CFI NoFunction
        THUMB
??TerminateElf??rT:
        BX       PC
        Nop      
        CFI EndBlock cfiBlock115
        REQUIRE ??TerminateElf
// 1807 

        RSEG CODE:CODE:NOROOT(2)
        CFI Block cfiBlock116 Using cfiCommon0
        CFI Function ??TerminateElf
        ARM
// 1808 int TerminateElf(void *, BOOK* book)
// 1809 {
??TerminateElf:
        PUSH     {R4,LR}
        CFI ?RET Frame(CFA, -4)
        CFI R4 Frame(CFA, -8)
        CFI CFA R13+8
        SUB      SP,SP,#+4
        CFI CFA R13+12
        MOV      R4,R1
// 1810   Send_REDRAW_RELEASE();
        BL       ??Send_REDRAW_RELEASE
// 1811   FreeBook(book);
        MOV      R0,R4
        SWI      +303
// 1812   ModifyKeyHook(NewKey,KEY_HOOK_REMOVE,NULL);
        MOV      R1,#+0
        MOV      R0,SP
        _BLF     ??LPARAM,??LPARAM??rA
        LDR      R2,[SP, #+0]
        LDR      R0,??DataTable170  ;; ??NewKey
        MOV      R1,#+0
        SWI      +263
// 1813   return(1);
        MOV      R0,#+1
        POP      {R1,R4,PC}       ;; return
        CFI EndBlock cfiBlock116
// 1814 }

        RSEG CODE:CODE:NOROOT(2)
        CFI Block cfiBlock117 Using cfiCommon1
        CFI NoFunction
        THUMB
??ShowAuthorInfo??rT:
        BX       PC
        Nop      
        CFI EndBlock cfiBlock117
        REQUIRE ??ShowAuthorInfo
// 1815 

        RSEG CODE:CODE:NOROOT(2)
        CFI Block cfiBlock118 Using cfiCommon0
        CFI Function ??ShowAuthorInfo
        ARM
// 1816 int ShowAuthorInfo(void *mess ,BOOK* book)
// 1817 {
??ShowAuthorInfo:
        PUSH     {R4,R5,LR}
        CFI ?RET Frame(CFA, -4)
        CFI R5 Frame(CFA, -8)
        CFI R4 Frame(CFA, -12)
        CFI CFA R13+12
// 1818   MSG * msg = (MSG*)mess;
// 1819 #if (!defined(LANG_RU) && !defined(LANG_EN))
// 1820   MessageBox(EMPTY_TEXTID,TextID_Create( LELFNAME _T("\n") LELFVERSION _T("\n") LAUTHORINFO _T("\n") LTRANSLATED TRANSLATED_BY,0,TEXTID_ANY_LEN), NOIMAGE, 1, 5000, msg->book);
// 1821 #else
// 1822   MessageBox(EMPTY_TEXTID,TextID_Create( LELFNAME _T("\n") LELFVERSION _T("\n") LAUTHORINFO,ENC_UCS2,TEXTID_ANY_LEN), NOIMAGE, 1, 5000, msg->book);
        MOV      R1,#+0
        MOV      R4,R0
        LDR      R0,??ShowAuthorInfo_1  ;; `?<Constant L"\\x54\\x61\\x6d\\x61\\x67\\x6f\\x63\\x68\\_3`
        MOV      R5,#+255
        ORR      R5,R5,#0xFF00
        MOV      R2,R5
        SWI      +349
        LDR      R1,[R4, #+0]
        MOV      R3,#+1
        PUSH     {R1}
        CFI CFA R13+16
        MOV      R2,R5
        MOV      R1,#+136
        ORR      R1,R1,#0x1300
        PUSH     {R1}
        CFI CFA R13+20
        MOV      R1,R0
        MVN      R0,#-1879048192
        SWI      +599
// 1823 #endif
// 1824   return(1);
        MOV      R0,#+1
        POP      {R1,R2,R4,R5,PC}  ;; return
        DATA
??ShowAuthorInfo_1:
        DC32     `?<Constant L"\\x54\\x61\\x6d\\x61\\x67\\x6f\\x63\\x68\\_3`
        CFI EndBlock cfiBlock118
// 1825 }

        RSEG CODE:CODE:NOROOT(2)
        CFI Block cfiBlock119 Using cfiCommon1
        CFI NoFunction
        THUMB
??onReconfigElf??rT:
        BX       PC
        Nop      
        CFI EndBlock cfiBlock119
        REQUIRE ??onReconfigElf
// 1826 

        RSEG CODE:CODE:NOROOT(2)
        CFI Block cfiBlock120 Using cfiCommon0
        CFI Function ??onReconfigElf
        ARM
// 1827 static int onReconfigElf(void *mess , BOOK *book)
// 1828 {
??onReconfigElf:
        PUSH     {R4-R7,LR}
        CFI ?RET Frame(CFA, -4)
        CFI R7 Frame(CFA, -8)
        CFI R6 Frame(CFA, -12)
        CFI R5 Frame(CFA, -16)
        CFI R4 Frame(CFA, -20)
        CFI CFA R13+20
        MOV      R5,R0
// 1829   RECONFIG_EVENT_DATA *reconf=(RECONFIG_EVENT_DATA *)mess;
// 1830   int result=0;
// 1831   if (wstrcmpi(reconf->path,successed_config_path)==0 && wstrcmpi(reconf->name,successed_config_name)==0)
        LDR      R0,??onReconfigElf_1  ;; successed_config_path
        MOV      R4,R1
        LDR      R1,[R0, #+0]
        MOV      R6,#+0
        MOV      R0,R5
        SWI      +671
        CMP      R0,#+0
        BNE      ??onReconfigElf_2
        LDR      R0,??onReconfigElf_1+0x4  ;; successed_config_name
        LDR      R1,[R0, #+0]
        ADD      R0,R5,#+128
        SWI      +671
        CMP      R0,#+0
        BNE      ??onReconfigElf_2
// 1832   {
// 1833     MessageBox(EMPTY_TEXTID, TextID_Create(LG_UPDSETTING,ENC_UCS2,TEXTID_ANY_LEN), NOIMAGE, 1, 5000*msgShowTime, 0);
        LDR      R0,??onReconfigElf_1+0x8  ;; `?<Constant L"\\x54\\x61\\x6d\\x61\\x67\\x6f\\x63\\x68\\_4`
        MOV      R5,#+255
        ORR      R5,R5,#0xFF00
        MOV      R2,R5
        MOV      R1,#+0
        SWI      +349
        MOV      R1,R6
        PUSH     {R1}
        CFI CFA R13+24
        LDR      R1,??DataTable171  ;; msgShowTime
        MOV      R2,#+136
        LDR      R1,[R1, #+0]
        ORR      R2,R2,#0x1300
        MUL      R1,R2,R1
        MOV      R3,#+1
        PUSH     {R1}
        CFI CFA R13+28
        MOV      R2,R5
        MOV      R1,R0
        MVN      R0,#-1879048192
        SWI      +599
// 1834     InitConfig();
        _BLF     ??InitConfig,??InitConfig??rA
// 1835     load_icons();
        BL       ??load_icons
// 1836     load_strings();
        BL       ??load_strings
// 1837     set_all_old_img_status(99);
        MOV      R0,#+99
        BL       ??set_all_old_img_status
// 1838     int snd = (!GetSilent() || sndOnSilent) && sndEnable;
        SWI      +587
        CMP      R0,#+0
        ADD      SP,SP,#+8
        CFI CFA R13+20
        BEQ      ??onReconfigElf_3
        LDR      R0,??DataTable146  ;; sndOnSilent
        LDR      R0,[R0, #+0]
        CMP      R0,#+0
        BEQ      ??onReconfigElf_4
??onReconfigElf_3:
        LDR      R0,??DataTable147  ;; sndEnable
        LDR      R0,[R0, #+0]
        CMP      R0,#+0
        MOVNE    R5,#+1
        BNE      ??onReconfigElf_5
??onReconfigElf_4:
        MOV      R5,#+0
// 1839     for(int i=0; i < Pets[0].Status.Count; i++) { SaveStatus(i); }
??onReconfigElf_5:
        LDR      R6,??DataTable148  ;; Pets
        MOV      R7,#+0
        LDR      R0,[R6, #+196]
        CMP      R0,#+1
        BGE      ??onReconfigElf_6
        B        ??onReconfigElf_7
??onReconfigElf_8:
        MOV      R0,R7
        BL       ??SaveStatus
        ADD      R7,R7,#+1
??onReconfigElf_6:
        LDR      R0,[R6, #+196]
        CMP      R7,R0
        BLT      ??onReconfigElf_8
// 1840 
// 1841     LoadAllPets();
??onReconfigElf_7:
        BL       ??LoadAllPets
// 1842 
// 1843     for(int i=0; i<Pets[0].Status.Count; i++)
        LDR      R0,[R6, #+196]
        MOV      R7,#+0
        CMP      R0,#+1
        BGE      ??onReconfigElf_9
        B        ??onReconfigElf_10
// 1844     {
// 1845       InitPetPos(i);
??onReconfigElf_11:
        MOV      R0,R7
        BL       ??InitPetPos
// 1846       ChangeStatusImage(i, book, snd);
        MOV      R2,R5
        MOV      R1,R4
        MOV      R0,R7
        BL       ??ChangeStatusImage
// 1847     }
        ADD      R7,R7,#+1
??onReconfigElf_9:
        LDR      R0,[R6, #+196]
        CMP      R7,R0
        BLT      ??onReconfigElf_11
// 1848     result=1;
??onReconfigElf_10:
        MOV      R6,#+1
// 1849   }
// 1850   return(result);
??onReconfigElf_2:
        MOV      R0,R6
        POP      {R4-R7,PC}       ;; return
        DATA
??onReconfigElf_1:
        DC32     successed_config_path
        DC32     successed_config_name
        DC32     `?<Constant L"\\x54\\x61\\x6d\\x61\\x67\\x6f\\x63\\x68\\_4`
        CFI EndBlock cfiBlock120
// 1851 }

        RSEG CODE:CODE:NOROOT(2)
        DATA
??DataTable146:
        DC32     sndOnSilent

        RSEG CODE:CODE:NOROOT(2)
        DATA
??DataTable147:
        DC32     sndEnable

        RSEG CODE:CODE:NOROOT(2)
        DATA
??DataTable148:
        DC32     Pets

        RSEG CODE:CODE:NOROOT(2)
        CFI Block cfiBlock121 Using cfiCommon1
        CFI NoFunction
        THUMB
??onBcfgConfig??rT:
        BX       PC
        Nop      
        CFI EndBlock cfiBlock121
        REQUIRE ??onBcfgConfig
// 1852 

        RSEG CODE:CODE:NOROOT(2)
        CFI Block cfiBlock122 Using cfiCommon0
        CFI Function ??onBcfgConfig
        ARM
// 1853 int onBcfgConfig(void* mess, BOOK* bk)
// 1854 {
??onBcfgConfig:
        PUSH     {R4,LR}
        CFI ?RET Frame(CFA, -4)
        CFI R4 Frame(CFA, -8)
        CFI CFA R13+8
        MOV      R4,R1
// 1855   int snd = (!GetSilent() || sndOnSilent) && sndEnable;
        SWI      +587
        CMP      R0,#+0
        BEQ      ??onBcfgConfig_1
        LDR      R0,??DataTable161  ;; sndOnSilent
        LDR      R0,[R0, #+0]
        CMP      R0,#+0
        BEQ      ??onBcfgConfig_2
??onBcfgConfig_1:
        LDR      R0,??DataTable162  ;; sndEnable
        LDR      R0,[R0, #+0]
        CMP      R0,#+0
        MOVNE    R2,#+1
        BNE      ??onBcfgConfig_3
??onBcfgConfig_2:
        MOV      R2,#+0
// 1856   EditConfig(0, bk, snd);
??onBcfgConfig_3:
        MOV      R1,R4
        MOV      R0,#+0
        _BLF     ??EditConfig,??EditConfig??rA
// 1857   return 1;
        MOV      R0,#+1
        POP      {R4,PC}          ;; return
        CFI EndBlock cfiBlock122
// 1858 }

        RSEG CODE:CODE:NOROOT(2)
        CFI Block cfiBlock123 Using cfiCommon1
        CFI NoFunction
        THUMB
??onHelloMsg??rT:
        BX       PC
        Nop      
        CFI EndBlock cfiBlock123
        REQUIRE ??onHelloMsg
// 1859 

        RSEG CODE:CODE:NOROOT(2)
        CFI Block cfiBlock124 Using cfiCommon0
        CFI Function ??onHelloMsg
        ARM
// 1860 int onHelloMsg(void* mess, BOOK* book)
// 1861 {
??onHelloMsg:
        PUSH     {R4-R10,LR}
        CFI ?RET Frame(CFA, -4)
        CFI R10 Frame(CFA, -8)
        CFI R9 Frame(CFA, -12)
        CFI R8 Frame(CFA, -16)
        CFI R7 Frame(CFA, -20)
        CFI R6 Frame(CFA, -24)
        CFI R5 Frame(CFA, -28)
        CFI R4 Frame(CFA, -32)
        CFI CFA R13+32
// 1862   HELLO_MSG * msg = (HELLO_MSG*)mess;
// 1863   MyBOOK * bk = (MyBOOK *) FindBook(isTamagochiBook);
// 1864   if(!wstrcmp(msg->name,LELFNAME))
        LDR      R5,??DataTable169  ;; SpeakMessage
        MOV      R6,R0
        LDR      R0,??DataTable167  ;; ??isTamagochiBook
        SUB      SP,SP,#+256
        CFI CFA R13+288
        MOV      R4,R1
        SWI      +304
        MOV      R0,#+92
        ORR      R0,R0,#0x500
        ADD      R1,R0,R5
        ADD      R0,R6,#+4
        SWI      +342
        CMP      R0,#+0
        BNE      ??onHelloMsg_1
// 1865   {
// 1866     if((Pets[0].Status.needFriend == 1) && (Pets[0].Status.Count == 1) && ((Pets[0].Status.Sex == 0) || (Pets[0].Status.Sex == 1)))
        LDR      R8,??DataTable164  ;; Pets
        MOV      R6,#+136
        LDR      R0,[R8, #+204]
        ORR      R6,R6,#0x1300
        CMP      R0,#+1
        LDREQ    R0,[R8, #+196]
        MOV      R7,#+255
        ORR      R7,R7,#0xFF00
        CMPEQ    R0,#+1
        BNE      ??onHelloMsg_2
        LDR      R0,[R8, #+192]
        CMP      R0,#+0
        CMPNE    R0,#+1
        BNE      ??onHelloMsg_2
// 1867     {
// 1868       int indx_snd;
// 1869       wchar_t  sound_path[128];
// 1870       getdir(sound_path,SOUND_PATH);
        LDR      R1,??DataTable160  ;; SOUND_PATH
        MOV      R0,SP
        _BLF     ??getdir,??getdir??rA
// 1871 
// 1872       if(Pets[0].Status.Sex == 0)
        LDR      R0,[R8, #+192]
        CMP      R0,#+0
        BNE      ??onHelloMsg_3
// 1873       {
// 1874         InitStatus(1,Pets[0].Status.Age+1,1);
        LDR      R0,[R8, #+0]
        MOV      R2,#+1
        ADD      R1,R0,#+1
        MOV      R0,#+1
        BL       ??InitStatus
// 1875         indx_snd = CHEER_F_SND;
        MOV      R9,#+19
        B        ??onHelloMsg_4
// 1876       }
// 1877       else
// 1878       {
// 1879         InitStatus(1,Pets[0].Status.Age-1,0);
??onHelloMsg_3:
        LDR      R0,[R8, #+0]
        MOV      R2,#+0
        SUB      R1,R0,#+1
        MOV      R0,#+1
        BL       ??InitStatus
// 1880         indx_snd = CHEER_M_SND;
        MOV      R9,#+20
// 1881       }
// 1882       InitPetVar(1);
??onHelloMsg_4:
        MOV      R0,#+1
        BL       ??InitPetVar
// 1883       int snd = (!GetSilent() || sndOnSilent) && sndEnable;
        SWI      +587
        CMP      R0,#+0
        BEQ      ??onHelloMsg_5
        LDR      R0,??DataTable161  ;; sndOnSilent
        LDR      R0,[R0, #+0]
        CMP      R0,#+0
        BEQ      ??onHelloMsg_6
??onHelloMsg_5:
        LDR      R0,??DataTable162  ;; sndEnable
        LDR      R0,[R0, #+0]
        CMP      R0,#+0
        MOVNE    R10,#+1
        BNE      ??onHelloMsg_7
??onHelloMsg_6:
        MOV      R10,#+0
// 1884       Pets[0].Status.needFriend = 0;
??onHelloMsg_7:
        MOV      R0,#+0
        STR      R0,[R8, #+204]
// 1885       Pets[0].Status.haveFriend = 1;
        MOV      R0,#+1
        STR      R0,[R8, #+208]
// 1886       Pets[1].Status.haveFriend = 1;
        STR      R0,[R8, #+480]
// 1887       ChangeStatusImage(0, book, snd);
        MOV      R2,R10
        MOV      R1,R4
        MOV      R0,#+0
        BL       ??ChangeStatusImage
// 1888       ChangeStatusImage(1, book, snd);
        MOV      R2,R10
        MOV      R1,R4
        MOV      R0,#+1
        BL       ??ChangeStatusImage
// 1889       Pets[0].Status.Count = 2;
        MOV      R0,#+2
        STR      R0,[R8, #+196]
// 1890 
// 1891       if(snd) PlayFileV(sound_path, SoundName[indx_snd], sndVolume);
        CMP      R10,#+0
        BEQ      ??onHelloMsg_8
        LDR      R0,??DataTable163  ;; sndVolume
        LDR      R2,[R0, #+0]
        ADD      R0,R5,R9, LSL #+2
        LDR      R1,[R0, #+148]
        MOV      R0,SP
        SWI      +586
// 1892       MessageBox(TextID_Create(Pets[0].Status.name,ENC_UCS2,TEXTID_ANY_LEN), TextID_Create(LG_MSGNEWPET,ENC_UCS2,TEXTID_ANY_LEN), NOIMAGE, 1, 5000, 0);
??onHelloMsg_8:
        MOV      R2,R7
        MOV      R1,#+0
        ADD      R0,R5,#+1040
        SWI      +349
        MOV      R4,R0
        MOV      R2,R7
        MOV      R1,#+0
        ADD      R0,R8,#+64
        SWI      +349
        MOV      R1,#+0
        PUSH     {R1}
        CFI CFA R13+292
        PUSH     {R6}
        CFI CFA R13+296
        MOV      R3,#+1
        MOV      R2,R7
        MOV      R1,R4
        B        ??onHelloMsg_9
        CFI CFA R13+288
// 1893 
// 1894     }
// 1895     else
// 1896     {
// 1897       MessageBox(EMPTY_TEXTID, TextID_Create(LELFNAME _T("\n") LG_ALREADY_STARTED,ENC_UCS2,TEXTID_ANY_LEN), NOIMAGE, 1, 5000, 0);
??onHelloMsg_2:
        MOV      R2,R7
        MOV      R1,#+0
        MOV      R0,#+36
        ORR      R0,R0,#0x500
        ADD      R0,R0,R5
        SWI      +349
        MOV      R1,R0
        MOV      R0,#+0
        PUSH     {R0}
        CFI CFA R13+292
        PUSH     {R6}
        CFI CFA R13+296
        MOV      R3,#+1
        MOV      R2,R7
        MVN      R0,#-1879048192
??onHelloMsg_9:
        SWI      +599
        ADD      SP,SP,#+8
        CFI CFA R13+288
// 1898     }
// 1899   }
// 1900   return 1;
??onHelloMsg_1:
        MOV      R0,#+1
        ADD      SP,SP,#+256
        CFI CFA R13+32
        POP      {R4-R10,PC}      ;; return
        CFI EndBlock cfiBlock124
// 1901 }

        RSEG CODE:CODE:NOROOT(2)
        CFI Block cfiBlock125 Using cfiCommon1
        CFI NoFunction
        THUMB
??elf_exit??rT:
        BX       PC
        Nop      
        CFI EndBlock cfiBlock125
        REQUIRE ??elf_exit
// 1902 

        RSEG DYN_PAGE:CONST:SORT:NOROOT(2)
// 1903 const PAGE_MSG Tamagochi_BasePageEvents[]@ "DYN_PAGE" ={
Tamagochi_BasePageEvents:
        DATA
        DC32 995, ??SB_ELF_Killed, 997, ??TerminateElf, 998, ??ShowAuthorInfo
        DC32 996, ??onReconfigElf, 777, ??onHelloMsg, 64, 0H

        RSEG DATA_I:DATA:SORT:NOROOT(2)
timer_save:
        DS8 2
        REQUIRE `?<Initializer for timer_save>`
timer_refresh:
        DS8 2
        REQUIRE `?<Initializer for timer_refresh>`
timer_life:
        DS8 2
        REQUIRE `?<Initializer for timer_life>`
timerScreen:
        DS8 2
        REQUIRE `?<Initializer for timerScreen>`
offtimerScreen:
        DS8 2
        REQUIRE `?<Initializer for offtimerScreen>`
        DS8 2
Status_oldReDraw:
        DS8 4
        REQUIRE `?<Initializer for Status_oldReDraw>`
GUI_status:
        DS8 4
        REQUIRE `?<Initializer for GUI_status>`
Status_desc:
        DS8 4
        REQUIRE `?<Initializer for Status_desc>`
Display_oldReDraw:
        DS8 4
        REQUIRE `?<Initializer for Display_oldReDraw>`
GUI_display:
        DS8 4
        REQUIRE `?<Initializer for GUI_display>`
Display_desc:
        DS8 4
        REQUIRE `?<Initializer for Display_desc>`
Soft_oldReDraw:
        DS8 4
        REQUIRE `?<Initializer for Soft_oldReDraw>`
GUI_soft:
        DS8 4
        REQUIRE `?<Initializer for GUI_soft>`
Soft_desc:
        DS8 4
        REQUIRE `?<Initializer for Soft_desc>`
DisplayWidth:
        DS8 4
        REQUIRE `?<Initializer for DisplayWidth>`
DisplayHeight:
        DS8 4
        REQUIRE `?<Initializer for DisplayHeight>`
SoftBarHeight:
        DS8 4
        REQUIRE `?<Initializer for SoftBarHeight>`
StatusBarHeight:
        DS8 4
        REQUIRE `?<Initializer for StatusBarHeight>`
SoftBarY:
        DS8 4
        REQUIRE `?<Initializer for SoftBarY>`
StatusBarY:
        DS8 4
        REQUIRE `?<Initializer for StatusBarY>`
TamagochiBook:
        DS8 4
        REQUIRE `?<Initializer for TamagochiBook>`
screen:
        DS8 4
        REQUIRE `?<Initializer for screen>`
game_list:
        DS8 1024
        REQUIRE `?<Initializer for game_list>`
player_list:
        DS8 1024
        REQUIRE `?<Initializer for player_list>`
        DS8 128
        REQUIRE `?<Initializer for myappname>`
main_page:
        DS8 12
        REQUIRE `?<Initializer for main_page>`
// 1904   SBY_REDRAW_RELEASE_EVENT,  SB_ELF_Killed,
// 1905   ELF_TERMINATE_EVENT,       TerminateElf,
// 1906   ELF_SHOW_INFO_EVENT,       ShowAuthorInfo,
// 1907   ELF_RECONFIG_EVENT,        onReconfigElf,
// 1908   ELF_HELLO_MSG_EVENT,       onHelloMsg,
// 1909   NIL_EVENT_TAG,             NULL
// 1910 };
// 1911 
// 1912 PAGE_DESC base_page ={"Tamagochi_BasePage",0,Tamagochi_BasePageEvents};
base_page:
        DS8 12
        REQUIRE `?<Initializer for base_page>`

        RSEG DATA_I:DATA:SORT:NOROOT(2)
img_names:
        DS8 24
        REQUIRE `?<Initializer for img_names>`
img_status:
        DS8 8
        REQUIRE `?<Initializer for img_status>`
img_menu:
        DS8 44
        REQUIRE `?<Initializer for img_menu>`
SmileSize:
        DS8 4
        REQUIRE `?<Initializer for SmileSize>`
StatSize:
        DS8 4
        REQUIRE `?<Initializer for StatSize>`
// 1913 

        RSEG CODE:CODE:NOROOT(2)
        CFI Block cfiBlock126 Using cfiCommon0
        CFI Function ??elf_exit
        ARM
// 1914 void elf_exit(void)
// 1915 {
??elf_exit:
        PUSH     {LR}
        CFI ?RET Frame(CFA, -4)
        CFI CFA R13+4
// 1916   kill_data(&ELF_BEGIN, (void(*)(void*))mfree_adr());
        SWI      +33028
        MOV      R1,R0
        LDR      R0,??elf_exit_1  ;; ELF_BEGIN
        POP      {LR}             ;; Pop
        CFI ?RET R14
        CFI CFA R13+0
        _BF      kill_data,??kill_data??rA  ;; tailcall
        DATA
??elf_exit_1:
        DC32     ELF_BEGIN
        CFI EndBlock cfiBlock126
// 1917 }

        RSEG CODE:CODE:NOROOT(2)
        CFI Block cfiBlock127 Using cfiCommon1
        CFI NoFunction
        THUMB
??isTamagochiBook??rT:
        BX       PC
        Nop      
        CFI EndBlock cfiBlock127
        REQUIRE ??isTamagochiBook
// 1918 

        RSEG CODE:CODE:NOROOT(2)
        CFI Block cfiBlock128 Using cfiCommon0
        CFI Function ??isTamagochiBook
        ARM
// 1919 int isTamagochiBook(BOOK * book)
// 1920 {
??isTamagochiBook:
        PUSH     {R4,LR}
        CFI ?RET Frame(CFA, -4)
        CFI R4 Frame(CFA, -8)
        CFI CFA R13+8
        MOV      R4,R0
// 1921   if(!strncmp(book->xbook->name, myappname, strlen(ELFNAME))) return 1;
        LDR      R0,??DataTable158  ;; `?<Constant "Tamagochi">`
        SWI      +346
        LDR      R1,??isTamagochiBook_1  ;; timer_save + 2128
        MOV      R2,R0
        LDR      R0,[R4, #+0]
        LDR      R0,[R0, #+4]
        SWI      +638
        CMP      R0,#+0
        MOVEQ    R0,#+1
        POPEQ    {R4,PC}
// 1922   return 0;
        MOV      R0,#+0
        POP      {R4,PC}          ;; return
        DATA
??isTamagochiBook_1:
        DC32     timer_save + 2128
        CFI EndBlock cfiBlock128
// 1923 }

        RSEG CODE:CODE:NOROOT(2)
        DATA
??DataTable158:
        DC32     `?<Constant "Tamagochi">`

        RSEG CODE:CODE:NOROOT(2)
        CFI Block cfiBlock129 Using cfiCommon1
        CFI NoFunction
        THUMB
??onCloseTamagochiBook??rT:
        BX       PC
        Nop      
        CFI EndBlock cfiBlock129
        REQUIRE ??onCloseTamagochiBook
// 1924 

        RSEG CODE:CODE:NOROOT(2)
        CFI Block cfiBlock130 Using cfiCommon0
        CFI Function ??onCloseTamagochiBook
        ARM
// 1925 void onCloseTamagochiBook(BOOK * book)
// 1926 {
??onCloseTamagochiBook:
        PUSH     {R4-R7,LR}
        CFI ?RET Frame(CFA, -4)
        CFI R7 Frame(CFA, -8)
        CFI R6 Frame(CFA, -12)
        CFI R5 Frame(CFA, -16)
        CFI R4 Frame(CFA, -20)
        CFI CFA R13+20
        SUB      SP,SP,#+260
        CFI CFA R13+280
        MOVS     R4,R0
// 1927   wchar_t  sound_path[128];
// 1928   MyBOOK *bk = (MyBOOK *)book;
// 1929 
// 1930   if (bk)
        BEQ      ??onCloseTamagochiBook_1
// 1931   {
// 1932     if(timer_refresh) { Timer_Kill(&timer_refresh); }
        LDR      R5,??DataTable159  ;; timer_save
        LDRH     R0,[R5, #+2]
        CMP      R0,#+0
        BEQ      ??onCloseTamagochiBook_2
        ADD      R0,R5,#+2
        SWI      +298
// 1933     if(timer_save)    { Timer_Kill(&timer_save); }
??onCloseTamagochiBook_2:
        LDRH     R0,[R5, #+0]
        CMP      R0,#+0
        BEQ      ??onCloseTamagochiBook_3
        MOV      R0,R5
        SWI      +298
// 1934     if(timer_life)    { Timer_Kill(&timer_life); }
??onCloseTamagochiBook_3:
        LDRH     R0,[R5, #+4]
        CMP      R0,#+0
        BEQ      ??onCloseTamagochiBook_4
        ADD      R0,R5,#+4
        SWI      +298
// 1935 
// 1936     if(timerScreen)    offTimerScreen(0,0);
??onCloseTamagochiBook_4:
        LDRH     R0,[R5, #+6]
        CMP      R0,#+0
        BEQ      ??onCloseTamagochiBook_5
        MOV      R1,#+0
        MOV      R0,SP
        _BLF     ??LPARAM,??LPARAM??rA
        LDR      R1,[SP, #+0]
        MOV      R0,#+0
        BL       ??offTimerScreen
// 1937     if(offtimerScreen) Timer_Kill(&offtimerScreen);
??onCloseTamagochiBook_5:
        LDRH     R0,[R5, #+8]
        CMP      R0,#+0
        BEQ      ??onCloseTamagochiBook_6
        ADD      R0,R5,#+8
        SWI      +298
// 1938 
// 1939     if(Display_desc) DISP_DESC_SetOnRedraw(Display_desc, Display_oldReDraw);
??onCloseTamagochiBook_6:
        LDR      R0,[R5, #+32]
        CMP      R0,#+0
        BEQ      ??onCloseTamagochiBook_7
        LDR      R1,[R5, #+24]
        SWI      +552
// 1940     if(Status_desc)  DISP_DESC_SetOnRedraw(Status_desc, Status_oldReDraw);
??onCloseTamagochiBook_7:
        LDR      R0,[R5, #+20]
        CMP      R0,#+0
        BEQ      ??onCloseTamagochiBook_8
        LDR      R1,[R5, #+12]
        SWI      +552
// 1941     if(Soft_desc)    DISP_DESC_SetOnRedraw(Soft_desc, Soft_oldReDraw);
??onCloseTamagochiBook_8:
        LDR      R0,[R5, #+44]
        CMP      R0,#+0
        BEQ      ??onCloseTamagochiBook_9
        LDR      R1,[R5, #+36]
        SWI      +552
// 1942 
// 1943     getdir(sound_path,SOUND_PATH);
??onCloseTamagochiBook_9:
        LDR      R1,??DataTable160  ;; SOUND_PATH
        ADD      R0,SP,#+4
        _BLF     ??getdir,??getdir??rA
// 1944     if((!GetSilent() || sndOnSilent) && sndEnable) PlayFileV(sound_path, SoundName[BYEBYE_SND], sndVolume);
        SWI      +587
        CMP      R0,#+0
        BEQ      ??onCloseTamagochiBook_10
        LDR      R0,??DataTable161  ;; sndOnSilent
        LDR      R0,[R0, #+0]
        CMP      R0,#+0
        BEQ      ??onCloseTamagochiBook_11
??onCloseTamagochiBook_10:
        LDR      R0,??DataTable162  ;; sndEnable
        LDR      R0,[R0, #+0]
        CMP      R0,#+0
        BEQ      ??onCloseTamagochiBook_11
        LDR      R0,??DataTable163  ;; sndVolume
        LDR      R1,??onCloseTamagochiBook_12  ;; SpeakMessage + 1568
        LDR      R2,[R0, #+0]
        ADD      R0,SP,#+4
        SWI      +586
// 1945 
// 1946     free_icons();
// 1947     free_strings();
// 1948 
// 1949     for(int i=0; i < Pets[0].Status.Count; i++) { SaveStatus(i); }
??onCloseTamagochiBook_11:
        LDR      R6,??DataTable164  ;; Pets
        BL       ??free_icons
        BL       ??free_strings
        LDR      R0,[R6, #+196]
        MOV      R5,#+0
        CMP      R0,#+1
        BGE      ??onCloseTamagochiBook_13
        B        ??onCloseTamagochiBook_14
??onCloseTamagochiBook_15:
        MOV      R0,R5
        BL       ??SaveStatus
        ADD      R5,R5,#+1
??onCloseTamagochiBook_13:
        LDR      R0,[R6, #+196]
        CMP      R5,R0
        BLT      ??onCloseTamagochiBook_15
// 1950 
// 1951     if(bk->gui)
??onCloseTamagochiBook_14:
        LDR      R0,[R4, #+40]
        MOV      R5,#+0
        CMP      R0,#+0
        BEQ      ??onCloseTamagochiBook_16
// 1952     {
// 1953       GUIObject_Destroy( bk->gui);
        SWI      +462
// 1954       bk->gui = 0;
        STR      R5,[R4, #+40]
// 1955     }
// 1956 
// 1957     FREE_GUI(bk->stat_list);
??onCloseTamagochiBook_16:
        LDR      R0,[R4, #+300]
        CMP      R0,#+0
        BEQ      ??onCloseTamagochiBook_17
        SWI      +462
        STR      R5,[R4, #+300]
// 1958     FREE_GUI(bk->cbox_gui);
??onCloseTamagochiBook_17:
        LDR      R0,[R4, #+24]
        CMP      R0,#+0
        BEQ      ??onCloseTamagochiBook_18
        SWI      +462
        STR      R5,[R4, #+24]
// 1959     FREE_GUI(bk->text_input);
??onCloseTamagochiBook_18:
        LDR      R0,[R4, #+28]
        CMP      R0,#+0
        BEQ      ??onCloseTamagochiBook_19
        SWI      +462
        STR      R5,[R4, #+28]
// 1960     FREE_GUI(bk->yesno);
??onCloseTamagochiBook_19:
        LDR      R0,[R4, #+36]
        CMP      R0,#+0
        BEQ      ??onCloseTamagochiBook_20
        SWI      +462
        STR      R5,[R4, #+36]
// 1961 
// 1962     for(int i=0; i < MAX_PET_COUNT_GLB; i++)
??onCloseTamagochiBook_20:
        MOV      R6,#+0
// 1963     {
// 1964       FREE_GUI(bk->menu_list[i]);
??onCloseTamagochiBook_21:
        ADD      R7,R4,R6, LSL #+2
        LDR      R0,[R7, #+44]
        CMP      R0,#+0
        BEQ      ??onCloseTamagochiBook_22
        SWI      +462
        STR      R5,[R7, #+44]
// 1965     }
??onCloseTamagochiBook_22:
        ADD      R6,R6,#+1
        CMP      R6,#+32
        BLT      ??onCloseTamagochiBook_21
// 1966 
// 1967     SUBPROC(elf_exit);
        LDR      R0,??DataTable168  ;; ??elf_exit
        SWI      +264
// 1968   }
// 1969 }
??onCloseTamagochiBook_1:
        ADD      SP,SP,#+260      ;; stack cleaning
        CFI CFA R13+20
        POP      {R4-R7,PC}       ;; return
        DATA
??onCloseTamagochiBook_12:
        DC32     SpeakMessage + 1568
        CFI EndBlock cfiBlock130

        RSEG CODE:CODE:NOROOT(2)
        DATA
??DataTable159:
        DC32     timer_save

        RSEG CODE:CODE:NOROOT(2)
        DATA
??DataTable160:
        DC32     SOUND_PATH

        RSEG CODE:CODE:NOROOT(2)
        DATA
??DataTable161:
        DC32     sndOnSilent

        RSEG CODE:CODE:NOROOT(2)
        DATA
??DataTable162:
        DC32     sndEnable

        RSEG CODE:CODE:NOROOT(2)
        DATA
??DataTable163:
        DC32     sndVolume

        RSEG CODE:CODE:NOROOT(2)
        DATA
??DataTable164:
        DC32     Pets

        RSEG CODE:CODE:NOROOT(2)
        CFI Block cfiBlock131 Using cfiCommon1
        CFI NoFunction
        THUMB
??main??rT:
        BX       PC
        Nop      
        CFI EndBlock cfiBlock131
        REQUIRE main
// 1970 

        RSEG CODE:CODE:NOROOT(2)
        CFI Block cfiBlock132 Using cfiCommon0
        CFI Function main
        ARM
// 1971 int main (void)
// 1972 {
main:
        PUSH     {R4-R8,LR}
        CFI ?RET Frame(CFA, -4)
        CFI R8 Frame(CFA, -8)
        CFI R7 Frame(CFA, -12)
        CFI R6 Frame(CFA, -16)
        CFI R5 Frame(CFA, -20)
        CFI R4 Frame(CFA, -24)
        CFI CFA R13+24
// 1973   BOOK *bk;
// 1974   DisplayHeight = Display_GetHeight(0);
        LDR      R4,??DataTable166  ;; timer_save
        SUB      SP,SP,#+4
        CFI CFA R13+28
        MOV      R0,#+0
        SWI      +600
        STR      R0,[R4, #+52]
// 1975   DisplayWidth  = Display_GetWidth(0);
        MOV      R0,#+0
        SWI      +601
        STR      R0,[R4, #+48]
// 1976 
// 1977   switch(DisplayHeight){
        LDR      R0,[R4, #+52]
        MOV      R1,#+18
        SUBS     R2,R0,#+128
        SUBSNE   R2,R2,#+32
        BEQ      ??main_0
        SUBS     R2,R2,#+48
        SUBSNE   R2,R2,#+12
        BEQ      ??main_1
        SUBS     R2,R2,#+100
        BEQ      ??main_2
        B        ??main_3
// 1978     case 128:
// 1979         StatusBarY = STATUS_HEIGHT_128;
??main_0:
        MOV      R2,#+14
        STR      R2,[R4, #+68]
// 1980         SoftBarY   = DisplayHeight - SOFT_HEIGHT_128;
        SUB      R0,R0,#+18
        STR      R0,[R4, #+64]
// 1981         StatusBarHeight = STATUS_HEIGHT_128;
        STR      R2,[R4, #+60]
// 1982         SoftBarHeight   = SOFT_HEIGHT_128;
        STR      R1,[R4, #+56]
        B        ??main_3
// 1983         break;
// 1984     case 160:
// 1985         StatusBarY = STATUS_HEIGHT_160;
// 1986         SoftBarY   = DisplayHeight - SOFT_HEIGHT_160;
// 1987         StatusBarHeight = STATUS_HEIGHT_160;
// 1988         SoftBarHeight   = SOFT_HEIGHT_160;
// 1989         break;
// 1990     case 208:
// 1991         StatusBarY = STATUS_HEIGHT_208;
??main_1:
        STR      R1,[R4, #+68]
// 1992         SoftBarY   = DisplayHeight - SOFT_HEIGHT_208;
        SUB      R0,R0,#+26
        STR      R0,[R4, #+64]
// 1993         StatusBarHeight = STATUS_HEIGHT_208;
        STR      R1,[R4, #+60]
// 1994         SoftBarHeight   = SOFT_HEIGHT_208;
        MOV      R0,#+26
        B        ??main_4
// 1995         break;
// 1996     case 220:
// 1997         StatusBarY = STATUS_HEIGHT_220;
// 1998         SoftBarY   = DisplayHeight - SOFT_HEIGHT_220;
// 1999         StatusBarHeight = STATUS_HEIGHT_220;
// 2000         SoftBarHeight   = SOFT_HEIGHT_220;
// 2001         break;
// 2002     case 320:
// 2003         StatusBarY = STATUS_HEIGHT_320;
??main_2:
        MOV      R1,#+25
        STR      R1,[R4, #+68]
// 2004         SoftBarY   = DisplayHeight - SOFT_HEIGHT_320;
        SUB      R0,R0,#+30
        STR      R0,[R4, #+64]
// 2005         StatusBarHeight = STATUS_HEIGHT_320;
        STR      R1,[R4, #+60]
// 2006         SoftBarHeight   = SOFT_HEIGHT_320;
        MOV      R0,#+30
??main_4:
        STR      R0,[R4, #+56]
// 2007         break;
// 2008   }
// 2009 
// 2010   bk = FindBook(isTamagochiBook);
??main_3:
        LDR      R0,??DataTable167  ;; ??isTamagochiBook
// 2011   if(bk)
        LDR      R6,??DataTable168  ;; ??elf_exit
        LDR      R7,??DataTable169  ;; SpeakMessage
        SWI      +304
        MOVS     R5,R0
        MOV      R8,#+255
        ORR      R8,R8,#0xFF00
        BEQ      ??main_5
// 2012   {
// 2013     if(CheckEv(bk,ELF_HELLO_MSG_EVENT))
        MOV      R4,#+9
        ORR      R4,R4,#0x300
        MOV      R1,R4
        BL       ??CheckEv
        CMP      R0,#+0
        BEQ      ??main_6
// 2014     {
// 2015       HELLO_MSG * msg = new HELLO_MSG;
        MOV      R0,#+132
        _BLF     `??operator new`,`??operator new??rA`
        MOV      R8,R0
// 2016       msg->book = 0;
        MOV      R0,#+0
        STR      R0,[R8, #+0]
// 2017       snwprintf(msg->name,NAME_LEN - 1,L"%ls",LELFNAME);
        MOV      R0,#+92
        ORR      R0,R0,#0x500
        ADD      R3,R0,R7
        ADD      R2,R7,#+1392
        MOV      R1,#+63
        ADD      R0,R8,#+4
        SWI      +277
// 2018       UI_Event_toBookIDwData(ELF_HELLO_MSG_EVENT,BookObj_GetBookID(bk),msg,(void(*)(void*))mfree_adr());
        SWI      +33028
        MOV      R7,R0
        MOV      R0,R5
        SWI      +506
        MOV      R3,R7
        MOV      R2,R8
        MOV      R1,R0
        MOV      R0,R4
        SWI      +427
        B        ??main_7
// 2019     }
// 2020     else
// 2021     {
// 2022       MessageBox(EMPTY_TEXTID, TextID_Create(LELFNAME _T("\n") LG_ALREADY_STARTED,ENC_UCS2,TEXTID_ANY_LEN), NOIMAGE, 1, 5000, 0);
??main_6:
        MOV      R2,R8
        MOV      R1,#+0
        MOV      R0,#+36
        ORR      R0,R0,#0x500
        ADD      R0,R0,R7
        SWI      +349
        MOV      R1,R0
        MOV      R0,#+0
        PUSH     {R0}
        CFI CFA R13+32
        MOV      R3,#+1
        MOV      R2,R8
        MOV      R0,#+136
        ORR      R0,R0,#0x1300
        PUSH     {R0}
        CFI CFA R13+36
        MVN      R0,#-1879048192
        SWI      +599
        ADD      SP,SP,#+8
        CFI CFA R13+28
// 2023     }
// 2024     SUBPROC(elf_exit);
        B        ??main_7
// 2025     return 0;
// 2026   }
// 2027 
// 2028   InitConfig();
??main_5:
        _BLF     ??InitConfig,??InitConfig??rA
// 2029   TamagochiBook = new MyBOOK;
        MOV      R0,#+308
        _BLF     `??operator new`,`??operator new??rA`
        STR      R0,[R4, #+72]
// 2030   memset(TamagochiBook,0,sizeof(MyBOOK));
        MOV      R2,#+308
        MOV      R1,#+0
        SWI      +274
// 2031   if(!CreateBook((BOOK*)TamagochiBook,onCloseTamagochiBook,&base_page,myappname,-1,0))
        LDR      R1,??main_8      ;; ??onCloseTamagochiBook
        MOV      R0,#+0
        PUSH     {R0}
        CFI CFA R13+32
        ADD      R3,R4,#+2128
        MVN      R0,R0
        PUSH     {R0}
        CFI CFA R13+36
        MOV      R0,#+220
        ORR      R0,R0,#0x800
        ADD      R2,R0,R4
        LDR      R0,[R4, #+72]
        SWI      +299
        CMP      R0,#+0
        ADD      SP,SP,#+8
        CFI CFA R13+28
        BNE      ??main_9
// 2032   {
// 2033     delete TamagochiBook;
        LDR      R0,[R4, #+72]
        _BLF     `??operator delete`,`??operator delete??rA`
// 2034     SUBPROC(elf_exit);
??main_7:
        MOV      R0,R6
        SWI      +264
// 2035     return 0;
        MOV      R0,#+0
        POP      {R1,R4-R8,PC}
// 2036   }
// 2037   ModifyKeyHook(NewKey,KEY_HOOK_ADD,NULL);
??main_9:
        MOV      R1,#+0
        MOV      R0,SP
        _BLF     ??LPARAM,??LPARAM??rA
        LDR      R2,[SP, #+0]
        LDR      R0,??DataTable170  ;; ??NewKey
        MOV      R1,#+1
        SWI      +263
// 2038   if(ENA_HELLO_MSG) MessageBox(EMPTY_TEXTID, TextID_Create(LG_LOADING,ENC_UCS2,TEXTID_ANY_LEN), NOIMAGE, 1, 5000*msgShowTime, 0);
        LDR      R0,??main_8+0x4  ;; ENA_HELLO_MSG
        LDR      R0,[R0, #+0]
        CMP      R0,#+0
        BEQ      ??main_10
        MOV      R2,R8
        MOV      R1,#+0
        MOV      R0,#+120
        ORR      R0,R0,#0x500
        ADD      R0,R0,R7
        SWI      +349
        MOV      R1,#+0
        PUSH     {R1}
        CFI CFA R13+32
        LDR      R1,??DataTable171  ;; msgShowTime
        MOV      R2,#+136
        LDR      R1,[R1, #+0]
        ORR      R2,R2,#0x1300
        MUL      R1,R2,R1
        MOV      R3,#+1
        PUSH     {R1}
        CFI CFA R13+36
        MOV      R2,R8
        MOV      R1,R0
        MVN      R0,#-1879048192
        SWI      +599
        ADD      SP,SP,#+8
        CFI CFA R13+28
// 2039   BookObj_GotoPage((BOOK *)TamagochiBook,&main_page);
??main_10:
        LDR      R0,[R4, #+72]
        ADD      R1,R4,#+2256
        SWI      +301
// 2040   return 0;
        MOV      R0,#+0
        POP      {R1,R4-R8,PC}
        DATA
??main_8:
        DC32     ??onCloseTamagochiBook
        DC32     ENA_HELLO_MSG
        CFI EndBlock cfiBlock132
// 2041 }

        RSEG CODE:CODE:NOROOT(2)
        DATA
??DataTable166:
        DC32     timer_save

        RSEG CODE:CODE:NOROOT(2)
        DATA
??DataTable167:
        DC32     ??isTamagochiBook

        RSEG CODE:CODE:NOROOT(2)
        DATA
??DataTable168:
        DC32     ??elf_exit

        RSEG CODE:CODE:NOROOT(2)
        DATA
??DataTable169:
        DC32     SpeakMessage

        RSEG CODE:CODE:NOROOT(2)
        DATA
??DataTable170:
        DC32     ??NewKey

        RSEG CODE:CODE:NOROOT(2)
        DATA
??DataTable171:
        DC32     msgShowTime

        RSEG CODE:CODE:NOROOT(2)
        CFI Block cfiBlock133 Using cfiCommon0
        CFI NoFunction
        ARM
??getdir??rA:
        LDR      R12,??Subroutine65_0  ;; ??getdir
        BX       R12
        DATA
??Subroutine65_0:
        DC32     ??getdir
        CFI EndBlock cfiBlock133

        RSEG CODE:CODE:NOROOT(2)
        CFI Block cfiBlock134 Using cfiCommon0
        CFI NoFunction
        ARM
??LPARAM??rA:
        LDR      R12,??Subroutine66_0  ;; ??LPARAM
        BX       R12
        DATA
??Subroutine66_0:
        DC32     ??LPARAM
        CFI EndBlock cfiBlock134

        RSEG CODE:CODE:NOROOT(2)
        CFI Block cfiBlock135 Using cfiCommon0
        CFI NoFunction
        ARM
??ShowStatus??rA:
        LDR      R12,??Subroutine67_0  ;; ??ShowStatus
        BX       R12
        DATA
??Subroutine67_0:
        DC32     ??ShowStatus
        CFI EndBlock cfiBlock135

        RSEG CODE:CODE:NOROOT(2)
        CFI Block cfiBlock136 Using cfiCommon0
        CFI NoFunction
        ARM
??Random??rA:
        LDR      R12,??Subroutine68_0  ;; ??Random
        BX       R12
        DATA
??Subroutine68_0:
        DC32     ??Random
        CFI EndBlock cfiBlock136

        RSEG CODE:CODE:NOROOT(2)
        CFI Block cfiBlock137 Using cfiCommon0
        CFI NoFunction
        ARM
`??operator void *??rA`:
        LDR      R12,??Subroutine69_0  ;; `??operator void *`
        BX       R12
        DATA
??Subroutine69_0:
        DC32     `??operator void *`
        CFI EndBlock cfiBlock137

        RSEG CODE:CODE:NOROOT(2)
        CFI Block cfiBlock138 Using cfiCommon0
        CFI NoFunction
        ARM
??ShowMenu??rA:
        LDR      R12,??Subroutine70_0  ;; ??ShowMenu
        BX       R12
        DATA
??Subroutine70_0:
        DC32     ??ShowMenu
        CFI EndBlock cfiBlock138

        RSEG CODE:CODE:NOROOT(2)
        CFI Block cfiBlock139 Using cfiCommon0
        CFI NoFunction
        ARM
??CloseMenu??rA:
        LDR      R12,??Subroutine71_0  ;; ??CloseMenu
        BX       R12
        DATA
??Subroutine71_0:
        DC32     ??CloseMenu
        CFI EndBlock cfiBlock139

        RSEG CODE:CODE:NOROOT(2)
        CFI Block cfiBlock140 Using cfiCommon0
        CFI NoFunction
        ARM
??myCrc32??rA:
        LDR      R12,??Subroutine72_0  ;; ??myCrc32
        BX       R12
        DATA
??Subroutine72_0:
        DC32     ??myCrc32
        CFI EndBlock cfiBlock140

        RSEG CODE:CODE:NOROOT(2)
        CFI Block cfiBlock141 Using cfiCommon0
        CFI NoFunction
        ARM
??decrypt??rA:
        LDR      R12,??Subroutine73_0  ;; ??decrypt
        BX       R12
        DATA
??Subroutine73_0:
        DC32     ??decrypt
        CFI EndBlock cfiBlock141

        RSEG CODE:CODE:NOROOT(2)
        CFI Block cfiBlock142 Using cfiCommon0
        CFI NoFunction
        ARM
??encrypt??rA:
        LDR      R12,??Subroutine74_0  ;; ??encrypt
        BX       R12
        DATA
??Subroutine74_0:
        DC32     ??encrypt
        CFI EndBlock cfiBlock142

        RSEG CODE:CODE:NOROOT(2)
        CFI Block cfiBlock143 Using cfiCommon0
        CFI NoFunction
        ARM
??extractdir??rA:
        LDR      R12,??Subroutine75_0  ;; ??extractdir
        BX       R12
        DATA
??Subroutine75_0:
        DC32     ??extractdir
        CFI EndBlock cfiBlock143

        RSEG CODE:CODE:NOROOT(2)
        CFI Block cfiBlock144 Using cfiCommon0
        CFI NoFunction
        ARM
??LPARAM??rA_1:
        LDR      R12,??Subroutine76_0  ;; ??LPARAM_1
        BX       R12
        DATA
??Subroutine76_0:
        DC32     ??LPARAM_1
        CFI EndBlock cfiBlock144

        RSEG CODE:CODE:NOROOT(2)
        CFI Block cfiBlock145 Using cfiCommon0
        CFI NoFunction
        ARM
`??operator new??rA`:
        LDR      R12,??Subroutine77_0  ;; `??operator new`
        BX       R12
        DATA
??Subroutine77_0:
        DC32     `??operator new`
        CFI EndBlock cfiBlock145

        RSEG CODE:CODE:NOROOT(2)
        CFI Block cfiBlock146 Using cfiCommon0
        CFI NoFunction
        ARM
??InitConfig??rA:
        LDR      R12,??Subroutine78_0  ;; ??InitConfig
        BX       R12
        DATA
??Subroutine78_0:
        DC32     ??InitConfig
        CFI EndBlock cfiBlock146

        RSEG CODE:CODE:NOROOT(2)
        CFI Block cfiBlock147 Using cfiCommon0
        CFI NoFunction
        ARM
??EditConfig??rA:
        LDR      R12,??Subroutine79_0  ;; ??EditConfig
        BX       R12
        DATA
??Subroutine79_0:
        DC32     ??EditConfig
        CFI EndBlock cfiBlock147

        RSEG CODE:CODE:NOROOT(2)
        CFI Block cfiBlock148 Using cfiCommon0
        CFI NoFunction
        ARM
??kill_data??rA:
        LDR      R12,??Subroutine80_0  ;; kill_data
        BX       R12
        DATA
??Subroutine80_0:
        DC32     kill_data
        CFI EndBlock cfiBlock148

        RSEG CODE:CODE:NOROOT(2)
        CFI Block cfiBlock149 Using cfiCommon0
        CFI NoFunction
        ARM
`??operator delete??rA`:
        LDR      R12,??Subroutine81_0  ;; `??operator delete`
        BX       R12
        DATA
??Subroutine81_0:
        DC32     `??operator delete`
        CFI EndBlock cfiBlock149

        RSEG CODE:CODE:NOROOT(2)
        CFI Block cfiBlock150 Using cfiCommon0
        CFI Function ??Random
        ARM
// __??Code32?? __code __interwork __atpcs unsigned char Random()
??Random:
        LDR      R0,??Random_1    ;; rndindex
        LDRB     R1,[R0, #+0]
        ADD      R1,R1,#+1
        STRB     R1,[R0, #+0]
        LDR      R0,??Random_1+0x4  ;; rndtable
        AND      R1,R1,#0xFF
        LDRB     R0,[R1, +R0]
        BX       LR               ;; return
        DATA
??Random_1:
        DC32     rndindex
        DC32     rndtable
        CFI EndBlock cfiBlock150

        RSEG DATA_ID:CONST:SORT:NOROOT(2)
`?<Initializer for timer_save>`:
        DATA
        DC16 0
`?<Initializer for timer_refresh>`:
        DC16 0
`?<Initializer for timer_life>`:
        DC16 0
`?<Initializer for timerScreen>`:
        DC16 0
`?<Initializer for offtimerScreen>`:
        DC16 0
        DC8 0, 0
`?<Initializer for Status_oldReDraw>`:
        DC32 0H
`?<Initializer for GUI_status>`:
        DC32 0H
`?<Initializer for Status_desc>`:
        DC32 0H
`?<Initializer for Display_oldReDraw>`:
        DC32 0H
`?<Initializer for GUI_display>`:
        DC32 0H
`?<Initializer for Display_desc>`:
        DC32 0H
`?<Initializer for Soft_oldReDraw>`:
        DC32 0H
`?<Initializer for GUI_soft>`:
        DC32 0H
`?<Initializer for Soft_desc>`:
        DC32 0H
`?<Initializer for DisplayWidth>`:
        DC32 0
`?<Initializer for DisplayHeight>`:
        DC32 0
`?<Initializer for SoftBarHeight>`:
        DC32 0
`?<Initializer for StatusBarHeight>`:
        DC32 0
`?<Initializer for SoftBarY>`:
        DC32 0
`?<Initializer for StatusBarY>`:
        DC32 0
`?<Initializer for TamagochiBook>`:
        DC32 0H
`?<Initializer for screen>`:
        DC32 0
`?<Initializer for game_list>`:
        DC8 0, 0, 0, 0, 0, 0, 0, 0, 0, 0, 0, 0, 0, 0, 0, 0
        DC8 0, 0, 0, 0, 0, 0, 0, 0, 0, 0, 0, 0, 0, 0, 0, 0
        DC8 0, 0, 0, 0, 0, 0, 0, 0, 0, 0, 0, 0, 0, 0, 0, 0
        DC8 0, 0, 0, 0, 0, 0, 0, 0, 0, 0, 0, 0, 0, 0, 0, 0
        DC8 0, 0, 0, 0, 0, 0, 0, 0, 0, 0, 0, 0, 0, 0, 0, 0
        DC8 0, 0, 0, 0, 0, 0, 0, 0, 0, 0, 0, 0, 0, 0, 0, 0
        DC8 0, 0, 0, 0, 0, 0, 0, 0, 0, 0, 0, 0, 0, 0, 0, 0
        DC8 0, 0, 0, 0, 0, 0, 0, 0, 0, 0, 0, 0, 0, 0, 0, 0
        DC8 0, 0, 0, 0, 0, 0, 0, 0, 0, 0, 0, 0, 0, 0, 0, 0
        DC8 0, 0, 0, 0, 0, 0, 0, 0, 0, 0, 0, 0, 0, 0, 0, 0
        DC8 0, 0, 0, 0, 0, 0, 0, 0, 0, 0, 0, 0, 0, 0, 0, 0
        DC8 0, 0, 0, 0, 0, 0, 0, 0, 0, 0, 0, 0, 0, 0, 0, 0
        DC8 0, 0, 0, 0, 0, 0, 0, 0, 0, 0, 0, 0, 0, 0, 0, 0
        DC8 0, 0, 0, 0, 0, 0, 0, 0, 0, 0, 0, 0, 0, 0, 0, 0
        DC8 0, 0, 0, 0, 0, 0, 0, 0, 0, 0, 0, 0, 0, 0, 0, 0
        DC8 0, 0, 0, 0, 0, 0, 0, 0, 0, 0, 0, 0, 0, 0, 0, 0
        DC8 0, 0, 0, 0, 0, 0, 0, 0, 0, 0, 0, 0, 0, 0, 0, 0
        DC8 0, 0, 0, 0, 0, 0, 0, 0, 0, 0, 0, 0, 0, 0, 0, 0
        DC8 0, 0, 0, 0, 0, 0, 0, 0, 0, 0, 0, 0, 0, 0, 0, 0
        DC8 0, 0, 0, 0, 0, 0, 0, 0, 0, 0, 0, 0, 0, 0, 0, 0
        DC8 0, 0, 0, 0, 0, 0, 0, 0, 0, 0, 0, 0, 0, 0, 0, 0
        DC8 0, 0, 0, 0, 0, 0, 0, 0, 0, 0, 0, 0, 0, 0, 0, 0
        DC8 0, 0, 0, 0, 0, 0, 0, 0, 0, 0, 0, 0, 0, 0, 0, 0
        DC8 0, 0, 0, 0, 0, 0, 0, 0, 0, 0, 0, 0, 0, 0, 0, 0
        DC8 0, 0, 0, 0, 0, 0, 0, 0, 0, 0, 0, 0, 0, 0, 0, 0
        DC8 0, 0, 0, 0, 0, 0, 0, 0, 0, 0, 0, 0, 0, 0, 0, 0
        DC8 0, 0, 0, 0, 0, 0, 0, 0, 0, 0, 0, 0, 0, 0, 0, 0
        DC8 0, 0, 0, 0, 0, 0, 0, 0, 0, 0, 0, 0, 0, 0, 0, 0
        DC8 0, 0, 0, 0, 0, 0, 0, 0, 0, 0, 0, 0, 0, 0, 0, 0
        DC8 0, 0, 0, 0, 0, 0, 0, 0, 0, 0, 0, 0, 0, 0, 0, 0
        DC8 0, 0, 0, 0, 0, 0, 0, 0, 0, 0, 0, 0, 0, 0, 0, 0
        DC8 0, 0, 0, 0, 0, 0, 0, 0, 0, 0, 0, 0, 0, 0, 0, 0
        DC8 0, 0, 0, 0, 0, 0, 0, 0, 0, 0, 0, 0, 0, 0, 0, 0
        DC8 0, 0, 0, 0, 0, 0, 0, 0, 0, 0, 0, 0, 0, 0, 0, 0
        DC8 0, 0, 0, 0, 0, 0, 0, 0, 0, 0, 0, 0, 0, 0, 0, 0
        DC8 0, 0, 0, 0, 0, 0, 0, 0, 0, 0, 0, 0, 0, 0, 0, 0
        DC8 0, 0, 0, 0, 0, 0, 0, 0, 0, 0, 0, 0, 0, 0, 0, 0
        DC8 0, 0, 0, 0, 0, 0, 0, 0, 0, 0, 0, 0, 0, 0, 0, 0
        DC8 0, 0, 0, 0, 0, 0, 0, 0, 0, 0, 0, 0, 0, 0, 0, 0
        DC8 0, 0, 0, 0, 0, 0, 0, 0, 0, 0, 0, 0, 0, 0, 0, 0
        DC8 0, 0, 0, 0, 0, 0, 0, 0, 0, 0, 0, 0, 0, 0, 0, 0
        DC8 0, 0, 0, 0, 0, 0, 0, 0, 0, 0, 0, 0, 0, 0, 0, 0
        DC8 0, 0, 0, 0, 0, 0, 0, 0, 0, 0, 0, 0, 0, 0, 0, 0
        DC8 0, 0, 0, 0, 0, 0, 0, 0, 0, 0, 0, 0, 0, 0, 0, 0
        DC8 0, 0, 0, 0, 0, 0, 0, 0, 0, 0, 0, 0, 0, 0, 0, 0
        DC8 0, 0, 0, 0, 0, 0, 0, 0, 0, 0, 0, 0, 0, 0, 0, 0
        DC8 0, 0, 0, 0, 0, 0, 0, 0, 0, 0, 0, 0, 0, 0, 0, 0
        DC8 0, 0, 0, 0, 0, 0, 0, 0, 0, 0, 0, 0, 0, 0, 0, 0
        DC8 0, 0, 0, 0, 0, 0, 0, 0, 0, 0, 0, 0, 0, 0, 0, 0
        DC8 0, 0, 0, 0, 0, 0, 0, 0, 0, 0, 0, 0, 0, 0, 0, 0
        DC8 0, 0, 0, 0, 0, 0, 0, 0, 0, 0, 0, 0, 0, 0, 0, 0
        DC8 0, 0, 0, 0, 0, 0, 0, 0, 0, 0, 0, 0, 0, 0, 0, 0
        DC8 0, 0, 0, 0, 0, 0, 0, 0, 0, 0, 0, 0, 0, 0, 0, 0
        DC8 0, 0, 0, 0, 0, 0, 0, 0, 0, 0, 0, 0, 0, 0, 0, 0
        DC8 0, 0, 0, 0, 0, 0, 0, 0, 0, 0, 0, 0, 0, 0, 0, 0
        DC8 0, 0, 0, 0, 0, 0, 0, 0, 0, 0, 0, 0, 0, 0, 0, 0
        DC8 0, 0, 0, 0, 0, 0, 0, 0, 0, 0, 0, 0, 0, 0, 0, 0
        DC8 0, 0, 0, 0, 0, 0, 0, 0, 0, 0, 0, 0, 0, 0, 0, 0
        DC8 0, 0, 0, 0, 0, 0, 0, 0, 0, 0, 0, 0, 0, 0, 0, 0
        DC8 0, 0, 0, 0, 0, 0, 0, 0, 0, 0, 0, 0, 0, 0, 0, 0
        DC8 0, 0, 0, 0, 0, 0, 0, 0, 0, 0, 0, 0, 0, 0, 0, 0
        DC8 0, 0, 0, 0, 0, 0, 0, 0, 0, 0, 0, 0, 0, 0, 0, 0
        DC8 0, 0, 0, 0, 0, 0, 0, 0, 0, 0, 0, 0, 0, 0, 0, 0
        DC8 0, 0, 0, 0, 0, 0, 0, 0, 0, 0, 0, 0, 0, 0, 0, 0
`?<Initializer for player_list>`:
        DC8 0, 0, 0, 0, 0, 0, 0, 0, 0, 0, 0, 0, 0, 0, 0, 0
        DC8 0, 0, 0, 0, 0, 0, 0, 0, 0, 0, 0, 0, 0, 0, 0, 0
        DC8 0, 0, 0, 0, 0, 0, 0, 0, 0, 0, 0, 0, 0, 0, 0, 0
        DC8 0, 0, 0, 0, 0, 0, 0, 0, 0, 0, 0, 0, 0, 0, 0, 0
        DC8 0, 0, 0, 0, 0, 0, 0, 0, 0, 0, 0, 0, 0, 0, 0, 0
        DC8 0, 0, 0, 0, 0, 0, 0, 0, 0, 0, 0, 0, 0, 0, 0, 0
        DC8 0, 0, 0, 0, 0, 0, 0, 0, 0, 0, 0, 0, 0, 0, 0, 0
        DC8 0, 0, 0, 0, 0, 0, 0, 0, 0, 0, 0, 0, 0, 0, 0, 0
        DC8 0, 0, 0, 0, 0, 0, 0, 0, 0, 0, 0, 0, 0, 0, 0, 0
        DC8 0, 0, 0, 0, 0, 0, 0, 0, 0, 0, 0, 0, 0, 0, 0, 0
        DC8 0, 0, 0, 0, 0, 0, 0, 0, 0, 0, 0, 0, 0, 0, 0, 0
        DC8 0, 0, 0, 0, 0, 0, 0, 0, 0, 0, 0, 0, 0, 0, 0, 0
        DC8 0, 0, 0, 0, 0, 0, 0, 0, 0, 0, 0, 0, 0, 0, 0, 0
        DC8 0, 0, 0, 0, 0, 0, 0, 0, 0, 0, 0, 0, 0, 0, 0, 0
        DC8 0, 0, 0, 0, 0, 0, 0, 0, 0, 0, 0, 0, 0, 0, 0, 0
        DC8 0, 0, 0, 0, 0, 0, 0, 0, 0, 0, 0, 0, 0, 0, 0, 0
        DC8 0, 0, 0, 0, 0, 0, 0, 0, 0, 0, 0, 0, 0, 0, 0, 0
        DC8 0, 0, 0, 0, 0, 0, 0, 0, 0, 0, 0, 0, 0, 0, 0, 0
        DC8 0, 0, 0, 0, 0, 0, 0, 0, 0, 0, 0, 0, 0, 0, 0, 0
        DC8 0, 0, 0, 0, 0, 0, 0, 0, 0, 0, 0, 0, 0, 0, 0, 0
        DC8 0, 0, 0, 0, 0, 0, 0, 0, 0, 0, 0, 0, 0, 0, 0, 0
        DC8 0, 0, 0, 0, 0, 0, 0, 0, 0, 0, 0, 0, 0, 0, 0, 0
        DC8 0, 0, 0, 0, 0, 0, 0, 0, 0, 0, 0, 0, 0, 0, 0, 0
        DC8 0, 0, 0, 0, 0, 0, 0, 0, 0, 0, 0, 0, 0, 0, 0, 0
        DC8 0, 0, 0, 0, 0, 0, 0, 0, 0, 0, 0, 0, 0, 0, 0, 0
        DC8 0, 0, 0, 0, 0, 0, 0, 0, 0, 0, 0, 0, 0, 0, 0, 0
        DC8 0, 0, 0, 0, 0, 0, 0, 0, 0, 0, 0, 0, 0, 0, 0, 0
        DC8 0, 0, 0, 0, 0, 0, 0, 0, 0, 0, 0, 0, 0, 0, 0, 0
        DC8 0, 0, 0, 0, 0, 0, 0, 0, 0, 0, 0, 0, 0, 0, 0, 0
        DC8 0, 0, 0, 0, 0, 0, 0, 0, 0, 0, 0, 0, 0, 0, 0, 0
        DC8 0, 0, 0, 0, 0, 0, 0, 0, 0, 0, 0, 0, 0, 0, 0, 0
        DC8 0, 0, 0, 0, 0, 0, 0, 0, 0, 0, 0, 0, 0, 0, 0, 0
        DC8 0, 0, 0, 0, 0, 0, 0, 0, 0, 0, 0, 0, 0, 0, 0, 0
        DC8 0, 0, 0, 0, 0, 0, 0, 0, 0, 0, 0, 0, 0, 0, 0, 0
        DC8 0, 0, 0, 0, 0, 0, 0, 0, 0, 0, 0, 0, 0, 0, 0, 0
        DC8 0, 0, 0, 0, 0, 0, 0, 0, 0, 0, 0, 0, 0, 0, 0, 0
        DC8 0, 0, 0, 0, 0, 0, 0, 0, 0, 0, 0, 0, 0, 0, 0, 0
        DC8 0, 0, 0, 0, 0, 0, 0, 0, 0, 0, 0, 0, 0, 0, 0, 0
        DC8 0, 0, 0, 0, 0, 0, 0, 0, 0, 0, 0, 0, 0, 0, 0, 0
        DC8 0, 0, 0, 0, 0, 0, 0, 0, 0, 0, 0, 0, 0, 0, 0, 0
        DC8 0, 0, 0, 0, 0, 0, 0, 0, 0, 0, 0, 0, 0, 0, 0, 0
        DC8 0, 0, 0, 0, 0, 0, 0, 0, 0, 0, 0, 0, 0, 0, 0, 0
        DC8 0, 0, 0, 0, 0, 0, 0, 0, 0, 0, 0, 0, 0, 0, 0, 0
        DC8 0, 0, 0, 0, 0, 0, 0, 0, 0, 0, 0, 0, 0, 0, 0, 0
        DC8 0, 0, 0, 0, 0, 0, 0, 0, 0, 0, 0, 0, 0, 0, 0, 0
        DC8 0, 0, 0, 0, 0, 0, 0, 0, 0, 0, 0, 0, 0, 0, 0, 0
        DC8 0, 0, 0, 0, 0, 0, 0, 0, 0, 0, 0, 0, 0, 0, 0, 0
        DC8 0, 0, 0, 0, 0, 0, 0, 0, 0, 0, 0, 0, 0, 0, 0, 0
        DC8 0, 0, 0, 0, 0, 0, 0, 0, 0, 0, 0, 0, 0, 0, 0, 0
        DC8 0, 0, 0, 0, 0, 0, 0, 0, 0, 0, 0, 0, 0, 0, 0, 0
        DC8 0, 0, 0, 0, 0, 0, 0, 0, 0, 0, 0, 0, 0, 0, 0, 0
        DC8 0, 0, 0, 0, 0, 0, 0, 0, 0, 0, 0, 0, 0, 0, 0, 0
        DC8 0, 0, 0, 0, 0, 0, 0, 0, 0, 0, 0, 0, 0, 0, 0, 0
        DC8 0, 0, 0, 0, 0, 0, 0, 0, 0, 0, 0, 0, 0, 0, 0, 0
        DC8 0, 0, 0, 0, 0, 0, 0, 0, 0, 0, 0, 0, 0, 0, 0, 0
        DC8 0, 0, 0, 0, 0, 0, 0, 0, 0, 0, 0, 0, 0, 0, 0, 0
        DC8 0, 0, 0, 0, 0, 0, 0, 0, 0, 0, 0, 0, 0, 0, 0, 0
        DC8 0, 0, 0, 0, 0, 0, 0, 0, 0, 0, 0, 0, 0, 0, 0, 0
        DC8 0, 0, 0, 0, 0, 0, 0, 0, 0, 0, 0, 0, 0, 0, 0, 0
        DC8 0, 0, 0, 0, 0, 0, 0, 0, 0, 0, 0, 0, 0, 0, 0, 0
        DC8 0, 0, 0, 0, 0, 0, 0, 0, 0, 0, 0, 0, 0, 0, 0, 0
        DC8 0, 0, 0, 0, 0, 0, 0, 0, 0, 0, 0, 0, 0, 0, 0, 0
        DC8 0, 0, 0, 0, 0, 0, 0, 0, 0, 0, 0, 0, 0, 0, 0, 0
        DC8 0, 0, 0, 0, 0, 0, 0, 0, 0, 0, 0, 0, 0, 0, 0, 0
`?<Initializer for myappname>`:
        DC8 "Tamagochi"
        DC8 0, 0, 0, 0, 0, 0, 0, 0, 0, 0, 0, 0, 0, 0, 0, 0
        DC8 0, 0, 0, 0, 0, 0, 0, 0, 0, 0, 0, 0, 0, 0, 0, 0
        DC8 0, 0, 0, 0, 0, 0, 0, 0, 0, 0, 0, 0, 0, 0, 0, 0
        DC8 0, 0, 0, 0, 0, 0, 0, 0, 0, 0, 0, 0, 0, 0, 0, 0
        DC8 0, 0, 0, 0, 0, 0, 0, 0, 0, 0, 0, 0, 0, 0, 0, 0
        DC8 0, 0, 0, 0, 0, 0, 0, 0, 0, 0, 0, 0, 0, 0, 0, 0
        DC8 0, 0, 0, 0, 0, 0, 0, 0, 0, 0, 0, 0, 0, 0, 0, 0, 0, 0, 0, 0, 0, 0
`?<Initializer for main_page>`:
        DC32 `?<Constant "Tamagochi_MainPage">`, 0H, Tamagochi_MainPageEvents
`?<Initializer for base_page>`:
        DC32 `?<Constant "Tamagochi_BasePage">`, 0H, Tamagochi_BasePageEvents

        RSEG DATA_ID:CONST:SORT:NOROOT(2)
`?<Initializer for img_names>`:
        DATA
        DC16 65535, 65535, 65535, 65535, 65535, 65535, 65535, 65535, 65535
        DC16 65535, 65535
        DC8 0, 0
`?<Initializer for img_status>`:
        DC16 65535, 65535, 65535, 65535
`?<Initializer for img_menu>`:
        DC16 65535, 65535, 65535, 65535, 65535, 65535, 65535, 65535, 65535
        DC16 65535, 65535, 65535, 65535, 65535, 65535, 65535, 65535, 65535
        DC16 65535, 65535, 65535, 65535
`?<Initializer for SmileSize>`:
        DC32 0
`?<Initializer for StatSize>`:
        DC32 0

        RSEG DATA_ID:CONST:SORT:NOROOT(2)
`?*?DATA_ID`:

        RSEG INITTAB:CODE:ROOT(2)
        DATA
?init?tab?DATA_I:
        DCD      sfe(DATA_I) - sfb(DATA_I), sfb(DATA_I), sfb(DATA_ID)

        RSEG INITTAB:CODE:ROOT(2)
        DATA
?init?tab?DATA_Z:
        DCD      sfe(DATA_Z) - sfb(DATA_Z), sfb(DATA_Z), sfb(DATA_Z)

        END
// 2042 
// 2043 /*
// 2044 Revision history:
// 2045   4.1
// 2046       + “еперь, если умер, то ничего не просит.
// 2047       + The brazilian portuguese version was added.
// 2048       + улучшени€/исправлени€/оптимизаци€
// 2049   4.0
// 2050       + »зменени€ в конигурационном файле.
// 2051       + ƒобавлена возможность помыть питомца.
// 2052       + ƒобавлен переход в комнату с едой из меню.
// 2053       + ƒобавлено мигание экраном.
// 2054       + улучшени€/исправлени€/оптимизаци€
// 2055   3.0
// 2056       + »зменени€ в конигурационном файле.
// 2057       + ѕереработан алгоритм жизненного цикла :-)
// 2058       + улучшени€/исправлени€/оптимизаци€
// 2059   2.0
// 2060       + »зменени€ в конигурационном файле.
// 2061       + ѕереработан код
// 2062       + ћожно дать им€ питомцу (отбражаетс€ в меню/статусе)
// 2063       + ћожно задать/посмотреть пол питомца (отбражаетс€ в статусе)
// 2064       + ƒинамическое движение по экрану
// 2065       + »зменен алгоритм засыпани€.
// 2066       + «агрузка внешнего списка игр/плейеров, размером не более 1кбайта (один раз при старте)
// 2067       + ѕросыпаетс€ если включаетс€ музыка/радио/игры
// 2068       + улучшени€/исправлени€/оптимизаци€
// 2069   1.2.1
// 2070       + Ќебольшое исправление ошибок и оптимизаци€.
// 2071   1.2
// 2072       + »зменени€ в конигурационном файле.
// 2073       + ѕри низкой дисциплине капризничает  (не ложитс€ спать, не лечитс€)
// 2074       + ƒобавлена вибраци€.
// 2075       + ƒобавлена возможность использовать дл€ навигации цифровые клавиши в меню/статусе.
// 2076       + ¬ыбор времени показа сообщений.
// 2077       + улучшени€/исправлени€/оптимизаци€
// 2078   1.1
// 2079       + »зменени€ в конигурационном файле.
// 2080       + ќтображение возраста в букменеджере
// 2081       + ¬озожность отключать звуки во врем€ ночного сна (за исключением действий в меню).
// 2082       + ≈сли не спит, то при скуке включает музыку (плейер/радио)
// 2083       +  ушает если включена зар€дка
// 2084   1.0
// 2085       + Ќачальна€ верси€
// 2086 */
// 2087 
// 
// 16 508 bytes in segment CODE
//  4 788 bytes in segment DATA_C
//  2 364 bytes in segment DATA_I
//  2 364 bytes in segment DATA_ID
//  8 705 bytes in segment DATA_Z
//     64 bytes in segment DYN_PAGE
//     24 bytes in segment INITTAB
// 
// 15 980 bytes of CODE  memory (+ 552 bytes shared)
//  7 216 bytes of CONST memory
// 11 069 bytes of DATA  memory
//
//Errors: none
//Warnings: none
