##############################################################################
#                                                                            #
# IAR ARM ANSI C/C++ Compiler V4.42A/W32 EVALUATION    10/Jun/2013  23:08:23 #
# Copyright 1999-2005 IAR Systems. All rights reserved.                      #
#                                                                            #
#    Cpu mode        =  interwork                                            #
#    Endian          =  little                                               #
#    Stack alignment =  4                                                    #
#    Source file     =  Z:\home\perk11\www\perk11.info\svn\SE\Tamagochi\stat #
#                       us.c                                                 #
#    Command line    =  Z:\home\perk11\www\perk11.info\svn\SE\Tamagochi\stat #
#                       us.c -D NDEBUG -D LANG_EN -D OLDFUNCTIONS -lC        #
#                       Z:\home\perk11\www\perk11.info\svn\SE\Tamagochi\Rele #
#                       ase_EN\List\ -lA Z:\home\perk11\www\perk11.info\svn\ #
#                       SE\Tamagochi\Release_EN\List\ -o                     #
#                       Z:\home\perk11\www\perk11.info\svn\SE\Tamagochi\Rele #
#                       ase_EN\Obj\ -s9 --no_unroll --no_inline --cpu_mode   #
#                       arm --endian little --cpu ARM926EJ-S --stack_align   #
#                       4 --interwork -e --enable_multibytes --fpu None      #
#                       --eec++ --dlib_config Z:\home\perk11\IAR2\arm\LIB\dl #
#                       5tpainl8n.h -I Z:\home\perk11\IAR2\arm\INC\          #
#    List file       =  Z:\home\perk11\www\perk11.info\svn\SE\Tamagochi\Rele #
#                       ase_EN\List\status.lst                               #
#    Object file     =  Z:\home\perk11\www\perk11.info\svn\SE\Tamagochi\Rele #
#                       ase_EN\Obj\status.r79                                #
#                                                                            #
#                                                                            #
##############################################################################

Z:\home\perk11\www\perk11.info\svn\SE\Tamagochi\status.c
      1          #include "..\\include\Lib_Clara.h"
      2          #include "..\\include\Dir.h"
      3          #include "..\\include\var_arg.h"
      4          #include "..\\include\cfg_items.h"
      5          #include "Tamagochi.h"
      6          #include "language.h"
      7          
      8          int ExitStatusList(void *data, BOOK * book);
      9          void ViewSex(int indx);
     10          void ViewAge(int indx);
     11          void ViewFamilyLife(int indx);
     12          void ViewHealth(int indx);
     13          void ViewHunger(int indx);
     14          void ViewHappiness(int indx);
     15          void ViewDirtiness(int indx);
     16          void ViewBoredom(int indx);
     17          void ViewBehaviour(int indx);
     18          void ViewFatigue(int indx);
     19          
     20          static const wchar_t * const smenu_sextexts[3]=
     21          {
     22            LG_FEMALE,
     23            LG_MALE,
     24            LG_NOTDEF
     25          };
     26          
     27          static int const smenu_sexiconsnum[3]=
     28          {
     29            SM_FEMALE_ICN,
     30            SM_MALE_ICN,
     31            SM_SEX_ICN
     32          };
     33          

   \                                 In segment DATA_Z, align 4, align-sorted
     34          int CountSex = 0;
   \                     CountSex:
   \   00000000                      DS8 4

   \                                 In segment DATA_C, align 4, align-sorted
   \                     smenu_sextexts:
   \   00000000   ........           DC32 `?<Constant L"\\x46\\x65\\x6d\\x61\\x6c\\x65">`
   \   00000004   ........           DC32 `?<Constant L"\\x4d\\x61\\x6c\\x65">`
   \   00000008   ........           DC32 `?<Constant L"\\x4e\\x6f\\x74\\x20\\x64\\x65\\x66\\x69\\`
   \   0000000C   120000001100       DC32 18, 17, 16
   \              000010000000
   \   00000018   100000000800       DC32 16, 8, 19, 9, 10, 11, 12, 13, 14, 15
   \              000013000000
   \              090000000A00
   \              00000B000000
   \              0C0000000D00
   \              00000E000000
   \              0F000000    
   \   00000040   ............       DC32 `?<Constant L"\\x53\\x65\\x78">`, `?<Constant L"\\x41\\x67\\x65">`
   \              ....        
   \   00000048   ........           DC32 `?<Constant L"\\x46\\x61\\x6d\\x69\\x6c\\x79\\x20\\x6c\\`
   \   0000004C   ........           DC32 `?<Constant L"\\x48\\x65\\x61\\x6c\\x74\\x68">`
   \   00000050   ........           DC32 `?<Constant L"\\x48\\x75\\x6e\\x67\\x65\\x72">`
   \   00000054   ........           DC32 `?<Constant L"\\x48\\x61\\x70\\x70\\x69\\x6e\\x65\\x73\\`
   \   00000058   ........           DC32 `?<Constant L"\\x43\\x6c\\x65\\x61\\x6e\\x6e\\x65\\x73\\`
   \   0000005C   ........           DC32 `?<Constant L"\\x42\\x6f\\x72\\x65\\x64\\x6f\\x6d">`
   \   00000060   ........           DC32 `?<Constant L"\\x42\\x65\\x68\\x61\\x76\\x69\\x6f\\x72"`
   \   00000064   ........           DC32 `?<Constant L"\\x46\\x61\\x74\\x69\\x67\\x75\\x65">`
   \                     `?<Constant L"\\x46\\x65\\x6d\\x61\\x6c\\x65">`:
   \   00000068   460065006D00       DC8 46H, 0, 65H, 0, 6DH, 0, 61H, 0
   \              6100        
   \   00000070   6C0065000000       DC8 6CH, 0, 65H, 0, 0, 0
   \   00000076   0000               DC8 0, 0
   \                     `?<Constant L"\\x4d\\x61\\x6c\\x65">`:
   \   00000078   4D0061006C00       DC8 4DH, 0, 61H, 0, 6CH, 0, 65H, 0
   \              6500        
   \   00000080   0000               DC8 0, 0
   \   00000082   0000               DC8 0, 0
   \                     `?<Constant L"\\x53\\x65\\x78">`:
   \   00000084   530065007800       DC8 53H, 0, 65H, 0, 78H, 0, 0, 0
   \              0000        
   \                     `?<Constant L"\\x48\\x75\\x6e\\x67\\x65\\x72">`:
   \   0000008C   480075006E00       DC8 48H, 0, 75H, 0, 6EH, 0, 67H, 0
   \              6700        
   \   00000094   650072000000       DC8 65H, 0, 72H, 0, 0, 0
   \   0000009A   0000               DC8 0, 0
   \                     `?<Constant L"\\x48\\x61\\x70\\x70\\x69\\x6e\\x65\\x73\\`:
   \   0000009C   480061007000       DC8 48H, 0, 61H, 0, 70H, 0, 70H, 0
   \              7000        
   \   000000A4   69006E006500       DC8 69H, 0, 6EH, 0, 65H, 0, 73H, 0
   \              7300        
   \   000000AC   73000000           DC8 73H, 0, 0, 0
   \                     `?<Constant L"\\x43\\x6c\\x65\\x61\\x6e\\x6e\\x65\\x73\\`:
   \   000000B0   43006C006500       DC8 43H, 0, 6CH, 0, 65H, 0, 61H, 0
   \              6100        
   \   000000B8   6E006E006500       DC8 6EH, 0, 6EH, 0, 65H, 0, 73H, 0
   \              7300        
   \   000000C0   73000000           DC8 73H, 0, 0, 0
   \                     `?<Constant L"\\x42\\x6f\\x72\\x65\\x64\\x6f\\x6d">`:
   \   000000C4   42006F007200       DC8 42H, 0, 6FH, 0, 72H, 0, 65H, 0
   \              6500        
   \   000000CC   64006F006D00       DC8 64H, 0, 6FH, 0, 6DH, 0, 0, 0
   \              0000        
   \                     `?<Constant L"\\x42\\x65\\x68\\x61\\x76\\x69\\x6f\\x72"`:
   \   000000D4   420065006800       DC8 42H, 0, 65H, 0, 68H, 0, 61H, 0
   \              6100        
   \   000000DC   760069006F00       DC8 76H, 0, 69H, 0, 6FH, 0, 72H, 0
   \              7200        
   \   000000E4   0000               DC8 0, 0
   \   000000E6   0000               DC8 0, 0
   \                     `?<Constant L"\\x46\\x61\\x74\\x69\\x67\\x75\\x65">`:
   \   000000E8   460061007400       DC8 46H, 0, 61H, 0, 74H, 0, 69H, 0
   \              6900        
   \   000000F0   670075006500       DC8 67H, 0, 75H, 0, 65H, 0, 0, 0
   \              0000        
   \   000000F8   25006C007300       DC8 25H, 0, 6CH, 0, 73H, 0, 3AH, 0
   \              3A00        
   \   00000100   200025006C00       DC8 20H, 0, 25H, 0, 6CH, 0, 73H, 0
   \              7300        
   \   00000108   0000               DC8 0, 0
   \   0000010A   0000               DC8 0, 0
   \   0000010C   25006C007300       DC8 25H, 0, 6CH, 0, 73H, 0, 3AH, 0
   \              3A00        
   \   00000114   250064002500       DC8 25H, 0, 64H, 0, 25H, 0, 25H, 0
   \              2500        
   \   0000011C   0000               DC8 0, 0
   \   0000011E   0000               DC8 0, 0
   \   00000120   25006C007300       DC8 25H, 0, 6CH, 0, 73H, 0, 3AH, 0
   \              3A00        
   \   00000128   200025006400       DC8 20H, 0, 25H, 0, 64H, 0, 0, 0
   \              0000        
     35          
     36          #define STATUS_ITEMS_COUNT 10
     37          
     38          enum item_nums{
     39            SM_SEX = 0,
     40            SM_AGE,
     41            SM_FAMILYLIFE,
     42            SM_HEALTH,
     43            SM_HUNGER,
     44            SM_HAPPINESS,
     45            SM_DIRTINESS,
     46            SM_BOREDOM,
     47            SM_BEHAVIOUR,
     48            SM_FATIGUE
     49          };
     50          
     51          static int const smenuiconsnum[STATUS_ITEMS_COUNT]=
     52          {
     53            SM_SEX_ICN,
     54            SM_SMILE_ICN,
     55            SM_FAMILY_ICN,
     56            SM_HEALTH_ICN,
     57            SM_HUNGER_ICN,
     58            SM_HAPPINESS_ICN,
     59            SM_DIRTINESS_ICN,
     60            SM_BOREDOM_ICN,
     61            SM_BEHAVIOUR_ICN,
     62            SM_FATIGUE_ICN
     63          };
     64          
     65          static const wchar_t * const smenutexts[STATUS_ITEMS_COUNT]=
     66          {
     67            LG_SEX,
     68            LG_AGE,
     69            LG_FAMILYLIFE,
     70            LG_HEALTH,
     71            LG_HUNGER,
     72            LG_HAPPINESS,
     73            LG_DIRTINESS,
     74            LG_BOREDOM,
     75            LG_BEHAVIOUR,
     76            LG_FATIGUE
     77          };
     78          

   \                                 In segment DATA_I, align 4, align-sorted
     79          static void (*smenuprocs[STATUS_ITEMS_COUNT])(int) =
   \                     smenuprocs:
   \   00000000                      DS8 40
   \   00000028                      REQUIRE `?<Initializer for smenuprocs>`
     80          {
     81            ViewSex,
     82            ViewAge,
     83            ViewFamilyLife,
     84            ViewHealth,
     85            ViewHunger,
     86            ViewHappiness,
     87            ViewDirtiness,
     88            ViewBoredom,
     89            ViewBehaviour,
     90            ViewFatigue
     91          };
     92          

   \                                 In segment CODE, align 4, keep-with-next
     93          void OnCloseSetSex( BOOK* book, GUI* )
     94          {
   \                     ??OnCloseSetSex:
   \   00000000   30402DE9           PUSH     {R4,R5,LR}
   \   00000004   0040A0E1           MOV      R4,R0
     95            CountSex = 0;
   \   00000008   ........           LDR      R0,??DataTable52  ;; CountSex
   \   0000000C   0050A0E3           MOV      R5,#+0
   \   00000010   005080E5           STR      R5,[R0, #+0]
     96            MyBOOK * bk=(MyBOOK *)book;
     97            FREE_GUI(bk->cbox_gui);
   \   00000014   180094E5           LDR      R0,[R4, #+24]
   \   00000018   000050E3           CMP      R0,#+0
   \   0000001C   3080BD08           POPEQ    {R4,R5,PC}
   \   00000020   CE0100EF           SWI      +462
   \   00000024   185084E5           STR      R5,[R4, #+24]
     98          }
   \   00000028   3080BDE8           POP      {R4,R5,PC}       ;; return
     99          

   \                                 In segment CODE, align 4, keep-with-next
    100          void OnSelectSetSex( BOOK* book, GUI* )
    101          {
   \                     ??OnSelectSetSex:
   \   00000000   30402DE9           PUSH     {R4,R5,LR}
   \   00000004   0040A0E1           MOV      R4,R0
    102            CountSex = 0;
   \   00000008   ........           LDR      R0,??DataTable52  ;; CountSex
   \   0000000C   0050A0E3           MOV      R5,#+0
   \   00000010   005080E5           STR      R5,[R0, #+0]
    103            MyBOOK * bk=(MyBOOK *)book;
    104            int item=OneOfMany_GetSelected(bk->cbox_gui);
    105            int indx = bk->cur_indx;
    106            Pets[indx].Status.Sex = item;
   \   00000014   180094E5           LDR      R0,[R4, #+24]
   \   00000018   490100EF           SWI      +329
   \   0000001C   201094E5           LDR      R1,[R4, #+32]
   \   00000020   ........           LDR      R3,??DataTable49  ;; Pets
   \   00000024   442FA0E3           MOV      R2,#+272
   \   00000028   923121E0           MLA      R1,R2,R1,R3
   \   0000002C   C00081E5           STR      R0,[R1, #+192]
    107            FREE_GUI(bk->cbox_gui);
   \   00000030   180094E5           LDR      R0,[R4, #+24]
   \   00000034   000050E3           CMP      R0,#+0
   \   00000038   3080BD08           POPEQ    {R4,R5,PC}
   \   0000003C   CE0100EF           SWI      +462
   \   00000040   185084E5           STR      R5,[R4, #+24]
    108          //  CloseStatus(book);
    109          //  ShowStatus(book);
    110          }
   \   00000044   3080BDE8           POP      {R4,R5,PC}       ;; return
    111          

   \                                 In segment CODE, align 4, keep-with-next
    112          void ViewSex(int indx)
    113          {
    114            if((CountSex <= 10) && (Pets[indx].Status.Sex != 2))
   \                     ??ViewSex:
   \   00000000   ........           LDR      R1,??DataTable49  ;; Pets
   \   00000004   F0412DE9           PUSH     {R4-R8,LR}
   \   00000008   ........           LDR      R6,??DataTable37  ;; smenu_sextexts
   \   0000000C   0070A0E1           MOV      R7,R0
   \   00000010   440FA0E3           MOV      R0,#+272
   \   00000014   901724E0           MLA      R4,R0,R7,R1
   \   00000018   ........           LDR      R0,??DataTable52  ;; CountSex
   \   0000001C   82DF4DE2           SUB      SP,SP,#+520
   \   00000020   001090E5           LDR      R1,[R0, #+0]
   \   00000024   FF50A0E3           MOV      R5,#+255
   \   00000028   FF5C85E3           ORR      R5,R5,#0xFF00
   \   0000002C   0B0051E3           CMP      R1,#+11
   \   00000030   280000AA           BGE      ??ViewSex_1
   \   00000034   C02094E5           LDR      R2,[R4, #+192]
   \   00000038   020052E3           CMP      R2,#+2
   \   0000003C   2500000A           BEQ      ??ViewSex_1
    115            {
    116              wchar_t s[256];
    117              ++CountSex;
   \   00000040   011081E2           ADD      R1,R1,#+1
   \   00000044   001080E5           STR      R1,[R0, #+0]
    118              snwprintf(s,255,L"%ls: %ls", LG_SEX, smenu_sextexts[Pets[indx].Status.Sex]);
   \   00000048   020196E7           LDR      R0,[R6, +R2, LSL #+2]
   \   0000004C   843086E2           ADD      R3,R6,#+132
   \   00000050   01002DE9           PUSH     {R0}
   \   00000054   F82086E2           ADD      R2,R6,#+248
   \   00000058   FF10A0E3           MOV      R1,#+255
   \   0000005C   0C008DE2           ADD      R0,SP,#+12
   \   00000060   150100EF           SWI      +277
    119              MessageBox(TextID_Create(Pets[indx].Status.name,ENC_UCS2,TEXTID_ANY_LEN), TextID_Create(s,ENC_UCS2,255), img_menu[smenu_sexiconsnum[Pets[indx].Status.Sex]], 1, 5000*msgShowTime, 0);
   \   00000064   FF20A0E3           MOV      R2,#+255
   \   00000068   0010A0E3           MOV      R1,#+0
   \   0000006C   0C008DE2           ADD      R0,SP,#+12
   \   00000070   5D0100EF           SWI      +349
   \   00000074   0070A0E1           MOV      R7,R0
   \   00000078   0520A0E1           MOV      R2,R5
   \   0000007C   0010A0E3           MOV      R1,#+0
   \   00000080   400084E2           ADD      R0,R4,#+64
   \   00000084   5D0100EF           SWI      +349
   \   00000088   0010A0E3           MOV      R1,#+0
   \   0000008C   02002DE9           PUSH     {R1}
   \   00000090   ........           LDR      R1,??DataTable34  ;; msgShowTime
   \   00000094   8820A0E3           MOV      R2,#+136
   \   00000098   001091E5           LDR      R1,[R1, #+0]
   \   0000009C   4C2D82E3           ORR      R2,R2,#0x1300
   \   000000A0   920101E0           MUL      R1,R2,R1
   \   000000A4   ........           LDR      R2,??DataTable35  ;; img_menu
   \   000000A8   02002DE9           PUSH     {R1}
   \   000000AC   C01094E5           LDR      R1,[R4, #+192]
   \   000000B0   0130A0E3           MOV      R3,#+1
   \   000000B4   011186E0           ADD      R1,R6,R1, LSL #+2
   \   000000B8   0C1091E5           LDR      R1,[R1, #+12]
   \   000000BC   811082E0           ADD      R1,R2,R1, LSL #+1
   \   000000C0   B020D1E1           LDRH     R2,[R1, #+0]
   \   000000C4   0710A0E1           MOV      R1,R7
   \   000000C8   570200EF           SWI      +599
   \   000000CC   0CD08DE2           ADD      SP,SP,#+12
   \   000000D0   82DF8DE2           ADD      SP,SP,#+520
   \   000000D4   F081BDE8           POP      {R4-R8,PC}
    120            }
    121            else
    122            {
    123              CountSex = 0;
   \                     ??ViewSex_1:
   \   000000D8   0010A0E3           MOV      R1,#+0
   \   000000DC   001080E5           STR      R1,[R0, #+0]
    124              MyBOOK * bk = (MyBOOK *) FindBook(isTamagochiBook);
   \   000000E0   ........           LDR      R0,??DataTable48  ;; ??isTamagochiBook
   \   000000E4   300100EF           SWI      +304
   \   000000E8   0080A0E1           MOV      R8,R0
    125              bk->cur_indx = indx;
   \   000000EC   207088E5           STR      R7,[R8, #+32]
    126              GUI_ONEOFMANY *om=CreateOneOfMany(&bk->book);
   \   000000F0   450100EF           SWI      +325
   \   000000F4   0070A0E1           MOV      R7,R0
    127              bk->cbox_gui=om;
   \   000000F8   187088E5           STR      R7,[R8, #+24]
    128              GUIObject_SetTitleText(om,TextID_Create(LG_SEX,ENC_UCS2,TEXTID_ANY_LEN));
   \   000000FC   0520A0E1           MOV      R2,R5
   \   00000100   0010A0E3           MOV      R1,#+0
   \   00000104   840086E2           ADD      R0,R6,#+132
   \   00000108   5D0100EF           SWI      +349
   \   0000010C   0010A0E1           MOV      R1,R0
   \   00000110   0700A0E1           MOV      R0,R7
   \   00000114   330100EF           SWI      +307
    129              TEXTID strid[2];
    130              strid[0]=TextID_Create(LG_FEMALE,ENC_UCS2,TEXTID_ANY_LEN);
   \   00000118   0520A0E1           MOV      R2,R5
   \   0000011C   0010A0E3           MOV      R1,#+0
   \   00000120   680086E2           ADD      R0,R6,#+104
   \   00000124   5D0100EF           SWI      +349
   \   00000128   00008DE5           STR      R0,[SP, #+0]
    131              strid[1]=TextID_Create(LG_MALE,ENC_UCS2,TEXTID_ANY_LEN);
   \   0000012C   0520A0E1           MOV      R2,R5
   \   00000130   0010A0E3           MOV      R1,#+0
   \   00000134   780086E2           ADD      R0,R6,#+120
   \   00000138   5D0100EF           SWI      +349
   \   0000013C   04008DE5           STR      R0,[SP, #+4]
    132              OneOfMany_SetTexts(om,strid,2);
   \   00000140   0220A0E3           MOV      R2,#+2
   \   00000144   0D10A0E1           MOV      R1,SP
   \   00000148   0700A0E1           MOV      R0,R7
   \   0000014C   480100EF           SWI      +328
    133              if(Pets[indx].Status.Sex != 2) OneOfMany_SetChecked(om,Pets[indx].Status.Sex);
   \   00000150   C01094E5           LDR      R1,[R4, #+192]
    134              else OneOfMany_SetChecked(om,0);
   \   00000154   0700A0E1           MOV      R0,R7
   \   00000158   020051E3           CMP      R1,#+2
   \   0000015C   0010A003           MOVEQ    R1,#+0
   \   00000160   470100EF           SWI      +327
    135              GUIObject_SoftKeys_SetAction(om,ACTION_BACK,OnCloseSetSex);
   \   00000164   ........           LDR      R0,??DataTable50  ;; ACTION_BACK
   \   00000168   3C209FE5           LDR      R2,??ViewSex_2   ;; ??OnCloseSetSex
   \   0000016C   001090E5           LDR      R1,[R0, #+0]
   \   00000170   0700A0E1           MOV      R0,R7
   \   00000174   0118A0E1           MOV      R1,R1, LSL #+16
   \   00000178   2118A0E1           MOV      R1,R1, LSR #+16
   \   0000017C   4B0100EF           SWI      +331
    136              GUIObject_SoftKeys_SetAction(om,ACTION_SELECT1,OnSelectSetSex);
   \   00000180   ........           LDR      R0,??DataTable51  ;; ACTION_SELECT1
   \   00000184   24209FE5           LDR      R2,??ViewSex_2+0x4  ;; ??OnSelectSetSex
   \   00000188   001090E5           LDR      R1,[R0, #+0]
   \   0000018C   0700A0E1           MOV      R0,R7
   \   00000190   0118A0E1           MOV      R1,R1, LSL #+16
   \   00000194   2118A0E1           MOV      R1,R1, LSR #+16
   \   00000198   4B0100EF           SWI      +331
    137              GUIObject_Show(om);
   \   0000019C   0700A0E1           MOV      R0,R7
   \   000001A0   340100EF           SWI      +308
    138            }
    139          }
   \   000001A4   82DF8DE2           ADD      SP,SP,#+520
   \   000001A8   F081BDE8           POP      {R4-R8,PC}       ;; return
   \                     ??ViewSex_2:
   \   000001AC   ........           DC32     ??OnCloseSetSex
   \   000001B0   ........           DC32     ??OnSelectSetSex
    140          

   \                                 In segment CODE, align 4, keep-with-next
    141          void ViewAge(int indx)
    142          {
    143            wchar_t s[256];
    144            snwprintf(s,255,L"%ls:%d\n%d/%d",
    145                      LG_AGE, Pets[indx].Status.Age, (int)Pets[indx].Status.TimeAge, Pets[indx].Status.Age*10+100 );
   \                     ??ViewAge:
   \   00000000   ........           LDR      R2,??DataTable49  ;; Pets
   \   00000004   30402DE9           PUSH     {R4,R5,LR}
   \   00000008   441FA0E3           MOV      R1,#+272
   \   0000000C   912024E0           MLA      R4,R1,R0,R2
   \   00000010   9C009FE5           LDR      R0,??ViewAge_1   ;; `?<Constant L"\\x41\\x67\\x65">`
   \   00000014   80DF4DE2           SUB      SP,SP,#+512
   \   00000018   001094E5           LDR      R1,[R4, #+0]
   \   0000001C   0A20A0E3           MOV      R2,#+10
   \   00000020   920101E0           MUL      R1,R2,R1
   \   00000024   0030A0E1           MOV      R3,R0
   \   00000028   641081E2           ADD      R1,R1,#+100
   \   0000002C   02002DE9           PUSH     {R1}
   \   00000030   041094E5           LDR      R1,[R4, #+4]
   \   00000034   082080E2           ADD      R2,R0,#+8
   \   00000038   02002DE9           PUSH     {R1}
   \   0000003C   001094E5           LDR      R1,[R4, #+0]
   \   00000040   02002DE9           PUSH     {R1}
   \   00000044   0C008DE2           ADD      R0,SP,#+12
   \   00000048   FF10A0E3           MOV      R1,#+255
   \   0000004C   150100EF           SWI      +277
    146            MessageBox(TextID_Create(Pets[indx].Status.name,ENC_UCS2,TEXTID_ANY_LEN), TextID_Create(s,ENC_UCS2,255), img_menu[SM_SMILE_ICN], 1, 5000*msgShowTime, 0);
   \   00000050   FF20A0E3           MOV      R2,#+255
   \   00000054   0010A0E3           MOV      R1,#+0
   \   00000058   0C008DE2           ADD      R0,SP,#+12
   \   0000005C   5D0100EF           SWI      +349
   \   00000060   0050A0E1           MOV      R5,R0
   \   00000064   FF20A0E3           MOV      R2,#+255
   \   00000068   FF2C82E3           ORR      R2,R2,#0xFF00
   \   0000006C   0010A0E3           MOV      R1,#+0
   \   00000070   400084E2           ADD      R0,R4,#+64
   \   00000074   5D0100EF           SWI      +349
   \   00000078   0010A0E3           MOV      R1,#+0
   \   0000007C   02002DE9           PUSH     {R1}
   \   00000080   ........           LDR      R1,??DataTable34  ;; msgShowTime
   \   00000084   8820A0E3           MOV      R2,#+136
   \   00000088   001091E5           LDR      R1,[R1, #+0]
   \   0000008C   4C2D82E3           ORR      R2,R2,#0x1300
   \   00000090   920101E0           MUL      R1,R2,R1
   \   00000094   0130A0E3           MOV      R3,#+1
   \   00000098   02002DE9           PUSH     {R1}
   \   0000009C   14109FE5           LDR      R1,??ViewAge_1+0x4  ;; img_menu + 16
   \   000000A0   B020D1E1           LDRH     R2,[R1, #+0]
   \   000000A4   0510A0E1           MOV      R1,R5
   \   000000A8   570200EF           SWI      +599
    147          }
   \   000000AC   85DF8DE2           ADD      SP,SP,#+532
   \   000000B0   3080BDE8           POP      {R4,R5,PC}       ;; return
   \                     ??ViewAge_1:
   \   000000B4   ........           DC32     `?<Constant L"\\x41\\x67\\x65">`
   \   000000B8   ........           DC32     img_menu + 16
    148          

   \                                 In segment CODE, align 4, keep-with-next
    149          void ViewFamilyLife(int indx)
    150          {
    151            wchar_t s[256];
    152            snwprintf(s,255,L"%ls:%d",
    153                      LG_FAMILYLIFE, Pets[indx].Status.FamilyLife );
   \                     ??ViewFamilyLife:
   \   00000000   ........           LDR      R2,??DataTable49  ;; Pets
   \   00000004   30402DE9           PUSH     {R4,R5,LR}
   \   00000008   441FA0E3           MOV      R1,#+272
   \   0000000C   912025E0           MLA      R5,R1,R0,R2
   \   00000010   80009FE5           LDR      R0,??ViewFamilyLife_1  ;; `?<Constant L"\\x46\\x61\\x6d\\x69\\x6c\\x79\\x20\\x6c\\`
   \   00000014   80DF4DE2           SUB      SP,SP,#+512
   \   00000018   C81095E5           LDR      R1,[R5, #+200]
   \   0000001C   0030A0E1           MOV      R3,R0
   \   00000020   02002DE9           PUSH     {R1}
   \   00000024   182080E2           ADD      R2,R0,#+24
   \   00000028   04008DE2           ADD      R0,SP,#+4
   \   0000002C   FF10A0E3           MOV      R1,#+255
   \   00000030   150100EF           SWI      +277
    154            MessageBox(TextID_Create(Pets[indx].Status.name,ENC_UCS2,TEXTID_ANY_LEN), TextID_Create(s,ENC_UCS2,255), img_menu[SM_FAMILY_ICN], 1, 5000*msgShowTime, 0);
   \   00000034   FF20A0E3           MOV      R2,#+255
   \   00000038   0010A0E3           MOV      R1,#+0
   \   0000003C   04008DE2           ADD      R0,SP,#+4
   \   00000040   5D0100EF           SWI      +349
   \   00000044   0040A0E1           MOV      R4,R0
   \   00000048   FF20A0E3           MOV      R2,#+255
   \   0000004C   FF2C82E3           ORR      R2,R2,#0xFF00
   \   00000050   0010A0E3           MOV      R1,#+0
   \   00000054   400085E2           ADD      R0,R5,#+64
   \   00000058   5D0100EF           SWI      +349
   \   0000005C   0010A0E3           MOV      R1,#+0
   \   00000060   02002DE9           PUSH     {R1}
   \   00000064   ........           LDR      R1,??DataTable34  ;; msgShowTime
   \   00000068   8820A0E3           MOV      R2,#+136
   \   0000006C   001091E5           LDR      R1,[R1, #+0]
   \   00000070   4C2D82E3           ORR      R2,R2,#0x1300
   \   00000074   920101E0           MUL      R1,R2,R1
   \   00000078   0130A0E3           MOV      R3,#+1
   \   0000007C   02002DE9           PUSH     {R1}
   \   00000080   14109FE5           LDR      R1,??ViewFamilyLife_1+0x4  ;; img_menu + 38
   \   00000084   B020D1E1           LDRH     R2,[R1, #+0]
   \   00000088   0410A0E1           MOV      R1,R4
   \   0000008C   570200EF           SWI      +599
    155          }
   \   00000090   83DF8DE2           ADD      SP,SP,#+524
   \   00000094   3080BDE8           POP      {R4,R5,PC}       ;; return
   \                     ??ViewFamilyLife_1:
   \   00000098   ........           DC32     `?<Constant L"\\x46\\x61\\x6d\\x69\\x6c\\x79\\x20\\x6c\\`
   \   0000009C   ........           DC32     img_menu + 38
    156          

   \                                 In segment CODE, align 4, keep-with-next
    157          void ViewHealth(int indx)
    158          {
    159            wchar_t s[256];
    160            snwprintf(s,255,L"%ls:%d%%\n%d/%d",
    161                      LG_HEALTH, (int)Pets[indx].Status.Health*100/Pets[indx].Status.MaxHealth, Pets[indx].Status.Health, Pets[indx].Status.MaxHealth );
   \                     ??ViewHealth:
   \   00000000   ........           LDR      R2,??DataTable49  ;; Pets
   \   00000004   30402DE9           PUSH     {R4,R5,LR}
   \   00000008   441FA0E3           MOV      R1,#+272
   \   0000000C   912025E0           MLA      R5,R1,R0,R2
   \   00000010   A0209FE5           LDR      R2,??ViewHealth_1  ;; `?<Constant L"\\x48\\x65\\x61\\x6c\\x74\\x68">`
   \   00000014   80DF4DE2           SUB      SP,SP,#+512
   \   00000018   080095E5           LDR      R0,[R5, #+8]
   \   0000001C   0C1095E5           LDR      R1,[R5, #+12]
   \   00000020   0230A0E1           MOV      R3,R2
   \   00000024   02002DE9           PUSH     {R1}
   \   00000028   102082E2           ADD      R2,R2,#+16
   \   0000002C   0010A0E1           MOV      R1,R0
   \   00000030   02002DE9           PUSH     {R1}
   \   00000034   6410A0E3           MOV      R1,#+100
   \   00000038   910000E0           MUL      R0,R1,R0
   \   0000003C   0C1095E5           LDR      R1,[R5, #+12]
   \   00000040   ........           _BLF     ??div32_a,??rA??div32_a
   \   00000044   02002DE9           PUSH     {R1}
   \   00000048   0C008DE2           ADD      R0,SP,#+12
   \   0000004C   FF10A0E3           MOV      R1,#+255
   \   00000050   150100EF           SWI      +277
    162            MessageBox(TextID_Create(Pets[indx].Status.name,ENC_UCS2,TEXTID_ANY_LEN), TextID_Create(s,ENC_UCS2,255), img_menu[SM_HEALTH_ICN], 1, 5000*msgShowTime, 0);
   \   00000054   FF20A0E3           MOV      R2,#+255
   \   00000058   0010A0E3           MOV      R1,#+0
   \   0000005C   0C008DE2           ADD      R0,SP,#+12
   \   00000060   5D0100EF           SWI      +349
   \   00000064   0040A0E1           MOV      R4,R0
   \   00000068   FF20A0E3           MOV      R2,#+255
   \   0000006C   FF2C82E3           ORR      R2,R2,#0xFF00
   \   00000070   0010A0E3           MOV      R1,#+0
   \   00000074   400085E2           ADD      R0,R5,#+64
   \   00000078   5D0100EF           SWI      +349
   \   0000007C   0010A0E3           MOV      R1,#+0
   \   00000080   02002DE9           PUSH     {R1}
   \   00000084   ........           LDR      R1,??DataTable34  ;; msgShowTime
   \   00000088   8820A0E3           MOV      R2,#+136
   \   0000008C   001091E5           LDR      R1,[R1, #+0]
   \   00000090   4C2D82E3           ORR      R2,R2,#0x1300
   \   00000094   920101E0           MUL      R1,R2,R1
   \   00000098   0130A0E3           MOV      R3,#+1
   \   0000009C   02002DE9           PUSH     {R1}
   \   000000A0   14109FE5           LDR      R1,??ViewHealth_1+0x4  ;; img_menu + 18
   \   000000A4   B020D1E1           LDRH     R2,[R1, #+0]
   \   000000A8   0410A0E1           MOV      R1,R4
   \   000000AC   570200EF           SWI      +599
    163          }
   \   000000B0   85DF8DE2           ADD      SP,SP,#+532
   \   000000B4   3080BDE8           POP      {R4,R5,PC}       ;; return
   \                     ??ViewHealth_1:
   \   000000B8   ........           DC32     `?<Constant L"\\x48\\x65\\x61\\x6c\\x74\\x68">`
   \   000000BC   ........           DC32     img_menu + 18

   \                                 In segment CODE, align 4, keep-with-next
    164          void ViewHunger(int indx)
    165          {
    166            wchar_t s[256];
    167            snwprintf(s,255,L"%ls:%d%%",
    168                      LG_HUNGER, (int)Pets[indx].Status.Hunger*100/Pets[indx].Status.MaxHunger);
   \                     ??ViewHunger:
   \   00000000   ........           LDR      R2,??DataTable49  ;; Pets
   \   00000004   30402DE9           PUSH     {R4,R5,LR}
   \   00000008   441FA0E3           MOV      R1,#+272
   \   0000000C   912025E0           MLA      R5,R1,R0,R2
   \   00000010   ........           LDR      R2,??DataTable33  ;; smenu_sextexts
   \   00000014   80DF4DE2           SUB      SP,SP,#+512
   \   00000018   100095E5           LDR      R0,[R5, #+16]
   \   0000001C   6410A0E3           MOV      R1,#+100
   \   00000020   910000E0           MUL      R0,R1,R0
   \   00000024   141095E5           LDR      R1,[R5, #+20]
   \   00000028   8C3082E2           ADD      R3,R2,#+140
   \   0000002C   ........           _BLF     ??div32_a,??rA??div32_a
   \   00000030   02002DE9           PUSH     {R1}
   \   00000034   432F82E2           ADD      R2,R2,#+268
   \   00000038   04008DE2           ADD      R0,SP,#+4
   \   0000003C   FF10A0E3           MOV      R1,#+255
   \   00000040   150100EF           SWI      +277
    169            MessageBox(TextID_Create(Pets[indx].Status.name,ENC_UCS2,TEXTID_ANY_LEN), TextID_Create(s,ENC_UCS2,255), img_menu[SM_HUNGER_ICN], 1, 5000*msgShowTime, 0);
   \   00000044   FF20A0E3           MOV      R2,#+255
   \   00000048   0010A0E3           MOV      R1,#+0
   \   0000004C   04008DE2           ADD      R0,SP,#+4
   \   00000050   5D0100EF           SWI      +349
   \   00000054   0040A0E1           MOV      R4,R0
   \   00000058   FF20A0E3           MOV      R2,#+255
   \   0000005C   FF2C82E3           ORR      R2,R2,#0xFF00
   \   00000060   0010A0E3           MOV      R1,#+0
   \   00000064   400085E2           ADD      R0,R5,#+64
   \   00000068   5D0100EF           SWI      +349
   \   0000006C   0010A0E3           MOV      R1,#+0
   \   00000070   02002DE9           PUSH     {R1}
   \   00000074   ........           LDR      R1,??DataTable34  ;; msgShowTime
   \   00000078   8820A0E3           MOV      R2,#+136
   \   0000007C   001091E5           LDR      R1,[R1, #+0]
   \   00000080   4C2D82E3           ORR      R2,R2,#0x1300
   \   00000084   920101E0           MUL      R1,R2,R1
   \   00000088   0130A0E3           MOV      R3,#+1
   \   0000008C   02002DE9           PUSH     {R1}
   \   00000090   10109FE5           LDR      R1,??ViewHunger_1  ;; img_menu + 20
   \   00000094   B020D1E1           LDRH     R2,[R1, #+0]
   \   00000098   0410A0E1           MOV      R1,R4
   \   0000009C   570200EF           SWI      +599
    170          }
   \   000000A0   83DF8DE2           ADD      SP,SP,#+524
   \   000000A4   3080BDE8           POP      {R4,R5,PC}       ;; return
   \                     ??ViewHunger_1:
   \   000000A8   ........           DC32     img_menu + 20

   \                                 In segment CODE, align 4, keep-with-next
    171          void ViewHappiness(int indx)
    172          {
    173            wchar_t s[256];
    174            snwprintf(s,255,L"%ls:%d%%",
    175                      LG_HAPPINESS,(int)Pets[indx].Status.Happiness*100/Pets[indx].Status.MaxHappiness);
   \                     ??ViewHappiness:
   \   00000000   ........           LDR      R2,??DataTable49  ;; Pets
   \   00000004   30402DE9           PUSH     {R4,R5,LR}
   \   00000008   441FA0E3           MOV      R1,#+272
   \   0000000C   912025E0           MLA      R5,R1,R0,R2
   \   00000010   ........           LDR      R2,??DataTable33  ;; smenu_sextexts
   \   00000014   80DF4DE2           SUB      SP,SP,#+512
   \   00000018   180095E5           LDR      R0,[R5, #+24]
   \   0000001C   6410A0E3           MOV      R1,#+100
   \   00000020   910000E0           MUL      R0,R1,R0
   \   00000024   1C1095E5           LDR      R1,[R5, #+28]
   \   00000028   9C3082E2           ADD      R3,R2,#+156
   \   0000002C   ........           _BLF     ??div32_a,??rA??div32_a
   \   00000030   02002DE9           PUSH     {R1}
   \   00000034   432F82E2           ADD      R2,R2,#+268
   \   00000038   04008DE2           ADD      R0,SP,#+4
   \   0000003C   FF10A0E3           MOV      R1,#+255
   \   00000040   150100EF           SWI      +277
    176            MessageBox(TextID_Create(Pets[indx].Status.name,ENC_UCS2,TEXTID_ANY_LEN), TextID_Create(s,ENC_UCS2,255), img_menu[SM_HAPPINESS_ICN], 1, 5000*msgShowTime, 0);
   \   00000044   FF20A0E3           MOV      R2,#+255
   \   00000048   0010A0E3           MOV      R1,#+0
   \   0000004C   04008DE2           ADD      R0,SP,#+4
   \   00000050   5D0100EF           SWI      +349
   \   00000054   0040A0E1           MOV      R4,R0
   \   00000058   FF20A0E3           MOV      R2,#+255
   \   0000005C   FF2C82E3           ORR      R2,R2,#0xFF00
   \   00000060   0010A0E3           MOV      R1,#+0
   \   00000064   400085E2           ADD      R0,R5,#+64
   \   00000068   5D0100EF           SWI      +349
   \   0000006C   0010A0E3           MOV      R1,#+0
   \   00000070   02002DE9           PUSH     {R1}
   \   00000074   ........           LDR      R1,??DataTable34  ;; msgShowTime
   \   00000078   8820A0E3           MOV      R2,#+136
   \   0000007C   001091E5           LDR      R1,[R1, #+0]
   \   00000080   4C2D82E3           ORR      R2,R2,#0x1300
   \   00000084   920101E0           MUL      R1,R2,R1
   \   00000088   0130A0E3           MOV      R3,#+1
   \   0000008C   02002DE9           PUSH     {R1}
   \   00000090   10109FE5           LDR      R1,??ViewHappiness_1  ;; img_menu + 22
   \   00000094   B020D1E1           LDRH     R2,[R1, #+0]
   \   00000098   0410A0E1           MOV      R1,R4
   \   0000009C   570200EF           SWI      +599
    177          }
   \   000000A0   83DF8DE2           ADD      SP,SP,#+524
   \   000000A4   3080BDE8           POP      {R4,R5,PC}       ;; return
   \                     ??ViewHappiness_1:
   \   000000A8   ........           DC32     img_menu + 22

   \                                 In segment CODE, align 4, keep-with-next
    178          void ViewDirtiness(int indx)
    179          {
    180            wchar_t s[256];
    181            snwprintf(s,255,L"%ls:%d%%",
    182                      LG_DIRTINESS, 100-(int)Pets[indx].Status.Dirtiness*100/Pets[indx].Status.MaxDirtiness);
   \                     ??ViewDirtiness:
   \   00000000   ........           LDR      R2,??DataTable49  ;; Pets
   \   00000004   30402DE9           PUSH     {R4,R5,LR}
   \   00000008   441FA0E3           MOV      R1,#+272
   \   0000000C   912025E0           MLA      R5,R1,R0,R2
   \   00000010   ........           LDR      R2,??DataTable33  ;; smenu_sextexts
   \   00000014   80DF4DE2           SUB      SP,SP,#+512
   \   00000018   200095E5           LDR      R0,[R5, #+32]
   \   0000001C   6410A0E3           MOV      R1,#+100
   \   00000020   910000E0           MUL      R0,R1,R0
   \   00000024   241095E5           LDR      R1,[R5, #+36]
   \   00000028   B03082E2           ADD      R3,R2,#+176
   \   0000002C   ........           _BLF     ??div32_a,??rA??div32_a
   \   00000030   640061E2           RSB      R0,R1,#+100
   \   00000034   01002DE9           PUSH     {R0}
   \   00000038   432F82E2           ADD      R2,R2,#+268
   \   0000003C   FF10A0E3           MOV      R1,#+255
   \   00000040   04008DE2           ADD      R0,SP,#+4
   \   00000044   150100EF           SWI      +277
    183            MessageBox(TextID_Create(Pets[indx].Status.name,ENC_UCS2,TEXTID_ANY_LEN), TextID_Create(s,ENC_UCS2,255), img_menu[SM_DIRTINESS_ICN], 1, 5000*msgShowTime, 0);
   \   00000048   FF20A0E3           MOV      R2,#+255
   \   0000004C   0010A0E3           MOV      R1,#+0
   \   00000050   04008DE2           ADD      R0,SP,#+4
   \   00000054   5D0100EF           SWI      +349
   \   00000058   0040A0E1           MOV      R4,R0
   \   0000005C   FF20A0E3           MOV      R2,#+255
   \   00000060   FF2C82E3           ORR      R2,R2,#0xFF00
   \   00000064   0010A0E3           MOV      R1,#+0
   \   00000068   400085E2           ADD      R0,R5,#+64
   \   0000006C   5D0100EF           SWI      +349
   \   00000070   0010A0E3           MOV      R1,#+0
   \   00000074   02002DE9           PUSH     {R1}
   \   00000078   ........           LDR      R1,??DataTable34  ;; msgShowTime
   \   0000007C   8820A0E3           MOV      R2,#+136
   \   00000080   001091E5           LDR      R1,[R1, #+0]
   \   00000084   4C2D82E3           ORR      R2,R2,#0x1300
   \   00000088   920101E0           MUL      R1,R2,R1
   \   0000008C   0130A0E3           MOV      R3,#+1
   \   00000090   02002DE9           PUSH     {R1}
   \   00000094   10109FE5           LDR      R1,??ViewDirtiness_1  ;; img_menu + 24
   \   00000098   B020D1E1           LDRH     R2,[R1, #+0]
   \   0000009C   0410A0E1           MOV      R1,R4
   \   000000A0   570200EF           SWI      +599
    184          }
   \   000000A4   83DF8DE2           ADD      SP,SP,#+524
   \   000000A8   3080BDE8           POP      {R4,R5,PC}       ;; return
   \                     ??ViewDirtiness_1:
   \   000000AC   ........           DC32     img_menu + 24

   \                                 In segment CODE, align 4, keep-with-next
    185          void ViewBoredom(int indx)
    186          {
    187            wchar_t s[256];
    188            snwprintf(s,255,L"%ls:%d%%",
    189                      LG_BOREDOM,(int)Pets[indx].Status.Boredom*100/Pets[indx].Status.MaxBoredom);
   \                     ??ViewBoredom:
   \   00000000   ........           LDR      R2,??DataTable49  ;; Pets
   \   00000004   30402DE9           PUSH     {R4,R5,LR}
   \   00000008   441FA0E3           MOV      R1,#+272
   \   0000000C   912025E0           MLA      R5,R1,R0,R2
   \   00000010   ........           LDR      R2,??DataTable33  ;; smenu_sextexts
   \   00000014   80DF4DE2           SUB      SP,SP,#+512
   \   00000018   280095E5           LDR      R0,[R5, #+40]
   \   0000001C   6410A0E3           MOV      R1,#+100
   \   00000020   910000E0           MUL      R0,R1,R0
   \   00000024   2C1095E5           LDR      R1,[R5, #+44]
   \   00000028   C43082E2           ADD      R3,R2,#+196
   \   0000002C   ........           _BLF     ??div32_a,??rA??div32_a
   \   00000030   02002DE9           PUSH     {R1}
   \   00000034   432F82E2           ADD      R2,R2,#+268
   \   00000038   04008DE2           ADD      R0,SP,#+4
   \   0000003C   FF10A0E3           MOV      R1,#+255
   \   00000040   150100EF           SWI      +277
    190            MessageBox(TextID_Create(Pets[indx].Status.name,ENC_UCS2,TEXTID_ANY_LEN), TextID_Create(s,ENC_UCS2,255), img_menu[SM_BOREDOM_ICN], 1, 5000*msgShowTime, 0);
   \   00000044   FF20A0E3           MOV      R2,#+255
   \   00000048   0010A0E3           MOV      R1,#+0
   \   0000004C   04008DE2           ADD      R0,SP,#+4
   \   00000050   5D0100EF           SWI      +349
   \   00000054   0040A0E1           MOV      R4,R0
   \   00000058   FF20A0E3           MOV      R2,#+255
   \   0000005C   FF2C82E3           ORR      R2,R2,#0xFF00
   \   00000060   0010A0E3           MOV      R1,#+0
   \   00000064   400085E2           ADD      R0,R5,#+64
   \   00000068   5D0100EF           SWI      +349
   \   0000006C   0010A0E3           MOV      R1,#+0
   \   00000070   02002DE9           PUSH     {R1}
   \   00000074   ........           LDR      R1,??DataTable34  ;; msgShowTime
   \   00000078   8820A0E3           MOV      R2,#+136
   \   0000007C   001091E5           LDR      R1,[R1, #+0]
   \   00000080   4C2D82E3           ORR      R2,R2,#0x1300
   \   00000084   920101E0           MUL      R1,R2,R1
   \   00000088   0130A0E3           MOV      R3,#+1
   \   0000008C   02002DE9           PUSH     {R1}
   \   00000090   10109FE5           LDR      R1,??ViewBoredom_1  ;; img_menu + 26
   \   00000094   B020D1E1           LDRH     R2,[R1, #+0]
   \   00000098   0410A0E1           MOV      R1,R4
   \   0000009C   570200EF           SWI      +599
    191          }
   \   000000A0   83DF8DE2           ADD      SP,SP,#+524
   \   000000A4   3080BDE8           POP      {R4,R5,PC}       ;; return
   \                     ??ViewBoredom_1:
   \   000000A8   ........           DC32     img_menu + 26

   \                                 In segment CODE, align 4, keep-with-next
    192          void ViewBehaviour(int indx)
    193          {
    194            wchar_t s[256];
    195            snwprintf(s,255,L"%ls:%d%%",
    196                      LG_BEHAVIOUR,(int)Pets[indx].Status.Behaviour*100/Pets[indx].Status.MaxBehaviour);
   \                     ??ViewBehaviour:
   \   00000000   ........           LDR      R2,??DataTable49  ;; Pets
   \   00000004   30402DE9           PUSH     {R4,R5,LR}
   \   00000008   441FA0E3           MOV      R1,#+272
   \   0000000C   912025E0           MLA      R5,R1,R0,R2
   \   00000010   ........           LDR      R2,??DataTable33  ;; smenu_sextexts
   \   00000014   80DF4DE2           SUB      SP,SP,#+512
   \   00000018   300095E5           LDR      R0,[R5, #+48]
   \   0000001C   6410A0E3           MOV      R1,#+100
   \   00000020   910000E0           MUL      R0,R1,R0
   \   00000024   341095E5           LDR      R1,[R5, #+52]
   \   00000028   D43082E2           ADD      R3,R2,#+212
   \   0000002C   ........           _BLF     ??div32_a,??rA??div32_a
   \   00000030   02002DE9           PUSH     {R1}
   \   00000034   432F82E2           ADD      R2,R2,#+268
   \   00000038   04008DE2           ADD      R0,SP,#+4
   \   0000003C   FF10A0E3           MOV      R1,#+255
   \   00000040   150100EF           SWI      +277
    197            MessageBox(TextID_Create(Pets[indx].Status.name,ENC_UCS2,TEXTID_ANY_LEN), TextID_Create(s,ENC_UCS2,255), img_menu[SM_BEHAVIOUR_ICN], 1, 5000*msgShowTime, 0);
   \   00000044   FF20A0E3           MOV      R2,#+255
   \   00000048   0010A0E3           MOV      R1,#+0
   \   0000004C   04008DE2           ADD      R0,SP,#+4
   \   00000050   5D0100EF           SWI      +349
   \   00000054   0040A0E1           MOV      R4,R0
   \   00000058   FF20A0E3           MOV      R2,#+255
   \   0000005C   FF2C82E3           ORR      R2,R2,#0xFF00
   \   00000060   0010A0E3           MOV      R1,#+0
   \   00000064   400085E2           ADD      R0,R5,#+64
   \   00000068   5D0100EF           SWI      +349
   \   0000006C   0010A0E3           MOV      R1,#+0
   \   00000070   02002DE9           PUSH     {R1}
   \   00000074   ........           LDR      R1,??DataTable34  ;; msgShowTime
   \   00000078   8820A0E3           MOV      R2,#+136
   \   0000007C   001091E5           LDR      R1,[R1, #+0]
   \   00000080   4C2D82E3           ORR      R2,R2,#0x1300
   \   00000084   920101E0           MUL      R1,R2,R1
   \   00000088   0130A0E3           MOV      R3,#+1
   \   0000008C   02002DE9           PUSH     {R1}
   \   00000090   10109FE5           LDR      R1,??ViewBehaviour_1  ;; img_menu + 28
   \   00000094   B020D1E1           LDRH     R2,[R1, #+0]
   \   00000098   0410A0E1           MOV      R1,R4
   \   0000009C   570200EF           SWI      +599
    198          }
   \   000000A0   83DF8DE2           ADD      SP,SP,#+524
   \   000000A4   3080BDE8           POP      {R4,R5,PC}       ;; return
   \                     ??ViewBehaviour_1:
   \   000000A8   ........           DC32     img_menu + 28
    199          

   \                                 In segment CODE, align 4, keep-with-next
    200          void ViewFatigue(int indx)
    201          {
    202            wchar_t s[256];
    203            snwprintf(s,255,L"%ls:%d%%",
    204                      LG_FATIGUE, (int)Pets[indx].Fatigue);
   \                     ??ViewFatigue:
   \   00000000   ........           LDR      R2,??DataTable49  ;; Pets
   \   00000004   30402DE9           PUSH     {R4,R5,LR}
   \   00000008   441FA0E3           MOV      R1,#+272
   \   0000000C   912025E0           MLA      R5,R1,R0,R2
   \   00000010   ........           LDR      R0,??DataTable33  ;; smenu_sextexts
   \   00000014   80DF4DE2           SUB      SP,SP,#+512
   \   00000018   D81095E5           LDR      R1,[R5, #+216]
   \   0000001C   E83080E2           ADD      R3,R0,#+232
   \   00000020   02002DE9           PUSH     {R1}
   \   00000024   432F80E2           ADD      R2,R0,#+268
   \   00000028   04008DE2           ADD      R0,SP,#+4
   \   0000002C   FF10A0E3           MOV      R1,#+255
   \   00000030   150100EF           SWI      +277
    205            MessageBox(TextID_Create(Pets[indx].Status.name,ENC_UCS2,TEXTID_ANY_LEN), TextID_Create(s,ENC_UCS2,255), img_menu[SM_FATIGUE_ICN], 1, 5000*msgShowTime, 0);
   \   00000034   FF20A0E3           MOV      R2,#+255
   \   00000038   0010A0E3           MOV      R1,#+0
   \   0000003C   04008DE2           ADD      R0,SP,#+4
   \   00000040   5D0100EF           SWI      +349
   \   00000044   0040A0E1           MOV      R4,R0
   \   00000048   FF20A0E3           MOV      R2,#+255
   \   0000004C   FF2C82E3           ORR      R2,R2,#0xFF00
   \   00000050   0010A0E3           MOV      R1,#+0
   \   00000054   400085E2           ADD      R0,R5,#+64
   \   00000058   5D0100EF           SWI      +349
   \   0000005C   0010A0E3           MOV      R1,#+0
   \   00000060   02002DE9           PUSH     {R1}
   \   00000064   ........           LDR      R1,??DataTable34  ;; msgShowTime
   \   00000068   8820A0E3           MOV      R2,#+136
   \   0000006C   001091E5           LDR      R1,[R1, #+0]
   \   00000070   4C2D82E3           ORR      R2,R2,#0x1300
   \   00000074   920101E0           MUL      R1,R2,R1
   \   00000078   0130A0E3           MOV      R3,#+1
   \   0000007C   02002DE9           PUSH     {R1}
   \   00000080   10109FE5           LDR      R1,??ViewFatigue_1  ;; img_menu + 30
   \   00000084   B020D1E1           LDRH     R2,[R1, #+0]
   \   00000088   0410A0E1           MOV      R1,R4
   \   0000008C   570200EF           SWI      +599
    206          }
   \   00000090   83DF8DE2           ADD      SP,SP,#+524
   \   00000094   3080BDE8           POP      {R4,R5,PC}       ;; return
   \                     ??ViewFatigue_1:
   \   00000098   ........           DC32     img_menu + 30
    207          

   \                                 In segment CODE, align 4, keep-with-next
    208          int status_list_callback(GUI_MESSAGE * msg)
    209          {
   \                     ??status_list_callback:
   \   00000000   F0402DE9           PUSH     {R4-R7,LR}
   \   00000004   43DF4DE2           SUB      SP,SP,#+268
   \   00000008   0040A0E1           MOV      R4,R0
    210            TEXTID str_id;
    211            IMAGEID icon_id;
    212            wchar_t ws[128];
    213            switch( GUIonMessage_GetMsg(msg) )
   \   0000000C   740300EF           SWI      +884
   \   00000010   010050E3           CMP      R0,#+1
   \   00000014   8900001A           BNE      ??status_list_callback_2
    214            {
    215            case 1:
    216              int curitem=GUIonMessage_GetCreatedItemIndex(msg);
    217          //    MyBOOK * bk = (MyBOOK *)msg->book;
    218              MyBOOK * bk = (MyBOOK *) FindBook(isTamagochiBook);
    219              int indx = TabMenuBar_GetFocusedTab(bk->gui);
    220              icon_id = img_menu[smenuiconsnum[curitem]];
   \   00000018   ........           LDR      R5,??DataTable35  ;; img_menu
   \   0000001C   0400A0E1           MOV      R0,R4
   \   00000020   370100EF           SWI      +311
   \   00000024   0060A0E1           MOV      R6,R0
   \   00000028   ........           LDR      R0,??DataTable48  ;; ??isTamagochiBook
    221              {
    222                switch(curitem)
   \   0000002C   437FA0E3           MOV      R7,#+268
   \   00000030   300100EF           SWI      +304
   \   00000034   280090E5           LDR      R0,[R0, #+40]
   \   00000038   5D0200EF           SWI      +605
   \   0000003C   ........           LDR      R2,??DataTable37  ;; smenu_sextexts
   \   00000040   090056E3           CMP      R6,#+9
   \   00000044   063182E0           ADD      R3,R2,R6, LSL #+2
   \   00000048   181093E5           LDR      R1,[R3, #+24]
   \   0000004C   811085E0           ADD      R1,R5,R1, LSL #+1
   \   00000050   B050D1E1           LDRH     R5,[R1, #+0]
   \   00000054   481FA0E3           MOV      R1,#+288
   \   00000058   6600008A           BHI      ??status_list_callback_3
   \   0000005C   01CF8FE2           ADR      R12,??status_list_callback_1
   \   00000060   06C0DCE7           LDRB     R12,[R12, R6]
   \   00000064   0CF18FE0           ADD      PC,PC,R12, LSL #+2
   \                     ??status_list_callback_1:
   \   00000068   02090F15           DC8      +2,+9,+15,+21
   \   0000006C   202B3642           DC8      +32,+43,+54,+66
   \   00000070   4D580000           DC8      +77,+88,+0,+0
    223                {
    224                case SM_SEX:
    225                  snwprintf(ws,127,L"%ls: %ls",smenutexts[curitem],smenu_sextexts[Pets[indx].Status.Sex]);
   \                     ??status_list_callback_4:
   \   00000074   ........           LDR      R6,??DataTable49  ;; Pets
   \   00000078   441FA0E3           MOV      R1,#+272
   \   0000007C   916020E0           MLA      R0,R1,R0,R6
   \   00000080   C00090E5           LDR      R0,[R0, #+192]
   \   00000084   000192E7           LDR      R0,[R2, +R0, LSL #+2]
   \   00000088   F82082E2           ADD      R2,R2,#+248
   \   0000008C   530000EA           B        ??status_list_callback_5
    226                  break;
    227                case SM_AGE:
    228                  snwprintf(ws,127,L"%ls: %d",smenutexts[curitem],Pets[indx].Status.Age);
   \                     ??status_list_callback_6:
   \   00000090   ........           LDR      R7,??DataTable49  ;; Pets
   \   00000094   446FA0E3           MOV      R6,#+272
   \   00000098   967020E0           MLA      R0,R6,R0,R7
   \   0000009C   022081E0           ADD      R2,R1,R2
   \   000000A0   000090E5           LDR      R0,[R0, #+0]
   \   000000A4   4D0000EA           B        ??status_list_callback_5
    229                  break;
    230                case SM_FAMILYLIFE:
    231                  snwprintf(ws,127,L"%ls: %d",smenutexts[curitem],Pets[indx].Status.FamilyLife);
   \                     ??status_list_callback_7:
   \   000000A8   ........           LDR      R7,??DataTable49  ;; Pets
   \   000000AC   446FA0E3           MOV      R6,#+272
   \   000000B0   967020E0           MLA      R0,R6,R0,R7
   \   000000B4   022081E0           ADD      R2,R1,R2
   \   000000B8   C80090E5           LDR      R0,[R0, #+200]
   \   000000BC   470000EA           B        ??status_list_callback_5
    232                  break;
    233                case SM_HEALTH:
    234                  snwprintf(ws,127,L"%ls:%d%%",smenutexts[curitem],(int)Pets[indx].Status.Health*100/Pets[indx].Status.MaxHealth);
   \                     ??status_list_callback_8:
   \   000000C0   ........           LDR      R1,??DataTable49  ;; Pets
   \   000000C4   446FA0E3           MOV      R6,#+272
   \   000000C8   961021E0           MLA      R1,R6,R0,R1
   \   000000CC   6460A0E3           MOV      R6,#+100
   \   000000D0   080091E5           LDR      R0,[R1, #+8]
   \   000000D4   0C1091E5           LDR      R1,[R1, #+12]
   \   000000D8   960000E0           MUL      R0,R6,R0
   \   000000DC   022087E0           ADD      R2,R7,R2
   \   000000E0   ........           _BLF     ??div32_a,??rA??div32_a
   \   000000E4   02002DE9           PUSH     {R1}
   \   000000E8   3D0000EA           B        ??status_list_callback_9
    235                  break;
    236                case SM_HUNGER:
    237                  snwprintf(ws,127,L"%ls:%d%%",smenutexts[curitem],(int)Pets[indx].Status.Hunger*100/Pets[indx].Status.MaxHunger);
   \                     ??status_list_callback_10:
   \   000000EC   ........           LDR      R1,??DataTable49  ;; Pets
   \   000000F0   446FA0E3           MOV      R6,#+272
   \   000000F4   961021E0           MLA      R1,R6,R0,R1
   \   000000F8   6460A0E3           MOV      R6,#+100
   \   000000FC   100091E5           LDR      R0,[R1, #+16]
   \   00000100   141091E5           LDR      R1,[R1, #+20]
   \   00000104   960000E0           MUL      R0,R6,R0
   \   00000108   022087E0           ADD      R2,R7,R2
   \   0000010C   ........           _BLF     ??div32_a,??rA??div32_a
   \   00000110   02002DE9           PUSH     {R1}
   \   00000114   320000EA           B        ??status_list_callback_9
    238                  break;
    239                case SM_HAPPINESS:
    240                  snwprintf(ws,127,L"%ls:%d%%",smenutexts[curitem],(int)Pets[indx].Status.Happiness*100/Pets[indx].Status.MaxHappiness);
   \                     ??status_list_callback_11:
   \   00000118   ........           LDR      R1,??DataTable49  ;; Pets
   \   0000011C   446FA0E3           MOV      R6,#+272
   \   00000120   961021E0           MLA      R1,R6,R0,R1
   \   00000124   6460A0E3           MOV      R6,#+100
   \   00000128   180091E5           LDR      R0,[R1, #+24]
   \   0000012C   1C1091E5           LDR      R1,[R1, #+28]
   \   00000130   960000E0           MUL      R0,R6,R0
   \   00000134   022087E0           ADD      R2,R7,R2
   \   00000138   ........           _BLF     ??div32_a,??rA??div32_a
   \   0000013C   02002DE9           PUSH     {R1}
   \   00000140   270000EA           B        ??status_list_callback_9
    241                  break;
    242                case SM_DIRTINESS:
    243                  snwprintf(ws,127,L"%ls:%d%%",smenutexts[curitem],100-(int)Pets[indx].Status.Dirtiness*100/Pets[indx].Status.MaxDirtiness);
   \                     ??status_list_callback_12:
   \   00000144   ........           LDR      R1,??DataTable49  ;; Pets
   \   00000148   446FA0E3           MOV      R6,#+272
   \   0000014C   961021E0           MLA      R1,R6,R0,R1
   \   00000150   6460A0E3           MOV      R6,#+100
   \   00000154   200091E5           LDR      R0,[R1, #+32]
   \   00000158   241091E5           LDR      R1,[R1, #+36]
   \   0000015C   960000E0           MUL      R0,R6,R0
   \   00000160   022087E0           ADD      R2,R7,R2
   \   00000164   ........           _BLF     ??div32_a,??rA??div32_a
   \   00000168   640061E2           RSB      R0,R1,#+100
   \   0000016C   01002DE9           PUSH     {R0}
   \   00000170   1B0000EA           B        ??status_list_callback_9
    244                  break;
    245                case SM_BOREDOM:
    246                  snwprintf(ws,127,L"%ls:%d%%",smenutexts[curitem],(int)Pets[indx].Status.Boredom*100/Pets[indx].Status.MaxBoredom);
   \                     ??status_list_callback_13:
   \   00000174   ........           LDR      R1,??DataTable49  ;; Pets
   \   00000178   446FA0E3           MOV      R6,#+272
   \   0000017C   961021E0           MLA      R1,R6,R0,R1
   \   00000180   6460A0E3           MOV      R6,#+100
   \   00000184   280091E5           LDR      R0,[R1, #+40]
   \   00000188   2C1091E5           LDR      R1,[R1, #+44]
   \   0000018C   960000E0           MUL      R0,R6,R0
   \   00000190   022087E0           ADD      R2,R7,R2
   \   00000194   ........           _BLF     ??div32_a,??rA??div32_a
   \   00000198   02002DE9           PUSH     {R1}
   \   0000019C   100000EA           B        ??status_list_callback_9
    247                  break;
    248                case SM_BEHAVIOUR:
    249                  snwprintf(ws,127,L"%ls:%d%%",smenutexts[curitem],(int)Pets[indx].Status.Behaviour*100/Pets[indx].Status.MaxBehaviour);
   \                     ??status_list_callback_14:
   \   000001A0   ........           LDR      R1,??DataTable49  ;; Pets
   \   000001A4   446FA0E3           MOV      R6,#+272
   \   000001A8   961021E0           MLA      R1,R6,R0,R1
   \   000001AC   6460A0E3           MOV      R6,#+100
   \   000001B0   300091E5           LDR      R0,[R1, #+48]
   \   000001B4   341091E5           LDR      R1,[R1, #+52]
   \   000001B8   960000E0           MUL      R0,R6,R0
   \   000001BC   022087E0           ADD      R2,R7,R2
   \   000001C0   ........           _BLF     ??div32_a,??rA??div32_a
   \   000001C4   02002DE9           PUSH     {R1}
   \   000001C8   050000EA           B        ??status_list_callback_9
    250                  break;
    251                case SM_FATIGUE:
    252                  snwprintf(ws,127,L"%ls:%d%%",smenutexts[curitem],(int)Pets[indx].Fatigue);
   \                     ??status_list_callback_15:
   \   000001CC   ........           LDR      R6,??DataTable49  ;; Pets
   \   000001D0   441FA0E3           MOV      R1,#+272
   \   000001D4   916020E0           MLA      R0,R1,R0,R6
   \   000001D8   022087E0           ADD      R2,R7,R2
   \   000001DC   D80090E5           LDR      R0,[R0, #+216]
   \                     ??status_list_callback_5:
   \   000001E0   01002DE9           PUSH     {R0}
   \                     ??status_list_callback_9:
   \   000001E4   403093E5           LDR      R3,[R3, #+64]
   \   000001E8   7F10A0E3           MOV      R1,#+127
   \   000001EC   10008DE2           ADD      R0,SP,#+16
   \   000001F0   150100EF           SWI      +277
   \   000001F4   04D08DE2           ADD      SP,SP,#+4
    253                  break;
    254                }
    255              }
    256              str_id  = TextID_Create(ws,ENC_UCS2,TEXTID_ANY_LEN);
   \                     ??status_list_callback_3:
   \   000001F8   FF20A0E3           MOV      R2,#+255
   \   000001FC   FF2C82E3           ORR      R2,R2,#0xFF00
   \   00000200   0010A0E3           MOV      R1,#+0
   \   00000204   0C008DE2           ADD      R0,SP,#+12
   \   00000208   5D0100EF           SWI      +349
    257              int strID_array[3];
    258              strID_array[0]=icon_id+0x78000000;
   \   0000020C   782485E2           ADD      R2,R5,#+2013265920
   \   00000210   00208DE5           STR      R2,[SP, #+0]
    259              strID_array[1]=0x78000020;
   \   00000214   2020A0E3           MOV      R2,#+32
   \   00000218   782482E3           ORR      R2,R2,#0x78000000
   \   0000021C   04208DE5           STR      R2,[SP, #+4]
    260              strID_array[2]=str_id;
   \   00000220   08008DE5           STR      R0,[SP, #+8]
    261              GUIonMessage_SetMenuItemText(msg,TextID_Create(strID_array,ENC_TEXTID,3));
   \   00000224   0320A0E3           MOV      R2,#+3
   \   00000228   0510A0E3           MOV      R1,#+5
   \   0000022C   0D00A0E1           MOV      R0,SP
   \   00000230   5D0100EF           SWI      +349
   \   00000234   0010A0E1           MOV      R1,R0
   \   00000238   0400A0E1           MOV      R0,R4
   \   0000023C   380100EF           SWI      +312
    262            }
    263            return(1);
   \                     ??status_list_callback_2:
   \   00000240   0100A0E3           MOV      R0,#+1
   \   00000244   43DF8DE2           ADD      SP,SP,#+268
   \   00000248   F080BDE8           POP      {R4-R7,PC}       ;; return
    264          }
    265          

   \                                 In segment CODE, align 4, keep-with-next
    266          void DestroyStatusList( BOOK* book, GUI* )
    267          {
    268            BookObj_ReturnPage(book,ACCEPT_EVENT);
   \                     ??DestroyStatusList:
   \   00000000   0C109FE5           LDR      R1,??DestroyStatusList_1  ;; ACCEPT_EVENT
   \   00000004   00402DE9           PUSH     {LR}
   \   00000008   001091E5           LDR      R1,[R1, #+0]
   \   0000000C   2E0100EF           SWI      +302
    269          }
   \   00000010   0080BDE8           POP      {PC}             ;; return
   \                     ??DestroyStatusList_1:
   \   00000014   ........           DC32     ACCEPT_EVENT
    270          

   \                                 In segment CODE, align 4, keep-with-next
    271          void CancelStatusList( BOOK* book, GUI* )
    272          {
   \                     ??CancelStatusList:
   \   00000000   30402DE9           PUSH     {R4,R5,LR}
   \   00000004   0040A0E1           MOV      R4,R0
    273            BookObj_ReturnPage(book,NIL_EVENT);
   \   00000008   1C009FE5           LDR      R0,??CancelStatusList_1  ;; NIL_EVENT
   \   0000000C   005090E5           LDR      R5,[R0, #+0]
   \   00000010   0400A0E1           MOV      R0,R4
   \   00000014   0510A0E1           MOV      R1,R5
   \   00000018   2E0100EF           SWI      +302
    274            BookObj_ReturnPage(book,NIL_EVENT);
   \   0000001C   0510A0E1           MOV      R1,R5
   \   00000020   0400A0E1           MOV      R0,R4
   \   00000024   2E0100EF           SWI      +302
    275          }
   \   00000028   3080BDE8           POP      {R4,R5,PC}       ;; return
   \                     ??CancelStatusList_1:
   \   0000002C   ........           DC32     NIL_EVENT
    276          

   \                                 In segment CODE, align 4, keep-with-next
    277          void Status_onEnter( BOOK* book, GUI* )
    278          {
   \                     ??Status_onEnter:
   \   00000000   30402DE9           PUSH     {R4,R5,LR}
   \   00000004   0040A0E1           MOV      R4,R0
    279            MyBOOK *bk = (MyBOOK *)book;
    280            int item_num = ListMenu_GetSelectedItem(bk->stat_list);
   \   00000008   2C0194E5           LDR      R0,[R4, #+300]
   \   0000000C   3E0100EF           SWI      +318
   \   00000010   0050A0E1           MOV      R5,R0
    281            int indx = TabMenuBar_GetFocusedTab(bk->gui);
   \   00000014   280094E5           LDR      R0,[R4, #+40]
   \   00000018   5D0200EF           SWI      +605
    282            smenuprocs[item_num](indx);
   \   0000001C   08109FE5           LDR      R1,??Status_onEnter_1  ;; smenuprocs
   \   00000020   051191E7           LDR      R1,[R1, +R5, LSL #+2]
   \   00000024   3040BDE8           POP      {R4,R5,LR}       ;; Pop
   \   00000028   01F0A0E1           MOV      PC,R1            ;; tailcall
   \                     ??Status_onEnter_1:
   \   0000002C   ........           DC32     smenuprocs
    283            //BookObj_ReturnPage(book,ACCEPT_EVENT);
    284          }
    285          

   \                                 In segment CODE, align 4, keep-with-next
    286          void Status_OnKey(DISP_OBJ* p, int i1, int i2, int i3, int i4)
    287          {
   \                     ??Status_OnKey:
   \   00000000   F0432DE9           PUSH     {R4-R9,LR}
   \   00000004   1C609DE5           LDR      R6,[SP, #+28]
   \   00000008   0070A0E1           MOV      R7,R0
    288            MyBOOK * bk = (MyBOOK *) FindBook(isTamagochiBook);
   \   0000000C   ........           LDR      R0,??DataTable48  ;; ??isTamagochiBook
   \   00000010   0150A0E1           MOV      R5,R1
   \   00000014   0280A0E1           MOV      R8,R2
   \   00000018   0390A0E1           MOV      R9,R3
   \   0000001C   300100EF           SWI      +304
   \   00000020   0040A0E1           MOV      R4,R0
    289            bk->Status_oldOnKey(p,i1,i2,i3,i4);
   \   00000024   0600A0E1           MOV      R0,R6
   \   00000028   01002DE9           PUSH     {R0}
   \   0000002C   0930A0E1           MOV      R3,R9
   \   00000030   0820A0E1           MOV      R2,R8
   \   00000034   0510A0E1           MOV      R1,R5
   \   00000038   0700A0E1           MOV      R0,R7
   \   0000003C   307194E5           LDR      R7,[R4, #+304]
   \   00000040   37FF2FE1           BLX      R7
    290            if(i4==KBD_SHORT_RELEASE)
   \   00000044   80009FE5           LDR      R0,??Status_OnKey_1  ;; KBD_SHORT_RELEASE
   \   00000048   000090E5           LDR      R0,[R0, #+0]
   \   0000004C   04D08DE2           ADD      SP,SP,#+4
   \   00000050   000056E1           CMP      R6,R0
   \   00000054   F083BD18           POPNE    {R4-R9,PC}
    291            {
    292              int num = i1 - KEY_DIGITAL_0;
   \   00000058   70009FE5           LDR      R0,??Status_OnKey_1+0x4  ;; KEY_DIGITAL_0
   \   0000005C   000090E5           LDR      R0,[R0, #+0]
   \   00000060   001045E0           SUB      R1,R5,R0
    293              if(num == 2)
   \   00000064   2C0194E5           LDR      R0,[R4, #+300]
   \   00000068   020051E3           CMP      R1,#+2
   \   0000006C   0600001A           BNE      ??Status_OnKey_2
    294              {
    295                int item = ListMenu_GetSelectedItem(bk->stat_list) - 1;
   \   00000070   3E0100EF           SWI      +318
   \   00000074   011050E2           SUBS     R1,R0,#+1
    296                if(item < 0) item = STATUS_ITEMS_COUNT - 1;
   \   00000078   0A00005A           BPL      ??Status_OnKey_3
    297                ListMenu_SetCursorToItem(bk->stat_list,item);
   \   0000007C   2C0194E5           LDR      R0,[R4, #+300]
   \   00000080   0910A0E3           MOV      R1,#+9
   \   00000084   350100EF           SWI      +309
   \   00000088   F083BDE8           POP      {R4-R9,PC}
    298              }
    299              else if((num == 8) || (num == 0))
   \                     ??Status_OnKey_2:
   \   0000008C   080051E3           CMP      R1,#+8
   \   00000090   00005113           CMPNE    R1,#+0
   \   00000094   0600001A           BNE      ??Status_OnKey_4
    300              {
    301                int item = ListMenu_GetSelectedItem(bk->stat_list) + 1;
   \   00000098   3E0100EF           SWI      +318
   \   0000009C   011080E2           ADD      R1,R0,#+1
    302                if(item >= STATUS_ITEMS_COUNT) item = 0;
   \   000000A0   0A0051E3           CMP      R1,#+10
   \   000000A4   0010A0A3           MOVGE    R1,#+0
    303                ListMenu_SetCursorToItem(bk->stat_list,item);
   \                     ??Status_OnKey_3:
   \   000000A8   2C0194E5           LDR      R0,[R4, #+300]
   \   000000AC   350100EF           SWI      +309
   \   000000B0   F083BDE8           POP      {R4-R9,PC}
    304              }
    305              else if(num == 5)
   \                     ??Status_OnKey_4:
   \   000000B4   050051E3           CMP      R1,#+5
   \   000000B8   F083BD18           POPNE    {R4-R9,PC}
    306              {
    307                Status_onEnter((BOOK*)bk,0);
   \   000000BC   0010A0E3           MOV      R1,#+0
   \   000000C0   0400A0E1           MOV      R0,R4
   \   000000C4   ........           BL       ??Status_onEnter
    308              }
    309            }
    310          };
   \   000000C8   F083BDE8           POP      {R4-R9,PC}       ;; return
   \                     ??Status_OnKey_1:
   \   000000CC   ........           DC32     KBD_SHORT_RELEASE
   \   000000D0   ........           DC32     KEY_DIGITAL_0
    311          

   \                                 In segment CODE, align 4, keep-with-next
    312          int CreateStatusList(void *data, BOOK * book)
    313          {
   \                     ??CreateStatusList:
   \   00000000   70402DE9           PUSH     {R4-R6,LR}
   \   00000004   0140A0E1           MOV      R4,R1
    314            int stat_pos=0;
    315            MyBOOK * bk = (MyBOOK *)book;
    316            int indx = TabMenuBar_GetFocusedTab(bk->gui);
   \   00000008   280094E5           LDR      R0,[R4, #+40]
    317            FREE_GUI(bk->stat_list);
   \   0000000C   0050A0E3           MOV      R5,#+0
   \   00000010   5D0200EF           SWI      +605
   \   00000014   0060A0E1           MOV      R6,R0
   \   00000018   2C0194E5           LDR      R0,[R4, #+300]
   \   0000001C   000050E3           CMP      R0,#+0
   \   00000020   0100000A           BEQ      ??CreateStatusList_1
   \   00000024   CE0100EF           SWI      +462
   \   00000028   2C5184E5           STR      R5,[R4, #+300]
    318          
    319            bk->stat_list=CreateListMenu(book,0);
   \                     ??CreateStatusList_1:
   \   0000002C   0010A0E3           MOV      R1,#+0
   \   00000030   0400A0E1           MOV      R0,R4
   \   00000034   C00100EF           SWI      +448
    320          
    321            GUIObject_SetTitleText(bk->stat_list,TextID_Create(Pets[indx].Status.name,ENC_UCS2,TEXTID_ANY_LEN));
   \   00000038   ........           LDR      R3,??DataTable49  ;; Pets
   \   0000003C   2C0184E5           STR      R0,[R4, #+300]
   \   00000040   440FA0E3           MOV      R0,#+272
   \   00000044   903623E0           MLA      R3,R0,R6,R3
   \   00000048   FF20A0E3           MOV      R2,#+255
   \   0000004C   FF2C82E3           ORR      R2,R2,#0xFF00
   \   00000050   0510A0E1           MOV      R1,R5
   \   00000054   400083E2           ADD      R0,R3,#+64
   \   00000058   5D0100EF           SWI      +349
   \   0000005C   0010A0E1           MOV      R1,R0
   \   00000060   2C0194E5           LDR      R0,[R4, #+300]
   \   00000064   330100EF           SWI      +307
    322          
    323            ListMenu_SetItemCount(bk->stat_list,STATUS_ITEMS_COUNT);
   \   00000068   2C0194E5           LDR      R0,[R4, #+300]
   \   0000006C   0A10A0E3           MOV      R1,#+10
   \   00000070   C10100EF           SWI      +449
    324            OneOfMany_SetOnMessage((GUI_ONEOFMANY*)bk->stat_list,status_list_callback);
   \   00000074   A0109FE5           LDR      R1,??CreateStatusList_2  ;; ??status_list_callback
   \   00000078   2C0194E5           LDR      R0,[R4, #+300]
   \   0000007C   E10100EF           SWI      +481
    325          
    326            ListMenu_SetCursorToItem(bk->stat_list,stat_pos);
   \   00000080   2C0194E5           LDR      R0,[R4, #+300]
   \   00000084   0510A0E1           MOV      R1,R5
   \   00000088   350100EF           SWI      +309
    327          
    328            GUIObject_SoftKeys_SetAction(bk->stat_list,ACTION_BACK,DestroyStatusList);
   \   0000008C   ........           LDR      R0,??DataTable50  ;; ACTION_BACK
   \   00000090   88209FE5           LDR      R2,??CreateStatusList_2+0x4  ;; ??DestroyStatusList
   \   00000094   001090E5           LDR      R1,[R0, #+0]
   \   00000098   2C0194E5           LDR      R0,[R4, #+300]
   \   0000009C   0118A0E1           MOV      R1,R1, LSL #+16
   \   000000A0   2118A0E1           MOV      R1,R1, LSR #+16
   \   000000A4   4B0100EF           SWI      +331
    329            GUIObject_SoftKeys_SetAction(bk->stat_list,ACTION_LONG_BACK,CancelStatusList);
   \   000000A8   74009FE5           LDR      R0,??CreateStatusList_2+0x8  ;; ACTION_LONG_BACK
   \   000000AC   74209FE5           LDR      R2,??CreateStatusList_2+0xC  ;; ??CancelStatusList
   \   000000B0   001090E5           LDR      R1,[R0, #+0]
   \   000000B4   2C0194E5           LDR      R0,[R4, #+300]
   \   000000B8   0118A0E1           MOV      R1,R1, LSL #+16
   \   000000BC   2118A0E1           MOV      R1,R1, LSR #+16
   \   000000C0   4B0100EF           SWI      +331
    330            GUIObject_SoftKeys_SetAction(bk->stat_list,ACTION_SELECT1,Status_onEnter);
   \   000000C4   ........           LDR      R0,??DataTable51  ;; ACTION_SELECT1
   \   000000C8   5C209FE5           LDR      R2,??CreateStatusList_2+0x10  ;; ??Status_onEnter
   \   000000CC   001090E5           LDR      R1,[R0, #+0]
   \   000000D0   2C0194E5           LDR      R0,[R4, #+300]
   \   000000D4   0118A0E1           MOV      R1,R1, LSL #+16
   \   000000D8   2118A0E1           MOV      R1,R1, LSR #+16
   \   000000DC   4B0100EF           SWI      +331
    331          
    332            bk->Status_oldOnKey = DispObject_GetOnKey( GUIObject_GetDispObject(bk->stat_list) );
   \   000000E0   2C0194E5           LDR      R0,[R4, #+300]
   \   000000E4   680100EF           SWI      +360
   \   000000E8   2B0200EF           SWI      +555
   \   000000EC   300184E5           STR      R0,[R4, #+304]
    333            DISP_DESC_SetOnKey( DispObject_GetDESC ( GUIObject_GetDispObject(bk->stat_list) ), Status_OnKey );
   \   000000F0   2C0194E5           LDR      R0,[R4, #+300]
   \   000000F4   680100EF           SWI      +360
   \   000000F8   1F0200EF           SWI      +543
   \   000000FC   2C109FE5           LDR      R1,??CreateStatusList_2+0x14  ;; ??Status_OnKey
   \   00000100   2A0200EF           SWI      +554
    334          
    335            CountSex = 0;
   \   00000104   ........           LDR      R0,??DataTable52  ;; CountSex
   \   00000108   005080E5           STR      R5,[R0, #+0]
    336          
    337            //  BookObj_SetFocus(book,0);
    338            GUIObject_Show(bk->stat_list);
   \   0000010C   2C0194E5           LDR      R0,[R4, #+300]
   \   00000110   340100EF           SWI      +308
    339            return(0);
   \   00000114   0500A0E1           MOV      R0,R5
   \   00000118   7080BDE8           POP      {R4-R6,PC}       ;; return
   \                     ??CreateStatusList_2:
   \   0000011C   ........           DC32     ??status_list_callback
   \   00000120   ........           DC32     ??DestroyStatusList
   \   00000124   ........           DC32     ACTION_LONG_BACK
   \   00000128   ........           DC32     ??CancelStatusList
   \   0000012C   ........           DC32     ??Status_onEnter
   \   00000130   ........           DC32     ??Status_OnKey
    340          }
    341          

   \                                 In segment CODE, align 4, keep-with-next
    342          int ExitStatusList(void *data, BOOK * book)
    343          {
   \                     ??ExitStatusList:
   \   00000000   10402DE9           PUSH     {R4,LR}
   \   00000004   0140A0E1           MOV      R4,R1
    344            MyBOOK * bk = (MyBOOK *)book;
    345            FREE_GUI(bk->stat_list);
   \   00000008   2C0194E5           LDR      R0,[R4, #+300]
   \   0000000C   000050E3           CMP      R0,#+0
   \   00000010   1080BD08           POPEQ    {R4,PC}
   \   00000014   CE0100EF           SWI      +462
   \   00000018   0000A0E3           MOV      R0,#+0
   \   0000001C   2C0184E5           STR      R0,[R4, #+300]
    346            return(0);
   \   00000020   1080BDE8           POP      {R4,PC}          ;; return
    347          }
    348          

   \                                 In segment DYN_PAGE, align 4, align-sorted
    349          const PAGE_MSG CreateStatus_PageEvents[]@ "DYN_PAGE" ={
   \                     CreateStatus_PageEvents:
   \   00000000   42000000....       DC32 66, ??CreateStatusList, 76, ??CreateStatusList, 67
   \              ....4C000000
   \              ........4300
   \              0000        
   \   00000014   ........4000       DC32 ??ExitStatusList, 64, 0H
   \              000000000000
    350            PAGE_ENTER_EVENT_TAG,CreateStatusList,
    351            ACCEPT_EVENT_TAG,CreateStatusList,
    352            PAGE_EXIT_EVENT_TAG,ExitStatusList,
    353            NIL_EVENT_TAG,0
    354          };
    355          

   \                                 In segment DATA_I, align 4, align-sorted
    356          PAGE_DESC CreateStatus_page ={"Tamagochi_CreateStatus_Main_Page",0,CreateStatus_PageEvents};
   \                     CreateStatus_page:
   \   00000000                      DS8 12
   \   0000000C                      REQUIRE `?<Initializer for CreateStatus_page>`
    357          

   \                                 In segment CODE, align 4, keep-with-next
    358          void ShowStatus(BOOK * book)
    359          {
    360            BookObj_CallPage(book,&CreateStatus_page);
   \                     ??ShowStatus:
   \   00000000   08109FE5           LDR      R1,??ShowStatus_1  ;; CreateStatus_page
   \   00000004   00402DE9           PUSH     {LR}
   \   00000008   B80200EF           SWI      +696
    361          }
   \   0000000C   0080BDE8           POP      {PC}             ;; return
   \                     ??ShowStatus_1:
   \   00000010   ........           DC32     CreateStatus_page
    362          

   \                                 In segment CODE, align 4, keep-with-next
    363          void CloseStatus(BOOK * book)
    364          {
    365            ExitStatusList(0,book);
   \                     ??CloseStatus:
   \   00000000   0010A0E1           MOV      R1,R0
   \   00000004   0000A0E3           MOV      R0,#+0
   \   00000008   ........           B        ??ExitStatusList  ;; tailcall
    366          }

   \                                 In segment CODE, align 4, keep-with-next
   \                     ??DataTable33:
   \   00000000   ........           DC32     smenu_sextexts

   \                                 In segment CODE, align 4, keep-with-next
   \                     ??DataTable34:
   \   00000000   ........           DC32     msgShowTime

   \                                 In segment CODE, align 4, keep-with-next
   \                     ??DataTable35:
   \   00000000   ........           DC32     img_menu

   \                                 In segment CODE, align 4, keep-with-next
   \                     ??DataTable37:
   \   00000000   ........           DC32     smenu_sextexts

   \                                 In segment CODE, align 4, keep-with-next
   \                     ??DataTable48:
   \   00000000   ........           DC32     ??isTamagochiBook

   \                                 In segment CODE, align 4, keep-with-next
   \                     ??DataTable49:
   \   00000000   ........           DC32     Pets

   \                                 In segment CODE, align 4, keep-with-next
   \                     ??DataTable50:
   \   00000000   ........           DC32     ACTION_BACK

   \                                 In segment CODE, align 4, keep-with-next
   \                     ??DataTable51:
   \   00000000   ........           DC32     ACTION_SELECT1

   \                                 In segment CODE, align 4, keep-with-next
   \                     ??DataTable52:
   \   00000000   ........           DC32     CountSex

   \                                 In segment DATA_ID, align 4, align-sorted
   \                     `?<Initializer for smenuprocs>`:
   \   00000000   ............       DC32 ??ViewSex, ??ViewAge, ??ViewFamilyLife, ??ViewHealth, ??ViewHunger
   \              ............
   \              ............
   \              ....        
   \   00000014   ............       DC32 ??ViewHappiness, ??ViewDirtiness, ??ViewBoredom, ??ViewBehaviour
   \              ............
   \              ........    
   \   00000024   ........           DC32 ??ViewFatigue

   \                                 In segment DATA_ID, align 4, align-sorted
   \                     `?<Initializer for CreateStatus_page>`:
   \   00000000   ........0000       DC32 `?<Constant "Tamagochi_CreateStatu...">`, 0H
   \              0000        
   \   00000008   ........           DC32 CreateStatus_PageEvents

   \                                 In segment DATA_C, align 4, align-sorted
   \                     `?<Constant L"\\x4e\\x6f\\x74\\x20\\x64\\x65\\x66\\x69\\`:
   \   00000000   4E006F007400       DC8 4EH, 0, 6FH, 0, 74H, 0, 20H, 0
   \              2000        
   \   00000008   640065006600       DC8 64H, 0, 65H, 0, 66H, 0, 69H, 0
   \              6900        
   \   00000010   6E0065006400       DC8 6EH, 0, 65H, 0, 64H, 0, 0, 0
   \              0000        

   \                                 In segment DATA_C, align 4, align-sorted
   \                     `?<Constant L"\\x41\\x67\\x65">`:
   \   00000000   410067006500       DC8 41H, 0, 67H, 0, 65H, 0, 0, 0
   \              0000        
   \   00000008   25006C007300       DC8 25H, 0, 6CH, 0, 73H, 0, 3AH, 0
   \              3A00        
   \   00000010   250064000A00       DC8 25H, 0, 64H, 0, 0AH, 0, 25H, 0
   \              2500        
   \   00000018   64002F002500       DC8 64H, 0, 2FH, 0, 25H, 0, 64H, 0
   \              6400        
   \   00000020   0000               DC8 0, 0
   \   00000022   0000               DC8 0, 0

   \                                 In segment DATA_C, align 4, align-sorted
   \                     `?<Constant L"\\x46\\x61\\x6d\\x69\\x6c\\x79\\x20\\x6c\\`:
   \   00000000   460061006D00       DC8 46H, 0, 61H, 0, 6DH, 0, 69H, 0
   \              6900        
   \   00000008   6C0079002000       DC8 6CH, 0, 79H, 0, 20H, 0, 6CH, 0
   \              6C00        
   \   00000010   690066006500       DC8 69H, 0, 66H, 0, 65H, 0, 0, 0
   \              0000        
   \   00000018   25006C007300       DC8 25H, 0, 6CH, 0, 73H, 0, 3AH, 0
   \              3A00        
   \   00000020   250064000000       DC8 25H, 0, 64H, 0, 0, 0
   \   00000026   0000               DC8 0, 0

   \                                 In segment DATA_C, align 4, align-sorted
   \                     `?<Constant L"\\x48\\x65\\x61\\x6c\\x74\\x68">`:
   \   00000000   480065006100       DC8 48H, 0, 65H, 0, 61H, 0, 6CH, 0
   \              6C00        
   \   00000008   740068000000       DC8 74H, 0, 68H, 0, 0, 0
   \   0000000E   0000               DC8 0, 0
   \   00000010   25006C007300       DC8 25H, 0, 6CH, 0, 73H, 0, 3AH, 0
   \              3A00        
   \   00000018   250064002500       DC8 25H, 0, 64H, 0, 25H, 0, 25H, 0
   \              2500        
   \   00000020   0A0025006400       DC8 0AH, 0, 25H, 0, 64H, 0, 2FH, 0
   \              2F00        
   \   00000028   250064000000       DC8 25H, 0, 64H, 0, 0, 0
   \   0000002E   0000               DC8 0, 0

   \                                 In segment DATA_C, align 4, align-sorted
   \                     `?<Constant "Tamagochi_CreateStatu...">`:
   \   00000000   54616D61676F       DC8 "Tamagochi_CreateStatus_Main_Page"
   \              6368695F4372
   \              656174655374
   \              617475735F4D
   \              61696E5F5061
   \              676500      
   \   00000021   000000             DC8 0, 0, 0
    367          

   Maximum stack usage in bytes:

     Function                       CSTACK
     --------                       ------
     CancelStatusList(BOOK *, GUI *)
                                       12
     CloseStatus(BOOK *)                4
     CreateStatusList(void *, BOOK *)
                                       16
     DestroyStatusList(BOOK *, GUI *)
                                        4
     ExitStatusList(void *, BOOK *)     8
     OnCloseSetSex(BOOK *, GUI *)      12
     OnSelectSetSex(BOOK *, GUI *)     12
     ShowStatus(BOOK *)                 4
     Status_OnKey(DISP_OBJ *, int, int, int, int)
                                       32
     Status_onEnter(BOOK *, GUI *)     12
     ViewAge(int)                     544
     ViewBehaviour(int)               536
     ViewBoredom(int)                 536
     ViewDirtiness(int)               536
     ViewFamilyLife(int)              536
     ViewFatigue(int)                 536
     ViewHappiness(int)               536
     ViewHealth(int)                  544
     ViewHunger(int)                  536
     ViewSex(int)                     556
     status_list_callback(GUI_MESSAGE *)
                                      292


   Segment part sizes:

     Function/Label                 Bytes
     --------------                 -----
     CountSex                          4
     smenu_sextexts                  304
     smenuprocs                       40
     OnCloseSetSex(BOOK *, GUI *)     44
     OnSelectSetSex(BOOK *, GUI *)    72
     ViewSex(int)                    436
     ViewAge(int)                    188
     ViewFamilyLife(int)             160
     ViewHealth(int)                 192
     ViewHunger(int)                 172
     ViewHappiness(int)              172
     ViewDirtiness(int)              176
     ViewBoredom(int)                172
     ViewBehaviour(int)              172
     ViewFatigue(int)                156
     status_list_callback(GUI_MESSAGE *)
                                     588
     DestroyStatusList(BOOK *, GUI *)
                                      24
     CancelStatusList(BOOK *, GUI *)
                                      48
     Status_onEnter(BOOK *, GUI *)    48
     Status_OnKey(DISP_OBJ *, int, int, int, int)
                                     212
     CreateStatusList(void *, BOOK *)
                                     308
     ExitStatusList(void *, BOOK *)   36
     CreateStatus_PageEvents          32
     CreateStatus_page                12
     ShowStatus(BOOK *)               20
     CloseStatus(BOOK *)              12
     ??DataTable33                     4
     ??DataTable34                     4
     ??DataTable35                     4
     ??DataTable37                     4
     ??DataTable48                     4
     ??DataTable49                     4
     ??DataTable50                     4
     ??DataTable51                     4
     ??DataTable52                     4
     ?<Initializer for smenuprocs>    40
     ?<Initializer for CreateStatus_page>
                                      12
     ?<Constant L"\x4e\x6f\x74\x20\x64\x65\x66\x69\
                                      24
     ?<Constant L"\x41\x67\x65">      36
     ?<Constant L"\x46\x61\x6d\x69\x6c\x79\x20\x6c\
                                      40
     ?<Constant L"\x48\x65\x61\x6c\x74\x68">
                                      48
     ?<Constant "Tamagochi_CreateStatu...">
                                      36
      Others                         120

 
 3 540 bytes in segment CODE
   488 bytes in segment DATA_C
    52 bytes in segment DATA_I
    52 bytes in segment DATA_ID
     4 bytes in segment DATA_Z
    32 bytes in segment DYN_PAGE
    24 bytes in segment INITTAB
 
 3 444 bytes of CODE  memory (+ 120 bytes shared)
   572 bytes of CONST memory
    56 bytes of DATA  memory

Errors: none
Warnings: none
