################################################################################
#                                                                              #
#      IAR Universal Linker V4.60I/386                                         #
#                                                                              #
#           Link time     =  10/Jun/2013  23:08:26                             #
#           Target CPU    =  ARM                                               #
#           List file     =  Z:\home\perk11\www\perk11.info\svn\SE\Tamagochi\R #
#                            elease_EN\List\Tamagochi.map                      #
#           Output file 1 =  Z:\home\perk11\www\perk11.info\svn\SE\Tamagochi\R #
#                            elease_EN\Exe\Tamagochi.elf                       #
#                            Format: elf, variant: -ynpra                      #
#           Command line  =  Z:\home\perk11\www\perk11.info\svn\SE\Tamagochi\R #
#                            elease_EN\Obj\_cpp2.r79                           #
#                            Z:\home\perk11\www\perk11.info\svn\SE\Tamagochi\R #
#                            elease_EN\Obj\conf_loader.r79                     #
#                            Z:\home\perk11\www\perk11.info\svn\SE\Tamagochi\R #
#                            elease_EN\Obj\config_data.r79                     #
#                            Z:\home\perk11\www\perk11.info\svn\SE\Tamagochi\R #
#                            elease_EN\Obj\crypt.r79                           #
#                            Z:\home\perk11\www\perk11.info\svn\SE\Tamagochi\R #
#                            elease_EN\Obj\func.r79                            #
#                            Z:\home\perk11\www\perk11.info\svn\SE\Tamagochi\R #
#                            elease_EN\Obj\gui.r79                             #
#                            Z:\home\perk11\www\perk11.info\svn\SE\Tamagochi\R #
#                            elease_EN\Obj\main.r79                            #
#                            Z:\home\perk11\www\perk11.info\svn\SE\Tamagochi\R #
#                            elease_EN\Obj\splitutils.r79                      #
#                            Z:\home\perk11\www\perk11.info\svn\SE\Tamagochi\R #
#                            elease_EN\Obj\status.r79                          #
#                            Z:\home\perk11\www\perk11.info\svn\SE\Tamagochi\R #
#                            elease_EN\Obj\strncmpi.r79                        #
#                            -o                                                #
#                            Z:\home\perk11\www\perk11.info\svn\SE\Tamagochi\R #
#                            elease_EN\Exe\Tamagochi.elf                       #
#                            -Felf -l                                          #
#                            Z:\home\perk11\www\perk11.info\svn\SE\Tamagochi\R #
#                            elease_EN\List\Tamagochi.map                      #
#                            -xms -f                                           #
#                            Z:\home\perk11\www\perk11.info\svn\SE\Tamagochi\. #
#                            .\include\1.xcl                                   #
#                            (-carm -ynpra -V(CODE)CODE_AREA,12                #
#                            -V(DATA)DATA_AREA,12                              #
#                            -Z(CODE_AREA)ELFBEGIN,DATA_ID,START,CODE,DATA_C,I #
#                            NITTAB,DATA_Z,DATA_N,CONFIG_C,DYN_CONST,DYN_CONST #
#                            _DESC,DYN_PAGE,DYN_PAGE_DESC=0-FFFFFFFF           #
#                            -Z(DATA_AREA)DATA_I=0-FFFFFFFF) -n                #
#                            Z:\home\perk11\IAR2\arm\LIB\dl5tpainl8n.r79 -s    #
#                            main                                              #
#                                                                              #
#                        Copyright 1987-2007 IAR Systems. All rights reserved. #
################################################################################





                ****************************************
                *                                      *
                *           CROSS REFERENCE            *
                *                                      *
                ****************************************

       Program entry at : CODE_AREA 00004F70  Relocatable, from module : main




                ****************************************
                *                                      *
                *            RUNTIME MODEL             *
                *                                      *
                ****************************************

  ARMv4M                 = USED
  ARMv4T                 = USED
  ARMv5T                 = USED
  StackAlign4            = USED
  __cpu_mode             = __pcs__interwork
  __data_model           = absolute
  __dlib_file_descriptor = 1
  __endian               = little
  __rt_version           = 6



                ****************************************
                *                                      *
                *              MODULE MAP              *
                *                                      *
                ****************************************


  DEFINED ABSOLUTE ENTRIES
    *************************************************************************

  DEFINED ABSOLUTE ENTRIES
    *************************************************************************

  FILE NAME : Z:\home\perk11\www\perk11.info\svn\SE\Tamagochi\Release_EN\Obj\_cpp2.r79
  PROGRAM MODULE, NAME : _cpp2

  SEGMENTS IN THE MODULE
  ======================
CODE
  Relative segment, address: CODE_AREA 000009FC - 00000A07 (0xc bytes), align: 2
  Segment part 3.
           ENTRY                   ADDRESS         REF BY
           =====                   =======         ======
           operator new(size_t)    000009FC        SB_ELF_Killed(void *, BOOK *) (main)
                                                   Send_REDRAW_RELEASE() (main)
                                                   main (main)
               stack 1 = 00000000 ( 00000004 )
    -------------------------------------------------------------------------
CODE
  Relative segment, address: CODE_AREA 00000A08 - 00000A13 (0xc bytes), align: 2
  Segment part 5.
           ENTRY                   ADDRESS         REF BY
           =====                   =======         ======
           operator new[](size_t)
                                   00000A08        LoadConfigData(wchar_t const *, wchar_t const *) (conf_loader)
                                                   SaveConfigData(wchar_t const *, wchar_t const *) (conf_loader)
               stack 1 = 00000000 ( 00000004 )
    -------------------------------------------------------------------------
CODE
  Relative segment, address: CODE_AREA 00000A14 - 00000A1F (0xc bytes), align: 2
  Segment part 7.
           ENTRY                   ADDRESS         REF BY
           =====                   =======         ======
           operator delete(void *)
                                   00000A14        LoadConfigData(wchar_t const *, wchar_t const *) (conf_loader)
                                                   SaveConfigData(wchar_t const *, wchar_t const *) (conf_loader)
                                                   main (main)
               stack 1 = 00000000 ( 00000004 )

    *************************************************************************

  FILE NAME : Z:\home\perk11\www\perk11.info\svn\SE\Tamagochi\Release_EN\Obj\conf_loader.r79
  PROGRAM MODULE, NAME : conf_loader

  SEGMENTS IN THE MODULE
  ======================
DATA_I
  Relative segment, address: DATA_AREA 00000000 - 00000007 (0x8 bytes), align: 2
  Segment part 4.             Intra module refs:   Segment part 12
           ENTRY                   ADDRESS         REF BY
           =====                   =======         ======
           successed_config_name   00000004        EditConfig(int, BOOK *, int) (gui)
                                                   onReconfigElf(void *, BOOK *) (main)
           successed_config_path   00000000        EditConfig(int, BOOK *, int) (gui)
                                                   onReconfigElf(void *, BOOK *) (main)
    -------------------------------------------------------------------------
CODE
  Relative segment, address: CODE_AREA 00000A20 - 00000AAF (0x90 bytes), align: 2
  Segment part 7.             Intra module refs:   InitConfig()
                                                   LoadConfigData(wchar_t const *, wchar_t const *)
           ENTRY                   ADDRESS         REF BY
           =====                   =======         ======
           SaveConfigData(wchar_t const *, wchar_t const *)
                                   00000A20 
               stack 1 = 00000000 ( 00000024 )
    -------------------------------------------------------------------------
CODE
  Relative segment, address: CODE_AREA 00000AB0 - 00000B9B (0xec bytes), align: 2
  Segment part 9.             Intra module refs:   InitConfig()
           ENTRY                   ADDRESS         REF BY
           =====                   =======         ======
           LoadConfigData(wchar_t const *, wchar_t const *)
                                   00000AB0 
               stack 1 = 00000000 ( 00000040 )
    -------------------------------------------------------------------------
CODE
  Relative segment, address: CODE_AREA 00000B9C - 00000B9F (0x4 bytes), align: 2
  Segment part 10.            Intra module refs:   LoadConfigData(wchar_t const *, wchar_t const *)
                                                   SaveConfigData(wchar_t const *, wchar_t const *)
    -------------------------------------------------------------------------
CODE
  Relative segment, address: CODE_AREA 00000BA0 - 00000BA3 (0x4 bytes), align: 2
  Segment part 11.            Intra module refs:   LoadConfigData(wchar_t const *, wchar_t const *)
                                                   SaveConfigData(wchar_t const *, wchar_t const *)
    -------------------------------------------------------------------------
CODE
  Relative segment, address: CODE_AREA 00000BA4 - 00000BA7 (0x4 bytes), align: 2
  Segment part 12.            Intra module refs:   LoadConfigData(wchar_t const *, wchar_t const *)
                                                   SaveConfigData(wchar_t const *, wchar_t const *)
    -------------------------------------------------------------------------
CODE
  Relative segment, address: CODE_AREA 00000BA8 - 00000BF7 (0x50 bytes), align: 2
  Segment part 14.
           ENTRY                   ADDRESS         REF BY
           =====                   =======         ======
           InitConfig()            00000BA8        main (main)
                                                   onReconfigElf(void *, BOOK *) (main)
               stack 1 = 00000000 ( 00000008 )
    -------------------------------------------------------------------------
DATA_ID
  Relative segment, address: CODE_AREA 00000000 - 00000007 (0x8 bytes), align: 2
  Segment part 5.             Intra module refs:   Segment part 4
    -------------------------------------------------------------------------
INITTAB
  Relative segment, address: CODE_AREA 00007A44 - 00007A4F (0xc bytes), align: 2
  Segment part 18. ROOT.
           ENTRY                   ADDRESS         REF BY
           =====                   =======         ======
           ?init?tab?DATA_I        00007A44 
    -------------------------------------------------------------------------
DATA_C
  Relative segment, address: CODE_AREA 00007A40 - 00007A41 (0x2 bytes), align: 1
  Segment part 2.             Intra module refs:   Segment part 5
    -------------------------------------------------------------------------
DATA_C
  Relative segment, address: CODE_AREA 0000637C - 0000639B (0x20 bytes), align: 2
  Segment part 3.             Intra module refs:   InitConfig()

    *************************************************************************

  FILE NAME : Z:\home\perk11\www\perk11.info\svn\SE\Tamagochi\Release_EN\Obj\config_data.r79
  PROGRAM MODULE, NAME : config_data

  SEGMENTS IN THE MODULE
  ======================
CONFIG_C
  Relative segment, address: CODE_AREA 0000A064 - 0000A08F (0x2c bytes), align: 2
  Segment part 2. ROOT.
    -------------------------------------------------------------------------
CONFIG_C
  Relative segment, address: CODE_AREA 0000A090 - 0000A093 (0x4 bytes), align: 2
  Segment part 3. ROOT.
           ENTRY                   ADDRESS         REF BY
           =====                   =======         ======
           ENA_HELLO_MSG           0000A090        main (main)
    -------------------------------------------------------------------------
CONFIG_C
  Relative segment, address: CODE_AREA 0000A094 - 0000A0D3 (0x40 bytes), align: 2
  Segment part 4. ROOT.
    -------------------------------------------------------------------------
CONFIG_C
  Relative segment, address: CODE_AREA 0000A0D4 - 0000A0FF (0x2c bytes), align: 2
  Segment part 5. ROOT.
    -------------------------------------------------------------------------
CONFIG_C
  Relative segment, address: CODE_AREA 0000A100 - 0000A12B (0x2c bytes), align: 2
  Segment part 6. ROOT.
    -------------------------------------------------------------------------
CONFIG_C
  Relative segment, address: CODE_AREA 0000A12C - 0000A12F (0x4 bytes), align: 2
  Segment part 7. ROOT.
           ENTRY                   ADDRESS         REF BY
           =====                   =======         ======
           REFRESH                 0000A12C        Segment part 190 (main)
                                                   Segment part 238 (main)
    -------------------------------------------------------------------------
CONFIG_C
  Relative segment, address: CODE_AREA 0000A130 - 0000A15B (0x2c bytes), align: 2
  Segment part 8. ROOT.
    -------------------------------------------------------------------------
CONFIG_C
  Relative segment, address: CODE_AREA 0000A15C - 0000A15F (0x4 bytes), align: 2
  Segment part 9. ROOT.
           ENTRY                   ADDRESS         REF BY
           =====                   =======         ======
           POS_X                   0000A15C        InitPetPos(int) (main)
    -------------------------------------------------------------------------
CONFIG_C
  Relative segment, address: CODE_AREA 0000A160 - 0000A163 (0x4 bytes), align: 2
  Segment part 10. ROOT.
           ENTRY                   ADDRESS         REF BY
           =====                   =======         ======
           POS_Y                   0000A160        InitPetPos(int) (main)
    -------------------------------------------------------------------------
CONFIG_C
  Relative segment, address: CODE_AREA 0000A164 - 0000A18F (0x2c bytes), align: 2
  Segment part 11. ROOT.
    -------------------------------------------------------------------------
CONFIG_C
  Relative segment, address: CODE_AREA 0000A190 - 0000A193 (0x4 bytes), align: 2
  Segment part 12. ROOT.
           ENTRY                   ADDRESS         REF BY
           =====                   =======         ======
           MINSIZE                 0000A190        ChangeStatusImage(int, BOOK *, int) (main)
    -------------------------------------------------------------------------
CONFIG_C
  Relative segment, address: CODE_AREA 0000A194 - 0000A1BF (0x2c bytes), align: 2
  Segment part 13. ROOT.
    -------------------------------------------------------------------------
CONFIG_C
  Relative segment, address: CODE_AREA 0000A1C0 - 0000A1C3 (0x4 bytes), align: 2
  Segment part 14. ROOT.
           ENTRY                   ADDRESS         REF BY
           =====                   =======         ======
           MAXSIZE                 0000A1C0        ChangeStatusImage(int, BOOK *, int) (main)
    -------------------------------------------------------------------------
CONFIG_C
  Relative segment, address: CODE_AREA 0000A1C4 - 0000A1EF (0x2c bytes), align: 2
  Segment part 15. ROOT.
    -------------------------------------------------------------------------
CONFIG_C
  Relative segment, address: CODE_AREA 0000A1F0 - 0000A21B (0x2c bytes), align: 2
  Segment part 16. ROOT.
    -------------------------------------------------------------------------
CONFIG_C
  Relative segment, address: CODE_AREA 0000A21C - 0000A247 (0x2c bytes), align: 2
  Segment part 17. ROOT.
    -------------------------------------------------------------------------
CONFIG_C
  Relative segment, address: CODE_AREA 0000A248 - 0000A287 (0x40 bytes), align: 2
  Segment part 18. ROOT.
           ENTRY                   ADDRESS         REF BY
           =====                   =======         ======
           PET_PATH                0000A248        Segment part 221 (main)
    -------------------------------------------------------------------------
CONFIG_C
  Relative segment, address: CODE_AREA 0000A288 - 0000A2B3 (0x2c bytes), align: 2
  Segment part 19. ROOT.
    -------------------------------------------------------------------------
CONFIG_C
  Relative segment, address: CODE_AREA 0000A2B4 - 0000A2F3 (0x40 bytes), align: 2
  Segment part 20. ROOT.
           ENTRY                   ADDRESS         REF BY
           =====                   =======         ======
           ROOM_PATH               0000A2B4        RoomCommand(int, BOOK *, int) (gui)
                                                   life_proc(int, BOOK *, int) (main)
    -------------------------------------------------------------------------
CONFIG_C
  Relative segment, address: CODE_AREA 0000A2F4 - 0000A31F (0x2c bytes), align: 2
  Segment part 21. ROOT.
    -------------------------------------------------------------------------
CONFIG_C
  Relative segment, address: CODE_AREA 0000A320 - 0000A35F (0x40 bytes), align: 2
  Segment part 22. ROOT.
           ENTRY                   ADDRESS         REF BY
           =====                   =======         ======
           PIC_PATH                0000A320        load_icons() (main)
    -------------------------------------------------------------------------
CONFIG_C
  Relative segment, address: CODE_AREA 0000A360 - 0000A38B (0x2c bytes), align: 2
  Segment part 23. ROOT.
    -------------------------------------------------------------------------
CONFIG_C
  Relative segment, address: CODE_AREA 0000A38C - 0000A3CB (0x40 bytes), align: 2
  Segment part 24. ROOT.
           ENTRY                   ADDRESS         REF BY
           =====                   =======         ======
           SOUND_PATH              0000A38C        Segment part 163 (main)
                                                   Segment part 196 (main)
                                                   Segment part 269 (main)
    -------------------------------------------------------------------------
CONFIG_C
  Relative segment, address: CODE_AREA 0000A3CC - 0000A3F7 (0x2c bytes), align: 2
  Segment part 25. ROOT.
    -------------------------------------------------------------------------
CONFIG_C
  Relative segment, address: CODE_AREA 0000A3F8 - 0000A437 (0x40 bytes), align: 2
  Segment part 26. ROOT.
           ENTRY                   ADDRESS         REF BY
           =====                   =======         ======
           GAMELIST_PATH           0000A3F8        MainPageOnCreate(void *, BOOK *) (main)
    -------------------------------------------------------------------------
CONFIG_C
  Relative segment, address: CODE_AREA 0000A438 - 0000A463 (0x2c bytes), align: 2
  Segment part 27. ROOT.
    -------------------------------------------------------------------------
CONFIG_C
  Relative segment, address: CODE_AREA 0000A464 - 0000A4A3 (0x40 bytes), align: 2
  Segment part 28. ROOT.
           ENTRY                   ADDRESS         REF BY
           =====                   =======         ======
           PLAYERLIST_PATH         0000A464        MainPageOnCreate(void *, BOOK *) (main)
    -------------------------------------------------------------------------
CONFIG_C
  Relative segment, address: CODE_AREA 0000A4A4 - 0000A4CF (0x2c bytes), align: 2
  Segment part 29. ROOT.
    -------------------------------------------------------------------------
CONFIG_C
  Relative segment, address: CODE_AREA 0000A4D0 - 0000A50F (0x40 bytes), align: 2
  Segment part 30. ROOT.
           ENTRY                   ADDRESS         REF BY
           =====                   =======         ======
           BCFGEDIT_PATH           0000A4D0        EditConfig(int, BOOK *, int) (gui)
    -------------------------------------------------------------------------
CONFIG_C
  Relative segment, address: CODE_AREA 0000A510 - 0000A53B (0x2c bytes), align: 2
  Segment part 31. ROOT.
    -------------------------------------------------------------------------
CONFIG_C
  Relative segment, address: CODE_AREA 0000A53C - 0000A567 (0x2c bytes), align: 2
  Segment part 32. ROOT.
    -------------------------------------------------------------------------
CONFIG_C
  Relative segment, address: CODE_AREA 0000A568 - 0000A593 (0x2c bytes), align: 2
  Segment part 33. ROOT.
    -------------------------------------------------------------------------
CONFIG_C
  Relative segment, address: CODE_AREA 0000A594 - 0000A597 (0x4 bytes), align: 2
  Segment part 34. ROOT.
           ENTRY                   ADDRESS         REF BY
           =====                   =======         ======
           SpeedLife               0000A594        onTimer_life(u16, LPARAM) (main)
    -------------------------------------------------------------------------
CONFIG_C
  Relative segment, address: CODE_AREA 0000A598 - 0000A5F7 (0x60 bytes), align: 2
  Segment part 35. ROOT.
    -------------------------------------------------------------------------
CONFIG_C
  Relative segment, address: CODE_AREA 0000A5F8 - 0000A623 (0x2c bytes), align: 2
  Segment part 36. ROOT.
    -------------------------------------------------------------------------
CONFIG_C
  Relative segment, address: CODE_AREA 0000A624 - 0000A627 (0x4 bytes), align: 2
  Segment part 37. ROOT.
           ENTRY                   ADDRESS         REF BY
           =====                   =======         ======
           PARENT_AGE              0000A624        Segment part 175 (main)
                                                   Segment part 232 (main)
    -------------------------------------------------------------------------
CONFIG_C
  Relative segment, address: CODE_AREA 0000A628 - 0000A653 (0x2c bytes), align: 2
  Segment part 38. ROOT.
    -------------------------------------------------------------------------
CONFIG_C
  Relative segment, address: CODE_AREA 0000A654 - 0000A657 (0x4 bytes), align: 2
  Segment part 39. ROOT.
           ENTRY                   ADDRESS         REF BY
           =====                   =======         ======
           MAX_PET_COUNT           0000A654        Segment part 178 (main)
                                                   Segment part 231 (main)
    -------------------------------------------------------------------------
CONFIG_C
  Relative segment, address: CODE_AREA 0000A658 - 0000A683 (0x2c bytes), align: 2
  Segment part 40. ROOT.
    -------------------------------------------------------------------------
CONFIG_C
  Relative segment, address: CODE_AREA 0000A684 - 0000A687 (0x4 bytes), align: 2
  Segment part 41. ROOT.
           ENTRY                   ADDRESS         REF BY
           =====                   =======         ======
           Motion_Ena              0000A684        onTimer_refresh(u16, LPARAM) (main)
    -------------------------------------------------------------------------
CONFIG_C
  Relative segment, address: CODE_AREA 0000A688 - 0000A6B3 (0x2c bytes), align: 2
  Segment part 42. ROOT.
    -------------------------------------------------------------------------
CONFIG_C
  Relative segment, address: CODE_AREA 0000A6B4 - 0000A6B7 (0x4 bytes), align: 2
  Segment part 43. ROOT.
           ENTRY                   ADDRESS         REF BY
           =====                   =======         ======
           Music_Ena               0000A6B4        life_proc(int, BOOK *, int) (main)
    -------------------------------------------------------------------------
CONFIG_C
  Relative segment, address: CODE_AREA 0000A6B8 - 0000A6E3 (0x2c bytes), align: 2
  Segment part 44. ROOT.
    -------------------------------------------------------------------------
CONFIG_C
  Relative segment, address: CODE_AREA 0000A6E4 - 0000A6E7 (0x4 bytes), align: 2
  Segment part 45. ROOT.
           ENTRY                   ADDRESS         REF BY
           =====                   =======         ======
           Malware_Ena             0000A6E4        life_proc(int, BOOK *, int) (main)
    -------------------------------------------------------------------------
CONFIG_C
  Relative segment, address: CODE_AREA 0000A6E8 - 0000A713 (0x2c bytes), align: 2
  Segment part 46. ROOT.
    -------------------------------------------------------------------------
CONFIG_C
  Relative segment, address: CODE_AREA 0000A714 - 0000A717 (0x4 bytes), align: 2
  Segment part 47. ROOT.
           ENTRY                   ADDRESS         REF BY
           =====                   =======         ======
           Scan_Game_Ena           0000A714        life_proc(int, BOOK *, int) (main)
    -------------------------------------------------------------------------
CONFIG_C
  Relative segment, address: CODE_AREA 0000A718 - 0000A743 (0x2c bytes), align: 2
  Segment part 48. ROOT.
    -------------------------------------------------------------------------
CONFIG_C
  Relative segment, address: CODE_AREA 0000A744 - 0000A76F (0x2c bytes), align: 2
  Segment part 49. ROOT.
    -------------------------------------------------------------------------
CONFIG_C
  Relative segment, address: CODE_AREA 0000A770 - 0000A773 (0x4 bytes), align: 2
  Segment part 50. ROOT.
           ENTRY                   ADDRESS         REF BY
           =====                   =======         ======
           Night_Ena               0000A770        Segment part 113 (main)
                                                   Segment part 195 (main)
    -------------------------------------------------------------------------
CONFIG_C
  Relative segment, address: CODE_AREA 0000A774 - 0000A79F (0x2c bytes), align: 2
  Segment part 51. ROOT.
    -------------------------------------------------------------------------
CONFIG_C
  Relative segment, address: CODE_AREA 0000A7A0 - 0000A7A3 (0x4 bytes), align: 2
  Segment part 52. ROOT.
           ENTRY                   ADDRESS         REF BY
           =====                   =======         ======
           Night_begin             0000A7A0        isNight() (main)
    -------------------------------------------------------------------------
CONFIG_C
  Relative segment, address: CODE_AREA 0000A7A4 - 0000A7CF (0x2c bytes), align: 2
  Segment part 53. ROOT.
    -------------------------------------------------------------------------
CONFIG_C
  Relative segment, address: CODE_AREA 0000A7D0 - 0000A7D3 (0x4 bytes), align: 2
  Segment part 54. ROOT.
           ENTRY                   ADDRESS         REF BY
           =====                   =======         ======
           Night_end               0000A7D0        isNight() (main)
    -------------------------------------------------------------------------
CONFIG_C
  Relative segment, address: CODE_AREA 0000A7D4 - 0000A7FF (0x2c bytes), align: 2
  Segment part 55. ROOT.
    -------------------------------------------------------------------------
CONFIG_C
  Relative segment, address: CODE_AREA 0000A800 - 0000A82B (0x2c bytes), align: 2
  Segment part 56. ROOT.
    -------------------------------------------------------------------------
CONFIG_C
  Relative segment, address: CODE_AREA 0000A82C - 0000A857 (0x2c bytes), align: 2
  Segment part 57. ROOT.
    -------------------------------------------------------------------------
CONFIG_C
  Relative segment, address: CODE_AREA 0000A858 - 0000A883 (0x2c bytes), align: 2
  Segment part 58. ROOT.
    -------------------------------------------------------------------------
CONFIG_C
  Relative segment, address: CODE_AREA 0000A884 - 0000A8AF (0x2c bytes), align: 2
  Segment part 59. ROOT.
    -------------------------------------------------------------------------
CONFIG_C
  Relative segment, address: CODE_AREA 0000A8B0 - 0000A8B3 (0x4 bytes), align: 2
  Segment part 60. ROOT.
           ENTRY                   ADDRESS         REF BY
           =====                   =======         ======
           msgShowTime             0000A8B0        Segment part 166 (main)
                                                   Segment part 199 (main)
                                                   Segment part 28 (gui)
                                                   Segment part 281 (main)
                                                   Segment part 39 (status)
    -------------------------------------------------------------------------
CONFIG_C
  Relative segment, address: CODE_AREA 0000A8B4 - 0000A913 (0x60 bytes), align: 2
  Segment part 61. ROOT.
    -------------------------------------------------------------------------
CONFIG_C
  Relative segment, address: CODE_AREA 0000A914 - 0000A93F (0x2c bytes), align: 2
  Segment part 62. ROOT.
    -------------------------------------------------------------------------
CONFIG_C
  Relative segment, address: CODE_AREA 0000A940 - 0000A96B (0x2c bytes), align: 2
  Segment part 63. ROOT.
    -------------------------------------------------------------------------
CONFIG_C
  Relative segment, address: CODE_AREA 0000A96C - 0000A997 (0x2c bytes), align: 2
  Segment part 64. ROOT.
    -------------------------------------------------------------------------
CONFIG_C
  Relative segment, address: CODE_AREA 0000A998 - 0000A99B (0x4 bytes), align: 2
  Segment part 65. ROOT.
           ENTRY                   ADDRESS         REF BY
           =====                   =======         ======
           sndEnable               0000A998        Menu_onEnter(BOOK *, GUI *) (gui)
                                                   Segment part 255 (main)
                                                   Segment part 271 (main)
    -------------------------------------------------------------------------
CONFIG_C
  Relative segment, address: CODE_AREA 0000A99C - 0000A9C7 (0x2c bytes), align: 2
  Segment part 66. ROOT.
    -------------------------------------------------------------------------
CONFIG_C
  Relative segment, address: CODE_AREA 0000A9C8 - 0000A9CB (0x4 bytes), align: 2
  Segment part 67. ROOT.
           ENTRY                   ADDRESS         REF BY
           =====                   =======         ======
           sndOnSilent             0000A9C8        Menu_onEnter(BOOK *, GUI *) (gui)
                                                   Segment part 254 (main)
                                                   Segment part 270 (main)
    -------------------------------------------------------------------------
CONFIG_C
  Relative segment, address: CODE_AREA 0000A9CC - 0000A9F7 (0x2c bytes), align: 2
  Segment part 68. ROOT.
    -------------------------------------------------------------------------
CONFIG_C
  Relative segment, address: CODE_AREA 0000A9F8 - 0000A9FB (0x4 bytes), align: 2
  Segment part 69. ROOT.
           ENTRY                   ADDRESS         REF BY
           =====                   =======         ======
           sndOnNight              0000A9F8 
    -------------------------------------------------------------------------
CONFIG_C
  Relative segment, address: CODE_AREA 0000A9FC - 0000AA27 (0x2c bytes), align: 2
  Segment part 70. ROOT.
    -------------------------------------------------------------------------
CONFIG_C
  Relative segment, address: CODE_AREA 0000AA28 - 0000AA2B (0x4 bytes), align: 2
  Segment part 71. ROOT.
           ENTRY                   ADDRESS         REF BY
           =====                   =======         ======
           sndVolume               0000AA28        Segment part 165 (main)
                                                   Segment part 198 (main)
                                                   Segment part 272 (main)
    -------------------------------------------------------------------------
CONFIG_C
  Relative segment, address: CODE_AREA 0000AA2C - 0000AA57 (0x2c bytes), align: 2
  Segment part 72. ROOT.
    -------------------------------------------------------------------------
CONFIG_C
  Relative segment, address: CODE_AREA 0000AA58 - 0000AA83 (0x2c bytes), align: 2
  Segment part 73. ROOT.
    -------------------------------------------------------------------------
CONFIG_C
  Relative segment, address: CODE_AREA 0000AA84 - 0000AAAF (0x2c bytes), align: 2
  Segment part 74. ROOT.
    -------------------------------------------------------------------------
CONFIG_C
  Relative segment, address: CODE_AREA 0000AAB0 - 0000AAB3 (0x4 bytes), align: 2
  Segment part 75. ROOT.
           ENTRY                   ADDRESS         REF BY
           =====                   =======         ======
           Is_Vibra_Enabled        0000AAB0        start_vibra() (main)
    -------------------------------------------------------------------------
CONFIG_C
  Relative segment, address: CODE_AREA 0000AAB4 - 0000AADF (0x2c bytes), align: 2
  Segment part 76. ROOT.
    -------------------------------------------------------------------------
CONFIG_C
  Relative segment, address: CODE_AREA 0000AAE0 - 0000AAE3 (0x4 bytes), align: 2
  Segment part 77. ROOT.
           ENTRY                   ADDRESS         REF BY
           =====                   =======         ======
           vibraTime               0000AAE0        start_vibra() (main)
    -------------------------------------------------------------------------
CONFIG_C
  Relative segment, address: CODE_AREA 0000AAE4 - 0000AB0F (0x2c bytes), align: 2
  Segment part 78. ROOT.
    -------------------------------------------------------------------------
CONFIG_C
  Relative segment, address: CODE_AREA 0000AB10 - 0000AB13 (0x4 bytes), align: 2
  Segment part 79. ROOT.
           ENTRY                   ADDRESS         REF BY
           =====                   =======         ======
           VIBR_TYPE               0000AB10        start_vibra() (main)
    -------------------------------------------------------------------------
CONFIG_C
  Relative segment, address: CODE_AREA 0000AB14 - 0000AB53 (0x40 bytes), align: 2
  Segment part 80. ROOT.
    -------------------------------------------------------------------------
CONFIG_C
  Relative segment, address: CODE_AREA 0000AB54 - 0000AB7F (0x2c bytes), align: 2
  Segment part 81. ROOT.
    -------------------------------------------------------------------------
CONFIG_C
  Relative segment, address: CODE_AREA 0000AB80 - 0000ABAB (0x2c bytes), align: 2
  Segment part 82. ROOT.
    -------------------------------------------------------------------------
CONFIG_C
  Relative segment, address: CODE_AREA 0000ABAC - 0000ABD7 (0x2c bytes), align: 2
  Segment part 83. ROOT.
    -------------------------------------------------------------------------
CONFIG_C
  Relative segment, address: CODE_AREA 0000ABD8 - 0000ABDB (0x4 bytes), align: 2
  Segment part 84. ROOT.
           ENTRY                   ADDRESS         REF BY
           =====                   =======         ======
           Is_Screen_Enabled       0000ABD8        Light() (main)
    -------------------------------------------------------------------------
CONFIG_C
  Relative segment, address: CODE_AREA 0000ABDC - 0000AC07 (0x2c bytes), align: 2
  Segment part 85. ROOT.
    -------------------------------------------------------------------------
CONFIG_C
  Relative segment, address: CODE_AREA 0000AC08 - 0000AC0B (0x4 bytes), align: 2
  Segment part 86. ROOT.
           ENTRY                   ADDRESS         REF BY
           =====                   =======         ======
           cfg_screen_time         0000AC08        Light() (main)
    -------------------------------------------------------------------------
CONFIG_C
  Relative segment, address: CODE_AREA 0000AC0C - 0000AC37 (0x2c bytes), align: 2
  Segment part 87. ROOT.
    -------------------------------------------------------------------------
CONFIG_C
  Relative segment, address: CODE_AREA 0000AC38 - 0000AC3B (0x4 bytes), align: 2
  Segment part 88. ROOT.
           ENTRY                   ADDRESS         REF BY
           =====                   =======         ======
           cfg_screen_blink_speed
                                   0000AC38        Segment part 125 (main)
    -------------------------------------------------------------------------
CONFIG_C
  Relative segment, address: CODE_AREA 0000AC3C - 0000AC67 (0x2c bytes), align: 2
  Segment part 89. ROOT.
    -------------------------------------------------------------------------
CONFIG_C
  Relative segment, address: CODE_AREA 0000AC68 - 0000AC6B (0x4 bytes), align: 2
  Segment part 90. ROOT.
           ENTRY                   ADDRESS         REF BY
           =====                   =======         ======
           cfg_screen_level        0000AC68        Segment part 122 (main)
    -------------------------------------------------------------------------
CONFIG_C
  Relative segment, address: CODE_AREA 0000AC6C - 0000AC97 (0x2c bytes), align: 2
  Segment part 91. ROOT.
    -------------------------------------------------------------------------
CONFIG_C
  Relative segment, address: CODE_AREA 0000AC98 - 0000ACC3 (0x2c bytes), align: 2
  Segment part 92. ROOT.
    -------------------------------------------------------------------------
CONFIG_C
  Relative segment, address: CODE_AREA 0000ACC4 - 0000ACEF (0x2c bytes), align: 2
  Segment part 93. ROOT.
    -------------------------------------------------------------------------
CONFIG_C
  Relative segment, address: CODE_AREA 0000ACF0 - 0000AD1B (0x2c bytes), align: 2
  Segment part 94. ROOT.
    -------------------------------------------------------------------------
CONFIG_C
  Relative segment, address: CODE_AREA 0000AD1C - 0000AD1F (0x4 bytes), align: 2
  Segment part 95. ROOT.
           ENTRY                   ADDRESS         REF BY
           =====                   =======         ======
           ACTIVE_KEY              0000AD1C        NewKey(int, int, int, LPARAM, DISP_OBJ *) (main)
    -------------------------------------------------------------------------
CONFIG_C
  Relative segment, address: CODE_AREA 0000AD20 - 0000AD23 (0x4 bytes), align: 2
  Segment part 96. ROOT.
           ENTRY                   ADDRESS         REF BY
           =====                   =======         ======
           ACTIVE_KEY_STYLE        0000AD20        NewKey(int, int, int, LPARAM, DISP_OBJ *) (main)
    -------------------------------------------------------------------------
CONFIG_C
  Relative segment, address: CODE_AREA 0000AD24 - 0000AD4F (0x2c bytes), align: 2
  Segment part 97. ROOT.

    *************************************************************************

  FILE NAME : Z:\home\perk11\www\perk11.info\svn\SE\Tamagochi\Release_EN\Obj\crypt.r79
  PROGRAM MODULE, NAME : crypt

  SEGMENTS IN THE MODULE
  ======================
DATA_Z
  Relative segment, address: CODE_AREA 00007A5C - 00007E5B (0x400 bytes), align: 2
  Segment part 2.             Intra module refs:   Segment part 9
           ENTRY                   ADDRESS         REF BY
           =====                   =======         ======
           mycrc_table             00007A5C 
    -------------------------------------------------------------------------
CODE
  Relative segment, address: CODE_AREA 00000BF8 - 00000C37 (0x40 bytes), align: 2
  Segment part 4.             Intra module refs:   encrypt(void *, void *, unsigned long, unsigned long)
                                                   myCrc32(unsigned char *, unsigned long)
           ENTRY                   ADDRESS         REF BY
           =====                   =======         ======
           make_mycrc_table(unsigned long)
                                   00000BF8 
    -------------------------------------------------------------------------
CODE
  Relative segment, address: CODE_AREA 00000C38 - 00000C8B (0x54 bytes), align: 2
  Segment part 6.
           ENTRY                   ADDRESS         REF BY
           =====                   =======         ======
           myCrc32(unsigned char *, unsigned long)
                                   00000C38        InitStatus(int, int, int) (main)
                                                   LoadStatus(int) (main)
                                                   SaveStatus(int) (main)
               stack 1 = 00000000 ( 00000010 )
    -------------------------------------------------------------------------
CODE
  Relative segment, address: CODE_AREA 00000C8C - 00000CEF (0x64 bytes), align: 2
  Segment part 8.             Intra module refs:   decrypt(void *, void *, unsigned long, unsigned long)
           ENTRY                   ADDRESS         REF BY
           =====                   =======         ======
           encrypt(void *, void *, unsigned long, unsigned long)
                                   00000C8C        SaveStatus(int) (main)
               stack 1 = 00000000 ( 00000010 )
    -------------------------------------------------------------------------
CODE
  Relative segment, address: CODE_AREA 00000CF0 - 00000CF3 (0x4 bytes), align: 2
  Segment part 9.             Intra module refs:   encrypt(void *, void *, unsigned long, unsigned long)
                                                   make_mycrc_table(unsigned long)
                                                   myCrc32(unsigned char *, unsigned long)
    -------------------------------------------------------------------------
CODE
  Relative segment, address: CODE_AREA 00000CF4 - 00000CF7 (0x4 bytes), align: 2
  Segment part 11.
           ENTRY                   ADDRESS         REF BY
           =====                   =======         ======
           decrypt(void *, void *, unsigned long, unsigned long)
                                   00000CF4        LoadStatus(int) (main)
               stack 1 = 00000000 ( 00000004 )
    -------------------------------------------------------------------------
INITTAB
  Relative segment, address: CODE_AREA 00007A50 - 00007A5B (0xc bytes), align: 2
  Segment part 12. ROOT.
           ENTRY                   ADDRESS         REF BY
           =====                   =======         ======
           ?init?tab?DATA_Z        00007A50 

    *************************************************************************

  FILE NAME : Z:\home\perk11\www\perk11.info\svn\SE\Tamagochi\Release_EN\Obj\func.r79
  PROGRAM MODULE, NAME : func

  SEGMENTS IN THE MODULE
  ======================
ELFBEGIN
  Relative segment, address: CODE_AREA 00000000, align: 0
  Segment part 0. ROOT.
           ENTRY                   ADDRESS         REF BY
           =====                   =======         ======
           ELF_BEGIN               00000000        elf_exit() (main)
    -------------------------------------------------------------------------
CODE
  Relative segment, address: CODE_AREA 00000CF8 - 00000D0F (0x18 bytes), align: 2
  Segment part 1. ROOT.
           ENTRY                   ADDRESS         REF BY
           =====                   =======         ======
           kill_data               00000CF8        elf_exit() (main)
           seqkill                 00000CFC 
           ASYNC                   00000D0C 
           SYNC                    00000D08        Segment part 114 (main)
                                                   Segment part 194 (main)
    -------------------------------------------------------------------------
DYN_CONST
  Relative segment, address: CODE_AREA 0000AD50 - 0000AD53 (0x4 bytes), align: 2
  Segment part 21.
           ENTRY                   ADDRESS         REF BY
           =====                   =======         ======
           ACTION_SELECT1          0000AD50        CreateMenuList(void *, BOOK *) (gui)
                                                   Segment part 57 (status)
    -------------------------------------------------------------------------
DYN_CONST
  Relative segment, address: CODE_AREA 0000AD54 - 0000AD57 (0x4 bytes), align: 2
  Segment part 45.
           ENTRY                   ADDRESS         REF BY
           =====                   =======         ======
           KBD_SHORT_RELEASE       0000AD54        Menu_OnKey(DISP_OBJ *, int, int, int, int) (gui)
                                                   Status_OnKey(DISP_OBJ *, int, int, int, int) (status)
    -------------------------------------------------------------------------
DYN_CONST
  Relative segment, address: CODE_AREA 0000AD58 - 0000AD5B (0x4 bytes), align: 2
  Segment part 66.
           ENTRY                   ADDRESS         REF BY
           =====                   =======         ======
           NIL_EVENT               0000AD58        CancelMenuList(BOOK *, GUI *) (gui)
                                                   CancelStatusList(BOOK *, GUI *) (status)
    -------------------------------------------------------------------------
DYN_CONST
  Relative segment, address: CODE_AREA 0000AD5C - 0000AD5F (0x4 bytes), align: 2
  Segment part 78.
           ENTRY                   ADDRESS         REF BY
           =====                   =======         ======
           ACCEPT_EVENT            0000AD5C        DestroyMenuList(BOOK *, GUI *) (gui)
                                                   DestroyStatusList(BOOK *, GUI *) (status)
    -------------------------------------------------------------------------
DYN_CONST
  Relative segment, address: CODE_AREA 0000AD60 - 0000AD63 (0x4 bytes), align: 2
  Segment part 214.
           ENTRY                   ADDRESS         REF BY
           =====                   =======         ======
           RETURN_TO_STANDBY_EVENT
                                   0000AD60        life_proc(int, BOOK *, int) (main)
    -------------------------------------------------------------------------
DYN_CONST
  Relative segment, address: CODE_AREA 0000AD64 - 0000AD67 (0x4 bytes), align: 2
  Segment part 216.
           ENTRY                   ADDRESS         REF BY
           =====                   =======         ======
           TERMINATE_SESSION_EVENT
                                   0000AD64        life_proc(int, BOOK *, int) (main)
    -------------------------------------------------------------------------
DYN_CONST
  Relative segment, address: CODE_AREA 0000AD68 - 0000AD6B (0x4 bytes), align: 2
  Segment part 327.
           ENTRY                   ADDRESS         REF BY
           =====                   =======         ======
           ACTION_BACK             0000AD68        CreateMenuList(void *, BOOK *) (gui)
                                                   Segment part 56 (status)
    -------------------------------------------------------------------------
DYN_CONST
  Relative segment, address: CODE_AREA 0000AD6C - 0000AD6F (0x4 bytes), align: 2
  Segment part 328.
           ENTRY                   ADDRESS         REF BY
           =====                   =======         ======
           ACTION_LONG_BACK        0000AD6C        CreateMenuList(void *, BOOK *) (gui)
                                                   CreateStatusList(void *, BOOK *) (status)
    -------------------------------------------------------------------------
DYN_CONST
  Relative segment, address: CODE_AREA 0000AD70 - 0000AD73 (0x4 bytes), align: 2
  Segment part 341.
           ENTRY                   ADDRESS         REF BY
           =====                   =======         ======
           KEY_DIGITAL_0           0000AD70        Menu_OnKey(DISP_OBJ *, int, int, int, int) (gui)
                                                   Status_OnKey(DISP_OBJ *, int, int, int, int) (status)
    -------------------------------------------------------------------------
DYN_CONST
  Relative segment, address: CODE_AREA 0000AD74 - 0000AD77 (0x4 bytes), align: 2
  Segment part 427.
           ENTRY                   ADDRESS         REF BY
           =====                   =======         ======
           UI_SCREENSAVER_DEACTIVATE_EVENT
                                   0000AD74        Light() (main)
    -------------------------------------------------------------------------
DYN_CONST
  Relative segment, address: CODE_AREA 0000AD78 - 0000AD7B (0x4 bytes), align: 2
  Segment part 527.
           ENTRY                   ADDRESS         REF BY
           =====                   =======         ======
           VAR_ARG_BOOK            0000AD78        ChangeName(int, BOOK *, int) (main)
    -------------------------------------------------------------------------
DYN_CONST
  Relative segment, address: CODE_AREA 0000AD7C - 0000AD7F (0x4 bytes), align: 2
  Segment part 528.
           ENTRY                   ADDRESS         REF BY
           =====                   =======         ======
           VAR_ARG_HTEXT           0000AD7C        ChangeName(int, BOOK *, int) (main)
    -------------------------------------------------------------------------
DYN_CONST
  Relative segment, address: CODE_AREA 0000AD80 - 0000AD83 (0x4 bytes), align: 2
  Segment part 529.
           ENTRY                   ADDRESS         REF BY
           =====                   =======         ======
           VAR_ARG_CALL_BACK_OK    0000AD80        ChangeName(int, BOOK *, int) (main)
    -------------------------------------------------------------------------
DYN_CONST
  Relative segment, address: CODE_AREA 0000AD84 - 0000AD87 (0x4 bytes), align: 2
  Segment part 530.
           ENTRY                   ADDRESS         REF BY
           =====                   =======         ======
           VAR_ARG_CALL_BACK_PREV_ACT
                                   0000AD84        ChangeName(int, BOOK *, int) (main)
    -------------------------------------------------------------------------
DYN_CONST
  Relative segment, address: CODE_AREA 0000AD88 - 0000AD8B (0x4 bytes), align: 2
  Segment part 532.
           ENTRY                   ADDRESS         REF BY
           =====                   =======         ======
           VAR_ARG_STRINP_MODE     0000AD88        ChangeName(int, BOOK *, int) (main)
    -------------------------------------------------------------------------
DYN_CONST
  Relative segment, address: CODE_AREA 0000AD8C - 0000AD8F (0x4 bytes), align: 2
  Segment part 534.
           ENTRY                   ADDRESS         REF BY
           =====                   =======         ======
           VAR_ARG_STRINP_TEXT     0000AD8C        ChangeName(int, BOOK *, int) (main)
    -------------------------------------------------------------------------
DYN_CONST
  Relative segment, address: CODE_AREA 0000AD90 - 0000AD93 (0x4 bytes), align: 2
  Segment part 537.
           ENTRY                   ADDRESS         REF BY
           =====                   =======         ======
           VAR_ARG_STRINP_MAX_LEN
                                   0000AD90        ChangeName(int, BOOK *, int) (main)
    -------------------------------------------------------------------------
DYN_CONST
  Relative segment, address: CODE_AREA 0000AD94 - 0000AD97 (0x4 bytes), align: 2
  Segment part 538.
           ENTRY                   ADDRESS         REF BY
           =====                   =======         ======
           VAR_ARG_STRINP_MIN_LEN
                                   0000AD94        ChangeName(int, BOOK *, int) (main)
    -------------------------------------------------------------------------
DYN_CONST
  Relative segment, address: CODE_AREA 0000AD98 - 0000AD9B (0x4 bytes), align: 2
  Segment part 539.
           ENTRY                   ADDRESS         REF BY
           =====                   =======         ======
           VAR_ARG_STRINP_IS_PASS_MODE
                                   0000AD98        ChangeName(int, BOOK *, int) (main)
    -------------------------------------------------------------------------
DYN_CONST_DESC
  Relative segment, address: CODE_AREA 0000AD9C - 0000AD9F (0x4 bytes), align: 2
  Segment part 681. ROOT.
    -------------------------------------------------------------------------
DYN_PAGE
  Relative segment, address: CODE_AREA 0000ADA0, align: 2
  Segment part 682.
    -------------------------------------------------------------------------
DYN_PAGE_DESC
  Relative segment, address: CODE_AREA 0000AE20 - 0000AE23 (0x4 bytes), align: 2
  Segment part 683. ROOT.

    *************************************************************************

  FILE NAME : Z:\home\perk11\www\perk11.info\svn\SE\Tamagochi\Release_EN\Obj\gui.r79
  PROGRAM MODULE, NAME : gui

  SEGMENTS IN THE MODULE
  ======================
CODE
  Relative segment, address: CODE_AREA 00000D10 - 00000E33 (0x124 bytes), align: 2
  Segment part 23.            Intra module refs:   Segment part 17
           ENTRY                   ADDRESS         REF BY
           =====                   =======         ======
           EditConfig(int, BOOK *, int)
                                   00000D10 
               stack 1 = 00000000 ( 000002AC )
    -------------------------------------------------------------------------
CODE
  Relative segment, address: CODE_AREA 00000E34 - 00000E8B (0x58 bytes), align: 2
  Segment part 27.            Intra module refs:   Segment part 17
    -------------------------------------------------------------------------
CODE
  Relative segment, address: CODE_AREA 00000E8C - 00000E8F (0x4 bytes), align: 2
  Segment part 28.            Intra module refs:   AboutDlg(int, BOOK *, int)
                                                   EditConfig(int, BOOK *, int)
    -------------------------------------------------------------------------
CODE
  Relative segment, address: CODE_AREA 00000E90 - 00000F43 (0xb4 bytes), align: 2
  Segment part 30.            Intra module refs:   Segment part 17
           ENTRY                   ADDRESS         REF BY
           =====                   =======         ======
           RoomCommand(int, BOOK *, int)
                                   00000E90 
               stack 1 = 00000000 ( 00000210 )
    -------------------------------------------------------------------------
DATA_C
  Relative segment, address: CODE_AREA 0000639C - 000063A7 (0xc bytes), align: 2
  Segment part 2.             Intra module refs:   Segment part 5
    -------------------------------------------------------------------------
DATA_C
  Relative segment, address: CODE_AREA 000063A8 - 000063BB (0x14 bytes), align: 2
  Segment part 3.             Intra module refs:   Segment part 5
    -------------------------------------------------------------------------
DATA_C
  Relative segment, address: CODE_AREA 000063BC - 000063D3 (0x18 bytes), align: 2
  Segment part 4.             Intra module refs:   Segment part 5
    -------------------------------------------------------------------------
DATA_C
  Relative segment, address: CODE_AREA 000063D4 - 0000643F (0x6c bytes), align: 2
  Segment part 5.             Intra module refs:   menu_list_callback(GUI_MESSAGE *)
    -------------------------------------------------------------------------
DATA_C
  Relative segment, address: CODE_AREA 00006440 - 0000644B (0xc bytes), align: 2
  Segment part 6.             Intra module refs:   Segment part 5
    -------------------------------------------------------------------------
DATA_C
  Relative segment, address: CODE_AREA 0000644C - 0000646B (0x20 bytes), align: 2
  Segment part 7.             Intra module refs:   RoomCommand(int, BOOK *, int)
                                                   Segment part 5
    -------------------------------------------------------------------------
DATA_C
  Relative segment, address: CODE_AREA 0000646C - 0000647B (0x10 bytes), align: 2
  Segment part 8.             Intra module refs:   Segment part 5
    -------------------------------------------------------------------------
DATA_C
  Relative segment, address: CODE_AREA 0000647C - 00006493 (0x18 bytes), align: 2
  Segment part 9.             Intra module refs:   Segment part 5
    -------------------------------------------------------------------------
DATA_C
  Relative segment, address: CODE_AREA 00006494 - 000064A3 (0x10 bytes), align: 2
  Segment part 10.            Intra module refs:   Segment part 5
    -------------------------------------------------------------------------
DATA_C
  Relative segment, address: CODE_AREA 000064A4 - 000064AF (0xc bytes), align: 2
  Segment part 11.            Intra module refs:   Segment part 5
    -------------------------------------------------------------------------
DATA_C
  Relative segment, address: CODE_AREA 000064B0 - 000064CF (0x20 bytes), align: 2
  Segment part 12.            Intra module refs:   Segment part 21
    -------------------------------------------------------------------------
DATA_C
  Relative segment, address: CODE_AREA 000064D0 - 000064E7 (0x18 bytes), align: 2
  Segment part 13.            Intra module refs:   EditConfig(int, BOOK *, int)
    -------------------------------------------------------------------------
DATA_C
  Relative segment, address: CODE_AREA 000064E8 - 00006573 (0x8c bytes), align: 2
  Segment part 15.            Intra module refs:   AboutDlg(int, BOOK *, int)
    -------------------------------------------------------------------------
DATA_I
  Relative segment, address: DATA_AREA 00000008 - 00000037 (0x30 bytes), align: 2
  Segment part 16.            Intra module refs:   Menu_onEnter(BOOK *, GUI *)
                                                   Segment part 50
           ENTRY                   ADDRESS         REF BY
           =====                   =======         ======
           ActivePOS               0000000C 
           ActiveTAB               00000008 
    -------------------------------------------------------------------------
CODE
  Relative segment, address: CODE_AREA 00000F44 - 0000100F (0xcc bytes), align: 2
  Segment part 32.            Intra module refs:   CreateMenuList(void *, BOOK *)
           ENTRY                   ADDRESS         REF BY
           =====                   =======         ======
           menu_list_callback(GUI_MESSAGE *)
                                   00000F44 
               stack 1 = 00000000 ( 0000001C )
    -------------------------------------------------------------------------
CODE
  Relative segment, address: CODE_AREA 00001010 - 00001027 (0x18 bytes), align: 2
  Segment part 34.            Intra module refs:   CreateMenuList(void *, BOOK *)
           ENTRY                   ADDRESS         REF BY
           =====                   =======         ======
           DestroyMenuList(BOOK *, GUI *)
                                   00001010 
               stack 1 = 00000000 ( 00000004 )
    -------------------------------------------------------------------------
CODE
  Relative segment, address: CODE_AREA 00001028 - 00001057 (0x30 bytes), align: 2
  Segment part 36.            Intra module refs:   CreateMenuList(void *, BOOK *)
           ENTRY                   ADDRESS         REF BY
           =====                   =======         ======
           CancelMenuList(BOOK *, GUI *)
                                   00001028 
               stack 1 = 00000000 ( 0000000C )
    -------------------------------------------------------------------------
CODE
  Relative segment, address: CODE_AREA 00001058 - 000010DB (0x84 bytes), align: 2
  Segment part 38.            Intra module refs:   CreateMenuList(void *, BOOK *)
                                                   Menu_OnKey(DISP_OBJ *, int, int, int, int)
           ENTRY                   ADDRESS         REF BY
           =====                   =======         ======
           Menu_onEnter(BOOK *, GUI *)
                                   00001058 
               stack 1 = 00000000 ( 00000014 )
    -------------------------------------------------------------------------
CODE
  Relative segment, address: CODE_AREA 000010DC - 000011BF (0xe4 bytes), align: 2
  Segment part 40.            Intra module refs:   CreateMenuList(void *, BOOK *)
           ENTRY                   ADDRESS         REF BY
           =====                   =======         ======
           Menu_OnKey(DISP_OBJ *, int, int, int, int)
                                   000010DC 
               stack 1 = 00000000 ( 00000024 )
    -------------------------------------------------------------------------
CODE
  Relative segment, address: CODE_AREA 000011C0 - 000011C3 (0x4 bytes), align: 2
  Segment part 41.            Intra module refs:   Menu_OnKey(DISP_OBJ *, int, int, int, int)
                                                   menu_list_callback(GUI_MESSAGE *)
    -------------------------------------------------------------------------
CODE
  Relative segment, address: CODE_AREA 000011C4 - 000011CF (0xc bytes), align: 2
  Segment part 43.            Intra module refs:   CreateMenuList(void *, BOOK *)
           ENTRY                   ADDRESS         REF BY
           =====                   =======         ======
           onTabSwitch(BOOK *, int)
                                   000011C4 
    -------------------------------------------------------------------------
CODE
  Relative segment, address: CODE_AREA 000011D0 - 000013D7 (0x208 bytes), align: 2
  Segment part 45.            Intra module refs:   Segment part 19
           ENTRY                   ADDRESS         REF BY
           =====                   =======         ======
           CreateMenuList(void *, BOOK *)
                                   000011D0 
               stack 1 = 00000000 ( 0000001C )
    -------------------------------------------------------------------------
CODE
  Relative segment, address: CODE_AREA 000013D8 - 000013DB (0x4 bytes), align: 2
  Segment part 46.            Intra module refs:   CreateMenuList(void *, BOOK *)
                                                   menu_list_callback(GUI_MESSAGE *)
    -------------------------------------------------------------------------
CODE
  Relative segment, address: CODE_AREA 000013DC - 000013DF (0x4 bytes), align: 2
  Segment part 47.            Intra module refs:   CreateMenuList(void *, BOOK *)
                                                   menu_list_callback(GUI_MESSAGE *)
    -------------------------------------------------------------------------
CODE
  Relative segment, address: CODE_AREA 000013E0 - 0000145F (0x80 bytes), align: 2
  Segment part 49.            Intra module refs:   CloseMenu(BOOK *)
                                                   Segment part 19
           ENTRY                   ADDRESS         REF BY
           =====                   =======         ======
           ExitMenuList(void *, BOOK *)
                                   000013E0 
               stack 1 = 00000000 ( 00000014 )
    -------------------------------------------------------------------------
CODE
  Relative segment, address: CODE_AREA 00001460 - 00001463 (0x4 bytes), align: 2
  Segment part 50.            Intra module refs:   CreateMenuList(void *, BOOK *)
                                                   ExitMenuList(void *, BOOK *)
                                                   onTabSwitch(BOOK *, int)
    -------------------------------------------------------------------------
DYN_PAGE
  Relative segment, address: CODE_AREA 0000ADA0 - 0000ADBF (0x20 bytes), align: 2
  Segment part 19.            Intra module refs:   Segment part 21
    -------------------------------------------------------------------------
DATA_I
  Relative segment, address: DATA_AREA 00000038 - 00000043 (0xc bytes), align: 2
  Segment part 20.            Intra module refs:   ShowMenu(BOOK *)
           ENTRY                   ADDRESS         REF BY
           =====                   =======         ======
           CreateMenu_page         00000038 
    -------------------------------------------------------------------------
CODE
  Relative segment, address: CODE_AREA 00001464 - 00001477 (0x14 bytes), align: 2
  Segment part 52.
           ENTRY                   ADDRESS         REF BY
           =====                   =======         ======
           ShowMenu(BOOK *)        00001464        NewKey(int, int, int, LPARAM, DISP_OBJ *) (main)
               stack 1 = 00000000 ( 00000004 )
    -------------------------------------------------------------------------
CODE
  Relative segment, address: CODE_AREA 00001478 - 00001483 (0xc bytes), align: 2
  Segment part 54.
           ENTRY                   ADDRESS         REF BY
           =====                   =======         ======
           CloseMenu(BOOK *)       00001478        NewKey(int, int, int, LPARAM, DISP_OBJ *) (main)
               stack 1 = 00000000 ( 00000004 )
    -------------------------------------------------------------------------
DATA_ID
  Relative segment, address: CODE_AREA 00000008 - 00000037 (0x30 bytes), align: 2
  Segment part 17.            Intra module refs:   Segment part 16
    -------------------------------------------------------------------------
DATA_ID
  Relative segment, address: CODE_AREA 00000038 - 00000043 (0xc bytes), align: 2
  Segment part 21.            Intra module refs:   CreateMenu_page

    *************************************************************************

  FILE NAME : Z:\home\perk11\www\perk11.info\svn\SE\Tamagochi\Release_EN\Obj\main.r79
  PROGRAM MODULE, NAME : main

  SEGMENTS IN THE MODULE
  ======================
CODE
  Relative segment, address: CODE_AREA 00001484 - 0000148B (0x8 bytes), align: 2
  Segment part 87.            Intra module refs:   Light()
                                                   MainPageOnCreate(void *, BOOK *)
                                                   TerminateElf(void *, BOOK *)
                                                   main
                                                   onCloseTamagochiBook(BOOK *)
                                                   onTimerScreen(u16, LPARAM)
                                                   onTimer_refresh(u16, LPARAM)
                                                   onTimer_save(u16, LPARAM)
           ENTRY                   ADDRESS         REF BY
           =====                   =======         ======
           LPARAM::LPARAM(int)     00001484 
    -------------------------------------------------------------------------
CODE
  Relative segment, address: CODE_AREA 0000148C - 00001493 (0x8 bytes), align: 2
  Segment part 88.            Intra module refs:   MainPageOnCreate(void *, BOOK *)
           ENTRY                   ADDRESS         REF BY
           =====                   =======         ======
           LPARAM::LPARAM(void *)
                                   0000148C 
    -------------------------------------------------------------------------
CODE
  Relative segment, address: CODE_AREA 00001494 - 0000149B (0x8 bytes), align: 2
  Segment part 89.            Intra module refs:   onTimer_life(u16, LPARAM)
           ENTRY                   ADDRESS         REF BY
           =====                   =======         ======
           LPARAM::operator void *()
                                   00001494 
    -------------------------------------------------------------------------
DATA_Z
  Relative segment, address: CODE_AREA 0000A060 - 0000A060 (0x1 bytes), align: 0
  Segment part 78.            Intra module refs:   Random()
                                                   Randomize()
           ENTRY                   ADDRESS         REF BY
           =====                   =======         ======
           rndindex                0000A060 
    -------------------------------------------------------------------------
CODE
  Relative segment, address: CODE_AREA 0000149C - 000014C7 (0x2c bytes), align: 2
  Segment part 91.            Intra module refs:   onTimer_save(u16, LPARAM)
           ENTRY                   ADDRESS         REF BY
           =====                   =======         ======
           Randomize()             0000149C 
               stack 1 = 00000000 ( 0000000C )
    -------------------------------------------------------------------------
DATA_C
  Relative segment, address: CODE_AREA 00006574 - 00006597 (0x24 bytes), align: 2
  Segment part 2.             Intra module refs:   Segment part 5
    -------------------------------------------------------------------------
DATA_C
  Relative segment, address: CODE_AREA 00006598 - 000065AF (0x18 bytes), align: 2
  Segment part 3.             Intra module refs:   Segment part 110
                                                   Segment part 265
    -------------------------------------------------------------------------
DATA_C
  Relative segment, address: CODE_AREA 000065B0 - 000065C3 (0x14 bytes), align: 2
  Segment part 4.             Intra module refs:   FindName()
    -------------------------------------------------------------------------
DATA_C
  Relative segment, address: CODE_AREA 000065C4 - 00006CE3 (0x720 bytes), align: 2
  Segment part 5.             Intra module refs:   Segment part 164
                                                   Segment part 279
                                                   life_proc(int, BOOK *, int)
                                                   onCloseTamagochiBook(BOOK *)
    -------------------------------------------------------------------------
DATA_C
  Relative segment, address: CODE_AREA 00006CE4 - 00006D2F (0x4c bytes), align: 2
  Segment part 6.             Intra module refs:   OnOkChangeName(BOOK *, wchar_t *, int)
    -------------------------------------------------------------------------
DATA_C
  Relative segment, address: CODE_AREA 00006D30 - 00006D43 (0x14 bytes), align: 2
  Segment part 7.             Intra module refs:   Segment part 79
    -------------------------------------------------------------------------
DATA_C
  Relative segment, address: CODE_AREA 00006D44 - 00006D57 (0x14 bytes), align: 2
  Segment part 8.             Intra module refs:   InitStatus(int, int, int)
    -------------------------------------------------------------------------
DATA_C
  Relative segment, address: CODE_AREA 00006D58 - 00006DC3 (0x6c bytes), align: 2
  Segment part 9.             Intra module refs:   Segment part 228
    -------------------------------------------------------------------------
DATA_C
  Relative segment, address: CODE_AREA 00006DC4 - 00006DEB (0x28 bytes), align: 2
  Segment part 10.            Intra module refs:   MainPageOnCreate(void *, BOOK *)
    -------------------------------------------------------------------------
DATA_C
  Relative segment, address: CODE_AREA 00006DEC - 00006E77 (0x8c bytes), align: 2
  Segment part 11.            Intra module refs:   ShowAuthorInfo(void *, BOOK *)
    -------------------------------------------------------------------------
DATA_C
  Relative segment, address: CODE_AREA 00006E78 - 00006EAF (0x38 bytes), align: 2
  Segment part 12.            Intra module refs:   onReconfigElf(void *, BOOK *)
    -------------------------------------------------------------------------
DATA_C
  Relative segment, address: CODE_AREA 00006EB0 - 00006ED3 (0x24 bytes), align: 2
  Segment part 13.            Intra module refs:   Segment part 5
    -------------------------------------------------------------------------
DATA_C
  Relative segment, address: CODE_AREA 00006ED4 - 00006EE7 (0x14 bytes), align: 2
  Segment part 14.            Intra module refs:   Segment part 5
    -------------------------------------------------------------------------
DATA_C
  Relative segment, address: CODE_AREA 00006EE8 - 00006EF7 (0x10 bytes), align: 2
  Segment part 15.            Intra module refs:   Segment part 5
    -------------------------------------------------------------------------
DATA_C
  Relative segment, address: CODE_AREA 00006EF8 - 00006F0B (0x14 bytes), align: 2
  Segment part 16.            Intra module refs:   Segment part 5
    -------------------------------------------------------------------------
DATA_C
  Relative segment, address: CODE_AREA 00006F0C - 00006F2B (0x20 bytes), align: 2
  Segment part 17.            Intra module refs:   Segment part 5
    -------------------------------------------------------------------------
DATA_C
  Relative segment, address: CODE_AREA 00006F2C - 00006F53 (0x28 bytes), align: 2
  Segment part 18.            Intra module refs:   Segment part 5
    -------------------------------------------------------------------------
DATA_C
  Relative segment, address: CODE_AREA 00006F54 - 00006F8F (0x3c bytes), align: 2
  Segment part 19.            Intra module refs:   Segment part 5
    -------------------------------------------------------------------------
DATA_C
  Relative segment, address: CODE_AREA 00006F90 - 00006FE7 (0x58 bytes), align: 2
  Segment part 20.            Intra module refs:   Segment part 5
    -------------------------------------------------------------------------
DATA_C
  Relative segment, address: CODE_AREA 00006FE8 - 0000701B (0x34 bytes), align: 2
  Segment part 21.            Intra module refs:   Segment part 5
    -------------------------------------------------------------------------
DATA_C
  Relative segment, address: CODE_AREA 0000701C - 00007053 (0x38 bytes), align: 2
  Segment part 22.            Intra module refs:   Segment part 5
    -------------------------------------------------------------------------
DATA_C
  Relative segment, address: CODE_AREA 00007054 - 00007077 (0x24 bytes), align: 2
  Segment part 23.            Intra module refs:   Segment part 5
    -------------------------------------------------------------------------
DATA_C
  Relative segment, address: CODE_AREA 00007078 - 000070A3 (0x2c bytes), align: 2
  Segment part 24.            Intra module refs:   Segment part 5
    -------------------------------------------------------------------------
DATA_C
  Relative segment, address: CODE_AREA 000070A4 - 000070D3 (0x30 bytes), align: 2
  Segment part 25.            Intra module refs:   Segment part 5
    -------------------------------------------------------------------------
DATA_C
  Relative segment, address: CODE_AREA 000070D4 - 000070FF (0x2c bytes), align: 2
  Segment part 26.            Intra module refs:   Segment part 5
    -------------------------------------------------------------------------
DATA_C
  Relative segment, address: CODE_AREA 00007100 - 0000712B (0x2c bytes), align: 2
  Segment part 27.            Intra module refs:   Segment part 5
    -------------------------------------------------------------------------
DATA_C
  Relative segment, address: CODE_AREA 0000712C - 00007167 (0x3c bytes), align: 2
  Segment part 28.            Intra module refs:   Segment part 5
    -------------------------------------------------------------------------
DATA_C
  Relative segment, address: CODE_AREA 00007168 - 000071A3 (0x3c bytes), align: 2
  Segment part 29.            Intra module refs:   Segment part 5
    -------------------------------------------------------------------------
DATA_C
  Relative segment, address: CODE_AREA 000071A4 - 000071D7 (0x34 bytes), align: 2
  Segment part 30.            Intra module refs:   Segment part 5
    -------------------------------------------------------------------------
DATA_C
  Relative segment, address: CODE_AREA 000071D8 - 000071EB (0x14 bytes), align: 2
  Segment part 31.            Intra module refs:   Segment part 5
    -------------------------------------------------------------------------
DATA_C
  Relative segment, address: CODE_AREA 000071EC - 000071FF (0x14 bytes), align: 2
  Segment part 32.            Intra module refs:   Segment part 5
    -------------------------------------------------------------------------
DATA_C
  Relative segment, address: CODE_AREA 00007200 - 0000721F (0x20 bytes), align: 2
  Segment part 33.            Intra module refs:   Segment part 5
    -------------------------------------------------------------------------
DATA_C
  Relative segment, address: CODE_AREA 00007220 - 00007243 (0x24 bytes), align: 2
  Segment part 34.            Intra module refs:   Segment part 5
    -------------------------------------------------------------------------
DATA_C
  Relative segment, address: CODE_AREA 00007244 - 00007263 (0x20 bytes), align: 2
  Segment part 35.            Intra module refs:   Segment part 5
    -------------------------------------------------------------------------
DATA_C
  Relative segment, address: CODE_AREA 00007264 - 00007277 (0x14 bytes), align: 2
  Segment part 36.            Intra module refs:   Segment part 79
    -------------------------------------------------------------------------
DATA_C
  Relative segment, address: CODE_AREA 00007278 - 0000728F (0x18 bytes), align: 2
  Segment part 37.            Intra module refs:   ChangeName(int, BOOK *, int)
    -------------------------------------------------------------------------
DATA_C
  Relative segment, address: CODE_AREA 00007290 - 000072A3 (0x14 bytes), align: 2
  Segment part 38.            Intra module refs:   Segment part 79
    -------------------------------------------------------------------------
DATA_C
  Relative segment, address: CODE_AREA 000072A4 - 000072BB (0x18 bytes), align: 2
  Segment part 39.            Intra module refs:   Segment part 79
    -------------------------------------------------------------------------
DATA_C
  Relative segment, address: CODE_AREA 000072BC - 000072D3 (0x18 bytes), align: 2
  Segment part 40.            Intra module refs:   Segment part 79
    -------------------------------------------------------------------------
DATA_C
  Relative segment, address: CODE_AREA 000072D4 - 000072EF (0x1c bytes), align: 2
  Segment part 41.            Intra module refs:   Segment part 79
    -------------------------------------------------------------------------
DATA_C
  Relative segment, address: CODE_AREA 000072F0 - 0000730B (0x1c bytes), align: 2
  Segment part 42.            Intra module refs:   Segment part 79
    -------------------------------------------------------------------------
DATA_C
  Relative segment, address: CODE_AREA 0000730C - 00007323 (0x18 bytes), align: 2
  Segment part 43.            Intra module refs:   Segment part 79
    -------------------------------------------------------------------------
DATA_C
  Relative segment, address: CODE_AREA 00007324 - 0000733F (0x1c bytes), align: 2
  Segment part 44.            Intra module refs:   Segment part 79
    -------------------------------------------------------------------------
DATA_C
  Relative segment, address: CODE_AREA 00007340 - 00007357 (0x18 bytes), align: 2
  Segment part 45.            Intra module refs:   Segment part 79
    -------------------------------------------------------------------------
DATA_C
  Relative segment, address: CODE_AREA 00007358 - 0000736F (0x18 bytes), align: 2
  Segment part 46.            Intra module refs:   Segment part 79
    -------------------------------------------------------------------------
DATA_C
  Relative segment, address: CODE_AREA 00007370 - 00007383 (0x14 bytes), align: 2
  Segment part 47.            Intra module refs:   Segment part 79
    -------------------------------------------------------------------------
DATA_C
  Relative segment, address: CODE_AREA 00007384 - 00007397 (0x14 bytes), align: 2
  Segment part 48.            Intra module refs:   Segment part 79
    -------------------------------------------------------------------------
DATA_C
  Relative segment, address: CODE_AREA 00007398 - 000073AB (0x14 bytes), align: 2
  Segment part 49.            Intra module refs:   Segment part 79
    -------------------------------------------------------------------------
DATA_C
  Relative segment, address: CODE_AREA 000073AC - 000073BF (0x14 bytes), align: 2
  Segment part 50.            Intra module refs:   Segment part 79
    -------------------------------------------------------------------------
DATA_C
  Relative segment, address: CODE_AREA 000073C0 - 000073D3 (0x14 bytes), align: 2
  Segment part 51.            Intra module refs:   Segment part 79
    -------------------------------------------------------------------------
DATA_C
  Relative segment, address: CODE_AREA 000073D4 - 000073EF (0x1c bytes), align: 2
  Segment part 52.            Intra module refs:   Segment part 79
    -------------------------------------------------------------------------
DATA_C
  Relative segment, address: CODE_AREA 000073F0 - 0000740F (0x20 bytes), align: 2
  Segment part 53.            Intra module refs:   Segment part 79
    -------------------------------------------------------------------------
DATA_C
  Relative segment, address: CODE_AREA 00007410 - 00007423 (0x14 bytes), align: 2
  Segment part 54.            Intra module refs:   Segment part 79
    -------------------------------------------------------------------------
DATA_C
  Relative segment, address: CODE_AREA 00007424 - 0000743B (0x18 bytes), align: 2
  Segment part 55.            Intra module refs:   Segment part 79
    -------------------------------------------------------------------------
DATA_C
  Relative segment, address: CODE_AREA 0000743C - 00007457 (0x1c bytes), align: 2
  Segment part 56.            Intra module refs:   Segment part 79
    -------------------------------------------------------------------------
DATA_C
  Relative segment, address: CODE_AREA 00007458 - 00007473 (0x1c bytes), align: 2
  Segment part 57.            Intra module refs:   Segment part 79
    -------------------------------------------------------------------------
DATA_C
  Relative segment, address: CODE_AREA 00007474 - 00007487 (0x14 bytes), align: 2
  Segment part 58.            Intra module refs:   Segment part 79
    -------------------------------------------------------------------------
DATA_C
  Relative segment, address: CODE_AREA 00007488 - 0000749B (0x14 bytes), align: 2
  Segment part 59.            Intra module refs:   Segment part 79
    -------------------------------------------------------------------------
DATA_C
  Relative segment, address: CODE_AREA 0000749C - 000074B7 (0x1c bytes), align: 2
  Segment part 60.            Intra module refs:   Segment part 79
    -------------------------------------------------------------------------
DATA_C
  Relative segment, address: CODE_AREA 000074B8 - 000074DB (0x24 bytes), align: 2
  Segment part 61.            Intra module refs:   Segment part 79
    -------------------------------------------------------------------------
DATA_C
  Relative segment, address: CODE_AREA 000074DC - 000074FF (0x24 bytes), align: 2
  Segment part 62.            Intra module refs:   Segment part 79
    -------------------------------------------------------------------------
DATA_C
  Relative segment, address: CODE_AREA 00007500 - 0000751F (0x20 bytes), align: 2
  Segment part 63.            Intra module refs:   Segment part 79
    -------------------------------------------------------------------------
DATA_C
  Relative segment, address: CODE_AREA 00007520 - 00007543 (0x24 bytes), align: 2
  Segment part 64.            Intra module refs:   Segment part 79
    -------------------------------------------------------------------------
DATA_C
  Relative segment, address: CODE_AREA 00007544 - 0000755F (0x1c bytes), align: 2
  Segment part 65.            Intra module refs:   Segment part 79
    -------------------------------------------------------------------------
DATA_C
  Relative segment, address: CODE_AREA 00007560 - 00007577 (0x18 bytes), align: 2
  Segment part 66.            Intra module refs:   Segment part 79
    -------------------------------------------------------------------------
DATA_C
  Relative segment, address: CODE_AREA 00007578 - 0000758F (0x18 bytes), align: 2
  Segment part 67.            Intra module refs:   Segment part 79
    -------------------------------------------------------------------------
DATA_C
  Relative segment, address: CODE_AREA 00007590 - 000075AB (0x1c bytes), align: 2
  Segment part 68.            Intra module refs:   Segment part 79
    -------------------------------------------------------------------------
DATA_C
  Relative segment, address: CODE_AREA 000075AC - 000075C7 (0x1c bytes), align: 2
  Segment part 69.            Intra module refs:   Segment part 79
    -------------------------------------------------------------------------
DATA_C
  Relative segment, address: CODE_AREA 000075C8 - 000075E3 (0x1c bytes), align: 2
  Segment part 70.            Intra module refs:   Segment part 79
    -------------------------------------------------------------------------
DATA_C
  Relative segment, address: CODE_AREA 000075E4 - 000075F7 (0x14 bytes), align: 2
  Segment part 71.            Intra module refs:   Segment part 79
    -------------------------------------------------------------------------
DATA_C
  Relative segment, address: CODE_AREA 000075F8 - 0000760B (0x14 bytes), align: 2
  Segment part 72.            Intra module refs:   Segment part 81
    -------------------------------------------------------------------------
DATA_C
  Relative segment, address: CODE_AREA 0000760C - 0000761F (0x14 bytes), align: 2
  Segment part 73.            Intra module refs:   Segment part 81
    -------------------------------------------------------------------------
DATA_C
  Relative segment, address: CODE_AREA 00007620 - 00007633 (0x14 bytes), align: 2
  Segment part 74.            Intra module refs:   isBookmanDaemonBook(BOOK *)
    -------------------------------------------------------------------------
DATA_C
  Relative segment, address: CODE_AREA 00007634 - 00007657 (0x24 bytes), align: 2
  Segment part 75.            Intra module refs:   GetJavaName(BOOK *)
    -------------------------------------------------------------------------
DATA_C
  Relative segment, address: CODE_AREA 00007658 - 00007757 (0x100 bytes), align: 2
  Segment part 77.            Intra module refs:   Random()
    -------------------------------------------------------------------------
DATA_C
  Relative segment, address: CODE_AREA 00007758 - 000077EF (0x98 bytes), align: 2
  Segment part 79.            Intra module refs:   load_icons()
    -------------------------------------------------------------------------
DATA_Z
  Relative segment, address: CODE_AREA 00007E5C - 0000A05B (0x2200 bytes), align: 2
  Segment part 84.            Intra module refs:   Segment part 150
                                                   Segment part 187
                                                   Segment part 202
                                                   Segment part 256
                                                   Segment part 273
                                                   life_proc(int, BOOK *, int)
           ENTRY                   ADDRESS         REF BY
           =====                   =======         ======
           Pets                    00007E5C        Segment part 46 (gui)
                                                   Segment part 55 (status)
    -------------------------------------------------------------------------
CODE
  Relative segment, address: CODE_AREA 000014C8 - 000014F3 (0x2c bytes), align: 2
  Segment part 93.            Intra module refs:   life_proc(int, BOOK *, int)
           ENTRY                   ADDRESS         REF BY
           =====                   =======         ======
           isBookmanDaemonBook(BOOK *)
                                   000014C8 
               stack 1 = 00000000 ( 00000004 )
    -------------------------------------------------------------------------
CODE
  Relative segment, address: CODE_AREA 000014F4 - 0000153B (0x48 bytes), align: 2
  Segment part 95.            Intra module refs:   life_proc(int, BOOK *, int)
                                                   main
           ENTRY                   ADDRESS         REF BY
           =====                   =======         ======
           CheckEv(BOOK *, int)    000014F4 
    -------------------------------------------------------------------------
CODE
  Relative segment, address: CODE_AREA 0000153C - 000015A3 (0x68 bytes), align: 2
  Segment part 97.            Intra module refs:   FindName()
                                                   life_proc(int, BOOK *, int)
           ENTRY                   ADDRESS         REF BY
           =====                   =======         ======
           GetJavaName(BOOK *)     0000153C 
               stack 1 = 00000000 ( 000000D0 )
    -------------------------------------------------------------------------
CODE
  Relative segment, address: CODE_AREA 000015A4 - 000015A7 (0x4 bytes), align: 2
  Segment part 101.           Intra module refs:   load_strings()
                                                   onCloseTamagochiBook(BOOK *)
           ENTRY                   ADDRESS         REF BY
           =====                   =======         ======
           free_strings()          000015A4 
    -------------------------------------------------------------------------
CODE
  Relative segment, address: CODE_AREA 000015A8 - 000015AB (0x4 bytes), align: 2
  Segment part 103.           Intra module refs:   MainPageOnCreate(void *, BOOK *)
                                                   onReconfigElf(void *, BOOK *)
           ENTRY                   ADDRESS         REF BY
           =====                   =======         ======
           load_strings()          000015A8 
               stack 1 = 00000000 ( 00000004 )
    -------------------------------------------------------------------------
CODE
  Relative segment, address: CODE_AREA 000015AC - 00001637 (0x8c bytes), align: 2
  Segment part 105.           Intra module refs:   load_icons()
                                                   onCloseTamagochiBook(BOOK *)
           ENTRY                   ADDRESS         REF BY
           =====                   =======         ======
           free_icons()            000015AC 
               stack 1 = 00000000 ( 00000014 )
    -------------------------------------------------------------------------
CODE
  Relative segment, address: CODE_AREA 00001638 - 00001767 (0x130 bytes), align: 2
  Segment part 107.           Intra module refs:   MainPageOnCreate(void *, BOOK *)
                                                   onReconfigElf(void *, BOOK *)
           ENTRY                   ADDRESS         REF BY
           =====                   =======         ======
           load_icons()            00001638 
               stack 1 = 00000000 ( 00000138 )
    -------------------------------------------------------------------------
CODE
  Relative segment, address: CODE_AREA 00001768 - 000017CB (0x64 bytes), align: 2
  Segment part 109.           Intra module refs:   MainPageOnCreate(void *, BOOK *)
                                                   life_proc(int, BOOK *, int)
    -------------------------------------------------------------------------
CODE
  Relative segment, address: CODE_AREA 000017CC - 000017CF (0x4 bytes), align: 2
  Segment part 110.           Intra module refs:   UpdateName()
    -------------------------------------------------------------------------
CODE
  Relative segment, address: CODE_AREA 000017D0 - 0000184B (0x7c bytes), align: 2
  Segment part 112.           Intra module refs:   MainPageOnCreate(void *, BOOK *)
                                                   life_proc(int, BOOK *, int)
                                                   onTimer_life(u16, LPARAM)
           ENTRY                   ADDRESS         REF BY
           =====                   =======         ======
           isNight()               000017D0 
               stack 1 = 00000000 ( 0000000C )
    -------------------------------------------------------------------------
CODE
  Relative segment, address: CODE_AREA 0000184C - 0000184F (0x4 bytes), align: 2
  Segment part 113.           Intra module refs:   isNight()
    -------------------------------------------------------------------------
CODE
  Relative segment, address: CODE_AREA 00001850 - 00001853 (0x4 bytes), align: 2
  Segment part 114.           Intra module refs:   Randomize()
                                                   isNight()
    -------------------------------------------------------------------------
CODE
  Relative segment, address: CODE_AREA 00001854 - 000018D3 (0x80 bytes), align: 2
  Segment part 116.           Intra module refs:   ChangeStatusImage(int, BOOK *, int)
                                                   life_proc(int, BOOK *, int)
           ENTRY                   ADDRESS         REF BY
           =====                   =======         ======
           start_vibra()           00001854 
               stack 1 = 00000000 ( 00000010 )
    -------------------------------------------------------------------------
CODE
  Relative segment, address: CODE_AREA 000018D4 - 000018D7 (0x4 bytes), align: 2
  Segment part 117.           Intra module refs:   start_vibra()
    -------------------------------------------------------------------------
CODE
  Relative segment, address: CODE_AREA 000018D8 - 00001913 (0x3c bytes), align: 2
  Segment part 119.           Intra module refs:   Light()
                                                   onCloseTamagochiBook(BOOK *)
           ENTRY                   ADDRESS         REF BY
           =====                   =======         ======
           offTimerScreen(u16, LPARAM)
                                   000018D8 
               stack 1 = 00000000 ( 0000000C )
    -------------------------------------------------------------------------
CODE
  Relative segment, address: CODE_AREA 00001914 - 00001963 (0x50 bytes), align: 2
  Segment part 121.           Intra module refs:   Segment part 126
           ENTRY                   ADDRESS         REF BY
           =====                   =======         ======
           onTimerScreen(u16, LPARAM)
                                   00001914 
               stack 1 = 00000000 ( 0000000C )
    -------------------------------------------------------------------------
CODE
  Relative segment, address: CODE_AREA 00001964 - 00001967 (0x4 bytes), align: 2
  Segment part 122.           Intra module refs:   offTimerScreen(u16, LPARAM)
                                                   onTimerScreen(u16, LPARAM)
    -------------------------------------------------------------------------
CODE
  Relative segment, address: CODE_AREA 00001968 - 00001A0B (0xa4 bytes), align: 2
  Segment part 124.           Intra module refs:   ChangeStatusImage(int, BOOK *, int)
                                                   life_proc(int, BOOK *, int)
           ENTRY                   ADDRESS         REF BY
           =====                   =======         ======
           Light()                 00001968 
               stack 1 = 00000000 ( 00000010 )
    -------------------------------------------------------------------------
CODE
  Relative segment, address: CODE_AREA 00001A0C - 00001A0F (0x4 bytes), align: 2
  Segment part 125.           Intra module refs:   Light()
                                                   onTimerScreen(u16, LPARAM)
    -------------------------------------------------------------------------
CODE
  Relative segment, address: CODE_AREA 00001A10 - 00001A13 (0x4 bytes), align: 2
  Segment part 126.           Intra module refs:   Light()
                                                   onTimerScreen(u16, LPARAM)
    -------------------------------------------------------------------------
CODE
  Relative segment, address: CODE_AREA 00001A14 - 00001A37 (0x24 bytes), align: 2
  Segment part 128.           Intra module refs:   GameDetected()
           ENTRY                   ADDRESS         REF BY
           =====                   =======         ======
           set_all_simg_status(int)
                                   00001A14 
    -------------------------------------------------------------------------
CODE
  Relative segment, address: CODE_AREA 00001A38 - 00001A5B (0x24 bytes), align: 2
  Segment part 130.           Intra module refs:   onReconfigElf(void *, BOOK *)
           ENTRY                   ADDRESS         REF BY
           =====                   =======         ======
           set_all_old_img_status(int)
                                   00001A38 
    -------------------------------------------------------------------------
CODE
  Relative segment, address: CODE_AREA 00001A5C - 00001B9B (0x140 bytes), align: 2
  Segment part 132.           Intra module refs:   GameDetected()
           ENTRY                   ADDRESS         REF BY
           =====                   =======         ======
           FindName()              00001A5C 
               stack 1 = 00000000 ( 00000148 )
    -------------------------------------------------------------------------
CODE
  Relative segment, address: CODE_AREA 00001B9C - 00001B9F (0x4 bytes), align: 2
  Segment part 133.           Intra module refs:   FindName()
                                                   Light()
                                                   UpdateName()
                                                   offTimerScreen(u16, LPARAM)
                                                   onTimerScreen(u16, LPARAM)
    -------------------------------------------------------------------------
CODE
  Relative segment, address: CODE_AREA 00001BA0 - 00001BF7 (0x58 bytes), align: 2
  Segment part 135.           Intra module refs:   life_proc(int, BOOK *, int)
           ENTRY                   ADDRESS         REF BY
           =====                   =======         ======
           GameDetected()          00001BA0 
               stack 1 = 00000000 ( 00000004 )
    -------------------------------------------------------------------------
CODE
  Relative segment, address: CODE_AREA 00001BF8 - 00001FC3 (0x3cc bytes), align: 2
  Segment part 137.           Intra module refs:   BatheCommand(int, BOOK *, int)
                                                   Discipline(int, BOOK *, int)
                                                   GamePlay(int, BOOK *, int)
                                                   MainPageOnCreate(void *, BOOK *)
                                                   SleepProc(int, BOOK *, int, int)
                                                   Vaccinate(int, BOOK *, int)
                                                   life_proc(int, BOOK *, int)
                                                   onHelloMsg(void *, BOOK *)
                                                   onReconfigElf(void *, BOOK *)
           ENTRY                   ADDRESS         REF BY
           =====                   =======         ======
           ChangeStatusImage(int, BOOK *, int)
                                   00001BF8 
               stack 1 = 00000000 ( 00000124 )
    -------------------------------------------------------------------------
CODE
  Relative segment, address: CODE_AREA 00001FC4 - 00001FC7 (0x4 bytes), align: 2
  Segment part 138.           Intra module refs:   ChangeStatusImage(int, BOOK *, int)
                                                   free_icons()
                                                   load_icons()
    -------------------------------------------------------------------------
CODE
  Relative segment, address: CODE_AREA 00001FC8 - 00001FCB (0x4 bytes), align: 2
  Segment part 139.           Intra module refs:   ChangeStatusImage(int, BOOK *, int)
    -------------------------------------------------------------------------
CODE
  Relative segment, address: CODE_AREA 00001FCC - 000020A3 (0xd8 bytes), align: 2
  Segment part 141.           Intra module refs:   BatheCommand(int, BOOK *, int)
                                                   Discipline(int, BOOK *, int)
                                                   GamePlay(int, BOOK *, int)
                                                   Vaccinate(int, BOOK *, int)
                                                   life_proc(int, BOOK *, int)
           ENTRY                   ADDRESS         REF BY
           =====                   =======         ======
           VerifyStatus(int)       00001FCC 
    -------------------------------------------------------------------------
CODE
  Relative segment, address: CODE_AREA 000020A4 - 000020AB (0x8 bytes), align: 2
  Segment part 143.
           ENTRY                   ADDRESS         REF BY
           =====                   =======         ======
           InfoStatus(int, BOOK *, int)
                                   000020A4        Segment part 17 (gui)
               stack 1 = 00000000 ( 00000004 )
    -------------------------------------------------------------------------
CODE
  Relative segment, address: CODE_AREA 000020AC - 0000226F (0x1c4 bytes), align: 2
  Segment part 145.
           ENTRY                   ADDRESS         REF BY
           =====                   =======         ======
           GamePlay(int, BOOK *, int)
                                   000020AC        Segment part 17 (gui)
               stack 1 = 00000000 ( 00000124 )
    -------------------------------------------------------------------------
CODE
  Relative segment, address: CODE_AREA 00002270 - 0000245B (0x1ec bytes), align: 2
  Segment part 147.
           ENTRY                   ADDRESS         REF BY
           =====                   =======         ======
           Vaccinate(int, BOOK *, int)
                                   00002270        Segment part 17 (gui)
               stack 1 = 00000000 ( 00000124 )
    -------------------------------------------------------------------------
CODE
  Relative segment, address: CODE_AREA 0000245C - 00002613 (0x1b8 bytes), align: 2
  Segment part 149.
           ENTRY                   ADDRESS         REF BY
           =====                   =======         ======
           Discipline(int, BOOK *, int)
                                   0000245C        Segment part 17 (gui)
               stack 1 = 00000000 ( 00000124 )
    -------------------------------------------------------------------------
CODE
  Relative segment, address: CODE_AREA 00002614 - 00002617 (0x4 bytes), align: 2
  Segment part 150.           Intra module refs:   ChangeStatusImage(int, BOOK *, int)
                                                   Discipline(int, BOOK *, int)
                                                   GamePlay(int, BOOK *, int)
                                                   UpdateName()
                                                   Vaccinate(int, BOOK *, int)
                                                   VerifyStatus(int)
                                                   set_all_old_img_status(int)
                                                   set_all_simg_status(int)
    -------------------------------------------------------------------------
CODE
  Relative segment, address: CODE_AREA 00002618 - 00002873 (0x25c bytes), align: 2
  Segment part 152.           Intra module refs:   FatigueSleep(int, BOOK *, int)
                                                   HungerSleep(int, BOOK *, int)
                                                   NightSleep(int, BOOK *, int)
                                                   SleepCommand(int, BOOK *, int)
           ENTRY                   ADDRESS         REF BY
           =====                   =======         ======
           SleepProc(int, BOOK *, int, int)
                                   00002618 
               stack 1 = 00000000 ( 00000128 )
    -------------------------------------------------------------------------
CODE
  Relative segment, address: CODE_AREA 00002874 - 0000287B (0x8 bytes), align: 2
  Segment part 154.           Intra module refs:   life_proc(int, BOOK *, int)
           ENTRY                   ADDRESS         REF BY
           =====                   =======         ======
           NightSleep(int, BOOK *, int)
                                   00002874 
               stack 1 = 00000000 ( 00000004 )
    -------------------------------------------------------------------------
CODE
  Relative segment, address: CODE_AREA 0000287C - 00002883 (0x8 bytes), align: 2
  Segment part 156.           Intra module refs:   life_proc(int, BOOK *, int)
           ENTRY                   ADDRESS         REF BY
           =====                   =======         ======
           FatigueSleep(int, BOOK *, int)
                                   0000287C 
               stack 1 = 00000000 ( 00000004 )
    -------------------------------------------------------------------------
CODE
  Relative segment, address: CODE_AREA 00002884 - 0000288B (0x8 bytes), align: 2
  Segment part 158.           Intra module refs:   life_proc(int, BOOK *, int)
           ENTRY                   ADDRESS         REF BY
           =====                   =======         ======
           HungerSleep(int, BOOK *, int)
                                   00002884 
               stack 1 = 00000000 ( 00000004 )
    -------------------------------------------------------------------------
CODE
  Relative segment, address: CODE_AREA 0000288C - 00002893 (0x8 bytes), align: 2
  Segment part 160.           Intra module refs:   life_proc(int, BOOK *, int)
           ENTRY                   ADDRESS         REF BY
           =====                   =======         ======
           SleepCommand(int, BOOK *, int)
                                   0000288C        Segment part 17 (gui)
               stack 1 = 00000000 ( 00000004 )
    -------------------------------------------------------------------------
CODE
  Relative segment, address: CODE_AREA 00002894 - 00002A2F (0x19c bytes), align: 2
  Segment part 162.
           ENTRY                   ADDRESS         REF BY
           =====                   =======         ======
           BatheCommand(int, BOOK *, int)
                                   00002894        Segment part 17 (gui)
               stack 1 = 00000000 ( 00000124 )
    -------------------------------------------------------------------------
CODE
  Relative segment, address: CODE_AREA 00002A30 - 00002A33 (0x4 bytes), align: 2
  Segment part 163.           Intra module refs:   BatheCommand(int, BOOK *, int)
                                                   ChangeStatusImage(int, BOOK *, int)
                                                   Discipline(int, BOOK *, int)
                                                   GamePlay(int, BOOK *, int)
                                                   SleepProc(int, BOOK *, int, int)
                                                   Vaccinate(int, BOOK *, int)
    -------------------------------------------------------------------------
CODE
  Relative segment, address: CODE_AREA 00002A34 - 00002A37 (0x4 bytes), align: 2
  Segment part 164.           Intra module refs:   BatheCommand(int, BOOK *, int)
                                                   ChangeStatusImage(int, BOOK *, int)
                                                   Discipline(int, BOOK *, int)
                                                   GamePlay(int, BOOK *, int)
                                                   SleepProc(int, BOOK *, int, int)
                                                   Vaccinate(int, BOOK *, int)
    -------------------------------------------------------------------------
CODE
  Relative segment, address: CODE_AREA 00002A38 - 00002A3B (0x4 bytes), align: 2
  Segment part 165.           Intra module refs:   BatheCommand(int, BOOK *, int)
                                                   ChangeStatusImage(int, BOOK *, int)
                                                   Discipline(int, BOOK *, int)
                                                   GamePlay(int, BOOK *, int)
                                                   SleepProc(int, BOOK *, int, int)
                                                   Vaccinate(int, BOOK *, int)
    -------------------------------------------------------------------------
CODE
  Relative segment, address: CODE_AREA 00002A3C - 00002A3F (0x4 bytes), align: 2
  Segment part 166.           Intra module refs:   BatheCommand(int, BOOK *, int)
                                                   ChangeStatusImage(int, BOOK *, int)
                                                   Discipline(int, BOOK *, int)
                                                   GamePlay(int, BOOK *, int)
                                                   SleepProc(int, BOOK *, int, int)
                                                   Vaccinate(int, BOOK *, int)
    -------------------------------------------------------------------------
CODE
  Relative segment, address: CODE_AREA 00002A40 - 00002A63 (0x24 bytes), align: 2
  Segment part 168.           Intra module refs:   ChangeName(int, BOOK *, int)
           ENTRY                   ADDRESS         REF BY
           =====                   =======         ======
           OnBackChangeName(BOOK *, u16 *, int)
                                   00002A40 
               stack 1 = 00000000 ( 00000008 )
    -------------------------------------------------------------------------
CODE
  Relative segment, address: CODE_AREA 00002A64 - 00002B1B (0xb8 bytes), align: 2
  Segment part 170.           Intra module refs:   ChangeName(int, BOOK *, int)
           ENTRY                   ADDRESS         REF BY
           =====                   =======         ======
           OnOkChangeName(BOOK *, wchar_t *, int)
                                   00002A64 
               stack 1 = 00000000 ( 00000094 )
    -------------------------------------------------------------------------
CODE
  Relative segment, address: CODE_AREA 00002B1C - 00002C47 (0x12c bytes), align: 2
  Segment part 172.
           ENTRY                   ADDRESS         REF BY
           =====                   =======         ======
           ChangeName(int, BOOK *, int)
                                   00002B1C        Segment part 17 (gui)
               stack 1 = 00000000 ( 00000054 )
    -------------------------------------------------------------------------
CODE
  Relative segment, address: CODE_AREA 00002C48 - 00002C9B (0x54 bytes), align: 2
  Segment part 174.           Intra module refs:   life_proc(int, BOOK *, int)
           ENTRY                   ADDRESS         REF BY
           =====                   =======         ======
           FamilyLifeUpdate(int)   00002C48 
    -------------------------------------------------------------------------
CODE
  Relative segment, address: CODE_AREA 00002C9C - 00002C9F (0x4 bytes), align: 2
  Segment part 175.           Intra module refs:   FamilyLifeUpdate(int)
    -------------------------------------------------------------------------
CODE
  Relative segment, address: CODE_AREA 00002CA0 - 00002D37 (0x98 bytes), align: 2
  Segment part 177.           Intra module refs:   life_proc(int, BOOK *, int)
           ENTRY                   ADDRESS         REF BY
           =====                   =======         ======
           NewBabyCheck(int)       00002CA0 
               stack 1 = 00000000 ( 0000000C )
    -------------------------------------------------------------------------
CODE
  Relative segment, address: CODE_AREA 00002D38 - 00002D3B (0x4 bytes), align: 2
  Segment part 178.           Intra module refs:   NewBabyCheck(int)
    -------------------------------------------------------------------------
CODE
  Relative segment, address: CODE_AREA 00002D3C - 00002D9F (0x64 bytes), align: 2
  Segment part 180.           Intra module refs:   Segment part 181
                                                   Segment part 237
           ENTRY                   ADDRESS         REF BY
           =====                   =======         ======
           onTimer_save(u16, LPARAM)
                                   00002D3C 
               stack 1 = 00000000 ( 00000010 )
    -------------------------------------------------------------------------
CODE
  Relative segment, address: CODE_AREA 00002DA0 - 00002DA3 (0x4 bytes), align: 2
  Segment part 181.           Intra module refs:   onTimer_save(u16, LPARAM)
    -------------------------------------------------------------------------
CODE
  Relative segment, address: CODE_AREA 00002DA4 - 00002DA7 (0x4 bytes), align: 2
  Segment part 182.           Intra module refs:   onTimer_save(u16, LPARAM)
    -------------------------------------------------------------------------
CODE
  Relative segment, address: CODE_AREA 00002DA8 - 00002E87 (0xe0 bytes), align: 2
  Segment part 184.           Intra module refs:   onTimer_refresh(u16, LPARAM)
           ENTRY                   ADDRESS         REF BY
           =====                   =======         ======
           UpdatePosition(int)     00002DA8 
    -------------------------------------------------------------------------
CODE
  Relative segment, address: CODE_AREA 00002E88 - 00002F27 (0xa0 bytes), align: 2
  Segment part 186.           Intra module refs:   Segment part 191
                                                   Segment part 239
           ENTRY                   ADDRESS         REF BY
           =====                   =======         ======
           onTimer_refresh(u16, LPARAM)
                                   00002E88 
               stack 1 = 00000000 ( 00000010 )
    -------------------------------------------------------------------------
CODE
  Relative segment, address: CODE_AREA 00002F28 - 00002F2B (0x4 bytes), align: 2
  Segment part 187.           Intra module refs:   BatheCommand(int, BOOK *, int)
                                                   ChangeName(int, BOOK *, int)
                                                   FamilyLifeUpdate(int)
                                                   NewBabyCheck(int)
                                                   OnOkChangeName(BOOK *, wchar_t *, int)
                                                   SleepProc(int, BOOK *, int, int)
                                                   UpdatePosition(int)
                                                   onTimer_refresh(u16, LPARAM)
                                                   onTimer_save(u16, LPARAM)
    -------------------------------------------------------------------------
CODE
  Relative segment, address: CODE_AREA 00002F2C - 00002F2F (0x4 bytes), align: 2
  Segment part 188.           Intra module refs:   UpdatePosition(int)
                                                   onTimer_refresh(u16, LPARAM)
    -------------------------------------------------------------------------
CODE
  Relative segment, address: CODE_AREA 00002F30 - 00002F33 (0x4 bytes), align: 2
  Segment part 189.           Intra module refs:   onTimer_refresh(u16, LPARAM)
    -------------------------------------------------------------------------
CODE
  Relative segment, address: CODE_AREA 00002F34 - 00002F37 (0x4 bytes), align: 2
  Segment part 190.           Intra module refs:   onTimer_refresh(u16, LPARAM)
    -------------------------------------------------------------------------
CODE
  Relative segment, address: CODE_AREA 00002F38 - 00002F3B (0x4 bytes), align: 2
  Segment part 191.           Intra module refs:   onTimer_refresh(u16, LPARAM)
    -------------------------------------------------------------------------
CODE
  Relative segment, address: CODE_AREA 00002F3C - 00003C4F (0xd14 bytes), align: 2
  Segment part 193.           Intra module refs:   onTimer_life(u16, LPARAM)
           ENTRY                   ADDRESS         REF BY
           =====                   =======         ======
           life_proc(int, BOOK *, int)
                                   00002F3C 
               stack 1 = 00000000 ( 00000698 )
    -------------------------------------------------------------------------
CODE
  Relative segment, address: CODE_AREA 00003C50 - 00003C53 (0x4 bytes), align: 2
  Segment part 194.           Intra module refs:   life_proc(int, BOOK *, int)
    -------------------------------------------------------------------------
CODE
  Relative segment, address: CODE_AREA 00003C54 - 00003C57 (0x4 bytes), align: 2
  Segment part 195.           Intra module refs:   life_proc(int, BOOK *, int)
    -------------------------------------------------------------------------
CODE
  Relative segment, address: CODE_AREA 00003C58 - 00003C5B (0x4 bytes), align: 2
  Segment part 196.           Intra module refs:   life_proc(int, BOOK *, int)
    -------------------------------------------------------------------------
CODE
  Relative segment, address: CODE_AREA 00003C5C - 00003C5F (0x4 bytes), align: 2
  Segment part 197.           Intra module refs:   life_proc(int, BOOK *, int)
    -------------------------------------------------------------------------
CODE
  Relative segment, address: CODE_AREA 00003C60 - 00003C63 (0x4 bytes), align: 2
  Segment part 198.           Intra module refs:   life_proc(int, BOOK *, int)
    -------------------------------------------------------------------------
CODE
  Relative segment, address: CODE_AREA 00003C64 - 00003C67 (0x4 bytes), align: 2
  Segment part 199.           Intra module refs:   life_proc(int, BOOK *, int)
    -------------------------------------------------------------------------
CODE
  Relative segment, address: CODE_AREA 00003C68 - 00003D23 (0xbc bytes), align: 2
  Segment part 201.           Intra module refs:   Segment part 236
           ENTRY                   ADDRESS         REF BY
           =====                   =======         ======
           onTimer_life(u16, LPARAM)
                                   00003C68 
               stack 1 = 00000000 ( 00000018 )
    -------------------------------------------------------------------------
CODE
  Relative segment, address: CODE_AREA 00003D24 - 00003D27 (0x4 bytes), align: 2
  Segment part 202.           Intra module refs:   life_proc(int, BOOK *, int)
                                                   onTimer_life(u16, LPARAM)
    -------------------------------------------------------------------------
CODE
  Relative segment, address: CODE_AREA 00003D28 - 00003DAF (0x88 bytes), align: 2
  Segment part 204.           Intra module refs:   Segment part 280
           ENTRY                   ADDRESS         REF BY
           =====                   =======         ======
           NewKey(int, int, int, LPARAM, DISP_OBJ *)
                                   00003D28 
               stack 1 = 00000000 ( 0000000C )
    -------------------------------------------------------------------------
CODE
  Relative segment, address: CODE_AREA 00003DB0 - 00003DB3 (0x4 bytes), align: 2
  Segment part 205.           Intra module refs:   NewKey(int, int, int, LPARAM, DISP_OBJ *)
    -------------------------------------------------------------------------
CODE
  Relative segment, address: CODE_AREA 00003DB4 - 00003E87 (0xd4 bytes), align: 2
  Segment part 207.           Intra module refs:   Display_ReDraw(DISP_OBJ *, int, int, int)
           ENTRY                   ADDRESS         REF BY
           =====                   =======         ======
           DrawParams(int)         00003DB4 
               stack 1 = 00000000 ( 00000024 )
    -------------------------------------------------------------------------
CODE
  Relative segment, address: CODE_AREA 00003E88 - 00003E8B (0x4 bytes), align: 2
  Segment part 208.           Intra module refs:   DrawParams(int)
    -------------------------------------------------------------------------
CODE
  Relative segment, address: CODE_AREA 00003E8C - 00003ECF (0x44 bytes), align: 2
  Segment part 210.           Intra module refs:   Segment part 246
           ENTRY                   ADDRESS         REF BY
           =====                   =======         ======
           Display_ReDraw(DISP_OBJ *, int, int, int)
                                   00003E8C 
               stack 1 = 00000000 ( 00000018 )
    -------------------------------------------------------------------------
CODE
  Relative segment, address: CODE_AREA 00003ED0 - 00003EEF (0x20 bytes), align: 2
  Segment part 212.           Intra module refs:   Segment part 245
           ENTRY                   ADDRESS         REF BY
           =====                   =======         ======
           Status_ReDraw(DISP_OBJ *, int, int, int)
                                   00003ED0 
               stack 1 = 00000000 ( 00000004 )
    -------------------------------------------------------------------------
CODE
  Relative segment, address: CODE_AREA 00003EF0 - 00003F0F (0x20 bytes), align: 2
  Segment part 214.           Intra module refs:   Segment part 247
           ENTRY                   ADDRESS         REF BY
           =====                   =======         ======
           Soft_ReDraw(DISP_OBJ *, int, int, int)
                                   00003EF0 
               stack 1 = 00000000 ( 00000004 )
    -------------------------------------------------------------------------
CODE
  Relative segment, address: CODE_AREA 00003F10 - 00003FDF (0xd0 bytes), align: 2
  Segment part 216.           Intra module refs:   LoadAllPets()
                                                   LoadStatus(int)
                                                   MainPageOnCreate(void *, BOOK *)
                                                   NewBabyCheck(int)
                                                   onHelloMsg(void *, BOOK *)
           ENTRY                   ADDRESS         REF BY
           =====                   =======         ======
           InitStatus(int, int, int)
                                   00003F10 
               stack 1 = 00000000 ( 00000010 )
    -------------------------------------------------------------------------
CODE
  Relative segment, address: CODE_AREA 00003FE0 - 0000413F (0x160 bytes), align: 2
  Segment part 218.           Intra module refs:   LoadAllPets()
                                                   MainPageOnCreate(void *, BOOK *)
           ENTRY                   ADDRESS         REF BY
           =====                   =======         ======
           LoadStatus(int)         00003FE0 
               stack 1 = 00000000 ( 00000308 )
    -------------------------------------------------------------------------
CODE
  Relative segment, address: CODE_AREA 00004140 - 0000421F (0xe0 bytes), align: 2
  Segment part 220.           Intra module refs:   MainPageOnCreate(void *, BOOK *)
                                                   onCloseTamagochiBook(BOOK *)
                                                   onReconfigElf(void *, BOOK *)
                                                   onTimer_save(u16, LPARAM)
           ENTRY                   ADDRESS         REF BY
           =====                   =======         ======
           SaveStatus(int)         00004140 
               stack 1 = 00000000 ( 000001E8 )
    -------------------------------------------------------------------------
CODE
  Relative segment, address: CODE_AREA 00004220 - 00004223 (0x4 bytes), align: 2
  Segment part 221.           Intra module refs:   LoadStatus(int)
                                                   SaveStatus(int)
    -------------------------------------------------------------------------
CODE
  Relative segment, address: CODE_AREA 00004224 - 0000428F (0x6c bytes), align: 2
  Segment part 223.           Intra module refs:   InitPetVar(int)
                                                   onReconfigElf(void *, BOOK *)
           ENTRY                   ADDRESS         REF BY
           =====                   =======         ======
           InitPetPos(int)         00004224 
               stack 1 = 00000000 ( 00000008 )
    -------------------------------------------------------------------------
CODE
  Relative segment, address: CODE_AREA 00004290 - 000042CF (0x40 bytes), align: 2
  Segment part 225.           Intra module refs:   LoadAllPets()
                                                   MainPageOnCreate(void *, BOOK *)
                                                   NewBabyCheck(int)
                                                   onHelloMsg(void *, BOOK *)
           ENTRY                   ADDRESS         REF BY
           =====                   =======         ======
           InitPetVar(int)         00004290 
               stack 1 = 00000000 ( 00000004 )
    -------------------------------------------------------------------------
CODE
  Relative segment, address: CODE_AREA 000042D0 - 00004327 (0x58 bytes), align: 2
  Segment part 227.           Intra module refs:   MainPageOnCreate(void *, BOOK *)
           ENTRY                   ADDRESS         REF BY
           =====                   =======         ======
           CreateTestFile()        000042D0 
               stack 1 = 00000000 ( 00000028 )
    -------------------------------------------------------------------------
CODE
  Relative segment, address: CODE_AREA 00004328 - 0000432B (0x4 bytes), align: 2
  Segment part 228.           Intra module refs:   CreateTestFile()
                                                   LoadStatus(int)
                                                   SaveStatus(int)
    -------------------------------------------------------------------------
CODE
  Relative segment, address: CODE_AREA 0000432C - 000043CB (0xa0 bytes), align: 2
  Segment part 230.           Intra module refs:   MainPageOnCreate(void *, BOOK *)
                                                   onReconfigElf(void *, BOOK *)
           ENTRY                   ADDRESS         REF BY
           =====                   =======         ======
           LoadAllPets()           0000432C 
               stack 1 = 00000000 ( 0000000C )
    -------------------------------------------------------------------------
CODE
  Relative segment, address: CODE_AREA 000043CC - 000043CF (0x4 bytes), align: 2
  Segment part 231.           Intra module refs:   LoadAllPets()
    -------------------------------------------------------------------------
CODE
  Relative segment, address: CODE_AREA 000043D0 - 000043D3 (0x4 bytes), align: 2
  Segment part 232.           Intra module refs:   LoadAllPets()
                                                   life_proc(int, BOOK *, int)
    -------------------------------------------------------------------------
CODE
  Relative segment, address: CODE_AREA 000043D4 - 00004767 (0x394 bytes), align: 2
  Segment part 234.           Intra module refs:   Segment part 85
    -------------------------------------------------------------------------
CODE
  Relative segment, address: CODE_AREA 00004768 - 0000476B (0x4 bytes), align: 2
  Segment part 235.           Intra module refs:   MainPageOnCreate(void *, BOOK *)
    -------------------------------------------------------------------------
CODE
  Relative segment, address: CODE_AREA 0000476C - 0000476F (0x4 bytes), align: 2
  Segment part 236.           Intra module refs:   MainPageOnCreate(void *, BOOK *)
                                                   onTimer_life(u16, LPARAM)
    -------------------------------------------------------------------------
CODE
  Relative segment, address: CODE_AREA 00004770 - 00004773 (0x4 bytes), align: 2
  Segment part 237.           Intra module refs:   MainPageOnCreate(void *, BOOK *)
    -------------------------------------------------------------------------
CODE
  Relative segment, address: CODE_AREA 00004774 - 00004777 (0x4 bytes), align: 2
  Segment part 238.           Intra module refs:   MainPageOnCreate(void *, BOOK *)
    -------------------------------------------------------------------------
CODE
  Relative segment, address: CODE_AREA 00004778 - 0000477B (0x4 bytes), align: 2
  Segment part 239.           Intra module refs:   MainPageOnCreate(void *, BOOK *)
    -------------------------------------------------------------------------
DYN_PAGE
  Relative segment, address: CODE_AREA 0000ADC0 - 0000ADCF (0x10 bytes), align: 2
  Segment part 85.            Intra module refs:   Segment part 81
    -------------------------------------------------------------------------
CODE
  Relative segment, address: CODE_AREA 0000477C - 000047DB (0x60 bytes), align: 2
  Segment part 241.           Intra module refs:   TerminateElf(void *, BOOK *)
           ENTRY                   ADDRESS         REF BY
           =====                   =======         ======
           Send_REDRAW_RELEASE()   0000477C 
               stack 1 = 00000000 ( 00000008 )
    -------------------------------------------------------------------------
CODE
  Relative segment, address: CODE_AREA 000047DC - 00004927 (0x14c bytes), align: 2
  Segment part 243.           Intra module refs:   Segment part 86
           ENTRY                   ADDRESS         REF BY
           =====                   =======         ======
           SB_ELF_Killed(void *, BOOK *)
                                   000047DC 
               stack 1 = 00000000 ( 00000018 )
    -------------------------------------------------------------------------
CODE
  Relative segment, address: CODE_AREA 00004928 - 0000492B (0x4 bytes), align: 2
  Segment part 244.           Intra module refs:   Display_ReDraw(DISP_OBJ *, int, int, int)
                                                   SB_ELF_Killed(void *, BOOK *)
                                                   Send_REDRAW_RELEASE()
    -------------------------------------------------------------------------
CODE
  Relative segment, address: CODE_AREA 0000492C - 0000492F (0x4 bytes), align: 2
  Segment part 245.           Intra module refs:   MainPageOnCreate(void *, BOOK *)
                                                   SB_ELF_Killed(void *, BOOK *)
                                                   Send_REDRAW_RELEASE()
    -------------------------------------------------------------------------
CODE
  Relative segment, address: CODE_AREA 00004930 - 00004933 (0x4 bytes), align: 2
  Segment part 246.           Intra module refs:   MainPageOnCreate(void *, BOOK *)
                                                   SB_ELF_Killed(void *, BOOK *)
                                                   Send_REDRAW_RELEASE()
    -------------------------------------------------------------------------
CODE
  Relative segment, address: CODE_AREA 00004934 - 00004937 (0x4 bytes), align: 2
  Segment part 247.           Intra module refs:   MainPageOnCreate(void *, BOOK *)
                                                   SB_ELF_Killed(void *, BOOK *)
                                                   Send_REDRAW_RELEASE()
    -------------------------------------------------------------------------
CODE
  Relative segment, address: CODE_AREA 00004938 - 00004973 (0x3c bytes), align: 2
  Segment part 249.           Intra module refs:   Segment part 86
           ENTRY                   ADDRESS         REF BY
           =====                   =======         ======
           TerminateElf(void *, BOOK *)
                                   00004938 
               stack 1 = 00000000 ( 0000000C )
    -------------------------------------------------------------------------
CODE
  Relative segment, address: CODE_AREA 00004974 - 000049C7 (0x54 bytes), align: 2
  Segment part 251.           Intra module refs:   Segment part 86
           ENTRY                   ADDRESS         REF BY
           =====                   =======         ======
           ShowAuthorInfo(void *, BOOK *)
                                   00004974 
               stack 1 = 00000000 ( 00000014 )
    -------------------------------------------------------------------------
CODE
  Relative segment, address: CODE_AREA 000049C8 - 00004B27 (0x160 bytes), align: 2
  Segment part 253.           Intra module refs:   Segment part 86
    -------------------------------------------------------------------------
CODE
  Relative segment, address: CODE_AREA 00004B28 - 00004B2B (0x4 bytes), align: 2
  Segment part 254.           Intra module refs:   MainPageOnCreate(void *, BOOK *)
                                                   onReconfigElf(void *, BOOK *)
                                                   onTimer_life(u16, LPARAM)
    -------------------------------------------------------------------------
CODE
  Relative segment, address: CODE_AREA 00004B2C - 00004B2F (0x4 bytes), align: 2
  Segment part 255.           Intra module refs:   MainPageOnCreate(void *, BOOK *)
                                                   onReconfigElf(void *, BOOK *)
                                                   onTimer_life(u16, LPARAM)
    -------------------------------------------------------------------------
CODE
  Relative segment, address: CODE_AREA 00004B30 - 00004B33 (0x4 bytes), align: 2
  Segment part 256.           Intra module refs:   DrawParams(int)
                                                   InitPetPos(int)
                                                   InitPetVar(int)
                                                   InitStatus(int, int, int)
                                                   LoadAllPets()
                                                   LoadStatus(int)
                                                   MainPageOnCreate(void *, BOOK *)
                                                   SaveStatus(int)
                                                   onReconfigElf(void *, BOOK *)
    -------------------------------------------------------------------------
CODE
  Relative segment, address: CODE_AREA 00004B34 - 00004D0F (0x1dc bytes), align: 2
  Segment part 260.           Intra module refs:   Segment part 86
           ENTRY                   ADDRESS         REF BY
           =====                   =======         ======
           onHelloMsg(void *, BOOK *)
                                   00004B34 
               stack 1 = 00000000 ( 00000128 )
    -------------------------------------------------------------------------
DYN_PAGE
  Relative segment, address: CODE_AREA 0000ADD0 - 0000ADFF (0x30 bytes), align: 2
  Segment part 86.            Intra module refs:   Segment part 81
    -------------------------------------------------------------------------
DATA_I
  Relative segment, address: DATA_AREA 00000044 - 0000092B (0x8e8 bytes), align: 2
  Segment part 80.            Intra module refs:   Segment part 133
                                                   Segment part 182
                                                   Segment part 188
                                                   Segment part 244
                                                   Segment part 268
                                                   Segment part 276
                                                   Soft_ReDraw(DISP_OBJ *, int, int, int)
                                                   Status_ReDraw(DISP_OBJ *, int, int, int)
                                                   isTamagochiBook(BOOK *)
                                                   onTimer_life(u16, LPARAM)
           ENTRY                   ADDRESS         REF BY
           =====                   =======         ======
           DisplayHeight           00000078 
           DisplayWidth            00000074 
           Display_desc            00000064 
           Display_oldReDraw       0000005C 
           GUI_display             00000060 
           GUI_soft                0000006C 
           GUI_status              00000054 
           SoftBarHeight           0000007C 
           SoftBarY                00000084 
           Soft_desc               00000070 
           Soft_oldReDraw          00000068 
           StatusBarHeight         00000080 
           StatusBarY              00000088 
           Status_desc             00000058 
           Status_oldReDraw        00000050 
           TamagochiBook           0000008C 
           base_page               00000920 
           game_list               00000094 
           main_page               00000914 
           offtimerScreen          0000004C 
           player_list             00000494 
           screen                  00000090 
           timerScreen             0000004A 
           timer_life              00000048 
           timer_refresh           00000046 
           timer_save              00000044 
    -------------------------------------------------------------------------
DATA_I
  Relative segment, address: DATA_AREA 0000092C - 0000097F (0x54 bytes), align: 2
  Segment part 82.            Intra module refs:   Segment part 138
                                                   Segment part 208
           ENTRY                   ADDRESS         REF BY
           =====                   =======         ======
           SmileSize               00000978 
           StatSize                0000097C 
           img_menu                0000094C        Segment part 42 (status)
                                                   Segment part 47 (gui)
                                                   ViewAge(int) (status)
                                                   ViewBehaviour(int) (status)
                                                   ViewBoredom(int) (status)
                                                   ViewDirtiness(int) (status)
                                                   ViewFamilyLife(int) (status)
                                                   ViewFatigue(int) (status)
                                                   ViewHappiness(int) (status)
                                                   ViewHealth(int) (status)
                                                   ViewHunger(int) (status)
           img_names               0000092C 
           img_status              00000944 
    -------------------------------------------------------------------------
CODE
  Relative segment, address: CODE_AREA 00004D10 - 00004D2B (0x1c bytes), align: 2
  Segment part 262.           Intra module refs:   Segment part 278
           ENTRY                   ADDRESS         REF BY
           =====                   =======         ======
           elf_exit()              00004D10 
               stack 1 = 00000000 ( 00000004 )
    -------------------------------------------------------------------------
CODE
  Relative segment, address: CODE_AREA 00004D2C - 00004D67 (0x3c bytes), align: 2
  Segment part 264.           Intra module refs:   Segment part 205
                                                   Segment part 277
                                                   life_proc(int, BOOK *, int)
           ENTRY                   ADDRESS         REF BY
           =====                   =======         ======
           isTamagochiBook(BOOK *)
                                   00004D2C        Segment part 41 (gui)
                                                   Segment part 52 (status)
               stack 1 = 00000000 ( 00000008 )
    -------------------------------------------------------------------------
CODE
  Relative segment, address: CODE_AREA 00004D68 - 00004D6B (0x4 bytes), align: 2
  Segment part 265.           Intra module refs:   isTamagochiBook(BOOK *)
    -------------------------------------------------------------------------
CODE
  Relative segment, address: CODE_AREA 00004D6C - 00004F57 (0x1ec bytes), align: 2
  Segment part 267.           Intra module refs:   main
           ENTRY                   ADDRESS         REF BY
           =====                   =======         ======
           onCloseTamagochiBook(BOOK *)
                                   00004D6C 
               stack 1 = 00000000 ( 00000118 )
    -------------------------------------------------------------------------
CODE
  Relative segment, address: CODE_AREA 00004F58 - 00004F5B (0x4 bytes), align: 2
  Segment part 268.           Intra module refs:   MainPageOnCreate(void *, BOOK *)
                                                   onCloseTamagochiBook(BOOK *)
    -------------------------------------------------------------------------
CODE
  Relative segment, address: CODE_AREA 00004F5C - 00004F5F (0x4 bytes), align: 2
  Segment part 269.           Intra module refs:   onCloseTamagochiBook(BOOK *)
                                                   onHelloMsg(void *, BOOK *)
    -------------------------------------------------------------------------
CODE
  Relative segment, address: CODE_AREA 00004F60 - 00004F63 (0x4 bytes), align: 2
  Segment part 270.           Intra module refs:   onCloseTamagochiBook(BOOK *)
                                                   onHelloMsg(void *, BOOK *)
    -------------------------------------------------------------------------
CODE
  Relative segment, address: CODE_AREA 00004F64 - 00004F67 (0x4 bytes), align: 2
  Segment part 271.           Intra module refs:   onCloseTamagochiBook(BOOK *)
                                                   onHelloMsg(void *, BOOK *)
    -------------------------------------------------------------------------
CODE
  Relative segment, address: CODE_AREA 00004F68 - 00004F6B (0x4 bytes), align: 2
  Segment part 272.           Intra module refs:   onCloseTamagochiBook(BOOK *)
                                                   onHelloMsg(void *, BOOK *)
    -------------------------------------------------------------------------
CODE
  Relative segment, address: CODE_AREA 00004F6C - 00004F6F (0x4 bytes), align: 2
  Segment part 273.           Intra module refs:   onCloseTamagochiBook(BOOK *)
                                                   onHelloMsg(void *, BOOK *)
    -------------------------------------------------------------------------
CODE
  Relative segment, address: CODE_AREA 00004F70 - 000051EB (0x27c bytes), align: 2
  Segment part 275.
           ENTRY                   ADDRESS         REF BY
           =====                   =======         ======
           main                    00004F70        Absolute parts (?ABS_ENTRY_MOD)
               stack 1 = 00000000 ( 00000024 )
    -------------------------------------------------------------------------
CODE
  Relative segment, address: CODE_AREA 000051EC - 000051EF (0x4 bytes), align: 2
  Segment part 276.           Intra module refs:   main
    -------------------------------------------------------------------------
CODE
  Relative segment, address: CODE_AREA 000051F0 - 000051F3 (0x4 bytes), align: 2
  Segment part 277.           Intra module refs:   main
                                                   onHelloMsg(void *, BOOK *)
    -------------------------------------------------------------------------
CODE
  Relative segment, address: CODE_AREA 000051F4 - 000051F7 (0x4 bytes), align: 2
  Segment part 278.           Intra module refs:   main
                                                   onCloseTamagochiBook(BOOK *)
    -------------------------------------------------------------------------
CODE
  Relative segment, address: CODE_AREA 000051F8 - 000051FB (0x4 bytes), align: 2
  Segment part 279.           Intra module refs:   main
                                                   onHelloMsg(void *, BOOK *)
    -------------------------------------------------------------------------
CODE
  Relative segment, address: CODE_AREA 000051FC - 000051FF (0x4 bytes), align: 2
  Segment part 280.           Intra module refs:   TerminateElf(void *, BOOK *)
                                                   main
    -------------------------------------------------------------------------
CODE
  Relative segment, address: CODE_AREA 00005200 - 00005203 (0x4 bytes), align: 2
  Segment part 281.           Intra module refs:   MainPageOnCreate(void *, BOOK *)
                                                   main
                                                   onReconfigElf(void *, BOOK *)
    -------------------------------------------------------------------------
CODE
  Relative segment, address: CODE_AREA 00005204 - 0000522B (0x28 bytes), align: 2
  Segment part 299.           Intra module refs:   InitPetPos(int)
                                                   life_proc(int, BOOK *, int)
           ENTRY                   ADDRESS         REF BY
           =====                   =======         ======
           Random()                00005204 
    -------------------------------------------------------------------------
DATA_ID
  Relative segment, address: CODE_AREA 00000044 - 0000092B (0x8e8 bytes), align: 2
  Segment part 81.            Intra module refs:   Segment part 80
    -------------------------------------------------------------------------
DATA_ID
  Relative segment, address: CODE_AREA 0000092C - 0000097F (0x54 bytes), align: 2
  Segment part 83.            Intra module refs:   Segment part 82

    *************************************************************************

  FILE NAME : Z:\home\perk11\www\perk11.info\svn\SE\Tamagochi\Release_EN\Obj\splitutils.r79
  PROGRAM MODULE, NAME : splitutils

  SEGMENTS IN THE MODULE
  ======================
DATA_I
  Relative segment, address: DATA_AREA 00000980 - 000009C7 (0x48 bytes), align: 2
  Segment part 12.            Intra module refs:   Segment part 21
           ENTRY                   ADDRESS         REF BY
           =====                   =======         ======
           cfgmacro                00000980 
    -------------------------------------------------------------------------
CODE
  Relative segment, address: CODE_AREA 0000522C - 00005293 (0x68 bytes), align: 2
  Segment part 15.            Intra module refs:   extractdir(wchar_t *, wchar_t *, char const *)
           ENTRY                   ADDRESS         REF BY
           =====                   =======         ======
           splitfilename(wchar_t const *, wchar_t *, wchar_t *)
                                   0000522C 
               stack 1 = 00000000 ( 0000001C )
    -------------------------------------------------------------------------
CODE
  Relative segment, address: CODE_AREA 00005294 - 0000538B (0xf8 bytes), align: 2
  Segment part 17.
           ENTRY                   ADDRESS         REF BY
           =====                   =======         ======
           extractdir(wchar_t *, wchar_t *, char const *)
                                   00005294        EditConfig(int, BOOK *, int) (gui)
                                                   MainPageOnCreate(void *, BOOK *) (main)
               stack 1 = 00000000 ( 00000240 )
    -------------------------------------------------------------------------
CODE
  Relative segment, address: CODE_AREA 0000538C - 0000546B (0xe0 bytes), align: 2
  Segment part 19.
           ENTRY                   ADDRESS         REF BY
           =====                   =======         ======
           getdir(wchar_t *, char const *)
                                   0000538C        BatheCommand(int, BOOK *, int) (main)
                                                   ChangeStatusImage(int, BOOK *, int) (main)
                                                   Discipline(int, BOOK *, int) (main)
                                                   GamePlay(int, BOOK *, int) (main)
                                                   LoadStatus(int) (main)
                                                   RoomCommand(int, BOOK *, int) (gui)
                                                   SaveStatus(int) (main)
                                                   SleepProc(int, BOOK *, int, int) (main)
                                                   Vaccinate(int, BOOK *, int) (main)
                                                   life_proc(int, BOOK *, int) (main)
                                                   load_icons() (main)
                                                   onCloseTamagochiBook(BOOK *) (main)
                                                   onHelloMsg(void *, BOOK *) (main)
               stack 1 = 00000000 ( 0000003C )
    -------------------------------------------------------------------------
CODE
  Relative segment, address: CODE_AREA 0000546C - 0000546F (0x4 bytes), align: 2
  Segment part 20.            Intra module refs:   extractdir(wchar_t *, wchar_t *, char const *)
                                                   getdir(wchar_t *, char const *)
    -------------------------------------------------------------------------
CODE
  Relative segment, address: CODE_AREA 00005470 - 00005473 (0x4 bytes), align: 2
  Segment part 21.            Intra module refs:   extractdir(wchar_t *, wchar_t *, char const *)
                                                   getdir(wchar_t *, char const *)
    -------------------------------------------------------------------------
DATA_ID
  Relative segment, address: CODE_AREA 00000980 - 000009C7 (0x48 bytes), align: 2
  Segment part 13.            Intra module refs:   cfgmacro
    -------------------------------------------------------------------------
DATA_C
  Relative segment, address: CODE_AREA 000077F0 - 000077F7 (0x8 bytes), align: 2
  Segment part 2.             Intra module refs:   Segment part 13
    -------------------------------------------------------------------------
DATA_C
  Relative segment, address: CODE_AREA 000077F8 - 000077FF (0x8 bytes), align: 2
  Segment part 3.             Intra module refs:   Segment part 13
    -------------------------------------------------------------------------
DATA_C
  Relative segment, address: CODE_AREA 00007800 - 00007807 (0x8 bytes), align: 2
  Segment part 4.             Intra module refs:   Segment part 13
    -------------------------------------------------------------------------
DATA_C
  Relative segment, address: CODE_AREA 00007808 - 0000780F (0x8 bytes), align: 2
  Segment part 5.             Intra module refs:   Segment part 13
    -------------------------------------------------------------------------
DATA_C
  Relative segment, address: CODE_AREA 00007810 - 00007817 (0x8 bytes), align: 2
  Segment part 6.             Intra module refs:   Segment part 13
    -------------------------------------------------------------------------
DATA_C
  Relative segment, address: CODE_AREA 00007818 - 0000781F (0x8 bytes), align: 2
  Segment part 7.             Intra module refs:   Segment part 13
    -------------------------------------------------------------------------
DATA_C
  Relative segment, address: CODE_AREA 00007820 - 0000782F (0x10 bytes), align: 2
  Segment part 8.             Intra module refs:   Segment part 13
    -------------------------------------------------------------------------
DATA_C
  Relative segment, address: CODE_AREA 00007830 - 0000783B (0xc bytes), align: 2
  Segment part 9.             Intra module refs:   Segment part 13
    -------------------------------------------------------------------------
DATA_C
  Relative segment, address: CODE_AREA 0000783C - 0000783F (0x4 bytes), align: 2
  Segment part 10.            Intra module refs:   Segment part 13
    -------------------------------------------------------------------------
DATA_C
  Relative segment, address: CODE_AREA 00007840 - 00007857 (0x18 bytes), align: 2
  Segment part 11.            Intra module refs:   Segment part 20

    *************************************************************************

  FILE NAME : Z:\home\perk11\www\perk11.info\svn\SE\Tamagochi\Release_EN\Obj\status.r79
  PROGRAM MODULE, NAME : status

  SEGMENTS IN THE MODULE
  ======================
DATA_Z
  Relative segment, address: CODE_AREA 0000A05C - 0000A05F (0x4 bytes), align: 2
  Segment part 8.             Intra module refs:   Segment part 58
           ENTRY                   ADDRESS         REF BY
           =====                   =======         ======
           CountSex                0000A05C 
    -------------------------------------------------------------------------
DATA_C
  Relative segment, address: CODE_AREA 00007858 - 00007987 (0x130 bytes), align: 2
  Segment part 2.             Intra module refs:   Segment part 38
                                                   Segment part 43
    -------------------------------------------------------------------------
DATA_C
  Relative segment, address: CODE_AREA 00007988 - 0000799F (0x18 bytes), align: 2
  Segment part 3.             Intra module refs:   Segment part 2
    -------------------------------------------------------------------------
DATA_C
  Relative segment, address: CODE_AREA 000079A0 - 000079C3 (0x24 bytes), align: 2
  Segment part 4.             Intra module refs:   Segment part 2
                                                   ViewAge(int)
    -------------------------------------------------------------------------
DATA_C
  Relative segment, address: CODE_AREA 000079C4 - 000079EB (0x28 bytes), align: 2
  Segment part 5.             Intra module refs:   Segment part 2
                                                   ViewFamilyLife(int)
    -------------------------------------------------------------------------
DATA_C
  Relative segment, address: CODE_AREA 000079EC - 00007A1B (0x30 bytes), align: 2
  Segment part 6.             Intra module refs:   Segment part 2
                                                   ViewHealth(int)
    -------------------------------------------------------------------------
DATA_C
  Relative segment, address: CODE_AREA 00007A1C - 00007A3F (0x24 bytes), align: 2
  Segment part 7.             Intra module refs:   Segment part 13
    -------------------------------------------------------------------------
DATA_I
  Relative segment, address: DATA_AREA 000009C8 - 000009EF (0x28 bytes), align: 2
  Segment part 9.             Intra module refs:   Status_onEnter(BOOK *, GUI *)
    -------------------------------------------------------------------------
CODE
  Relative segment, address: CODE_AREA 00005474 - 0000549F (0x2c bytes), align: 2
  Segment part 15.            Intra module refs:   ViewSex(int)
           ENTRY                   ADDRESS         REF BY
           =====                   =======         ======
           OnCloseSetSex(BOOK *, GUI *)
                                   00005474 
               stack 1 = 00000000 ( 0000000C )
    -------------------------------------------------------------------------
CODE
  Relative segment, address: CODE_AREA 000054A0 - 000054E7 (0x48 bytes), align: 2
  Segment part 17.            Intra module refs:   ViewSex(int)
           ENTRY                   ADDRESS         REF BY
           =====                   =======         ======
           OnSelectSetSex(BOOK *, GUI *)
                                   000054A0 
               stack 1 = 00000000 ( 0000000C )
    -------------------------------------------------------------------------
CODE
  Relative segment, address: CODE_AREA 000054E8 - 0000569B (0x1b4 bytes), align: 2
  Segment part 19.            Intra module refs:   Segment part 10
           ENTRY                   ADDRESS         REF BY
           =====                   =======         ======
           ViewSex(int)            000054E8 
               stack 1 = 00000000 ( 0000022C )
    -------------------------------------------------------------------------
CODE
  Relative segment, address: CODE_AREA 0000569C - 00005757 (0xbc bytes), align: 2
  Segment part 21.            Intra module refs:   Segment part 10
           ENTRY                   ADDRESS         REF BY
           =====                   =======         ======
           ViewAge(int)            0000569C 
               stack 1 = 00000000 ( 00000220 )
    -------------------------------------------------------------------------
CODE
  Relative segment, address: CODE_AREA 00005758 - 000057F7 (0xa0 bytes), align: 2
  Segment part 23.            Intra module refs:   Segment part 10
           ENTRY                   ADDRESS         REF BY
           =====                   =======         ======
           ViewFamilyLife(int)     00005758 
               stack 1 = 00000000 ( 00000218 )
    -------------------------------------------------------------------------
CODE
  Relative segment, address: CODE_AREA 000057F8 - 000058B7 (0xc0 bytes), align: 2
  Segment part 25.            Intra module refs:   Segment part 10
           ENTRY                   ADDRESS         REF BY
           =====                   =======         ======
           ViewHealth(int)         000057F8 
               stack 1 = 00000000 ( 00000220 )
    -------------------------------------------------------------------------
CODE
  Relative segment, address: CODE_AREA 000058B8 - 00005963 (0xac bytes), align: 2
  Segment part 27.            Intra module refs:   Segment part 10
           ENTRY                   ADDRESS         REF BY
           =====                   =======         ======
           ViewHunger(int)         000058B8 
               stack 1 = 00000000 ( 00000218 )
    -------------------------------------------------------------------------
CODE
  Relative segment, address: CODE_AREA 00005964 - 00005A0F (0xac bytes), align: 2
  Segment part 29.            Intra module refs:   Segment part 10
           ENTRY                   ADDRESS         REF BY
           =====                   =======         ======
           ViewHappiness(int)      00005964 
               stack 1 = 00000000 ( 00000218 )
    -------------------------------------------------------------------------
CODE
  Relative segment, address: CODE_AREA 00005A10 - 00005ABF (0xb0 bytes), align: 2
  Segment part 31.            Intra module refs:   Segment part 10
           ENTRY                   ADDRESS         REF BY
           =====                   =======         ======
           ViewDirtiness(int)      00005A10 
               stack 1 = 00000000 ( 00000218 )
    -------------------------------------------------------------------------
CODE
  Relative segment, address: CODE_AREA 00005AC0 - 00005B6B (0xac bytes), align: 2
  Segment part 33.            Intra module refs:   Segment part 10
           ENTRY                   ADDRESS         REF BY
           =====                   =======         ======
           ViewBoredom(int)        00005AC0 
               stack 1 = 00000000 ( 00000218 )
    -------------------------------------------------------------------------
CODE
  Relative segment, address: CODE_AREA 00005B6C - 00005C17 (0xac bytes), align: 2
  Segment part 35.            Intra module refs:   Segment part 10
           ENTRY                   ADDRESS         REF BY
           =====                   =======         ======
           ViewBehaviour(int)      00005B6C 
               stack 1 = 00000000 ( 00000218 )
    -------------------------------------------------------------------------
CODE
  Relative segment, address: CODE_AREA 00005C18 - 00005CB3 (0x9c bytes), align: 2
  Segment part 37.            Intra module refs:   Segment part 10
           ENTRY                   ADDRESS         REF BY
           =====                   =======         ======
           ViewFatigue(int)        00005C18 
               stack 1 = 00000000 ( 00000218 )
    -------------------------------------------------------------------------
CODE
  Relative segment, address: CODE_AREA 00005CB4 - 00005CB7 (0x4 bytes), align: 2
  Segment part 38.            Intra module refs:   ViewBehaviour(int)
                                                   ViewBoredom(int)
                                                   ViewDirtiness(int)
                                                   ViewFatigue(int)
                                                   ViewHappiness(int)
                                                   ViewHunger(int)
    -------------------------------------------------------------------------
CODE
  Relative segment, address: CODE_AREA 00005CB8 - 00005CBB (0x4 bytes), align: 2
  Segment part 39.            Intra module refs:   ViewAge(int)
                                                   ViewBehaviour(int)
                                                   ViewBoredom(int)
                                                   ViewDirtiness(int)
                                                   ViewFamilyLife(int)
                                                   ViewFatigue(int)
                                                   ViewHappiness(int)
                                                   ViewHealth(int)
                                                   ViewHunger(int)
                                                   ViewSex(int)
    -------------------------------------------------------------------------
CODE
  Relative segment, address: CODE_AREA 00005CBC - 00005F07 (0x24c bytes), align: 2
  Segment part 41.            Intra module refs:   CreateStatusList(void *, BOOK *)
           ENTRY                   ADDRESS         REF BY
           =====                   =======         ======
           status_list_callback(GUI_MESSAGE *)
                                   00005CBC 
               stack 1 = 00000000 ( 00000124 )
    -------------------------------------------------------------------------
CODE
  Relative segment, address: CODE_AREA 00005F08 - 00005F0B (0x4 bytes), align: 2
  Segment part 42.            Intra module refs:   ViewSex(int)
                                                   status_list_callback(GUI_MESSAGE *)
    -------------------------------------------------------------------------
CODE
  Relative segment, address: CODE_AREA 00005F0C - 00005F0F (0x4 bytes), align: 2
  Segment part 43.            Intra module refs:   ViewSex(int)
                                                   status_list_callback(GUI_MESSAGE *)
    -------------------------------------------------------------------------
CODE
  Relative segment, address: CODE_AREA 00005F10 - 00005F27 (0x18 bytes), align: 2
  Segment part 45.            Intra module refs:   CreateStatusList(void *, BOOK *)
           ENTRY                   ADDRESS         REF BY
           =====                   =======         ======
           DestroyStatusList(BOOK *, GUI *)
                                   00005F10 
               stack 1 = 00000000 ( 00000004 )
    -------------------------------------------------------------------------
CODE
  Relative segment, address: CODE_AREA 00005F28 - 00005F57 (0x30 bytes), align: 2
  Segment part 47.            Intra module refs:   CreateStatusList(void *, BOOK *)
           ENTRY                   ADDRESS         REF BY
           =====                   =======         ======
           CancelStatusList(BOOK *, GUI *)
                                   00005F28 
               stack 1 = 00000000 ( 0000000C )
    -------------------------------------------------------------------------
CODE
  Relative segment, address: CODE_AREA 00005F58 - 00005F87 (0x30 bytes), align: 2
  Segment part 49.            Intra module refs:   CreateStatusList(void *, BOOK *)
                                                   Status_OnKey(DISP_OBJ *, int, int, int, int)
           ENTRY                   ADDRESS         REF BY
           =====                   =======         ======
           Status_onEnter(BOOK *, GUI *)
                                   00005F58 
               stack 1 = 00000000 ( 0000000C )
    -------------------------------------------------------------------------
CODE
  Relative segment, address: CODE_AREA 00005F88 - 0000605B (0xd4 bytes), align: 2
  Segment part 51.            Intra module refs:   CreateStatusList(void *, BOOK *)
           ENTRY                   ADDRESS         REF BY
           =====                   =======         ======
           Status_OnKey(DISP_OBJ *, int, int, int, int)
                                   00005F88 
               stack 1 = 00000000 ( 00000020 )
    -------------------------------------------------------------------------
CODE
  Relative segment, address: CODE_AREA 0000605C - 0000605F (0x4 bytes), align: 2
  Segment part 52.            Intra module refs:   Status_OnKey(DISP_OBJ *, int, int, int, int)
                                                   ViewSex(int)
                                                   status_list_callback(GUI_MESSAGE *)
    -------------------------------------------------------------------------
CODE
  Relative segment, address: CODE_AREA 00006060 - 00006193 (0x134 bytes), align: 2
  Segment part 54.            Intra module refs:   Segment part 11
           ENTRY                   ADDRESS         REF BY
           =====                   =======         ======
           CreateStatusList(void *, BOOK *)
                                   00006060 
               stack 1 = 00000000 ( 00000010 )
    -------------------------------------------------------------------------
CODE
  Relative segment, address: CODE_AREA 00006194 - 00006197 (0x4 bytes), align: 2
  Segment part 55.            Intra module refs:   CreateStatusList(void *, BOOK *)
                                                   OnSelectSetSex(BOOK *, GUI *)
                                                   ViewAge(int)
                                                   ViewBehaviour(int)
                                                   ViewBoredom(int)
                                                   ViewDirtiness(int)
                                                   ViewFamilyLife(int)
                                                   ViewFatigue(int)
                                                   ViewHappiness(int)
                                                   ViewHealth(int)
                                                   ViewHunger(int)
                                                   ViewSex(int)
                                                   status_list_callback(GUI_MESSAGE *)
    -------------------------------------------------------------------------
CODE
  Relative segment, address: CODE_AREA 00006198 - 0000619B (0x4 bytes), align: 2
  Segment part 56.            Intra module refs:   CreateStatusList(void *, BOOK *)
                                                   ViewSex(int)
    -------------------------------------------------------------------------
CODE
  Relative segment, address: CODE_AREA 0000619C - 0000619F (0x4 bytes), align: 2
  Segment part 57.            Intra module refs:   CreateStatusList(void *, BOOK *)
                                                   ViewSex(int)
    -------------------------------------------------------------------------
CODE
  Relative segment, address: CODE_AREA 000061A0 - 000061A3 (0x4 bytes), align: 2
  Segment part 58.            Intra module refs:   CreateStatusList(void *, BOOK *)
                                                   OnCloseSetSex(BOOK *, GUI *)
                                                   OnSelectSetSex(BOOK *, GUI *)
                                                   ViewSex(int)
    -------------------------------------------------------------------------
CODE
  Relative segment, address: CODE_AREA 000061A4 - 000061C7 (0x24 bytes), align: 2
  Segment part 60.            Intra module refs:   Segment part 11
           ENTRY                   ADDRESS         REF BY
           =====                   =======         ======
           ExitStatusList(void *, BOOK *)
                                   000061A4 
               stack 1 = 00000000 ( 00000008 )
    -------------------------------------------------------------------------
DYN_PAGE
  Relative segment, address: CODE_AREA 0000AE00 - 0000AE1F (0x20 bytes), align: 2
  Segment part 11.            Intra module refs:   Segment part 13
    -------------------------------------------------------------------------
DATA_I
  Relative segment, address: DATA_AREA 000009F0 - 000009FB (0xc bytes), align: 2
  Segment part 12.            Intra module refs:   ShowStatus(BOOK *)
           ENTRY                   ADDRESS         REF BY
           =====                   =======         ======
           CreateStatus_page       000009F0 
    -------------------------------------------------------------------------
CODE
  Relative segment, address: CODE_AREA 000061C8 - 000061DB (0x14 bytes), align: 2
  Segment part 62.
           ENTRY                   ADDRESS         REF BY
           =====                   =======         ======
           ShowStatus(BOOK *)      000061C8        InfoStatus(int, BOOK *, int) (main)
               stack 1 = 00000000 ( 00000004 )
    -------------------------------------------------------------------------
DATA_ID
  Relative segment, address: CODE_AREA 000009C8 - 000009EF (0x28 bytes), align: 2
  Segment part 10.            Intra module refs:   Segment part 9
    -------------------------------------------------------------------------
DATA_ID
  Relative segment, address: CODE_AREA 000009F0 - 000009FB (0xc bytes), align: 2
  Segment part 13.            Intra module refs:   CreateStatus_page

    *************************************************************************

  FILE NAME : Z:\home\perk11\www\perk11.info\svn\SE\Tamagochi\Release_EN\Obj\strncmpi.r79
  PROGRAM MODULE, NAME : strncmpi

  SEGMENTS IN THE MODULE
  ======================
CODE
  Relative segment, address: CODE_AREA 000061DC - 000061F7 (0x1c bytes), align: 2
  Segment part 2.             Intra module refs:   toupper(int)
           ENTRY                   ADDRESS         REF BY
           =====                   =======         ======
           islower(int)            000061DC 
    -------------------------------------------------------------------------
CODE
  Relative segment, address: CODE_AREA 000061F8 - 00006213 (0x1c bytes), align: 2
  Segment part 3.             Intra module refs:   strncmpi(char const *, char const *, size_t)
           ENTRY                   ADDRESS         REF BY
           =====                   =======         ======
           toupper(int)            000061F8 
               stack 1 = 00000000 ( 00000008 )
    -------------------------------------------------------------------------
CODE
  Relative segment, address: CODE_AREA 00006214 - 0000628B (0x78 bytes), align: 2
  Segment part 5.
           ENTRY                   ADDRESS         REF BY
           =====                   =======         ======
           strncmpi(char const *, char const *, size_t)
                                   00006214        extractdir(wchar_t *, wchar_t *, char const *) (splitutils)
                                                   getdir(wchar_t *, char const *) (splitutils)
               stack 1 = 00000000 ( 00000014 )

    *************************************************************************

  FILE NAME : Z:\home\perk11\IAR2\arm\LIB\dl5tpainl8n.r79
  LIBRARY MODULE, NAME : ?div_module

  SEGMENTS IN THE MODULE
  ======================
CODE
  Relative segment, address: CODE_AREA 0000628C - 000062A3 (0x18 bytes), align: 2
  Segment part 11.
           ENTRY                   ADDRESS         REF BY
           =====                   =======         ======
           ??div32_a               0000628C        ViewBehaviour(int) (status)
                                                   ViewBoredom(int) (status)
                                                   ViewDirtiness(int) (status)
                                                   ViewHappiness(int) (status)
                                                   ViewHealth(int) (status)
                                                   ViewHunger(int) (status)
                                                   status_list_callback(GUI_MESSAGE *) (status)
    -------------------------------------------------------------------------
CODE
  Relative segment, address: CODE_AREA 000062A4 - 0000637B (0xd8 bytes), align: 2
  Segment part 12.            Intra module refs:   ??div32_a




                ****************************************
                *                                      *
                *      SEGMENTS IN ADDRESS ORDER       *
                *                                      *
                ****************************************


SEGMENT              SPACE    START ADDRESS   END ADDRESS     SIZE  TYPE  ALIGN
=======              =====    =============   ===========     ====  ====  =====
ELFBEGIN             CODE_AREA           00000000                     rel    0
DATA_ID              CODE_AREA      00000000 - 000009FB         9FC   rel    2
START                CODE_AREA           000009FC                     dse    0
CODE                 CODE_AREA      000009FC - 0000637B        5980   rel    2
DATA_C               CODE_AREA      0000637C - 00007A41        16C6   rel    2
INITTAB              CODE_AREA      00007A44 - 00007A5B          18   rel    2
DATA_Z               CODE_AREA      00007A5C - 0000A060        2605   rel    2
DATA_N               CODE_AREA           0000A061                     dse    0
CONFIG_C             CODE_AREA      0000A064 - 0000AD4F         CEC   rel    2
DYN_CONST            CODE_AREA      0000AD50 - 0000AD9B          4C   rel    2
DYN_CONST_DESC       CODE_AREA      0000AD9C - 0000AD9F           4   rel    2
DYN_PAGE             CODE_AREA      0000ADA0 - 0000AE1F          80   rel    2
DYN_PAGE_DESC        CODE_AREA      0000AE20 - 0000AE23           4   rel    2
DATA_I               DATA_AREA      00000000 - 000009FB         9FC   rel    2

                ****************************************
                *                                      *
                *        END OF CROSS REFERENCE        *
                *                                      *
                ****************************************

 44 575 bytes of CODE memory
  2 556 bytes of DATA memory

Errors: none
Warnings: none

