##############################################################################
#                                                                            #
# IAR ARM ANSI C/C++ Compiler V4.42A/W32 EVALUATION    10/Jun/2013  22:55:24 #
# Copyright 1999-2005 IAR Systems. All rights reserved.                      #
#                                                                            #
#    Cpu mode        =  interwork                                            #
#    Endian          =  little                                               #
#    Stack alignment =  4                                                    #
#    Source file     =  Z:\home\perk11\www\perk11.info\svn\SE\EvtEdit\addevt #
#                       .c                                                   #
#    Command line    =  Z:\home\perk11\www\perk11.info\svn\SE\EvtEdit\addevt #
#                       .c -D NDEBUG -D OLDFUNCTIONS -lC                     #
#                       Z:\home\perk11\www\perk11.info\svn\SE\EvtEdit\Releas #
#                       e\List\ -lA Z:\home\perk11\www\perk11.info\svn\SE\Ev #
#                       tEdit\Release\List\ -o Z:\home\perk11\www\perk11.inf #
#                       o\svn\SE\EvtEdit\Release\Obj\ -s9 --cpu_mode arm     #
#                       --endian little --cpu ARM926EJ-S --stack_align 4     #
#                       --interwork -e --enable_multibytes --fpu None        #
#                       --eec++ --dlib_config Z:\home\perk11\IAR2\arm\LIB\dl #
#                       5tpainl8n.h -I Z:\home\perk11\IAR2\arm\INC\          #
#                       --inline_threshold=2                                 #
#    List file       =  Z:\home\perk11\www\perk11.info\svn\SE\EvtEdit\Releas #
#                       e\List\addevt.lst                                    #
#    Object file     =  Z:\home\perk11\www\perk11.info\svn\SE\EvtEdit\Releas #
#                       e\Obj\addevt.r79                                     #
#                                                                            #
#                                                                            #
##############################################################################

Z:\home\perk11\www\perk11.info\svn\SE\EvtEdit\addevt.c
      1          #include "..\deleaker\mem2.h"
      2          #include "..\include\Lib_Clara.h" 
      3          #include "..\include\Dir.h" 
      4          #include "header\structs.h"
      5          #include "header\pages.h"
      6          #include "header\externals.h"
      7          #include "header\lng.h"
      8          
      9          int isEvtEditBook(BOOK *);
     10          #define ACTION_COUNT 50
     11          
     12          enum ACTION_TYPES {
     13            AT_STRING=0,
     14            AT_MUSICPATH,
     15            AT_ELFPATH,
     16            AT_FILEPATH,
     17            AT_PROFILE,
     18            AT_INT,
     19            AT_EXECUTE,
     20            AT_SHORTCUT,
     21            AT_JAVA,
     22            AT_NULL,
     23            AT_MUSICPATH_VOLUME,
     24            AT_PICTUREPATH,
     25            AT_PROFILE_2,
     26            AT_VOLUME,
     27            AT_CHOOSE_MENU_0,
     28            AT_CHOOSE_MENU_1,
     29            AT_CHOOSE_MENU_2,
     30            AT_CHOOSE_MENU_3,
     31            AT_CHOOSE_MENU_4,
     32            AT_VCALL,
     33            AT_THEME,
     34          };
     35          

   \                                 In segment DATA_I, align 4, align-sorted
     36          wchar_t *items[] = {L"Сообщение", L"Запуск эльфа", L"Ярлык", L"Java",L"Выключение телефона", L"Яркость", L"Фонарик: уст. яркость", L"Профиль", L"Рестарт", L"Музыка: воспр.", 
   \                     items:
   \   00000000                      DS8 168
   \   000000A8                      REQUIRE `?<Initializer for items>`
     37          L"Музыка: воспр. с громкостью", L"Обои: установить", L"Вибра", L"ГЭ: уст. заметку", L"ГЭ: уст. оператора", L"Закрыть книгу", L"Вкл. музыку/радио", L"Поменять расписание", L"Обновить", 
     38          L"Звук: выкл", L"Звук: вкл", L"ИК: вкл", L"ИК: выкл", L"ИК: мигнуть", L"Фонарик: мигнуть", L"(W580): отключить диоды", L"(W580): включить диоды", L"Оранж.диод: мигнуть", L"Оранж.диод: вкл. ", L"Оранж.диод: выкл", L"Важное событие", 
     39          L"Звонок: уст.громкость", L"Звонок: вибрация", L"Звонок: уст.файл", L"Звонок: способ приёма", L"Звонок: вкл.нарастание", L"Звонок: уст. приём вызовов", L"Голосовой вызов",L"Сменить тему",0,0,0};
     40          

   \                                 In segment DATA_I, align 4, align-sorted
     41          int ittypes[] = {AT_STRING,AT_ELFPATH,AT_SHORTCUT,AT_JAVA,AT_NULL,AT_INT,AT_INT,AT_PROFILE_2,AT_NULL,AT_MUSICPATH,AT_MUSICPATH_VOLUME,AT_PICTUREPATH,AT_INT,AT_STRING,AT_STRING,AT_STRING,AT_NULL,AT_EXECUTE,AT_NULL,AT_PROFILE,AT_PROFILE,AT_NULL,AT_NULL,AT_NULL, AT_NULL,
   \                     ittypes:
   \   00000000                      DS8 156
   \   0000009C                      REQUIRE `?<Initializer for ittypes>`
     42          AT_NULL, AT_NULL, AT_NULL, AT_NULL, AT_NULL, AT_STRING, AT_VOLUME, AT_CHOOSE_MENU_0, AT_MUSICPATH, AT_CHOOSE_MENU_1, AT_CHOOSE_MENU_2, AT_CHOOSE_MENU_3, AT_VCALL, AT_THEME};
     43          
     44          #define MUSIC 1
     45          #define ELF 2
     46          #define IMAGE 3
     47          #define EVT 4
     48          #define THM 5
     49          

   \                                 In segment DATA_Z, align 4, align-sorted
     50          int temp_act=0;
   \                     temp_act:
   \   00000000                      DS8 4
     51          wchar_t *old=0;
   \                     old:
   \   00000004                      DS8 4

   \                                 In segment CODE, align 4, keep-with-next
     52          void SelectEvent_OnEnter(BOOK *bk, GUI* )
     53          {
   \                     ??SelectEvent_OnEnter:
   \   00000000   F0472DE9           PUSH     {R4-R10,LR}
   \   00000004   0040A0E1           MOV      R4,R0
     54            MyBOOK *mbk=(MyBOOK *)bk;
     55            int item=ListMenu_GetSelectedItem(mbk->addgui);
   \   00000008   2C0094E5           LDR      R0,[R4, #+44]
   \   0000000C   3E0100EF           SWI      +318
   \   00000010   0050A0E1           MOV      R5,R0
     56            
     57            if (item!=mbk->selev->type)
   \   00000014   1C0094E5           LDR      R0,[R4, #+28]
   \   00000018   000090E5           LDR      R0,[R0, #+0]
   \   0000001C   000055E1           CMP      R5,R0
   \   00000020   0900000A           BEQ      ??SelectEvent_OnEnter_1
     58            {
     59              mbk->selev->type=item;
   \   00000024   1C0094E5           LDR      R0,[R4, #+28]
   \   00000028   005080E5           STR      R5,[R0, #+0]
     60              mbk->selev->param=new wchar_t[2];
   \   0000002C   0400A0E3           MOV      R0,#+4
   \   00000030   ........           _BLF     `??operator new[]`,`??operator new[]??rA`
   \   00000034   1C1094E5           LDR      R1,[R4, #+28]
   \   00000038   340081E5           STR      R0,[R1, #+52]
     61              wstrcpy(mbk->selev->param,L"0");
   \   0000003C   1C0094E5           LDR      R0,[R4, #+28]
   \   00000040   D21F8FE2           ADR      R1,??SelectEvent_OnEnter_2  ;; 0x30, 0x00, 0x00, 0x00
   \   00000044   340090E5           LDR      R0,[R0, #+52]
   \   00000048   520100EF           SWI      +338
   \                     ??SelectEvent_OnEnter_1:
   \   0000004C   40039FE5           LDR      R0,??SelectEvent_OnEnter_2+0x4  ;; ittypes
   \   00000050   6430A0E3           MOV      R3,#+100
   \   00000054   052190E7           LDR      R2,[R0, +R5, LSL #+2]
   \   00000058   38039FE5           LDR      R0,??SelectEvent_OnEnter_2+0x8  ;; bk_StringInput
   \   0000005C   00C0E0E3           MVN      R12,#+0
   \   00000060   01E0A0E3           MOV      LR,#+1
   \   00000064   0050A0E3           MOV      R5,#+0
   \   00000068   000052E3           CMP      R2,#+0
   \   0000006C   0100001A           BNE      ??SelectEvent_OnEnter_3
     62            }
     63            
     64            if (ittypes[item]==AT_STRING)
     65            {
     66              mbk->inputType=IT_STRING;
   \   00000070   44E084E5           STR      LR,[R4, #+68]
     67              mbk->minint=-1;
   \   00000074   570000EA           B        ??SelectEvent_OnEnter_4
     68              mbk->maxint=100;
     69              mbk->TextInputType=0;
     70              BookObj_CallPage(bk,&bk_StringInput);
     71            }
     72            else if (ittypes[item]==AT_EXECUTE)
   \                     ??SelectEvent_OnEnter_3:
   \   00000078   1C139FE5           LDR      R1,??SelectEvent_OnEnter_2+0xC  ;; SelectFile_page
   \   0000007C   0980A0E3           MOV      R8,#+9
   \   00000080   0460A0E3           MOV      R6,#+4
   \   00000084   0870A0E3           MOV      R7,#+8
   \   00000088   060052E3           CMP      R2,#+6
   \   0000008C   0400001A           BNE      ??SelectEvent_OnEnter_5
     73            {
     74              mbk->selectfiletype=0;
   \   00000090   805084E5           STR      R5,[R4, #+128]
     75              mbk->fType=EVT;
   \   00000094   7C6084E5           STR      R6,[R4, #+124]
     76              mbk->dir1=DIR_OTHER+MEM_INTERNAL;
   \   00000098   748084E5           STR      R8,[R4, #+116]
     77              mbk->dir2=DIR_OTHER+MEM_EXTERNAL;
   \   0000009C   787084E5           STR      R7,[R4, #+120]
     78              BookObj_CallPage(bk,&SelectFile_page);
   \   000000A0   500000EA           B        ??SelectEvent_OnEnter_6
     79            }
     80            else if (ittypes[item]==AT_INT)
   \                     ??SelectEvent_OnEnter_5:
   \   000000A4   050052E3           CMP      R2,#+5
   \   000000A8   0400001A           BNE      ??SelectEvent_OnEnter_7
     81            {
     82              mbk->TextInputType=0;
   \   000000AC   405084E5           STR      R5,[R4, #+64]
     83              mbk->inputType=IT_UNSIGNED_DIGIT;
   \   000000B0   448084E5           STR      R8,[R4, #+68]
     84              mbk->minint=0;
   \   000000B4   385084E5           STR      R5,[R4, #+56]
     85              mbk->maxint=100;
   \   000000B8   3C3084E5           STR      R3,[R4, #+60]
     86              BookObj_CallPage(bk,&bk_StringInput);
   \   000000BC   480000EA           B        ??SelectEvent_OnEnter_8
     87            }
     88            else if (ittypes[item]==AT_SHORTCUT)
   \                     ??SelectEvent_OnEnter_7:
   \   000000C0   070052E3           CMP      R2,#+7
     89            {
     90              BookObj_CallPage(bk,&SelectShortcut_page);
   \   000000C4   D4129F05           LDREQ    R1,??SelectEvent_OnEnter_2+0x10  ;; SelectShortcut_page
   \   000000C8   8000000A           BEQ      ??SelectEvent_OnEnter_9
     91            }
     92            else if (ittypes[item]==AT_MUSICPATH)
   \   000000CC   010052E3           CMP      R2,#+1
   \   000000D0   0400001A           BNE      ??SelectEvent_OnEnter_10
     93            {
     94              mbk->selectfiletype=0;
   \   000000D4   805084E5           STR      R5,[R4, #+128]
     95              mbk->fType=MUSIC;
   \   000000D8   7CE084E5           STR      LR,[R4, #+124]
     96              mbk->dir1=DIR_AUDIO+MEM_INTERNAL;
   \   000000DC   74E084E5           STR      LR,[R4, #+116]
     97              mbk->dir2=DIR_AUDIO+MEM_EXTERNAL;
   \   000000E0   785084E5           STR      R5,[R4, #+120]
     98              BookObj_CallPage(bk,&SelectFile_page);
   \   000000E4   3F0000EA           B        ??SelectEvent_OnEnter_6
     99            }
    100            else if (ittypes[item]==AT_THEME)
   \                     ??SelectEvent_OnEnter_10:
   \   000000E8   0680A0E3           MOV      R8,#+6
   \   000000EC   140052E3           CMP      R2,#+20
   \   000000F0   0600001A           BNE      ??SelectEvent_OnEnter_11
    101            {
    102              mbk->selectfiletype=0;
   \   000000F4   805084E5           STR      R5,[R4, #+128]
    103              mbk->fType=THM;
   \   000000F8   0500A0E3           MOV      R0,#+5
   \   000000FC   7C0084E5           STR      R0,[R4, #+124]
    104              mbk->dir1=DIR_THEME+MEM_INTERNAL;
   \   00000100   0700A0E3           MOV      R0,#+7
   \   00000104   740084E5           STR      R0,[R4, #+116]
    105              mbk->dir2=DIR_THEME+MEM_EXTERNAL;
   \   00000108   788084E5           STR      R8,[R4, #+120]
    106              BookObj_CallPage(bk,&SelectFile_page);
   \   0000010C   350000EA           B        ??SelectEvent_OnEnter_6
    107            }
    108            else if (ittypes[item]==AT_ELFPATH)
   \                     ??SelectEvent_OnEnter_11:
   \   00000110   02A0A0E3           MOV      R10,#+2
   \   00000114   020052E3           CMP      R2,#+2
   \   00000118   0600001A           BNE      ??SelectEvent_OnEnter_12
    109            {
    110              mbk->selectfiletype=0;
   \   0000011C   805084E5           STR      R5,[R4, #+128]
    111              mbk->fType=ELF;
   \   00000120   7CA084E5           STR      R10,[R4, #+124]
    112              mbk->dir1=DIR_ELFS+MEM_INTERNAL;
   \   00000124   1100A0E3           MOV      R0,#+17
   \   00000128   740084E5           STR      R0,[R4, #+116]
    113              mbk->dir2=DIR_ELFS+MEM_EXTERNAL;
   \   0000012C   1000A0E3           MOV      R0,#+16
   \   00000130   780084E5           STR      R0,[R4, #+120]
    114              BookObj_CallPage(bk,&SelectFile_page);
   \   00000134   2B0000EA           B        ??SelectEvent_OnEnter_6
    115            }
    116            else if (ittypes[item]==AT_PICTUREPATH)
   \                     ??SelectEvent_OnEnter_12:
   \   00000138   0390A0E3           MOV      R9,#+3
   \   0000013C   0B0052E3           CMP      R2,#+11
   \   00000140   0400001A           BNE      ??SelectEvent_OnEnter_13
    117            {
    118              mbk->selectfiletype=0;
   \   00000144   805084E5           STR      R5,[R4, #+128]
    119              mbk->fType=IMAGE;
   \   00000148   7C9084E5           STR      R9,[R4, #+124]
    120              mbk->dir1=DIR_IMAGE+MEM_INTERNAL;
   \   0000014C   749084E5           STR      R9,[R4, #+116]
    121              mbk->dir2=DIR_IMAGE+MEM_EXTERNAL;
   \   00000150   78A084E5           STR      R10,[R4, #+120]
    122              BookObj_CallPage(bk,&SelectFile_page);
   \   00000154   230000EA           B        ??SelectEvent_OnEnter_6
    123            }
    124            else if (ittypes[item]==AT_JAVA)
   \                     ??SelectEvent_OnEnter_13:
   \   00000158   080052E3           CMP      R2,#+8
    125            {
    126              BookObj_CallPage(bk,&SetJava_page);
   \   0000015C   40129F05           LDREQ    R1,??SelectEvent_OnEnter_2+0x14  ;; SetJava_page
   \   00000160   5A00000A           BEQ      ??SelectEvent_OnEnter_9
    127            }
    128            else if (ittypes[item]==AT_PROFILE)
   \   00000164   3C129FE5           LDR      R1,??SelectEvent_OnEnter_2+0x18  ;; bk_profiles
   \   00000168   040052E3           CMP      R2,#+4
    129            {
    130              mbk->prof_type=0;
   \   0000016C   9C508405           STREQ    R5,[R4, #+156]
    131              BookObj_CallPage(bk,&bk_profiles);
   \   00000170   5600000A           BEQ      ??SelectEvent_OnEnter_9
    132            }
    133            else if (ittypes[item]==AT_PROFILE_2)
   \   00000174   0C0052E3           CMP      R2,#+12
    134            {
    135              mbk->prof_type=1;
   \   00000178   9CE08405           STREQ    LR,[R4, #+156]
    136              BookObj_CallPage(bk,&bk_profiles);
   \   0000017C   5300000A           BEQ      ??SelectEvent_OnEnter_9
    137            }
    138            else if (ittypes[item]==AT_MUSICPATH_VOLUME)
   \   00000180   24129FE5           LDR      R1,??SelectEvent_OnEnter_2+0x1C  ;; bk_VolInput
   \   00000184   0A0052E3           CMP      R2,#+10
   \   00000188   0800001A           BNE      ??SelectEvent_OnEnter_14
    139            {
    140              mbk->fType=MUSIC;
   \   0000018C   7CE084E5           STR      LR,[R4, #+124]
    141              mbk->dir1=DIR_AUDIO+MEM_INTERNAL;
   \   00000190   74E084E5           STR      LR,[R4, #+116]
    142              mbk->dir2=DIR_AUDIO+MEM_EXTERNAL;
   \   00000194   785084E5           STR      R5,[R4, #+120]
    143              mbk->selectfiletype=1;
   \   00000198   80E084E5           STR      LR,[R4, #+128]
    144              mbk->curvol=6;
   \   0000019C   8C8084E5           STR      R8,[R4, #+140]
    145              mbk->maxvol=8;
   \   000001A0   907084E5           STR      R7,[R4, #+144]
    146              mbk->vol_mod=1;
   \   000001A4   94E084E5           STR      LR,[R4, #+148]
    147              mbk->vol_type=0;
   \   000001A8   985084E5           STR      R5,[R4, #+152]
    148              BookObj_CallPage(bk,&bk_VolInput);
   \   000001AC   0D0000EA           B        ??SelectEvent_OnEnter_6
    149            }
    150            else if (ittypes[item]==AT_VOLUME)
   \                     ??SelectEvent_OnEnter_14:
   \   000001B0   0D0052E3           CMP      R2,#+13
   \   000001B4   0400001A           BNE      ??SelectEvent_OnEnter_15
    151            {
    152              mbk->curvol=4;
   \   000001B8   8C6084E5           STR      R6,[R4, #+140]
    153              mbk->maxvol=8;
   \   000001BC   907084E5           STR      R7,[R4, #+144]
    154              mbk->vol_mod=1;
   \   000001C0   94E084E5           STR      LR,[R4, #+148]
    155              mbk->vol_type=1;
   \   000001C4   98E084E5           STR      LR,[R4, #+152]
    156              BookObj_CallPage(bk,&bk_VolInput);
   \   000001C8   060000EA           B        ??SelectEvent_OnEnter_6
    157            }
    158            else if (ittypes[item]==AT_VCALL)
   \                     ??SelectEvent_OnEnter_15:
   \   000001CC   130052E3           CMP      R2,#+19
   \   000001D0   0700001A           BNE      ??SelectEvent_OnEnter_16
    159            {
    160              mbk->inputType=IT_PHONE_NUMBER;
   \   000001D4   449084E5           STR      R9,[R4, #+68]
    161              mbk->minint=-1;
   \                     ??SelectEvent_OnEnter_4:
   \   000001D8   38C084E5           STR      R12,[R4, #+56]
    162              mbk->maxint=100;
   \   000001DC   3C3084E5           STR      R3,[R4, #+60]
    163              mbk->TextInputType=0;
   \   000001E0   405084E5           STR      R5,[R4, #+64]
    164              BookObj_CallPage(bk,&bk_StringInput);
   \                     ??SelectEvent_OnEnter_8:
   \   000001E4   0010A0E1           MOV      R1,R0
   \                     ??SelectEvent_OnEnter_6:
   \   000001E8   0400A0E1           MOV      R0,R4
   \   000001EC   B80200EF           SWI      +696
   \   000001F0   F087BDE8           POP      {R4-R10,PC}
    165            }
    166            else if (ittypes[item]==AT_CHOOSE_MENU_0)
   \                     ??SelectEvent_OnEnter_16:
   \   000001F4   B4519FE5           LDR      R5,??SelectEvent_OnEnter_2+0x20  ;; bk_Switch
   \   000001F8   B4619FE5           LDR      R6,??SelectEvent_OnEnter_2+0x24  ;; lng
   \   000001FC   0E0052E3           CMP      R2,#+14
   \   00000200   1200001A           BNE      ??SelectEvent_OnEnter_17
    167            {
    168              extern const PAGE_DESC bk_Switch;
    169              if (!mbk->switch_lst)
   \   00000204   B40094E5           LDR      R0,[R4, #+180]
   \   00000208   000050E3           CMP      R0,#+0
   \   0000020C   0100001A           BNE      ??SelectEvent_OnEnter_18
    170                mbk->switch_lst=List_Create();
   \   00000210   690100EF           SWI      +361
   \   00000214   B40084E5           STR      R0,[R4, #+180]
    171              wchar_t *n1=new wchar_t[30];
   \                     ??SelectEvent_OnEnter_18:
   \   00000218   3C00A0E3           MOV      R0,#+60
   \   0000021C   ........           _BLF     `??operator new[]`,`??operator new[]??rA`
    172              wstrcpy(n1, lng[OFF]);
   \   00000220   7C1096E5           LDR      R1,[R6, #+124]
   \   00000224   0070A0E1           MOV      R7,R0
   \   00000228   520100EF           SWI      +338
    173              wchar_t *n2=new wchar_t[30];
   \   0000022C   3C00A0E3           MOV      R0,#+60
   \   00000230   ........           _BLF     `??operator new[]`,`??operator new[]??rA`
    174              wstrcpy(n2, lng[ON]);
   \   00000234   801096E5           LDR      R1,[R6, #+128]
   \   00000238   0080A0E1           MOV      R8,R0
   \   0000023C   520100EF           SWI      +338
    175              wchar_t *n3=new wchar_t[30];
   \   00000240   3C00A0E3           MOV      R0,#+60
   \   00000244   ........           _BLF     `??operator new[]`,`??operator new[]??rA`
    176              wstrcpy(n3, lng[ON_WOUT_SOUND]);
   \   00000248   841096E5           LDR      R1,[R6, #+132]
   \   0000024C   130000EA           B        ??SelectEvent_OnEnter_19
    177              List_InsertLast(mbk->switch_lst,n1);
    178              List_InsertLast(mbk->switch_lst,n2);
    179              List_InsertLast(mbk->switch_lst,n3);
    180              BookObj_CallPage(bk,&bk_Switch);
    181            }
    182            else if (ittypes[item]==AT_CHOOSE_MENU_1)
   \                     ??SelectEvent_OnEnter_17:
   \   00000250   0F0052E3           CMP      R2,#+15
   \   00000254   2000001A           BNE      ??SelectEvent_OnEnter_20
    183            {
    184              extern const PAGE_DESC bk_Switch;
    185              if (!mbk->switch_lst)
   \   00000258   B40094E5           LDR      R0,[R4, #+180]
   \   0000025C   000050E3           CMP      R0,#+0
   \   00000260   0100001A           BNE      ??SelectEvent_OnEnter_21
    186                mbk->switch_lst=List_Create();
   \   00000264   690100EF           SWI      +361
   \   00000268   B40084E5           STR      R0,[R4, #+180]
    187              wchar_t *n1=new wchar_t[30];
   \                     ??SelectEvent_OnEnter_21:
   \   0000026C   3C00A0E3           MOV      R0,#+60
   \   00000270   ........           _BLF     `??operator new[]`,`??operator new[]??rA`
    188              wstrcpy(n1, lng[TYPICAL]);
   \   00000274   881096E5           LDR      R1,[R6, #+136]
   \   00000278   0070A0E1           MOV      R7,R0
   \   0000027C   520100EF           SWI      +338
    189              wchar_t *n2=new wchar_t[30];
   \   00000280   3C00A0E3           MOV      R0,#+60
   \   00000284   ........           _BLF     `??operator new[]`,`??operator new[]??rA`
    190              wstrcpy(n2, lng[ANY_KEY]);
   \   00000288   8C1096E5           LDR      R1,[R6, #+140]
   \   0000028C   0080A0E1           MOV      R8,R0
   \   00000290   520100EF           SWI      +338
    191              wchar_t *n3=new wchar_t[30];
   \   00000294   3C00A0E3           MOV      R0,#+60
   \   00000298   ........           _BLF     `??operator new[]`,`??operator new[]??rA`
    192              wstrcpy(n3, lng[AUTO]);
   \   0000029C   901096E5           LDR      R1,[R6, #+144]
   \                     ??SelectEvent_OnEnter_19:
   \   000002A0   0090A0E1           MOV      R9,R0
   \   000002A4   520100EF           SWI      +338
    193              List_InsertLast(mbk->switch_lst,n1);
   \   000002A8   B40094E5           LDR      R0,[R4, #+180]
   \   000002AC   0710A0E1           MOV      R1,R7
   \   000002B0   B00100EF           SWI      +432
    194              List_InsertLast(mbk->switch_lst,n2);
   \   000002B4   B40094E5           LDR      R0,[R4, #+180]
   \   000002B8   0810A0E1           MOV      R1,R8
   \   000002BC   B00100EF           SWI      +432
    195              List_InsertLast(mbk->switch_lst,n3);
   \   000002C0   0910A0E1           MOV      R1,R9
   \                     ??SelectEvent_OnEnter_22:
   \   000002C4   B40094E5           LDR      R0,[R4, #+180]
   \   000002C8   B00100EF           SWI      +432
    196              BookObj_CallPage(bk,&bk_Switch);
   \   000002CC   0510A0E1           MOV      R1,R5
   \                     ??SelectEvent_OnEnter_9:
   \   000002D0   0400A0E1           MOV      R0,R4
   \   000002D4   B80200EF           SWI      +696
   \   000002D8   F087BDE8           POP      {R4-R10,PC}
    197            }
    198            else if (ittypes[item]==AT_CHOOSE_MENU_2)
   \                     ??SelectEvent_OnEnter_20:
   \   000002DC   100052E3           CMP      R2,#+16
   \   000002E0   1300001A           BNE      ??SelectEvent_OnEnter_23
    199            {
    200              extern const PAGE_DESC bk_Switch;
    201              if (!mbk->switch_lst)
   \   000002E4   B40094E5           LDR      R0,[R4, #+180]
   \   000002E8   000050E3           CMP      R0,#+0
   \   000002EC   0100001A           BNE      ??SelectEvent_OnEnter_24
    202                mbk->switch_lst=List_Create();
   \   000002F0   690100EF           SWI      +361
   \   000002F4   B40084E5           STR      R0,[R4, #+180]
    203              wchar_t *n1=new wchar_t[30];
   \                     ??SelectEvent_OnEnter_24:
   \   000002F8   3C00A0E3           MOV      R0,#+60
   \   000002FC   ........           _BLF     `??operator new[]`,`??operator new[]??rA`
    204              wstrcpy(n1, lng[OFF]);
   \   00000300   7C1096E5           LDR      R1,[R6, #+124]
   \   00000304   0070A0E1           MOV      R7,R0
   \   00000308   520100EF           SWI      +338
    205              wchar_t *n2=new wchar_t[30];
   \   0000030C   3C00A0E3           MOV      R0,#+60
   \   00000310   ........           _BLF     `??operator new[]`,`??operator new[]??rA`
    206              wstrcpy(n2, lng[ON]);
   \   00000314   801096E5           LDR      R1,[R6, #+128]
   \   00000318   0080A0E1           MOV      R8,R0
   \   0000031C   520100EF           SWI      +338
    207              List_InsertLast(mbk->switch_lst,n1);
   \   00000320   B40094E5           LDR      R0,[R4, #+180]
   \   00000324   0710A0E1           MOV      R1,R7
   \   00000328   B00100EF           SWI      +432
    208              List_InsertLast(mbk->switch_lst,n2);
   \   0000032C   0810A0E1           MOV      R1,R8
   \   00000330   E3FFFFEA           B        ??SelectEvent_OnEnter_22
    209              BookObj_CallPage(bk,&bk_Switch);
    210            }
    211            else if (ittypes[item]==AT_CHOOSE_MENU_3)
   \                     ??SelectEvent_OnEnter_23:
   \   00000334   110052E3           CMP      R2,#+17
   \   00000338   1200001A           BNE      ??SelectEvent_OnEnter_25
    212            {
    213              extern const PAGE_DESC bk_Switch;
    214              if (!mbk->switch_lst)
   \   0000033C   B40094E5           LDR      R0,[R4, #+180]
   \   00000340   000050E3           CMP      R0,#+0
   \   00000344   0100001A           BNE      ??SelectEvent_OnEnter_26
    215                mbk->switch_lst=List_Create();
   \   00000348   690100EF           SWI      +361
   \   0000034C   B40084E5           STR      R0,[R4, #+180]
    216              wchar_t *n1=new wchar_t[30];
   \                     ??SelectEvent_OnEnter_26:
   \   00000350   3C00A0E3           MOV      R0,#+60
   \   00000354   ........           _BLF     `??operator new[]`,`??operator new[]??rA`
    217              wstrcpy(n1, lng[ALLOW_ALL]);
   \   00000358   941096E5           LDR      R1,[R6, #+148]
   \   0000035C   0070A0E1           MOV      R7,R0
   \   00000360   520100EF           SWI      +338
    218              wchar_t *n2=new wchar_t[30];
   \   00000364   3C00A0E3           MOV      R0,#+60
   \   00000368   ........           _BLF     `??operator new[]`,`??operator new[]??rA`
    219              wstrcpy(n2, lng[FROM_LIST]);
   \   0000036C   981096E5           LDR      R1,[R6, #+152]
   \   00000370   0080A0E1           MOV      R8,R0
   \   00000374   520100EF           SWI      +338
    220              wchar_t *n3=new wchar_t[30];
   \   00000378   3C00A0E3           MOV      R0,#+60
   \   0000037C   ........           _BLF     `??operator new[]`,`??operator new[]??rA`
    221              wstrcpy(n3, lng[NO]);
   \   00000380   9C1096E5           LDR      R1,[R6, #+156]
   \   00000384   C5FFFFEA           B        ??SelectEvent_OnEnter_19
    222              List_InsertLast(mbk->switch_lst,n1);
    223              List_InsertLast(mbk->switch_lst,n2);
    224              List_InsertLast(mbk->switch_lst,n3);
    225              BookObj_CallPage(bk,&bk_Switch);
    226            }
    227            else
    228            {
    229              BookObj_CallPage(bk,&bk_main);
   \                     ??SelectEvent_OnEnter_25:
   \   00000388   28109FE5           LDR      R1,??SelectEvent_OnEnter_2+0x28  ;; bk_main
   \   0000038C   95FFFFEA           B        ??SelectEvent_OnEnter_6
   \                     ??SelectEvent_OnEnter_2:
   \   00000390   30000000           DC8      0x30, 0x00, 0x00, 0x00
   \   00000394   ........           DC32     ittypes
   \   00000398   ........           DC32     bk_StringInput
   \   0000039C   ........           DC32     SelectFile_page
   \   000003A0   ........           DC32     SelectShortcut_page
   \   000003A4   ........           DC32     SetJava_page
   \   000003A8   ........           DC32     bk_profiles
   \   000003AC   ........           DC32     bk_VolInput
   \   000003B0   ........           DC32     bk_Switch
   \   000003B4   ........           DC32     lng
   \   000003B8   ........           DC32     bk_main
    230            }
    231          };
    232          

   \                                 In segment CODE, align 4, keep-with-next
    233          void SelectEvent_OnBack(BOOK *bk, GUI* )
    234          {
   \                     ??SelectEvent_OnBack:
   \   00000000   30402DE9           PUSH     {R4,R5,LR}
    235            MyBOOK *mbk=(MyBOOK *)bk;
    236            mbk->selev->type=temp_act;
   \   00000004   ........           LDR      R5,??DataTable3  ;; temp_act
   \   00000008   0040A0E1           MOV      R4,R0
   \   0000000C   1C0094E5           LDR      R0,[R4, #+28]
   \   00000010   001095E5           LDR      R1,[R5, #+0]
   \   00000014   001080E5           STR      R1,[R0, #+0]
    237            if (old)
   \   00000018   040095E5           LDR      R0,[R5, #+4]
   \   0000001C   000050E3           CMP      R0,#+0
   \   00000020   0800000A           BEQ      ??SelectEvent_OnBack_1
    238            {
    239              if (mbk->selev->param!=old)
   \   00000024   1C1094E5           LDR      R1,[R4, #+28]
   \   00000028   341091E5           LDR      R1,[R1, #+52]
   \   0000002C   000051E1           CMP      R1,R0
   \   00000030   0100000A           BEQ      ??SelectEvent_OnBack_2
    240              {
    241                delete(mbk->selev->param);
   \   00000034   0100A0E1           MOV      R0,R1
   \   00000038   ........           _BLF     `??operator delete`,`??operator delete??rA`
    242              }
    243              mbk->selev->param=old;
   \                     ??SelectEvent_OnBack_2:
   \   0000003C   1C0094E5           LDR      R0,[R4, #+28]
   \   00000040   041095E5           LDR      R1,[R5, #+4]
   \   00000044   341080E5           STR      R1,[R0, #+52]
    244            }
    245            BookObj_ReturnPage(bk, PREVIOUS_EVENT);
   \                     ??SelectEvent_OnBack_1:
   \   00000048   0C009FE5           LDR      R0,??SelectEvent_OnBack_3  ;; PREVIOUS_EVENT
   \   0000004C   001090E5           LDR      R1,[R0, #+0]
   \   00000050   0400A0E1           MOV      R0,R4
   \   00000054   2E0100EF           SWI      +302
    246          };
   \   00000058   3080BDE8           POP      {R4,R5,PC}       ;; return
   \                     ??SelectEvent_OnBack_3:
   \   0000005C   ........           DC32     PREVIOUS_EVENT
    247          

   \                                 In segment CODE, align 4, keep-with-next
    248          int GetNumOfActions()
    249          {
    250            int num=0;
   \                     ??GetNumOfActions:
   \   00000000   0000A0E3           MOV      R0,#+0
    251            int x;
    252            for (x=0;x<ACTION_COUNT;x++)
   \   00000004   0010A0E3           MOV      R1,#+0
    253            {
    254              if (items[x])
   \                     ??GetNumOfActions_1:
   \   00000008   ........           LDR      R2,??DataTable2  ;; items
   \   0000000C   012192E7           LDR      R2,[R2, +R1, LSL #+2]
   \   00000010   000052E3           CMP      R2,#+0
   \   00000014   1EFF2F01           BXEQ     LR
    255              {
    256                num++;
   \   00000018   010080E2           ADD      R0,R0,#+1
    257              }
   \   0000001C   011081E2           ADD      R1,R1,#+1
   \   00000020   320051E3           CMP      R1,#+50
   \   00000024   F7FFFFBA           BLT      ??GetNumOfActions_1
    258              else
    259              {
    260                return num;
   \   00000028   1EFF2FE1           BX       LR               ;; return
    261              }
    262            }
    263            return num;
    264          };
    265          

   \                                 In segment CODE, align 4, keep-with-next
    266          int SelectEvent_onLBMessage(GUI_MESSAGE * msg)
    267          {
   \                     ??SelectEvent_onLBMessage:
   \   00000000   10402DE9           PUSH     {R4,LR}
   \   00000004   0040A0E1           MOV      R4,R0
    268            MyBOOK * myBook = (MyBOOK *) FindBook(isEvtEditBook);
   \   00000008   44009FE5           LDR      R0,??SelectEvent_onLBMessage_1  ;; ??isEvtEditBook
   \   0000000C   300100EF           SWI      +304
    269            switch( GUIonMessage_GetMsg(msg) )
   \   00000010   0400A0E1           MOV      R0,R4
   \   00000014   740300EF           SWI      +884
   \   00000018   010050E3           CMP      R0,#+1
   \   0000001C   0A00001A           BNE      ??SelectEvent_onLBMessage_2
    270            {
    271            case 1:
    272              int item=GUIonMessage_GetCreatedItemIndex(msg);
   \   00000020   0400A0E1           MOV      R0,R4
   \   00000024   370100EF           SWI      +311
    273              GUIonMessage_SetMenuItemText(msg,TextID_Create(items[item],ENC_UCS2,TEXTID_ANY_LEN));
   \   00000028   ........           LDR      R3,??DataTable2  ;; items
   \   0000002C   FF20A0E3           MOV      R2,#+255
   \   00000030   000193E7           LDR      R0,[R3, +R0, LSL #+2]
   \   00000034   FF2C82E3           ORR      R2,R2,#0xFF00
   \   00000038   0010A0E3           MOV      R1,#+0
   \   0000003C   5D0100EF           SWI      +349
   \   00000040   0010A0E1           MOV      R1,R0
   \   00000044   0400A0E1           MOV      R0,R4
   \   00000048   380100EF           SWI      +312
    274              break;
    275            }
    276            return(1);
   \                     ??SelectEvent_onLBMessage_2:
   \   0000004C   0100A0E3           MOV      R0,#+1
   \   00000050   1080BDE8           POP      {R4,PC}          ;; return
   \                     ??SelectEvent_onLBMessage_1:
   \   00000054   ........           DC32     ??isEvtEditBook
    277          };
    278          

   \                                 In segment CODE, align 4, keep-with-next
    279          GUI_LIST * SelectEvent_CreateGui(MyBOOK * mbk)
    280          {
   \                     ??SelectEvent_CreateGui:
   \   00000000   10402DE9           PUSH     {R4,LR}
    281            GUI_LIST * lo=0;
    282            if (lo=CreateListMenu(&mbk->book,0))
   \   00000004   0010A0E3           MOV      R1,#+0
   \   00000008   C00100EF           SWI      +448
   \   0000000C   0040B0E1           MOVS     R4,R0
   \   00000010   2300000A           BEQ      ??SelectEvent_CreateGui_1
    283            {
    284              GUIObject_SetTitleText(lo,TextID_Create(lng[ACTIONS],ENC_UCS2,TEXTID_ANY_LEN));
   \   00000014   90009FE5           LDR      R0,??SelectEvent_CreateGui_2  ;; lng + 260
   \   00000018   FF20A0E3           MOV      R2,#+255
   \   0000001C   000090E5           LDR      R0,[R0, #+0]
   \   00000020   FF2C82E3           ORR      R2,R2,#0xFF00
   \   00000024   0010A0E3           MOV      R1,#+0
   \   00000028   5D0100EF           SWI      +349
   \   0000002C   0010A0E1           MOV      R1,R0
   \   00000030   0400A0E1           MOV      R0,R4
   \   00000034   330100EF           SWI      +307
    285              int num=GetNumOfActions();
   \   00000038   ........           BL       ??GetNumOfActions
    286              ListMenu_SetItemCount(lo,num);
   \   0000003C   0010A0E1           MOV      R1,R0
   \   00000040   0400A0E1           MOV      R0,R4
   \   00000044   C10100EF           SWI      +449
    287              ListMenu_SetOnMessage(lo,SelectEvent_onLBMessage);
   \   00000048   60109FE5           LDR      R1,??SelectEvent_CreateGui_2+0x4  ;; ??SelectEvent_onLBMessage
   \   0000004C   0400A0E1           MOV      R0,R4
   \   00000050   740100EF           SWI      +372
    288              ListMenu_SetItemStyle(lo,0);
   \   00000054   0010A0E3           MOV      R1,#+0
   \   00000058   0400A0E1           MOV      R0,R4
   \   0000005C   3F0100EF           SWI      +319
    289              GUIObject_SoftKeys_SetAction(lo,ACTION_BACK, SelectEvent_OnBack);
   \   00000060   4C009FE5           LDR      R0,??SelectEvent_CreateGui_2+0x8  ;; ACTION_BACK
   \   00000064   4C209FE5           LDR      R2,??SelectEvent_CreateGui_2+0xC  ;; ??SelectEvent_OnBack
   \   00000068   001090E5           LDR      R1,[R0, #+0]
   \   0000006C   0400A0E1           MOV      R0,R4
   \   00000070   0118A0E1           MOV      R1,R1, LSL #+16
   \   00000074   2118A0E1           MOV      R1,R1, LSR #+16
   \   00000078   4B0100EF           SWI      +331
    290              GUIObject_SoftKeys_SetAction(lo,ACTION_SELECT1,SelectEvent_OnEnter);
   \   0000007C   38009FE5           LDR      R0,??SelectEvent_CreateGui_2+0x10  ;; ACTION_SELECT1
   \   00000080   38209FE5           LDR      R2,??SelectEvent_CreateGui_2+0x14  ;; ??SelectEvent_OnEnter
   \   00000084   001090E5           LDR      R1,[R0, #+0]
   \   00000088   0400A0E1           MOV      R0,R4
   \   0000008C   0118A0E1           MOV      R1,R1, LSL #+16
   \   00000090   2118A0E1           MOV      R1,R1, LSR #+16
   \   00000094   4B0100EF           SWI      +331
    291              ListMenu_SetCursorToItem(lo,0);
   \   00000098   0010A0E3           MOV      R1,#+0
   \   0000009C   0400A0E1           MOV      R0,R4
   \   000000A0   350100EF           SWI      +309
    292            }
    293            return(lo);
   \                     ??SelectEvent_CreateGui_1:
   \   000000A4   0400A0E1           MOV      R0,R4
   \   000000A8   1080BDE8           POP      {R4,PC}          ;; return
   \                     ??SelectEvent_CreateGui_2:
   \   000000AC   ........           DC32     lng + 260
   \   000000B0   ........           DC32     ??SelectEvent_onLBMessage
   \   000000B4   ........           DC32     ACTION_BACK
   \   000000B8   ........           DC32     ??SelectEvent_OnBack
   \   000000BC   ........           DC32     ACTION_SELECT1
   \   000000C0   ........           DC32     ??SelectEvent_OnEnter
    294          };
    295          

   \                                 In segment CODE, align 4, keep-with-next
    296          GUI_LIST *SelectEvent_CreateList(BOOK *book)
    297          {
   \                     ??SelectEvent_CreateList:
   \   00000000   10402DE9           PUSH     {R4,LR}
   \   00000004   0040A0E1           MOV      R4,R0
    298            MyBOOK *mbk=(MyBOOK *)book;
    299            temp_act=mbk->selev->type;
   \   00000008   1C1094E5           LDR      R1,[R4, #+28]
   \   0000000C   ........           LDR      R0,??DataTable3  ;; temp_act
   \   00000010   001091E5           LDR      R1,[R1, #+0]
   \   00000014   001080E5           STR      R1,[R0, #+0]
    300            old=mbk->selev->param;
   \   00000018   1C1094E5           LDR      R1,[R4, #+28]
   \   0000001C   341091E5           LDR      R1,[R1, #+52]
   \   00000020   041080E5           STR      R1,[R0, #+4]
    301            mbk->addgui=SelectEvent_CreateGui(mbk);
   \   00000024   0400A0E1           MOV      R0,R4
   \   00000028   ........           BL       ??SelectEvent_CreateGui
   \   0000002C   2C0084E5           STR      R0,[R4, #+44]
    302            GUIObject_Show(mbk->addgui);
   \   00000030   340100EF           SWI      +308
    303            return(mbk->addgui);
   \   00000034   2C0094E5           LDR      R0,[R4, #+44]
   \   00000038   1080BDE8           POP      {R4,PC}          ;; return
    304          };
    305          

   \                                 In segment CODE, align 4, keep-with-next
    306          static int SEPage_OnEnter(void *,BOOK * bk)
    307          {
   \                     ??SEPage_OnEnter:
   \   00000000   00402DE9           PUSH     {LR}
   \   00000004   0100A0E1           MOV      R0,R1
    308            SelectEvent_CreateList(bk);
   \   00000008   ........           BL       ??SelectEvent_CreateList
    309            return (1);
   \   0000000C   0100A0E3           MOV      R0,#+1
   \   00000010   0080BDE8           POP      {PC}             ;; return
    310          };
    311          

   \                                 In segment CODE, align 4, keep-with-next
    312          static int SEPage_OnExit(void *, BOOK * bk)
    313          {
   \                     ??SEPage_OnExit:
   \   00000000   54009FE5           LDR      R0,??SEPage_OnExit_1  ;; temp_act + 4
   \   00000004   10402DE9           PUSH     {R4,LR}
   \   00000008   000090E5           LDR      R0,[R0, #+0]
   \   0000000C   0140A0E1           MOV      R4,R1
   \   00000010   000050E3           CMP      R0,#+0
   \   00000014   00005413           CMPNE    R4,#+0
   \   00000018   1C109415           LDRNE    R1,[R4, #+28]
   \   0000001C   00005113           CMPNE    R1,#+0
   \   00000020   34109115           LDRNE    R1,[R1, #+52]
   \   00000024   00005113           CMPNE    R1,#+0
   \   00000028   0400000A           BEQ      ??SEPage_OnExit_2
    314            MyBOOK *mbk=(MyBOOK *)bk;
    315            if (old && mbk && mbk->selev && mbk->selev->param)
    316            {
    317              if (old!=mbk->selev->param)
   \   0000002C   1C1094E5           LDR      R1,[R4, #+28]
   \   00000030   341091E5           LDR      R1,[R1, #+52]
   \   00000034   010050E1           CMP      R0,R1
   \   00000038   0000000A           BEQ      ??SEPage_OnExit_2
    318              {
    319                delete(old);
   \   0000003C   ........           _BLF     `??operator delete`,`??operator delete??rA`
    320              }
    321            }
    322            FREE_GUI(mbk->addgui);
   \                     ??SEPage_OnExit_2:
   \   00000040   2C0094E5           LDR      R0,[R4, #+44]
   \   00000044   000050E3           CMP      R0,#+0
   \   00000048   0100000A           BEQ      ??SEPage_OnExit_3
   \   0000004C   CE0100EF           SWI      +462
   \   00000050   2C0084E5           STR      R0,[R4, #+44]
    323            return (1);  
   \                     ??SEPage_OnExit_3:
   \   00000054   0100A0E3           MOV      R0,#+1
   \   00000058   1080BDE8           POP      {R4,PC}          ;; return
   \                     ??SEPage_OnExit_1:
   \   0000005C   ........           DC32     temp_act + 4
    324          };
    325          

   \                                 In segment DYN_PAGE, align 4, align-sorted
    326          const PAGE_MSG bk_msglst_selectevent[] @ "DYN_PAGE"  = 
   \                     bk_msglst_selectevent:
   \   00000000   42000000....       DC32 66, ??SEPage_OnEnter, 67, ??SEPage_OnExit, 64, 0H
   \              ....43000000
   \              ........4000
   \              000000000000
    327          {
    328            PAGE_ENTER_EVENT_TAG,    SEPage_OnEnter,
    329            PAGE_EXIT_EVENT_TAG,     SEPage_OnExit,
    330            NIL_EVENT_TAG,           NULL
    331          };
    332          

   \                                 In segment DATA_C, align 4, align-sorted
    333          const PAGE_DESC bk_selectevent = {"EvtEdit_SelectEvent_Page",0,bk_msglst_selectevent};
   \                     bk_selectevent:
   \   00000000   ........0000       DC32 `?<Constant "EvtEdit_SelectEvent_Page">`, 0H
   \              0000        
   \   00000008   ........           DC32 bk_msglst_selectevent

   \                                 In segment CODE, align 4, keep-with-next
   \                     ??DataTable2:
   \   00000000   ........           DC32     items

   \                                 In segment CODE, align 4, keep-with-next
   \                     ??DataTable3:
   \   00000000   ........           DC32     temp_act

   \                                 In segment DATA_ID, align 4, align-sorted
   \                     `?<Initializer for items>`:
   \   00000000   ........           DC32 `?<Constant L"\\x421\\x43e\\x43e\\x431\\x449\\x435\\x4`
   \   00000004   ........           DC32 `?<Constant L"\\x417\\x430\\x43f\\x443\\x441\\x43a\\x2`
   \   00000008   ........           DC32 `?<Constant L"\\x42f\\x440\\x43b\\x44b\\x43a">`
   \   0000000C   ........           DC32 `?<Constant L"\\x4a\\x61\\x76\\x61">`
   \   00000010   ........           DC32 `?<Constant L"\\x412\\x44b\\x43a\\x43b\\x44e\\x447\\x4`
   \   00000014   ........           DC32 `?<Constant L"\\x42f\\x440\\x43a\\x43e\\x441\\x442\\x4`
   \   00000018   ........           DC32 `?<Constant L"\\x424\\x43e\\x43d\\x430\\x440\\x438\\x4`
   \   0000001C   ........           DC32 `?<Constant L"\\x41f\\x440\\x43e\\x444\\x438\\x43b\\x4`
   \   00000020   ........           DC32 `?<Constant L"\\x420\\x435\\x441\\x442\\x430\\x440\\x4`
   \   00000024   ........           DC32 `?<Constant L"\\x41c\\x443\\x437\\x44b\\x43a\\x430\\x3`
   \   00000028   ........           DC32 `?<Constant L"\\x41c\\x443\\x437\\x44b\\x43a\\x430\\x3_1`
   \   0000002C   ........           DC32 `?<Constant L"\\x41e\\x431\\x43e\\x438\\x3a\\x20\\x443`
   \   00000030   ........           DC32 `?<Constant L"\\x412\\x438\\x431\\x440\\x430">`
   \   00000034   ........           DC32 `?<Constant L"\\x413\\x42d\\x3a\\x20\\x443\\x441\\x442`
   \   00000038   ........           DC32 `?<Constant L"\\x413\\x42d\\x3a\\x20\\x443\\x441\\x442_1`
   \   0000003C   ........           DC32 `?<Constant L"\\x417\\x430\\x43a\\x440\\x44b\\x442\\x4`
   \   00000040   ........           DC32 `?<Constant L"\\x412\\x43a\\x43b\\x2e\\x20\\x43c\\x443`
   \   00000044   ........           DC32 `?<Constant L"\\x41f\\x43e\\x43c\\x435\\x43d\\x44f\\x4`
   \   00000048   ........           DC32 `?<Constant L"\\x41e\\x431\\x43d\\x43e\\x432\\x438\\x4`
   \   0000004C   ........           DC32 `?<Constant L"\\x417\\x432\\x443\\x43a\\x3a\\x20\\x432`
   \   00000050   ........           DC32 `?<Constant L"\\x417\\x432\\x443\\x43a\\x3a\\x20\\x432_1`
   \   00000054   ........           DC32 `?<Constant L"\\x418\\x41a\\x3a\\x20\\x432\\x43a\\x43b`
   \   00000058   ........           DC32 `?<Constant L"\\x418\\x41a\\x3a\\x20\\x432\\x44b\\x43a`
   \   0000005C   ........           DC32 `?<Constant L"\\x418\\x41a\\x3a\\x20\\x43c\\x438\\x433`
   \   00000060   ........           DC32 `?<Constant L"\\x424\\x43e\\x43d\\x430\\x440\\x438\\x4_1`
   \   00000064   ........           DC32 `?<Constant L"\\x28\\x57\\x35\\x38\\x30\\x29\\x3a\\x20\\`
   \   00000068   ........           DC32 `?<Constant L"\\x28\\x57\\x35\\x38\\x30\\x29\\x3a\\x20\\_1`
   \   0000006C   ........           DC32 `?<Constant L"\\x41e\\x440\\x430\\x43d\\x436\\x2e\\x43`
   \   00000070   ........           DC32 `?<Constant L"\\x41e\\x440\\x430\\x43d\\x436\\x2e\\x43_1`
   \   00000074   ........           DC32 `?<Constant L"\\x41e\\x440\\x430\\x43d\\x436\\x2e\\x43_2`
   \   00000078   ........           DC32 `?<Constant L"\\x412\\x430\\x436\\x43d\\x43e\\x435\\x2`
   \   0000007C   ........           DC32 `?<Constant L"\\x417\\x432\\x43e\\x43d\\x43e\\x43a\\x3_2`
   \   00000080   ........           DC32 `?<Constant L"\\x417\\x432\\x43e\\x43d\\x43e\\x43a\\x3_3`
   \   00000084   ........           DC32 `?<Constant L"\\x417\\x432\\x43e\\x43d\\x43e\\x43a\\x3_4`
   \   00000088   ........           DC32 `?<Constant L"\\x417\\x432\\x43e\\x43d\\x43e\\x43a\\x3_5`
   \   0000008C   ........           DC32 `?<Constant L"\\x417\\x432\\x43e\\x43d\\x43e\\x43a\\x3_1`
   \   00000090   ........           DC32 `?<Constant L"\\x417\\x432\\x43e\\x43d\\x43e\\x43a\\x3`
   \   00000094   ........           DC32 `?<Constant L"\\x413\\x43e\\x43b\\x43e\\x441\\x43e\\x4`
   \   00000098   ........0000       DC32 `?<Constant L"\\x421\\x43c\\x435\\x43d\\x438\\x442\\x4`, 0H, 0H
   \              000000000000
   \   000000A4   00000000           DC32 0H

   \                                 In segment DATA_ID, align 4, align-sorted
   \                     `?<Initializer for ittypes>`:
   \   00000000   000000000200       DC32 0, 2, 7, 8, 9, 5, 5, 12, 9, 1, 10, 11, 5, 0, 0, 0, 9, 6, 9, 4, 4
   \              000007000000
   \              080000000900
   \              000005000000
   \              050000000C00
   \              000009000000
   \              010000000A00
   \              00000B000000
   \              050000000000
   \              000000000000
   \              000000000900
   \              000006000000
   \              090000000400
   \              000004000000
   \   00000054   090000000900       DC32 9, 9, 9, 9, 9, 9, 9, 9, 9, 0, 13, 14, 1, 15, 16, 17, 19, 20
   \              000009000000
   \              090000000900
   \              000009000000
   \              090000000900
   \              000009000000
   \              000000000D00
   \              00000E000000
   \              010000000F00
   \              000010000000
   \              110000001300
   \              000014000000

   \                                 In segment DATA_C, align 4, align-sorted
   \                     `?<Constant L"\\x412\\x44b\\x43a\\x43b\\x44e\\x447\\x4`:
   \   00000000   12044B043A04       DC8 12H, 4, 4BH, 4, 3AH, 4, 3BH, 4
   \              3B04        
   \   00000008   4E0447043504       DC8 4EH, 4, 47H, 4, 35H, 4, 3DH, 4
   \              3D04        
   \   00000010   380435042000       DC8 38H, 4, 35H, 4, 20H, 0, 42H, 4
   \              4204        
   \   00000018   35043B043504       DC8 35H, 4, 3BH, 4, 35H, 4, 44H, 4
   \              4404        
   \   00000020   3E043D043004       DC8 3EH, 4, 3DH, 4, 30H, 4, 0, 0
   \              0000        

   \                                 In segment DATA_C, align 4, align-sorted
   \                     `?<Constant L"\\x417\\x432\\x43e\\x43d\\x43e\\x43a\\x3`:
   \   00000000   170432043E04       DC8 17H, 4, 32H, 4, 3EH, 4, 3DH, 4
   \              3D04        
   \   00000008   3E043A043A00       DC8 3EH, 4, 3AH, 4, 3AH, 0, 20H, 0
   \              2000        
   \   00000010   430441044204       DC8 43H, 4, 41H, 4, 42H, 4, 2EH, 0
   \              2E00        
   \   00000018   20003F044004       DC8 20H, 0, 3FH, 4, 40H, 4, 38H, 4
   \              3804        
   \   00000020   51043C042000       DC8 51H, 4, 3CH, 4, 20H, 0, 32H, 4
   \              3204        
   \   00000028   4B0437043E04       DC8 4BH, 4, 37H, 4, 3EH, 4, 32H, 4
   \              3204        
   \   00000030   3E0432040000       DC8 3EH, 4, 32H, 4, 0, 0
   \   00000036   0000               DC8 0, 0

   \                                 In segment DATA_C, align 4, align-sorted
   \                     `?<Constant L"\\x413\\x43e\\x43b\\x43e\\x441\\x43e\\x4`:
   \   00000000   13043E043B04       DC8 13H, 4, 3EH, 4, 3BH, 4, 3EH, 4
   \              3E04        
   \   00000008   41043E043204       DC8 41H, 4, 3EH, 4, 32H, 4, 3EH, 4
   \              3E04        
   \   00000010   390420003204       DC8 39H, 4, 20H, 0, 32H, 4, 4BH, 4
   \              4B04        
   \   00000018   37043E043204       DC8 37H, 4, 3EH, 4, 32H, 4, 0, 0
   \              0000        

   \                                 In segment DATA_C, align 4, align-sorted
   \                     `?<Constant L"\\x421\\x43c\\x435\\x43d\\x438\\x442\\x4`:
   \   00000000   21043C043504       DC8 21H, 4, 3CH, 4, 35H, 4, 3DH, 4
   \              3D04        
   \   00000008   380442044C04       DC8 38H, 4, 42H, 4, 4CH, 4, 20H, 0
   \              2000        
   \   00000010   420435043C04       DC8 42H, 4, 35H, 4, 3CH, 4, 43H, 4
   \              4304        
   \   00000018   0000               DC8 0, 0
   \   0000001A   0000               DC8 0, 0

   \                                 In segment DATA_C, align 4, align-sorted
   \                     `?<Constant "EvtEdit_SelectEvent_Page">`:
   \   00000000   457674456469       DC8 "EvtEdit_SelectEvent_Page"
   \              745F53656C65
   \              63744576656E
   \              745F50616765
   \              00          
   \   00000019   000000             DC8 0, 0, 0

   \                                 In segment DATA_C, align 4, align-sorted
   \                     `?<Constant L"\\x41f\\x43e\\x43c\\x435\\x43d\\x44f\\x4`:
   \   00000000   1F043E043C04       DC8 1FH, 4, 3EH, 4, 3CH, 4, 35H, 4
   \              3504        
   \   00000008   3D044F044204       DC8 3DH, 4, 4FH, 4, 42H, 4, 4CH, 4
   \              4C04        
   \   00000010   200040043004       DC8 20H, 0, 40H, 4, 30H, 4, 41H, 4
   \              4104        
   \   00000018   3F0438044104       DC8 3FH, 4, 38H, 4, 41H, 4, 30H, 4
   \              3004        
   \   00000020   3D0438043504       DC8 3DH, 4, 38H, 4, 35H, 4, 0, 0
   \              0000        

   \                                 In segment DATA_C, align 4, align-sorted
   \                     `?<Constant L"\\x421\\x43e\\x43e\\x431\\x449\\x435\\x4`:
   \   00000000   21043E043E04       DC8 21H, 4, 3EH, 4, 3EH, 4, 31H, 4
   \              3104        
   \   00000008   490435043D04       DC8 49H, 4, 35H, 4, 3DH, 4, 38H, 4
   \              3804        
   \   00000010   35040000           DC8 35H, 4, 0, 0

   \                                 In segment DATA_C, align 4, align-sorted
   \                     `?<Constant L"\\x417\\x430\\x43f\\x443\\x441\\x43a\\x2`:
   \   00000000   170430043F04       DC8 17H, 4, 30H, 4, 3FH, 4, 43H, 4
   \              4304        
   \   00000008   41043A042000       DC8 41H, 4, 3AH, 4, 20H, 0, 4DH, 4
   \              4D04        
   \   00000010   3B044C044404       DC8 3BH, 4, 4CH, 4, 44H, 4, 30H, 4
   \              3004        
   \   00000018   0000               DC8 0, 0
   \   0000001A   0000               DC8 0, 0

   \                                 In segment DATA_C, align 4, align-sorted
   \                     `?<Constant L"\\x42f\\x440\\x43b\\x44b\\x43a">`:
   \   00000000   2F0440043B04       DC8 2FH, 4, 40H, 4, 3BH, 4, 4BH, 4
   \              4B04        
   \   00000008   3A040000           DC8 3AH, 4, 0, 0

   \                                 In segment DATA_C, align 4, align-sorted
   \                     `?<Constant L"\\x4a\\x61\\x76\\x61">`:
   \   00000000   4A0061007600       DC8 4AH, 0, 61H, 0, 76H, 0, 61H, 0
   \              6100        
   \   00000008   0000               DC8 0, 0
   \   0000000A   0000               DC8 0, 0

   \                                 In segment DATA_C, align 4, align-sorted
   \   00000000   30000000           DC8 30H, 0, 0, 0

   \                                 In segment DATA_C, align 4, align-sorted
   \                     `?<Constant L"\\x42f\\x440\\x43a\\x43e\\x441\\x442\\x4`:
   \   00000000   2F0440043A04       DC8 2FH, 4, 40H, 4, 3AH, 4, 3EH, 4
   \              3E04        
   \   00000008   410442044C04       DC8 41H, 4, 42H, 4, 4CH, 4, 0, 0
   \              0000        

   \                                 In segment DATA_C, align 4, align-sorted
   \                     `?<Constant L"\\x424\\x43e\\x43d\\x430\\x440\\x438\\x4`:
   \   00000000   24043E043D04       DC8 24H, 4, 3EH, 4, 3DH, 4, 30H, 4
   \              3004        
   \   00000008   400438043A04       DC8 40H, 4, 38H, 4, 3AH, 4, 3AH, 0
   \              3A00        
   \   00000010   200043044104       DC8 20H, 0, 43H, 4, 41H, 4, 42H, 4
   \              4204        
   \   00000018   2E0020004F04       DC8 2EH, 0, 20H, 0, 4FH, 4, 40H, 4
   \              4004        
   \   00000020   3A043E044104       DC8 3AH, 4, 3EH, 4, 41H, 4, 42H, 4
   \              4204        
   \   00000028   4C040000           DC8 4CH, 4, 0, 0

   \                                 In segment DATA_C, align 4, align-sorted
   \                     `?<Constant L"\\x41f\\x440\\x43e\\x444\\x438\\x43b\\x4`:
   \   00000000   1F0440043E04       DC8 1FH, 4, 40H, 4, 3EH, 4, 44H, 4
   \              4404        
   \   00000008   38043B044C04       DC8 38H, 4, 3BH, 4, 4CH, 4, 0, 0
   \              0000        

   \                                 In segment DATA_C, align 4, align-sorted
   \                     `?<Constant L"\\x420\\x435\\x441\\x442\\x430\\x440\\x4`:
   \   00000000   200435044104       DC8 20H, 4, 35H, 4, 41H, 4, 42H, 4
   \              4204        
   \   00000008   300440044204       DC8 30H, 4, 40H, 4, 42H, 4, 0, 0
   \              0000        

   \                                 In segment DATA_C, align 4, align-sorted
   \                     `?<Constant L"\\x41c\\x443\\x437\\x44b\\x43a\\x430\\x3`:
   \   00000000   1C0443043704       DC8 1CH, 4, 43H, 4, 37H, 4, 4BH, 4
   \              4B04        
   \   00000008   3A0430043A00       DC8 3AH, 4, 30H, 4, 3AH, 0, 20H, 0
   \              2000        
   \   00000010   32043E044104       DC8 32H, 4, 3EH, 4, 41H, 4, 3FH, 4
   \              3F04        
   \   00000018   40042E000000       DC8 40H, 4, 2EH, 0, 0, 0
   \   0000001E   0000               DC8 0, 0

   \                                 In segment DATA_C, align 4, align-sorted
   \                     `?<Constant L"\\x41c\\x443\\x437\\x44b\\x43a\\x430\\x3_1`:
   \   00000000   1C0443043704       DC8 1CH, 4, 43H, 4, 37H, 4, 4BH, 4
   \              4B04        
   \   00000008   3A0430043A00       DC8 3AH, 4, 30H, 4, 3AH, 0, 20H, 0
   \              2000        
   \   00000010   32043E044104       DC8 32H, 4, 3EH, 4, 41H, 4, 3FH, 4
   \              3F04        
   \   00000018   40042E002000       DC8 40H, 4, 2EH, 0, 20H, 0, 41H, 4
   \              4104        
   \   00000020   200033044004       DC8 20H, 0, 33H, 4, 40H, 4, 3EH, 4
   \              3E04        
   \   00000028   3C043A043E04       DC8 3CH, 4, 3AH, 4, 3EH, 4, 41H, 4
   \              4104        
   \   00000030   42044C044E04       DC8 42H, 4, 4CH, 4, 4EH, 4, 0, 0
   \              0000        

   \                                 In segment DATA_C, align 4, align-sorted
   \                     `?<Constant L"\\x41e\\x431\\x43e\\x438\\x3a\\x20\\x443`:
   \   00000000   1E0431043E04       DC8 1EH, 4, 31H, 4, 3EH, 4, 38H, 4
   \              3804        
   \   00000008   3A0020004304       DC8 3AH, 0, 20H, 0, 43H, 4, 41H, 4
   \              4104        
   \   00000010   420430043D04       DC8 42H, 4, 30H, 4, 3DH, 4, 3EH, 4
   \              3E04        
   \   00000018   320438044204       DC8 32H, 4, 38H, 4, 42H, 4, 4CH, 4
   \              4C04        
   \   00000020   0000               DC8 0, 0
   \   00000022   0000               DC8 0, 0

   \                                 In segment DATA_C, align 4, align-sorted
   \                     `?<Constant L"\\x412\\x438\\x431\\x440\\x430">`:
   \   00000000   120438043104       DC8 12H, 4, 38H, 4, 31H, 4, 40H, 4
   \              4004        
   \   00000008   30040000           DC8 30H, 4, 0, 0

   \                                 In segment DATA_C, align 4, align-sorted
   \                     `?<Constant L"\\x413\\x42d\\x3a\\x20\\x443\\x441\\x442`:
   \   00000000   13042D043A00       DC8 13H, 4, 2DH, 4, 3AH, 0, 20H, 0
   \              2000        
   \   00000008   430441044204       DC8 43H, 4, 41H, 4, 42H, 4, 2EH, 0
   \              2E00        
   \   00000010   200037043004       DC8 20H, 0, 37H, 4, 30H, 4, 3CH, 4
   \              3C04        
   \   00000018   350442043A04       DC8 35H, 4, 42H, 4, 3AH, 4, 43H, 4
   \              4304        
   \   00000020   0000               DC8 0, 0
   \   00000022   0000               DC8 0, 0

   \                                 In segment DATA_C, align 4, align-sorted
   \                     `?<Constant L"\\x413\\x42d\\x3a\\x20\\x443\\x441\\x442_1`:
   \   00000000   13042D043A00       DC8 13H, 4, 2DH, 4, 3AH, 0, 20H, 0
   \              2000        
   \   00000008   430441044204       DC8 43H, 4, 41H, 4, 42H, 4, 2EH, 0
   \              2E00        
   \   00000010   20003E043F04       DC8 20H, 0, 3EH, 4, 3FH, 4, 35H, 4
   \              3504        
   \   00000018   400430044204       DC8 40H, 4, 30H, 4, 42H, 4, 3EH, 4
   \              3E04        
   \   00000020   400430040000       DC8 40H, 4, 30H, 4, 0, 0
   \   00000026   0000               DC8 0, 0

   \                                 In segment DATA_C, align 4, align-sorted
   \                     `?<Constant L"\\x417\\x430\\x43a\\x440\\x44b\\x442\\x4`:
   \   00000000   170430043A04       DC8 17H, 4, 30H, 4, 3AH, 4, 40H, 4
   \              4004        
   \   00000008   4B0442044C04       DC8 4BH, 4, 42H, 4, 4CH, 4, 20H, 0
   \              2000        
   \   00000010   3A043D043804       DC8 3AH, 4, 3DH, 4, 38H, 4, 33H, 4
   \              3304        
   \   00000018   43040000           DC8 43H, 4, 0, 0

   \                                 In segment DATA_C, align 4, align-sorted
   \                     `?<Constant L"\\x412\\x43a\\x43b\\x2e\\x20\\x43c\\x443`:
   \   00000000   12043A043B04       DC8 12H, 4, 3AH, 4, 3BH, 4, 2EH, 0
   \              2E00        
   \   00000008   20003C044304       DC8 20H, 0, 3CH, 4, 43H, 4, 37H, 4
   \              3704        
   \   00000010   4B043A044304       DC8 4BH, 4, 3AH, 4, 43H, 4, 2FH, 0
   \              2F00        
   \   00000018   400430043404       DC8 40H, 4, 30H, 4, 34H, 4, 38H, 4
   \              3804        
   \   00000020   3E040000           DC8 3EH, 4, 0, 0

   \                                 In segment DATA_C, align 4, align-sorted
   \                     `?<Constant L"\\x417\\x432\\x43e\\x43d\\x43e\\x43a\\x3_1`:
   \   00000000   170432043E04       DC8 17H, 4, 32H, 4, 3EH, 4, 3DH, 4
   \              3D04        
   \   00000008   3E043A043A00       DC8 3EH, 4, 3AH, 4, 3AH, 0, 20H, 0
   \              2000        
   \   00000010   32043A043B04       DC8 32H, 4, 3AH, 4, 3BH, 4, 2EH, 0
   \              2E00        
   \   00000018   3D0430044004       DC8 3DH, 4, 30H, 4, 40H, 4, 30H, 4
   \              3004        
   \   00000020   410442043004       DC8 41H, 4, 42H, 4, 30H, 4, 3DH, 4
   \              3D04        
   \   00000028   380435040000       DC8 38H, 4, 35H, 4, 0, 0
   \   0000002E   0000               DC8 0, 0

   \                                 In segment DATA_C, align 4, align-sorted
   \                     `?<Constant L"\\x41e\\x431\\x43d\\x43e\\x432\\x438\\x4`:
   \   00000000   1E0431043D04       DC8 1EH, 4, 31H, 4, 3DH, 4, 3EH, 4
   \              3E04        
   \   00000008   320438044204       DC8 32H, 4, 38H, 4, 42H, 4, 4CH, 4
   \              4C04        
   \   00000010   0000               DC8 0, 0
   \   00000012   0000               DC8 0, 0

   \                                 In segment DATA_C, align 4, align-sorted
   \                     `?<Constant L"\\x417\\x432\\x443\\x43a\\x3a\\x20\\x432`:
   \   00000000   170432044304       DC8 17H, 4, 32H, 4, 43H, 4, 3AH, 4
   \              3A04        
   \   00000008   3A0020003204       DC8 3AH, 0, 20H, 0, 32H, 4, 4BH, 4
   \              4B04        
   \   00000010   3A043B040000       DC8 3AH, 4, 3BH, 4, 0, 0
   \   00000016   0000               DC8 0, 0

   \                                 In segment DATA_C, align 4, align-sorted
   \                     `?<Constant L"\\x417\\x432\\x443\\x43a\\x3a\\x20\\x432_1`:
   \   00000000   170432044304       DC8 17H, 4, 32H, 4, 43H, 4, 3AH, 4
   \              3A04        
   \   00000008   3A0020003204       DC8 3AH, 0, 20H, 0, 32H, 4, 3AH, 4
   \              3A04        
   \   00000010   3B040000           DC8 3BH, 4, 0, 0

   \                                 In segment DATA_C, align 4, align-sorted
   \                     `?<Constant L"\\x418\\x41a\\x3a\\x20\\x432\\x43a\\x43b`:
   \   00000000   18041A043A00       DC8 18H, 4, 1AH, 4, 3AH, 0, 20H, 0
   \              2000        
   \   00000008   32043A043B04       DC8 32H, 4, 3AH, 4, 3BH, 4, 0, 0
   \              0000        

   \                                 In segment DATA_C, align 4, align-sorted
   \                     `?<Constant L"\\x418\\x41a\\x3a\\x20\\x432\\x44b\\x43a`:
   \   00000000   18041A043A00       DC8 18H, 4, 1AH, 4, 3AH, 0, 20H, 0
   \              2000        
   \   00000008   32044B043A04       DC8 32H, 4, 4BH, 4, 3AH, 4, 3BH, 4
   \              3B04        
   \   00000010   0000               DC8 0, 0
   \   00000012   0000               DC8 0, 0

   \                                 In segment DATA_C, align 4, align-sorted
   \                     `?<Constant L"\\x418\\x41a\\x3a\\x20\\x43c\\x438\\x433`:
   \   00000000   18041A043A00       DC8 18H, 4, 1AH, 4, 3AH, 0, 20H, 0
   \              2000        
   \   00000008   3C0438043304       DC8 3CH, 4, 38H, 4, 33H, 4, 3DH, 4
   \              3D04        
   \   00000010   430442044C04       DC8 43H, 4, 42H, 4, 4CH, 4, 0, 0
   \              0000        

   \                                 In segment DATA_C, align 4, align-sorted
   \                     `?<Constant L"\\x424\\x43e\\x43d\\x430\\x440\\x438\\x4_1`:
   \   00000000   24043E043D04       DC8 24H, 4, 3EH, 4, 3DH, 4, 30H, 4
   \              3004        
   \   00000008   400438043A04       DC8 40H, 4, 38H, 4, 3AH, 4, 3AH, 0
   \              3A00        
   \   00000010   20003C043804       DC8 20H, 0, 3CH, 4, 38H, 4, 33H, 4
   \              3304        
   \   00000018   3D0443044204       DC8 3DH, 4, 43H, 4, 42H, 4, 4CH, 4
   \              4C04        
   \   00000020   0000               DC8 0, 0
   \   00000022   0000               DC8 0, 0

   \                                 In segment DATA_C, align 4, align-sorted
   \                     `?<Constant L"\\x28\\x57\\x35\\x38\\x30\\x29\\x3a\\x20\\`:
   \   00000000   280057003500       DC8 28H, 0, 57H, 0, 35H, 0, 38H, 0
   \              3800        
   \   00000008   300029003A00       DC8 30H, 0, 29H, 0, 3AH, 0, 20H, 0
   \              2000        
   \   00000010   3E0442043A04       DC8 3EH, 4, 42H, 4, 3AH, 4, 3BH, 4
   \              3B04        
   \   00000018   4E0447043804       DC8 4EH, 4, 47H, 4, 38H, 4, 42H, 4
   \              4204        
   \   00000020   4C0420003404       DC8 4CH, 4, 20H, 0, 34H, 4, 38H, 4
   \              3804        
   \   00000028   3E0434044B04       DC8 3EH, 4, 34H, 4, 4BH, 4, 0, 0
   \              0000        

   \                                 In segment DATA_C, align 4, align-sorted
   \                     `?<Constant L"\\x28\\x57\\x35\\x38\\x30\\x29\\x3a\\x20\\_1`:
   \   00000000   280057003500       DC8 28H, 0, 57H, 0, 35H, 0, 38H, 0
   \              3800        
   \   00000008   300029003A00       DC8 30H, 0, 29H, 0, 3AH, 0, 20H, 0
   \              2000        
   \   00000010   32043A043B04       DC8 32H, 4, 3AH, 4, 3BH, 4, 4EH, 4
   \              4E04        
   \   00000018   470438044204       DC8 47H, 4, 38H, 4, 42H, 4, 4CH, 4
   \              4C04        
   \   00000020   200034043804       DC8 20H, 0, 34H, 4, 38H, 4, 3EH, 4
   \              3E04        
   \   00000028   34044B040000       DC8 34H, 4, 4BH, 4, 0, 0
   \   0000002E   0000               DC8 0, 0

   \                                 In segment DATA_C, align 4, align-sorted
   \                     `?<Constant L"\\x41e\\x440\\x430\\x43d\\x436\\x2e\\x43`:
   \   00000000   1E0440043004       DC8 1EH, 4, 40H, 4, 30H, 4, 3DH, 4
   \              3D04        
   \   00000008   36042E003404       DC8 36H, 4, 2EH, 0, 34H, 4, 38H, 4
   \              3804        
   \   00000010   3E0434043A00       DC8 3EH, 4, 34H, 4, 3AH, 0, 20H, 0
   \              2000        
   \   00000018   3C0438043304       DC8 3CH, 4, 38H, 4, 33H, 4, 3DH, 4
   \              3D04        
   \   00000020   430442044C04       DC8 43H, 4, 42H, 4, 4CH, 4, 0, 0
   \              0000        

   \                                 In segment DATA_C, align 4, align-sorted
   \                     `?<Constant L"\\x41e\\x440\\x430\\x43d\\x436\\x2e\\x43_1`:
   \   00000000   1E0440043004       DC8 1EH, 4, 40H, 4, 30H, 4, 3DH, 4
   \              3D04        
   \   00000008   36042E003404       DC8 36H, 4, 2EH, 0, 34H, 4, 38H, 4
   \              3804        
   \   00000010   3E0434043A00       DC8 3EH, 4, 34H, 4, 3AH, 0, 20H, 0
   \              2000        
   \   00000018   32043A043B04       DC8 32H, 4, 3AH, 4, 3BH, 4, 2EH, 0
   \              2E00        
   \   00000020   20000000           DC8 20H, 0, 0, 0

   \                                 In segment DATA_C, align 4, align-sorted
   \                     `?<Constant L"\\x41e\\x440\\x430\\x43d\\x436\\x2e\\x43_2`:
   \   00000000   1E0440043004       DC8 1EH, 4, 40H, 4, 30H, 4, 3DH, 4
   \              3D04        
   \   00000008   36042E003404       DC8 36H, 4, 2EH, 0, 34H, 4, 38H, 4
   \              3804        
   \   00000010   3E0434043A00       DC8 3EH, 4, 34H, 4, 3AH, 0, 20H, 0
   \              2000        
   \   00000018   32044B043A04       DC8 32H, 4, 4BH, 4, 3AH, 4, 3BH, 4
   \              3B04        
   \   00000020   0000               DC8 0, 0
   \   00000022   0000               DC8 0, 0

   \                                 In segment DATA_C, align 4, align-sorted
   \                     `?<Constant L"\\x412\\x430\\x436\\x43d\\x43e\\x435\\x2`:
   \   00000000   120430043604       DC8 12H, 4, 30H, 4, 36H, 4, 3DH, 4
   \              3D04        
   \   00000008   3E0435042000       DC8 3EH, 4, 35H, 4, 20H, 0, 41H, 4
   \              4104        
   \   00000010   3E0431044B04       DC8 3EH, 4, 31H, 4, 4BH, 4, 42H, 4
   \              4204        
   \   00000018   380435040000       DC8 38H, 4, 35H, 4, 0, 0
   \   0000001E   0000               DC8 0, 0

   \                                 In segment DATA_C, align 4, align-sorted
   \                     `?<Constant L"\\x417\\x432\\x43e\\x43d\\x43e\\x43a\\x3_2`:
   \   00000000   170432043E04       DC8 17H, 4, 32H, 4, 3EH, 4, 3DH, 4
   \              3D04        
   \   00000008   3E043A043A00       DC8 3EH, 4, 3AH, 4, 3AH, 0, 20H, 0
   \              2000        
   \   00000010   430441044204       DC8 43H, 4, 41H, 4, 42H, 4, 2EH, 0
   \              2E00        
   \   00000018   330440043E04       DC8 33H, 4, 40H, 4, 3EH, 4, 3CH, 4
   \              3C04        
   \   00000020   3A043E044104       DC8 3AH, 4, 3EH, 4, 41H, 4, 42H, 4
   \              4204        
   \   00000028   4C040000           DC8 4CH, 4, 0, 0

   \                                 In segment DATA_C, align 4, align-sorted
   \                     `?<Constant L"\\x417\\x432\\x43e\\x43d\\x43e\\x43a\\x3_3`:
   \   00000000   170432043E04       DC8 17H, 4, 32H, 4, 3EH, 4, 3DH, 4
   \              3D04        
   \   00000008   3E043A043A00       DC8 3EH, 4, 3AH, 4, 3AH, 0, 20H, 0
   \              2000        
   \   00000010   320438043104       DC8 32H, 4, 38H, 4, 31H, 4, 40H, 4
   \              4004        
   \   00000018   300446043804       DC8 30H, 4, 46H, 4, 38H, 4, 4FH, 4
   \              4F04        
   \   00000020   0000               DC8 0, 0
   \   00000022   0000               DC8 0, 0

   \                                 In segment DATA_C, align 4, align-sorted
   \                     `?<Constant L"\\x417\\x432\\x43e\\x43d\\x43e\\x43a\\x3_4`:
   \   00000000   170432043E04       DC8 17H, 4, 32H, 4, 3EH, 4, 3DH, 4
   \              3D04        
   \   00000008   3E043A043A00       DC8 3EH, 4, 3AH, 4, 3AH, 0, 20H, 0
   \              2000        
   \   00000010   430441044204       DC8 43H, 4, 41H, 4, 42H, 4, 2EH, 0
   \              2E00        
   \   00000018   440430043904       DC8 44H, 4, 30H, 4, 39H, 4, 3BH, 4
   \              3B04        
   \   00000020   0000               DC8 0, 0
   \   00000022   0000               DC8 0, 0

   \                                 In segment DATA_C, align 4, align-sorted
   \                     `?<Constant L"\\x417\\x432\\x43e\\x43d\\x43e\\x43a\\x3_5`:
   \   00000000   170432043E04       DC8 17H, 4, 32H, 4, 3EH, 4, 3DH, 4
   \              3D04        
   \   00000008   3E043A043A00       DC8 3EH, 4, 3AH, 4, 3AH, 0, 20H, 0
   \              2000        
   \   00000010   41043F043E04       DC8 41H, 4, 3FH, 4, 3EH, 4, 41H, 4
   \              4104        
   \   00000018   3E0431042000       DC8 3EH, 4, 31H, 4, 20H, 0, 3FH, 4
   \              3F04        
   \   00000020   400438045104       DC8 40H, 4, 38H, 4, 51H, 4, 3CH, 4
   \              3C04        
   \   00000028   30040000           DC8 30H, 4, 0, 0
    334          

   Maximum stack usage in bytes:

     Function                       CSTACK
     --------                       ------
     GetNumOfActions()                  0
     SEPage_OnEnter(void *, BOOK *)     4
     SEPage_OnExit(void *, BOOK *)      8
     SelectEvent_CreateGui(MyBOOK *)
                                        8
     SelectEvent_CreateList(BOOK *)     8
     SelectEvent_OnBack(BOOK *, GUI *)
                                       12
     SelectEvent_OnEnter(BOOK *, GUI *)
                                       32
     SelectEvent_onLBMessage(GUI_MESSAGE *)
                                        8


   Segment part sizes:

     Function/Label                 Bytes
     --------------                 -----
     items                           168
     ittypes                         156
     temp_act                          8
     SelectEvent_OnEnter(BOOK *, GUI *)
                                     956
     SelectEvent_OnBack(BOOK *, GUI *)
                                      96
     GetNumOfActions()                44
     SelectEvent_onLBMessage(GUI_MESSAGE *)
                                      88
     SelectEvent_CreateGui(MyBOOK *)
                                     196
     SelectEvent_CreateList(BOOK *)   60
     SEPage_OnEnter(void *, BOOK *)   20
     SEPage_OnExit(void *, BOOK *)    96
     bk_msglst_selectevent            24
     bk_selectevent                   12
     ??DataTable2                      4
     ??DataTable3                      4
     ?<Initializer for items>        168
     ?<Initializer for ittypes>      156
     ?<Constant L"\x412\x44b\x43a\x43b\x44e\x447\x4
                                      40
     ?<Constant L"\x417\x432\x43e\x43d\x43e\x43a\x3
                                      56
     ?<Constant L"\x413\x43e\x43b\x43e\x441\x43e\x4
                                      32
     ?<Constant L"\x421\x43c\x435\x43d\x438\x442\x4
                                      28
     ?<Constant "EvtEdit_SelectEvent_Page">
                                      28
     ?<Constant L"\x41f\x43e\x43c\x435\x43d\x44f\x4
                                      40
     ?<Constant L"\x421\x43e\x43e\x431\x449\x435\x4
                                      20
     ?<Constant L"\x417\x430\x43f\x443\x441\x43a\x2
                                      28
     ?<Constant L"\x42f\x440\x43b\x44b\x43a">
                                      12
     ?<Constant L"\x4a\x61\x76\x61">
                                      12
     ?<Constant L"\x30">               4
     ?<Constant L"\x42f\x440\x43a\x43e\x441\x442\x4
                                      16
     ?<Constant L"\x424\x43e\x43d\x430\x440\x438\x4
                                      44
     ?<Constant L"\x41f\x440\x43e\x444\x438\x43b\x4
                                      16
     ?<Constant L"\x420\x435\x441\x442\x430\x440\x4
                                      16
     ?<Constant L"\x41c\x443\x437\x44b\x43a\x430\x3
                                      32
     ?<Constant L"\x41c\x443\x437\x44b\x43a\x430\x3_1
                                      56
     ?<Constant L"\x41e\x431\x43e\x438\x3a\x20\x443
                                      36
     ?<Constant L"\x412\x438\x431\x440\x430">
                                      12
     ?<Constant L"\x413\x42d\x3a\x20\x443\x441\x442
                                      36
     ?<Constant L"\x413\x42d\x3a\x20\x443\x441\x442_1
                                      40
     ?<Constant L"\x417\x430\x43a\x440\x44b\x442\x4
                                      28
     ?<Constant L"\x412\x43a\x43b\x2e\x20\x43c\x443
                                      36
     ?<Constant L"\x417\x432\x43e\x43d\x43e\x43a\x3_1
                                      48
     ?<Constant L"\x41e\x431\x43d\x43e\x432\x438\x4
                                      20
     ?<Constant L"\x417\x432\x443\x43a\x3a\x20\x432
                                      24
     ?<Constant L"\x417\x432\x443\x43a\x3a\x20\x432_1
                                      20
     ?<Constant L"\x418\x41a\x3a\x20\x432\x43a\x43b
                                      16
     ?<Constant L"\x418\x41a\x3a\x20\x432\x44b\x43a
                                      20
     ?<Constant L"\x418\x41a\x3a\x20\x43c\x438\x433
                                      24
     ?<Constant L"\x424\x43e\x43d\x430\x440\x438\x4_1
                                      36
     ?<Constant L"\x28\x57\x35\x38\x30\x29\x3a\x20\
                                      48
     ?<Constant L"\x28\x57\x35\x38\x30\x29\x3a\x20\_1
                                      48
     ?<Constant L"\x41e\x440\x430\x43d\x436\x2e\x43
                                      40
     ?<Constant L"\x41e\x440\x430\x43d\x436\x2e\x43_1
                                      36
     ?<Constant L"\x41e\x440\x430\x43d\x436\x2e\x43_2
                                      36
     ?<Constant L"\x412\x430\x436\x43d\x43e\x435\x2
                                      32
     ?<Constant L"\x417\x432\x43e\x43d\x43e\x43a\x3_2
                                      44
     ?<Constant L"\x417\x432\x43e\x43d\x43e\x43a\x3_3
                                      36
     ?<Constant L"\x417\x432\x43e\x43d\x43e\x43a\x3_4
                                      36
     ?<Constant L"\x417\x432\x43e\x43d\x43e\x43a\x3_5
                                      44
      Others                          80

 
 1 620 bytes in segment CODE
 1 288 bytes in segment DATA_C
   324 bytes in segment DATA_I
   324 bytes in segment DATA_ID
     8 bytes in segment DATA_Z
    24 bytes in segment DYN_PAGE
    24 bytes in segment INITTAB
 
 1 564 bytes of CODE  memory (+ 80 bytes shared)
 1 636 bytes of CONST memory
   332 bytes of DATA  memory

Errors: none
Warnings: none
