##############################################################################
#                                                                            #
# IAR ARM ANSI C/C++ Compiler V4.42A/W32 EVALUATION    10/Jun/2013  22:55:49 #
# Copyright 1999-2005 IAR Systems. All rights reserved.                      #
#                                                                            #
#    Cpu mode        =  interwork                                            #
#    Endian          =  little                                               #
#    Stack alignment =  4                                                    #
#    Source file     =  Z:\home\perk11\www\perk11.info\svn\SE\EvtEdit\lng.cp #
#                       p                                                    #
#    Command line    =  Z:\home\perk11\www\perk11.info\svn\SE\EvtEdit\lng.cp #
#                       p -D NDEBUG -D OLDFUNCTIONS -lC                      #
#                       Z:\home\perk11\www\perk11.info\svn\SE\EvtEdit\Releas #
#                       e\List\ -lA Z:\home\perk11\www\perk11.info\svn\SE\Ev #
#                       tEdit\Release\List\ -o Z:\home\perk11\www\perk11.inf #
#                       o\svn\SE\EvtEdit\Release\Obj\ -s9 --cpu_mode arm     #
#                       --endian little --cpu ARM926EJ-S --stack_align 4     #
#                       --interwork -e --enable_multibytes --fpu None        #
#                       --eec++ --dlib_config Z:\home\perk11\IAR2\arm\LIB\dl #
#                       5tpainl8n.h -I Z:\home\perk11\IAR2\arm\INC\          #
#                       --inline_threshold=2                                 #
#    List file       =  Z:\home\perk11\www\perk11.info\svn\SE\EvtEdit\Releas #
#                       e\List\lng.lst                                       #
#    Object file     =  Z:\home\perk11\www\perk11.info\svn\SE\EvtEdit\Releas #
#                       e\Obj\lng.r79                                        #
#                                                                            #
#                                                                            #
##############################################################################

Z:\home\perk11\www\perk11.info\svn\SE\EvtEdit\lng.cpp
      1          #include "..\deleaker\mem2.h"
      2          #include "..\include\Lib_Clara.h" 
      3          #include "..\include\Dir.h" 
      4          #include "header\structs.h"
      5          #include "header\lng.h"
      6          #include "header\string.h"
      7          
      8          extern wchar_t *items[];
      9          
     10          char *getparam2(char *buf, char *mask, char end, int fsize);
     11          void Lang_Initialize();
     12          void Lang_Remove();
     13          void char2unicode(wchar_t *ws, char const *s, int len);
     14          

   \                                 In segment DATA_Z, align 4, align-sorted
     15          int fsize=0;
   \                     fsize:
   \   00000000                      DS8 4
     16          

   \                                 In segment DATA_I, align 4, align-sorted
     17          wchar_t *lng[]={
   \                     lng:
   \   00000000                      DS8 308
   \   00000134                      REQUIRE `?<Initializer for lng>`
     18            L"Время начала",
     19            L"Время конца",
     20            L"Событие", 
     21            L"Дни", 
     22            L"Дата начала", 
     23            L"Дата конца",
     24            L"Название",
     25            L"Напоминания", 
     26            L"GPS",
     27            L"Создать",
     28            L"Понедельник",
     29            L"Вторник",
     30            L"Среда",
     31            L"Четверг",
     32            L"Пятница",
     33            L"Суббота",
     34            L"Воскресение",
     35            L"Рабочие дни",
     36            L"Выходные",
     37            L"Все дни",
     38            L"До начала:",
     39            L"После начала:",
     40            L"До конца:",
     41            L"После конца:", 
     42            L"Минуты",
     43            L"Тип напоминания",
     44            L"По дням",
     45            L"Дата",
     46            L"Тип времени",
     47            L"Опр. время",
     48            L"Интервал",
     49            L"Выкл.",
     50            L"Вкл.",
     51            L"Вкл. (без звука)",
     52            L"Обычный",
     53            L"Любая клавиша",
     54            L"Автоматически",
     55            L"Приём всех",
     56            L"Из списка",
     57            L"Нет",
     58            L"Выберите профиль",
     59            L"Время начала события",
     60            L"Время конца события (если выбран режим 'интервал')",
     61            L"Действие, установленное на данное время",
     62            L"Дни выполнения события (если выбран режим 'по дням')",
     63            L"Дата начала (если выбран режим 'дата')",
     64            L"Дата конца (если выбран режим 'дата')",
     65            L"Название события, которое будет использоваться в напоминаниях, а также на рабочем столе эльфом EvtDesk",
     66            L"Время напоминаний",
     67            L"GPS-метка. Используется значение вида CID-LAC. Например, '2028-4ABC'.",
     68            L"Клоногенератор",
     69            L"Данная функция используется для 'клонирования' события через определённые промежутки времени",
     70            L"Индикация",
     71            L"Цветные диоды",
     72            L"Оранж. диод",
     73            L"Красный диод",
     74            L"Вибрация",
     75            L"Звук",
     76            L"Секунды",
     77            L"Введите интервал",
     78            L"Введите макс.кол-во",
     79            L"Стандартные настройки",
     80            L"Выбор",
     81            L"Громкость",
     82            L"Дни",
     83            L"Действия",
     84            L"Муз.файл",
     85            L"Текущий статус",
     86            L"Муз.файл не установлен",
     87            L"Дата",
     88            L"Время",
     89            L"Сохранить",
     90            L"На карту памяти",
     91            L"На телефон",
     92            0,0,0
     93          };
     94          
     95          

   \                                 In segment CODE, align 4, keep-with-next
     96          bool isbetween(int f, int f1, int f2)
     97          {
     98            if (f>=f1 && f<=f2)return true;
   \                     ??isbetween:
   \   00000000   010050E1           CMP      R0,R1
   \   00000004   000052A1           CMPGE    R2,R0
   \   00000008   0100A0A3           MOVGE    R0,#+1
   \   0000000C   1EFF2FA1           BXGE     LR
     99            return false;
   \   00000010   0000A0E3           MOV      R0,#+0
   \   00000014   1EFF2FE1           BX       LR               ;; return
    100          };
    101          

   \                                 In segment CODE, align 4, keep-with-next
    102          bool isNative(void *f)
    103          {
    104            return isbetween((int)f, (int)&ELF_BEGIN, ((int)&ELF_BEGIN)+fsize);
   \                     ??isNative:
   \   00000000   2C109FE5           LDR      R1,??isNative_1  ;; ELF_BEGIN
   \   00000004   04D04DE2           SUB      SP,SP,#+4
   \   00000008   010050E1           CMP      R0,R1
   \   0000000C   050000BA           BLT      ??isNative_2
   \   00000010   20209FE5           LDR      R2,??isNative_1+0x4  ;; fsize
   \   00000014   002092E5           LDR      R2,[R2, #+0]
   \   00000018   011082E0           ADD      R1,R2,R1
   \   0000001C   000051E1           CMP      R1,R0
   \   00000020   0100A0A3           MOVGE    R0,#+1
   \   00000024   000000AA           BGE      ??isNative_3
   \                     ??isNative_2:
   \   00000028   0000A0E3           MOV      R0,#+0
   \                     ??isNative_3:
   \   0000002C   0200BDE8           POP      {R1}
   \   00000030   1EFF2FE1           BX       LR               ;; return
   \                     ??isNative_1:
   \   00000034   ........           DC32     ELF_BEGIN
   \   00000038   ........           DC32     fsize
    105          };
    106          
    107          

   \                                 In segment CODE, align 4, keep-with-next
    108          int lng_load(wchar_t *path, wchar_t *name)
    109          {
   \                     ??lng_load:
   \   00000000   F04F2DE9           PUSH     {R4-R11,LR}
   \   00000004   9CD04DE2           SUB      SP,SP,#+156
   \   00000008   0040A0E1           MOV      R4,R0
   \   0000000C   0160A0E1           MOV      R6,R1
    110            Lang_Initialize();
   \   00000010   ........           BL       ??Lang_Initialize
    111            int res=1;
   \   00000014   0150A0E3           MOV      R5,#+1
    112            int file;
    113            FSTAT fst;
    114            if (fstat(path,name,&fst)==0)
   \   00000018   0D20A0E1           MOV      R2,SP
   \   0000001C   0610A0E1           MOV      R1,R6
   \   00000020   0400A0E1           MOV      R0,R4
   \   00000024   1C0100EF           SWI      +284
   \   00000028   000050E3           CMP      R0,#+0
   \   0000002C   6800001A           BNE      ??lng_load_1
    115            {
    116              res=0;
    117              if ((file=_fopen(path,name,FSX_O_RDONLY,FSX_S_IREAD|FSX_S_IWRITE,0))>=0)
   \   00000030   01002DE9           PUSH     {R0}
   \   00000034   0050A0E3           MOV      R5,#+0
   \   00000038   603FA0E3           MOV      R3,#+384
   \   0000003C   0120A0E3           MOV      R2,#+1
   \   00000040   0610A0E1           MOV      R1,R6
   \   00000044   0400A0E1           MOV      R0,R4
   \   00000048   160100EF           SWI      +278
   \   0000004C   0060B0E1           MOVS     R6,R0
   \   00000050   04D08DE2           ADD      SP,SP,#+4
   \   00000054   5C00004A           BMI      ??lng_load_2
    118              {
    119                char * buf;
    120                char * param;
    121                buf=new char[fst.fsize+1];
   \   00000058   08009DE5           LDR      R0,[SP, #+8]
    122                fread(file,buf,fst.fsize);
    123                int x=0;
    124                char endsymbol=';';
   \   0000005C   7C919FE5           LDR      R9,??lng_load_3  ;; `?<Constant "lnged_%d)">`
   \   00000060   ........           LDR      R10,??DataTable3  ;; lng
   \   00000064   010080E2           ADD      R0,R0,#+1
   \   00000068   ........           _BLF     `??operator new[]`,`??operator new[]??rA`
   \   0000006C   08209DE5           LDR      R2,[SP, #+8]
   \   00000070   0070A0E1           MOV      R7,R0
   \   00000074   0710A0E1           MOV      R1,R7
   \   00000078   0600A0E1           MOV      R0,R6
   \   0000007C   180100EF           SWI      +280
   \   00000080   0080A0E3           MOV      R8,#+0
   \   00000084   120000EA           B        ??lng_load_4
    125                
    126                while (1)
    127                {
    128                  char pattern[128];
    129                  sprintf(pattern,"lnged_%d)",x);
    130                  if (param=getparam2(buf,pattern,endsymbol, fst.fsize))
    131                  {
    132                    
    133                    if (lng[x])
    134                    {
    135                      if (!isNative(lng[x]))
   \                     ??lng_load_5:
   \   00000088   000050E3           CMP      R0,#+0
   \   0000008C   0100001A           BNE      ??lng_load_6
    136                      {
    137                        delete(lng[x]);
   \   00000090   0B00A0E1           MOV      R0,R11
   \   00000094   ........           _BLF     `??operator delete`,`??operator delete??rA`
    138                      }
    139                    }
    140                    lng[x]=new wchar_t[strlen(param)+1];
   \                     ??lng_load_6:
   \   00000098   0400A0E1           MOV      R0,R4
   \   0000009C   5A0100EF           SWI      +346
   \   000000A0   010080E2           ADD      R0,R0,#+1
   \   000000A4   8000A0E1           LSL      R0,R0,#+1
   \   000000A8   ........           _BLF     `??operator new[]`,`??operator new[]??rA`
   \   000000AC   08018AE7           STR      R0,[R10, +R8, LSL #+2]
    141                    char2unicode(lng[x],param,strlen(param));
   \   000000B0   0400A0E1           MOV      R0,R4
   \   000000B4   5A0100EF           SWI      +346
   \   000000B8   0020A0E1           MOV      R2,R0
   \   000000BC   08019AE7           LDR      R0,[R10, +R8, LSL #+2]
   \   000000C0   0410A0E1           MOV      R1,R4
   \   000000C4   ........           BL       ??char2unicode
    142                    delete(param);
   \   000000C8   0400A0E1           MOV      R0,R4
   \   000000CC   ........           _BLF     `??operator delete`,`??operator delete??rA`
    143                  }
    144                  else break;
    145                  x++;
   \   000000D0   018088E2           ADD      R8,R8,#+1
   \                     ??lng_load_4:
   \   000000D4   0820A0E1           MOV      R2,R8
   \   000000D8   0910A0E1           MOV      R1,R9
   \   000000DC   1C008DE2           ADD      R0,SP,#+28
   \   000000E0   140100EF           SWI      +276
   \   000000E4   08309DE5           LDR      R3,[SP, #+8]
   \   000000E8   3B20A0E3           MOV      R2,#+59
   \   000000EC   1C108DE2           ADD      R1,SP,#+28
   \   000000F0   0700A0E1           MOV      R0,R7
   \   000000F4   ........           _BLF     ??getparam2,??getparam2??rA
   \   000000F8   0040B0E1           MOVS     R4,R0
   \   000000FC   0800000A           BEQ      ??lng_load_7
   \   00000100   08B19AE7           LDR      R11,[R10, +R8, LSL #+2]
   \   00000104   00005BE3           CMP      R11,#+0
   \   00000108   E2FFFF0A           BEQ      ??lng_load_6
   \   0000010C   0B00A0E1           MOV      R0,R11
   \   00000110   ........           BL       ??isNative
   \   00000114   000050E3           CMP      R0,#+0
   \   00000118   DAFFFF0A           BEQ      ??lng_load_5
   \   0000011C   0100A0E3           MOV      R0,#+1
   \   00000120   D8FFFFEA           B        ??lng_load_5
    146                }
    147                x=0;
   \                     ??lng_load_7:
   \   00000124   ........           LDR      R10,??DataTable2  ;; items
   \   00000128   0080A0E3           MOV      R8,#+0
   \   0000012C   120000EA           B        ??lng_load_8
    148                while (1)
    149                {
    150                  char pattern[128];
    151                  sprintf(pattern,"items_%d)",x);
    152                  if (param=getparam2(buf,pattern,endsymbol, fst.fsize))
    153                  {
    154                    if (items[x])
    155                    {
    156                      
    157                      if (!isNative(items[x]))
   \                     ??lng_load_9:
   \   00000130   000050E3           CMP      R0,#+0
   \   00000134   0100001A           BNE      ??lng_load_10
    158                      {
    159                        delete(items[x]);
   \   00000138   0B00A0E1           MOV      R0,R11
   \   0000013C   ........           _BLF     `??operator delete`,`??operator delete??rA`
    160                      }
    161                    }
    162                    items[x]=new wchar_t[strlen(param)+1];
   \                     ??lng_load_10:
   \   00000140   0400A0E1           MOV      R0,R4
   \   00000144   5A0100EF           SWI      +346
   \   00000148   010080E2           ADD      R0,R0,#+1
   \   0000014C   8000A0E1           LSL      R0,R0,#+1
   \   00000150   ........           _BLF     `??operator new[]`,`??operator new[]??rA`
   \   00000154   08018AE7           STR      R0,[R10, +R8, LSL #+2]
    163                    char2unicode(items[x],param,strlen(param));
   \   00000158   0400A0E1           MOV      R0,R4
   \   0000015C   5A0100EF           SWI      +346
   \   00000160   0020A0E1           MOV      R2,R0
   \   00000164   08019AE7           LDR      R0,[R10, +R8, LSL #+2]
   \   00000168   0410A0E1           MOV      R1,R4
   \   0000016C   ........           BL       ??char2unicode
    164                    delete(param);
   \   00000170   0400A0E1           MOV      R0,R4
   \   00000174   ........           _BLF     `??operator delete`,`??operator delete??rA`
    165                  }
    166                  else 
    167                    goto L_away;
    168                  x++;
   \   00000178   018088E2           ADD      R8,R8,#+1
   \                     ??lng_load_8:
   \   0000017C   0820A0E1           MOV      R2,R8
   \   00000180   0C1089E2           ADD      R1,R9,#+12
   \   00000184   1C008DE2           ADD      R0,SP,#+28
   \   00000188   140100EF           SWI      +276
   \   0000018C   08309DE5           LDR      R3,[SP, #+8]
   \   00000190   3B20A0E3           MOV      R2,#+59
   \   00000194   1C108DE2           ADD      R1,SP,#+28
   \   00000198   0700A0E1           MOV      R0,R7
   \   0000019C   ........           _BLF     ??getparam2,??getparam2??rA
   \   000001A0   0040B0E1           MOVS     R4,R0
   \   000001A4   0800000A           BEQ      ??lng_load_2
   \   000001A8   08B19AE7           LDR      R11,[R10, +R8, LSL #+2]
   \   000001AC   00005BE3           CMP      R11,#+0
   \   000001B0   E2FFFF0A           BEQ      ??lng_load_10
   \   000001B4   0B00A0E1           MOV      R0,R11
   \   000001B8   ........           BL       ??isNative
   \   000001BC   000050E3           CMP      R0,#+0
   \   000001C0   DAFFFF0A           BEQ      ??lng_load_9
   \   000001C4   0100A0E3           MOV      R0,#+1
   \   000001C8   D8FFFFEA           B        ??lng_load_9
    169                }
    170              L_away:
    171                ;
    172              }
    173              fclose(file);
   \                     ??lng_load_2:
   \   000001CC   0600A0E1           MOV      R0,R6
   \   000001D0   170100EF           SWI      +279
    174            }
    175            return res;
   \                     ??lng_load_1:
   \   000001D4   0500A0E1           MOV      R0,R5
   \   000001D8   9CD08DE2           ADD      SP,SP,#+156
   \   000001DC   F08FBDE8           POP      {R4-R11,PC}      ;; return
   \                     ??lng_load_3:
   \   000001E0   ........           DC32     `?<Constant "lnged_%d)">`
    176          };
    177          

   \                                 In segment CODE, align 4, keep-with-next
    178          void destroy_innative_lng()
    179          {
   \                     ??destroy_innative_lng:
   \   00000000   70402DE9           PUSH     {R4-R6,LR}
    180            Lang_Remove();
    181            int x=0;
   \   00000004   ........           LDR      R5,??DataTable2  ;; items
   \   00000008   0040A0E3           MOV      R4,#+0
   \   0000000C   ........           BL       ??Lang_Remove
   \   00000010   000095E5           LDR      R0,[R5, #+0]
   \   00000014   000050E3           CMP      R0,#+0
   \   00000018   0500001A           BNE      ??destroy_innative_lng_1
   \   0000001C   070000EA           B        ??destroy_innative_lng_2
    182            while (1)
    183            {
    184              if (!items[x])break;
    185              if (!isNative(items[x]))
   \                     ??destroy_innative_lng_3:
   \   00000020   000050E3           CMP      R0,#+0
   \   00000024   0100001A           BNE      ??destroy_innative_lng_4
    186              {
    187                delete(items[x]);
   \   00000028   0600A0E1           MOV      R0,R6
   \   0000002C   ........           _BLF     `??operator delete`,`??operator delete??rA`
    188              }
    189              x++;
   \                     ??destroy_innative_lng_4:
   \   00000030   014084E2           ADD      R4,R4,#+1
   \                     ??destroy_innative_lng_1:
   \   00000034   046195E7           LDR      R6,[R5, +R4, LSL #+2]
   \   00000038   000056E3           CMP      R6,#+0
   \   0000003C   0500001A           BNE      ??destroy_innative_lng_5
    190            };
    191            x=0;
   \                     ??destroy_innative_lng_2:
   \   00000040   ........           LDR      R5,??DataTable3  ;; lng
   \   00000044   0040A0E3           MOV      R4,#+0
   \   00000048   000095E5           LDR      R0,[R5, #+0]
   \   0000004C   000050E3           CMP      R0,#+0
   \   00000050   0B00001A           BNE      ??destroy_innative_lng_6
   \   00000054   7080BDE8           POP      {R4-R6,PC}
   \                     ??destroy_innative_lng_5:
   \   00000058   0600A0E1           MOV      R0,R6
   \   0000005C   ........           BL       ??isNative
   \   00000060   000050E3           CMP      R0,#+0
   \   00000064   EDFFFF0A           BEQ      ??destroy_innative_lng_3
   \   00000068   0100A0E3           MOV      R0,#+1
   \   0000006C   EBFFFFEA           B        ??destroy_innative_lng_3
    192            while (1)
    193            {
    194              if (!lng[x])return;
    195              if (!isNative(lng[x]))
   \                     ??destroy_innative_lng_7:
   \   00000070   000050E3           CMP      R0,#+0
   \   00000074   0100001A           BNE      ??destroy_innative_lng_8
    196              {
    197                delete(lng[x]);
   \   00000078   0600A0E1           MOV      R0,R6
   \   0000007C   ........           _BLF     `??operator delete`,`??operator delete??rA`
    198              }
    199              x++;
   \                     ??destroy_innative_lng_8:
   \   00000080   014084E2           ADD      R4,R4,#+1
   \                     ??destroy_innative_lng_6:
   \   00000084   046195E7           LDR      R6,[R5, +R4, LSL #+2]
   \   00000088   000056E3           CMP      R6,#+0
   \   0000008C   7080BD08           POPEQ    {R4-R6,PC}
   \   00000090   0600A0E1           MOV      R0,R6
   \   00000094   ........           BL       ??isNative
   \   00000098   000050E3           CMP      R0,#+0
   \   0000009C   F3FFFF0A           BEQ      ??destroy_innative_lng_7
   \   000000A0   0100A0E3           MOV      R0,#+1
   \   000000A4   F1FFFFEA           B        ??destroy_innative_lng_7
    200            };
    201          };
    202          extern wchar_t *extFolder;
    203          extern wchar_t *intFolder;

   \                                 In segment CODE, align 4, keep-with-next
    204          wchar_t *checkfile(wchar_t *name)
    205          {
   \                     ??checkfile:
   \   00000000   30402DE9           PUSH     {R4,R5,LR}
    206            FSTAT fst;
    207            if (fstat(extFolder,name,&fst)==0)
   \   00000004   3C509FE5           LDR      R5,??checkfile_1  ;; extFolder
   \   00000008   1CD04DE2           SUB      SP,SP,#+28
   \   0000000C   0040A0E1           MOV      R4,R0
   \   00000010   000095E5           LDR      R0,[R5, #+0]
   \   00000014   0D20A0E1           MOV      R2,SP
   \   00000018   0410A0E1           MOV      R1,R4
   \   0000001C   1C0100EF           SWI      +284
   \   00000020   000050E3           CMP      R0,#+0
   \   00000024   0400000A           BEQ      ??checkfile_2
    208            {
    209              return extFolder;
    210            }
    211            else if (fstat(intFolder,name,&fst)==0)
   \   00000028   1C509FE5           LDR      R5,??checkfile_1+0x4  ;; intFolder
   \   0000002C   0D20A0E1           MOV      R2,SP
   \   00000030   000095E5           LDR      R0,[R5, #+0]
   \   00000034   0410A0E1           MOV      R1,R4
   \   00000038   1C0100EF           SWI      +284
   \                     ??checkfile_2:
   \   0000003C   000095E5           LDR      R0,[R5, #+0]
    212            {
    213              return intFolder;
    214            }
    215            return intFolder;
   \   00000040   1CD08DE2           ADD      SP,SP,#+28
   \   00000044   3080BDE8           POP      {R4,R5,PC}       ;; return
   \                     ??checkfile_1:
   \   00000048   ........           DC32     extFolder
   \   0000004C   ........           DC32     intFolder
    216          };
    217          
    218          wchar_t *checkfile(wchar_t*);

   \                                 In segment DATA_Z, align 4, align-sorted
    219          char *fbuf=0;
   \                     fbuf:
   \   00000000                      DS8 4
    220          

   \                                 In segment CODE, align 4, keep-with-next
    221          void char2unicode(wchar_t *ws, char const *s, int len) 
    222          {
    223            if (fbuf)
   \                     ??char2unicode:
   \   00000000   ........           LDR      R3,??DataTable6  ;; fbuf
   \   00000004   10402DE9           PUSH     {R4,LR}
   \   00000008   003093E5           LDR      R3,[R3, #+0]
   \   0000000C   000053E3           CMP      R3,#+0
   \   00000010   1100000A           BEQ      ??char2unicode_1
    224            {
    225              int c;
    226              char * buf=fbuf;
   \   00000014   060000EA           B        ??char2unicode_2
    227              while((c = *s++) && ((len--) > 0))   
    228              {
    229                if (c == 0x7E) c = 0x0A;
   \                     ??char2unicode_3:
   \   00000018   7E005CE3           CMP      R12,#+126
   \   0000001C   0AC0A003           MOVEQ    R12,#+10
    230                if (fbuf) c = (buf[2 * c] << 8)  | buf[2 * c + 1];
    231                *ws++ = c;
   \   00000020   8CC083E0           ADD      R12,R3,R12, LSL #+1
   \   00000024   0040DCE5           LDRB     R4,[R12, #+0]
   \   00000028   01C0DCE5           LDRB     R12,[R12, #+1]
   \   0000002C   04448CE1           ORR      R4,R12,R4, LSL #+8
   \   00000030   ........           STRH     R4,[R0], #+2
    232            
    233              }
   \                     ??char2unicode_2:
   \   00000034   ........           LDRB     R12,[R1], #+1
   \   00000038   00005CE3           CMP      R12,#+0
   \   0000003C   0300000A           BEQ      ??char2unicode_4
   \   00000040   0240A0E1           MOV      R4,R2
   \   00000044   012044E2           SUB      R2,R4,#+1
   \   00000048   010054E3           CMP      R4,#+1
   \   0000004C   F1FFFFAA           BGE      ??char2unicode_3
    234              *ws=0;
   \                     ??char2unicode_4:
   \   00000050   0010A0E3           MOV      R1,#+0
   \   00000054   B010C0E1           STRH     R1,[R0, #+0]
   \   00000058   1080BDE8           POP      {R4,PC}
    235            }
    236            else
    237            {
    238              str2wstr(ws, s);
   \                     ??char2unicode_1:
   \   0000005C   580100EF           SWI      +344
    239            }
    240          };
   \   00000060   1080BDE8           POP      {R4,PC}          ;; return
    241          

   \                                 In segment CODE, align 4, keep-with-next
    242          void Lang_Initialize()
    243          {
   \                     ??Lang_Initialize:
   \   00000000   30402DE9           PUSH     {R4,R5,LR}
    244            // Открываем лэнг и читаем в FBUF
    245            fbuf=0;
   \   00000004   ........           LDR      R4,??DataTable6  ;; fbuf
    246            int file;
    247            FSTAT fst;
    248            if(fstat(checkfile(L"encoding.bin"), L"encoding.bin", &fst) == 0)
   \   00000008   84509FE5           LDR      R5,??Lang_Initialize_1  ;; `?<Constant L"\\x65\\x6e\\x63\\x6f\\x64\\x69\\x6e\\x67\\`
   \   0000000C   1CD04DE2           SUB      SP,SP,#+28
   \   00000010   0000A0E3           MOV      R0,#+0
   \   00000014   000084E5           STR      R0,[R4, #+0]
   \   00000018   0500A0E1           MOV      R0,R5
   \   0000001C   ........           BL       ??checkfile
   \   00000020   0D20A0E1           MOV      R2,SP
   \   00000024   0510A0E1           MOV      R1,R5
   \   00000028   1C0100EF           SWI      +284
   \   0000002C   000050E3           CMP      R0,#+0
   \   00000030   1500001A           BNE      ??Lang_Initialize_2
    249            {
    250              if( ((file = _fopen(checkfile(L"encoding.bin"), L"encoding.bin", FSX_O_RDONLY, FSX_S_IREAD|FSX_S_IWRITE, 0)) >= 0) && fst.fsize == 512 )
   \   00000034   0500A0E1           MOV      R0,R5
   \   00000038   ........           BL       ??checkfile
   \   0000003C   0010A0E3           MOV      R1,#+0
   \   00000040   02002DE9           PUSH     {R1}
   \   00000044   603FA0E3           MOV      R3,#+384
   \   00000048   0120A0E3           MOV      R2,#+1
   \   0000004C   0510A0E1           MOV      R1,R5
   \   00000050   160100EF           SWI      +278
   \   00000054   0050B0E1           MOVS     R5,R0
   \   00000058   04D08DE2           ADD      SP,SP,#+4
   \   0000005C   0800004A           BMI      ??Lang_Initialize_3
   \   00000060   08009DE5           LDR      R0,[SP, #+8]
   \   00000064   800F50E3           CMP      R0,#+512
   \   00000068   0500001A           BNE      ??Lang_Initialize_3
    251              {
    252                fbuf = new char[512];
   \   0000006C   ........           _BLF     `??operator new[]`,`??operator new[]??rA`
   \   00000070   000084E5           STR      R0,[R4, #+0]
    253                fread(file, fbuf, 512);
   \   00000074   802FA0E3           MOV      R2,#+512
   \   00000078   0010A0E1           MOV      R1,R0
   \   0000007C   0500A0E1           MOV      R0,R5
   \   00000080   180100EF           SWI      +280
    254              }
    255              fclose(file);
   \                     ??Lang_Initialize_3:
   \   00000084   0500A0E1           MOV      R0,R5
   \   00000088   170100EF           SWI      +279
    256            }
    257          };
   \                     ??Lang_Initialize_2:
   \   0000008C   1CD08DE2           ADD      SP,SP,#+28       ;; stack cleaning
   \   00000090   3080BDE8           POP      {R4,R5,PC}       ;; return
   \                     ??Lang_Initialize_1:
   \   00000094   ........           DC32     `?<Constant L"\\x65\\x6e\\x63\\x6f\\x64\\x69\\x6e\\x67\\`
    258          

   \                                 In segment CODE, align 4, keep-with-next
    259          void Lang_Remove()
    260          {
   \                     ??Lang_Remove:
   \   00000000   10402DE9           PUSH     {R4,LR}
    261            if (fbuf)
   \   00000004   ........           LDR      R4,??DataTable6  ;; fbuf
   \   00000008   000094E5           LDR      R0,[R4, #+0]
   \   0000000C   000050E3           CMP      R0,#+0
   \   00000010   1080BD08           POPEQ    {R4,PC}
    262            {
    263              delete(fbuf);
   \   00000014   ........           _BLF     `??operator delete`,`??operator delete??rA`
    264              fbuf=0;
   \   00000018   0000A0E3           MOV      R0,#+0
   \   0000001C   000084E5           STR      R0,[R4, #+0]
    265            }
    266          };
   \   00000020   1080BDE8           POP      {R4,PC}          ;; return

   \                                 In segment CODE, align 4, keep-with-next
   \                     ??DataTable2:
   \   00000000   ........           DC32     items

   \                                 In segment CODE, align 4, keep-with-next
   \                     ??DataTable3:
   \   00000000   ........           DC32     lng

   \                                 In segment CODE, align 4, keep-with-next
   \                     ??DataTable6:
   \   00000000   ........           DC32     fbuf

   \                                 In segment DATA_ID, align 4, align-sorted
   \                     `?<Initializer for lng>`:
   \   00000000   ........           DC32 `?<Constant L"\\x412\\x440\\x435\\x43c\\x44f\\x20\\x43`
   \   00000004   ........           DC32 `?<Constant L"\\x412\\x440\\x435\\x43c\\x44f\\x20\\x43_1`
   \   00000008   ........           DC32 `?<Constant L"\\x421\\x43e\\x431\\x44b\\x442\\x438\\x4`
   \   0000000C   ........           DC32 `?<Constant L"\\x414\\x43d\\x438">`
   \   00000010   ........           DC32 `?<Constant L"\\x414\\x430\\x442\\x430\\x20\\x43d\\x43`
   \   00000014   ........           DC32 `?<Constant L"\\x414\\x430\\x442\\x430\\x20\\x43a\\x43`
   \   00000018   ........           DC32 `?<Constant L"\\x41d\\x430\\x437\\x432\\x430\\x43d\\x4`
   \   0000001C   ........           DC32 `?<Constant L"\\x41d\\x430\\x43f\\x43e\\x43c\\x438\\x4`
   \   00000020   ........           DC32 `?<Constant L"\\x47\\x50\\x53">`
   \   00000024   ........           DC32 `?<Constant L"\\x421\\x43e\\x437\\x434\\x430\\x442\\x4`
   \   00000028   ........           DC32 `?<Constant L"\\x41f\\x43e\\x43d\\x435\\x434\\x435\\x4`
   \   0000002C   ........           DC32 `?<Constant L"\\x412\\x442\\x43e\\x440\\x43d\\x438\\x4`
   \   00000030   ........           DC32 `?<Constant L"\\x421\\x440\\x435\\x434\\x430">`
   \   00000034   ........           DC32 `?<Constant L"\\x427\\x435\\x442\\x432\\x435\\x440\\x4`
   \   00000038   ........           DC32 `?<Constant L"\\x41f\\x44f\\x442\\x43d\\x438\\x446\\x4`
   \   0000003C   ........           DC32 `?<Constant L"\\x421\\x443\\x431\\x431\\x43e\\x442\\x4`
   \   00000040   ........           DC32 `?<Constant L"\\x412\\x43e\\x441\\x43a\\x440\\x435\\x4`
   \   00000044   ........           DC32 `?<Constant L"\\x420\\x430\\x431\\x43e\\x447\\x438\\x4`
   \   00000048   ........           DC32 `?<Constant L"\\x412\\x44b\\x445\\x43e\\x434\\x43d\\x4`
   \   0000004C   ........           DC32 `?<Constant L"\\x412\\x441\\x435\\x20\\x434\\x43d\\x43`
   \   00000050   ........           DC32 `?<Constant L"\\x414\\x43e\\x20\\x43d\\x430\\x447\\x43`
   \   00000054   ........           DC32 `?<Constant L"\\x41f\\x43e\\x441\\x43b\\x435\\x20\\x43`
   \   00000058   ........           DC32 `?<Constant L"\\x414\\x43e\\x20\\x43a\\x43e\\x43d\\x44`
   \   0000005C   ........           DC32 `?<Constant L"\\x41f\\x43e\\x441\\x43b\\x435\\x20\\x43_1`
   \   00000060   ........           DC32 `?<Constant L"\\x41c\\x438\\x43d\\x443\\x442\\x44b">`
   \   00000064   ........           DC32 `?<Constant L"\\x422\\x438\\x43f\\x20\\x43d\\x430\\x43`
   \   00000068   ........           DC32 `?<Constant L"\\x41f\\x43e\\x20\\x434\\x43d\\x44f\\x43`
   \   0000006C   ........           DC32 `?<Constant L"\\x414\\x430\\x442\\x430">`
   \   00000070   ........           DC32 `?<Constant L"\\x422\\x438\\x43f\\x20\\x432\\x440\\x43`
   \   00000074   ........           DC32 `?<Constant L"\\x41e\\x43f\\x440\\x2e\\x20\\x432\\x440`
   \   00000078   ........           DC32 `?<Constant L"\\x418\\x43d\\x442\\x435\\x440\\x432\\x4`
   \   0000007C   ........           DC32 `?<Constant L"\\x412\\x44b\\x43a\\x43b\\x2e">`
   \   00000080   ........           DC32 `?<Constant L"\\x412\\x43a\\x43b\\x2e">`
   \   00000084   ........           DC32 `?<Constant L"\\x412\\x43a\\x43b\\x2e\\x20\\x28\\x431\\`
   \   00000088   ........           DC32 `?<Constant L"\\x41e\\x431\\x44b\\x447\\x43d\\x44b\\x4`
   \   0000008C   ........           DC32 `?<Constant L"\\x41b\\x44e\\x431\\x430\\x44f\\x20\\x43`
   \   00000090   ........           DC32 `?<Constant L"\\x410\\x432\\x442\\x43e\\x43c\\x430\\x4`
   \   00000094   ........           DC32 `?<Constant L"\\x41f\\x440\\x438\\x451\\x43c\\x20\\x43`
   \   00000098   ........           DC32 `?<Constant L"\\x418\\x437\\x20\\x441\\x43f\\x438\\x44`
   \   0000009C   ........           DC32 `?<Constant L"\\x41d\\x435\\x442">`
   \   000000A0   ........           DC32 `?<Constant L"\\x412\\x44b\\x431\\x435\\x440\\x438\\x4`
   \   000000A4   ........           DC32 `?<Constant L"\\x412\\x440\\x435\\x43c\\x44f\\x20\\x43_2`
   \   000000A8   ........           DC32 `?<Constant L"\\x412\\x440\\x435\\x43c\\x44f\\x20\\x43_3`
   \   000000AC   ........           DC32 `?<Constant L"\\x414\\x435\\x439\\x441\\x442\\x432\\x4`
   \   000000B0   ........           DC32 `?<Constant L"\\x414\\x43d\\x438\\x20\\x432\\x44b\\x43`
   \   000000B4   ........           DC32 `?<Constant L"\\x414\\x430\\x442\\x430\\x20\\x43d\\x43_1`
   \   000000B8   ........           DC32 `?<Constant L"\\x414\\x430\\x442\\x430\\x20\\x43a\\x43_1`
   \   000000BC   ........           DC32 `?<Constant L"\\x41d\\x430\\x437\\x432\\x430\\x43d\\x4_1`
   \   000000C0   ........           DC32 `?<Constant L"\\x412\\x440\\x435\\x43c\\x44f\\x20\\x43_4`
   \   000000C4   ........           DC32 `?<Constant L"\\x47\\x50\\x53\\x2d\\x43c\\x435\\x442\\x`
   \   000000C8   ........           DC32 `?<Constant L"\\x41a\\x43b\\x43e\\x43d\\x43e\\x433\\x4`
   \   000000CC   ........           DC32 `?<Constant L"\\x414\\x430\\x43d\\x43d\\x430\\x44f\\x2`
   \   000000D0   ........           DC32 `?<Constant L"\\x418\\x43d\\x434\\x438\\x43a\\x430\\x4`
   \   000000D4   ........           DC32 `?<Constant L"\\x426\\x432\\x435\\x442\\x43d\\x44b\\x4`
   \   000000D8   ........           DC32 `?<Constant L"\\x41e\\x440\\x430\\x43d\\x436\\x2e\\x20`
   \   000000DC   ........           DC32 `?<Constant L"\\x41a\\x440\\x430\\x441\\x43d\\x44b\\x4`
   \   000000E0   ........           DC32 `?<Constant L"\\x412\\x438\\x431\\x440\\x430\\x446\\x4`
   \   000000E4   ........           DC32 `?<Constant L"\\x417\\x432\\x443\\x43a">`
   \   000000E8   ........           DC32 `?<Constant L"\\x421\\x435\\x43a\\x443\\x43d\\x434\\x4`
   \   000000EC   ........           DC32 `?<Constant L"\\x412\\x432\\x435\\x434\\x438\\x442\\x4`
   \   000000F0   ........           DC32 `?<Constant L"\\x412\\x432\\x435\\x434\\x438\\x442\\x4_1`
   \   000000F4   ........           DC32 `?<Constant L"\\x421\\x442\\x430\\x43d\\x434\\x430\\x4`
   \   000000F8   ........           DC32 `?<Constant L"\\x412\\x44b\\x431\\x43e\\x440">`
   \   000000FC   ........           DC32 `?<Constant L"\\x413\\x440\\x43e\\x43c\\x43a\\x43e\\x4`
   \   00000100   ........           DC32 `?<Constant L"\\x414\\x43d\\x438">`
   \   00000104   ........           DC32 `?<Constant L"\\x414\\x435\\x439\\x441\\x442\\x432\\x4_1`
   \   00000108   ........           DC32 `?<Constant L"\\x41c\\x443\\x437\\x2e\\x444\\x430\\x43`
   \   0000010C   ........           DC32 `?<Constant L"\\x422\\x435\\x43a\\x443\\x449\\x438\\x4`
   \   00000110   ........           DC32 `?<Constant L"\\x41c\\x443\\x437\\x2e\\x444\\x430\\x43_1`
   \   00000114   ........           DC32 `?<Constant L"\\x414\\x430\\x442\\x430">`
   \   00000118   ........           DC32 `?<Constant L"\\x412\\x440\\x435\\x43c\\x44f">`
   \   0000011C   ........           DC32 `?<Constant L"\\x421\\x43e\\x445\\x440\\x430\\x43d\\x4`
   \   00000120   ........           DC32 `?<Constant L"\\x41d\\x430\\x20\\x43a\\x430\\x440\\x44`
   \   00000124   ........0000       DC32 `?<Constant L"\\x41d\\x430\\x20\\x442\\x435\\x43b\\x43`, 0H, 0H
   \              000000000000
   \   00000130   00000000           DC32 0H

   \                                 In segment DATA_C, align 4, align-sorted
   \                     `?<Constant L"\\x41d\\x430\\x437\\x432\\x430\\x43d\\x4`:
   \   00000000   1D0430043704       DC8 1DH, 4, 30H, 4, 37H, 4, 32H, 4
   \              3204        
   \   00000008   30043D043804       DC8 30H, 4, 3DH, 4, 38H, 4, 35H, 4
   \              3504        
   \   00000010   0000               DC8 0, 0
   \   00000012   0000               DC8 0, 0

   \                                 In segment DATA_C, align 4, align-sorted
   \                     `?<Constant "lnged_%d)">`:
   \   00000000   6C6E6765645F       DC8 "lnged_%d)"
   \              25642900    
   \   0000000A   0000               DC8 0, 0
   \   0000000C   6974656D735F       DC8 "items_%d)"
   \              25642900    
   \   00000016   0000               DC8 0, 0

   \                                 In segment DATA_C, align 4, align-sorted
   \                     `?<Constant L"\\x412\\x440\\x435\\x43c\\x44f\\x20\\x43`:
   \   00000000   120440043504       DC8 12H, 4, 40H, 4, 35H, 4, 3CH, 4
   \              3C04        
   \   00000008   4F0420003D04       DC8 4FH, 4, 20H, 0, 3DH, 4, 30H, 4
   \              3004        
   \   00000010   470430043B04       DC8 47H, 4, 30H, 4, 3BH, 4, 30H, 4
   \              3004        
   \   00000018   0000               DC8 0, 0
   \   0000001A   0000               DC8 0, 0

   \                                 In segment DATA_C, align 4, align-sorted
   \                     `?<Constant L"\\x412\\x440\\x435\\x43c\\x44f\\x20\\x43_1`:
   \   00000000   120440043504       DC8 12H, 4, 40H, 4, 35H, 4, 3CH, 4
   \              3C04        
   \   00000008   4F0420003A04       DC8 4FH, 4, 20H, 0, 3AH, 4, 3EH, 4
   \              3E04        
   \   00000010   3D0446043004       DC8 3DH, 4, 46H, 4, 30H, 4, 0, 0
   \              0000        

   \                                 In segment DATA_C, align 4, align-sorted
   \                     `?<Constant L"\\x421\\x43e\\x431\\x44b\\x442\\x438\\x4`:
   \   00000000   21043E043104       DC8 21H, 4, 3EH, 4, 31H, 4, 4BH, 4
   \              4B04        
   \   00000008   420438043504       DC8 42H, 4, 38H, 4, 35H, 4, 0, 0
   \              0000        

   \                                 In segment DATA_C, align 4, align-sorted
   \                     `?<Constant L"\\x414\\x43d\\x438">`:
   \   00000000   14043D043804       DC8 14H, 4, 3DH, 4, 38H, 4, 0, 0
   \              0000        

   \                                 In segment DATA_C, align 4, align-sorted
   \                     `?<Constant L"\\x414\\x430\\x442\\x430\\x20\\x43d\\x43`:
   \   00000000   140430044204       DC8 14H, 4, 30H, 4, 42H, 4, 30H, 4
   \              3004        
   \   00000008   20003D043004       DC8 20H, 0, 3DH, 4, 30H, 4, 47H, 4
   \              4704        
   \   00000010   30043B043004       DC8 30H, 4, 3BH, 4, 30H, 4, 0, 0
   \              0000        

   \                                 In segment DATA_C, align 4, align-sorted
   \                     `?<Constant L"\\x414\\x430\\x442\\x430\\x20\\x43a\\x43`:
   \   00000000   140430044204       DC8 14H, 4, 30H, 4, 42H, 4, 30H, 4
   \              3004        
   \   00000008   20003A043E04       DC8 20H, 0, 3AH, 4, 3EH, 4, 3DH, 4
   \              3D04        
   \   00000010   460430040000       DC8 46H, 4, 30H, 4, 0, 0
   \   00000016   0000               DC8 0, 0

   \                                 In segment DATA_C, align 4, align-sorted
   \                     `?<Constant L"\\x421\\x443\\x431\\x431\\x43e\\x442\\x4`:
   \   00000000   210443043104       DC8 21H, 4, 43H, 4, 31H, 4, 31H, 4
   \              3104        
   \   00000008   3E0442043004       DC8 3EH, 4, 42H, 4, 30H, 4, 0, 0
   \              0000        

   \                                 In segment DATA_C, align 4, align-sorted
   \                     `?<Constant L"\\x41d\\x430\\x43f\\x43e\\x43c\\x438\\x4`:
   \   00000000   1D0430043F04       DC8 1DH, 4, 30H, 4, 3FH, 4, 3EH, 4
   \              3E04        
   \   00000008   3C0438043D04       DC8 3CH, 4, 38H, 4, 3DH, 4, 30H, 4
   \              3004        
   \   00000010   3D0438044F04       DC8 3DH, 4, 38H, 4, 4FH, 4, 0, 0
   \              0000        

   \                                 In segment DATA_C, align 4, align-sorted
   \                     `?<Constant L"\\x47\\x50\\x53">`:
   \   00000000   470050005300       DC8 47H, 0, 50H, 0, 53H, 0, 0, 0
   \              0000        

   \                                 In segment DATA_C, align 4, align-sorted
   \                     `?<Constant L"\\x421\\x43e\\x437\\x434\\x430\\x442\\x4`:
   \   00000000   21043E043704       DC8 21H, 4, 3EH, 4, 37H, 4, 34H, 4
   \              3404        
   \   00000008   300442044C04       DC8 30H, 4, 42H, 4, 4CH, 4, 0, 0
   \              0000        

   \                                 In segment DATA_C, align 4, align-sorted
   \                     `?<Constant L"\\x41f\\x43e\\x43d\\x435\\x434\\x435\\x4`:
   \   00000000   1F043E043D04       DC8 1FH, 4, 3EH, 4, 3DH, 4, 35H, 4
   \              3504        
   \   00000008   340435043B04       DC8 34H, 4, 35H, 4, 3BH, 4, 4CH, 4
   \              4C04        
   \   00000010   3D0438043A04       DC8 3DH, 4, 38H, 4, 3AH, 4, 0, 0
   \              0000        

   \                                 In segment DATA_C, align 4, align-sorted
   \                     `?<Constant L"\\x412\\x442\\x43e\\x440\\x43d\\x438\\x4`:
   \   00000000   120442043E04       DC8 12H, 4, 42H, 4, 3EH, 4, 40H, 4
   \              4004        
   \   00000008   3D0438043A04       DC8 3DH, 4, 38H, 4, 3AH, 4, 0, 0
   \              0000        

   \                                 In segment DATA_C, align 4, align-sorted
   \                     `?<Constant L"\\x421\\x440\\x435\\x434\\x430">`:
   \   00000000   210440043504       DC8 21H, 4, 40H, 4, 35H, 4, 34H, 4
   \              3404        
   \   00000008   30040000           DC8 30H, 4, 0, 0

   \                                 In segment DATA_C, align 4, align-sorted
   \                     `?<Constant L"\\x427\\x435\\x442\\x432\\x435\\x440\\x4`:
   \   00000000   270435044204       DC8 27H, 4, 35H, 4, 42H, 4, 32H, 4
   \              3204        
   \   00000008   350440043304       DC8 35H, 4, 40H, 4, 33H, 4, 0, 0
   \              0000        

   \                                 In segment DATA_C, align 4, align-sorted
   \                     `?<Constant L"\\x41f\\x44f\\x442\\x43d\\x438\\x446\\x4`:
   \   00000000   1F044F044204       DC8 1FH, 4, 4FH, 4, 42H, 4, 3DH, 4
   \              3D04        
   \   00000008   380446043004       DC8 38H, 4, 46H, 4, 30H, 4, 0, 0
   \              0000        

   \                                 In segment DATA_C, align 4, align-sorted
   \                     `?<Constant L"\\x65\\x6e\\x63\\x6f\\x64\\x69\\x6e\\x67\\`:
   \   00000000   65006E006300       DC8 65H, 0, 6EH, 0, 63H, 0, 6FH, 0
   \              6F00        
   \   00000008   640069006E00       DC8 64H, 0, 69H, 0, 6EH, 0, 67H, 0
   \              6700        
   \   00000010   2E0062006900       DC8 2EH, 0, 62H, 0, 69H, 0, 6EH, 0
   \              6E00        
   \   00000018   0000               DC8 0, 0
   \   0000001A   0000               DC8 0, 0

   \                                 In segment DATA_C, align 4, align-sorted
   \                     `?<Constant L"\\x412\\x43e\\x441\\x43a\\x440\\x435\\x4`:
   \   00000000   12043E044104       DC8 12H, 4, 3EH, 4, 41H, 4, 3AH, 4
   \              3A04        
   \   00000008   400435044104       DC8 40H, 4, 35H, 4, 41H, 4, 35H, 4
   \              3504        
   \   00000010   3D0438043504       DC8 3DH, 4, 38H, 4, 35H, 4, 0, 0
   \              0000        

   \                                 In segment DATA_C, align 4, align-sorted
   \                     `?<Constant L"\\x420\\x430\\x431\\x43e\\x447\\x438\\x4`:
   \   00000000   200430043104       DC8 20H, 4, 30H, 4, 31H, 4, 3EH, 4
   \              3E04        
   \   00000008   470438043504       DC8 47H, 4, 38H, 4, 35H, 4, 20H, 0
   \              2000        
   \   00000010   34043D043804       DC8 34H, 4, 3DH, 4, 38H, 4, 0, 0
   \              0000        

   \                                 In segment DATA_C, align 4, align-sorted
   \                     `?<Constant L"\\x412\\x44b\\x445\\x43e\\x434\\x43d\\x4`:
   \   00000000   12044B044504       DC8 12H, 4, 4BH, 4, 45H, 4, 3EH, 4
   \              3E04        
   \   00000008   34043D044B04       DC8 34H, 4, 3DH, 4, 4BH, 4, 35H, 4
   \              3504        
   \   00000010   0000               DC8 0, 0
   \   00000012   0000               DC8 0, 0

   \                                 In segment DATA_C, align 4, align-sorted
   \                     `?<Constant L"\\x412\\x441\\x435\\x20\\x434\\x43d\\x43`:
   \   00000000   120441043504       DC8 12H, 4, 41H, 4, 35H, 4, 20H, 0
   \              2000        
   \   00000008   34043D043804       DC8 34H, 4, 3DH, 4, 38H, 4, 0, 0
   \              0000        

   \                                 In segment DATA_C, align 4, align-sorted
   \                     `?<Constant L"\\x414\\x43e\\x20\\x43d\\x430\\x447\\x43`:
   \   00000000   14043E042000       DC8 14H, 4, 3EH, 4, 20H, 0, 3DH, 4
   \              3D04        
   \   00000008   300447043004       DC8 30H, 4, 47H, 4, 30H, 4, 3BH, 4
   \              3B04        
   \   00000010   30043A000000       DC8 30H, 4, 3AH, 0, 0, 0
   \   00000016   0000               DC8 0, 0

   \                                 In segment DATA_C, align 4, align-sorted
   \                     `?<Constant L"\\x41f\\x43e\\x441\\x43b\\x435\\x20\\x43`:
   \   00000000   1F043E044104       DC8 1FH, 4, 3EH, 4, 41H, 4, 3BH, 4
   \              3B04        
   \   00000008   350420003D04       DC8 35H, 4, 20H, 0, 3DH, 4, 30H, 4
   \              3004        
   \   00000010   470430043B04       DC8 47H, 4, 30H, 4, 3BH, 4, 30H, 4
   \              3004        
   \   00000018   3A000000           DC8 3AH, 0, 0, 0

   \                                 In segment DATA_C, align 4, align-sorted
   \                     `?<Constant L"\\x414\\x43e\\x20\\x43a\\x43e\\x43d\\x44`:
   \   00000000   14043E042000       DC8 14H, 4, 3EH, 4, 20H, 0, 3AH, 4
   \              3A04        
   \   00000008   3E043D044604       DC8 3EH, 4, 3DH, 4, 46H, 4, 30H, 4
   \              3004        
   \   00000010   3A000000           DC8 3AH, 0, 0, 0

   \                                 In segment DATA_C, align 4, align-sorted
   \                     `?<Constant L"\\x41f\\x43e\\x441\\x43b\\x435\\x20\\x43_1`:
   \   00000000   1F043E044104       DC8 1FH, 4, 3EH, 4, 41H, 4, 3BH, 4
   \              3B04        
   \   00000008   350420003A04       DC8 35H, 4, 20H, 0, 3AH, 4, 3EH, 4
   \              3E04        
   \   00000010   3D0446043004       DC8 3DH, 4, 46H, 4, 30H, 4, 3AH, 0
   \              3A00        
   \   00000018   0000               DC8 0, 0
   \   0000001A   0000               DC8 0, 0

   \                                 In segment DATA_C, align 4, align-sorted
   \                     `?<Constant L"\\x41c\\x438\\x43d\\x443\\x442\\x44b">`:
   \   00000000   1C0438043D04       DC8 1CH, 4, 38H, 4, 3DH, 4, 43H, 4
   \              4304        
   \   00000008   42044B040000       DC8 42H, 4, 4BH, 4, 0, 0
   \   0000000E   0000               DC8 0, 0

   \                                 In segment DATA_C, align 4, align-sorted
   \                     `?<Constant L"\\x422\\x438\\x43f\\x20\\x43d\\x430\\x43`:
   \   00000000   220438043F04       DC8 22H, 4, 38H, 4, 3FH, 4, 20H, 0
   \              2000        
   \   00000008   3D0430043F04       DC8 3DH, 4, 30H, 4, 3FH, 4, 3EH, 4
   \              3E04        
   \   00000010   3C0438043D04       DC8 3CH, 4, 38H, 4, 3DH, 4, 30H, 4
   \              3004        
   \   00000018   3D0438044F04       DC8 3DH, 4, 38H, 4, 4FH, 4, 0, 0
   \              0000        

   \                                 In segment DATA_C, align 4, align-sorted
   \                     `?<Constant L"\\x41f\\x43e\\x20\\x434\\x43d\\x44f\\x43`:
   \   00000000   1F043E042000       DC8 1FH, 4, 3EH, 4, 20H, 0, 34H, 4
   \              3404        
   \   00000008   3D044F043C04       DC8 3DH, 4, 4FH, 4, 3CH, 4, 0, 0
   \              0000        

   \                                 In segment DATA_C, align 4, align-sorted
   \                     `?<Constant L"\\x414\\x430\\x442\\x430">`:
   \   00000000   140430044204       DC8 14H, 4, 30H, 4, 42H, 4, 30H, 4
   \              3004        
   \   00000008   0000               DC8 0, 0
   \   0000000A   0000               DC8 0, 0

   \                                 In segment DATA_C, align 4, align-sorted
   \                     `?<Constant L"\\x422\\x438\\x43f\\x20\\x432\\x440\\x43`:
   \   00000000   220438043F04       DC8 22H, 4, 38H, 4, 3FH, 4, 20H, 0
   \              2000        
   \   00000008   320440043504       DC8 32H, 4, 40H, 4, 35H, 4, 3CH, 4
   \              3C04        
   \   00000010   35043D043804       DC8 35H, 4, 3DH, 4, 38H, 4, 0, 0
   \              0000        

   \                                 In segment DATA_C, align 4, align-sorted
   \                     `?<Constant L"\\x41e\\x43f\\x440\\x2e\\x20\\x432\\x440`:
   \   00000000   1E043F044004       DC8 1EH, 4, 3FH, 4, 40H, 4, 2EH, 0
   \              2E00        
   \   00000008   200032044004       DC8 20H, 0, 32H, 4, 40H, 4, 35H, 4
   \              3504        
   \   00000010   3C044F040000       DC8 3CH, 4, 4FH, 4, 0, 0
   \   00000016   0000               DC8 0, 0

   \                                 In segment DATA_C, align 4, align-sorted
   \                     `?<Constant L"\\x418\\x43d\\x442\\x435\\x440\\x432\\x4`:
   \   00000000   18043D044204       DC8 18H, 4, 3DH, 4, 42H, 4, 35H, 4
   \              3504        
   \   00000008   400432043004       DC8 40H, 4, 32H, 4, 30H, 4, 3BH, 4
   \              3B04        
   \   00000010   0000               DC8 0, 0
   \   00000012   0000               DC8 0, 0

   \                                 In segment DATA_C, align 4, align-sorted
   \                     `?<Constant L"\\x412\\x44b\\x43a\\x43b\\x2e">`:
   \   00000000   12044B043A04       DC8 12H, 4, 4BH, 4, 3AH, 4, 3BH, 4
   \              3B04        
   \   00000008   2E000000           DC8 2EH, 0, 0, 0

   \                                 In segment DATA_C, align 4, align-sorted
   \                     `?<Constant L"\\x412\\x43a\\x43b\\x2e">`:
   \   00000000   12043A043B04       DC8 12H, 4, 3AH, 4, 3BH, 4, 2EH, 0
   \              2E00        
   \   00000008   0000               DC8 0, 0
   \   0000000A   0000               DC8 0, 0

   \                                 In segment DATA_C, align 4, align-sorted
   \                     `?<Constant L"\\x412\\x43a\\x43b\\x2e\\x20\\x28\\x431\\`:
   \   00000000   12043A043B04       DC8 12H, 4, 3AH, 4, 3BH, 4, 2EH, 0
   \              2E00        
   \   00000008   200028003104       DC8 20H, 0, 28H, 0, 31H, 4, 35H, 4
   \              3504        
   \   00000010   370420003704       DC8 37H, 4, 20H, 0, 37H, 4, 32H, 4
   \              3204        
   \   00000018   43043A043004       DC8 43H, 4, 3AH, 4, 30H, 4, 29H, 0
   \              2900        
   \   00000020   0000               DC8 0, 0
   \   00000022   0000               DC8 0, 0

   \                                 In segment DATA_C, align 4, align-sorted
   \                     `?<Constant L"\\x41e\\x431\\x44b\\x447\\x43d\\x44b\\x4`:
   \   00000000   1E0431044B04       DC8 1EH, 4, 31H, 4, 4BH, 4, 47H, 4
   \              4704        
   \   00000008   3D044B043904       DC8 3DH, 4, 4BH, 4, 39H, 4, 0, 0
   \              0000        

   \                                 In segment DATA_C, align 4, align-sorted
   \                     `?<Constant L"\\x41b\\x44e\\x431\\x430\\x44f\\x20\\x43`:
   \   00000000   1B044E043104       DC8 1BH, 4, 4EH, 4, 31H, 4, 30H, 4
   \              3004        
   \   00000008   4F0420003A04       DC8 4FH, 4, 20H, 0, 3AH, 4, 3BH, 4
   \              3B04        
   \   00000010   300432043804       DC8 30H, 4, 32H, 4, 38H, 4, 48H, 4
   \              4804        
   \   00000018   30040000           DC8 30H, 4, 0, 0

   \                                 In segment DATA_C, align 4, align-sorted
   \                     `?<Constant L"\\x410\\x432\\x442\\x43e\\x43c\\x430\\x4`:
   \   00000000   100432044204       DC8 10H, 4, 32H, 4, 42H, 4, 3EH, 4
   \              3E04        
   \   00000008   3C0430044204       DC8 3CH, 4, 30H, 4, 42H, 4, 38H, 4
   \              3804        
   \   00000010   470435044104       DC8 47H, 4, 35H, 4, 41H, 4, 3AH, 4
   \              3A04        
   \   00000018   38040000           DC8 38H, 4, 0, 0

   \                                 In segment DATA_C, align 4, align-sorted
   \                     `?<Constant L"\\x41f\\x440\\x438\\x451\\x43c\\x20\\x43`:
   \   00000000   1F0440043804       DC8 1FH, 4, 40H, 4, 38H, 4, 51H, 4
   \              5104        
   \   00000008   3C0420003204       DC8 3CH, 4, 20H, 0, 32H, 4, 41H, 4
   \              4104        
   \   00000010   350445040000       DC8 35H, 4, 45H, 4, 0, 0
   \   00000016   0000               DC8 0, 0

   \                                 In segment DATA_C, align 4, align-sorted
   \                     `?<Constant L"\\x418\\x437\\x20\\x441\\x43f\\x438\\x44`:
   \   00000000   180437042000       DC8 18H, 4, 37H, 4, 20H, 0, 41H, 4
   \              4104        
   \   00000008   3F0438044104       DC8 3FH, 4, 38H, 4, 41H, 4, 3AH, 4
   \              3A04        
   \   00000010   30040000           DC8 30H, 4, 0, 0

   \                                 In segment DATA_C, align 4, align-sorted
   \                     `?<Constant L"\\x41d\\x435\\x442">`:
   \   00000000   1D0435044204       DC8 1DH, 4, 35H, 4, 42H, 4, 0, 0
   \              0000        

   \                                 In segment DATA_C, align 4, align-sorted
   \                     `?<Constant L"\\x412\\x44b\\x431\\x435\\x440\\x438\\x4`:
   \   00000000   12044B043104       DC8 12H, 4, 4BH, 4, 31H, 4, 35H, 4
   \              3504        
   \   00000008   400438044204       DC8 40H, 4, 38H, 4, 42H, 4, 35H, 4
   \              3504        
   \   00000010   20003F044004       DC8 20H, 0, 3FH, 4, 40H, 4, 3EH, 4
   \              3E04        
   \   00000018   440438043B04       DC8 44H, 4, 38H, 4, 3BH, 4, 4CH, 4
   \              4C04        
   \   00000020   0000               DC8 0, 0
   \   00000022   0000               DC8 0, 0

   \                                 In segment DATA_C, align 4, align-sorted
   \                     `?<Constant L"\\x412\\x440\\x435\\x43c\\x44f\\x20\\x43_2`:
   \   00000000   120440043504       DC8 12H, 4, 40H, 4, 35H, 4, 3CH, 4
   \              3C04        
   \   00000008   4F0420003D04       DC8 4FH, 4, 20H, 0, 3DH, 4, 30H, 4
   \              3004        
   \   00000010   470430043B04       DC8 47H, 4, 30H, 4, 3BH, 4, 30H, 4
   \              3004        
   \   00000018   200041043E04       DC8 20H, 0, 41H, 4, 3EH, 4, 31H, 4
   \              3104        
   \   00000020   4B0442043804       DC8 4BH, 4, 42H, 4, 38H, 4, 4FH, 4
   \              4F04        
   \   00000028   0000               DC8 0, 0
   \   0000002A   0000               DC8 0, 0

   \                                 In segment DATA_C, align 4, align-sorted
   \                     `?<Constant L"\\x412\\x440\\x435\\x43c\\x44f\\x20\\x43_3`:
   \   00000000   120440043504       DC8 12H, 4, 40H, 4, 35H, 4, 3CH, 4
   \              3C04        
   \   00000008   4F0420003A04       DC8 4FH, 4, 20H, 0, 3AH, 4, 3EH, 4
   \              3E04        
   \   00000010   3D0446043004       DC8 3DH, 4, 46H, 4, 30H, 4, 20H, 0
   \              2000        
   \   00000018   41043E043104       DC8 41H, 4, 3EH, 4, 31H, 4, 4BH, 4
   \              4B04        
   \   00000020   420438044F04       DC8 42H, 4, 38H, 4, 4FH, 4, 20H, 0
   \              2000        
   \   00000028   280035044104       DC8 28H, 0, 35H, 4, 41H, 4, 3BH, 4
   \              3B04        
   \   00000030   380420003204       DC8 38H, 4, 20H, 0, 32H, 4, 4BH, 4
   \              4B04        
   \   00000038   310440043004       DC8 31H, 4, 40H, 4, 30H, 4, 3DH, 4
   \              3D04        
   \   00000040   200040043504       DC8 20H, 0, 40H, 4, 35H, 4, 36H, 4
   \              3604        
   \   00000048   38043C042000       DC8 38H, 4, 3CH, 4, 20H, 0, 27H, 0
   \              2700        
   \   00000050   38043D044204       DC8 38H, 4, 3DH, 4, 42H, 4, 35H, 4
   \              3504        
   \   00000058   400432043004       DC8 40H, 4, 32H, 4, 30H, 4, 3BH, 4
   \              3B04        
   \   00000060   270029000000       DC8 27H, 0, 29H, 0, 0, 0
   \   00000066   0000               DC8 0, 0

   \                                 In segment DATA_C, align 4, align-sorted
   \                     `?<Constant L"\\x414\\x435\\x439\\x441\\x442\\x432\\x4`:
   \   00000000   140435043904       DC8 14H, 4, 35H, 4, 39H, 4, 41H, 4
   \              4104        
   \   00000008   420432043804       DC8 42H, 4, 32H, 4, 38H, 4, 35H, 4
   \              3504        
   \   00000010   2C0020004304       DC8 2CH, 0, 20H, 0, 43H, 4, 41H, 4
   \              4104        
   \   00000018   420430043D04       DC8 42H, 4, 30H, 4, 3DH, 4, 3EH, 4
   \              3E04        
   \   00000020   32043B043504       DC8 32H, 4, 3BH, 4, 35H, 4, 3DH, 4
   \              3D04        
   \   00000028   3D043E043504       DC8 3DH, 4, 3EH, 4, 35H, 4, 20H, 0
   \              2000        
   \   00000030   3D0430042000       DC8 3DH, 4, 30H, 4, 20H, 0, 34H, 4
   \              3404        
   \   00000038   30043D043D04       DC8 30H, 4, 3DH, 4, 3DH, 4, 3EH, 4
   \              3E04        
   \   00000040   350420003204       DC8 35H, 4, 20H, 0, 32H, 4, 40H, 4
   \              4004        
   \   00000048   35043C044F04       DC8 35H, 4, 3CH, 4, 4FH, 4, 0, 0
   \              0000        

   \                                 In segment DATA_C, align 4, align-sorted
   \                     `?<Constant L"\\x414\\x43d\\x438\\x20\\x432\\x44b\\x43`:
   \   00000000   14043D043804       DC8 14H, 4, 3DH, 4, 38H, 4, 20H, 0
   \              2000        
   \   00000008   32044B043F04       DC8 32H, 4, 4BH, 4, 3FH, 4, 3EH, 4
   \              3E04        
   \   00000010   3B043D043504       DC8 3BH, 4, 3DH, 4, 35H, 4, 3DH, 4
   \              3D04        
   \   00000018   38044F042000       DC8 38H, 4, 4FH, 4, 20H, 0, 41H, 4
   \              4104        
   \   00000020   3E0431044B04       DC8 3EH, 4, 31H, 4, 4BH, 4, 42H, 4
   \              4204        
   \   00000028   38044F042000       DC8 38H, 4, 4FH, 4, 20H, 0, 28H, 0
   \              2800        
   \   00000030   350441043B04       DC8 35H, 4, 41H, 4, 3BH, 4, 38H, 4
   \              3804        
   \   00000038   200032044B04       DC8 20H, 0, 32H, 4, 4BH, 4, 31H, 4
   \              3104        
   \   00000040   400430043D04       DC8 40H, 4, 30H, 4, 3DH, 4, 20H, 0
   \              2000        
   \   00000048   400435043604       DC8 40H, 4, 35H, 4, 36H, 4, 38H, 4
   \              3804        
   \   00000050   3C0420002700       DC8 3CH, 4, 20H, 0, 27H, 0, 3FH, 4
   \              3F04        
   \   00000058   3E0420003404       DC8 3EH, 4, 20H, 0, 34H, 4, 3DH, 4
   \              3D04        
   \   00000060   4F043C042700       DC8 4FH, 4, 3CH, 4, 27H, 0, 29H, 0
   \              2900        
   \   00000068   0000               DC8 0, 0
   \   0000006A   0000               DC8 0, 0

   \                                 In segment DATA_C, align 4, align-sorted
   \                     `?<Constant L"\\x414\\x430\\x442\\x430\\x20\\x43d\\x43_1`:
   \   00000000   140430044204       DC8 14H, 4, 30H, 4, 42H, 4, 30H, 4
   \              3004        
   \   00000008   20003D043004       DC8 20H, 0, 3DH, 4, 30H, 4, 47H, 4
   \              4704        
   \   00000010   30043B043004       DC8 30H, 4, 3BH, 4, 30H, 4, 20H, 0
   \              2000        
   \   00000018   280035044104       DC8 28H, 0, 35H, 4, 41H, 4, 3BH, 4
   \              3B04        
   \   00000020   380420003204       DC8 38H, 4, 20H, 0, 32H, 4, 4BH, 4
   \              4B04        
   \   00000028   310440043004       DC8 31H, 4, 40H, 4, 30H, 4, 3DH, 4
   \              3D04        
   \   00000030   200040043504       DC8 20H, 0, 40H, 4, 35H, 4, 36H, 4
   \              3604        
   \   00000038   38043C042000       DC8 38H, 4, 3CH, 4, 20H, 0, 27H, 0
   \              2700        
   \   00000040   340430044204       DC8 34H, 4, 30H, 4, 42H, 4, 30H, 4
   \              3004        
   \   00000048   270029000000       DC8 27H, 0, 29H, 0, 0, 0
   \   0000004E   0000               DC8 0, 0

   \                                 In segment DATA_C, align 4, align-sorted
   \                     `?<Constant L"\\x414\\x430\\x442\\x430\\x20\\x43a\\x43_1`:
   \   00000000   140430044204       DC8 14H, 4, 30H, 4, 42H, 4, 30H, 4
   \              3004        
   \   00000008   20003A043E04       DC8 20H, 0, 3AH, 4, 3EH, 4, 3DH, 4
   \              3D04        
   \   00000010   460430042000       DC8 46H, 4, 30H, 4, 20H, 0, 28H, 0
   \              2800        
   \   00000018   350441043B04       DC8 35H, 4, 41H, 4, 3BH, 4, 38H, 4
   \              3804        
   \   00000020   200032044B04       DC8 20H, 0, 32H, 4, 4BH, 4, 31H, 4
   \              3104        
   \   00000028   400430043D04       DC8 40H, 4, 30H, 4, 3DH, 4, 20H, 0
   \              2000        
   \   00000030   400435043604       DC8 40H, 4, 35H, 4, 36H, 4, 38H, 4
   \              3804        
   \   00000038   3C0420002700       DC8 3CH, 4, 20H, 0, 27H, 0, 34H, 4
   \              3404        
   \   00000040   300442043004       DC8 30H, 4, 42H, 4, 30H, 4, 27H, 0
   \              2700        
   \   00000048   29000000           DC8 29H, 0, 0, 0

   \                                 In segment DATA_C, align 4, align-sorted
   \                     `?<Constant L"\\x41d\\x430\\x437\\x432\\x430\\x43d\\x4_1`:
   \   00000000   1D0430043704       DC8 1DH, 4, 30H, 4, 37H, 4, 32H, 4
   \              3204        
   \   00000008   30043D043804       DC8 30H, 4, 3DH, 4, 38H, 4, 35H, 4
   \              3504        
   \   00000010   200041043E04       DC8 20H, 0, 41H, 4, 3EH, 4, 31H, 4
   \              3104        
   \   00000018   4B0442043804       DC8 4BH, 4, 42H, 4, 38H, 4, 4FH, 4
   \              4F04        
   \   00000020   2C0020003A04       DC8 2CH, 0, 20H, 0, 3AH, 4, 3EH, 4
   \              3E04        
   \   00000028   42043E044004       DC8 42H, 4, 3EH, 4, 40H, 4, 3EH, 4
   \              3E04        
   \   00000030   350420003104       DC8 35H, 4, 20H, 0, 31H, 4, 43H, 4
   \              4304        
   \   00000038   340435044204       DC8 34H, 4, 35H, 4, 42H, 4, 20H, 0
   \              2000        
   \   00000040   380441043F04       DC8 38H, 4, 41H, 4, 3FH, 4, 3EH, 4
   \              3E04        
   \   00000048   3B044C043704       DC8 3BH, 4, 4CH, 4, 37H, 4, 3EH, 4
   \              3E04        
   \   00000050   320430044204       DC8 32H, 4, 30H, 4, 42H, 4, 4CH, 4
   \              4C04        
   \   00000058   41044F042000       DC8 41H, 4, 4FH, 4, 20H, 0, 32H, 4
   \              3204        
   \   00000060   20003D043004       DC8 20H, 0, 3DH, 4, 30H, 4, 3FH, 4
   \              3F04        
   \   00000068   3E043C043804       DC8 3EH, 4, 3CH, 4, 38H, 4, 3DH, 4
   \              3D04        
   \   00000070   30043D043804       DC8 30H, 4, 3DH, 4, 38H, 4, 4FH, 4
   \              4F04        
   \   00000078   45042C002000       DC8 45H, 4, 2CH, 0, 20H, 0, 30H, 4
   \              3004        
   \   00000080   200042043004       DC8 20H, 0, 42H, 4, 30H, 4, 3AH, 4
   \              3A04        
   \   00000088   360435042000       DC8 36H, 4, 35H, 4, 20H, 0, 3DH, 4
   \              3D04        
   \   00000090   300420004004       DC8 30H, 4, 20H, 0, 40H, 4, 30H, 4
   \              3004        
   \   00000098   31043E044704       DC8 31H, 4, 3EH, 4, 47H, 4, 35H, 4
   \              3504        
   \   000000A0   3C0420004104       DC8 3CH, 4, 20H, 0, 41H, 4, 42H, 4
   \              4204        
   \   000000A8   3E043B043504       DC8 3EH, 4, 3BH, 4, 35H, 4, 20H, 0
   \              2000        
   \   000000B0   4D043B044C04       DC8 4DH, 4, 3BH, 4, 4CH, 4, 44H, 4
   \              4404        
   \   000000B8   3E043C042000       DC8 3EH, 4, 3CH, 4, 20H, 0, 45H, 0
   \              4500        
   \   000000C0   760074004400       DC8 76H, 0, 74H, 0, 44H, 0, 65H, 0
   \              6500        
   \   000000C8   73006B000000       DC8 73H, 0, 6BH, 0, 0, 0
   \   000000CE   0000               DC8 0, 0

   \                                 In segment DATA_C, align 4, align-sorted
   \                     `?<Constant L"\\x412\\x440\\x435\\x43c\\x44f\\x20\\x43_4`:
   \   00000000   120440043504       DC8 12H, 4, 40H, 4, 35H, 4, 3CH, 4
   \              3C04        
   \   00000008   4F0420003D04       DC8 4FH, 4, 20H, 0, 3DH, 4, 30H, 4
   \              3004        
   \   00000010   3F043E043C04       DC8 3FH, 4, 3EH, 4, 3CH, 4, 38H, 4
   \              3804        
   \   00000018   3D0430043D04       DC8 3DH, 4, 30H, 4, 3DH, 4, 38H, 4
   \              3804        
   \   00000020   39040000           DC8 39H, 4, 0, 0

   \                                 In segment DATA_C, align 4, align-sorted
   \                     `?<Constant L"\\x47\\x50\\x53\\x2d\\x43c\\x435\\x442\\x`:
   \   00000000   470050005300       DC8 47H, 0, 50H, 0, 53H, 0, 2DH, 0
   \              2D00        
   \   00000008   3C0435044204       DC8 3CH, 4, 35H, 4, 42H, 4, 3AH, 4
   \              3A04        
   \   00000010   30042E002000       DC8 30H, 4, 2EH, 0, 20H, 0, 18H, 4
   \              1804        
   \   00000018   41043F043E04       DC8 41H, 4, 3FH, 4, 3EH, 4, 3BH, 4
   \              3B04        
   \   00000020   4C0437044304       DC8 4CH, 4, 37H, 4, 43H, 4, 35H, 4
   \              3504        
   \   00000028   420441044F04       DC8 42H, 4, 41H, 4, 4FH, 4, 20H, 0
   \              2000        
   \   00000030   37043D043004       DC8 37H, 4, 3DH, 4, 30H, 4, 47H, 4
   \              4704        
   \   00000038   35043D043804       DC8 35H, 4, 3DH, 4, 38H, 4, 35H, 4
   \              3504        
   \   00000040   200032043804       DC8 20H, 0, 32H, 4, 38H, 4, 34H, 4
   \              3404        
   \   00000048   300420004300       DC8 30H, 4, 20H, 0, 43H, 0, 49H, 0
   \              4900        
   \   00000050   44002D004C00       DC8 44H, 0, 2DH, 0, 4CH, 0, 41H, 0
   \              4100        
   \   00000058   43002E002000       DC8 43H, 0, 2EH, 0, 20H, 0, 1DH, 4
   \              1D04        
   \   00000060   30043F044004       DC8 30H, 4, 3FH, 4, 40H, 4, 38H, 4
   \              3804        
   \   00000068   3C0435044004       DC8 3CH, 4, 35H, 4, 40H, 4, 2CH, 0
   \              2C00        
   \   00000070   200027003200       DC8 20H, 0, 27H, 0, 32H, 0, 30H, 0
   \              3000        
   \   00000078   320038002D00       DC8 32H, 0, 38H, 0, 2DH, 0, 34H, 0
   \              3400        
   \   00000080   410042004300       DC8 41H, 0, 42H, 0, 43H, 0, 27H, 0
   \              2700        
   \   00000088   2E000000           DC8 2EH, 0, 0, 0

   \                                 In segment DATA_C, align 4, align-sorted
   \                     `?<Constant L"\\x41a\\x43b\\x43e\\x43d\\x43e\\x433\\x4`:
   \   00000000   1A043B043E04       DC8 1AH, 4, 3BH, 4, 3EH, 4, 3DH, 4
   \              3D04        
   \   00000008   3E0433043504       DC8 3EH, 4, 33H, 4, 35H, 4, 3DH, 4
   \              3D04        
   \   00000010   350440043004       DC8 35H, 4, 40H, 4, 30H, 4, 42H, 4
   \              4204        
   \   00000018   3E0440040000       DC8 3EH, 4, 40H, 4, 0, 0
   \   0000001E   0000               DC8 0, 0

   \                                 In segment DATA_C, align 4, align-sorted
   \                     `?<Constant L"\\x414\\x430\\x43d\\x43d\\x430\\x44f\\x2`:
   \   00000000   140430043D04       DC8 14H, 4, 30H, 4, 3DH, 4, 3DH, 4
   \              3D04        
   \   00000008   30044F042000       DC8 30H, 4, 4FH, 4, 20H, 0, 44H, 4
   \              4404        
   \   00000010   43043D043A04       DC8 43H, 4, 3DH, 4, 3AH, 4, 46H, 4
   \              4604        
   \   00000018   38044F042000       DC8 38H, 4, 4FH, 4, 20H, 0, 38H, 4
   \              3804        
   \   00000020   41043F043E04       DC8 41H, 4, 3FH, 4, 3EH, 4, 3BH, 4
   \              3B04        
   \   00000028   4C0437044304       DC8 4CH, 4, 37H, 4, 43H, 4, 35H, 4
   \              3504        
   \   00000030   420441044F04       DC8 42H, 4, 41H, 4, 4FH, 4, 20H, 0
   \              2000        
   \   00000038   34043B044F04       DC8 34H, 4, 3BH, 4, 4FH, 4, 20H, 0
   \              2000        
   \   00000040   27003A043B04       DC8 27H, 0, 3AH, 4, 3BH, 4, 3EH, 4
   \              3E04        
   \   00000048   3D0438044004       DC8 3DH, 4, 38H, 4, 40H, 4, 3EH, 4
   \              3E04        
   \   00000050   320430043D04       DC8 32H, 4, 30H, 4, 3DH, 4, 38H, 4
   \              3804        
   \   00000058   4F0427002000       DC8 4FH, 4, 27H, 0, 20H, 0, 41H, 4
   \              4104        
   \   00000060   3E0431044B04       DC8 3EH, 4, 31H, 4, 4BH, 4, 42H, 4
   \              4204        
   \   00000068   38044F042000       DC8 38H, 4, 4FH, 4, 20H, 0, 47H, 4
   \              4704        
   \   00000070   350440043504       DC8 35H, 4, 40H, 4, 35H, 4, 37H, 4
   \              3704        
   \   00000078   20003E043F04       DC8 20H, 0, 3EH, 4, 3FH, 4, 40H, 4
   \              4004        
   \   00000080   350434043504       DC8 35H, 4, 34H, 4, 35H, 4, 3BH, 4
   \              3B04        
   \   00000088   51043D043D04       DC8 51H, 4, 3DH, 4, 3DH, 4, 4BH, 4
   \              4B04        
   \   00000090   350420003F04       DC8 35H, 4, 20H, 0, 3FH, 4, 40H, 4
   \              4004        
   \   00000098   3E043C043504       DC8 3EH, 4, 3CH, 4, 35H, 4, 36H, 4
   \              3604        
   \   000000A0   430442043A04       DC8 43H, 4, 42H, 4, 3AH, 4, 38H, 4
   \              3804        
   \   000000A8   200032044004       DC8 20H, 0, 32H, 4, 40H, 4, 35H, 4
   \              3504        
   \   000000B0   3C0435043D04       DC8 3CH, 4, 35H, 4, 3DH, 4, 38H, 4
   \              3804        
   \   000000B8   0000               DC8 0, 0
   \   000000BA   0000               DC8 0, 0

   \                                 In segment DATA_C, align 4, align-sorted
   \                     `?<Constant L"\\x418\\x43d\\x434\\x438\\x43a\\x430\\x4`:
   \   00000000   18043D043404       DC8 18H, 4, 3DH, 4, 34H, 4, 38H, 4
   \              3804        
   \   00000008   3A0430044604       DC8 3AH, 4, 30H, 4, 46H, 4, 38H, 4
   \              3804        
   \   00000010   4F040000           DC8 4FH, 4, 0, 0

   \                                 In segment DATA_C, align 4, align-sorted
   \                     `?<Constant L"\\x426\\x432\\x435\\x442\\x43d\\x44b\\x4`:
   \   00000000   260432043504       DC8 26H, 4, 32H, 4, 35H, 4, 42H, 4
   \              4204        
   \   00000008   3D044B043504       DC8 3DH, 4, 4BH, 4, 35H, 4, 20H, 0
   \              2000        
   \   00000010   340438043E04       DC8 34H, 4, 38H, 4, 3EH, 4, 34H, 4
   \              3404        
   \   00000018   4B040000           DC8 4BH, 4, 0, 0

   \                                 In segment DATA_C, align 4, align-sorted
   \                     `?<Constant L"\\x41e\\x440\\x430\\x43d\\x436\\x2e\\x20`:
   \   00000000   1E0440043004       DC8 1EH, 4, 40H, 4, 30H, 4, 3DH, 4
   \              3D04        
   \   00000008   36042E002000       DC8 36H, 4, 2EH, 0, 20H, 0, 34H, 4
   \              3404        
   \   00000010   38043E043404       DC8 38H, 4, 3EH, 4, 34H, 4, 0, 0
   \              0000        

   \                                 In segment DATA_C, align 4, align-sorted
   \                     `?<Constant L"\\x41a\\x440\\x430\\x441\\x43d\\x44b\\x4`:
   \   00000000   1A0440043004       DC8 1AH, 4, 40H, 4, 30H, 4, 41H, 4
   \              4104        
   \   00000008   3D044B043904       DC8 3DH, 4, 4BH, 4, 39H, 4, 20H, 0
   \              2000        
   \   00000010   340438043E04       DC8 34H, 4, 38H, 4, 3EH, 4, 34H, 4
   \              3404        
   \   00000018   0000               DC8 0, 0
   \   0000001A   0000               DC8 0, 0

   \                                 In segment DATA_C, align 4, align-sorted
   \                     `?<Constant L"\\x412\\x438\\x431\\x440\\x430\\x446\\x4`:
   \   00000000   120438043104       DC8 12H, 4, 38H, 4, 31H, 4, 40H, 4
   \              4004        
   \   00000008   300446043804       DC8 30H, 4, 46H, 4, 38H, 4, 4FH, 4
   \              4F04        
   \   00000010   0000               DC8 0, 0
   \   00000012   0000               DC8 0, 0

   \                                 In segment DATA_C, align 4, align-sorted
   \                     `?<Constant L"\\x417\\x432\\x443\\x43a">`:
   \   00000000   170432044304       DC8 17H, 4, 32H, 4, 43H, 4, 3AH, 4
   \              3A04        
   \   00000008   0000               DC8 0, 0
   \   0000000A   0000               DC8 0, 0

   \                                 In segment DATA_C, align 4, align-sorted
   \                     `?<Constant L"\\x421\\x435\\x43a\\x443\\x43d\\x434\\x4`:
   \   00000000   210435043A04       DC8 21H, 4, 35H, 4, 3AH, 4, 43H, 4
   \              4304        
   \   00000008   3D0434044B04       DC8 3DH, 4, 34H, 4, 4BH, 4, 0, 0
   \              0000        

   \                                 In segment DATA_C, align 4, align-sorted
   \                     `?<Constant L"\\x412\\x432\\x435\\x434\\x438\\x442\\x4`:
   \   00000000   120432043504       DC8 12H, 4, 32H, 4, 35H, 4, 34H, 4
   \              3404        
   \   00000008   380442043504       DC8 38H, 4, 42H, 4, 35H, 4, 20H, 0
   \              2000        
   \   00000010   38043D044204       DC8 38H, 4, 3DH, 4, 42H, 4, 35H, 4
   \              3504        
   \   00000018   400432043004       DC8 40H, 4, 32H, 4, 30H, 4, 3BH, 4
   \              3B04        
   \   00000020   0000               DC8 0, 0
   \   00000022   0000               DC8 0, 0

   \                                 In segment DATA_C, align 4, align-sorted
   \                     `?<Constant L"\\x412\\x432\\x435\\x434\\x438\\x442\\x4_1`:
   \   00000000   120432043504       DC8 12H, 4, 32H, 4, 35H, 4, 34H, 4
   \              3404        
   \   00000008   380442043504       DC8 38H, 4, 42H, 4, 35H, 4, 20H, 0
   \              2000        
   \   00000010   3C0430043A04       DC8 3CH, 4, 30H, 4, 3AH, 4, 41H, 4
   \              4104        
   \   00000018   2E003A043E04       DC8 2EH, 0, 3AH, 4, 3EH, 4, 3BH, 4
   \              3B04        
   \   00000020   2D0032043E04       DC8 2DH, 0, 32H, 4, 3EH, 4, 0, 0
   \              0000        

   \                                 In segment DATA_C, align 4, align-sorted
   \                     `?<Constant L"\\x421\\x442\\x430\\x43d\\x434\\x430\\x4`:
   \   00000000   210442043004       DC8 21H, 4, 42H, 4, 30H, 4, 3DH, 4
   \              3D04        
   \   00000008   340430044004       DC8 34H, 4, 30H, 4, 40H, 4, 42H, 4
   \              4204        
   \   00000010   3D044B043504       DC8 3DH, 4, 4BH, 4, 35H, 4, 20H, 0
   \              2000        
   \   00000018   3D0430044104       DC8 3DH, 4, 30H, 4, 41H, 4, 42H, 4
   \              4204        
   \   00000020   40043E043904       DC8 40H, 4, 3EH, 4, 39H, 4, 3AH, 4
   \              3A04        
   \   00000028   38040000           DC8 38H, 4, 0, 0

   \                                 In segment DATA_C, align 4, align-sorted
   \                     `?<Constant L"\\x412\\x44b\\x431\\x43e\\x440">`:
   \   00000000   12044B043104       DC8 12H, 4, 4BH, 4, 31H, 4, 3EH, 4
   \              3E04        
   \   00000008   40040000           DC8 40H, 4, 0, 0

   \                                 In segment DATA_C, align 4, align-sorted
   \                     `?<Constant L"\\x413\\x440\\x43e\\x43c\\x43a\\x43e\\x4`:
   \   00000000   130440043E04       DC8 13H, 4, 40H, 4, 3EH, 4, 3CH, 4
   \              3C04        
   \   00000008   3A043E044104       DC8 3AH, 4, 3EH, 4, 41H, 4, 42H, 4
   \              4204        
   \   00000010   4C040000           DC8 4CH, 4, 0, 0

   \                                 In segment DATA_C, align 4, align-sorted
   \                     `?<Constant L"\\x414\\x435\\x439\\x441\\x442\\x432\\x4_1`:
   \   00000000   140435043904       DC8 14H, 4, 35H, 4, 39H, 4, 41H, 4
   \              4104        
   \   00000008   420432043804       DC8 42H, 4, 32H, 4, 38H, 4, 4FH, 4
   \              4F04        
   \   00000010   0000               DC8 0, 0
   \   00000012   0000               DC8 0, 0

   \                                 In segment DATA_C, align 4, align-sorted
   \                     `?<Constant L"\\x41c\\x443\\x437\\x2e\\x444\\x430\\x43`:
   \   00000000   1C0443043704       DC8 1CH, 4, 43H, 4, 37H, 4, 2EH, 0
   \              2E00        
   \   00000008   440430043904       DC8 44H, 4, 30H, 4, 39H, 4, 3BH, 4
   \              3B04        
   \   00000010   0000               DC8 0, 0
   \   00000012   0000               DC8 0, 0

   \                                 In segment DATA_C, align 4, align-sorted
   \                     `?<Constant L"\\x422\\x435\\x43a\\x443\\x449\\x438\\x4`:
   \   00000000   220435043A04       DC8 22H, 4, 35H, 4, 3AH, 4, 43H, 4
   \              4304        
   \   00000008   490438043904       DC8 49H, 4, 38H, 4, 39H, 4, 20H, 0
   \              2000        
   \   00000010   410442043004       DC8 41H, 4, 42H, 4, 30H, 4, 42H, 4
   \              4204        
   \   00000018   430441040000       DC8 43H, 4, 41H, 4, 0, 0
   \   0000001E   0000               DC8 0, 0

   \                                 In segment DATA_C, align 4, align-sorted
   \                     `?<Constant L"\\x41c\\x443\\x437\\x2e\\x444\\x430\\x43_1`:
   \   00000000   1C0443043704       DC8 1CH, 4, 43H, 4, 37H, 4, 2EH, 0
   \              2E00        
   \   00000008   440430043904       DC8 44H, 4, 30H, 4, 39H, 4, 3BH, 4
   \              3B04        
   \   00000010   20003D043504       DC8 20H, 0, 3DH, 4, 35H, 4, 20H, 0
   \              2000        
   \   00000018   430441044204       DC8 43H, 4, 41H, 4, 42H, 4, 30H, 4
   \              3004        
   \   00000020   3D043E043204       DC8 3DH, 4, 3EH, 4, 32H, 4, 3BH, 4
   \              3B04        
   \   00000028   35043D040000       DC8 35H, 4, 3DH, 4, 0, 0
   \   0000002E   0000               DC8 0, 0

   \                                 In segment DATA_C, align 4, align-sorted
   \                     `?<Constant L"\\x412\\x440\\x435\\x43c\\x44f">`:
   \   00000000   120440043504       DC8 12H, 4, 40H, 4, 35H, 4, 3CH, 4
   \              3C04        
   \   00000008   4F040000           DC8 4FH, 4, 0, 0

   \                                 In segment DATA_C, align 4, align-sorted
   \                     `?<Constant L"\\x421\\x43e\\x445\\x440\\x430\\x43d\\x4`:
   \   00000000   21043E044504       DC8 21H, 4, 3EH, 4, 45H, 4, 40H, 4
   \              4004        
   \   00000008   30043D043804       DC8 30H, 4, 3DH, 4, 38H, 4, 42H, 4
   \              4204        
   \   00000010   4C040000           DC8 4CH, 4, 0, 0

   \                                 In segment DATA_C, align 4, align-sorted
   \                     `?<Constant L"\\x41d\\x430\\x20\\x43a\\x430\\x440\\x44`:
   \   00000000   1D0430042000       DC8 1DH, 4, 30H, 4, 20H, 0, 3AH, 4
   \              3A04        
   \   00000008   300440044204       DC8 30H, 4, 40H, 4, 42H, 4, 43H, 4
   \              4304        
   \   00000010   20003F043004       DC8 20H, 0, 3FH, 4, 30H, 4, 3CH, 4
   \              3C04        
   \   00000018   4F0442043804       DC8 4FH, 4, 42H, 4, 38H, 4, 0, 0
   \              0000        

   \                                 In segment DATA_C, align 4, align-sorted
   \                     `?<Constant L"\\x41d\\x430\\x20\\x442\\x435\\x43b\\x43`:
   \   00000000   1D0430042000       DC8 1DH, 4, 30H, 4, 20H, 0, 42H, 4
   \              4204        
   \   00000008   35043B043504       DC8 35H, 4, 3BH, 4, 35H, 4, 44H, 4
   \              4404        
   \   00000010   3E043D040000       DC8 3EH, 4, 3DH, 4, 0, 0
   \   00000016   0000               DC8 0, 0

   Maximum stack usage in bytes:

     Function                       CSTACK
     --------                       ------
     Lang_Initialize()                 44
     Lang_Remove()                      8
     char2unicode(wchar_t *, char const *, int)
                                        8
     checkfile(wchar_t *)              40
     destroy_innative_lng()            16
     isNative(void *)                   4
     isbetween(int, int, int)           0
     lng_load(wchar_t *, wchar_t *)   196


   Segment part sizes:

     Function/Label                 Bytes
     --------------                 -----
     fsize                             4
     lng                             308
     isbetween(int, int, int)         24
     isNative(void *)                 60
     lng_load(wchar_t *, wchar_t *)  484
     destroy_innative_lng()          168
     checkfile(wchar_t *)             80
     fbuf                              4
     char2unicode(wchar_t *, char const *, int)
                                     100
     Lang_Initialize()               152
     Lang_Remove()                    36
     ??DataTable2                      4
     ??DataTable3                      4
     ??DataTable6                      4
     ?<Initializer for lng>          308
     ?<Constant L"\x41d\x430\x437\x432\x430\x43d\x4
                                      20
     ?<Constant "lnged_%d)">          24
     ?<Constant L"\x412\x440\x435\x43c\x44f\x20\x43
                                      28
     ?<Constant L"\x412\x440\x435\x43c\x44f\x20\x43_1
                                      24
     ?<Constant L"\x421\x43e\x431\x44b\x442\x438\x4
                                      16
     ?<Constant L"\x414\x43d\x438">    8
     ?<Constant L"\x414\x430\x442\x430\x20\x43d\x43
                                      24
     ?<Constant L"\x414\x430\x442\x430\x20\x43a\x43
                                      24
     ?<Constant L"\x421\x443\x431\x431\x43e\x442\x4
                                      16
     ?<Constant L"\x41d\x430\x43f\x43e\x43c\x438\x4
                                      24
     ?<Constant L"\x47\x50\x53">       8
     ?<Constant L"\x421\x43e\x437\x434\x430\x442\x4
                                      16
     ?<Constant L"\x41f\x43e\x43d\x435\x434\x435\x4
                                      24
     ?<Constant L"\x412\x442\x43e\x440\x43d\x438\x4
                                      16
     ?<Constant L"\x421\x440\x435\x434\x430">
                                      12
     ?<Constant L"\x427\x435\x442\x432\x435\x440\x4
                                      16
     ?<Constant L"\x41f\x44f\x442\x43d\x438\x446\x4
                                      16
     ?<Constant L"\x65\x6e\x63\x6f\x64\x69\x6e\x67\
                                      28
     ?<Constant L"\x412\x43e\x441\x43a\x440\x435\x4
                                      24
     ?<Constant L"\x420\x430\x431\x43e\x447\x438\x4
                                      24
     ?<Constant L"\x412\x44b\x445\x43e\x434\x43d\x4
                                      20
     ?<Constant L"\x412\x441\x435\x20\x434\x43d\x43
                                      16
     ?<Constant L"\x414\x43e\x20\x43d\x430\x447\x43
                                      24
     ?<Constant L"\x41f\x43e\x441\x43b\x435\x20\x43
                                      28
     ?<Constant L"\x414\x43e\x20\x43a\x43e\x43d\x44
                                      20
     ?<Constant L"\x41f\x43e\x441\x43b\x435\x20\x43_1
                                      28
     ?<Constant L"\x41c\x438\x43d\x443\x442\x44b">
                                      16
     ?<Constant L"\x422\x438\x43f\x20\x43d\x430\x43
                                      32
     ?<Constant L"\x41f\x43e\x20\x434\x43d\x44f\x43
                                      16
     ?<Constant L"\x414\x430\x442\x430">
                                      12
     ?<Constant L"\x422\x438\x43f\x20\x432\x440\x43
                                      24
     ?<Constant L"\x41e\x43f\x440\x2e\x20\x432\x440
                                      24
     ?<Constant L"\x418\x43d\x442\x435\x440\x432\x4
                                      20
     ?<Constant L"\x412\x44b\x43a\x43b\x2e">
                                      12
     ?<Constant L"\x412\x43a\x43b\x2e">
                                      12
     ?<Constant L"\x412\x43a\x43b\x2e\x20\x28\x431\
                                      36
     ?<Constant L"\x41e\x431\x44b\x447\x43d\x44b\x4
                                      16
     ?<Constant L"\x41b\x44e\x431\x430\x44f\x20\x43
                                      28
     ?<Constant L"\x410\x432\x442\x43e\x43c\x430\x4
                                      28
     ?<Constant L"\x41f\x440\x438\x451\x43c\x20\x43
                                      24
     ?<Constant L"\x418\x437\x20\x441\x43f\x438\x44
                                      20
     ?<Constant L"\x41d\x435\x442">    8
     ?<Constant L"\x412\x44b\x431\x435\x440\x438\x4
                                      36
     ?<Constant L"\x412\x440\x435\x43c\x44f\x20\x43_2
                                      44
     ?<Constant L"\x412\x440\x435\x43c\x44f\x20\x43_3
                                     104
     ?<Constant L"\x414\x435\x439\x441\x442\x432\x4
                                      80
     ?<Constant L"\x414\x43d\x438\x20\x432\x44b\x43
                                     108
     ?<Constant L"\x414\x430\x442\x430\x20\x43d\x43_1
                                      80
     ?<Constant L"\x414\x430\x442\x430\x20\x43a\x43_1
                                      76
     ?<Constant L"\x41d\x430\x437\x432\x430\x43d\x4_1
                                     208
     ?<Constant L"\x412\x440\x435\x43c\x44f\x20\x43_4
                                      36
     ?<Constant L"\x47\x50\x53\x2d\x43c\x435\x442\x
                                     140
     ?<Constant L"\x41a\x43b\x43e\x43d\x43e\x433\x4
                                      32
     ?<Constant L"\x414\x430\x43d\x43d\x430\x44f\x2
                                     188
     ?<Constant L"\x418\x43d\x434\x438\x43a\x430\x4
                                      20
     ?<Constant L"\x426\x432\x435\x442\x43d\x44b\x4
                                      28
     ?<Constant L"\x41e\x440\x430\x43d\x436\x2e\x20
                                      24
     ?<Constant L"\x41a\x440\x430\x441\x43d\x44b\x4
                                      28
     ?<Constant L"\x412\x438\x431\x440\x430\x446\x4
                                      20
     ?<Constant L"\x417\x432\x443\x43a">
                                      12
     ?<Constant L"\x421\x435\x43a\x443\x43d\x434\x4
                                      16
     ?<Constant L"\x412\x432\x435\x434\x438\x442\x4
                                      36
     ?<Constant L"\x412\x432\x435\x434\x438\x442\x4_1
                                      40
     ?<Constant L"\x421\x442\x430\x43d\x434\x430\x4
                                      44
     ?<Constant L"\x412\x44b\x431\x43e\x440">
                                      12
     ?<Constant L"\x413\x440\x43e\x43c\x43a\x43e\x4
                                      20
     ?<Constant L"\x414\x435\x439\x441\x442\x432\x4_1
                                      20
     ?<Constant L"\x41c\x443\x437\x2e\x444\x430\x43
                                      20
     ?<Constant L"\x422\x435\x43a\x443\x449\x438\x4
                                      32
     ?<Constant L"\x41c\x443\x437\x2e\x444\x430\x43_1
                                      48
     ?<Constant L"\x412\x440\x435\x43c\x44f">
                                      12
     ?<Constant L"\x421\x43e\x445\x440\x430\x43d\x4
                                      20
     ?<Constant L"\x41d\x430\x20\x43a\x430\x440\x44
                                      32
     ?<Constant L"\x41d\x430\x20\x442\x435\x43b\x43
                                      24
      Others                          92

 
 1 184 bytes in segment CODE
 2 496 bytes in segment DATA_C
   308 bytes in segment DATA_I
   308 bytes in segment DATA_ID
     8 bytes in segment DATA_Z
    24 bytes in segment INITTAB
 
 1 116 bytes of CODE  memory (+ 92 bytes shared)
 2 804 bytes of CONST memory
   316 bytes of DATA  memory

Errors: none
Warnings: none
