//////////////////////////////////////////////////////////////////////////////
//                                                                           /
// IAR ARM ANSI C/C++ Compiler V4.42A/W32 EVALUATION   10/Jun/2013  22:55:59 /
// Copyright 1999-2005 IAR Systems. All rights reserved.                     /
//                                                                           /
//    Cpu mode        =  interwork                                           /
//    Endian          =  little                                              /
//    Stack alignment =  4                                                   /
//    Source file     =  Z:\home\perk11\www\perk11.info\svn\SE\EvtEdit\main. /
//                       cpp                                                 /
//    Command line    =  Z:\home\perk11\www\perk11.info\svn\SE\EvtEdit\main. /
//                       cpp -D NDEBUG -D OLDFUNCTIONS -lC                   /
//                       Z:\home\perk11\www\perk11.info\svn\SE\EvtEdit\Relea /
//                       se\List\ -lA Z:\home\perk11\www\perk11.info\svn\SE\ /
//                       EvtEdit\Release\List\ -o                            /
//                       Z:\home\perk11\www\perk11.info\svn\SE\EvtEdit\Relea /
//                       se\Obj\ -s9 --cpu_mode arm --endian little --cpu    /
//                       ARM926EJ-S --stack_align 4 --interwork -e           /
//                       --enable_multibytes --fpu None --eec++              /
//                       --dlib_config Z:\home\perk11\IAR2\arm\LIB\dl5tpainl /
//                       8n.h -I Z:\home\perk11\IAR2\arm\INC\                /
//                       --inline_threshold=2                                /
//    List file       =  Z:\home\perk11\www\perk11.info\svn\SE\EvtEdit\Relea /
//                       se\List\main.s79                                    /
//                                                                           /
//                                                                           /
//////////////////////////////////////////////////////////////////////////////

        NAME main

        RTMODEL "StackAlign4", "USED"
        RTMODEL "__cpu_mode", "__pcs__interwork"
        RTMODEL "__data_model", "absolute"
        RTMODEL "__endian", "little"
        RTMODEL "__rt_version", "6"

        RSEG CSTACK:DATA:NOROOT(2)

        ERROR
//NOTE: This module defines or uses C++ features that are not
//      accessible from assembler code. Assembling this file will
//      not produce an equivalent object file to the one produced
//      by the C++ compiler.

        PUBWEAK `?*?DATA_ID`
        PUBLIC ??CreateGuiList
        FUNCTION ??CreateGuiList,0203H
        LOCFRAME CSTACK, 24, STACK
        MULTWEAK ??CreateGuiList??rT
??DataTable1 EQU 0
??DataTable10 EQU 0
??DataTable12 EQU 0
??DataTable13 EQU 0
??DataTable15 EQU 0
??DataTable16 EQU 0
??DataTable17 EQU 0
??DataTable18 EQU 0
??DataTable19 EQU 0
??DataTable5 EQU 0
??DataTable6 EQU 0
??DataTable7 EQU 0
??DataTable8 EQU 0
        MULTWEAK ??DestroyEvents??rA
        PUBLIC ??Escape
        FUNCTION ??Escape,0203H
        LOCFRAME CSTACK, 16, STACK
        MULTWEAK ??Escape??rT
        PUBLIC ??EvRem
        FUNCTION ??EvRem,0203H
        LOCFRAME CSTACK, 8, STACK
        MULTWEAK ??EvRem??rT
        PUBLIC ??GetIconID
        FUNCTION ??GetIconID,0203H
        LOCFRAME CSTACK, 8, STACK
        MULTWEAK ??GetIconID??rT
        PUBLIC ??GetStrID
        FUNCTION ??GetStrID,0203H
        LOCFRAME CSTACK, 8, STACK
        MULTWEAK ??GetStrID??rT
        MULTWEAK ??InitializeEvents??rA
        MULTWEAK ??InitializeFolders??rA
        FUNCTION ??MainPageOnCreate,0603H
        LOCFRAME CSTACK, 4, STACK
        PUBLIC ??OnAuthor
        FUNCTION ??OnAuthor,0603H
        LOCFRAME CSTACK, 144, STACK
        MULTWEAK ??OnAuthor??rT
        PUBLIC ??OnBackExitGui
        FUNCTION ??OnBackExitGui,0603H
        LOCFRAME CSTACK, 8, STACK
        MULTWEAK ??OnBackExitGui??rT
        PUBLIC ??OnBackGui
        FUNCTION ??OnBackGui,0603H
        LOCFRAME CSTACK, 4, STACK
        MULTWEAK ??OnBackGui??rT
        PUBLIC ??OnDelGui
        FUNCTION ??OnDelGui,0603H
        LOCFRAME CSTACK, 12, STACK
        MULTWEAK ??OnDelGui??rT
        PUBLIC ??OnNoExitGui
        FUNCTION ??OnNoExitGui,0603H
        LOCFRAME CSTACK, 8, STACK
        MULTWEAK ??OnNoExitGui??rT
        PUBLIC ??OnSelect1Gui
        FUNCTION ??OnSelect1Gui,0603H
        LOCFRAME CSTACK, 24, STACK
        MULTWEAK ??OnSelect1Gui??rT
        PUBLIC ??OnYesExitGui
        FUNCTION ??OnYesExitGui,0603H
        LOCFRAME CSTACK, 8, STACK
        MULTWEAK ??OnYesExitGui??rT
        FUNCTION ??ShowAuthorInfo,0603H
        LOCFRAME CSTACK, 144, STACK
        FUNCTION ??TerminateElf,0603H
        LOCFRAME CSTACK, 4, STACK
        PUBLIC ??create_ed
        FUNCTION ??create_ed,0203H
        LOCFRAME CSTACK, 8, STACK
        MULTWEAK ??create_ed??rT
        MULTWEAK ??destroy_innative_lng??rA
        PUBLIC ??elf_exit
        FUNCTION ??elf_exit,0603H
        LOCFRAME CSTACK, 4, STACK
        MULTWEAK ??elf_exit??rT
        PUBLIC ??getfilesize
        FUNCTION ??getfilesize,0203H
        LOCFRAME CSTACK, 2084, STACK
        MULTWEAK ??getfilesize??rT
        PUBLIC ??isEvtControl
        FUNCTION ??isEvtControl,0603H
        LOCFRAME CSTACK, 4, STACK
        MULTWEAK ??isEvtControl??rT
        PUBLIC ??isEvtEditBook
        FUNCTION ??isEvtEditBook,0603H
        MULTWEAK ??isEvtEditBook??rT
        MULTWEAK ??kill_data??rA
        MULTWEAK ??lng_load??rA
        MULTWEAK ??main??rT
        PUBLIC ??onDType0Press
        FUNCTION ??onDType0Press,0603H
        LOCFRAME CSTACK, 4, STACK
        MULTWEAK ??onDType0Press??rT
        PUBLIC ??onDType1Press
        FUNCTION ??onDType1Press,0603H
        LOCFRAME CSTACK, 20, STACK
        MULTWEAK ??onDType1Press??rT
        PUBLIC ??onDummy
        FUNCTION ??onDummy,0603H
        MULTWEAK ??onDummy??rT
        PUBLIC ??onEventClone
        FUNCTION ??onEventClone,0603H
        LOCFRAME CSTACK, 4, STACK
        MULTWEAK ??onEventClone??rT
        PUBLIC ??onIndication
        FUNCTION ??onIndication,0603H
        LOCFRAME CSTACK, 4, STACK
        MULTWEAK ??onIndication??rT
        PUBLIC ??onLBMessage
        FUNCTION ??onLBMessage,0603H
        LOCFRAME CSTACK, 20, STACK
        PUBLIC ??onLBMessage2
        FUNCTION ??onLBMessage2,0603H
        LOCFRAME CSTACK, 144, STACK
        MULTWEAK ??onLBMessage2??rT
        MULTWEAK ??onLBMessage??rT
        FUNCTION ??onMyBookClose,0603H
        LOCFRAME CSTACK, 12, STACK
        PUBLIC ??onTType0Press
        FUNCTION ??onTType0Press,0603H
        LOCFRAME CSTACK, 4, STACK
        MULTWEAK ??onTType0Press??rT
        PUBLIC ??onTType1Press
        FUNCTION ??onTType1Press,0603H
        LOCFRAME CSTACK, 4, STACK
        MULTWEAK ??onTType1Press??rT
        MULTWEAK `??operator delete??rA`
        MULTWEAK `??operator new??rA`
        MULTWEAK `??operator new[]??rA`
        PUBWEAK ?init?tab?DATA_I
        PUBWEAK ?init?tab?DATA_Z
        PUBLIC bk_main
        PUBLIC defName
        PUBLIC defPath
        PUBLIC iticons
        PUBLIC main
        FUNCTION main,0a03H
        LOCFRAME CSTACK, 140, STACK
        PUBLIC myBook
        PUBLIC ustr
        
        CFI Names cfiNames0
        CFI StackFrame CFA R13 HUGEDATA
        CFI Resource R0:32, R1:32, R2:32, R3:32, R4:32, R5:32, R6:32, R7:32
        CFI Resource R8:32, R9:32, R10:32, R11:32, R12:32, CPSR:32, R13:32
        CFI Resource R14:32, SPSR:32
        CFI VirtualResource ?RET:32
        CFI EndNames cfiNames0
        
        CFI Common cfiCommon0 Using cfiNames0
        CFI CodeAlign 2
        CFI DataAlign 4
        CFI ReturnAddress ?RET CODE
        CFI CFA R13+0
        CFI R0 Undefined
        CFI R1 Undefined
        CFI R2 Undefined
        CFI R3 Undefined
        CFI R4 SameValue
        CFI R5 SameValue
        CFI R6 SameValue
        CFI R7 SameValue
        CFI R8 SameValue
        CFI R9 SameValue
        CFI R10 SameValue
        CFI R11 SameValue
        CFI R12 Undefined
        CFI CPSR SameValue
        CFI R14 Undefined
        CFI SPSR SameValue
        CFI ?RET R14
        CFI EndCommon cfiCommon0
        
        
        CFI Common cfiCommon1 Using cfiNames0
        CFI CodeAlign 4
        CFI DataAlign 4
        CFI ReturnAddress ?RET CODE
        CFI CFA R13+0
        CFI R0 Undefined
        CFI R1 Undefined
        CFI R2 Undefined
        CFI R3 Undefined
        CFI R4 SameValue
        CFI R5 SameValue
        CFI R6 SameValue
        CFI R7 SameValue
        CFI R8 SameValue
        CFI R9 SameValue
        CFI R10 SameValue
        CFI R11 SameValue
        CFI R12 Undefined
        CFI CPSR SameValue
        CFI R14 Undefined
        CFI SPSR SameValue
        CFI ?RET R14
        CFI EndCommon cfiCommon1
        








kill_data           SYMBOL "kill_data"

??CreateGuiList??rT SYMBOL "??rT", ??CreateGuiList
??DestroyEvents??rA SYMBOL "??rA", ??DestroyEvents

??Escape??rT        SYMBOL "??rT", ??Escape

??EvRem??rT         SYMBOL "??rT", ??EvRem

??GetIconID??rT     SYMBOL "??rT", ??GetIconID

??GetStrID??rT      SYMBOL "??rT", ??GetStrID
??InitializeEvents??rA SYMBOL "??rA", ??InitializeEvents
??InitializeFolders??rA SYMBOL "??rA", ??InitializeFolders

??OnAuthor??rT      SYMBOL "??rT", ??OnAuthor

??OnBackExitGui??rT SYMBOL "??rT", ??OnBackExitGui

??OnBackGui??rT     SYMBOL "??rT", ??OnBackGui

??OnDelGui??rT      SYMBOL "??rT", ??OnDelGui

??OnNoExitGui??rT   SYMBOL "??rT", ??OnNoExitGui

??OnSelect1Gui??rT  SYMBOL "??rT", ??OnSelect1Gui

??OnYesExitGui??rT  SYMBOL "??rT", ??OnYesExitGui

??create_ed??rT     SYMBOL "??rT", ??create_ed
??destroy_innative_lng??rA SYMBOL "??rA", ??destroy_innative_lng

??elf_exit??rT      SYMBOL "??rT", ??elf_exit

??getfilesize??rT   SYMBOL "??rT", ??getfilesize

??isEvtControl??rT  SYMBOL "??rT", ??isEvtControl

??isEvtEditBook??rT SYMBOL "??rT", ??isEvtEditBook
??kill_data??rA     SYMBOL "??rA", kill_data
??lng_load??rA      SYMBOL "??rA", ??lng_load
main                SYMBOL "main"
??main??rT          SYMBOL "??rT", main

??onDType0Press??rT SYMBOL "??rT", ??onDType0Press

??onDType1Press??rT SYMBOL "??rT", ??onDType1Press

??onDummy??rT       SYMBOL "??rT", ??onDummy

??onEventClone??rT  SYMBOL "??rT", ??onEventClone

??onIndication??rT  SYMBOL "??rT", ??onIndication


??onLBMessage2??rT  SYMBOL "??rT", ??onLBMessage2
??onLBMessage??rT   SYMBOL "??rT", ??onLBMessage

??onTType0Press??rT SYMBOL "??rT", ??onTType0Press

??onTType1Press??rT SYMBOL "??rT", ??onTType1Press
`??operator delete??rA` SYMBOL "??rA", `??operator delete`
`??operator new??rA` SYMBOL "??rA", `??operator new`
`??operator new[]??rA` SYMBOL "??rA", `??operator new[]`

        EXTERN ??DestroyEvents
        FUNCTION ??DestroyEvents,0202H
        EXTERN ??InitializeEvents
        FUNCTION ??InitializeEvents,0202H
        EXTERN ??InitializeFolders
        FUNCTION ??InitializeFolders,0202H
        EXTERN ??destroy_innative_lng
        FUNCTION ??destroy_innative_lng,0202H
        EXTERN ??lng_load
        FUNCTION ??lng_load,0202H
        EXTERN `??operator delete`
        FUNCTION `??operator delete`,0202H
        EXTERN `??operator new`
        FUNCTION `??operator new`,0202H
        EXTERN `??operator new[]`
        FUNCTION `??operator new[]`,0202H
        EXTERN ACTION_BACK
        EXTERN ACTION_DELETE
        EXTERN ACTION_NO
        EXTERN ACTION_SELECT1
        EXTERN ACTION_YES
        EXTERN ELF_BEGIN
        EXTERN PREVIOUS_EVENT
        EXTERN SYNC
        EXTERN VAR_ARG_BOOK
        EXTERN VAR_ARG_YESNO_QUESTION
        EXTERN bk_StringInput
        EXTERN bk_date_input
        EXTERN bk_days
        EXTERN bk_indic
        EXTERN bk_selectevent
        EXTERN bk_time_input
        EXTERN events
        EXTERN extFolder
        EXTERN fsize
        EXTERN intFolder
        EXTERN items
        EXTERN kill_data
        FUNCTION kill_data,0202H
        EXTERN lng

// Z:\home\perk11\www\perk11.info\svn\SE\EvtEdit\main.cpp
//    1 #include "..\deleaker\mem2.h"
//    2 #include "..\include\Lib_Clara.h"
//    3 #include "..\include\Dir.h"
//    4 #include "header\structs.h"
//    5 #include "header\pages.h"
//    6 #include "header\lng.h"
//    7 #include "header\externals.h"
//    8 #include "..\\include\var_arg.h"
//    9 
//   10 typedef struct
//   11 {
//   12   BOOK * book;
//   13 }MSG;
//   14 
//   15 #define IDN_SAVE_BEFORE_EXIT L"HPB_SAVE_BEFORE_EXITQ_TXT"
//   16 #define IDN_CHANGES_HAVE_BEEN_MADE L"HPB_SAVE_BEFORE_EXITD_TXT"
//   17 #define IDN_CHECKBOX_UNCHECKED_ICON L"OFF_TXT"
//   18 #define IDN_CHECKBOX_CHECKED_ICON L"ON_TXT"
//   19 #define SID_NULL 0x6FFFFFFF
//   20 #define BUILD "public version"
//   21 
//   22 extern LIST *events;
//   23 extern wchar_t *items[];
//   24 extern int fsize;
//   25 extern wchar_t *extFolder;
//   26 extern wchar_t *intFolder;
//   27 
//   28 int lng_load(wchar_t*,wchar_t*);
//   29 void InitializeFolders();
//   30 void destroy_innative_lng();
//   31 int InitializeEvents(BOOK *myBook, wchar_t *fpath, wchar_t *fname);
//   32 int DestroyEvents(MyBOOK*,bool save);
//   33 void Escape(MyBOOK *mbk, bool dontsave);
//   34 void OnBackGui(BOOK * bk, GUI *);
//   35 

        RSEG DATA_Z:DATA:SORT:NOROOT(2)
//   36 MyBOOK * myBook;
myBook:
        DS8 4
//   37 wchar_t *defPath=0;
defPath:
        DS8 4
//   38 wchar_t *defName=0;
defName:
        DS8 4

        RSEG CODE:CODE:NOROOT(2)
        CFI Block cfiBlock0 Using cfiCommon0
        CFI NoFunction
        THUMB
??GetStrID??rT:
        BX       PC
        Nop      
        CFI EndBlock cfiBlock0
        REQUIRE ??GetStrID
//   39 

        RSEG CODE:CODE:NOROOT(2)
        CFI Block cfiBlock1 Using cfiCommon1
        CFI Function ??GetStrID
        ARM
//   40 int GetStrID(wchar_t *txt)
//   41 {
??GetStrID:
        PUSH     {LR}
        CFI ?RET Frame(CFA, -4)
        CFI CFA R13+4
        SUB      SP,SP,#+4
        CFI CFA R13+8
//   42   int id=EMPTY_TEXTID;
        MVN      R2,#-1879048192
        STR      R2,[SP, #+0]
//   43   textidname2id(txt,0xFFFFFFFF,&id);
        MOV      R2,SP
        MVN      R1,#+0
        SWI      +647
//   44   return id;
        LDR      R0,[SP, #+0]
        POP      {R1,PC}          ;; return
        CFI EndBlock cfiBlock1
//   45 };

        RSEG CODE:CODE:NOROOT(2)
        CFI Block cfiBlock2 Using cfiCommon0
        CFI NoFunction
        THUMB
??GetIconID??rT:
        BX       PC
        Nop      
        CFI EndBlock cfiBlock2
        REQUIRE ??GetIconID
//   46 

        RSEG CODE:CODE:NOROOT(2)
        CFI Block cfiBlock3 Using cfiCommon1
        CFI Function ??GetIconID
        ARM
//   47 int GetIconID(wchar_t *txt)
//   48 {
??GetIconID:
        PUSH     {LR}
        CFI ?RET Frame(CFA, -4)
        CFI CFA R13+4
        SUB      SP,SP,#+4
        CFI CFA R13+8
//   49   int id=NOIMAGE;
        MOV      R2,#+255
        ORR      R2,R2,#0xFF00
        STR      R2,[SP, #+0]
//   50   iconidname2id(txt,0xFFFFFFFF,&id);
        MOV      R2,SP
        MVN      R1,#+0
        SWI      +646
//   51   return id;
        LDR      R0,[SP, #+0]
        POP      {R1,PC}          ;; return
        CFI EndBlock cfiBlock3
//   52 };

        RSEG CODE:CODE:NOROOT(2)
        CFI Block cfiBlock4 Using cfiCommon0
        CFI NoFunction
        THUMB
??elf_exit??rT:
        BX       PC
        Nop      
        CFI EndBlock cfiBlock4
        REQUIRE ??elf_exit
//   53 

        RSEG CODE:CODE:NOROOT(2)
        CFI Block cfiBlock5 Using cfiCommon1
        CFI Function ??elf_exit
        ARM
//   54 void elf_exit(void)
//   55 {
??elf_exit:
        PUSH     {LR}
        CFI ?RET Frame(CFA, -4)
        CFI CFA R13+4
//   56   trace_done();
//   57   kill_data(&ELF_BEGIN, (void(*)(void*))mfree_adr());
        SWI      +33028
        MOV      R1,R0
        LDR      R0,??elf_exit_1  ;; ELF_BEGIN
        POP      {LR}             ;; Pop
        CFI ?RET R14
        CFI CFA R13+0
        _BF      kill_data,??kill_data??rA  ;; tailcall
        DATA
??elf_exit_1:
        DC32     ELF_BEGIN
        CFI EndBlock cfiBlock5
//   58 };

        RSEG CODE:CODE:NOROOT(2)
        CFI Block cfiBlock6 Using cfiCommon0
        CFI NoFunction
        THUMB
??onMyBookClose??rT:
        BX       PC
        Nop      
        CFI EndBlock cfiBlock6
        REQUIRE ??onMyBookClose
//   59 

        RSEG CODE:CODE:NOROOT(2)
        CFI Block cfiBlock7 Using cfiCommon1
        CFI Function ??onMyBookClose
        ARM
//   60 static void onMyBookClose(BOOK * book)
//   61 {
??onMyBookClose:
        PUSH     {R4,R5,LR}
        CFI ?RET Frame(CFA, -4)
        CFI R5 Frame(CFA, -8)
        CFI R4 Frame(CFA, -12)
        CFI CFA R13+12
        MOV      R4,R0
//   62   
//   63   destroy_innative_lng();
        _BLF     ??destroy_innative_lng,??destroy_innative_lng??rA
//   64   
//   65   if (intFolder)
        LDR      R0,??DataTable0  ;; intFolder
        LDR      R0,[R0, #+0]
        CMP      R0,#+0
        BEQ      ??onMyBookClose_1
//   66     delete(intFolder);
        _BLF     `??operator delete`,`??operator delete??rA`
//   67   if (defPath)
??onMyBookClose_1:
        LDR      R5,??DataTable11  ;; myBook
        LDR      R0,[R5, #+4]
        CMP      R0,#+0
        BEQ      ??onMyBookClose_2
//   68     delete(defPath);
        _BLF     `??operator delete`,`??operator delete??rA`
//   69   if (defName)
??onMyBookClose_2:
        LDR      R0,[R5, #+8]
        CMP      R0,#+0
        BEQ      ??onMyBookClose_3
//   70     delete(defName);
        _BLF     `??operator delete`,`??operator delete??rA`
//   71   if (extFolder)
??onMyBookClose_3:
        LDR      R0,??DataTable2  ;; extFolder
        LDR      R0,[R0, #+0]
        CMP      R0,#+0
        BEQ      ??onMyBookClose_4
//   72     delete(extFolder);
        _BLF     `??operator delete`,`??operator delete??rA`
//   73   MyBOOK *mbk=(MyBOOK*)book;
//   74   if (mbk->indpath)
??onMyBookClose_4:
        LDR      R0,[R4, #+192]
        CMP      R0,#+0
        BEQ      ??onMyBookClose_5
//   75     delete(mbk->indpath);
        _BLF     `??operator delete`,`??operator delete??rA`
//   76   if (mbk->indname)
??onMyBookClose_5:
        LDR      R0,[R4, #+196]
        CMP      R0,#+0
        BEQ      ??onMyBookClose_6
//   77     delete(mbk->indname);
        _BLF     `??operator delete`,`??operator delete??rA`
//   78   
//   79   SUBPROC(elf_exit);
??onMyBookClose_6:
        LDR      R0,??DataTable3  ;; ??elf_exit
        SWI      +264
//   80 };
        POP      {R4,R5,PC}       ;; return
        CFI EndBlock cfiBlock7

        RSEG CODE:CODE:NOROOT(2)
        DATA
??DataTable0:
        DC32     intFolder

        RSEG CODE:CODE:NOROOT(2)
        DATA
??DataTable2:
        DC32     extFolder

        RSEG CODE:CODE:NOROOT(2)
        DATA
??DataTable3:
        DC32     ??elf_exit

        RSEG CODE:CODE:NOROOT(2)
        CFI Block cfiBlock8 Using cfiCommon0
        CFI NoFunction
        THUMB
??isEvtEditBook??rT:
        BX       PC
        Nop      
        CFI EndBlock cfiBlock8
        REQUIRE ??isEvtEditBook
//   81 

        RSEG CODE:CODE:NOROOT(2)
        CFI Block cfiBlock9 Using cfiCommon1
        CFI Function ??isEvtEditBook
        ARM
//   82 int isEvtEditBook(BOOK * struc)
//   83 {
//   84   return(struc->onClose == onMyBookClose);
??isEvtEditBook:
        LDR      R0,[R0, #+4]
        LDR      R1,??DataTable4  ;; ??onMyBookClose
        CMP      R0,R1
        MOVEQ    R0,#+1
        BXEQ     LR
        MOV      R0,#+0
        BX       LR               ;; return
        CFI EndBlock cfiBlock9
//   85 };

        RSEG CODE:CODE:NOROOT(2)
        DATA
??DataTable4:
        DC32     ??onMyBookClose

        RSEG CODE:CODE:NOROOT(2)
        CFI Block cfiBlock10 Using cfiCommon0
        CFI NoFunction
        THUMB
??TerminateElf??rT:
        BX       PC
        Nop      
        CFI EndBlock cfiBlock10
        REQUIRE ??TerminateElf
//   86 

        RSEG CODE:CODE:NOROOT(2)
        CFI Block cfiBlock11 Using cfiCommon1
        CFI Function ??TerminateElf
        ARM
//   87 static int TerminateElf(void *mess ,BOOK *book)
//   88 {
??TerminateElf:
        PUSH     {LR}
        CFI ?RET Frame(CFA, -4)
        CFI CFA R13+4
        MOV      R0,R1
//   89   Escape((MyBOOK*)book, true);
        MOV      R1,#+1
        BL       ??Escape
//   90   return(1);
        MOV      R0,#+1
        POP      {PC}             ;; return
        CFI EndBlock cfiBlock11
//   91 };

        RSEG CODE:CODE:NOROOT(2)
        CFI Block cfiBlock12 Using cfiCommon0
        CFI NoFunction
        THUMB
??ShowAuthorInfo??rT:
        BX       PC
        Nop      
        CFI EndBlock cfiBlock12
        REQUIRE ??ShowAuthorInfo
//   92 

        RSEG CODE:CODE:NOROOT(2)
        CFI Block cfiBlock13 Using cfiCommon1
        CFI Function ??ShowAuthorInfo
        ARM
//   93 static int ShowAuthorInfo(void *mess ,BOOK *book)
//   94 {
//   95   MSG * msg = (MSG *)mess;
//   96   wchar_t ustr[64];
//   97   snwprintf(ustr,MAXELEMS(ustr)-1,L"\nEvtEdit v1.0\n(c) UltraShot\n%s",BUILD);
??ShowAuthorInfo:
        LDR      R2,??DataTable14  ;; `?<Constant L"\\xa\\x45\\x76\\x74\\x45\\x64\\x69\\x74\\x`
        PUSH     {R4,LR}
        CFI ?RET Frame(CFA, -4)
        CFI R4 Frame(CFA, -8)
        CFI CFA R13+8
        SUB      SP,SP,#+128
        CFI CFA R13+136
        ADD      R3,R2,#+64
        MOV      R4,R0
        MOV      R1,#+63
        MOV      R0,SP
        SWI      +277
//   98   MessageBox(SID_NULL,TextID_Create(ustr,ENC_UCS2,MAXELEMS(ustr)-1), NOIMAGE, 1, 5000,msg->book);
        MOV      R2,#+63
        MOV      R1,#+0
        MOV      R0,SP
        SWI      +349
        LDR      R1,[R4, #+0]
        MOV      R3,#+1
        PUSH     {R1}
        CFI CFA R13+140
        MOV      R2,#+255
        ORR      R2,R2,#0xFF00
        MOV      R1,#+136
        ORR      R1,R1,#0x1300
        PUSH     {R1}
        CFI CFA R13+144
        MOV      R1,R0
        MVN      R0,#-1879048192
        SWI      +599
//   99   return(1);
        MOV      R0,#+1
        ADD      SP,SP,#+136
        CFI CFA R13+8
        POP      {R4,PC}          ;; return
        CFI EndBlock cfiBlock13
//  100 };

        RSEG CODE:CODE:NOROOT(2)
        CFI Block cfiBlock14 Using cfiCommon0
        CFI NoFunction
        THUMB
??onLBMessage??rT:
        BX       PC
        Nop      
        CFI EndBlock cfiBlock14
        REQUIRE ??onLBMessage
//  101 

        RSEG DYN_PAGE:CONST:SORT:NOROOT(2)
//  102 const PAGE_MSG bk_msglst_base[] @ "DYN_PAGE"  =
bk_msglst_base:
        DATA
        DC32 997, ??TerminateElf, 998, ??ShowAuthorInfo, 64, 0H
//  103 {
//  104   ELF_TERMINATE_EVENT,     TerminateElf,
//  105   ELF_SHOW_INFO_EVENT,     ShowAuthorInfo,
//  106   NIL_EVENT_TAG,           NULL
//  107 };
//  108 

        RSEG DATA_Z:DATA:SORT:NOROOT(2)
//  109 const PAGE_DESC bk_base = {"EvtEdit_Base_Page",0,bk_msglst_base};  wchar_t ustr[64];
ustr:
        DS8 128
//  110 
//  111 extern wchar_t *items[50];
//  112 

        RSEG CODE:CODE:NOROOT(2)
        CFI Block cfiBlock15 Using cfiCommon1
        CFI Function ??onLBMessage
        ARM
//  113 int onLBMessage(GUI_MESSAGE * msg)
//  114 {
??onLBMessage:
        PUSH     {R4-R7,LR}
        CFI ?RET Frame(CFA, -4)
        CFI R7 Frame(CFA, -8)
        CFI R6 Frame(CFA, -12)
        CFI R5 Frame(CFA, -16)
        CFI R4 Frame(CFA, -20)
        CFI CFA R13+20
        MOV      R4,R0
//  115   MyBOOK * myBook = (MyBOOK *) FindBook(isEvtEditBook);
        LDR      R0,??DataTable9  ;; ??isEvtEditBook
        SWI      +304
//  116   switch( GUIonMessage_GetMsg(msg) )
        MOV      R0,R4
        SWI      +884
        CMP      R0,#+1
        BNE      ??onLBMessage_1
//  117   {
//  118   case 1:
//  119     int item=GUIonMessage_GetCreatedItemIndex(msg);
//  120     if (item<events->FirstFree)
        LDR      R5,??onLBMessage_2  ;; `?<Constant L"\\x43\\x41\\x4c\\x45\\x5f\\x43\\x41\\x4c\\`
        MOV      R0,R4
        SWI      +311
        LDR      R1,??DataTable23  ;; events
        MOV      R6,#+255
        LDR      R2,[R1, #+0]
        ORR      R6,R6,#0xFF00
        LDRH     R1,[R2, #+2]
        CMP      R0,R1
        BGE      ??onLBMessage_3
//  121     {
//  122       EVENT* evt=(EVENT *)List_Get(events,item);
        MOV      R1,R0
        MOV      R0,R2
        SWI      +429
        MOV      R7,R0
//  123       if (evt->txt)
        LDR      R0,[R7, #+56]
        MOV      R2,R6
        CMP      R0,#+0
//  124       {
//  125         GUIonMessage_SetMenuItemText(msg,TextID_Create(evt->txt,ENC_UCS2,TEXTID_ANY_LEN));
//  126       }
//  127       else
//  128       {
//  129         GUIonMessage_SetMenuItemText(msg,TextID_Create(items[evt->type],ENC_UCS2,TEXTID_ANY_LEN));
        LDREQ    R0,[R7, #+0]
        LDREQ    R3,??DataTable24  ;; items
        MOV      R1,#+0
        LDREQ    R0,[R3, +R0, LSL #+2]
        SWI      +349
        MOV      R1,R0
        MOV      R0,R4
        SWI      +312
//  130       }
//  131       if (evt->param)
        LDR      R0,[R7, #+52]
        CMP      R0,#+0
        BEQ      ??onLBMessage_4
//  132       {
//  133         GUIonMessage_SetMenuItemSecondLineText(msg,TextID_Create(evt->param,ENC_UCS2,TEXTID_ANY_LEN));
        MOV      R2,R6
        MOV      R1,#+0
        SWI      +349
        MOV      R1,R0
        MOV      R0,R4
        SWI      +313
//  134       }
//  135       GUIonMessage_SetMenuItemIcon(msg,0,GetIconID(L"CALE_CALENDAR_MENU_ICN"));
??onLBMessage_4:
        MOV      R0,R5
        B        ??onLBMessage_5
//  136     }
//  137     /*
//  138     else if (item==events->FirstFree)
//  139     {
//  140       GUIonMessage_SetLineSeparator(msg,1);
//  141       //GUIonMessage_SetMenuItemText(msg,TextID_Create(lng[LNG_CREATE],ENC_UCS2,TEXTID_ANY_LEN));
//  142       //GUIonMessage_SetMenuItemIcon(msg,0,GetIconID(L"RN_SHORTCUT_LIST_SETTINGS_ICN"));
//  143     }
//  144     */
//  145     else if (item==events->FirstFree)
??onLBMessage_3:
        BNE      ??onLBMessage_1
//  146     {
//  147       GUIonMessage_SetMenuItemText(msg,TextID_Create(lng[LNG_CREATE],ENC_UCS2,TEXTID_ANY_LEN));
        LDR      R0,??onLBMessage_2+0x4  ;; lng + 36
        MOV      R2,R6
        LDR      R0,[R0, #+0]
        MOV      R1,#+0
        SWI      +349
        MOV      R1,R0
        MOV      R0,R4
        SWI      +312
//  148       GUIonMessage_SetMenuItemIcon(msg,0,GetIconID(L"RN_SHORTCUT_LIST_SETTINGS_ICN"));
        ADD      R0,R5,#+48
??onLBMessage_5:
        BL       ??GetIconID
        MOV      R2,R0, LSL #+16
        MOV      R2,R2, LSR #+16
        MOV      R1,#+0
        MOV      R0,R4
        SWI      +316
//  149     }
//  150     break;
//  151   }
//  152   return(1);
??onLBMessage_1:
        MOV      R0,#+1
        POP      {R4-R7,PC}       ;; return
        DATA
??onLBMessage_2:
        DC32     `?<Constant L"\\x43\\x41\\x4c\\x45\\x5f\\x43\\x41\\x4c\\`
        DC32     lng + 36
        CFI EndBlock cfiBlock15
//  153 };

        RSEG CODE:CODE:NOROOT(2)
        CFI Block cfiBlock16 Using cfiCommon0
        CFI NoFunction
        THUMB
??onLBMessage2??rT:
        BX       PC
        Nop      
        CFI EndBlock cfiBlock16
        REQUIRE ??onLBMessage2
//  154 

        RSEG DATA_I:DATA:SORT:NOROOT(2)
//  155 wchar_t *iticons[] = {L"TR_TIME_UPDATE_ICN", L"TR_TIME_UPDATE_ICN", L"CALE_TASK_MISC_ICN", L"TIMER_ACTIVE_ICN", L"TIMER_ACTIVE_ICN", L"TIMER_ACTIVE_ICN", L"CALE_TASK_MISC_ICN", L"TR_ALARMS_MENU_ICN", L"RN_URL_OPERATOR_ICN"};
iticons:
        DS8 36
        REQUIRE `?<Initializer for iticons>`
//  156 

        RSEG CODE:CODE:NOROOT(2)
        CFI Block cfiBlock17 Using cfiCommon1
        CFI Function ??onLBMessage2
        ARM
//  157 int onLBMessage2(GUI_MESSAGE * msg)
//  158 {
??onLBMessage2:
        PUSH     {R4-R9,LR}
        CFI ?RET Frame(CFA, -4)
        CFI R9 Frame(CFA, -8)
        CFI R8 Frame(CFA, -12)
        CFI R7 Frame(CFA, -16)
        CFI R6 Frame(CFA, -20)
        CFI R5 Frame(CFA, -24)
        CFI R4 Frame(CFA, -28)
        CFI CFA R13+28
//  159   MyBOOK * myBook = (MyBOOK *) FindBook(isEvtEditBook);
        LDR      R5,??DataTable9  ;; ??isEvtEditBook
        SUB      SP,SP,#+108
        CFI CFA R13+136
        MOV      R4,R0
        MOV      R0,R5
        SWI      +304
//  160   switch( GUIonMessage_GetMsg(msg) )
        MOV      R0,R4
        SWI      +884
        CMP      R0,#+1
        BNE      ??onLBMessage2_1
//  161   {
//  162   case 1:
//  163     MyBOOK *mbk=(MyBOOK*)FindBook(isEvtEditBook);
        MOV      R0,R5
        SWI      +304
        MOV      R5,R0
//  164     int item=GUIonMessage_GetCreatedItemIndex(msg);
        MOV      R0,R4
        SWI      +311
//  165     EVENT* evt=mbk->selev;
        LDR      R7,[R5, #+28]
        MOV      R8,R0
//  166     GUIonMessage_SetMenuItemText(msg,TextID_Create(lng[item],ENC_UCS2,TEXTID_ANY_LEN));
        LDR      R0,??DataTable25  ;; lng
        MOV      R6,#+255
        ADD      R9,R0,R8, LSL #+2
        LDR      R0,[R9, #+0]
        ORR      R6,R6,#0xFF00
        MOV      R2,R6
        MOV      R1,#+0
        SWI      +349
        MOV      R1,R0
        MOV      R0,R4
        SWI      +312
//  167     GUIonMessage_SetMenuItemInfoText(msg,TextID_Create(lng[MENU+item],ENC_UCS2,TEXTID_ANY_LEN));
        LDR      R0,[R9, #+164]
        MOV      R2,R6
        MOV      R1,#+0
        SWI      +349
        MOV      R1,R0
        MOV      R0,R4
        SWI      +314
//  168     GUIonMessage_SetMenuItemIcon(msg,0,GetIconID(iticons[item]));
        LDR      R0,??onLBMessage2_2+0xC  ;; iticons
        LDR      R0,[R0, +R8, LSL #+2]
        BL       ??GetIconID
        MOV      R2,R0, LSL #+16
        MOV      R2,R2, LSR #+16
        MOV      R1,#+0
        MOV      R0,R4
        SWI      +316
//  169     if (item==0)
        LDR      R2,??onLBMessage2_2+0x10  ;; `?<Constant L"\\x25\\x30\\x32\\x64\\x3a\\x25\\x30\\x32\\`
        CMP      R8,#+0
        BNE      ??onLBMessage2_3
//  170     {
//  171       wchar_t time[50];
//  172       snwprintf(time, 50,L"%02d:%02d:%02d", evt->time.hour, evt->time.min, evt->time.sec);
        LDRB     R0,[R7, #+46]
        MOV      R1,#+50
        PUSH     {R0}
        CFI CFA R13+140
        LDRB     R0,[R7, #+45]
        PUSH     {R0}
        CFI CFA R13+144
        LDRB     R3,[R7, #+44]
        ADD      R0,SP,#+16
        SWI      +277
//  173       GUIonMessage_SetMenuItemSecondLineText(msg,TextID_Create(time,ENC_UCS2,TEXTID_ANY_LEN));
        MOV      R2,R6
        MOV      R1,#+0
        ADD      R0,SP,#+16
        SWI      +349
        MOV      R1,R0
        MOV      R0,R4
        SWI      +313
        ADD      SP,SP,#+8
        CFI CFA R13+136
        B        ??onLBMessage2_4
//  174     }
//  175     else if (item==1)
??onLBMessage2_3:
        CMP      R8,#+1
        BNE      ??onLBMessage2_5
//  176     {
//  177       wchar_t time[50];
//  178       snwprintf(time, 50,L"%02d:%02d:%02d", evt->time2.hour, evt->time2.min, evt->time2.sec);
        LDRB     R0,[R7, #+50]
        MOV      R1,#+50
        PUSH     {R0}
        CFI CFA R13+140
        LDRB     R0,[R7, #+49]
        PUSH     {R0}
        CFI CFA R13+144
        LDRB     R3,[R7, #+48]
        ADD      R0,SP,#+16
        SWI      +277
//  179       GUIonMessage_SetMenuItemSecondLineText(msg,TextID_Create(time,ENC_UCS2,TEXTID_ANY_LEN));
        MOV      R2,R6
        MOV      R1,#+0
        ADD      R0,SP,#+16
        SWI      +349
        MOV      R1,R0
        MOV      R0,R4
        SWI      +313
        LDR      R0,[R5, #+28]
        LDR      R0,[R0, #+40]
        ADD      SP,SP,#+8
        CFI CFA R13+136
        CMP      R0,#+0
        BNE      ??onLBMessage2_4
//  180     }
//  181     else if (item==2)
//  182     {
//  183       if (evt->param)
//  184       {
//  185         GUIonMessage_SetMenuItemSecondLineText(msg,TextID_Create(evt->param,ENC_UCS2,TEXTID_ANY_LEN));
//  186       }
//  187     }
//  188     else if (item==3)
//  189     {
//  190       wchar_t time[50];
//  191       wstrcpy(time, L"");
//  192       bool days[7];
//  193       memcpy(days, evt->days, 7*sizeof(bool));
//  194       int x;
//  195       for (x=0;x<7;x++)
//  196       {
//  197         if (days[x])
//  198           wstrcat(time,L"*");
//  199         else
//  200           wstrcat(time,L"°");
//  201       }
//  202       GUIonMessage_SetMenuItemSecondLineText(msg,TextID_Create(time,ENC_UCS2,TEXTID_ANY_LEN));
//  203     }
//  204     else if (item==4)
//  205     {
//  206       wchar_t time[50];
//  207       snwprintf(time, 50,L"%02d.%02d.%02d", evt->date.day, evt->date.mon, evt->date.year);
//  208       GUIonMessage_SetMenuItemSecondLineText(msg,TextID_Create(time,ENC_UCS2,TEXTID_ANY_LEN));
//  209     }
//  210     else if (item==5)
//  211     {
//  212       wchar_t time[50];
//  213       snwprintf(time, 50,L"%02d.%02d.%02d", evt->date2.day, evt->date2.mon, evt->date2.year);
//  214       GUIonMessage_SetMenuItemSecondLineText(msg,TextID_Create(time,ENC_UCS2,TEXTID_ANY_LEN));
//  215     }
//  216     else if (item==6)
//  217     {
//  218       if (evt->txt)
//  219       {
//  220         GUIonMessage_SetMenuItemSecondLineText(msg,TextID_Create(evt->txt,ENC_UCS2,TEXTID_ANY_LEN));
//  221       }
//  222     }
//  223     else if (item==7)
//  224     {
//  225       wchar_t time[50];
//  226       int before=evt->AskBefore;
//  227       int after=evt->AskAfter;
//  228       if (evt->isMinusInBefore)before=-before;
//  229       if (evt->isMinusInAfter)after=-after;
//  230       snwprintf(time, 50,L"%d/%d", before, after);
//  231       GUIonMessage_SetMenuItemSecondLineText(msg,TextID_Create(time,ENC_UCS2,TEXTID_ANY_LEN));
//  232     }
//  233     else if (item==8)
//  234     {
//  235       if (evt->gps)
//  236       {
//  237         wchar_t time[50];
//  238         snwprintf(time, 50,L"%s", evt->gps);
//  239         GUIonMessage_SetMenuItemSecondLineText(msg,TextID_Create(time,ENC_UCS2,TEXTID_ANY_LEN));
//  240       }
//  241       else
//  242       {
//  243         GUIonMessage_SetMenuItemSecondLineText(msg,GetStrID(L"MSG_UI_EMPTY_MESSAGE_TXT"));
//  244       }
//  245     }
//  246     if (item==7 && mbk->selev->isGps)
//  247     {
//  248       GUIonMessage_SetItemDisabled (msg,1);
//  249     }
//  250     if (item==3 && mbk->selev->dtype==1)
//  251     {
//  252       GUIonMessage_SetItemDisabled (msg,1);
//  253     }
//  254     if ((item==4 || item==5) && ((mbk->selev->dtype==0 || mbk->selev->isGps)||((mbk->selev->dtype==0 && mbk->selev->isGps))))
//  255     {
//  256       GUIonMessage_SetItemDisabled (msg,1);
//  257     }
//  258     if (item==1 && mbk->selev->ttype==0)
//  259     {
//  260       GUIonMessage_SetItemDisabled (msg,1);
        MOV      R1,#+1
        MOV      R0,R4
        SWI      +642
??onLBMessage2_4:
        LDR      R0,[R5, #+28]
        LDRB     R0,[R0, #+16]
        CMP      R0,#+0
        BEQ      ??onLBMessage2_1
//  261     }
//  262     if ((item==0 || item==1) && mbk->selev->isGps)
//  263     {
//  264       GUIonMessage_SetItemDisabled (msg,1);
??onLBMessage2_6:
        MOV      R1,#+1
        MOV      R0,R4
        SWI      +642
//  265     }
//  266   }
//  267   return(1);
??onLBMessage2_1:
        MOV      R0,#+1
        ADD      SP,SP,#+108
        CFI CFA R13+28
        POP      {R4-R9,PC}       ;; return
        CFI CFA R13+136
??onLBMessage2_5:
        CMP      R8,#+2
        BNE      ??onLBMessage2_7
        LDR      R0,[R7, #+52]
??onLBMessage2_8:
        CMP      R0,#+0
        BEQ      ??onLBMessage2_1
        MOV      R2,R6
        MOV      R1,#+0
??onLBMessage2_9:
        SWI      +349
        B        ??onLBMessage2_10
??onLBMessage2_7:
        CMP      R8,#+3
        BNE      ??onLBMessage2_11
        ADR      R1,??onLBMessage2_2  ;; 0x00, 0x00
        ADD      R0,SP,#+8
        SWI      +338
        MOV      R2,#+7
        ADD      R1,R7,#+32
        MOV      R0,SP
        SWI      +275
        MOV      R7,#+0
??onLBMessage2_12:
        MOV      R0,SP
        LDRB     R0,[R7, +R0]
        ADD      R7,R7,#+1
        CMP      R0,#+0
        ADRNE    R1,??onLBMessage2_2+0x4  ;; 0x2A, 0x00, 0x00, 0x00
        ADREQ    R1,??onLBMessage2_2+0x8  ;; 0xB0, 0x00, 0x00, 0x00
        ADD      R0,SP,#+8
        SWI      +340
        CMP      R7,#+7
        BLT      ??onLBMessage2_12
        MOV      R2,R6
        MOV      R1,#+0
        ADD      R0,SP,#+8
        SWI      +349
        MOV      R1,R0
        MOV      R0,R4
        SWI      +313
        LDR      R0,[R5, #+28]
        LDR      R0,[R0, #+20]
        CMP      R0,#+1
        BNE      ??onLBMessage2_1
        B        ??onLBMessage2_6
??onLBMessage2_11:
        CMP      R8,#+4
        BNE      ??onLBMessage2_13
        LDRH     R0,[R7, #+24]
        PUSH     {R0}
        CFI CFA R13+140
        LDRB     R0,[R7, #+26]
        PUSH     {R0}
        CFI CFA R13+144
        LDRB     R3,[R7, #+27]
??onLBMessage2_14:
        ADD      R2,R2,#+32
        MOV      R1,#+50
        ADD      R0,SP,#+16
        SWI      +277
        MOV      R2,R6
        MOV      R1,#+0
        ADD      R0,SP,#+16
        SWI      +349
        MOV      R1,R0
        MOV      R0,R4
        SWI      +313
        ADD      SP,SP,#+8
        CFI CFA R13+136
        LDR      R0,[R5, #+28]
        LDR      R1,[R0, #+20]
        CMP      R1,#+0
        BEQ      ??onLBMessage2_6
        LDRB     R1,[R0, #+16]
        CMP      R1,#+0
        BNE      ??onLBMessage2_6
        LDR      R1,[R0, #+20]
        CMP      R1,#+0
        BNE      ??onLBMessage2_1
        LDRB     R0,[R0, #+16]
??onLBMessage2_15:
        CMP      R0,#+0
        BEQ      ??onLBMessage2_1
        B        ??onLBMessage2_6
??onLBMessage2_13:
        CMP      R8,#+5
        BNE      ??onLBMessage2_16
        LDRH     R0,[R7, #+28]
        PUSH     {R0}
        CFI CFA R13+140
        LDRB     R0,[R7, #+30]
        PUSH     {R0}
        CFI CFA R13+144
        LDRB     R3,[R7, #+31]
        B        ??onLBMessage2_14
        CFI CFA R13+136
??onLBMessage2_16:
        CMP      R8,#+6
        LDREQ    R0,[R7, #+56]
        BEQ      ??onLBMessage2_8
        CMP      R8,#+7
        BNE      ??onLBMessage2_17
        LDRB     R1,[R7, #+8]
        LDR      R3,[R7, #+4]
        LDR      R0,[R7, #+12]
        CMP      R1,#+0
        LDRB     R1,[R7, #+17]
        RSBNE    R3,R3,#+0
        ADD      R2,R2,#+64
        CMP      R1,#+0
        RSBNE    R0,R0,#+0
        PUSH     {R0}
        CFI CFA R13+140
        MOV      R1,#+50
        ADD      R0,SP,#+12
        SWI      +277
        MOV      R2,R6
        MOV      R1,#+0
        ADD      R0,SP,#+12
        SWI      +349
        MOV      R1,R0
        MOV      R0,R4
        SWI      +313
        LDR      R0,[R5, #+28]
        LDRB     R0,[R0, #+16]
        ADD      SP,SP,#+4
        CFI CFA R13+136
        B        ??onLBMessage2_15
??onLBMessage2_17:
        CMP      R8,#+8
        BNE      ??onLBMessage2_1
        LDR      R3,[R7, #+60]
        CMP      R3,#+0
        BEQ      ??onLBMessage2_18
        ADD      R2,R2,#+76
        MOV      R1,#+50
        ADD      R0,SP,#+8
        SWI      +277
        MOV      R2,R6
        MOV      R1,#+0
        ADD      R0,SP,#+8
        B        ??onLBMessage2_9
??onLBMessage2_18:
        ADD      R0,R2,#+84
        BL       ??GetStrID
??onLBMessage2_10:
        MOV      R1,R0
        MOV      R0,R4
        SWI      +313
        MOV      R0,#+1
        ADD      SP,SP,#+108
        CFI CFA R13+28
        POP      {R4-R9,PC}
        DATA
??onLBMessage2_2:
        DC8      0x00, 0x00,+0,+0
        DC8      0x2A, 0x00, 0x00, 0x00
        DC8      0xB0, 0x00, 0x00, 0x00
        DC32     iticons
        DC32     `?<Constant L"\\x25\\x30\\x32\\x64\\x3a\\x25\\x30\\x32\\`
        CFI EndBlock cfiBlock17
//  268 };

        RSEG CODE:CODE:NOROOT(2)
        DATA
??DataTable9:
        DC32     ??isEvtEditBook

        RSEG CODE:CODE:NOROOT(2)
        CFI Block cfiBlock18 Using cfiCommon0
        CFI NoFunction
        THUMB
??isEvtControl??rT:
        BX       PC
        Nop      
        CFI EndBlock cfiBlock18
        REQUIRE ??isEvtControl
//  269 
//  270 GUI_LIST *create_ed(BOOK *book);

        RSEG CODE:CODE:NOROOT(2)
        CFI Block cfiBlock19 Using cfiCommon1
        CFI Function ??isEvtControl
        ARM
//  271 int isEvtControl(BOOK *bk)
//  272 {
//  273   if (strcmp(bk->xbook->name,"EventControl")==0)
??isEvtControl:
        LDR      R1,??isEvtControl_1  ;; `?<Constant "EventControl">`
        PUSH     {LR}
        CFI ?RET Frame(CFA, -4)
        CFI CFA R13+4
        LDR      R0,[R0, #+0]
        LDR      R0,[R0, #+4]
        SWI      +345
        CMP      R0,#+0
//  274   {
//  275     return 1;
        MOVEQ    R0,#+1
        POPEQ    {PC}
//  276   }
//  277   return 0;
        MOV      R0,#+0
        POP      {PC}             ;; return
        DATA
??isEvtControl_1:
        DC32     `?<Constant "EventControl">`
        CFI EndBlock cfiBlock19
//  278 };

        RSEG CODE:CODE:NOROOT(2)
        CFI Block cfiBlock20 Using cfiCommon0
        CFI NoFunction
        THUMB
??OnYesExitGui??rT:
        BX       PC
        Nop      
        CFI EndBlock cfiBlock20
        REQUIRE ??OnYesExitGui
//  279 typedef void (*UPDATE_METHOD)(wchar_t *path, wchar_t *name);
//  280 
//  281 typedef struct
//  282 {
//  283   BOOK bk;
//  284   UPDATE_METHOD update;
//  285 }EVTBOOK;
//  286 

        RSEG CODE:CODE:NOROOT(2)
        CFI Block cfiBlock21 Using cfiCommon1
        CFI Function ??OnYesExitGui
        ARM
//  287 void OnYesExitGui(BOOK * bk, GUI* )
//  288 {
??OnYesExitGui:
        PUSH     {R4,LR}
        CFI ?RET Frame(CFA, -4)
        CFI R4 Frame(CFA, -8)
        CFI CFA R13+8
//  289   
//  290   MyBOOK * mbk=(MyBOOK *)bk;
//  291   if (DestroyEvents(mbk, true)==0)
        MOV      R1,#+1
        MOV      R4,R0
        _BLF     ??DestroyEvents,??DestroyEvents??rA
        CMP      R0,#+0
        POPNE    {R4,PC}
//  292   {
//  293     EVTBOOK *ek=(EVTBOOK*)FindBook(isEvtControl);
        LDR      R0,??OnYesExitGui_1  ;; ??isEvtControl
        SWI      +304
        MOVS     R2,R0
//  294     if (ek)
        BEQ      ??OnYesExitGui_2
//  295     {
//  296       ek->update(defPath,defName);
        LDR      R0,??DataTable11  ;; myBook
        LDR      R2,[R2, #+24]
        LDR      R1,[R0, #+8]
        LDR      R0,[R0, #+4]
        BLX      R2
//  297     }
//  298     FREE_GUI(mbk->lst);
??OnYesExitGui_2:
        LDR      R0,[R4, #+32]
        CMP      R0,#+0
        BEQ      ??OnYesExitGui_3
        SWI      +462
        STR      R0,[R4, #+32]
//  299     FreeBook(bk);
??OnYesExitGui_3:
        MOV      R0,R4
        SWI      +303
//  300   }
//  301 };
        POP      {R4,PC}          ;; return
        DATA
??OnYesExitGui_1:
        DC32     ??isEvtControl
        CFI EndBlock cfiBlock21

        RSEG CODE:CODE:NOROOT(2)
        DATA
??DataTable11:
        DC32     myBook

        RSEG CODE:CODE:NOROOT(2)
        CFI Block cfiBlock22 Using cfiCommon0
        CFI NoFunction
        THUMB
??OnNoExitGui??rT:
        BX       PC
        Nop      
        CFI EndBlock cfiBlock22
        REQUIRE ??OnNoExitGui
//  302 

        RSEG CODE:CODE:NOROOT(2)
        CFI Block cfiBlock23 Using cfiCommon1
        CFI Function ??OnNoExitGui
        ARM
//  303 void OnNoExitGui(BOOK * bk, GUI* )
//  304 {
??OnNoExitGui:
        PUSH     {R4,LR}
        CFI ?RET Frame(CFA, -4)
        CFI R4 Frame(CFA, -8)
        CFI CFA R13+8
        MOV      R4,R0
//  305   MyBOOK * mbk=(MyBOOK *)bk;
//  306   FREE_GUI(mbk->lst);
        LDR      R0,[R4, #+32]
        CMP      R0,#+0
        BEQ      ??OnNoExitGui_1
        SWI      +462
        STR      R0,[R4, #+32]
//  307   DestroyEvents(mbk,false);
??OnNoExitGui_1:
        MOV      R1,#+0
        MOV      R0,R4
        _BLF     ??DestroyEvents,??DestroyEvents??rA
//  308   FreeBook(bk);
        MOV      R0,R4
        SWI      +303
//  309 };
        POP      {R4,PC}          ;; return
        CFI EndBlock cfiBlock23

        RSEG CODE:CODE:NOROOT(2)
        CFI Block cfiBlock24 Using cfiCommon0
        CFI NoFunction
        THUMB
??OnBackExitGui??rT:
        BX       PC
        Nop      
        CFI EndBlock cfiBlock24
        REQUIRE ??OnBackExitGui
//  310 

        RSEG CODE:CODE:NOROOT(2)
        CFI Block cfiBlock25 Using cfiCommon1
        CFI Function ??OnBackExitGui
        ARM
//  311 void OnBackExitGui(BOOK * bk, GUI* )
//  312 {
??OnBackExitGui:
        PUSH     {R4,LR}
        CFI ?RET Frame(CFA, -4)
        CFI R4 Frame(CFA, -8)
        CFI CFA R13+8
        MOV      R4,R0
//  313   MyBOOK * myBook=(MyBOOK *)bk;
//  314   FREE_GUI(myBook->yesno);
        LDR      R0,[R4, #+72]
        CMP      R0,#+0
        POPEQ    {R4,PC}
        SWI      +462
        STR      R0,[R4, #+72]
//  315 };
        POP      {R4,PC}          ;; return
        CFI EndBlock cfiBlock25

        RSEG CODE:CODE:NOROOT(2)
        CFI Block cfiBlock26 Using cfiCommon0
        CFI NoFunction
        THUMB
??Escape??rT:
        BX       PC
        Nop      
        CFI EndBlock cfiBlock26
        REQUIRE ??Escape
//  316 

        RSEG CODE:CODE:NOROOT(2)
        CFI Block cfiBlock27 Using cfiCommon1
        CFI Function ??Escape
        ARM
//  317 void Escape(MyBOOK *mbk, bool dontsave)
//  318 {
??Escape:
        PUSH     {R4,LR}
        CFI ?RET Frame(CFA, -4)
        CFI R4 Frame(CFA, -8)
        CFI CFA R13+8
//  319   if (!dontsave)
        CMP      R1,#+0
        MOV      R4,R0
        BNE      ??Escape_1
//  320   {
//  321     if (mbk->selev==0)
        LDR      R0,[R4, #+28]
        CMP      R0,#+0
        BNE      ??Escape_2
//  322     {
//  323       mbk->yesno=CreateYesNoQuestionVA(0,
//  324                                             VAR_BOOK(&mbk->book),
//  325                                             VAR_YESNO_QUESTION(mbk->save_before_exit),
//  326                                             0);
        LDR      R3,??Escape_3    ;; VAR_ARG_YESNO_QUESTION
        LDR      R1,??Escape_3+0x4  ;; VAR_ARG_BOOK
        PUSH     {R0}
        CFI CFA R13+12
        LDR      R0,[R4, #+172]
        MOV      R2,R4
        PUSH     {R0}
        CFI CFA R13+16
        MOV      R0,#+0
        SWI      +677
//  327       GUIObject_SoftKeys_SetAction(mbk->yesno,ACTION_YES,OnYesExitGui);
        LDR      R2,??Escape_3+0x8  ;; ??OnYesExitGui
        STR      R0,[R4, #+72]
        LDR      R0,??Escape_3+0xC  ;; ACTION_YES
        LDR      R1,[R0, #+0]
        LDR      R0,[R4, #+72]
        MOV      R1,R1, LSL #+16
        MOV      R1,R1, LSR #+16
        SWI      +331
//  328       GUIObject_SoftKeys_SetAction(mbk->yesno,ACTION_NO,OnNoExitGui);
        LDR      R0,??Escape_3+0x10  ;; ACTION_NO
        LDR      R2,??Escape_3+0x14  ;; ??OnNoExitGui
        LDR      R1,[R0, #+0]
        LDR      R0,[R4, #+72]
        MOV      R1,R1, LSL #+16
        MOV      R1,R1, LSR #+16
        SWI      +331
//  329       GUIObject_SoftKeys_SetAction(mbk->yesno,ACTION_BACK,OnBackExitGui);
        LDR      R0,??DataTable26  ;; ACTION_BACK
        LDR      R2,??Escape_3+0x18  ;; ??OnBackExitGui
        LDR      R1,[R0, #+0]
        LDR      R0,[R4, #+72]
        MOV      R1,R1, LSL #+16
        MOV      R1,R1, LSR #+16
        SWI      +331
        ADD      SP,SP,#+8
        CFI CFA R13+8
        POP      {R4,PC}
//  330     }
//  331     else
//  332     {
//  333       FREE_GUI(mbk->lst);
??Escape_2:
        LDR      R0,[R4, #+32]
        CMP      R0,#+0
        BEQ      ??Escape_4
        SWI      +462
        STR      R0,[R4, #+32]
//  334       mbk->selev=0;
        MOV      R0,#+0
??Escape_4:
        STR      R0,[R4, #+28]
//  335       mbk->opt_lastindex=0;
        STR      R0,[R4, #+40]
//  336       create_ed(&mbk->book);
        MOV      R0,R4
        BL       ??create_ed
        POP      {R4,PC}
//  337     }
//  338   }
//  339   else
//  340   {
//  341     BookObj_ReturnPage(&mbk->book, PREVIOUS_EVENT);
??Escape_1:
        LDR      R0,??Escape_3+0x1C  ;; PREVIOUS_EVENT
        LDR      R1,[R0, #+0]
        MOV      R0,R4
        SWI      +302
//  342     FREE_GUI(mbk->lst);
        LDR      R0,[R4, #+32]
        CMP      R0,#+0
        BEQ      ??Escape_5
        SWI      +462
        STR      R0,[R4, #+32]
//  343     DestroyEvents(mbk, false);
??Escape_5:
        MOV      R1,#+0
        MOV      R0,R4
        _BLF     ??DestroyEvents,??DestroyEvents??rA
//  344     FreeBook(&mbk->book);
        MOV      R0,R4
        SWI      +303
//  345   }
//  346 };
        POP      {R4,PC}          ;; return
        DATA
??Escape_3:
        DC32     VAR_ARG_YESNO_QUESTION
        DC32     VAR_ARG_BOOK
        DC32     ??OnYesExitGui
        DC32     ACTION_YES
        DC32     ACTION_NO
        DC32     ??OnNoExitGui
        DC32     ??OnBackExitGui
        DC32     PREVIOUS_EVENT
        CFI EndBlock cfiBlock27

        RSEG CODE:CODE:NOROOT(2)
        CFI Block cfiBlock28 Using cfiCommon0
        CFI NoFunction
        THUMB
??OnBackGui??rT:
        BX       PC
        Nop      
        CFI EndBlock cfiBlock28
        REQUIRE ??OnBackGui

        RSEG CODE:CODE:NOROOT(2)
        CFI Block cfiBlock29 Using cfiCommon1
        CFI Function ??OnBackGui
        ARM
//  347 void OnBackGui(BOOK * bk, GUI* )
//  348 {
//  349   Escape((MyBOOK*)bk, false);
??OnBackGui:
        MOV      R1,#+0
        B        ??Escape         ;; tailcall
        CFI EndBlock cfiBlock29
//  350 };

        RSEG CODE:CODE:NOROOT(2)
        CFI Block cfiBlock30 Using cfiCommon0
        CFI NoFunction
        THUMB
??EvRem??rT:
        BX       PC
        Nop      
        CFI EndBlock cfiBlock30
        REQUIRE ??EvRem
//  351 

        RSEG CODE:CODE:NOROOT(2)
        CFI Block cfiBlock31 Using cfiCommon1
        CFI Function ??EvRem
        ARM
//  352 void EvRem(EVENT *event)
//  353 {
??EvRem:
        PUSH     {R4,LR}
        CFI ?RET Frame(CFA, -4)
        CFI R4 Frame(CFA, -8)
        CFI CFA R13+8
        MOVS     R4,R0
//  354    if (event)
        POPEQ    {R4,PC}
//  355    {
//  356       if (event->txt)
        LDR      R0,[R4, #+56]
        CMP      R0,#+0
        BEQ      ??EvRem_1
//  357       {
//  358         delete(event->txt);
        _BLF     `??operator delete`,`??operator delete??rA`
//  359       }
//  360       if (event->param)
??EvRem_1:
        LDR      R0,[R4, #+52]
        CMP      R0,#+0
        BEQ      ??EvRem_2
//  361       {
//  362         delete(event->param);
        _BLF     `??operator delete`,`??operator delete??rA`
//  363       }
//  364       delete(event);
??EvRem_2:
        MOV      R0,R4
        _BLF     `??operator delete`,`??operator delete??rA`
//  365    }
//  366 };
        POP      {R4,PC}          ;; return
        CFI EndBlock cfiBlock31

        RSEG CODE:CODE:NOROOT(2)
        CFI Block cfiBlock32 Using cfiCommon0
        CFI NoFunction
        THUMB
??OnDelGui??rT:
        BX       PC
        Nop      
        CFI EndBlock cfiBlock32
        REQUIRE ??OnDelGui
//  367 

        RSEG CODE:CODE:NOROOT(2)
        CFI Block cfiBlock33 Using cfiCommon1
        CFI Function ??OnDelGui
        ARM
//  368 void OnDelGui(BOOK *bk, GUI* )
//  369 {
??OnDelGui:
        PUSH     {R4,R5,LR}
        CFI ?RET Frame(CFA, -4)
        CFI R5 Frame(CFA, -8)
        CFI R4 Frame(CFA, -12)
        CFI CFA R13+12
        MOV      R4,R0
//  370   MyBOOK *mbk=(MyBOOK *)bk;
//  371   int item=ListMenu_GetSelectedItem(mbk->lst);
        LDR      R0,[R4, #+32]
        SWI      +318
        MOV      R5,R0
//  372   if (mbk->selev==0)
        LDR      R0,[R4, #+28]
        CMP      R0,#+0
        POPNE    {R4,R5,PC}
//  373   {
//  374     if (item>=0 && item<(events->FirstFree))
        CMP      R5,#+0
        POPMI    {R4,R5,PC}
        LDR      R0,??DataTable23  ;; events
        LDR      R0,[R0, #+0]
        LDRH     R1,[R0, #+2]
        CMP      R5,R1
        POPGE    {R4,R5,PC}
//  375     {
//  376       EVENT *ev=(EVENT*)List_RemoveAt(events,item);
        MOV      R1,R5
        SWI      +377
//  377       EvRem(ev);
        BL       ??EvRem
//  378       FREE_GUI(mbk->lst);
        LDR      R0,[R4, #+32]
        CMP      R0,#+0
        BEQ      ??OnDelGui_1
        SWI      +462
        STR      R0,[R4, #+32]
//  379       if (mbk->events->FirstFree)
??OnDelGui_1:
        LDR      R0,[R4, #+24]
        LDRH     R0,[R0, #+2]
        CMP      R0,#+0
//  380       {
//  381         mbk->main_lastindex=item;
        STRNE    R5,[R4, #+36]
//  382       }
//  383       else
//  384       {
//  385         mbk->main_lastindex=0;
        STREQ    R0,[R4, #+36]
//  386       }
//  387       create_ed(bk);
        MOV      R0,R4
        BL       ??create_ed
//  388     }
//  389   }
//  390 };
        POP      {R4,R5,PC}       ;; return
        CFI EndBlock cfiBlock33

        RSEG CODE:CODE:NOROOT(2)
        CFI Block cfiBlock34 Using cfiCommon0
        CFI NoFunction
        THUMB
??OnAuthor??rT:
        BX       PC
        Nop      
        CFI EndBlock cfiBlock34
        REQUIRE ??OnAuthor
//  391 

        RSEG CODE:CODE:NOROOT(2)
        CFI Block cfiBlock35 Using cfiCommon1
        CFI Function ??OnAuthor
        ARM
//  392 void OnAuthor(BOOK *bk, GUI* )
//  393 {
//  394   wchar_t ustr[64];
//  395   snwprintf(ustr,MAXELEMS(ustr)-1,L"\nEvtEdit v1.0\n(c) UltraShot\n%s",BUILD);
??OnAuthor:
        LDR      R2,??DataTable14  ;; `?<Constant L"\\xa\\x45\\x76\\x74\\x45\\x64\\x69\\x74\\x`
        PUSH     {R4,LR}
        CFI ?RET Frame(CFA, -4)
        CFI R4 Frame(CFA, -8)
        CFI CFA R13+8
        SUB      SP,SP,#+128
        CFI CFA R13+136
        ADD      R3,R2,#+64
        MOV      R4,R0
        MOV      R1,#+63
        MOV      R0,SP
        SWI      +277
//  396   MessageBox(SID_NULL,TextID_Create(ustr,ENC_UCS2,MAXELEMS(ustr)-1), NOIMAGE, 1, 5000,bk);
        MOV      R2,#+63
        MOV      R1,#+0
        MOV      R0,SP
        SWI      +349
        PUSH     {R4}
        CFI CFA R13+140
        MOV      R1,#+136
        ORR      R1,R1,#0x1300
        PUSH     {R1}
        CFI CFA R13+144
        MOV      R3,#+1
        MOV      R2,#+255
        ORR      R2,R2,#0xFF00
        MOV      R1,R0
        MVN      R0,#-1879048192
        SWI      +599
//  397 };
        ADD      SP,SP,#+136
        CFI CFA R13+8
        POP      {R4,PC}          ;; return
        CFI EndBlock cfiBlock35

        RSEG CODE:CODE:NOROOT(2)
        DATA
??DataTable14:
        DC32     `?<Constant L"\\xa\\x45\\x76\\x74\\x45\\x64\\x69\\x74\\x`

        RSEG CODE:CODE:NOROOT(2)
        CFI Block cfiBlock36 Using cfiCommon0
        CFI NoFunction
        THUMB
??OnSelect1Gui??rT:
        BX       PC
        Nop      
        CFI EndBlock cfiBlock36
        REQUIRE ??OnSelect1Gui
//  398 

        RSEG CODE:CODE:NOROOT(2)
        CFI Block cfiBlock37 Using cfiCommon1
        CFI Function ??OnSelect1Gui
        ARM
//  399 void OnSelect1Gui(BOOK *bk, GUI* )
//  400 {
??OnSelect1Gui:
        PUSH     {R4-R8,LR}
        CFI ?RET Frame(CFA, -4)
        CFI R8 Frame(CFA, -8)
        CFI R7 Frame(CFA, -12)
        CFI R6 Frame(CFA, -16)
        CFI R5 Frame(CFA, -20)
        CFI R4 Frame(CFA, -24)
        CFI CFA R13+24
        MOV      R4,R0
//  401   MyBOOK *mbk=(MyBOOK *)bk;
//  402   int item=ListMenu_GetSelectedItem(mbk->lst);
        LDR      R0,[R4, #+32]
//  403   if (mbk->selev==0)
        MOV      R6,#+1
        SWI      +318
        MOV      R5,R0
        LDR      R0,[R4, #+28]
        CMP      R0,#+0
        BNE      ??OnSelect1Gui_1
//  404   {
//  405     if (item>=0 && item<(events->FirstFree+1))
        CMP      R5,#+0
        POPMI    {R4-R8,PC}
        LDR      R7,??DataTable23  ;; events
        LDR      R0,[R7, #+0]
        LDRH     R0,[R0, #+2]
        ADD      R0,R0,#+1
        CMP      R5,R0
        POPGE    {R4-R8,PC}
//  406     {
//  407       mbk->main_lastindex=item;
        STR      R5,[R4, #+36]
//  408       if (item==events->FirstFree)
        LDR      R0,[R7, #+0]
        LDRH     R0,[R0, #+2]
        CMP      R5,R0
        BNE      ??OnSelect1Gui_2
//  409       {
//  410         EVENT *ev = new EVENT;
        MOV      R0,#+68
        _BLF     `??operator new`,`??operator new??rA`
        MOV      R8,R0
//  411         memset(ev,0,sizeof(EVENT));
        MOV      R2,#+68
        MOV      R1,#+0
        SWI      +274
//  412         List_InsertLast(events, ev);
        LDR      R0,[R7, #+0]
        MOV      R1,R8
        SWI      +432
//  413         ev->days[0]=1;ev->days[1]=1;ev->days[2]=1;ev->days[3]=1;ev->days[4]=1;ev->days[5]=1;ev->days[6]=1;
//  414         ev->rem=0x55555555;
        LDR      R0,??OnSelect1Gui_3  ;; 0x55555555
        STRB     R6,[R8, #+32]
        STRB     R6,[R8, #+33]
        STRB     R6,[R8, #+34]
        STRB     R6,[R8, #+35]
        STRB     R6,[R8, #+36]
        STRB     R6,[R8, #+37]
        STRB     R6,[R8, #+38]
        STR      R0,[R8, #+64]
//  415       }
//  416       mbk->selev=(EVENT*)List_Get(events,item);
??OnSelect1Gui_2:
        LDR      R0,[R7, #+0]
        MOV      R1,R5
        SWI      +429
        STR      R0,[R4, #+28]
//  417       FREE_GUI(mbk->lst);
        LDR      R0,[R4, #+32]
        CMP      R0,#+0
        BEQ      ??OnSelect1Gui_4
        SWI      +462
        STR      R0,[R4, #+32]
//  418       create_ed(bk);
??OnSelect1Gui_4:
        MOV      R0,R4
        BL       ??create_ed
        POP      {R4-R8,PC}
//  419     }
//  420   }
//  421   else
//  422   {
//  423     mbk->opt_lastindex=item;
//  424     if (item==0)
??OnSelect1Gui_1:
        LDR      R1,??OnSelect1Gui_3+0x4  ;; bk_time_input
        STR      R5,[R4, #+40]
        CMP      R5,#+0
//  425     {
//  426       mbk->curtime=&mbk->selev->time;
        ADDEQ    R0,R0,#+44
        BEQ      ??OnSelect1Gui_5
//  427       BookObj_CallPage(&mbk->book,&bk_time_input);
//  428     }
//  429     if (item==1)
        CMP      R5,#+1
        BNE      ??OnSelect1Gui_6
//  430     {
//  431       mbk->curtime=&mbk->selev->time2;
        ADD      R0,R0,#+48
??OnSelect1Gui_5:
        STR      R0,[R4, #+80]
//  432       BookObj_CallPage(&mbk->book,&bk_time_input);
??OnSelect1Gui_7:
        B        ??OnSelect1Gui_8
//  433     }
//  434     else if (item==2)
??OnSelect1Gui_6:
        CMP      R5,#+2
//  435     {
//  436       BookObj_CallPage(&mbk->book,&bk_selectevent);
        LDREQ    R1,??OnSelect1Gui_3+0x8  ;; bk_selectevent
        BEQ      ??OnSelect1Gui_8
//  437     }
//  438     else if (item==3)
        LDR      R0,??OnSelect1Gui_3+0xC  ;; bk_days
        CMP      R5,#+3
        BNE      ??OnSelect1Gui_9
//  439     {
//  440       mbk->curdays=mbk->selev->days;
        LDR      R1,[R4, #+28]
        ADD      R1,R1,#+32
        STR      R1,[R4, #+100]
//  441       mbk->daystype=0;
        MOV      R1,#+0
        STR      R1,[R4, #+96]
//  442       BookObj_CallPage(&mbk->book,&bk_days);
        MOV      R1,R0
        B        ??OnSelect1Gui_10
//  443     }
//  444     else if (item==4)
??OnSelect1Gui_9:
        LDR      R1,??OnSelect1Gui_3+0x10  ;; bk_date_input
        CMP      R5,#+4
        BNE      ??OnSelect1Gui_11
//  445     {
//  446       mbk->curdate=&mbk->selev->date;
        LDR      R0,[R4, #+28]
        ADD      R0,R0,#+24
        B        ??OnSelect1Gui_12
//  447       BookObj_CallPage(&mbk->book,&bk_date_input);
//  448     }
//  449     else if (item==5)
??OnSelect1Gui_11:
        CMP      R5,#+5
        BNE      ??OnSelect1Gui_13
//  450     {
//  451       mbk->curdate=&mbk->selev->date2;
        LDR      R0,[R4, #+28]
        ADD      R0,R0,#+28
??OnSelect1Gui_12:
        STR      R0,[R4, #+88]
//  452       BookObj_CallPage(&mbk->book,&bk_date_input);
??OnSelect1Gui_10:
        MOV      R0,R4
        SWI      +696
        POP      {R4-R8,PC}
//  453     }
//  454     else if (item==6)
??OnSelect1Gui_13:
        LDR      R1,??DataTable21  ;; bk_StringInput
        RSB      R2,R6,#+0
        CMP      R5,#+6
        BNE      ??OnSelect1Gui_14
//  455     {
//  456       mbk->inputType=IT_STRING;
        STR      R6,[R4, #+68]
//  457       mbk->minint=-1;
        STR      R2,[R4, #+56]
//  458       mbk->maxint=100;
        MOV      R0,#+100
        STR      R0,[R4, #+60]
//  459       mbk->TextInputType=1;
        STR      R6,[R4, #+64]
//  460       BookObj_CallPage(&mbk->book,&bk_StringInput);
        B        ??OnSelect1Gui_10
//  461     }
//  462     else if (item==7)
??OnSelect1Gui_14:
        CMP      R5,#+7
//  463     {
//  464       mbk->daystype=1;
        STREQ    R6,[R4, #+96]
//  465       BookObj_CallPage(&mbk->book,&bk_days);
        MOVEQ    R1,R0
        BEQ      ??OnSelect1Gui_8
//  466     }
//  467     else if (item==8)
        CMP      R5,#+8
        POPNE    {R4-R8,PC}
//  468     {
//  469       mbk->TextInputType=4;
        MOV      R0,#+4
        STR      R0,[R4, #+64]
//  470       mbk->inputType=IT_STRING;
        STR      R6,[R4, #+68]
//  471       mbk->minint=-1;
        STR      R2,[R4, #+56]
//  472       mbk->maxint=9;
        MOV      R0,#+9
        STR      R0,[R4, #+60]
//  473       BookObj_CallPage(&mbk->book,&bk_StringInput);
??OnSelect1Gui_8:
        MOV      R0,R4
        SWI      +696
//  474     }
//  475   }
//  476 };
        POP      {R4-R8,PC}       ;; return
        DATA
??OnSelect1Gui_3:
        DC32     0x55555555
        DC32     bk_time_input
        DC32     bk_selectevent
        DC32     bk_days
        DC32     bk_date_input
        CFI EndBlock cfiBlock37

        RSEG CODE:CODE:NOROOT(2)
        CFI Block cfiBlock38 Using cfiCommon0
        CFI NoFunction
        THUMB
??onDummy??rT:
        BX       PC
        Nop      
        CFI EndBlock cfiBlock38
        REQUIRE ??onDummy
//  477 

        RSEG CODE:CODE:NOROOT(2)
        CFI Block cfiBlock39 Using cfiCommon1
        CFI Function ??onDummy
        ARM
//  478 void onDummy(BOOK *bk, GUI* )
//  479 {
//  480   return;
??onDummy:
        BX       LR               ;; return
        CFI EndBlock cfiBlock39
//  481 };

        RSEG CODE:CODE:NOROOT(2)
        CFI Block cfiBlock40 Using cfiCommon0
        CFI NoFunction
        THUMB
??onDType0Press??rT:
        BX       PC
        Nop      
        CFI EndBlock cfiBlock40
        REQUIRE ??onDType0Press
//  482 

        RSEG CODE:CODE:NOROOT(2)
        CFI Block cfiBlock41 Using cfiCommon1
        CFI Function ??onDType0Press
        ARM
//  483 void onDType0Press(BOOK *bk, GUI* )
//  484 {
??onDType0Press:
        PUSH     {LR}
        CFI ?RET Frame(CFA, -4)
        CFI CFA R13+4
//  485   MyBOOK *mbk=(MyBOOK*)bk;
//  486   mbk->selev->dtype=0;
        LDR      R1,[R0, #+28]
        MOV      R2,#+0
        STR      R2,[R1, #+20]
//  487   BookObj_CallPage(bk,&bk_main);
        LDR      R1,??DataTable20  ;; `?<Constant L"\\x2e\\x63\\x66\\x67">` + 184
        SWI      +696
//  488 };
        POP      {PC}             ;; return
        CFI EndBlock cfiBlock41

        RSEG CODE:CODE:NOROOT(2)
        CFI Block cfiBlock42 Using cfiCommon0
        CFI NoFunction
        THUMB
??onDType1Press??rT:
        BX       PC
        Nop      
        CFI EndBlock cfiBlock42
        REQUIRE ??onDType1Press
//  489 

        RSEG CODE:CODE:NOROOT(2)
        CFI Block cfiBlock43 Using cfiCommon1
        CFI Function ??onDType1Press
        ARM
//  490 void onDType1Press(BOOK *bk, GUI* )
//  491 {
??onDType1Press:
        PUSH     {R4,R5,LR}
        CFI ?RET Frame(CFA, -4)
        CFI R5 Frame(CFA, -8)
        CFI R4 Frame(CFA, -12)
        CFI CFA R13+12
//  492   MyBOOK *mbk=(MyBOOK*)bk;
//  493   if (mbk->selev->date.year==0 && mbk->selev->date.mon==0 && mbk->selev->date.day==0)
        LDR      R5,??onDType1Press_1  ;; SYNC
        SUB      SP,SP,#+8
        CFI CFA R13+20
        MOV      R4,R0
        LDR      R0,[R4, #+28]
        LDRH     R0,[R0, #+24]
        CMP      R0,#+0
        BNE      ??onDType1Press_2
        LDR      R0,[R4, #+28]
        LDRB     R0,[R0, #+26]
        CMP      R0,#+0
        BNE      ??onDType1Press_2
        LDR      R0,[R4, #+28]
        LDRB     R0,[R0, #+27]
        CMP      R0,#+0
        BNE      ??onDType1Press_2
//  494   {
//  495     DATETIME dt;
//  496     REQUEST_DATEANDTIME_GET(SYNC, &dt);
        LDR      R0,[R5, #+0]
        MOV      R1,SP
        SWI      +366
//  497     mbk->selev->date.year=dt.date.year;
        LDRH     R1,[SP, #+0]
        LDR      R0,[R4, #+28]
        STRH     R1,[R0, #+24]
//  498     mbk->selev->date.mon=dt.date.mon;
        LDRB     R1,[SP, #+2]
        LDR      R0,[R4, #+28]
        STRB     R1,[R0, #+26]
//  499     mbk->selev->date.day=dt.date.day;
        LDRB     R1,[SP, #+3]
        LDR      R0,[R4, #+28]
        STRB     R1,[R0, #+27]
//  500   }
//  501   if (mbk->selev->date2.year==0 && mbk->selev->date2.mon==0 && mbk->selev->date2.day==0)
??onDType1Press_2:
        LDR      R0,[R4, #+28]
        LDRH     R0,[R0, #+28]
        CMP      R0,#+0
        BNE      ??onDType1Press_3
        LDR      R0,[R4, #+28]
        LDRB     R0,[R0, #+30]
        CMP      R0,#+0
        BNE      ??onDType1Press_3
        LDR      R0,[R4, #+28]
        LDRB     R0,[R0, #+31]
        CMP      R0,#+0
        BNE      ??onDType1Press_3
//  502   {
//  503     DATETIME dt;
//  504     REQUEST_DATEANDTIME_GET(SYNC, &dt);
        LDR      R0,[R5, #+0]
        MOV      R1,SP
        SWI      +366
//  505     mbk->selev->date2.year=dt.date.year;
        LDRH     R1,[SP, #+0]
        LDR      R0,[R4, #+28]
        STRH     R1,[R0, #+28]
//  506     mbk->selev->date2.mon=dt.date.mon;
        LDRB     R1,[SP, #+2]
        LDR      R0,[R4, #+28]
        STRB     R1,[R0, #+30]
//  507     mbk->selev->date2.day=dt.date.day;
        LDRB     R1,[SP, #+3]
        LDR      R0,[R4, #+28]
        STRB     R1,[R0, #+31]
//  508   }
//  509   mbk->selev->dtype=1;
??onDType1Press_3:
        LDR      R0,[R4, #+28]
        MOV      R1,#+1
        STR      R1,[R0, #+20]
//  510   BookObj_CallPage(bk,&bk_main);
        LDR      R1,??DataTable20  ;; `?<Constant L"\\x2e\\x63\\x66\\x67">` + 184
        MOV      R0,R4
        SWI      +696
//  511 };
        POP      {R0,R1,R4,R5,PC}  ;; return
        DATA
??onDType1Press_1:
        DC32     SYNC
        CFI EndBlock cfiBlock43

        RSEG CODE:CODE:NOROOT(2)
        CFI Block cfiBlock44 Using cfiCommon0
        CFI NoFunction
        THUMB
??onTType0Press??rT:
        BX       PC
        Nop      
        CFI EndBlock cfiBlock44
        REQUIRE ??onTType0Press
//  512 

        RSEG CODE:CODE:NOROOT(2)
        CFI Block cfiBlock45 Using cfiCommon1
        CFI Function ??onTType0Press
        ARM
//  513 void onTType0Press(BOOK *bk, GUI* )
//  514 {
??onTType0Press:
        PUSH     {LR}
        CFI ?RET Frame(CFA, -4)
        CFI CFA R13+4
//  515   MyBOOK *mbk=(MyBOOK*)bk;
//  516   mbk->selev->ttype=0;
        LDR      R1,[R0, #+28]
        MOV      R2,#+0
        STR      R2,[R1, #+40]
//  517   BookObj_CallPage(bk,&bk_main);
        LDR      R1,??DataTable20  ;; `?<Constant L"\\x2e\\x63\\x66\\x67">` + 184
        SWI      +696
//  518 };
        POP      {PC}             ;; return
        CFI EndBlock cfiBlock45

        RSEG CODE:CODE:NOROOT(2)
        CFI Block cfiBlock46 Using cfiCommon0
        CFI NoFunction
        THUMB
??onTType1Press??rT:
        BX       PC
        Nop      
        CFI EndBlock cfiBlock46
        REQUIRE ??onTType1Press
//  519 

        RSEG CODE:CODE:NOROOT(2)
        CFI Block cfiBlock47 Using cfiCommon1
        CFI Function ??onTType1Press
        ARM
//  520 void onTType1Press(BOOK *bk, GUI* )
//  521 {
??onTType1Press:
        PUSH     {LR}
        CFI ?RET Frame(CFA, -4)
        CFI CFA R13+4
//  522   MyBOOK *mbk=(MyBOOK*)bk;
//  523   mbk->selev->ttype=1;
        LDR      R1,[R0, #+28]
        MOV      R2,#+1
        STR      R2,[R1, #+40]
//  524   BookObj_CallPage(bk,&bk_main);
        LDR      R1,??DataTable20  ;; `?<Constant L"\\x2e\\x63\\x66\\x67">` + 184
        SWI      +696
//  525 };
        POP      {PC}             ;; return
        CFI EndBlock cfiBlock47

        RSEG CODE:CODE:NOROOT(2)
        DATA
??DataTable20:
        DC32     `?<Constant L"\\x2e\\x63\\x66\\x67">` + 184

        RSEG CODE:CODE:NOROOT(2)
        CFI Block cfiBlock48 Using cfiCommon0
        CFI NoFunction
        THUMB
??onEventClone??rT:
        BX       PC
        Nop      
        CFI EndBlock cfiBlock48
        REQUIRE ??onEventClone
//  526 

        RSEG CODE:CODE:NOROOT(2)
        CFI Block cfiBlock49 Using cfiCommon1
        CFI Function ??onEventClone
        ARM
//  527 void onEventClone(BOOK *bk, GUI* )
//  528 {
??onEventClone:
        PUSH     {LR}
        CFI ?RET Frame(CFA, -4)
        CFI CFA R13+4
//  529   MyBOOK *mbk=(MyBOOK*)bk;
//  530   mbk->inputType=IT_UNSIGNED_DIGIT;
        MOV      R1,#+9
        STR      R1,[R0, #+68]
//  531   mbk->TextInputType=8;
        MOV      R1,#+8
        STR      R1,[R0, #+64]
//  532   mbk->minint=1;
        MOV      R1,#+1
        STR      R1,[R0, #+56]
//  533   mbk->maxint=1000;
        MOV      R1,#+1000
        STR      R1,[R0, #+60]
//  534   BookObj_CallPage(bk,&bk_StringInput);
        LDR      R1,??DataTable21  ;; bk_StringInput
        SWI      +696
//  535 };
        POP      {PC}             ;; return
        CFI EndBlock cfiBlock49

        RSEG CODE:CODE:NOROOT(2)
        DATA
??DataTable21:
        DC32     bk_StringInput

        RSEG CODE:CODE:NOROOT(2)
        CFI Block cfiBlock50 Using cfiCommon0
        CFI NoFunction
        THUMB
??onIndication??rT:
        BX       PC
        Nop      
        CFI EndBlock cfiBlock50
        REQUIRE ??onIndication
//  536 

        RSEG CODE:CODE:NOROOT(2)
        CFI Block cfiBlock51 Using cfiCommon1
        CFI Function ??onIndication
        ARM
//  537 void onIndication(BOOK *bk, GUI* )
//  538 {
//  539   extern const PAGE_DESC bk_indic;
//  540   BookObj_CallPage(bk, &bk_indic);
??onIndication:
        LDR      R1,??onIndication_1  ;; bk_indic
        PUSH     {LR}
        CFI ?RET Frame(CFA, -4)
        CFI CFA R13+4
        SWI      +696
//  541 };
        POP      {PC}             ;; return
        DATA
??onIndication_1:
        DC32     bk_indic
        CFI EndBlock cfiBlock51

        RSEG CODE:CODE:NOROOT(2)
        CFI Block cfiBlock52 Using cfiCommon0
        CFI NoFunction
        THUMB
??CreateGuiList??rT:
        BX       PC
        Nop      
        CFI EndBlock cfiBlock52
        REQUIRE ??CreateGuiList
//  542 

        RSEG CODE:CODE:NOROOT(2)
        CFI Block cfiBlock53 Using cfiCommon1
        CFI Function ??CreateGuiList
        ARM
//  543 GUI_LIST * CreateGuiList(BOOK * book)
//  544 {
??CreateGuiList:
        PUSH     {R4-R8,LR}
        CFI ?RET Frame(CFA, -4)
        CFI R8 Frame(CFA, -8)
        CFI R7 Frame(CFA, -12)
        CFI R6 Frame(CFA, -16)
        CFI R5 Frame(CFA, -20)
        CFI R4 Frame(CFA, -24)
        CFI CFA R13+24
//  545   GUI_LIST * lo=0;
//  546   if (lo=CreateListMenu(book,0))
        MOV      R1,#+0
        SWI      +448
        MOVS     R7,R0
        BEQ      ??CreateGuiList_1
//  547   {
//  548     MyBOOK *bk=(MyBOOK*)FindBook(isEvtEditBook);
        LDR      R0,??DataTable22  ;; ??isEvtEditBook
//  549     if (!bk->selev)
        MOV      R4,#+255
        SWI      +304
        MOV      R5,R0
        LDR      R0,[R5, #+28]
        ORR      R4,R4,#0xFF00
        CMP      R0,#+0
        BNE      ??CreateGuiList_2
//  550     {
//  551       GUIObject_SoftKeys_SetAction(lo,0, OnAuthor);
//  552       GUIObject_SoftKeys_SetText(lo,0, GetStrID(L"JAVA_APP_NR_ABOUT"));
        LDR      R6,??CreateGuiList_3  ;; `?<Constant L"\\x4d\\x50\\x5f\\x41\\x55\\x44\\x49\\x4f\\`
        LDR      R2,??CreateGuiList_3+0x4  ;; ??OnAuthor
        MOV      R1,#+0
//  553       GUIObject_SetTitleText(lo,TextID_Create(L"EventControl v2.0",ENC_UCS2,TEXTID_ANY_LEN));
        LDR      R8,??CreateGuiList_3+0x8  ;; ??onLBMessage
        MOV      R0,R7
        SWI      +331
        ADD      R0,R6,#+44
        BL       ??GetStrID
        MOV      R2,R0
        MOV      R1,#+0
        MOV      R0,R7
        SWI      +332
        MOV      R2,R4
        MOV      R1,#+0
        ADD      R0,R6,#+80
        SWI      +349
        MOV      R1,R0
        MOV      R0,R7
        SWI      +307
        LDR      R0,??DataTable23  ;; events
        LDR      R0,[R0, #+0]
        LDRH     R0,[R0, #+2]
        CMP      R0,#+0
        BEQ      ??CreateGuiList_4
//  554       if (events->FirstFree)
//  555       {
//  556         ListMenu_SetItemCount(lo,events->FirstFree+1);
        ADD      R1,R0,#+1
        MOV      R0,R7
        SWI      +449
//  557         ListMenu_SetCursorToItem(lo,bk->main_lastindex);
        LDR      R1,[R5, #+36]
??CreateGuiList_5:
        MOV      R0,R7
        SWI      +309
//  558         ListMenu_SetOnMessage(lo,onLBMessage);
        MOV      R1,R8
        B        ??CreateGuiList_6
//  559       }
//  560       else
//  561       {
//  562         ListMenu_SetNoItemText(lo,GetStrID(L"MP_AUDIO_NO_ITEMS_TXT"));
??CreateGuiList_4:
        MOV      R0,R6
        BL       ??GetStrID
        MOV      R1,R0
        MOV      R0,R7
        SWI      +648
//  563         ListMenu_SetItemCount(lo,1);
        MOV      R1,#+1
        MOV      R0,R7
        SWI      +449
//  564         ListMenu_SetCursorToItem(lo,0);
        MOV      R1,#+0
        B        ??CreateGuiList_5
//  565         ListMenu_SetOnMessage(lo,onLBMessage);
//  566       }
//  567     }
//  568     else
//  569     {
//  570       GUIObject_SetTitleText(lo,TextID_Create(items[bk->selev->type],ENC_UCS2,TEXTID_ANY_LEN));
??CreateGuiList_2:
        LDR      R0,[R0, #+0]
        LDR      R3,??DataTable24  ;; items
        MOV      R2,R4
        LDR      R0,[R3, +R0, LSL #+2]
        MOV      R1,#+0
        SWI      +349
        MOV      R1,R0
        MOV      R0,R7
        SWI      +307
//  571       ListMenu_SetItemCount(lo,9);
        MOV      R1,#+9
        MOV      R0,R7
        SWI      +449
//  572       ListMenu_SetCursorToItem(lo,bk->opt_lastindex);
        LDR      R1,[R5, #+40]
        MOV      R0,R7
        SWI      +309
//  573       ListMenu_SetOnMessage(lo,onLBMessage2);
        LDR      R1,??CreateGuiList_3+0xC  ;; ??onLBMessage2
//  574     }
//  575     ListMenu_SetItemStyle(lo,3);
//  576     GUIObject_SoftKeys_SetAction(lo,ACTION_BACK, OnBackGui);
//  577     GUIObject_SoftKeys_SetAction(lo,ACTION_SELECT1,OnSelect1Gui);
//  578     if (!bk->selev)
??CreateGuiList_6:
        LDR      R6,??DataTable25  ;; lng
        MOV      R0,R7
        SWI      +372
        MOV      R1,#+3
        MOV      R0,R7
        SWI      +319
        LDR      R0,??DataTable26  ;; ACTION_BACK
        LDR      R2,??CreateGuiList_3+0x10  ;; ??OnBackGui
        LDR      R1,[R0, #+0]
        MOV      R0,R7
        MOV      R1,R1, LSL #+16
        MOV      R1,R1, LSR #+16
        SWI      +331
        LDR      R0,??CreateGuiList_3+0x14  ;; ACTION_SELECT1
        LDR      R2,??CreateGuiList_3+0x18  ;; ??OnSelect1Gui
        LDR      R1,[R0, #+0]
        MOV      R0,R7
        MOV      R1,R1, LSL #+16
        MOV      R1,R1, LSR #+16
        SWI      +331
        LDR      R0,[R5, #+28]
        LDR      R5,??CreateGuiList_3+0x1C  ;; ??onIndication
        CMP      R0,#+0
        BNE      ??CreateGuiList_7
//  579     {
//  580       GUIObject_SoftKeys_SetAction(lo,ACTION_DELETE, OnDelGui);
        LDR      R0,??CreateGuiList_3+0x20  ;; ACTION_DELETE
        LDR      R2,??CreateGuiList_3+0x24  ;; ??OnDelGui
        LDR      R1,[R0, #+0]
        MOV      R0,R7
        MOV      R1,R1, LSL #+16
        MOV      R1,R1, LSR #+16
        SWI      +331
//  581       GUIObject_SoftKeys_SetAction(lo, 2, onIndication);
        MOV      R2,R5
        MOV      R1,#+2
        MOV      R0,R7
        SWI      +331
//  582       GUIObject_SoftKeys_SetText(lo,2, TextID_Create(lng[INDICATION],ENC_UCS2,TEXTID_ANY_LEN));
        LDR      R0,[R6, #+208]
        MOV      R2,R4
        MOV      R1,#+0
        SWI      +349
        MOV      R2,R0
        MOV      R1,#+2
        B        ??CreateGuiList_8
//  583     }
//  584     else
//  585     {
//  586       if (!bk->selev->isGps)
??CreateGuiList_7:
        LDRB     R0,[R0, #+16]
        LDR      R8,??CreateGuiList_3+0x28  ;; ??onDummy
        CMP      R0,#+0
        BNE      ??CreateGuiList_9
//  587       {
//  588         GUIObject_SoftKeys_SetAction(lo, 0, onDummy);
        MOV      R2,R8
        MOV      R1,#+0
        MOV      R0,R7
        SWI      +331
//  589         GUIObject_SoftKeys_SetText(lo, 0, TextID_Create(lng[REMIND_TYPE],ENC_UCS2,TEXTID_ANY_LEN));
        LDR      R0,[R6, #+100]
        MOV      R2,R4
        MOV      R1,#+0
        SWI      +349
        MOV      R2,R0
        MOV      R1,#+0
        MOV      R0,R7
        SWI      +332
//  590         GUIObject_SoftKeys_SetAction(lo,1,onDType0Press);
        LDR      R2,??CreateGuiList_3+0x2C  ;; ??onDType0Press
        MOV      R1,#+1
        MOV      R0,R7
        SWI      +331
//  591         GUIObject_SoftKeys_SetText(lo,1,TextID_Create(lng[REMIND_DAYS],ENC_UCS2,TEXTID_ANY_LEN));
        LDR      R0,[R6, #+104]
        MOV      R2,R4
        MOV      R1,#+0
        SWI      +349
        MOV      R2,R0
        MOV      R1,#+1
        MOV      R0,R7
        SWI      +332
//  592         
//  593         GUIObject_SoftKeys_SetAction(lo,2,onDType1Press);
        LDR      R2,??CreateGuiList_3+0x30  ;; ??onDType1Press
        MOV      R1,#+2
        MOV      R0,R7
        SWI      +331
//  594         GUIObject_SoftKeys_SetText(lo,2,TextID_Create(lng[REMIND_DATE],ENC_UCS2,TEXTID_ANY_LEN));
        LDR      R0,[R6, #+108]
        MOV      R2,R4
        MOV      R1,#+0
        SWI      +349
        MOV      R2,R0
        MOV      R1,#+2
        MOV      R0,R7
        SWI      +332
//  595         GUIObject_SoftKeys_SetItemAsSubItem(lo, 0, 1);
        MOV      R2,#+1
        MOV      R1,#+0
        MOV      R0,R7
        SWI      +452
//  596         GUIObject_SoftKeys_SetItemAsSubItem(lo, 0, 2);
        MOV      R2,#+2
        MOV      R1,#+0
        MOV      R0,R7
        SWI      +452
//  597       }
//  598       GUIObject_SoftKeys_SetAction(lo, 3, onDummy);
??CreateGuiList_9:
        MOV      R2,R8
        MOV      R1,#+3
        MOV      R0,R7
        SWI      +331
//  599       GUIObject_SoftKeys_SetText(lo, 3, TextID_Create(lng[REMIND_TTYPE],ENC_UCS2,TEXTID_ANY_LEN));
        LDR      R0,[R6, #+112]
        MOV      R2,R4
        MOV      R1,#+0
        SWI      +349
        MOV      R2,R0
        MOV      R1,#+3
        MOV      R0,R7
        SWI      +332
//  600       
//  601       GUIObject_SoftKeys_SetAction(lo,4,onTType0Press);
        LDR      R2,??CreateGuiList_3+0x34  ;; ??onTType0Press
        MOV      R1,#+4
        MOV      R0,R7
        SWI      +331
//  602       GUIObject_SoftKeys_SetText(lo,4,TextID_Create(lng[REMIND_TIME],ENC_UCS2,TEXTID_ANY_LEN));
        LDR      R0,[R6, #+116]
        MOV      R2,R4
        MOV      R1,#+0
        SWI      +349
        MOV      R2,R0
        MOV      R1,#+4
        MOV      R0,R7
        SWI      +332
//  603       
//  604       GUIObject_SoftKeys_SetAction(lo,5,onTType1Press);
        LDR      R2,??CreateGuiList_3+0x38  ;; ??onTType1Press
        MOV      R1,#+5
        MOV      R0,R7
        SWI      +331
//  605       GUIObject_SoftKeys_SetText(lo,5,TextID_Create(lng[REMIND_INTERVAL],ENC_UCS2,TEXTID_ANY_LEN));
        LDR      R0,[R6, #+120]
        MOV      R2,R4
        MOV      R1,#+0
        SWI      +349
        MOV      R2,R0
        MOV      R1,#+5
        MOV      R0,R7
        SWI      +332
//  606       GUIObject_SoftKeys_SetItemAsSubItem(lo, 3, 4);
        MOV      R2,#+4
        MOV      R1,#+3
        MOV      R0,R7
        SWI      +452
//  607       GUIObject_SoftKeys_SetItemAsSubItem(lo, 3, 5);
        MOV      R2,#+5
        MOV      R1,#+3
        MOV      R0,R7
        SWI      +452
//  608       GUIObject_SoftKeys_SetAction(lo,6,onEventClone);
        LDR      R2,??CreateGuiList_3+0x3C  ;; ??onEventClone
        MOV      R1,#+6
        MOV      R0,R7
        SWI      +331
//  609       GUIObject_SoftKeys_SetText(lo,6,TextID_Create(lng[CLONE],ENC_UCS2,TEXTID_ANY_LEN));
        LDR      R0,[R6, #+200]
        MOV      R2,R4
        MOV      R1,#+0
        SWI      +349
        MOV      R2,R0
        MOV      R1,#+6
        MOV      R0,R7
        SWI      +332
//  610       GUIObject_SoftKeys_SetAction(lo, 7, onIndication);
        MOV      R2,R5
        MOV      R1,#+7
        MOV      R0,R7
        SWI      +331
//  611       GUIObject_SoftKeys_SetText(lo,7, TextID_Create(lng[INDICATION],ENC_UCS2,TEXTID_ANY_LEN));
        LDR      R0,[R6, #+208]
        MOV      R2,R4
        MOV      R1,#+0
        SWI      +349
        MOV      R2,R0
        MOV      R1,#+7
??CreateGuiList_8:
        MOV      R0,R7
        SWI      +332
//  612     }
//  613   }
//  614   return(lo);
??CreateGuiList_1:
        MOV      R0,R7
        POP      {R4-R8,PC}       ;; return
        DATA
??CreateGuiList_3:
        DC32     `?<Constant L"\\x4d\\x50\\x5f\\x41\\x55\\x44\\x49\\x4f\\`
        DC32     ??OnAuthor
        DC32     ??onLBMessage
        DC32     ??onLBMessage2
        DC32     ??OnBackGui
        DC32     ACTION_SELECT1
        DC32     ??OnSelect1Gui
        DC32     ??onIndication
        DC32     ACTION_DELETE
        DC32     ??OnDelGui
        DC32     ??onDummy
        DC32     ??onDType0Press
        DC32     ??onDType1Press
        DC32     ??onTType0Press
        DC32     ??onTType1Press
        DC32     ??onEventClone
        CFI EndBlock cfiBlock53
//  615 };

        RSEG CODE:CODE:NOROOT(2)
        DATA
??DataTable22:
        DC32     ??isEvtEditBook

        RSEG CODE:CODE:NOROOT(2)
        DATA
??DataTable23:
        DC32     events

        RSEG CODE:CODE:NOROOT(2)
        DATA
??DataTable24:
        DC32     items

        RSEG CODE:CODE:NOROOT(2)
        DATA
??DataTable25:
        DC32     lng

        RSEG CODE:CODE:NOROOT(2)
        DATA
??DataTable26:
        DC32     ACTION_BACK

        RSEG CODE:CODE:NOROOT(2)
        CFI Block cfiBlock54 Using cfiCommon0
        CFI NoFunction
        THUMB
??create_ed??rT:
        BX       PC
        Nop      
        CFI EndBlock cfiBlock54
        REQUIRE ??create_ed
//  616 

        RSEG CODE:CODE:NOROOT(2)
        CFI Block cfiBlock55 Using cfiCommon1
        CFI Function ??create_ed
        ARM
//  617 GUI_LIST *create_ed(BOOK *book)
//  618 {
??create_ed:
        PUSH     {R4,LR}
        CFI ?RET Frame(CFA, -4)
        CFI R4 Frame(CFA, -8)
        CFI CFA R13+8
        MOV      R4,R0
//  619   MyBOOK *mbk=(MyBOOK *)book;
//  620   mbk->lst=CreateGuiList(book);
        BL       ??CreateGuiList
        STR      R0,[R4, #+32]
//  621   GUIObject_Show(mbk->lst);
        SWI      +308
//  622   return(mbk->lst);
        LDR      R0,[R4, #+32]
        POP      {R4,PC}          ;; return
        CFI EndBlock cfiBlock55
//  623 };

        RSEG CODE:CODE:NOROOT(2)
        CFI Block cfiBlock56 Using cfiCommon0
        CFI NoFunction
        THUMB
??MainPageOnCreate??rT:
        BX       PC
        Nop      
        CFI EndBlock cfiBlock56
        REQUIRE ??MainPageOnCreate
//  624 

        RSEG CODE:CODE:NOROOT(2)
        CFI Block cfiBlock57 Using cfiCommon1
        CFI Function ??MainPageOnCreate
        ARM
//  625 static int MainPageOnCreate(void *, BOOK *bk)
//  626 {
??MainPageOnCreate:
        PUSH     {LR}
        CFI ?RET Frame(CFA, -4)
        CFI CFA R13+4
        MOV      R0,R1
//  627   MyBOOK *mbk=(MyBOOK *)bk;
//  628   create_ed(&mbk->book);
        BL       ??create_ed
//  629   return (1);
        MOV      R0,#+1
        POP      {PC}             ;; return
        CFI EndBlock cfiBlock57
//  630 };

        RSEG CODE:CODE:NOROOT(2)
        CFI Block cfiBlock58 Using cfiCommon0
        CFI NoFunction
        THUMB
??getfilesize??rT:
        BX       PC
        Nop      
        CFI EndBlock cfiBlock58
        REQUIRE ??getfilesize
//  631 

        RSEG DYN_PAGE:CONST:SORT:NOROOT(2)
//  632 const PAGE_MSG bk_msglst_main[] @ "DYN_PAGE"  =
bk_msglst_main:
        DATA
        DC32 66, ??MainPageOnCreate, 64, 0H

        RSEG DATA_C:CONST:SORT:NOROOT(2)
`?<Constant L"\\x25\\x30\\x32\\x64\\x3a\\x25\\x30\\x32\\`:
        DATA
        DC8 25H, 0, 30H, 0, 32H, 0, 64H, 0
        DC8 3AH, 0, 25H, 0, 30H, 0, 32H, 0
        DC8 64H, 0, 3AH, 0, 25H, 0, 30H, 0
        DC8 32H, 0, 64H, 0, 0, 0
        DC8 0, 0
        DC8 25H, 0, 30H, 0, 32H, 0, 64H, 0
        DC8 2EH, 0, 25H, 0, 30H, 0, 32H, 0
        DC8 64H, 0, 2EH, 0, 25H, 0, 30H, 0
        DC8 32H, 0, 64H, 0, 0, 0
        DC8 0, 0
        DC8 25H, 0, 64H, 0, 2FH, 0, 25H, 0
        DC8 64H, 0, 0, 0
        DC8 25H, 0, 73H, 0, 0, 0
        DC8 0, 0
        DC8 4DH, 0, 53H, 0, 47H, 0, 5FH, 0
        DC8 55H, 0, 49H, 0, 5FH, 0, 45H, 0
        DC8 4DH, 0, 50H, 0, 54H, 0, 59H, 0
        DC8 5FH, 0, 4DH, 0, 45H, 0, 53H, 0
        DC8 53H, 0, 41H, 0, 47H, 0, 45H, 0
        DC8 5FH, 0, 54H, 0, 58H, 0, 54H, 0
        DC8 0, 0
        DC8 0, 0

        RSEG DATA_C:CONST:SORT:NOROOT(2)
`?<Constant L"\\x4d\\x50\\x5f\\x41\\x55\\x44\\x49\\x4f\\`:
        DATA
        DC8 4DH, 0, 50H, 0, 5FH, 0, 41H, 0
        DC8 55H, 0, 44H, 0, 49H, 0, 4FH, 0
        DC8 5FH, 0, 4EH, 0, 4FH, 0, 5FH, 0
        DC8 49H, 0, 54H, 0, 45H, 0, 4DH, 0
        DC8 53H, 0, 5FH, 0, 54H, 0, 58H, 0
        DC8 54H, 0, 0, 0
        DC8 4AH, 0, 41H, 0, 56H, 0, 41H, 0
        DC8 5FH, 0, 41H, 0, 50H, 0, 50H, 0
        DC8 5FH, 0, 4EH, 0, 52H, 0, 5FH, 0
        DC8 41H, 0, 42H, 0, 4FH, 0, 55H, 0
        DC8 54H, 0, 0, 0
        DC8 45H, 0, 76H, 0, 65H, 0, 6EH, 0
        DC8 74H, 0, 43H, 0, 6FH, 0, 6EH, 0
        DC8 74H, 0, 72H, 0, 6FH, 0, 6CH, 0
        DC8 20H, 0, 76H, 0, 32H, 0, 2EH, 0
        DC8 30H, 0, 0, 0

        RSEG DATA_C:CONST:SORT:NOROOT(2)
`?<Constant L"\\x2e\\x63\\x66\\x67">`:
        DATA
        DC8 2EH, 0, 63H, 0, 66H, 0, 67H, 0
        DC8 0, 0
        DC8 0, 0
        DC8 65H, 0, 6EH, 0, 2EH, 0, 63H, 0
        DC8 66H, 0, 67H, 0, 0, 0
        DC8 0, 0
        DC8 "EvtEdit"
        DC8 4FH, 0, 46H, 0, 46H, 0, 5FH, 0
        DC8 54H, 0, 58H, 0, 54H, 0, 0, 0
        DC8 4FH, 0, 4EH, 0, 5FH, 0, 54H, 0
        DC8 58H, 0, 54H, 0, 0, 0
        DC8 0, 0
        DC8 48H, 0, 50H, 0, 42H, 0, 5FH, 0
        DC8 53H, 0, 41H, 0, 56H, 0, 45H, 0
        DC8 5FH, 0, 42H, 0, 45H, 0, 46H, 0
        DC8 4FH, 0, 52H, 0, 45H, 0, 5FH, 0
        DC8 45H, 0, 58H, 0, 49H, 0, 54H, 0
        DC8 44H, 0, 5FH, 0, 54H, 0, 58H, 0
        DC8 54H, 0, 0, 0
        DC8 48H, 0, 50H, 0, 42H, 0, 5FH, 0
        DC8 53H, 0, 41H, 0, 56H, 0, 45H, 0
        DC8 5FH, 0, 42H, 0, 45H, 0, 46H, 0
        DC8 4FH, 0, 52H, 0, 45H, 0, 5FH, 0
        DC8 45H, 0, 58H, 0, 49H, 0, 54H, 0
        DC8 51H, 0, 5FH, 0, 54H, 0, 58H, 0
        DC8 54H, 0, 0, 0
        DC32 `?<Constant "EvtEdit_Base_Page">`, 0H, bk_msglst_base
//  633 {
//  634   PAGE_ENTER_EVENT_TAG,    MainPageOnCreate,
//  635   NIL_EVENT_TAG,           NULL
//  636 };
//  637 
//  638 const PAGE_DESC bk_main = {"EvtEdit_Main_Page",0,bk_msglst_main};
bk_main:
        DC32 `?<Constant "EvtEdit_Main_Page">`, 0H, bk_msglst_main

        RSEG DATA_C:CONST:SORT:NOROOT(0)
        DATA
        DC8 "ru"

        RSEG DATA_C:CONST:SORT:NOROOT(2)
`?<Constant "EvtEdit_Base_Page">`:
        DATA
        DC8 "EvtEdit_Base_Page"
        DC8 0, 0

        RSEG DATA_C:CONST:SORT:NOROOT(2)
`?<Constant L"\\x54\\x52\\x5f\\x54\\x49\\x4d\\x45\\x5f\\`:
        DATA
        DC8 54H, 0, 52H, 0, 5FH, 0, 54H, 0
        DC8 49H, 0, 4DH, 0, 45H, 0, 5FH, 0
        DC8 55H, 0, 50H, 0, 44H, 0, 41H, 0
        DC8 54H, 0, 45H, 0, 5FH, 0, 49H, 0
        DC8 43H, 0, 4EH, 0, 0, 0
        DC8 0, 0

        RSEG DATA_C:CONST:SORT:NOROOT(2)
`?<Constant L"\\x43\\x41\\x4c\\x45\\x5f\\x54\\x41\\x53\\`:
        DATA
        DC8 43H, 0, 41H, 0, 4CH, 0, 45H, 0
        DC8 5FH, 0, 54H, 0, 41H, 0, 53H, 0
        DC8 4BH, 0, 5FH, 0, 4DH, 0, 49H, 0
        DC8 53H, 0, 43H, 0, 5FH, 0, 49H, 0
        DC8 43H, 0, 4EH, 0, 0, 0
        DC8 0, 0

        RSEG DATA_C:CONST:SORT:NOROOT(2)
`?<Constant L"\\x54\\x49\\x4d\\x45\\x52\\x5f\\x41\\x43\\`:
        DATA
        DC8 54H, 0, 49H, 0, 4DH, 0, 45H, 0
        DC8 52H, 0, 5FH, 0, 41H, 0, 43H, 0
        DC8 54H, 0, 49H, 0, 56H, 0, 45H, 0
        DC8 5FH, 0, 49H, 0, 43H, 0, 4EH, 0
        DC8 0, 0
        DC8 0, 0

        RSEG DATA_C:CONST:SORT:NOROOT(2)
`?<Constant L"\\x54\\x52\\x5f\\x41\\x4c\\x41\\x52\\x4d\\`:
        DATA
        DC8 54H, 0, 52H, 0, 5FH, 0, 41H, 0
        DC8 4CH, 0, 41H, 0, 52H, 0, 4DH, 0
        DC8 53H, 0, 5FH, 0, 4DH, 0, 45H, 0
        DC8 4EH, 0, 55H, 0, 5FH, 0, 49H, 0
        DC8 43H, 0, 4EH, 0, 0, 0
        DC8 0, 0

        RSEG DATA_C:CONST:SORT:NOROOT(2)
`?<Constant L"\\x52\\x4e\\x5f\\x55\\x52\\x4c\\x5f\\x4f\\`:
        DATA
        DC8 52H, 0, 4EH, 0, 5FH, 0, 55H, 0
        DC8 52H, 0, 4CH, 0, 5FH, 0, 4FH, 0
        DC8 50H, 0, 45H, 0, 52H, 0, 41H, 0
        DC8 54H, 0, 4FH, 0, 52H, 0, 5FH, 0
        DC8 49H, 0, 43H, 0, 4EH, 0, 0, 0

        RSEG DATA_C:CONST:SORT:NOROOT(2)
`?<Constant "EvtEdit_Main_Page">`:
        DATA
        DC8 "EvtEdit_Main_Page"
        DC8 0, 0

        RSEG DATA_C:CONST:SORT:NOROOT(2)
`?<Constant L"\\xa\\x45\\x76\\x74\\x45\\x64\\x69\\x74\\x`:
        DATA
        DC8 0AH, 0, 45H, 0, 76H, 0, 74H, 0
        DC8 45H, 0, 64H, 0, 69H, 0, 74H, 0
        DC8 20H, 0, 76H, 0, 31H, 0, 2EH, 0
        DC8 30H, 0, 0AH, 0, 28H, 0, 63H, 0
        DC8 29H, 0, 20H, 0, 55H, 0, 6CH, 0
        DC8 74H, 0, 72H, 0, 61H, 0, 53H, 0
        DC8 68H, 0, 6FH, 0, 74H, 0, 0AH, 0
        DC8 25H, 0, 73H, 0, 0, 0
        DC8 0, 0
        DC8 "public version"
        DC8 0

        RSEG DATA_C:CONST:SORT:NOROOT(2)
`?<Constant L"\\x43\\x41\\x4c\\x45\\x5f\\x43\\x41\\x4c\\`:
        DATA
        DC8 43H, 0, 41H, 0, 4CH, 0, 45H, 0
        DC8 5FH, 0, 43H, 0, 41H, 0, 4CH, 0
        DC8 45H, 0, 4EH, 0, 44H, 0, 41H, 0
        DC8 52H, 0, 5FH, 0, 4DH, 0, 45H, 0
        DC8 4EH, 0, 55H, 0, 5FH, 0, 49H, 0
        DC8 43H, 0, 4EH, 0, 0, 0
        DC8 0, 0
        DC8 52H, 0, 4EH, 0, 5FH, 0, 53H, 0
        DC8 48H, 0, 4FH, 0, 52H, 0, 54H, 0
        DC8 43H, 0, 55H, 0, 54H, 0, 5FH, 0
        DC8 4CH, 0, 49H, 0, 53H, 0, 54H, 0
        DC8 5FH, 0, 53H, 0, 45H, 0, 54H, 0
        DC8 54H, 0, 49H, 0, 4EH, 0, 47H, 0
        DC8 53H, 0, 5FH, 0, 49H, 0, 43H, 0
        DC8 4EH, 0, 0, 0

        RSEG DATA_C:CONST:SORT:NOROOT(1)
        DATA
        DC8 0, 0

        RSEG DATA_C:CONST:SORT:NOROOT(2)
        DATA
        DC8 2AH, 0, 0, 0

        RSEG DATA_C:CONST:SORT:NOROOT(2)
        DATA
        DC8 0B0H, 0, 0, 0

        RSEG DATA_C:CONST:SORT:NOROOT(2)
`?<Constant "EventControl">`:
        DATA
        DC8 "EventControl"
        DC8 0, 0, 0
//  639 

        RSEG CODE:CODE:NOROOT(2)
        CFI Block cfiBlock59 Using cfiCommon1
        CFI Function ??getfilesize
        ARM
//  640 void getfilesize(wchar_t *elfpath)
//  641 {
??getfilesize:
        PUSH     {R4,LR}
        CFI ?RET Frame(CFA, -4)
        CFI R4 Frame(CFA, -8)
        CFI CFA R13+8
        SUB      SP,SP,#+28
        CFI CFA R13+36
        SUB      SP,SP,#+2048
        CFI CFA R13+2084
        MOV      R4,R0
//  642   wchar_t path[512];
//  643   wchar_t name[512];
//  644   wstrcpy(path,elfpath);
        MOV      R1,R4
        MOV      R0,SP
        SWI      +338
//  645   *(wstrrchr(path,L'/'))=0;
        MOV      R1,#+47
        MOV      R0,SP
        SWI      +430
        MOV      R1,#+0
        STRH     R1,[R0, #+0]
//  646   wstrcpy(name,wstrrchr(elfpath,L'/'));
        MOV      R1,#+47
        MOV      R0,R4
        SWI      +430
        MOV      R1,R0
        ADD      R0,SP,#+1024
        SWI      +338
//  647   wchar_t *name2=name;
//  648   name2++;
//  649   FSTAT fst;
//  650   if (fstat(path,name2,&fst)==0)
        ADD      R2,SP,#+2048
        ADD      R1,SP,#+2
        ADD      R1,R1,#+1024
        MOV      R0,SP
        SWI      +284
        CMP      R0,#+0
//  651   {
//  652     fsize=fst.fsize;
        LDREQ    R0,??getfilesize_1  ;; fsize
        LDREQ    R1,[SP, #+2056]
        STREQ    R1,[R0, #+0]
//  653   }
//  654 };
        ADD      SP,SP,#+28
        CFI CFA R13+2056
        ADD      SP,SP,#+2048
        CFI CFA R13+8
        POP      {R4,PC}          ;; return
        DATA
??getfilesize_1:
        DC32     fsize
        CFI EndBlock cfiBlock59

        RSEG CODE:CODE:NOROOT(2)
        CFI Block cfiBlock60 Using cfiCommon0
        CFI NoFunction
        THUMB
??main??rT:
        BX       PC
        Nop      
        CFI EndBlock cfiBlock60
        REQUIRE main
//  655 

        RSEG CODE:CODE:NOROOT(2)
        CFI Block cfiBlock61 Using cfiCommon1
        CFI Function main
        ARM
//  656 int main(wchar_t *elfpath, wchar_t *path, wchar_t *fname)
//  657 {
main:
        PUSH     {R4-R9,LR}
        CFI ?RET Frame(CFA, -4)
        CFI R9 Frame(CFA, -8)
        CFI R8 Frame(CFA, -12)
        CFI R7 Frame(CFA, -16)
        CFI R6 Frame(CFA, -20)
        CFI R5 Frame(CFA, -24)
        CFI R4 Frame(CFA, -28)
        CFI CFA R13+28
        SUB      SP,SP,#+104
        CFI CFA R13+132
//  658   trace_init();
//  659   InitializeFolders();
//  660   getfilesize(elfpath);
//  661   wchar_t str[50];
//  662   char *st=lang_get_name(get_system_langID());
//  663   str2wstr(str,st);
//  664   wstrcat(str,L".cfg");
//  665   if (lng_load(extFolder, str))
        LDR      R8,??DataTable27  ;; extFolder
        MOV      R6,R0
        MOV      R4,R1
        LDR      R7,??DataTable28  ;; intFolder
        MOV      R5,R2
        _BLF     ??InitializeFolders,??InitializeFolders??rA
        MOV      R0,R6
        LDR      R6,??main_0+0x4  ;; `?<Constant L"\\x2e\\x63\\x66\\x67">`
        BL       ??getfilesize
        SWI      +757
        SWI      +758
        MOV      R9,R0
        MOV      R1,R9
        ADD      R0,SP,#+4
        SWI      +344
        MOV      R1,R6
        ADD      R0,SP,#+4
        SWI      +340
        LDR      R0,[R8, #+0]
        ADD      R1,SP,#+4
        _BLF     ??lng_load,??lng_load??rA
        CMP      R0,#+0
        BEQ      ??main_1
//  666   {
//  667     if (lng_load(intFolder, str))
        LDR      R0,[R7, #+0]
        ADD      R1,SP,#+4
        _BLF     ??lng_load,??lng_load??rA
        CMP      R0,#+0
        BEQ      ??main_1
//  668     {
//  669       if (strcmp(st,"ru"))
        ADR      R1,??main_0      ;; "ru"
        MOV      R0,R9
        SWI      +345
        CMP      R0,#+0
        BEQ      ??main_1
//  670       {
//  671         if (lng_load(extFolder, L"en.cfg"))
        LDR      R0,[R8, #+0]
        ADD      R1,R6,#+12
        _BLF     ??lng_load,??lng_load??rA
        CMP      R0,#+0
        BEQ      ??main_1
//  672         {
//  673           lng_load(intFolder, L"en.cfg");
        LDR      R0,[R7, #+0]
        ADD      R1,R6,#+12
        _BLF     ??lng_load,??lng_load??rA
//  674         }
//  675       }
//  676     }
//  677   }
//  678   if (path&&fname)
??main_1:
        LDR      R9,??main_0+0x8  ;; myBook
        CMP      R4,#+0
        CMPNE    R5,#+0
        BEQ      ??main_2
//  679   {
//  680     defPath=new wchar_t[wstrlen(path)+1];
        MOV      R0,R4
        SWI      +343
        ADD      R0,R0,#+1
        LSL      R0,R0,#+1
        _BLF     `??operator new[]`,`??operator new[]??rA`
        STR      R0,[R9, #+4]
//  681     wstrcpy(defPath,path);
        MOV      R1,R4
        SWI      +338
//  682     defName=new wchar_t[wstrlen(fname)+1];
        MOV      R0,R5
        SWI      +343
        ADD      R0,R0,#+1
        LSL      R0,R0,#+1
        _BLF     `??operator new[]`,`??operator new[]??rA`
        STR      R0,[R9, #+8]
//  683     wstrcpy(defName,fname);
        MOV      R1,R5
        SWI      +338
//  684   }
//  685   myBook=new MyBOOK;
??main_2:
        MOV      R0,#+200
        _BLF     `??operator new`,`??operator new??rA`
        STR      R0,[R9, #+0]
//  686   memset(myBook,0,sizeof(MyBOOK));
        MOV      R2,#+200
        MOV      R1,#+0
        SWI      +274
//  687   if (!CreateBook(&myBook->book,onMyBookClose,&bk_base,"EvtEdit",-1,0))
        LDR      R1,??DataTable29  ;; ??onMyBookClose
        MOV      R0,#+0
        PUSH     {R0}
        CFI CFA R13+136
        ADD      R3,R6,#+28
        ADD      R2,R6,#+172
        MVN      R0,R0
        PUSH     {R0}
        CFI CFA R13+140
        LDR      R0,[R9, #+0]
        SWI      +299
        CMP      R0,#+0
        ADD      SP,SP,#+8
        CFI CFA R13+132
        BNE      ??main_3
//  688   {
//  689     delete myBook;
        LDR      R0,[R9, #+0]
        _BLF     `??operator delete`,`??operator delete??rA`
//  690     destroy_innative_lng();
        _BLF     ??destroy_innative_lng,??destroy_innative_lng??rA
//  691     delete(intFolder);
        LDR      R0,[R7, #+0]
        _BLF     `??operator delete`,`??operator delete??rA`
//  692     delete(extFolder);
        LDR      R0,[R8, #+0]
        _BLF     `??operator delete`,`??operator delete??rA`
//  693     SUBPROC(elf_exit);
        LDR      R0,??DataTable30  ;; ??elf_exit
        SWI      +264
//  694     return (0);
        MOV      R0,#+0
        ADD      SP,SP,#+104
        CFI CFA R13+28
        POP      {R4-R9,PC}
        CFI CFA R13+132
//  695   }
//  696   int text_id;
//  697   textidname2id(IDN_CHECKBOX_UNCHECKED_ICON,-1,&text_id);
??main_3:
        MOV      R2,SP
        MVN      R1,#+0
        ADD      R0,R6,#+36
        SWI      +647
//  698   myBook->check_box_unchecked=text_id;
        LDR      R0,[R9, #+0]
        LDR      R1,[SP, #+0]
//  699   textidname2id(IDN_CHECKBOX_CHECKED_ICON,-1,&text_id);
        MOV      R2,SP
        STRH     R1,[R0, #+164]
        MVN      R1,#+0
        ADD      R0,R6,#+52
        SWI      +647
//  700   myBook->check_box_checked=text_id;
        LDR      R0,[R9, #+0]
        LDR      R1,[SP, #+0]
        STRH     R1,[R0, #+166]
//  701   textidname2id(IDN_CHANGES_HAVE_BEEN_MADE,-1,&myBook->changes_have_been_made);
        LDR      R0,[R9, #+0]
        MVN      R1,#+0
        ADD      R2,R0,#+168
        ADD      R0,R6,#+68
        SWI      +647
//  702   textidname2id(IDN_SAVE_BEFORE_EXIT,-1,&myBook->save_before_exit);
        LDR      R0,[R9, #+0]
        MVN      R1,#+0
        ADD      R2,R0,#+172
        ADD      R0,R6,#+120
        SWI      +647
//  703   InitializeEvents(&myBook->book, path, fname);
        LDR      R0,[R9, #+0]
        MOV      R2,R5
        MOV      R1,R4
        _BLF     ??InitializeEvents,??InitializeEvents??rA
//  704   BookObj_GotoPage(&myBook->book,&bk_main);
        LDR      R0,[R9, #+0]
        ADD      R1,R6,#+184
        SWI      +301
//  705   return 0;
        MOV      R0,#+0
        ADD      SP,SP,#+104
        CFI CFA R13+28
        POP      {R4-R9,PC}       ;; return
        DATA
??main_0:
        DC8      "ru",+0
        DC32     `?<Constant L"\\x2e\\x63\\x66\\x67">`
        DC32     myBook
        CFI EndBlock cfiBlock61
//  706 };

        RSEG CODE:CODE:NOROOT(2)
        DATA
??DataTable27:
        DC32     extFolder

        RSEG CODE:CODE:NOROOT(2)
        DATA
??DataTable28:
        DC32     intFolder

        RSEG CODE:CODE:NOROOT(2)
        DATA
??DataTable29:
        DC32     ??onMyBookClose

        RSEG CODE:CODE:NOROOT(2)
        DATA
??DataTable30:
        DC32     ??elf_exit

        RSEG CODE:CODE:NOROOT(2)
        CFI Block cfiBlock62 Using cfiCommon1
        CFI NoFunction
        ARM
??kill_data??rA:
        LDR      R12,??Subroutine31_0  ;; kill_data
        BX       R12
        DATA
??Subroutine31_0:
        DC32     kill_data
        CFI EndBlock cfiBlock62

        RSEG CODE:CODE:NOROOT(2)
        CFI Block cfiBlock63 Using cfiCommon1
        CFI NoFunction
        ARM
??destroy_innative_lng??rA:
        LDR      R12,??Subroutine32_0  ;; ??destroy_innative_lng
        BX       R12
        DATA
??Subroutine32_0:
        DC32     ??destroy_innative_lng
        CFI EndBlock cfiBlock63

        RSEG CODE:CODE:NOROOT(2)
        CFI Block cfiBlock64 Using cfiCommon1
        CFI NoFunction
        ARM
`??operator delete??rA`:
        LDR      R12,??Subroutine33_0  ;; `??operator delete`
        BX       R12
        DATA
??Subroutine33_0:
        DC32     `??operator delete`
        CFI EndBlock cfiBlock64

        RSEG CODE:CODE:NOROOT(2)
        CFI Block cfiBlock65 Using cfiCommon1
        CFI NoFunction
        ARM
??DestroyEvents??rA:
        LDR      R12,??Subroutine34_0  ;; ??DestroyEvents
        BX       R12
        DATA
??Subroutine34_0:
        DC32     ??DestroyEvents
        CFI EndBlock cfiBlock65

        RSEG CODE:CODE:NOROOT(2)
        CFI Block cfiBlock66 Using cfiCommon1
        CFI NoFunction
        ARM
`??operator new??rA`:
        LDR      R12,??Subroutine35_0  ;; `??operator new`
        BX       R12
        DATA
??Subroutine35_0:
        DC32     `??operator new`
        CFI EndBlock cfiBlock66

        RSEG CODE:CODE:NOROOT(2)
        CFI Block cfiBlock67 Using cfiCommon1
        CFI NoFunction
        ARM
??InitializeFolders??rA:
        LDR      R12,??Subroutine36_0  ;; ??InitializeFolders
        BX       R12
        DATA
??Subroutine36_0:
        DC32     ??InitializeFolders
        CFI EndBlock cfiBlock67

        RSEG CODE:CODE:NOROOT(2)
        CFI Block cfiBlock68 Using cfiCommon1
        CFI NoFunction
        ARM
??lng_load??rA:
        LDR      R12,??Subroutine37_0  ;; ??lng_load
        BX       R12
        DATA
??Subroutine37_0:
        DC32     ??lng_load
        CFI EndBlock cfiBlock68

        RSEG CODE:CODE:NOROOT(2)
        CFI Block cfiBlock69 Using cfiCommon1
        CFI NoFunction
        ARM
`??operator new[]??rA`:
        LDR      R12,??Subroutine38_0  ;; `??operator new[]`
        BX       R12
        DATA
??Subroutine38_0:
        DC32     `??operator new[]`
        CFI EndBlock cfiBlock69

        RSEG CODE:CODE:NOROOT(2)
        CFI Block cfiBlock70 Using cfiCommon1
        CFI NoFunction
        ARM
??InitializeEvents??rA:
        LDR      R12,??Subroutine39_0  ;; ??InitializeEvents
        BX       R12
        DATA
??Subroutine39_0:
        DC32     ??InitializeEvents
        CFI EndBlock cfiBlock70

        RSEG DATA_ID:CONST:SORT:NOROOT(2)
`?<Initializer for iticons>`:
        DATA
        DC32 `?<Constant L"\\x54\\x52\\x5f\\x54\\x49\\x4d\\x45\\x5f\\`
        DC32 `?<Constant L"\\x54\\x52\\x5f\\x54\\x49\\x4d\\x45\\x5f\\`
        DC32 `?<Constant L"\\x43\\x41\\x4c\\x45\\x5f\\x54\\x41\\x53\\`
        DC32 `?<Constant L"\\x54\\x49\\x4d\\x45\\x52\\x5f\\x41\\x43\\`
        DC32 `?<Constant L"\\x54\\x49\\x4d\\x45\\x52\\x5f\\x41\\x43\\`
        DC32 `?<Constant L"\\x54\\x49\\x4d\\x45\\x52\\x5f\\x41\\x43\\`
        DC32 `?<Constant L"\\x43\\x41\\x4c\\x45\\x5f\\x54\\x41\\x53\\`
        DC32 `?<Constant L"\\x54\\x52\\x5f\\x41\\x4c\\x41\\x52\\x4d\\`
        DC32 `?<Constant L"\\x52\\x4e\\x5f\\x55\\x52\\x4c\\x5f\\x4f\\`

        RSEG DATA_ID:CONST:SORT:NOROOT(2)
`?*?DATA_ID`:

        RSEG INITTAB:CODE:ROOT(2)
        DATA
?init?tab?DATA_I:
        DCD      sfe(DATA_I) - sfb(DATA_I), sfb(DATA_I), sfb(DATA_ID)

        RSEG INITTAB:CODE:ROOT(2)
        DATA
?init?tab?DATA_Z:
        DCD      sfe(DATA_Z) - sfb(DATA_Z), sfb(DATA_Z), sfb(DATA_Z)

        END
// 
// 5 244 bytes in segment CODE
//   901 bytes in segment DATA_C
//    36 bytes in segment DATA_I
//    36 bytes in segment DATA_ID
//   140 bytes in segment DATA_Z
//    40 bytes in segment DYN_PAGE
//    24 bytes in segment INITTAB
// 
// 5 012 bytes of CODE  memory (+ 256 bytes shared)
//   977 bytes of CONST memory
//   176 bytes of DATA  memory
//
//Errors: none
//Warnings: none
