##############################################################################
#                                                                            #
# IAR ARM ANSI C/C++ Compiler V4.42A/W32 EVALUATION    10/Jun/2013  22:55:08 #
# Copyright 1999-2005 IAR Systems. All rights reserved.                      #
#                                                                            #
#    Cpu mode        =  interwork                                            #
#    Endian          =  little                                               #
#    Stack alignment =  4                                                    #
#    Source file     =  Z:\home\perk11\www\perk11.info\svn\SE\EvtEdit\Select #
#                       File.c                                               #
#    Command line    =  Z:\home\perk11\www\perk11.info\svn\SE\EvtEdit\Select #
#                       File.c -D NDEBUG -D OLDFUNCTIONS -lC                 #
#                       Z:\home\perk11\www\perk11.info\svn\SE\EvtEdit\Releas #
#                       e\List\ -lA Z:\home\perk11\www\perk11.info\svn\SE\Ev #
#                       tEdit\Release\List\ -o Z:\home\perk11\www\perk11.inf #
#                       o\svn\SE\EvtEdit\Release\Obj\ -s9 --cpu_mode arm     #
#                       --endian little --cpu ARM926EJ-S --stack_align 4     #
#                       --interwork -e --enable_multibytes --fpu None        #
#                       --eec++ --dlib_config Z:\home\perk11\IAR2\arm\LIB\dl #
#                       5tpainl8n.h -I Z:\home\perk11\IAR2\arm\INC\          #
#                       --inline_threshold=2                                 #
#    List file       =  Z:\home\perk11\www\perk11.info\svn\SE\EvtEdit\Releas #
#                       e\List\SelectFile.lst                                #
#    Object file     =  Z:\home\perk11\www\perk11.info\svn\SE\EvtEdit\Releas #
#                       e\Obj\SelectFile.r79                                 #
#                                                                            #
#                                                                            #
##############################################################################

Z:\home\perk11\www\perk11.info\svn\SE\EvtEdit\SelectFile.c
      1          #include "..\deleaker\mem2.h"
      2          #include "..\include\Lib_Clara.h" 
      3          #include "..\include\Dir.h" 
      4          #include "header\structs.h"
      5          #include "header\pages.h"
      6          #include "header\externals.h"
      7          
      8          #define MUSIC 1
      9          #define ELF 2
     10          #define IMAGE 3
     11          #define EVT 4
     12          #define THM 5
     13          int onPrevious_MainMenu_DB(void *data, BOOK * book);
     14          int onCancel_MainMenu_DB(void *data, BOOK * book);
     15          int isEvtEditBook(BOOK * struc);
     16          void kickbadsymbols(wchar_t *string, int len);
     17          

   \                                 In segment CODE, align 4, keep-with-next
     18          int isSupportable(wchar_t const *fpath, wchar_t const *fname, int type)
     19          {
   \                     ??isSupportable:
   \   00000000   30402DE9           PUSH     {R4,R5,LR}
     20            if (type==MUSIC)
   \   00000004   B4519FE5           LDR      R5,??isSupportable_1  ;; `?<Constant L"\\x6d\\x70\\x33">`
   \   00000008   0140A0E1           MOV      R4,R1
   \   0000000C   010052E3           CMP      R2,#+1
   \   00000010   1A00001A           BNE      ??isSupportable_2
     21            {
     22              if (wstrcmpni(L"m4a",&fname[wstrlen(fname)-3],3)==0)
   \   00000014   0400A0E1           MOV      R0,R4
   \   00000018   570100EF           SWI      +343
   \   0000001C   0320A0E3           MOV      R2,#+3
   \   00000020   800084E0           ADD      R0,R4,R0, LSL #+1
   \   00000024   061040E2           SUB      R1,R0,#+6
   \   00000028   100085E2           ADD      R0,R5,#+16
   \   0000002C   9A0200EF           SWI      +666
   \   00000030   000050E3           CMP      R0,#+0
   \   00000034   0100001A           BNE      ??isSupportable_3
     23              {
     24                return 1;
   \                     ??isSupportable_4:
   \   00000038   0100A0E3           MOV      R0,#+1
   \   0000003C   3080BDE8           POP      {R4,R5,PC}
     25              }
     26              else if (wstrcmpni(L"wma",&fname[wstrlen(fname)-3],3)==0)
   \                     ??isSupportable_3:
   \   00000040   0400A0E1           MOV      R0,R4
   \   00000044   570100EF           SWI      +343
   \   00000048   0320A0E3           MOV      R2,#+3
   \   0000004C   800084E0           ADD      R0,R4,R0, LSL #+1
   \   00000050   061040E2           SUB      R1,R0,#+6
   \   00000054   080085E2           ADD      R0,R5,#+8
   \   00000058   9A0200EF           SWI      +666
   \   0000005C   000050E3           CMP      R0,#+0
   \   00000060   F4FFFF0A           BEQ      ??isSupportable_4
     27              {
     28                return 1;
     29              }
     30              else if (wstrcmpni(L"mp3",&fname[wstrlen(fname)-3],3)==0)
   \   00000064   0400A0E1           MOV      R0,R4
   \   00000068   570100EF           SWI      +343
   \   0000006C   0320A0E3           MOV      R2,#+3
   \   00000070   800084E0           ADD      R0,R4,R0, LSL #+1
   \   00000074   061040E2           SUB      R1,R0,#+6
   \   00000078   0500A0E1           MOV      R0,R5
   \                     ??isSupportable_5:
   \   0000007C   3D0000EA           B        ??isSupportable_6
     31              {
     32                return 1;
     33              }
     34            }
     35            else if (type==ELF)
   \                     ??isSupportable_2:
   \   00000080   020052E3           CMP      R2,#+2
   \   00000084   0600001A           BNE      ??isSupportable_7
     36            {
     37              if (wstrcmpni(L"elf",&fname[wstrlen(fname)-3],3)==0)
   \   00000088   0400A0E1           MOV      R0,R4
   \   0000008C   570100EF           SWI      +343
   \   00000090   0320A0E3           MOV      R2,#+3
   \   00000094   800084E0           ADD      R0,R4,R0, LSL #+1
   \   00000098   061040E2           SUB      R1,R0,#+6
   \   0000009C   180085E2           ADD      R0,R5,#+24
   \   000000A0   340000EA           B        ??isSupportable_6
     38              {
     39                return 1;
     40              }
     41            }
     42            else if (type==IMAGE)
   \                     ??isSupportable_7:
   \   000000A4   030052E3           CMP      R2,#+3
   \   000000A8   2A00001A           BNE      ??isSupportable_8
     43            {
     44              if (wstrcmpni(L"png",&fname[wstrlen(fname)-3],3)==0)
   \   000000AC   0400A0E1           MOV      R0,R4
   \   000000B0   570100EF           SWI      +343
   \   000000B4   0320A0E3           MOV      R2,#+3
   \   000000B8   800084E0           ADD      R0,R4,R0, LSL #+1
   \   000000BC   061040E2           SUB      R1,R0,#+6
   \   000000C0   440085E2           ADD      R0,R5,#+68
   \   000000C4   9A0200EF           SWI      +666
   \   000000C8   000050E3           CMP      R0,#+0
   \   000000CC   D9FFFF0A           BEQ      ??isSupportable_4
     45              {
     46                return 1;
     47              }
     48              else if (wstrcmpni(L"gif",&fname[wstrlen(fname)-3],3)==0)
   \   000000D0   0400A0E1           MOV      R0,R4
   \   000000D4   570100EF           SWI      +343
   \   000000D8   0320A0E3           MOV      R2,#+3
   \   000000DC   800084E0           ADD      R0,R4,R0, LSL #+1
   \   000000E0   061040E2           SUB      R1,R0,#+6
   \   000000E4   3C0085E2           ADD      R0,R5,#+60
   \   000000E8   9A0200EF           SWI      +666
   \   000000EC   000050E3           CMP      R0,#+0
   \   000000F0   D0FFFF0A           BEQ      ??isSupportable_4
     49              {
     50                return 1;
     51              }
     52              else if (wstrcmpni(L"bmp",&fname[wstrlen(fname)-3],3)==0)
   \   000000F4   0400A0E1           MOV      R0,R4
   \   000000F8   570100EF           SWI      +343
   \   000000FC   0320A0E3           MOV      R2,#+3
   \   00000100   800084E0           ADD      R0,R4,R0, LSL #+1
   \   00000104   061040E2           SUB      R1,R0,#+6
   \   00000108   340085E2           ADD      R0,R5,#+52
   \   0000010C   9A0200EF           SWI      +666
   \   00000110   000050E3           CMP      R0,#+0
   \   00000114   C7FFFF0A           BEQ      ??isSupportable_4
     53              {
     54                return 1;
     55              }
     56              else if (wstrcmpni(L"jpg",&fname[wstrlen(fname)-3],3)==0)
   \   00000118   0400A0E1           MOV      R0,R4
   \   0000011C   570100EF           SWI      +343
   \   00000120   0320A0E3           MOV      R2,#+3
   \   00000124   800084E0           ADD      R0,R4,R0, LSL #+1
   \   00000128   061040E2           SUB      R1,R0,#+6
   \   0000012C   2C0085E2           ADD      R0,R5,#+44
   \   00000130   9A0200EF           SWI      +666
   \   00000134   000050E3           CMP      R0,#+0
   \   00000138   BEFFFF0A           BEQ      ??isSupportable_4
     57              {
     58                return 1;
     59              }
     60              else if (wstrcmpni(L"jpeg",&fname[wstrlen(fname)-4],4)==0)
   \   0000013C   0400A0E1           MOV      R0,R4
   \   00000140   570100EF           SWI      +343
   \   00000144   0420A0E3           MOV      R2,#+4
   \   00000148   800084E0           ADD      R0,R4,R0, LSL #+1
   \   0000014C   081040E2           SUB      R1,R0,#+8
   \   00000150   200085E2           ADD      R0,R5,#+32
   \   00000154   070000EA           B        ??isSupportable_6
     61              {
     62                return 1;
     63              }
     64            }
     65            else if (type==EVT)
   \                     ??isSupportable_8:
   \   00000158   040052E3           CMP      R2,#+4
   \   0000015C   0A00001A           BNE      ??isSupportable_9
     66            {
     67              if (wstrcmpni(L"evt",&fname[wstrlen(fname)-3],3)==0)
   \   00000160   0400A0E1           MOV      R0,R4
   \   00000164   570100EF           SWI      +343
   \   00000168   0320A0E3           MOV      R2,#+3
   \   0000016C   800084E0           ADD      R0,R4,R0, LSL #+1
   \   00000170   061040E2           SUB      R1,R0,#+6
   \   00000174   4C0085E2           ADD      R0,R5,#+76
   \                     ??isSupportable_6:
   \   00000178   9A0200EF           SWI      +666
   \   0000017C   000050E3           CMP      R0,#+0
   \   00000180   0C00001A           BNE      ??isSupportable_10
   \   00000184   0100A0E3           MOV      R0,#+1
   \   00000188   3080BDE8           POP      {R4,R5,PC}
     68              {
     69                return 1;
     70              }
     71            }
     72            else if (type==THM)
   \                     ??isSupportable_9:
   \   0000018C   050052E3           CMP      R2,#+5
   \   00000190   0800001A           BNE      ??isSupportable_10
     73            {
     74              if (wstrcmpni(L"thm",&fname[wstrlen(fname)-3],3)==0)
   \   00000194   0400A0E1           MOV      R0,R4
   \   00000198   570100EF           SWI      +343
   \   0000019C   0320A0E3           MOV      R2,#+3
   \   000001A0   800084E0           ADD      R0,R4,R0, LSL #+1
   \   000001A4   061040E2           SUB      R1,R0,#+6
   \   000001A8   540085E2           ADD      R0,R5,#+84
   \   000001AC   9A0200EF           SWI      +666
   \   000001B0   000050E3           CMP      R0,#+0
   \   000001B4   9FFFFF0A           BEQ      ??isSupportable_4
     75              {
     76                return 1;
     77              }
     78            }
     79            return 0;
   \                     ??isSupportable_10:
   \   000001B8   0000A0E3           MOV      R0,#+0
   \   000001BC   3080BDE8           POP      {R4,R5,PC}       ;; return
   \                     ??isSupportable_1:
   \   000001C0   ........           DC32     `?<Constant L"\\x6d\\x70\\x33">`
     80          };
     81          

   \                                 In segment CODE, align 4, keep-with-next
     82          int DB_Filter(const wchar_t * ext_table,const wchar_t * path ,const wchar_t * name)
     83          {
     84            MyBOOK *mbk=(MyBOOK*)FindBook(isEvtEditBook);
   \                     ??DB_Filter:
   \   00000000   ........           LDR      R0,??DataTable1  ;; ??isEvtEditBook
   \   00000004   30402DE9           PUSH     {R4,R5,LR}
   \   00000008   1CD04DE2           SUB      SP,SP,#+28
   \   0000000C   0140A0E1           MOV      R4,R1
   \   00000010   0250A0E1           MOV      R5,R2
   \   00000014   300100EF           SWI      +304
     85            if (isSupportable(path,name,mbk->fType)) return 1;
   \   00000018   7C2090E5           LDR      R2,[R0, #+124]
   \   0000001C   0510A0E1           MOV      R1,R5
   \   00000020   0400A0E1           MOV      R0,R4
   \   00000024   ........           BL       ??isSupportable
   \   00000028   000050E3           CMP      R0,#+0
   \   0000002C   0200000A           BEQ      ??DB_Filter_1
   \                     ??DB_Filter_2:
   \   00000030   0100A0E3           MOV      R0,#+1
   \   00000034   1CD08DE2           ADD      SP,SP,#+28
   \   00000038   3080BDE8           POP      {R4,R5,PC}
     86            FSTAT _fstat;
     87            fstat(path,name,&_fstat);
   \                     ??DB_Filter_1:
   \   0000003C   0D20A0E1           MOV      R2,SP
   \   00000040   0510A0E1           MOV      R1,R5
   \   00000044   0400A0E1           MOV      R0,R4
   \   00000048   1C0100EF           SWI      +284
     88            if ((_fstat.st_mode&FSX_S_IFDIR)) return(1);
   \   0000004C   04009DE5           LDR      R0,[SP, #+4]
   \   00000050   400B10E3           TST      R0,#0x10000
   \   00000054   F5FFFF1A           BNE      ??DB_Filter_2
     89            return(0);
   \   00000058   0000A0E3           MOV      R0,#+0
   \   0000005C   1CD08DE2           ADD      SP,SP,#+28
   \   00000060   3080BDE8           POP      {R4,R5,PC}       ;; return
     90          };
     91          

   \                                 In segment CODE, align 4, keep-with-next
     92          int onAccept_DB(void * data, BOOK * book)
     93          {
   \                     ??onAccept_DB:
   \   00000000   F0402DE9           PUSH     {R4-R7,LR}
   \   00000004   0140A0E1           MOV      R4,R1
   \   00000008   0060A0E1           MOV      R6,R0
     94            wchar_t *full=new wchar_t[wstrlen( FILEITEM_GetPath((FILEITEM*)data) )+1+wstrlen( FILEITEM_GetFname((FILEITEM*)data) )+1];
     95            wstrcpy(full, FILEITEM_GetPath((FILEITEM*)data) );
     96            wstrcat(full,L"/");
     97            wstrcat(full, FILEITEM_GetFname((FILEITEM*)data) );
     98            MyBOOK *mbk=(MyBOOK*)book;
     99            kickbadsymbols(full,wstrlen(full));
    100            if (mbk->selectfiletype==2)
   \   0000000C   0070A0E3           MOV      R7,#+0
   \   00000010   D30200EF           SWI      +723
   \   00000014   570100EF           SWI      +343
   \   00000018   0050A0E1           MOV      R5,R0
   \   0000001C   0600A0E1           MOV      R0,R6
   \   00000020   D20200EF           SWI      +722
   \   00000024   570100EF           SWI      +343
   \   00000028   050080E0           ADD      R0,R0,R5
   \   0000002C   020080E2           ADD      R0,R0,#+2
   \   00000030   8000A0E1           LSL      R0,R0,#+1
   \   00000034   ........           _BLF     `??operator new[]`,`??operator new[]??rA`
   \   00000038   0050A0E1           MOV      R5,R0
   \   0000003C   0600A0E1           MOV      R0,R6
   \   00000040   D30200EF           SWI      +723
   \   00000044   0010A0E1           MOV      R1,R0
   \   00000048   0500A0E1           MOV      R0,R5
   \   0000004C   520100EF           SWI      +338
   \   00000050   781F8FE2           ADR      R1,??onAccept_DB_1  ;; 0x2F, 0x00, 0x00, 0x00
   \   00000054   0500A0E1           MOV      R0,R5
   \   00000058   540100EF           SWI      +340
   \   0000005C   0600A0E1           MOV      R0,R6
   \   00000060   D20200EF           SWI      +722
   \   00000064   0010A0E1           MOV      R1,R0
   \   00000068   0500A0E1           MOV      R0,R5
   \   0000006C   540100EF           SWI      +340
   \   00000070   0500A0E1           MOV      R0,R5
   \   00000074   570100EF           SWI      +343
   \   00000078   0010A0E1           MOV      R1,R0
   \   0000007C   0500A0E1           MOV      R0,R5
   \   00000080   ........           _BLF     ??kickbadsymbols,??kickbadsymbols??rA
   \   00000084   800094E5           LDR      R0,[R4, #+128]
   \   00000088   020050E3           CMP      R0,#+2
   \   0000008C   2600001A           BNE      ??onAccept_DB_2
    101            {
    102              DELETE(mbk->indpath);
   \   00000090   C00094E5           LDR      R0,[R4, #+192]
   \   00000094   000050E3           CMP      R0,#+0
   \   00000098   0100000A           BEQ      ??onAccept_DB_3
   \   0000009C   ........           _BLF     `??operator delete`,`??operator delete??rA`
   \   000000A0   C07084E5           STR      R7,[R4, #+192]
    103              DELETE(mbk->indname);
   \                     ??onAccept_DB_3:
   \   000000A4   C40094E5           LDR      R0,[R4, #+196]
   \   000000A8   000050E3           CMP      R0,#+0
   \   000000AC   0100000A           BEQ      ??onAccept_DB_4
   \   000000B0   ........           _BLF     `??operator delete`,`??operator delete??rA`
   \   000000B4   C47084E5           STR      R7,[R4, #+196]
    104              mbk->indpath=new wchar_t[wstrlen( FILEITEM_GetPath((FILEITEM*)data) )+1];
   \                     ??onAccept_DB_4:
   \   000000B8   0600A0E1           MOV      R0,R6
   \   000000BC   D30200EF           SWI      +723
   \   000000C0   570100EF           SWI      +343
   \   000000C4   010080E2           ADD      R0,R0,#+1
   \   000000C8   8000A0E1           LSL      R0,R0,#+1
   \   000000CC   ........           _BLF     `??operator new[]`,`??operator new[]??rA`
   \   000000D0   C00084E5           STR      R0,[R4, #+192]
    105              wstrcpy(mbk->indpath, FILEITEM_GetPath((FILEITEM*)data) );
   \   000000D4   0600A0E1           MOV      R0,R6
   \   000000D8   D30200EF           SWI      +723
   \   000000DC   0010A0E1           MOV      R1,R0
   \   000000E0   C00094E5           LDR      R0,[R4, #+192]
   \   000000E4   520100EF           SWI      +338
    106              mbk->indname=new wchar_t[wstrlen( FILEITEM_GetFname((FILEITEM*)data) )+1];
   \   000000E8   0600A0E1           MOV      R0,R6
   \   000000EC   D20200EF           SWI      +722
   \   000000F0   570100EF           SWI      +343
   \   000000F4   010080E2           ADD      R0,R0,#+1
   \   000000F8   8000A0E1           LSL      R0,R0,#+1
   \   000000FC   ........           _BLF     `??operator new[]`,`??operator new[]??rA`
   \   00000100   C40084E5           STR      R0,[R4, #+196]
    107              wstrcpy(mbk->indname, FILEITEM_GetFname((FILEITEM*)data) );
   \   00000104   0600A0E1           MOV      R0,R6
   \   00000108   D20200EF           SWI      +722
   \   0000010C   0010A0E1           MOV      R1,R0
   \   00000110   C40094E5           LDR      R0,[R4, #+196]
   \   00000114   520100EF           SWI      +338
    108              BookObj_ReturnPage(book,ACCEPT_EVENT);
   \   00000118   1C019FE5           LDR      R0,??onAccept_DB_1+0x4  ;; ACCEPT_EVENT
   \   0000011C   001090E5           LDR      R1,[R0, #+0]
   \   00000120   0400A0E1           MOV      R0,R4
   \   00000124   2E0100EF           SWI      +302
   \   00000128   3E0000EA           B        ??onAccept_DB_5
    109            }
    110            else if (mbk->selectfiletype==1)
   \                     ??onAccept_DB_2:
   \   0000012C   0C619FE5           LDR      R6,??onAccept_DB_1+0x8  ;; bk_main
   \   00000130   010050E3           CMP      R0,#+1
   \   00000134   1C0094E5           LDR      R0,[R4, #+28]
   \   00000138   340090E5           LDR      R0,[R0, #+52]
   \   0000013C   2000001A           BNE      ??onAccept_DB_6
    111            {
    112              DELETE(mbk->selev->param);
   \   00000140   000050E3           CMP      R0,#+0
   \   00000144   0400000A           BEQ      ??onAccept_DB_7
   \   00000148   1C0094E5           LDR      R0,[R4, #+28]
   \   0000014C   340090E5           LDR      R0,[R0, #+52]
   \   00000150   ........           _BLF     `??operator delete`,`??operator delete??rA`
   \   00000154   1C0094E5           LDR      R0,[R4, #+28]
   \   00000158   347080E5           STR      R7,[R0, #+52]
    113              mbk->selev->param=new wchar_t[wstrlen(full)+4+1];
   \                     ??onAccept_DB_7:
   \   0000015C   0500A0E1           MOV      R0,R5
   \   00000160   570100EF           SWI      +343
   \   00000164   050080E2           ADD      R0,R0,#+5
   \   00000168   8000A0E1           LSL      R0,R0,#+1
   \   0000016C   ........           _BLF     `??operator new[]`,`??operator new[]??rA`
   \   00000170   1C1094E5           LDR      R1,[R4, #+28]
   \   00000174   340081E5           STR      R0,[R1, #+52]
    114              snwprintf(mbk->selev->param,wstrlen(full)+4+1,L"%03d.%ls", mbk->tempvol, full);
   \   00000178   0500A0E1           MOV      R0,R5
   \   0000017C   570100EF           SWI      +343
   \   00000180   BC209FE5           LDR      R2,??onAccept_DB_1+0xC  ;; `?<Constant L"\\x25\\x30\\x33\\x64\\x2e\\x25\\x6c\\x73"`
   \   00000184   0510A0E1           MOV      R1,R5
   \   00000188   02002DE9           PUSH     {R1}
   \   0000018C   843094E5           LDR      R3,[R4, #+132]
   \   00000190   051080E2           ADD      R1,R0,#+5
   \   00000194   1C0094E5           LDR      R0,[R4, #+28]
   \   00000198   340090E5           LDR      R0,[R0, #+52]
   \   0000019C   150100EF           SWI      +277
    115              BookObj_ReturnPage(book,ACCEPT_EVENT);
   \   000001A0   94009FE5           LDR      R0,??onAccept_DB_1+0x4  ;; ACCEPT_EVENT
   \   000001A4   001090E5           LDR      R1,[R0, #+0]
   \   000001A8   0400A0E1           MOV      R0,R4
   \   000001AC   2E0100EF           SWI      +302
    116              BookObj_CallPage(book,&bk_main);
   \   000001B0   0610A0E1           MOV      R1,R6
   \   000001B4   0400A0E1           MOV      R0,R4
   \   000001B8   B80200EF           SWI      +696
   \   000001BC   04D08DE2           ADD      SP,SP,#+4
   \   000001C0   180000EA           B        ??onAccept_DB_5
    117            }
    118            else
    119            {
    120              DELETE(mbk->selev->param);
   \                     ??onAccept_DB_6:
   \   000001C4   000050E3           CMP      R0,#+0
   \   000001C8   0400000A           BEQ      ??onAccept_DB_8
   \   000001CC   1C0094E5           LDR      R0,[R4, #+28]
   \   000001D0   340090E5           LDR      R0,[R0, #+52]
   \   000001D4   ........           _BLF     `??operator delete`,`??operator delete??rA`
   \   000001D8   1C0094E5           LDR      R0,[R4, #+28]
   \   000001DC   347080E5           STR      R7,[R0, #+52]
    121              mbk->selev->param=new wchar_t[wstrlen(full)+1];
   \                     ??onAccept_DB_8:
   \   000001E0   0500A0E1           MOV      R0,R5
   \   000001E4   570100EF           SWI      +343
   \   000001E8   010080E2           ADD      R0,R0,#+1
   \   000001EC   8000A0E1           LSL      R0,R0,#+1
   \   000001F0   ........           _BLF     `??operator new[]`,`??operator new[]??rA`
   \   000001F4   1C1094E5           LDR      R1,[R4, #+28]
   \   000001F8   340081E5           STR      R0,[R1, #+52]
    122              wstrcpy(mbk->selev->param,full);
   \   000001FC   1C0094E5           LDR      R0,[R4, #+28]
   \   00000200   0510A0E1           MOV      R1,R5
   \   00000204   340090E5           LDR      R0,[R0, #+52]
   \   00000208   520100EF           SWI      +338
    123              BookObj_ReturnPage(book,ACCEPT_EVENT);
   \   0000020C   28009FE5           LDR      R0,??onAccept_DB_1+0x4  ;; ACCEPT_EVENT
   \   00000210   001090E5           LDR      R1,[R0, #+0]
   \   00000214   0400A0E1           MOV      R0,R4
   \   00000218   2E0100EF           SWI      +302
    124              BookObj_CallPage(book,&bk_main);
   \   0000021C   0610A0E1           MOV      R1,R6
   \   00000220   0400A0E1           MOV      R0,R4
   \   00000224   B80200EF           SWI      +696
    125            }
    126            delete(full);
   \                     ??onAccept_DB_5:
   \   00000228   0500A0E1           MOV      R0,R5
   \   0000022C   ........           _BLF     `??operator delete`,`??operator delete??rA`
    127            return(0);
   \   00000230   0000A0E3           MOV      R0,#+0
   \   00000234   F080BDE8           POP      {R4-R7,PC}       ;; return
   \                     ??onAccept_DB_1:
   \   00000238   2F000000           DC8      0x2F, 0x00, 0x00, 0x00
   \   0000023C   ........           DC32     ACCEPT_EVENT
   \   00000240   ........           DC32     bk_main
   \   00000244   ........           DC32     `?<Constant L"\\x25\\x30\\x33\\x64\\x2e\\x25\\x6c\\x73"`
    128          };
    129          

   \                                 In segment CODE, align 4, keep-with-next
    130          int CreateDB(void *data, BOOK * book)
    131          {
   \                     ??CreateDB:
   \   00000000   30402DE9           PUSH     {R4,R5,LR}
   \   00000004   0CD04DE2           SUB      SP,SP,#+12
   \   00000008   0140A0E1           MOV      R4,R1
    132            MyBOOK *mbk=(MyBOOK*)book;
    133            void * DB_Desc=DataBrowserDesc_Create();
   \   0000000C   1F0100EF           SWI      +287
   \   00000010   0050A0E1           MOV      R5,R0
    134            const wchar_t * folder_list[3];
    135            folder_list[0]=GetDir(mbk->dir1);
   \   00000014   740094E5           LDR      R0,[R4, #+116]
   \   00000018   050100EF           SWI      +261
   \   0000001C   00008DE5           STR      R0,[SP, #+0]
    136            folder_list[1]=GetDir(mbk->dir2);
   \   00000020   780094E5           LDR      R0,[R4, #+120]
   \   00000024   050100EF           SWI      +261
   \   00000028   04008DE5           STR      R0,[SP, #+4]
    137            folder_list[2]=0;
    138            DataBrowserDesc_SetHeaderText(DB_Desc,GetStrID(L"DB_BYNAME_TXT"));
   \   0000002C   74009FE5           LDR      R0,??CreateDB_1  ;; `?<Constant L"\\x44\\x42\\x5f\\x42\\x59\\x4e\\x41\\x4d\\`
   \   00000030   0010A0E3           MOV      R1,#+0
   \   00000034   08108DE5           STR      R1,[SP, #+8]
   \   00000038   ........           _BLF     ??GetStrID,??GetStrID??rA
   \   0000003C   0010A0E1           MOV      R1,R0
   \   00000040   0500A0E1           MOV      R0,R5
   \   00000044   210100EF           SWI      +289
    139            DataBrowserDesc_SetBookID(DB_Desc,BookObj_GetBookID(FindBook(isEvtEditBook)));
   \   00000048   ........           LDR      R0,??DataTable1  ;; ??isEvtEditBook
   \   0000004C   300100EF           SWI      +304
   \   00000050   FA0100EF           SWI      +506
   \   00000054   0010A0E1           MOV      R1,R0
   \   00000058   0500A0E1           MOV      R0,R5
   \   0000005C   AD0200EF           SWI      +685
    140            DataBrowserDesc_SetFolders(DB_Desc,folder_list);
   \   00000060   0D10A0E1           MOV      R1,SP
   \   00000064   0500A0E1           MOV      R0,R5
   \   00000068   220100EF           SWI      +290
    141            DataBrowserDesc_SetItemFilter(DB_Desc,DB_Filter);
   \   0000006C   38109FE5           LDR      R1,??CreateDB_1+0x4  ;; ??DB_Filter
   \   00000070   0500A0E1           MOV      R0,R5
   \   00000074   AE0200EF           SWI      +686
    142            DataBrowserDesc_SetFoldersNumber(DB_Desc,2);
   \   00000078   0210A0E3           MOV      R1,#+2
   \   0000007C   0500A0E1           MOV      R0,R5
   \   00000080   A90200EF           SWI      +681
    143            DataBrowserDesc_SetSelectAction(DB_Desc,1);
   \   00000084   0110A0E3           MOV      R1,#+1
   \   00000088   0500A0E1           MOV      R0,R5
   \   0000008C   AB0200EF           SWI      +683
    144            DataBrowser_Create(DB_Desc);
   \   00000090   0500A0E1           MOV      R0,R5
   \   00000094   240100EF           SWI      +292
    145            DataBrowserDesc_Destroy(DB_Desc);
   \   00000098   0500A0E1           MOV      R0,R5
   \   0000009C   250100EF           SWI      +293
    146          
    147            return(0);
   \   000000A0   0000A0E3           MOV      R0,#+0
   \   000000A4   3E80BDE8           POP      {R1-R5,PC}       ;; return
   \                     ??CreateDB_1:
   \   000000A8   ........           DC32     `?<Constant L"\\x44\\x42\\x5f\\x42\\x59\\x4e\\x41\\x4d\\`
   \   000000AC   ........           DC32     ??DB_Filter
    148          };
    149          

   \                                 In segment DYN_PAGE, align 4, align-sorted
    150          const PAGE_MSG SelectFile_PageEvents[]@ "DYN_PAGE" ={
   \                     SelectFile_PageEvents:
   \   00000000   42000000....       DC32 66, ??CreateDB, 76, ??onAccept_DB, 77, ??onPrevious_MainMenu_DB
   \              ....4C000000
   \              ........4D00
   \              0000........
   \   00000018   4E000000....       DC32 78, ??onCancel_MainMenu_DB, 64, 0H
   \              ....40000000
   \              00000000    
    151            PAGE_ENTER_EVENT_TAG,CreateDB,
    152            ACCEPT_EVENT_TAG,onAccept_DB,
    153            PREVIOUS_EVENT_TAG,onPrevious_MainMenu_DB,
    154            CANCEL_EVENT_TAG,onCancel_MainMenu_DB,
    155            NIL_EVENT_TAG,0
    156          };
    157          

   \                                 In segment DATA_C, align 4, align-sorted
    158          const PAGE_DESC SelectFile_page ={"EvtEdit_SelectFile_Page",0,SelectFile_PageEvents};
   \                     SelectFile_page:
   \   00000000   ........0000       DC32 `?<Constant "EvtEdit_SelectFile_Page">`, 0H, SelectFile_PageEvents
   \              0000........

   \                                 In segment CODE, align 4, keep-with-next
   \                     ??DataTable1:
   \   00000000   ........           DC32     ??isEvtEditBook

   \                                 In segment DATA_C, align 4, align-sorted
   \                     `?<Constant "EvtEdit_SelectFile_Page">`:
   \   00000000   457674456469       DC8 "EvtEdit_SelectFile_Page"
   \              745F53656C65
   \              637446696C65
   \              5F5061676500

   \                                 In segment DATA_C, align 4, align-sorted
   \                     `?<Constant L"\\x6d\\x70\\x33">`:
   \   00000000   6D0070003300       DC8 6DH, 0, 70H, 0, 33H, 0, 0, 0
   \              0000        
   \   00000008   77006D006100       DC8 77H, 0, 6DH, 0, 61H, 0, 0, 0
   \              0000        
   \   00000010   6D0034006100       DC8 6DH, 0, 34H, 0, 61H, 0, 0, 0
   \              0000        
   \   00000018   65006C006600       DC8 65H, 0, 6CH, 0, 66H, 0, 0, 0
   \              0000        
   \   00000020   6A0070006500       DC8 6AH, 0, 70H, 0, 65H, 0, 67H, 0
   \              6700        
   \   00000028   0000               DC8 0, 0
   \   0000002A   0000               DC8 0, 0
   \   0000002C   6A0070006700       DC8 6AH, 0, 70H, 0, 67H, 0, 0, 0
   \              0000        
   \   00000034   62006D007000       DC8 62H, 0, 6DH, 0, 70H, 0, 0, 0
   \              0000        
   \   0000003C   670069006600       DC8 67H, 0, 69H, 0, 66H, 0, 0, 0
   \              0000        
   \   00000044   70006E006700       DC8 70H, 0, 6EH, 0, 67H, 0, 0, 0
   \              0000        
   \   0000004C   650076007400       DC8 65H, 0, 76H, 0, 74H, 0, 0, 0
   \              0000        
   \   00000054   740068006D00       DC8 74H, 0, 68H, 0, 6DH, 0, 0, 0
   \              0000        

   \                                 In segment DATA_C, align 4, align-sorted
   \   00000000   2F000000           DC8 2FH, 0, 0, 0

   \                                 In segment DATA_C, align 4, align-sorted
   \                     `?<Constant L"\\x25\\x30\\x33\\x64\\x2e\\x25\\x6c\\x73"`:
   \   00000000   250030003300       DC8 25H, 0, 30H, 0, 33H, 0, 64H, 0
   \              6400        
   \   00000008   2E0025006C00       DC8 2EH, 0, 25H, 0, 6CH, 0, 73H, 0
   \              7300        
   \   00000010   0000               DC8 0, 0
   \   00000012   0000               DC8 0, 0

   \                                 In segment DATA_C, align 4, align-sorted
   \                     `?<Constant L"\\x44\\x42\\x5f\\x42\\x59\\x4e\\x41\\x4d\\`:
   \   00000000   440042005F00       DC8 44H, 0, 42H, 0, 5FH, 0, 42H, 0
   \              4200        
   \   00000008   59004E004100       DC8 59H, 0, 4EH, 0, 41H, 0, 4DH, 0
   \              4D00        
   \   00000010   45005F005400       DC8 45H, 0, 5FH, 0, 54H, 0, 58H, 0
   \              5800        
   \   00000018   54000000           DC8 54H, 0, 0, 0

   Maximum stack usage in bytes:

     Function                       CSTACK
     --------                       ------
     CreateDB(void *, BOOK *)          24
     DB_Filter(wchar_t const *, wchar_t const *, wchar_t const *)
                                       40
     isSupportable(wchar_t const *, wchar_t const *, int)
                                       12
     onAccept_DB(void *, BOOK *)       24


   Segment part sizes:

     Function/Label                 Bytes
     --------------                 -----
     isSupportable(wchar_t const *, wchar_t const *, int)
                                     452
     DB_Filter(wchar_t const *, wchar_t const *, wchar_t const *)
                                     100
     onAccept_DB(void *, BOOK *)     584
     CreateDB(void *, BOOK *)        176
     SelectFile_PageEvents            40
     SelectFile_page                  12
     ??DataTable1                      4
     ?<Constant "EvtEdit_SelectFile_Page">
                                      24
     ?<Constant L"\x6d\x70\x33">      92
     ?<Constant L"\x2f">               4
     ?<Constant L"\x25\x30\x33\x64\x2e\x25\x6c\x73"
                                      20
     ?<Constant L"\x44\x42\x5f\x42\x59\x4e\x41\x4d\
                                      28
      Others                          64

 
 1 380 bytes in segment CODE
   180 bytes in segment DATA_C
    40 bytes in segment DYN_PAGE
 
 1 316 bytes of CODE  memory (+ 64 bytes shared)
   220 bytes of CONST memory

Errors: none
Warnings: none
