##############################################################################
#                                                                            #
# IAR ARM ANSI C/C++ Compiler V4.42A/W32 EVALUATION    10/Jun/2013  22:56:11 #
# Copyright 1999-2005 IAR Systems. All rights reserved.                      #
#                                                                            #
#    Cpu mode        =  interwork                                            #
#    Endian          =  little                                               #
#    Stack alignment =  4                                                    #
#    Source file     =  Z:\home\perk11\www\perk11.info\svn\SE\EvtEdit\shortc #
#                       ut.c                                                 #
#    Command line    =  Z:\home\perk11\www\perk11.info\svn\SE\EvtEdit\shortc #
#                       ut.c -D NDEBUG -D OLDFUNCTIONS -lC                   #
#                       Z:\home\perk11\www\perk11.info\svn\SE\EvtEdit\Releas #
#                       e\List\ -lA Z:\home\perk11\www\perk11.info\svn\SE\Ev #
#                       tEdit\Release\List\ -o Z:\home\perk11\www\perk11.inf #
#                       o\svn\SE\EvtEdit\Release\Obj\ -s9 --cpu_mode arm     #
#                       --endian little --cpu ARM926EJ-S --stack_align 4     #
#                       --interwork -e --enable_multibytes --fpu None        #
#                       --eec++ --dlib_config Z:\home\perk11\IAR2\arm\LIB\dl #
#                       5tpainl8n.h -I Z:\home\perk11\IAR2\arm\INC\          #
#                       --inline_threshold=2                                 #
#    List file       =  Z:\home\perk11\www\perk11.info\svn\SE\EvtEdit\Releas #
#                       e\List\shortcut.lst                                  #
#    Object file     =  Z:\home\perk11\www\perk11.info\svn\SE\EvtEdit\Releas #
#                       e\Obj\shortcut.r79                                   #
#                                                                            #
#                                                                            #
##############################################################################

Z:\home\perk11\www\perk11.info\svn\SE\EvtEdit\shortcut.c
      1          #include "..\deleaker\mem2.h"
      2          #include "..\include\Lib_Clara.h" 
      3          #include "..\include\Dir.h" 
      4          #include "header\structs.h"
      5          #include "header\pages.h"
      6          #include "header\externals.h"
      7          
      8          int isEvtEditBook(BOOK * struc);
      9          

   \                                 In segment CODE, align 4, keep-with-next
     10          void onShortcutSet(BOOK * MainMenu, GUI* )
     11          {
   \                     ??onShortcutSet:
   \   00000000   F0402DE9           PUSH     {R4-R7,LR}
     12            wchar_t*name_buf=MenuBook_Desktop_GetSelectedItemID(MainMenu);
     13            if (name_buf)
   \   00000004   A4409FE5           LDR      R4,??onShortcutSet_1  ;; ??isEvtEditBook
   \   00000008   0050A0E1           MOV      R5,R0
   \   0000000C   C10200EF           SWI      +705
   \   00000010   0060B0E1           MOVS     R6,R0
   \   00000014   1900000A           BEQ      ??onShortcutSet_2
     14            {
     15              BOOK *EvtEdit=FindBook(isEvtEditBook);
   \   00000018   0400A0E1           MOV      R0,R4
   \   0000001C   300100EF           SWI      +304
   \   00000020   0070A0E1           MOV      R7,R0
     16              MyBOOK *mbk=(MyBOOK*)EvtEdit;
     17              DELETE(mbk->selev->param);
   \   00000024   1C0097E5           LDR      R0,[R7, #+28]
   \   00000028   340090E5           LDR      R0,[R0, #+52]
   \   0000002C   000050E3           CMP      R0,#+0
   \   00000030   0500000A           BEQ      ??onShortcutSet_3
   \   00000034   1C0097E5           LDR      R0,[R7, #+28]
   \   00000038   340090E5           LDR      R0,[R0, #+52]
   \   0000003C   ........           _BLF     `??operator delete`,`??operator delete??rA`
   \   00000040   1C0097E5           LDR      R0,[R7, #+28]
   \   00000044   0010A0E3           MOV      R1,#+0
   \   00000048   341080E5           STR      R1,[R0, #+52]
     18              mbk->selev->param=new wchar_t[wstrlen(name_buf)+1];
   \                     ??onShortcutSet_3:
   \   0000004C   0600A0E1           MOV      R0,R6
   \   00000050   570100EF           SWI      +343
   \   00000054   010080E2           ADD      R0,R0,#+1
   \   00000058   8000A0E1           LSL      R0,R0,#+1
   \   0000005C   ........           _BLF     `??operator new[]`,`??operator new[]??rA`
   \   00000060   1C1097E5           LDR      R1,[R7, #+28]
   \   00000064   340081E5           STR      R0,[R1, #+52]
     19              wstrcpy(mbk->selev->param,name_buf);
   \   00000068   1C0097E5           LDR      R0,[R7, #+28]
   \   0000006C   0610A0E1           MOV      R1,R6
   \   00000070   340090E5           LDR      R0,[R0, #+52]
   \   00000074   520100EF           SWI      +338
     20              mfree(name_buf);
   \   00000078   0600A0E1           MOV      R0,R6
   \   0000007C   040100EF           SWI      +260
     21            }
     22            FreeBook(MainMenu);
   \                     ??onShortcutSet_2:
   \   00000080   0500A0E1           MOV      R0,R5
   \   00000084   2F0100EF           SWI      +303
     23            BookObj_ReturnPage(FindBook(isEvtEditBook),ACCEPT_EVENT);
   \   00000088   0400A0E1           MOV      R0,R4
   \   0000008C   300100EF           SWI      +304
   \   00000090   ........           LDR      R1,??DataTable3  ;; ACCEPT_EVENT
   \   00000094   001091E5           LDR      R1,[R1, #+0]
   \   00000098   2E0100EF           SWI      +302
     24            BookObj_CallPage(FindBook(isEvtEditBook),&bk_main);
   \   0000009C   0400A0E1           MOV      R0,R4
   \   000000A0   300100EF           SWI      +304
   \   000000A4   08109FE5           LDR      R1,??onShortcutSet_1+0x4  ;; bk_main
   \   000000A8   B80200EF           SWI      +696
     25          };
   \   000000AC   F080BDE8           POP      {R4-R7,PC}       ;; return
   \                     ??onShortcutSet_1:
   \   000000B0   ........           DC32     ??isEvtEditBook
   \   000000B4   ........           DC32     bk_main
     26          

   \                                 In segment CODE, align 4, keep-with-next
     27          int onPrevious_MainMenu_DB(void *data, BOOK * book)
     28          {
   \                     ??onPrevious_MainMenu_DB:
   \   00000000   00402DE9           PUSH     {LR}
   \   00000004   0100A0E1           MOV      R0,R1
     29            BookObj_ReturnPage(book,NIL_EVENT);
   \   00000008   ........           LDR      R1,??DataTable2  ;; NIL_EVENT
   \   0000000C   001091E5           LDR      R1,[R1, #+0]
   \   00000010   2E0100EF           SWI      +302
     30            return(1);
   \   00000014   0100A0E3           MOV      R0,#+1
   \   00000018   0080BDE8           POP      {PC}             ;; return
     31          };
     32          
     33          

   \                                 In segment CODE, align 4, keep-with-next
     34          int onCancel_MainMenu_DB(void *data, BOOK * book)
     35          {
     36            BookObj_ReturnPage(book,NIL_EVENT);
   \                     ??onCancel_MainMenu_DB:
   \   00000000   ........           LDR      R0,??DataTable2  ;; NIL_EVENT
   \   00000004   30402DE9           PUSH     {R4,R5,LR}
   \   00000008   005090E5           LDR      R5,[R0, #+0]
   \   0000000C   0140A0E1           MOV      R4,R1
   \   00000010   0510A0E1           MOV      R1,R5
   \   00000014   0400A0E1           MOV      R0,R4
   \   00000018   2E0100EF           SWI      +302
     37            BookObj_ReturnPage(book,NIL_EVENT);
   \   0000001C   0510A0E1           MOV      R1,R5
   \   00000020   0400A0E1           MOV      R0,R4
   \   00000024   2E0100EF           SWI      +302
     38            BookObj_ReturnPage(book,NIL_EVENT);
   \   00000028   0510A0E1           MOV      R1,R5
   \   0000002C   0400A0E1           MOV      R0,R4
   \   00000030   2E0100EF           SWI      +302
     39            return(1);
   \   00000034   0100A0E3           MOV      R0,#+1
   \   00000038   3080BDE8           POP      {R4,R5,PC}       ;; return
     40          };
     41          

   \                                 In segment CODE, align 4, keep-with-next
     42          int CreateMainMenu(void *data, BOOK * book)
     43          {
   \                     ??CreateMainMenu:
   \   00000000   30402DE9           PUSH     {R4,R5,LR}
   \   00000004   04D04DE2           SUB      SP,SP,#+4
   \   00000008   0140A0E1           MOV      R4,R1
     44            BOOK * MainMenu;
     45            if (MainMenu=MenuBook_Desktop(1,BookObj_GetBookID(book)))
   \   0000000C   0400A0E1           MOV      R0,R4
   \   00000010   FA0100EF           SWI      +506
   \   00000014   0010A0E1           MOV      R1,R0
   \   00000018   0100A0E3           MOV      R0,#+1
   \   0000001C   C00200EF           SWI      +704
   \   00000020   0050B0E1           MOVS     R5,R0
   \   00000024   0F00000A           BEQ      ??CreateMainMenu_1
     46            {
     47              
     48              int MainMenuID=BookObj_GetBookID(MainMenu);
   \   00000028   FA0100EF           SWI      +506
     49              BookObj_SoftKeys_SetAction(MainMenu,0x0,onShortcutSet);
   \   0000002C   4C209FE5           LDR      R2,??CreateMainMenu_2  ;; ??onShortcutSet
   \   00000030   0010A0E3           MOV      R1,#+0
   \   00000034   0500A0E1           MOV      R0,R5
   \   00000038   C20200EF           SWI      +706
     50              int str_id;
     51              textidname2id(L"SHC_SET_SHORTCUT_SK",TEXTID_ANY_LEN,&str_id);
   \   0000003C   40009FE5           LDR      R0,??CreateMainMenu_2+0x4  ;; `?<Constant L"\\x53\\x48\\x43\\x5f\\x53\\x45\\x54\\x5f\\`
   \   00000040   0D20A0E1           MOV      R2,SP
   \   00000044   FF10A0E3           MOV      R1,#+255
   \   00000048   FF1C81E3           ORR      R1,R1,#0xFF00
   \   0000004C   870200EF           SWI      +647
     52              BookObj_SoftKeys_SetText(MainMenu,0x0,str_id);
   \   00000050   00209DE5           LDR      R2,[SP, #+0]
   \   00000054   0010A0E3           MOV      R1,#+0
   \   00000058   0500A0E1           MOV      R0,R5
   \   0000005C   C30200EF           SWI      +707
     53              return(1);
   \   00000060   0100A0E3           MOV      R0,#+1
   \   00000064   3280BDE8           POP      {R1,R4,R5,PC}
     54            }
     55            BookObj_ReturnPage(book,ACCEPT_EVENT);
   \                     ??CreateMainMenu_1:
   \   00000068   ........           LDR      R0,??DataTable3  ;; ACCEPT_EVENT
   \   0000006C   001090E5           LDR      R1,[R0, #+0]
   \   00000070   0400A0E1           MOV      R0,R4
   \   00000074   2E0100EF           SWI      +302
     56            return(0);
   \   00000078   0000A0E3           MOV      R0,#+0
   \   0000007C   3280BDE8           POP      {R1,R4,R5,PC}    ;; return
   \                     ??CreateMainMenu_2:
   \   00000080   ........           DC32     ??onShortcutSet
   \   00000084   ........           DC32     `?<Constant L"\\x53\\x48\\x43\\x5f\\x53\\x45\\x54\\x5f\\`
     57          };
     58          

   \                                 In segment DYN_PAGE, align 4, align-sorted
     59          const PAGE_MSG SelectShortcut_PageEvents[]@ "DYN_PAGE" ={
   \                     SelectShortcut_PageEvents:
   \   00000000   42000000....       DC32 66, ??CreateMainMenu, 77, ??onPrevious_MainMenu_DB, 78
   \              ....4D000000
   \              ........4E00
   \              0000        
   \   00000014   ........4000       DC32 ??onCancel_MainMenu_DB, 64, 0H
   \              000000000000
     60            PAGE_ENTER_EVENT_TAG,CreateMainMenu,
     61            PREVIOUS_EVENT_TAG,onPrevious_MainMenu_DB,
     62            CANCEL_EVENT_TAG,onCancel_MainMenu_DB,
     63            NIL_EVENT_TAG,0
     64          };
     65          

   \                                 In segment DATA_C, align 4, align-sorted
     66          const PAGE_DESC SelectShortcut_page ={"EvtEdit_SelectShortcut_Page",0,SelectShortcut_PageEvents};
   \                     SelectShortcut_page:
   \   00000000   ........0000       DC32 `?<Constant "EvtEdit_SelectShortcu...">`, 0H
   \              0000        
   \   00000008   ........           DC32 SelectShortcut_PageEvents

   \                                 In segment CODE, align 4, keep-with-next
   \                     ??DataTable2:
   \   00000000   ........           DC32     NIL_EVENT

   \                                 In segment CODE, align 4, keep-with-next
   \                     ??DataTable3:
   \   00000000   ........           DC32     ACCEPT_EVENT

   \                                 In segment DATA_C, align 4, align-sorted
   \                     `?<Constant "EvtEdit_SelectShortcu...">`:
   \   00000000   457674456469       DC8 "EvtEdit_SelectShortcut_Page"
   \              745F53656C65
   \              637453686F72
   \              746375745F50
   \              61676500    

   \                                 In segment DATA_C, align 4, align-sorted
   \                     `?<Constant L"\\x53\\x48\\x43\\x5f\\x53\\x45\\x54\\x5f\\`:
   \   00000000   530048004300       DC8 53H, 0, 48H, 0, 43H, 0, 5FH, 0
   \              5F00        
   \   00000008   530045005400       DC8 53H, 0, 45H, 0, 54H, 0, 5FH, 0
   \              5F00        
   \   00000010   530048004F00       DC8 53H, 0, 48H, 0, 4FH, 0, 52H, 0
   \              5200        
   \   00000018   540043005500       DC8 54H, 0, 43H, 0, 55H, 0, 54H, 0
   \              5400        
   \   00000020   5F0053004B00       DC8 5FH, 0, 53H, 0, 4BH, 0, 0, 0
   \              0000        

   Maximum stack usage in bytes:

     Function                       CSTACK
     --------                       ------
     CreateMainMenu(void *, BOOK *)    16
     onCancel_MainMenu_DB(void *, BOOK *)
                                       12
     onPrevious_MainMenu_DB(void *, BOOK *)
                                        4
     onShortcutSet(BOOK *, GUI *)      20


   Segment part sizes:

     Function/Label                 Bytes
     --------------                 -----
     onShortcutSet(BOOK *, GUI *)    184
     onPrevious_MainMenu_DB(void *, BOOK *)
                                      28
     onCancel_MainMenu_DB(void *, BOOK *)
                                      60
     CreateMainMenu(void *, BOOK *)  136
     SelectShortcut_PageEvents        32
     SelectShortcut_page              12
     ??DataTable2                      4
     ??DataTable3                      4
     ?<Constant "EvtEdit_SelectShortcu...">
                                      28
     ?<Constant L"\x53\x48\x43\x5f\x53\x45\x54\x5f\
                                      40
      Others                          40

 
 456 bytes in segment CODE
  80 bytes in segment DATA_C
  32 bytes in segment DYN_PAGE
 
 416 bytes of CODE  memory (+ 40 bytes shared)
 112 bytes of CONST memory

Errors: none
Warnings: none
