##############################################################################
#                                                                            #
# IAR ARM ANSI C/C++ Compiler V4.42A/W32 EVALUATION    10/Jun/2013  22:42:38 #
# Copyright 1999-2005 IAR Systems. All rights reserved.                      #
#                                                                            #
#    Cpu mode        =  interwork                                            #
#    Endian          =  little                                               #
#    Stack alignment =  4                                                    #
#    Source file     =  Z:\home\perk11\www\perk11.info\svn\SE\BcfgEdit\main. #
#                       cpp                                                  #
#    Command line    =  Z:\home\perk11\www\perk11.info\svn\SE\BcfgEdit\main. #
#                       cpp -D NDEBUG -lCN Z:\home\perk11\www\perk11.info\sv #
#                       n\SE\BcfgEdit\Release\List\ -la                      #
#                       Z:\home\perk11\www\perk11.info\svn\SE\BcfgEdit\Relea #
#                       se\List\ -o Z:\home\perk11\www\perk11.info\svn\SE\Bc #
#                       fgEdit\Release\Obj\ -s9 --no_unroll                  #
#                       --no_code_motion --cpu_mode arm --endian little      #
#                       --cpu ARM926EJ-S --stack_align 4 --interwork -e      #
#                       --enable_multibytes --fpu None --eec++               #
#                       --dlib_config Z:\home\perk11\IAR2\arm\LIB\dl5tpainl8 #
#                       n.h -I Z:\home\perk11\IAR2\arm\INC\                  #
#                       --inline_threshold=2                                 #
#    List file       =  Z:\home\perk11\www\perk11.info\svn\SE\BcfgEdit\Relea #
#                       se\List\main.lst                                     #
#    Object file     =  Z:\home\perk11\www\perk11.info\svn\SE\BcfgEdit\Relea #
#                       se\Obj\main.r79                                      #
#                                                                            #
#                                                                            #
##############################################################################

Z:\home\perk11\www\perk11.info\svn\SE\BcfgEdit\main.cpp
      1          #include "..\include\Lib_Clara.h"
      2          #include "..\include\Dir.h"
      3          #include "..\include\var_arg.h"
      4          #include "..\include\cfg_items.h"
      5          #include <errno.h>
      6          
      7          #include "visual.h"
      8          #include "datetime.h"
      9          #include "keyinput.h"
     10          #include "revision.h"
     11          #include "main.h"
     12          
     13          #define MESSAGE( __STR__ ) MessageBox( EMPTY_TEXTID, __STR__, NOIMAGE, 1 , 11000, (BOOK*) FindBook( isBcfgEditBook ) );
     14          

   \                                 In segment DYN_PAGE, align 4, align-sorted
     15          const PAGE_MSG bk_msglst_base[] @ "DYN_PAGE" =
   \                     bk_msglst_base:
   \   00000000   E5030000....       DC32 997, ??TerminateElf, 998, ??ShowAuthorInfo, 64, 0H
   \              ....E6030000
   \              ........4000
   \              000000000000
     16          {
     17          	ELF_TERMINATE_EVENT, TerminateElf,
     18          	ELF_SHOW_INFO_EVENT, ShowAuthorInfo,
     19          	NIL_EVENT_TAG, NULL
     20          };
     21          
     22          const PAGE_DESC bk_base = { "BcfgEdit_Base_Page", 0, bk_msglst_base };
     23          
     24          enum INPUT_TYPES {
     25          	IT_REAL = 0,
     26          	IT_STRING = 1,
     27          	IT_INTEGER = 2,
     28          	IT_PHONE_NUMBER = 3,
     29          	IT_DIGITAL_PASS = 4,
     30          	IT_DIGITAL_IP = 5,
     31          	IT_URL = 6,
     32          	IT_UNSIGNED_DIGIT = 9,
     33          	IT_EXTRA_DIGIT = 10,
     34          	IT_ABC_OR_DIGIT = 11,
     35          	IT_EXTRA_DIGIT_2 = 12,
     36          	IT_ABC_OR_DIGIT_2 = 13,
     37          };
     38          
     39          #pragma segment = "ELFBEGIN"

   \                                 In segment CODE, align 4, keep-with-next
     40          void elf_exit( void )
     41          {
   \                     ??elf_exit:
   \   00000000   00402DE9           PUSH     {LR}
     42          	kill_data( __segment_begin( "ELFBEGIN" ), (void(*)(void*))mfree_adr() );
   \   00000004   048100EF           SWI      +33028
   \   00000008   0010A0E1           MOV      R1,R0
   \   0000000C   04009FE5           LDR      R0,??elf_exit_1  ;; SFB(ELFBEGIN)
   \   00000010   0040BDE8           POP      {LR}             ;; Pop
   \   00000014   ........           _BF      kill_data,??kill_data??rA  ;; tailcall
   \                     ??elf_exit_1:
   \   00000018   ........           DC32     SFB(ELFBEGIN)
     43          }
     44          

   \                                 In segment CODE, align 4, keep-with-next
     45          unsigned long Crc32( unsigned char* buf, unsigned long len )
     46          {
   \                     ??Crc32:
   \   00000000   10002DE9           PUSH     {R4}
   \   00000004   40DE4DE2           SUB      SP,SP,#+1024
     47          	unsigned long crc_table[256];
     48          	unsigned long crc;
     49          	for ( int i = 0; i < 256; i ++ )
   \   00000008   0020A0E3           MOV      R2,#+0
     50          	{
     51          		crc = i;
     52          		for ( int j = 0; j < 8; j ++ )
   \                     ??Crc32_1:
   \   0000000C   70409FE5           LDR      R4,??Crc32_2     ;; 0xffffffffedb88320
   \   00000010   0230A0E1           MOV      R3,R2
   \   00000014   00C0A0E3           MOV      R12,#+0
     53          		{
     54          			crc = crc & 1 ? ( crc >> 1 ) ^ 0xEDB88320UL : crc >> 1;
   \                     ??Crc32_3:
   \   00000018   010013E3           TST      R3,#0x1
   \   0000001C   A3302410           EORNE    R3,R4,R3, LSR #+1
   \   00000020   A330A001           LSREQ    R3,R3,#+1
     55          		}
   \   00000024   01C08CE2           ADD      R12,R12,#+1
   \   00000028   08005CE3           CMP      R12,#+8
   \   0000002C   F9FFFFBA           BLT      ??Crc32_3
     56          		crc_table[i] = crc;
   \   00000030   0D40A0E1           MOV      R4,SP
   \   00000034   023184E7           STR      R3,[R4, +R2, LSL #+2]
     57          	}
   \   00000038   012082E2           ADD      R2,R2,#+1
   \   0000003C   400F52E3           CMP      R2,#+256
   \   00000040   F1FFFFBA           BLT      ??Crc32_1
     58          	crc = 0xFFFFFFFFUL;
   \   00000044   0020E0E3           MVN      R2,#+0
   \   00000048   040000EA           B        ??Crc32_4
     59          
     60          	while ( len -- )
     61          		crc = crc_table[ ( crc ^* buf ++ ) & 0xFF ] ^ ( crc >> 8 );
   \                     ??Crc32_5:
   \   0000004C   ........           LDRB     R3,[R0], #+1
   \   00000050   023023E0           EOR      R3,R3,R2
   \   00000054   FF3003E2           AND      R3,R3,#0xFF
   \   00000058   033194E7           LDR      R3,[R4, +R3, LSL #+2]
   \   0000005C   222423E0           EOR      R2,R3,R2, LSR #+8
   \                     ??Crc32_4:
   \   00000060   0130A0E1           MOV      R3,R1
   \   00000064   011043E2           SUB      R1,R3,#+1
   \   00000068   000053E3           CMP      R3,#+0
   \   0000006C   F6FFFF1A           BNE      ??Crc32_5
     62          
     63          	return crc ^ 0xFFFFFFFFUL;
   \   00000070   40DE8DE2           ADD      SP,SP,#+1024
   \   00000074   1000BDE8           POP      {R4}
   \   00000078   0000E0E3           MVN      R0,#+0
   \   0000007C   020020E0           EOR      R0,R0,R2
   \   00000080   1EFF2FE1           BX       LR               ;; return
   \                     ??Crc32_2:
   \   00000084   2083B8ED           DC32     0xffffffffedb88320
     64          };
     65          

   \                                 In segment CODE, align 4, keep-with-next
     66          void win12512unicode( wchar_t* ws, const char* s, int len )
     67          {
   \                     ??win12512unicode:
   \   00000000   040000EA           B        ??win12512unicode_1
     68          	int c;
     69          	while( ( c = *s++ ) && len -- > 0 )
     70          	{
     71          		if( c == 0xA8 )
     72          			c = 0x401;
     73          		if( c == 0xAA )
     74          			c = 0x404;
     75          		if( c == 0xAF )
     76          			c = 0x407;
     77          		if( c == 0xB8 )
     78          			c = 0x451;
     79          		if( c == 0xBA )
     80          			c = 0x454;
     81          		if( c == 0xBF )
     82          			c = 0x457;
     83          		if( c >= 0xC0 && c < 0x100 )
   \                     ??win12512unicode_2:
   \   00000004   C00053E3           CMP      R3,#+192
   \   00000008   010000BA           BLT      ??win12512unicode_3
   \   0000000C   400F53E3           CMP      R3,#+256
     84          			c += 0x350;
   \   00000010   D43F83B2           ADDLT    R3,R3,#+848
     85          		*ws++ = c;
   \                     ??win12512unicode_3:
   \   00000014   ........           STRH     R3,[R0], #+2
   \                     ??win12512unicode_1:
   \   00000018   ........           LDRB     R3,[R1], #+1
   \   0000001C   000053E3           CMP      R3,#+0
   \   00000020   1900000A           BEQ      ??win12512unicode_4
   \   00000024   02C0A0E1           MOV      R12,R2
   \   00000028   01204CE2           SUB      R2,R12,#+1
   \   0000002C   01005CE3           CMP      R12,#+1
   \   00000030   150000BA           BLT      ??win12512unicode_4
   \   00000034   A80053E3           CMP      R3,#+168
   \   00000038   0200001A           BNE      ??win12512unicode_5
   \   0000003C   0130A0E3           MOV      R3,#+1
   \                     ??win12512unicode_6:
   \   00000040   403E83E3           ORR      R3,R3,#0x400
   \   00000044   F2FFFFEA           B        ??win12512unicode_3
   \                     ??win12512unicode_5:
   \   00000048   AA0053E3           CMP      R3,#+170
   \   0000004C   0430A003           MOVEQ    R3,#+4
   \   00000050   FAFFFF0A           BEQ      ??win12512unicode_6
   \   00000054   AF0053E3           CMP      R3,#+175
   \   00000058   0100001A           BNE      ??win12512unicode_7
   \   0000005C   0730A0E3           MOV      R3,#+7
   \                     ??win12512unicode_8:
   \   00000060   F6FFFFEA           B        ??win12512unicode_6
   \                     ??win12512unicode_7:
   \   00000064   B80053E3           CMP      R3,#+184
   \   00000068   5130A003           MOVEQ    R3,#+81
   \   0000006C   F3FFFF0A           BEQ      ??win12512unicode_6
   \   00000070   BA0053E3           CMP      R3,#+186
   \   00000074   5430A003           MOVEQ    R3,#+84
   \   00000078   F0FFFF0A           BEQ      ??win12512unicode_6
   \   0000007C   BF0053E3           CMP      R3,#+191
   \   00000080   DFFFFF1A           BNE      ??win12512unicode_2
   \   00000084   5730A0E3           MOV      R3,#+87
   \   00000088   ECFFFFEA           B        ??win12512unicode_6
     86          	}
     87          	* ws = 0;
   \                     ??win12512unicode_4:
   \   0000008C   0010A0E3           MOV      R1,#+0
   \   00000090   B010C0E1           STRH     R1,[R0, #+0]
     88          }
   \   00000094   1EFF2FE1           BX       LR               ;; return
     89          

   \                                 In segment CODE, align 4, keep-with-next
     90          char* unicode2win1251( char* s, wchar_t* ws, int len )
     91          {
   \                     ??unicode2win1251:
   \   00000000   10002DE9           PUSH     {R4}
     92          	char* d = s;
   \   00000004   0030A0E1           MOV      R3,R0
   \   00000008   060000EA           B        ??unicode2win1251_1
     93          	int c;
     94          	while( ( c = *ws++ ) && len -- > 0 )
     95          	{
     96          		if( c == 0x401 )
     97          			c = 0xA8;
     98          		if( c == 0x404 )
     99          			c = 0xAA;
    100          		if( c == 0x407 )
    101          			c = 0xAF;
    102          		if( c == 0x451 )
    103          			c = 0xB8;
    104          		if( c == 0x454 )
    105          			c = 0xBA;
    106          		if( c == 0x457 )
    107          			c = 0xBF;
    108          		if( c >= 0x410 && c < 0x450 )
   \                     ??unicode2win1251_2:
   \   0000000C   410E5CE3           CMP      R12,#+1040
   \   00000010   030000BA           BLT      ??unicode2win1251_3
   \   00000014   450E5CE3           CMP      R12,#+1104
    109          			c -= 0x350;
   \   00000018   4F40E0B3           MVNLT    R4,#+79
   \   0000001C   C04FC4B3           BICLT    R4,R4,#0x300
   \   00000020   0CC084B0           ADDLT    R12,R4,R12
    110          		*s++ = c;
   \                     ??unicode2win1251_3:
   \   00000024   ........           STRB     R12,[R0], #+1
   \                     ??unicode2win1251_1:
   \   00000028   ........           LDRH     R12,[R1], #+2
   \   0000002C   00005CE3           CMP      R12,#+0
   \   00000030   1D00000A           BEQ      ??unicode2win1251_4
   \   00000034   0240A0E1           MOV      R4,R2
   \   00000038   012044E2           SUB      R2,R4,#+1
   \   0000003C   010054E3           CMP      R4,#+1
   \   00000040   190000BA           BLT      ??unicode2win1251_4
   \   00000044   0140A0E3           MOV      R4,#+1
   \   00000048   404E84E3           ORR      R4,R4,#0x400
   \   0000004C   04005CE1           CMP      R12,R4
   \   00000050   A8C0A003           MOVEQ    R12,#+168
   \   00000054   F2FFFF0A           BEQ      ??unicode2win1251_3
   \   00000058   034084E2           ADD      R4,R4,#+3
   \   0000005C   04005CE1           CMP      R12,R4
   \   00000060   AAC0A003           MOVEQ    R12,#+170
   \   00000064   EEFFFF0A           BEQ      ??unicode2win1251_3
   \   00000068   034084E3           ORR      R4,R4,#0x3
   \   0000006C   04005CE1           CMP      R12,R4
   \   00000070   AFC0A003           MOVEQ    R12,#+175
   \   00000074   EAFFFF0A           BEQ      ??unicode2win1251_3
   \   00000078   4A4084E2           ADD      R4,R4,#+74
   \   0000007C   04005CE1           CMP      R12,R4
   \   00000080   B8C0A003           MOVEQ    R12,#+184
   \   00000084   E6FFFF0A           BEQ      ??unicode2win1251_3
   \   00000088   034084E2           ADD      R4,R4,#+3
   \   0000008C   04005CE1           CMP      R12,R4
   \   00000090   BAC0A003           MOVEQ    R12,#+186
   \   00000094   E2FFFF0A           BEQ      ??unicode2win1251_3
   \   00000098   034084E3           ORR      R4,R4,#0x3
   \   0000009C   04005CE1           CMP      R12,R4
   \   000000A0   D9FFFF1A           BNE      ??unicode2win1251_2
   \   000000A4   BFC0A0E3           MOV      R12,#+191
   \   000000A8   DDFFFFEA           B        ??unicode2win1251_3
    111          	}
    112          	*s = 0;
   \                     ??unicode2win1251_4:
   \   000000AC   0010A0E3           MOV      R1,#+0
   \   000000B0   0010C0E5           STRB     R1,[R0, #+0]
    113          	return d;
   \   000000B4   1000BDE8           POP      {R4}
   \   000000B8   0300A0E1           MOV      R0,R3
   \   000000BC   1EFF2FE1           BX       LR               ;; return
    114          }
    115          

   \                                 In segment CODE, align 4, keep-with-next
    116          int getnumwidth( unsigned int num )
    117          {
    118          	int i = 1;
   \                     ??getnumwidth:
   \   00000000   28209FE5           LDR      R2,??getnumwidth_1  ;; 0xffffffffcccccccd
   \   00000004   0110A0E3           MOV      R1,#+1
   \   00000008   0A0050E3           CMP      R0,#+10
   \   0000000C   0500003A           BCC      ??getnumwidth_2
    119          	while( num >= 10 )
    120          	{
    121          		num /= 10;
   \                     ??getnumwidth_3:
   \   00000010   92308CE0           UMULL    R3,R12,R2,R0
    122          		i++ ;
   \   00000014   011081E2           ADD      R1,R1,#+1
   \   00000018   ACC1A0E1           LSR      R12,R12,#+3
   \   0000001C   0C00A0E1           MOV      R0,R12
    123          	}
   \   00000020   0A0050E3           CMP      R0,#+10
   \   00000024   F9FFFF2A           BCS      ??getnumwidth_3
    124          	return i;
   \                     ??getnumwidth_2:
   \   00000028   0100A0E1           MOV      R0,R1
   \   0000002C   1EFF2FE1           BX       LR               ;; return
   \                     ??getnumwidth_1:
   \   00000030   CDCCCCCC           DC32     0xffffffffcccccccd
    125          }
    126          

   \                                 In segment CODE, align 4, keep-with-next
    127          int SaveCfg( BCFG_DATA* bdata )
    128          {
   \                     ??SaveCfg:
   \   00000000   70402DE9           PUSH     {R4-R6,LR}
   \   00000004   0040A0E1           MOV      R4,R0
    129          	int f;
    130          	int result = 0;
    131          	if( ( f = _fopen( bdata->path, bdata->name, FSX_O_RDWR|FSX_O_TRUNC, FSX_S_IREAD|FSX_S_IWRITE, 0 ) ) >= 0 )
   \   00000008   0000A0E3           MOV      R0,#+0
   \   0000000C   01002DE9           PUSH     {R0}
   \   00000010   0050A0E3           MOV      R5,#+0
   \   00000014   603FA0E3           MOV      R3,#+384
   \   00000018   812FA0E3           MOV      R2,#+516
   \   0000001C   401F84E2           ADD      R1,R4,#+256
   \   00000020   0400A0E1           MOV      R0,R4
   \   00000024   160100EF           SWI      +278
   \   00000028   0060B0E1           MOVS     R6,R0
   \   0000002C   04D08DE2           ADD      SP,SP,#+4
   \   00000030   0700004A           BMI      ??SaveCfg_1
    132          	{
    133          		if( fwrite( f, bdata->cfg, bdata->size_cfg ) == bdata->size_cfg )
   \   00000034   042294E5           LDR      R2,[R4, #+516]
   \   00000038   001294E5           LDR      R1,[R4, #+512]
   \   0000003C   190100EF           SWI      +281
   \   00000040   041294E5           LDR      R1,[R4, #+516]
   \   00000044   010050E1           CMP      R0,R1
    134          			result = 1;
   \   00000048   0150A003           MOVEQ    R5,#+1
    135          
    136          		fclose( f );
   \   0000004C   0600A0E1           MOV      R0,R6
   \   00000050   170100EF           SWI      +279
    137          	}
    138          	return result;
   \                     ??SaveCfg_1:
   \   00000054   0500A0E1           MOV      R0,R5
   \   00000058   7080BDE8           POP      {R4-R6,PC}       ;; return
    139          }
    140          

   \                                 In segment CODE, align 4, keep-with-next
    141          int LoadCfg( BCFG_DATA* bdata )
    142          {
   \                     ??LoadCfg:
   \   00000000   F0412DE9           PUSH     {R4-R8,LR}
   \   00000004   1CD04DE2           SUB      SP,SP,#+28
   \   00000008   0050A0E1           MOV      R5,R0
    143          	int f;
    144          	FSTAT _fstat;
    145          	int result = 0;
    146          
    147          	if( bdata->cfg )
   \   0000000C   000295E5           LDR      R0,[R5, #+512]
   \   00000010   0040A0E3           MOV      R4,#+0
   \   00000014   000050E3           CMP      R0,#+0
   \   00000018   0000000A           BEQ      ??LoadCfg_1
    148          		delete bdata->cfg;
   \   0000001C   ........           _BLF     `??operator delete`,`??operator delete??rA`
    149          
    150          	if( bdata->path )
   \                     ??LoadCfg_1:
   \   00000020   000055E3           CMP      R5,#+0
   \   00000024   4C00000A           BEQ      ??LoadCfg_2
    151          	{
    152          		if( fstat( bdata->path, bdata->name, &_fstat ) != - 1 )
   \   00000028   0D20A0E1           MOV      R2,SP
   \   0000002C   401F85E2           ADD      R1,R5,#+256
   \   00000030   0500A0E1           MOV      R0,R5
   \   00000034   1C0100EF           SWI      +284
   \   00000038   010070E3           CMN      R0,#+1
   \   0000003C   4600000A           BEQ      ??LoadCfg_2
    153          		{
    154          			if( ( f = _fopen( bdata->path, bdata->name, FSX_O_RDONLY, FSX_S_IREAD|FSX_S_IWRITE, 0 ) ) >= 0 )
   \   00000040   0000A0E3           MOV      R0,#+0
   \   00000044   01002DE9           PUSH     {R0}
   \   00000048   603FA0E3           MOV      R3,#+384
   \   0000004C   0120A0E3           MOV      R2,#+1
   \   00000050   401F85E2           ADD      R1,R5,#+256
   \   00000054   0500A0E1           MOV      R0,R5
   \   00000058   160100EF           SWI      +278
   \   0000005C   0060B0E1           MOVS     R6,R0
   \   00000060   04D08DE2           ADD      SP,SP,#+4
   \   00000064   3C00004A           BMI      ??LoadCfg_2
    155          			{
    156          				bdata->size_cfg = _fstat.fsize;
   \   00000068   08009DE5           LDR      R0,[SP, #+8]
   \   0000006C   040285E5           STR      R0,[R5, #+516]
    157          				if( bdata->size_cfg <= 0 )
   \   00000070   010050E3           CMP      R0,#+1
   \   00000074   130000AA           BGE      ??LoadCfg_3
    158          				{
    159          					MESSAGE( STR( "Zero lenght of .bcfg file ! " ) );
   \   00000078   E8009FE5           LDR      R0,??LoadCfg_4   ;; ??isBcfgEditBook
   \   0000007C   FF70A0E3           MOV      R7,#+255
   \   00000080   300100EF           SWI      +304
   \   00000084   0050A0E1           MOV      R5,R0
   \   00000088   DC009FE5           LDR      R0,??LoadCfg_4+0x4  ;; `?<Constant L"\\x5a\\x65\\x72\\x6f\\x20\\x6c\\x65\\x6e\\`
   \   0000008C   FF7C87E3           ORR      R7,R7,#0xFF00
   \   00000090   0720A0E1           MOV      R2,R7
   \   00000094   0010A0E3           MOV      R1,#+0
   \   00000098   5D0100EF           SWI      +349
   \   0000009C   20002DE9           PUSH     {R5}
   \   000000A0   F810A0E3           MOV      R1,#+248
   \   000000A4   A81D81E3           ORR      R1,R1,#0x2A00
   \   000000A8   02002DE9           PUSH     {R1}
   \   000000AC   0130A0E3           MOV      R3,#+1
   \   000000B0   0720A0E1           MOV      R2,R7
   \   000000B4   0010A0E1           MOV      R1,R0
   \   000000B8   9004E0E3           MVN      R0,#-1879048192
   \   000000BC   570200EF           SWI      +599
   \                     ??LoadCfg_5:
   \   000000C0   08D08DE2           ADD      SP,SP,#+8        ;; stack cleaning
   \   000000C4   220000EA           B        ??LoadCfg_6
    160          				}
    161          				else
    162          				{
    163          					bdata->cfg = new unsigned char[( bdata->size_cfg + 3 )&~3];
   \                     ??LoadCfg_3:
   \   000000C8   030080E2           ADD      R0,R0,#+3
   \   000000CC   0300C0E3           BIC      R0,R0,#0x3
   \   000000D0   ........           _BLF     `??operator new[]`,`??operator new[]??rA`
   \   000000D4   000285E5           STR      R0,[R5, #+512]
    164          					if( fread( f, bdata->cfg, bdata->size_cfg ) != bdata->size_cfg )
   \   000000D8   042295E5           LDR      R2,[R5, #+516]
   \   000000DC   0010A0E1           MOV      R1,R0
   \   000000E0   0600A0E1           MOV      R0,R6
   \   000000E4   180100EF           SWI      +280
   \   000000E8   041295E5           LDR      R1,[R5, #+516]
   \   000000EC   010050E1           CMP      R0,R1
   \   000000F0   1600000A           BEQ      ??LoadCfg_7
    165          					{
    166          						MESSAGE( STR( "Can't read .bcfg file ! " ) );
   \   000000F4   6C009FE5           LDR      R0,??LoadCfg_4   ;; ??isBcfgEditBook
   \   000000F8   FF70A0E3           MOV      R7,#+255
   \   000000FC   300100EF           SWI      +304
   \   00000100   0080A0E1           MOV      R8,R0
   \   00000104   64009FE5           LDR      R0,??LoadCfg_4+0x8  ;; `?<Constant L"\\x5a\\x65\\x72\\x6f\\x20\\x6c\\x65\\x6e\\` + 60
   \   00000108   FF7C87E3           ORR      R7,R7,#0xFF00
   \   0000010C   0720A0E1           MOV      R2,R7
   \   00000110   0010A0E3           MOV      R1,#+0
   \   00000114   5D0100EF           SWI      +349
   \   00000118   0010A0E1           MOV      R1,R0
   \   0000011C   00012DE9           PUSH     {R8}
   \   00000120   F800A0E3           MOV      R0,#+248
   \   00000124   A80D80E3           ORR      R0,R0,#0x2A00
   \   00000128   01002DE9           PUSH     {R0}
   \   0000012C   0130A0E3           MOV      R3,#+1
   \   00000130   0720A0E1           MOV      R2,R7
   \   00000134   9004E0E3           MVN      R0,#-1879048192
   \   00000138   570200EF           SWI      +599
    167          						delete bdata->cfg;
   \   0000013C   000295E5           LDR      R0,[R5, #+512]
   \   00000140   ........           _BLF     `??operator delete`,`??operator delete??rA`
    168          						bdata->cfg = NULL;
   \   00000144   0400A0E1           MOV      R0,R4
   \   00000148   000285E5           STR      R0,[R5, #+512]
   \   0000014C   DBFFFFEA           B        ??LoadCfg_5
    169          					}
    170          					else
    171          						result = 1;
   \                     ??LoadCfg_7:
   \   00000150   0140A0E3           MOV      R4,#+1
    172          				}
    173          				fclose( f );
   \                     ??LoadCfg_6:
   \   00000154   0600A0E1           MOV      R0,R6
   \   00000158   170100EF           SWI      +279
    174          			}
    175          		}
    176          	}
    177          	return result;
   \                     ??LoadCfg_2:
   \   0000015C   0400A0E1           MOV      R0,R4
   \   00000160   1CD08DE2           ADD      SP,SP,#+28
   \   00000164   F081BDE8           POP      {R4-R8,PC}       ;; return
   \                     ??LoadCfg_4:
   \   00000168   ........           DC32     ??isBcfgEditBook
   \   0000016C   ........           DC32     `?<Constant L"\\x5a\\x65\\x72\\x6f\\x20\\x6c\\x65\\x6e\\`
   \   00000170   ........           DC32     `?<Constant L"\\x5a\\x65\\x72\\x6f\\x20\\x6c\\x65\\x6e\\` + 60
    178          }
    179          

   \                                 In segment CODE, align 4, keep-with-next
    180          void SendReconfigEvent( BCFG_DATA* bdata )
    181          {
   \                     ??SendReconfigEvent:
   \   00000000   30402DE9           PUSH     {R4,R5,LR}
   \   00000004   0040A0E1           MOV      R4,R0
    182          	RECONFIG_EVENT_DATA* reconf;
    183          	if( wstrlen( bdata->path ) < MAXELEMS( reconf->path ) && wstrlen( bdata->name ) < MAXELEMS( reconf->name ) )
   \   00000008   570100EF           SWI      +343
   \   0000000C   400050E3           CMP      R0,#+64
   \   00000010   3080BD28           POPCS    {R4,R5,PC}
   \   00000014   400F84E2           ADD      R0,R4,#+256
   \   00000018   570100EF           SWI      +343
   \   0000001C   400050E3           CMP      R0,#+64
   \   00000020   3080BD28           POPCS    {R4,R5,PC}
    184          	{
    185          		reconf = (RECONFIG_EVENT_DATA*) malloc( sizeof(RECONFIG_EVENT_DATA) );
   \   00000024   400FA0E3           MOV      R0,#+256
   \   00000028   030100EF           SWI      +259
   \   0000002C   0050A0E1           MOV      R5,R0
    186          		wstrcpy( reconf->path, bdata->path );
   \   00000030   0410A0E1           MOV      R1,R4
   \   00000034   520100EF           SWI      +338
    187          		wstrcpy( reconf->name, bdata->name );
   \   00000038   401F84E2           ADD      R1,R4,#+256
   \   0000003C   800085E2           ADD      R0,R5,#+128
   \   00000040   520100EF           SWI      +338
    188          		UI_Event_wData( ELF_RECONFIG_EVENT, reconf, (void(*)(void*)) mfree_adr() );
   \   00000044   048100EF           SWI      +33028
   \   00000048   0020A0E1           MOV      R2,R0
   \   0000004C   0510A0E1           MOV      R1,R5
   \   00000050   F90FA0E3           MOV      R0,#+996
   \   00000054   A90100EF           SWI      +425
    189          	}
    190          }
   \   00000058   3080BDE8           POP      {R4,R5,PC}       ;; return
    191          
    192          

   \                                 In segment CODE, align 4, keep-with-next
    193          void OnYesExitGui( BOOK* bk, GUI* )
    194          {
   \                     ??OnYesExitGui:
   \   00000000   30402DE9           PUSH     {R4,R5,LR}
   \   00000004   0040A0E1           MOV      R4,R0
    195          	MyBOOK* mbk = (MyBOOK*) bk;
    196          	BCFG_DATA* bdata = &mbk->bdata;
   \   00000008   6C5084E2           ADD      R5,R4,#+108
    197          	SaveCfg( bdata );
   \   0000000C   0500A0E1           MOV      R0,R5
   \   00000010   ........           BL       ??SaveCfg
    198          	SendReconfigEvent( bdata );
   \   00000014   0500A0E1           MOV      R0,R5
   \   00000018   ........           BL       ??SendReconfigEvent
    199          	FreeBook( bk );
   \   0000001C   0400A0E1           MOV      R0,R4
   \   00000020   2F0100EF           SWI      +303
    200          }
   \   00000024   3080BDE8           POP      {R4,R5,PC}       ;; return
    201          

   \                                 In segment CODE, align 4, keep-with-next
    202          void OnNoExitGui( BOOK* bk, GUI* )
    203          {
   \                     ??OnNoExitGui:
   \   00000000   00402DE9           PUSH     {LR}
    204          	FreeBook( bk );
   \   00000004   2F0100EF           SWI      +303
    205          }
   \   00000008   0080BDE8           POP      {PC}             ;; return
    206          

   \                                 In segment CODE, align 4, keep-with-next
    207          void OnBackExitGui( BOOK* bk, GUI* )
    208          {
   \                     ??OnBackExitGui:
   \   00000000   10402DE9           PUSH     {R4,LR}
   \   00000004   0040A0E1           MOV      R4,R0
    209          	MyBOOK* myBook = (MyBOOK*) bk;
    210          	FREE_GUI( myBook->yesno );
   \   00000008   240094E5           LDR      R0,[R4, #+36]
   \   0000000C   000050E3           CMP      R0,#+0
   \   00000010   1080BD08           POPEQ    {R4,PC}
   \   00000014   CE0100EF           SWI      +462
   \   00000018   240084E5           STR      R0,[R4, #+36]
    211          }
   \   0000001C   1080BDE8           POP      {R4,PC}          ;; return
    212          

   \                                 In segment CODE, align 4, keep-with-next
    213          void OnBackBcfgGui( BOOK* bk, GUI* )
    214          {
   \                     ??OnBackBcfgGui:
   \   00000000   30402DE9           PUSH     {R4,R5,LR}
   \   00000004   0040A0E1           MOV      R4,R0
    215          	MyBOOK* mbk = (MyBOOK*) bk;
    216          	BCFG_DATA* bdata = &mbk->bdata;
   \   00000008   6C0084E2           ADD      R0,R4,#+108
    217          	CFG_HDR* hp;
    218          	if( bdata->level )
   \   0000000C   081290E5           LDR      R1,[R0, #+520]
   \   00000010   000051E3           CMP      R1,#+0
   \   00000014   1100000A           BEQ      ??OnBackBcfgGui_1
    219          	{
    220          		hp = bdata->levelstack[ bdata->level ];
   \   00000018   011180E0           ADD      R1,R0,R1, LSL #+2
   \   0000001C   0C5291E5           LDR      R5,[R1, #+524]
    221          		bdata->levelstack[ bdata->level ] = NULL;
   \   00000020   081290E5           LDR      R1,[R0, #+520]
   \   00000024   0020A0E3           MOV      R2,#+0
   \   00000028   011180E0           ADD      R1,R0,R1, LSL #+2
   \   0000002C   0C2281E5           STR      R2,[R1, #+524]
    222          		bdata->level -- ;
   \   00000030   081290E5           LDR      R1,[R0, #+520]
   \   00000034   011041E2           SUB      R1,R1,#+1
   \   00000038   081280E5           STR      R1,[R0, #+520]
    223          		FREE_GUI( mbk->bcfg );
   \   0000003C   180094E5           LDR      R0,[R4, #+24]
   \   00000040   000050E3           CMP      R0,#+0
   \   00000044   0100000A           BEQ      ??OnBackBcfgGui_2
   \   00000048   CE0100EF           SWI      +462
   \   0000004C   180084E5           STR      R0,[R4, #+24]
    224          		create_ed( bk, hp );
   \                     ??OnBackBcfgGui_2:
   \   00000050   0510A0E1           MOV      R1,R5
   \   00000054   0400A0E1           MOV      R0,R4
   \   00000058   ........           BL       ??create_ed
   \   0000005C   3080BDE8           POP      {R4,R5,PC}
    225          	}
    226          	else
    227          	{
    228          		if( mbk->old_crc == Crc32( bdata->cfg, bdata->size_cfg ) )
   \                     ??OnBackBcfgGui_1:
   \   00000060   585094E5           LDR      R5,[R4, #+88]
   \   00000064   041290E5           LDR      R1,[R0, #+516]
   \   00000068   000290E5           LDR      R0,[R0, #+512]
   \   0000006C   ........           BL       ??Crc32
   \   00000070   000055E1           CMP      R5,R0
   \   00000074   0200001A           BNE      ??OnBackBcfgGui_3
    229          		{
    230          			FreeBook( bk );
   \   00000078   0400A0E1           MOV      R0,R4
   \   0000007C   2F0100EF           SWI      +303
   \   00000080   3080BDE8           POP      {R4,R5,PC}
    231          		}
    232          		else
    233          		{
    234          			mbk->yesno = CreateYesNoQuestionVA( 0,
    235          											   VAR_BOOK( mbk ),
    236          											   VAR_YESNO_PRE_QUESTION( mbk->changes_have_been_made ),
    237          											   VAR_YESNO_QUESTION( mbk->save_before_exit ),
    238          											   0 );
   \                     ??OnBackBcfgGui_3:
   \   00000084   8C309FE5           LDR      R3,??OnBackBcfgGui_4  ;; VAR_ARG_YESNO_PRE_QUESTION
   \   00000088   ........           LDR      R1,??DataTable37  ;; VAR_ARG_BOOK
   \   0000008C   0000A0E3           MOV      R0,#+0
   \   00000090   01002DE9           PUSH     {R0}
   \   00000094   680094E5           LDR      R0,[R4, #+104]
   \   00000098   0420A0E1           MOV      R2,R4
   \   0000009C   01002DE9           PUSH     {R0}
   \   000000A0   74009FE5           LDR      R0,??OnBackBcfgGui_4+0x4  ;; VAR_ARG_YESNO_QUESTION
   \   000000A4   01002DE9           PUSH     {R0}
   \   000000A8   640094E5           LDR      R0,[R4, #+100]
   \   000000AC   01002DE9           PUSH     {R0}
   \   000000B0   0000A0E3           MOV      R0,#+0
   \   000000B4   A50200EF           SWI      +677
    239          			GUIObject_SoftKeys_SetAction( mbk->yesno, ACTION_YES, OnYesExitGui );
   \   000000B8   60209FE5           LDR      R2,??OnBackBcfgGui_4+0x8  ;; ??OnYesExitGui
   \   000000BC   240084E5           STR      R0,[R4, #+36]
   \   000000C0   5C009FE5           LDR      R0,??OnBackBcfgGui_4+0xC  ;; ACTION_YES
   \   000000C4   001090E5           LDR      R1,[R0, #+0]
   \   000000C8   240094E5           LDR      R0,[R4, #+36]
   \   000000CC   0118A0E1           MOV      R1,R1, LSL #+16
   \   000000D0   2118A0E1           MOV      R1,R1, LSR #+16
   \   000000D4   4B0100EF           SWI      +331
    240          			GUIObject_SoftKeys_SetAction( mbk->yesno, ACTION_NO, OnNoExitGui );
   \   000000D8   48009FE5           LDR      R0,??OnBackBcfgGui_4+0x10  ;; ACTION_NO
   \   000000DC   48209FE5           LDR      R2,??OnBackBcfgGui_4+0x14  ;; ??OnNoExitGui
   \   000000E0   001090E5           LDR      R1,[R0, #+0]
   \   000000E4   240094E5           LDR      R0,[R4, #+36]
   \   000000E8   0118A0E1           MOV      R1,R1, LSL #+16
   \   000000EC   2118A0E1           MOV      R1,R1, LSR #+16
   \   000000F0   4B0100EF           SWI      +331
    241          			GUIObject_SoftKeys_SetAction( mbk->yesno, ACTION_BACK, OnBackExitGui );
   \   000000F4   ........           LDR      R0,??DataTable2  ;; ACTION_BACK
   \   000000F8   30209FE5           LDR      R2,??OnBackBcfgGui_4+0x18  ;; ??OnBackExitGui
   \   000000FC   001090E5           LDR      R1,[R0, #+0]
   \   00000100   240094E5           LDR      R0,[R4, #+36]
   \   00000104   0118A0E1           MOV      R1,R1, LSL #+16
   \   00000108   2118A0E1           MOV      R1,R1, LSR #+16
   \   0000010C   4B0100EF           SWI      +331
   \   00000110   10D08DE2           ADD      SP,SP,#+16
    242          		}
    243          	}
    244          }
   \   00000114   3080BDE8           POP      {R4,R5,PC}       ;; return
   \                     ??OnBackBcfgGui_4:
   \   00000118   ........           DC32     VAR_ARG_YESNO_PRE_QUESTION
   \   0000011C   ........           DC32     VAR_ARG_YESNO_QUESTION
   \   00000120   ........           DC32     ??OnYesExitGui
   \   00000124   ........           DC32     ACTION_YES
   \   00000128   ........           DC32     ACTION_NO
   \   0000012C   ........           DC32     ??OnNoExitGui
   \   00000130   ........           DC32     ??OnBackExitGui
    245          

   \                                 In segment CODE, align 4, keep-with-next
    246          void OnCloseCBoxGui( BOOK* bk, GUI* )
    247          {
   \                     ??OnCloseCBoxGui:
   \   00000000   10402DE9           PUSH     {R4,LR}
   \   00000004   0040A0E1           MOV      R4,R0
    248          	MyBOOK* myBook = (MyBOOK*) bk;
    249          	FREE_GUI( myBook->cbox_gui );
   \   00000008   1C0094E5           LDR      R0,[R4, #+28]
   \   0000000C   000050E3           CMP      R0,#+0
   \   00000010   1080BD08           POPEQ    {R4,PC}
   \   00000014   CE0100EF           SWI      +462
   \   00000018   1C0084E5           STR      R0,[R4, #+28]
    250          }
   \   0000001C   1080BDE8           POP      {R4,PC}          ;; return
    251          

   \                                 In segment CODE, align 4, keep-with-next
    252          void OnSelectCBoxGui( BOOK* bk, GUI* )
    253          {
   \                     ??OnSelectCBoxGui:
   \   00000000   10402DE9           PUSH     {R4,LR}
   \   00000004   0040A0E1           MOV      R4,R0
    254          	MyBOOK* myBook = (MyBOOK*) bk;
    255          	int item = OneOfMany_GetSelected( myBook->cbox_gui );
   \   00000008   1C0094E5           LDR      R0,[R4, #+28]
   \   0000000C   490100EF           SWI      +329
    256          
    257          	if( item < myBook->cur_hp.cbox->max )
   \   00000010   541094E5           LDR      R1,[R4, #+84]
   \   00000014   281091E5           LDR      R1,[R1, #+40]
   \   00000018   010050E1           CMP      R0,R1
    258          		myBook->cur_hp.cbox->selected = item;
   \   0000001C   54109435           LDRCC    R1,[R4, #+84]
   \   00000020   2C008135           STRCC    R0,[R1, #+44]
    259          
    260          	FREE_GUI( myBook->cbox_gui );
   \   00000024   1C0094E5           LDR      R0,[R4, #+28]
   \   00000028   000050E3           CMP      R0,#+0
   \   0000002C   0100000A           BEQ      ??OnSelectCBoxGui_1
   \   00000030   CE0100EF           SWI      +462
   \   00000034   1C0084E5           STR      R0,[R4, #+28]
    261          	RefreshEdList(bk);
   \                     ??OnSelectCBoxGui_1:
   \   00000038   0400A0E1           MOV      R0,R4
   \   0000003C   1040BDE8           POP      {R4,LR}          ;; Pop
   \   00000040   ........           B        ??RefreshEdList  ;; tailcall
    262          }
    263          

   \                                 In segment CODE, align 4, keep-with-next
    264          void CreateCBoxGui( MyBOOK* myBook )
    265          {
   \                     ??CreateCBoxGui:
   \   00000000   F0402DE9           PUSH     {R4-R7,LR}
   \   00000004   80D04DE2           SUB      SP,SP,#+128
   \   00000008   0040A0E1           MOV      R4,R0
    266          	GUI_ONEOFMANY* om = CreateOneOfMany( myBook );
    267          
    268          	wchar_t ustr[64];
    269          	myBook->cbox_gui = om;
    270          	win12512unicode( ustr, myBook->cur_hp.cbox->name, MAXELEMS( ustr ) - 1 );
    271          	GUIObject_SetTitleText( om, TextID_Create( ustr, ENC_UCS2, TEXTID_ANY_LEN ) );
    272          	TEXTID* strid = new TEXTID[ myBook->cur_hp.cbox->max ];
    273          
    274          	for ( int i = 0; i < myBook->cur_hp.cbox->max; i ++ )
   \   0000000C   0070A0E3           MOV      R7,#+0
   \   00000010   450100EF           SWI      +325
   \   00000014   0050A0E1           MOV      R5,R0
   \   00000018   1C5084E5           STR      R5,[R4, #+28]
   \   0000001C   540094E5           LDR      R0,[R4, #+84]
   \   00000020   3F20A0E3           MOV      R2,#+63
   \   00000024   041080E2           ADD      R1,R0,#+4
   \   00000028   0D00A0E1           MOV      R0,SP
   \   0000002C   ........           BL       ??win12512unicode
   \   00000030   FF20A0E3           MOV      R2,#+255
   \   00000034   FF2C82E3           ORR      R2,R2,#0xFF00
   \   00000038   0010A0E3           MOV      R1,#+0
   \   0000003C   0D00A0E1           MOV      R0,SP
   \   00000040   5D0100EF           SWI      +349
   \   00000044   0010A0E1           MOV      R1,R0
   \   00000048   0500A0E1           MOV      R0,R5
   \   0000004C   330100EF           SWI      +307
   \   00000050   540094E5           LDR      R0,[R4, #+84]
   \   00000054   280090E5           LDR      R0,[R0, #+40]
   \   00000058   0001A0E1           LSL      R0,R0,#+2
   \   0000005C   ........           _BLF     `??operator new[]`,`??operator new[]??rA`
   \   00000060   0060A0E1           MOV      R6,R0
   \   00000064   540094E5           LDR      R0,[R4, #+84]
   \   00000068   280090E5           LDR      R0,[R0, #+40]
   \   0000006C   000050E3           CMP      R0,#+0
   \   00000070   0D00001A           BNE      ??CreateCBoxGui_1
   \   00000074   100000EA           B        ??CreateCBoxGui_2
    275          	{
    276          		win12512unicode( ustr, myBook->cur_hp.cbox->items[i].cbox_text, MAXELEMS( ustr ) - 1 );
   \                     ??CreateCBoxGui_3:
   \   00000078   540094E5           LDR      R0,[R4, #+84]
   \   0000007C   3F20A0E3           MOV      R2,#+63
   \   00000080   870280E0           ADD      R0,R0,R7, LSL #+5
   \   00000084   301080E2           ADD      R1,R0,#+48
   \   00000088   0D00A0E1           MOV      R0,SP
   \   0000008C   ........           BL       ??win12512unicode
    277          		strid[i] = TextID_Create( ustr, ENC_UCS2, TEXTID_ANY_LEN );
   \   00000090   FF20A0E3           MOV      R2,#+255
   \   00000094   FF2C82E3           ORR      R2,R2,#0xFF00
   \   00000098   0010A0E3           MOV      R1,#+0
   \   0000009C   0D00A0E1           MOV      R0,SP
   \   000000A0   5D0100EF           SWI      +349
   \   000000A4   070186E7           STR      R0,[R6, +R7, LSL #+2]
    278          	}
   \   000000A8   017087E2           ADD      R7,R7,#+1
   \                     ??CreateCBoxGui_1:
   \   000000AC   540094E5           LDR      R0,[R4, #+84]
   \   000000B0   280090E5           LDR      R0,[R0, #+40]
   \   000000B4   000057E1           CMP      R7,R0
   \   000000B8   EEFFFF3A           BCC      ??CreateCBoxGui_3
    279          
    280          	OneOfMany_SetTexts( om, strid, myBook->cur_hp.cbox->max );
   \                     ??CreateCBoxGui_2:
   \   000000BC   540094E5           LDR      R0,[R4, #+84]
   \   000000C0   0610A0E1           MOV      R1,R6
   \   000000C4   282090E5           LDR      R2,[R0, #+40]
   \   000000C8   0500A0E1           MOV      R0,R5
   \   000000CC   480100EF           SWI      +328
    281          	delete strid;
   \   000000D0   0600A0E1           MOV      R0,R6
   \   000000D4   ........           _BLF     `??operator delete`,`??operator delete??rA`
    282          	OneOfMany_SetChecked( om, myBook->cur_hp.cbox->selected );
   \   000000D8   540094E5           LDR      R0,[R4, #+84]
   \   000000DC   2C1090E5           LDR      R1,[R0, #+44]
   \   000000E0   0500A0E1           MOV      R0,R5
   \   000000E4   470100EF           SWI      +327
    283          	GUIObject_SoftKeys_SetAction( om, ACTION_BACK, OnCloseCBoxGui );
   \   000000E8   ........           LDR      R0,??DataTable2  ;; ACTION_BACK
   \   000000EC   3C209FE5           LDR      R2,??CreateCBoxGui_4  ;; ??OnCloseCBoxGui
   \   000000F0   001090E5           LDR      R1,[R0, #+0]
   \   000000F4   0500A0E1           MOV      R0,R5
   \   000000F8   0118A0E1           MOV      R1,R1, LSL #+16
   \   000000FC   2118A0E1           MOV      R1,R1, LSR #+16
   \   00000100   4B0100EF           SWI      +331
    284          	GUIObject_SoftKeys_SetAction( om, ACTION_SELECT1, OnSelectCBoxGui );
   \   00000104   ........           LDR      R0,??DataTable3  ;; ACTION_SELECT1
   \   00000108   24209FE5           LDR      R2,??CreateCBoxGui_4+0x4  ;; ??OnSelectCBoxGui
   \   0000010C   001090E5           LDR      R1,[R0, #+0]
   \   00000110   0500A0E1           MOV      R0,R5
   \   00000114   0118A0E1           MOV      R1,R1, LSL #+16
   \   00000118   2118A0E1           MOV      R1,R1, LSR #+16
   \   0000011C   4B0100EF           SWI      +331
    285          	GUIObject_Show( om );
   \   00000120   0500A0E1           MOV      R0,R5
   \   00000124   340100EF           SWI      +308
    286          }
   \   00000128   80D08DE2           ADD      SP,SP,#+128
   \   0000012C   F080BDE8           POP      {R4-R7,PC}       ;; return
   \                     ??CreateCBoxGui_4:
   \   00000130   ........           DC32     ??OnCloseCBoxGui
   \   00000134   ........           DC32     ??OnSelectCBoxGui
    287          
    288          

   \                                 In segment CODE, align 4, keep-with-next
    289          void OnBackCreateTextInputGui( BOOK* bk, u16* string, int len )
    290          {
   \                     ??OnBackCreateTextInputGui:
   \   00000000   10402DE9           PUSH     {R4,LR}
   \   00000004   0040A0E1           MOV      R4,R0
    291          	MyBOOK* myBook = (MyBOOK*) bk;
    292          	FREE_GUI( myBook->text_input );
   \   00000008   200094E5           LDR      R0,[R4, #+32]
   \   0000000C   000050E3           CMP      R0,#+0
   \   00000010   1080BD08           POPEQ    {R4,PC}
   \   00000014   CE0100EF           SWI      +462
   \   00000018   200084E5           STR      R0,[R4, #+32]
    293          }
   \   0000001C   1080BDE8           POP      {R4,PC}          ;; return
    294          

   \                                 In segment CODE, align 4, keep-with-next
    295          void OnOkCreateUnsignedNumberGui( BOOK* bk, wchar_t* string, int len )
    296          {
   \                     ??OnOkCreateUnsignedNumberGui:
   \   00000000   30402DE9           PUSH     {R4,R5,LR}
   \   00000004   80D04DE2           SUB      SP,SP,#+128
   \   00000008   0040A0E1           MOV      R4,R0
   \   0000000C   0150A0E1           MOV      R5,R1
    297          	MyBOOK* myBook = (MyBOOK*) bk;
    298          	wchar_t ustr[64];
    299          	unsigned int ui;
    300          	*_Geterrno() = 0;
   \   00000010   ........           _BLF     _Geterrno,??_Geterrno??rA
   \   00000014   0010A0E3           MOV      R1,#+0
   \   00000018   001080E5           STR      R1,[R0, #+0]
    301          	ui = wcstoul( string, 0, 10 );
   \   0000001C   0A20A0E3           MOV      R2,#+10
   \   00000020   0500A0E1           MOV      R0,R5
   \   00000024   ........           _BLF     wcstoul,??wcstoul??rA
   \   00000028   0050A0E1           MOV      R5,R0
    302          	if( ui < myBook->cur_hp.unsignedint->min || ui > myBook->cur_hp.unsignedint->max || *_Geterrno() == ERANGE )
   \   0000002C   540094E5           LDR      R0,[R4, #+84]
   \   00000030   240090E5           LDR      R0,[R0, #+36]
   \   00000034   000055E1           CMP      R5,R0
   \   00000038   0700003A           BCC      ??OnOkCreateUnsignedNumberGui_1
   \   0000003C   540094E5           LDR      R0,[R4, #+84]
   \   00000040   280090E5           LDR      R0,[R0, #+40]
   \   00000044   050050E1           CMP      R0,R5
   \   00000048   0300003A           BCC      ??OnOkCreateUnsignedNumberGui_1
   \   0000004C   ........           _BLF     _Geterrno,??_Geterrno??rA
   \   00000050   000090E5           LDR      R0,[R0, #+0]
   \   00000054   220050E3           CMP      R0,#+34
   \   00000058   1A00001A           BNE      ??OnOkCreateUnsignedNumberGui_2
    303          	{
    304          		snwprintf( ustr, MAXELEMS( ustr ) - 1, L"min: %u\nmax: %u", myBook->cur_hp.unsignedint->min, myBook->cur_hp.unsignedint->max );
   \                     ??OnOkCreateUnsignedNumberGui_1:
   \   0000005C   540094E5           LDR      R0,[R4, #+84]
   \   00000060   8C209FE5           LDR      R2,??OnOkCreateUnsignedNumberGui_3  ;; `?<Constant L"\\x6d\\x69\\x6e\\x3a\\x20\\x25\\x75\\xa\\x`
   \   00000064   280090E5           LDR      R0,[R0, #+40]
   \   00000068   3F10A0E3           MOV      R1,#+63
   \   0000006C   01002DE9           PUSH     {R0}
   \   00000070   540094E5           LDR      R0,[R4, #+84]
    305          		MessageBox( EMPTY_TEXTID, TextID_Create( ustr, ENC_UCS2, TEXTID_ANY_LEN ), NOIMAGE, 1 , 5000, bk );
   \   00000074   FF50A0E3           MOV      R5,#+255
   \   00000078   243090E5           LDR      R3,[R0, #+36]
   \   0000007C   04008DE2           ADD      R0,SP,#+4
   \   00000080   150100EF           SWI      +277
   \   00000084   FF5C85E3           ORR      R5,R5,#0xFF00
   \   00000088   0520A0E1           MOV      R2,R5
   \   0000008C   0010A0E3           MOV      R1,#+0
   \   00000090   04008DE2           ADD      R0,SP,#+4
   \   00000094   5D0100EF           SWI      +349
   \   00000098   10002DE9           PUSH     {R4}
   \   0000009C   8810A0E3           MOV      R1,#+136
   \   000000A0   4C1D81E3           ORR      R1,R1,#0x1300
   \   000000A4   02002DE9           PUSH     {R1}
   \   000000A8   0130A0E3           MOV      R3,#+1
   \   000000AC   0520A0E1           MOV      R2,R5
   \   000000B0   0010A0E1           MOV      R1,R0
   \   000000B4   9004E0E3           MVN      R0,#-1879048192
   \   000000B8   570200EF           SWI      +599
   \   000000BC   0CD08DE2           ADD      SP,SP,#+12
   \   000000C0   80D08DE2           ADD      SP,SP,#+128
   \   000000C4   3080BDE8           POP      {R4,R5,PC}
    306          	}
    307          	else
    308          	{
    309          		myBook->cur_hp.unsignedint->unsignedint = ui;
   \                     ??OnOkCreateUnsignedNumberGui_2:
   \   000000C8   540094E5           LDR      R0,[R4, #+84]
   \   000000CC   2C5080E5           STR      R5,[R0, #+44]
    310          		FREE_GUI( myBook->text_input );
   \   000000D0   200094E5           LDR      R0,[R4, #+32]
   \   000000D4   000050E3           CMP      R0,#+0
   \   000000D8   0100000A           BEQ      ??OnOkCreateUnsignedNumberGui_4
   \   000000DC   CE0100EF           SWI      +462
   \   000000E0   200084E5           STR      R0,[R4, #+32]
    311          		RefreshEdList(bk);
   \                     ??OnOkCreateUnsignedNumberGui_4:
   \   000000E4   0400A0E1           MOV      R0,R4
   \   000000E8   ........           BL       ??RefreshEdList
    312          	}
    313          }
   \   000000EC   80D08DE2           ADD      SP,SP,#+128
   \   000000F0   3080BDE8           POP      {R4,R5,PC}       ;; return
   \                     ??OnOkCreateUnsignedNumberGui_3:
   \   000000F4   ........           DC32     `?<Constant L"\\x6d\\x69\\x6e\\x3a\\x20\\x25\\x75\\xa\\x`
    314          
    315          

   \                                 In segment CODE, align 4, keep-with-next
    316          void CreateUnsignedNumberInput( MyBOOK* myBook )
    317          {
    318          	wchar_t ustr[64];
    319          	TEXTID text, header_name;
    320          
    321          	snwprintf( ustr, MAXELEMS( ustr ) - 1, L"%u", myBook->cur_hp.unsignedint->unsignedint );
   \                     ??CreateUnsignedNumberInput:
   \   00000000   ........           LDR      R2,??DataTable41  ;; `?<Constant L"\\x25\\x75">`
   \   00000004   70402DE9           PUSH     {R4-R6,LR}
   \   00000008   80D04DE2           SUB      SP,SP,#+128
   \   0000000C   0040A0E1           MOV      R4,R0
   \   00000010   540094E5           LDR      R0,[R4, #+84]
   \   00000014   3F10A0E3           MOV      R1,#+63
   \   00000018   2C3090E5           LDR      R3,[R0, #+44]
   \   0000001C   0D00A0E1           MOV      R0,SP
   \   00000020   150100EF           SWI      +277
    322          	text = TextID_Create( ustr, ENC_UCS2, TEXTID_ANY_LEN );
   \   00000024   FF60A0E3           MOV      R6,#+255
   \   00000028   FF6C86E3           ORR      R6,R6,#0xFF00
   \   0000002C   0620A0E1           MOV      R2,R6
   \   00000030   0010A0E3           MOV      R1,#+0
   \   00000034   0D00A0E1           MOV      R0,SP
   \   00000038   5D0100EF           SWI      +349
   \   0000003C   0050A0E1           MOV      R5,R0
    323          	win12512unicode( ustr, myBook->cur_hp.unsignedint->name, MAXELEMS( ustr ) - 1 );
   \   00000040   540094E5           LDR      R0,[R4, #+84]
   \   00000044   3F20A0E3           MOV      R2,#+63
   \   00000048   041080E2           ADD      R1,R0,#+4
   \   0000004C   0D00A0E1           MOV      R0,SP
   \   00000050   ........           BL       ??win12512unicode
    324          	header_name = TextID_Create( ustr, ENC_UCS2, TEXTID_ANY_LEN );
   \   00000054   0620A0E1           MOV      R2,R6
   \   00000058   0010A0E3           MOV      R1,#+0
   \   0000005C   0D00A0E1           MOV      R0,SP
   \   00000060   5D0100EF           SWI      +349
   \   00000064   0060A0E1           MOV      R6,R0
    325          	myBook->text_input = CreateStringInputVA( 0,
    326          											 VAR_HEADER_TEXT( header_name ),
    327          											 VAR_STRINP_MAX_LEN( getnumwidth( myBook->cur_hp.unsignedint->max ) ),
    328          											 VAR_STRINP_MODE( IT_UNSIGNED_DIGIT ),
    329          											 VAR_BOOK( myBook ),
    330          											 VAR_STRINP_ENABLE_EMPTY_STR( 0 ),
    331          											 VAR_STRINP_TEXT( text ),
    332          											 VAR_PREV_ACTION_PROC( OnBackCreateTextInputGui ),
    333          											 VAR_OK_PROC( OnOkCreateUnsignedNumberGui ),
    334          											 0 );
   \   00000068   540094E5           LDR      R0,[R4, #+84]
   \   0000006C   280090E5           LDR      R0,[R0, #+40]
   \   00000070   ........           BL       ??getnumwidth
   \   00000074   ........           LDR      R3,??DataTable39  ;; VAR_ARG_STRINP_MAX_LEN
   \   00000078   0010A0E3           MOV      R1,#+0
   \   0000007C   02002DE9           PUSH     {R1}
   \   00000080   78109FE5           LDR      R1,??CreateUnsignedNumberInput_1  ;; ??OnOkCreateUnsignedNumberGui
   \   00000084   0620A0E1           MOV      R2,R6
   \   00000088   02002DE9           PUSH     {R1}
   \   0000008C   ........           LDR      R1,??DataTable33  ;; VAR_ARG_CALL_BACK_OK
   \   00000090   02002DE9           PUSH     {R1}
   \   00000094   ........           LDR      R1,??DataTable34  ;; ??OnBackCreateTextInputGui
   \   00000098   02002DE9           PUSH     {R1}
   \   0000009C   ........           LDR      R1,??DataTable35  ;; VAR_ARG_CALL_BACK_PREV_ACT
   \   000000A0   02002DE9           PUSH     {R1}
   \   000000A4   ........           LDR      R1,??DataTable36  ;; VAR_ARG_STRINP_TEXT
   \   000000A8   20002DE9           PUSH     {R5}
   \   000000AC   02002DE9           PUSH     {R1}
   \   000000B0   0010A0E3           MOV      R1,#+0
   \   000000B4   02002DE9           PUSH     {R1}
   \   000000B8   44109FE5           LDR      R1,??CreateUnsignedNumberInput_1+0x4  ;; VAR_ARG_STRINP_EMPTY_STR_EN
   \   000000BC   02002DE9           PUSH     {R1}
   \   000000C0   0410A0E1           MOV      R1,R4
   \   000000C4   02002DE9           PUSH     {R1}
   \   000000C8   ........           LDR      R1,??DataTable37  ;; VAR_ARG_BOOK
   \   000000CC   02002DE9           PUSH     {R1}
   \   000000D0   0910A0E3           MOV      R1,#+9
   \   000000D4   02002DE9           PUSH     {R1}
   \   000000D8   ........           LDR      R1,??DataTable38  ;; VAR_ARG_STRINP_MODE
   \   000000DC   02002DE9           PUSH     {R1}
   \   000000E0   ........           LDR      R1,??DataTable40  ;; VAR_ARG_HTEXT
   \   000000E4   01002DE9           PUSH     {R0}
   \   000000E8   0000A0E3           MOV      R0,#+0
   \   000000EC   440100EF           SWI      +324
   \   000000F0   38D08DE2           ADD      SP,SP,#+56
   \   000000F4   200084E5           STR      R0,[R4, #+32]
    335          }
   \   000000F8   80D08DE2           ADD      SP,SP,#+128
   \   000000FC   7080BDE8           POP      {R4-R6,PC}       ;; return
   \                     ??CreateUnsignedNumberInput_1:
   \   00000100   ........           DC32     ??OnOkCreateUnsignedNumberGui
   \   00000104   ........           DC32     VAR_ARG_STRINP_EMPTY_STR_EN
    336          

   \                                 In segment CODE, align 4, keep-with-next
    337          void OnOkCreateSignedNumberGui( BOOK* bk, wchar_t* string, int len )
    338          {
   \                     ??OnOkCreateSignedNumberGui:
   \   00000000   30402DE9           PUSH     {R4,R5,LR}
   \   00000004   80D04DE2           SUB      SP,SP,#+128
   \   00000008   0040A0E1           MOV      R4,R0
   \   0000000C   0150A0E1           MOV      R5,R1
    339          	MyBOOK* myBook = (MyBOOK*) bk;
    340          	wchar_t ustr[64];
    341          	int i;
    342          	*_Geterrno() = 0;
   \   00000010   ........           _BLF     _Geterrno,??_Geterrno??rA
   \   00000014   0010A0E3           MOV      R1,#+0
   \   00000018   001080E5           STR      R1,[R0, #+0]
    343          	i = wcstol( string, 0, 10 );
   \   0000001C   0A20A0E3           MOV      R2,#+10
   \   00000020   0500A0E1           MOV      R0,R5
   \   00000024   ........           _BLF     wcstol,??wcstol??rA
   \   00000028   0050A0E1           MOV      R5,R0
    344          	if( i < (int) myBook->cur_hp.signedint->min || i > (int) myBook->cur_hp.signedint->max || *_Geterrno() == ERANGE )
   \   0000002C   540094E5           LDR      R0,[R4, #+84]
   \   00000030   240090E5           LDR      R0,[R0, #+36]
   \   00000034   000055E1           CMP      R5,R0
   \   00000038   070000BA           BLT      ??OnOkCreateSignedNumberGui_1
   \   0000003C   540094E5           LDR      R0,[R4, #+84]
   \   00000040   280090E5           LDR      R0,[R0, #+40]
   \   00000044   050050E1           CMP      R0,R5
   \   00000048   030000BA           BLT      ??OnOkCreateSignedNumberGui_1
   \   0000004C   ........           _BLF     _Geterrno,??_Geterrno??rA
   \   00000050   000090E5           LDR      R0,[R0, #+0]
   \   00000054   220050E3           CMP      R0,#+34
   \   00000058   1A00001A           BNE      ??OnOkCreateSignedNumberGui_2
    345          	{
    346          		snwprintf( ustr, MAXELEMS( ustr ) - 1, L"min: %d\nmax: %d", myBook->cur_hp.signedint->min, myBook->cur_hp.signedint->max );
   \                     ??OnOkCreateSignedNumberGui_1:
   \   0000005C   540094E5           LDR      R0,[R4, #+84]
   \   00000060   8C209FE5           LDR      R2,??OnOkCreateSignedNumberGui_3  ;; `?<Constant L"\\x6d\\x69\\x6e\\x3a\\x20\\x25\\x64\\xa\\x`
   \   00000064   280090E5           LDR      R0,[R0, #+40]
   \   00000068   3F10A0E3           MOV      R1,#+63
   \   0000006C   01002DE9           PUSH     {R0}
   \   00000070   540094E5           LDR      R0,[R4, #+84]
    347          		MessageBox( EMPTY_TEXTID, TextID_Create( ustr, ENC_UCS2, TEXTID_ANY_LEN ), NOIMAGE, 1 , 5000, bk );
   \   00000074   FF50A0E3           MOV      R5,#+255
   \   00000078   243090E5           LDR      R3,[R0, #+36]
   \   0000007C   04008DE2           ADD      R0,SP,#+4
   \   00000080   150100EF           SWI      +277
   \   00000084   FF5C85E3           ORR      R5,R5,#0xFF00
   \   00000088   0520A0E1           MOV      R2,R5
   \   0000008C   0010A0E3           MOV      R1,#+0
   \   00000090   04008DE2           ADD      R0,SP,#+4
   \   00000094   5D0100EF           SWI      +349
   \   00000098   10002DE9           PUSH     {R4}
   \   0000009C   8810A0E3           MOV      R1,#+136
   \   000000A0   4C1D81E3           ORR      R1,R1,#0x1300
   \   000000A4   02002DE9           PUSH     {R1}
   \   000000A8   0130A0E3           MOV      R3,#+1
   \   000000AC   0520A0E1           MOV      R2,R5
   \   000000B0   0010A0E1           MOV      R1,R0
   \   000000B4   9004E0E3           MVN      R0,#-1879048192
   \   000000B8   570200EF           SWI      +599
   \   000000BC   0CD08DE2           ADD      SP,SP,#+12
   \   000000C0   80D08DE2           ADD      SP,SP,#+128
   \   000000C4   3080BDE8           POP      {R4,R5,PC}
    348          	}
    349          	else
    350          	{
    351          		myBook->cur_hp.signedint->signedint = i;
   \                     ??OnOkCreateSignedNumberGui_2:
   \   000000C8   540094E5           LDR      R0,[R4, #+84]
   \   000000CC   2C5080E5           STR      R5,[R0, #+44]
    352          		FREE_GUI( myBook->text_input );
   \   000000D0   200094E5           LDR      R0,[R4, #+32]
   \   000000D4   000050E3           CMP      R0,#+0
   \   000000D8   0100000A           BEQ      ??OnOkCreateSignedNumberGui_4
   \   000000DC   CE0100EF           SWI      +462
   \   000000E0   200084E5           STR      R0,[R4, #+32]
    353          		RefreshEdList(bk);
   \                     ??OnOkCreateSignedNumberGui_4:
   \   000000E4   0400A0E1           MOV      R0,R4
   \   000000E8   ........           BL       ??RefreshEdList
    354          	}
    355          }
   \   000000EC   80D08DE2           ADD      SP,SP,#+128
   \   000000F0   3080BDE8           POP      {R4,R5,PC}       ;; return
   \                     ??OnOkCreateSignedNumberGui_3:
   \   000000F4   ........           DC32     `?<Constant L"\\x6d\\x69\\x6e\\x3a\\x20\\x25\\x64\\xa\\x`
    356          

   \                                 In segment CODE, align 4, keep-with-next
    357          void CreateSignedNumberInput( MyBOOK* myBook )
    358          {
   \                     ??CreateSignedNumberInput:
   \   00000000   10402DE9           PUSH     {R4,LR}
   \   00000004   80D04DE2           SUB      SP,SP,#+128
    359          	wchar_t ustr[64];
    360          	TEXTID header_name;
    361          	win12512unicode( ustr, myBook->cur_hp.signedint->name, MAXELEMS( ustr ) - 1 );
   \   00000008   3F20A0E3           MOV      R2,#+63
   \   0000000C   0040A0E1           MOV      R4,R0
   \   00000010   540094E5           LDR      R0,[R4, #+84]
   \   00000014   041080E2           ADD      R1,R0,#+4
   \   00000018   0D00A0E1           MOV      R0,SP
   \   0000001C   ........           BL       ??win12512unicode
    362          	header_name = TextID_Create( ustr, ENC_UCS2, TEXTID_ANY_LEN );
   \   00000020   FF20A0E3           MOV      R2,#+255
   \   00000024   FF2C82E3           ORR      R2,R2,#0xFF00
   \   00000028   0010A0E3           MOV      R1,#+0
   \   0000002C   0D00A0E1           MOV      R0,SP
   \   00000030   5D0100EF           SWI      +349
    363          	myBook->text_input = CreateStringInputVA( 0,
    364          											 VAR_HEADER_TEXT( header_name ),
    365          											 VAR_STRINP_MODE( IT_INTEGER ),
    366          											 VAR_BOOK( myBook ),
    367          											 VAR_STRINP_MIN_INT_VAL( myBook->cur_hp.signedint->min ),
    368          											 VAR_STRINP_MAX_INT_VAL( myBook->cur_hp.signedint->max ),
    369          											 VAR_STRINP_SET_INT_VAL( myBook->cur_hp.signedint->signedint ),
    370          											 VAR_PREV_ACTION_PROC( OnBackCreateTextInputGui ),
    371          											 VAR_OK_PROC( OnOkCreateSignedNumberGui ),
    372          											 0 );
   \   00000034   541094E5           LDR      R1,[R4, #+84]
   \   00000038   ........           LDR      R3,??DataTable38  ;; VAR_ARG_STRINP_MODE
   \   0000003C   0020A0E3           MOV      R2,#+0
   \   00000040   04002DE9           PUSH     {R2}
   \   00000044   80209FE5           LDR      R2,??CreateSignedNumberInput_1  ;; ??OnOkCreateSignedNumberGui
   \   00000048   04002DE9           PUSH     {R2}
   \   0000004C   ........           LDR      R2,??DataTable33  ;; VAR_ARG_CALL_BACK_OK
   \   00000050   04002DE9           PUSH     {R2}
   \   00000054   ........           LDR      R2,??DataTable34  ;; ??OnBackCreateTextInputGui
   \   00000058   04002DE9           PUSH     {R2}
   \   0000005C   ........           LDR      R2,??DataTable35  ;; VAR_ARG_CALL_BACK_PREV_ACT
   \   00000060   04002DE9           PUSH     {R2}
   \   00000064   2C2091E5           LDR      R2,[R1, #+44]
   \   00000068   04002DE9           PUSH     {R2}
   \   0000006C   5C209FE5           LDR      R2,??CreateSignedNumberInput_1+0x4  ;; VAR_ARG_STRINP_SET_INT_VAL
   \   00000070   04002DE9           PUSH     {R2}
   \   00000074   282091E5           LDR      R2,[R1, #+40]
   \   00000078   04002DE9           PUSH     {R2}
   \   0000007C   50209FE5           LDR      R2,??CreateSignedNumberInput_1+0x8  ;; VAR_ARG_STRINP_MAX_INT_VAL
   \   00000080   04002DE9           PUSH     {R2}
   \   00000084   241091E5           LDR      R1,[R1, #+36]
   \   00000088   0020A0E1           MOV      R2,R0
   \   0000008C   02002DE9           PUSH     {R1}
   \   00000090   40109FE5           LDR      R1,??CreateSignedNumberInput_1+0xC  ;; VAR_ARG_STRINP_MIN_INT_VAL
   \   00000094   0000A0E3           MOV      R0,#+0
   \   00000098   02002DE9           PUSH     {R1}
   \   0000009C   0410A0E1           MOV      R1,R4
   \   000000A0   02002DE9           PUSH     {R1}
   \   000000A4   ........           LDR      R1,??DataTable37  ;; VAR_ARG_BOOK
   \   000000A8   02002DE9           PUSH     {R1}
   \   000000AC   0210A0E3           MOV      R1,#+2
   \   000000B0   02002DE9           PUSH     {R1}
   \   000000B4   ........           LDR      R1,??DataTable40  ;; VAR_ARG_HTEXT
   \   000000B8   440100EF           SWI      +324
   \   000000BC   38D08DE2           ADD      SP,SP,#+56
   \   000000C0   200084E5           STR      R0,[R4, #+32]
    373          }
   \   000000C4   80D08DE2           ADD      SP,SP,#+128
   \   000000C8   1080BDE8           POP      {R4,PC}          ;; return
   \                     ??CreateSignedNumberInput_1:
   \   000000CC   ........           DC32     ??OnOkCreateSignedNumberGui
   \   000000D0   ........           DC32     VAR_ARG_STRINP_SET_INT_VAL
   \   000000D4   ........           DC32     VAR_ARG_STRINP_MAX_INT_VAL
   \   000000D8   ........           DC32     VAR_ARG_STRINP_MIN_INT_VAL
    374          
    375          

   \                                 In segment CODE, align 4, keep-with-next
    376          void OnOkCreateWinOrPassGui( BOOK* bk, wchar_t* string, int len )
    377          {
   \                     ??OnOkCreateWinOrPassGui:
   \   00000000   30402DE9           PUSH     {R4,R5,LR}
   \   00000004   80D04DE2           SUB      SP,SP,#+128
   \   00000008   0040A0E1           MOV      R4,R0
    378          	MyBOOK* myBook = (MyBOOK*) bk;
    379          	wchar_t ustr[64];
    380          	if( len < myBook->cur_hp.str->min || len > myBook->cur_hp.str->max )
   \   0000000C   540094E5           LDR      R0,[R4, #+84]
   \   00000010   240090E5           LDR      R0,[R0, #+36]
   \   00000014   000052E1           CMP      R2,R0
   \   00000018   0300003A           BCC      ??OnOkCreateWinOrPassGui_1
   \   0000001C   540094E5           LDR      R0,[R4, #+84]
   \   00000020   280090E5           LDR      R0,[R0, #+40]
   \   00000024   020050E1           CMP      R0,R2
   \   00000028   1A00002A           BCS      ??OnOkCreateWinOrPassGui_2
    381          	{
    382          		snwprintf( ustr, MAXELEMS( ustr ) - 1, L"min_string_len: %d\nmax_string_len: %d", myBook->cur_hp.str->min, myBook->cur_hp.str->max );
   \                     ??OnOkCreateWinOrPassGui_1:
   \   0000002C   540094E5           LDR      R0,[R4, #+84]
   \   00000030   ........           LDR      R2,??DataTable30  ;; `?<Constant L"\\x6d\\x69\\x6e\\x5f\\x73\\x74\\x72\\x69\\`
   \   00000034   280090E5           LDR      R0,[R0, #+40]
   \   00000038   3F10A0E3           MOV      R1,#+63
   \   0000003C   01002DE9           PUSH     {R0}
   \   00000040   540094E5           LDR      R0,[R4, #+84]
    383          		MessageBox( EMPTY_TEXTID, TextID_Create( ustr, ENC_UCS2, TEXTID_ANY_LEN ), NOIMAGE, 1 , 5000, bk );
   \   00000044   FF50A0E3           MOV      R5,#+255
   \   00000048   243090E5           LDR      R3,[R0, #+36]
   \   0000004C   04008DE2           ADD      R0,SP,#+4
   \   00000050   150100EF           SWI      +277
   \   00000054   FF5C85E3           ORR      R5,R5,#0xFF00
   \   00000058   0520A0E1           MOV      R2,R5
   \   0000005C   0010A0E3           MOV      R1,#+0
   \   00000060   04008DE2           ADD      R0,SP,#+4
   \   00000064   5D0100EF           SWI      +349
   \   00000068   10002DE9           PUSH     {R4}
   \   0000006C   8810A0E3           MOV      R1,#+136
   \   00000070   4C1D81E3           ORR      R1,R1,#0x1300
   \   00000074   02002DE9           PUSH     {R1}
   \   00000078   0130A0E3           MOV      R3,#+1
   \   0000007C   0520A0E1           MOV      R2,R5
   \   00000080   0010A0E1           MOV      R1,R0
   \   00000084   9004E0E3           MVN      R0,#-1879048192
   \   00000088   570200EF           SWI      +599
   \   0000008C   0CD08DE2           ADD      SP,SP,#+12
   \   00000090   80D08DE2           ADD      SP,SP,#+128
   \   00000094   3080BDE8           POP      {R4,R5,PC}
    384          	}
    385          	else
    386          	{
    387          		unicode2win1251( &myBook->cur_hp.str->chars[0], string, myBook->cur_hp.str->max );
   \                     ??OnOkCreateWinOrPassGui_2:
   \   00000098   540094E5           LDR      R0,[R4, #+84]
   \   0000009C   282090E5           LDR      R2,[R0, #+40]
   \   000000A0   2C0080E2           ADD      R0,R0,#+44
   \   000000A4   ........           BL       ??unicode2win1251
    388          		FREE_GUI( myBook->text_input );
   \   000000A8   200094E5           LDR      R0,[R4, #+32]
   \   000000AC   000050E3           CMP      R0,#+0
   \   000000B0   0100000A           BEQ      ??OnOkCreateWinOrPassGui_3
   \   000000B4   CE0100EF           SWI      +462
   \   000000B8   200084E5           STR      R0,[R4, #+32]
    389          		RefreshEdList(bk);
   \                     ??OnOkCreateWinOrPassGui_3:
   \   000000BC   0400A0E1           MOV      R0,R4
   \   000000C0   ........           BL       ??RefreshEdList
    390          	}
    391          }
   \   000000C4   80D08DE2           ADD      SP,SP,#+128
   \   000000C8   3080BDE8           POP      {R4,R5,PC}       ;; return
    392          

   \                                 In segment CODE, align 4, keep-with-next
    393          void CreateWinOrPassSI( MyBOOK* myBook, int is_pass )
    394          {
   \                     ??CreateWinOrPassSI:
   \   00000000   F0432DE9           PUSH     {R4-R9,LR}
   \   00000004   0040A0E1           MOV      R4,R0
    395          	wchar_t* ustr;
    396          	int len;
    397          	TEXTID text, header_name;
    398          	len = myBook->cur_hp.str->max;
   \   00000008   540094E5           LDR      R0,[R4, #+84]
   \   0000000C   0150A0E1           MOV      R5,R1
   \   00000010   288090E5           LDR      R8,[R0, #+40]
    399          
    400          	if( len < 63 )
    401          		len = 63;
    402          
    403          	ustr = new wchar_t[len + 1];
    404          	win12512unicode( ustr, myBook->cur_hp.str->name, len );
    405          	header_name = TextID_Create( ustr, ENC_UCS2, TEXTID_ANY_LEN );
   \   00000014   FF90A0E3           MOV      R9,#+255
   \   00000018   3F0058E3           CMP      R8,#+63
   \   0000001C   3F80A0B3           MOVLT    R8,#+63
   \   00000020   010088E2           ADD      R0,R8,#+1
   \   00000024   8000A0E1           LSL      R0,R0,#+1
   \   00000028   ........           _BLF     `??operator new[]`,`??operator new[]??rA`
   \   0000002C   0060A0E1           MOV      R6,R0
   \   00000030   540094E5           LDR      R0,[R4, #+84]
   \   00000034   0820A0E1           MOV      R2,R8
   \   00000038   041080E2           ADD      R1,R0,#+4
   \   0000003C   0600A0E1           MOV      R0,R6
   \   00000040   ........           BL       ??win12512unicode
   \   00000044   FF9C89E3           ORR      R9,R9,#0xFF00
   \   00000048   0920A0E1           MOV      R2,R9
   \   0000004C   0010A0E3           MOV      R1,#+0
   \   00000050   0600A0E1           MOV      R0,R6
   \   00000054   5D0100EF           SWI      +349
   \   00000058   0070A0E1           MOV      R7,R0
    406          	win12512unicode( ustr, &myBook->cur_hp.str->chars[0], len );
   \   0000005C   540094E5           LDR      R0,[R4, #+84]
   \   00000060   0820A0E1           MOV      R2,R8
   \   00000064   2C1080E2           ADD      R1,R0,#+44
   \   00000068   0600A0E1           MOV      R0,R6
   \   0000006C   ........           BL       ??win12512unicode
    407          	text = TextID_Create( ustr, ENC_UCS2, TEXTID_ANY_LEN );
   \   00000070   0920A0E1           MOV      R2,R9
   \   00000074   0010A0E3           MOV      R1,#+0
   \   00000078   0600A0E1           MOV      R0,R6
   \   0000007C   5D0100EF           SWI      +349
    408          	myBook->text_input = CreateStringInputVA( 0,
    409          											 VAR_HEADER_TEXT( header_name ),
    410          											 VAR_STRINP_MIN_LEN( myBook->cur_hp.str->min ),
    411          											 VAR_STRINP_MAX_LEN( myBook->cur_hp.str->max ),
    412          											 VAR_STRINP_MODE( IT_STRING ),
    413          											 VAR_BOOK( myBook ),
    414          											 VAR_STRINP_TEXT( text ),
    415          											 VAR_PREV_ACTION_PROC( OnBackCreateTextInputGui ),
    416          											 VAR_OK_PROC( OnOkCreateWinOrPassGui ),
    417          											 VAR_STRINP_IS_PASS_MODE( is_pass ),
    418          											 0 );
   \   00000080   541094E5           LDR      R1,[R4, #+84]
   \   00000084   ........           LDR      R3,??DataTable31  ;; VAR_ARG_STRINP_MIN_LEN
   \   00000088   0020A0E3           MOV      R2,#+0
   \   0000008C   04002DE9           PUSH     {R2}
   \   00000090   ........           LDR      R2,??DataTable32  ;; VAR_ARG_STRINP_IS_PASS_MODE
   \   00000094   20002DE9           PUSH     {R5}
   \   00000098   04002DE9           PUSH     {R2}
   \   0000009C   80209FE5           LDR      R2,??CreateWinOrPassSI_1  ;; ??OnOkCreateWinOrPassGui
   \   000000A0   04002DE9           PUSH     {R2}
   \   000000A4   ........           LDR      R2,??DataTable33  ;; VAR_ARG_CALL_BACK_OK
   \   000000A8   04002DE9           PUSH     {R2}
   \   000000AC   ........           LDR      R2,??DataTable34  ;; ??OnBackCreateTextInputGui
   \   000000B0   04002DE9           PUSH     {R2}
   \   000000B4   ........           LDR      R2,??DataTable35  ;; VAR_ARG_CALL_BACK_PREV_ACT
   \   000000B8   04002DE9           PUSH     {R2}
   \   000000BC   01002DE9           PUSH     {R0}
   \   000000C0   ........           LDR      R0,??DataTable36  ;; VAR_ARG_STRINP_TEXT
   \   000000C4   0720A0E1           MOV      R2,R7
   \   000000C8   01002DE9           PUSH     {R0}
   \   000000CC   0400A0E1           MOV      R0,R4
   \   000000D0   01002DE9           PUSH     {R0}
   \   000000D4   ........           LDR      R0,??DataTable37  ;; VAR_ARG_BOOK
   \   000000D8   01002DE9           PUSH     {R0}
   \   000000DC   0100A0E3           MOV      R0,#+1
   \   000000E0   01002DE9           PUSH     {R0}
   \   000000E4   ........           LDR      R0,??DataTable38  ;; VAR_ARG_STRINP_MODE
   \   000000E8   01002DE9           PUSH     {R0}
   \   000000EC   280091E5           LDR      R0,[R1, #+40]
   \   000000F0   01002DE9           PUSH     {R0}
   \   000000F4   ........           LDR      R0,??DataTable39  ;; VAR_ARG_STRINP_MAX_LEN
   \   000000F8   01002DE9           PUSH     {R0}
   \   000000FC   240091E5           LDR      R0,[R1, #+36]
   \   00000100   ........           LDR      R1,??DataTable40  ;; VAR_ARG_HTEXT
   \   00000104   01002DE9           PUSH     {R0}
   \   00000108   0000A0E3           MOV      R0,#+0
   \   0000010C   440100EF           SWI      +324
   \   00000110   40D08DE2           ADD      SP,SP,#+64
   \   00000114   200084E5           STR      R0,[R4, #+32]
    419          	delete ustr;
   \   00000118   0600A0E1           MOV      R0,R6
   \   0000011C   ........           _BLF     `??operator delete`,`??operator delete??rA`
    420          }
   \   00000120   F083BDE8           POP      {R4-R9,PC}       ;; return
   \                     ??CreateWinOrPassSI_1:
   \   00000124   ........           DC32     ??OnOkCreateWinOrPassGui
    421          

   \                                 In segment CODE, align 4, keep-with-next
    422          void OnOkCreateUnicodeGui( BOOK* bk, wchar_t* string, int len )
    423          {
   \                     ??OnOkCreateUnicodeGui:
   \   00000000   30402DE9           PUSH     {R4,R5,LR}
   \   00000004   80D04DE2           SUB      SP,SP,#+128
   \   00000008   0040A0E1           MOV      R4,R0
    424          	MyBOOK* myBook = (MyBOOK*) bk;
    425          	wchar_t ustr[64];
    426          	if( len < myBook->cur_hp.wstr->min || len > myBook->cur_hp.wstr->max )
   \   0000000C   540094E5           LDR      R0,[R4, #+84]
   \   00000010   240090E5           LDR      R0,[R0, #+36]
   \   00000014   000052E1           CMP      R2,R0
   \   00000018   0300003A           BCC      ??OnOkCreateUnicodeGui_1
   \   0000001C   540094E5           LDR      R0,[R4, #+84]
   \   00000020   280090E5           LDR      R0,[R0, #+40]
   \   00000024   020050E1           CMP      R0,R2
   \   00000028   1A00002A           BCS      ??OnOkCreateUnicodeGui_2
    427          	{
    428          		snwprintf( ustr, MAXELEMS( ustr ) - 1, L"min_string_len: %d\nmax_string_len: %d", myBook->cur_hp.wstr->min, myBook->cur_hp.wstr->max );
   \                     ??OnOkCreateUnicodeGui_1:
   \   0000002C   540094E5           LDR      R0,[R4, #+84]
   \   00000030   ........           LDR      R2,??DataTable30  ;; `?<Constant L"\\x6d\\x69\\x6e\\x5f\\x73\\x74\\x72\\x69\\`
   \   00000034   280090E5           LDR      R0,[R0, #+40]
   \   00000038   3F10A0E3           MOV      R1,#+63
   \   0000003C   01002DE9           PUSH     {R0}
   \   00000040   540094E5           LDR      R0,[R4, #+84]
    429          		MessageBox( EMPTY_TEXTID, TextID_Create( ustr, ENC_UCS2, TEXTID_ANY_LEN ), NOIMAGE, 1 , 5000, bk );
   \   00000044   FF50A0E3           MOV      R5,#+255
   \   00000048   243090E5           LDR      R3,[R0, #+36]
   \   0000004C   04008DE2           ADD      R0,SP,#+4
   \   00000050   150100EF           SWI      +277
   \   00000054   FF5C85E3           ORR      R5,R5,#0xFF00
   \   00000058   0520A0E1           MOV      R2,R5
   \   0000005C   0010A0E3           MOV      R1,#+0
   \   00000060   04008DE2           ADD      R0,SP,#+4
   \   00000064   5D0100EF           SWI      +349
   \   00000068   10002DE9           PUSH     {R4}
   \   0000006C   8810A0E3           MOV      R1,#+136
   \   00000070   4C1D81E3           ORR      R1,R1,#0x1300
   \   00000074   02002DE9           PUSH     {R1}
   \   00000078   0130A0E3           MOV      R3,#+1
   \   0000007C   0520A0E1           MOV      R2,R5
   \   00000080   0010A0E1           MOV      R1,R0
   \   00000084   9004E0E3           MVN      R0,#-1879048192
   \   00000088   570200EF           SWI      +599
   \   0000008C   0CD08DE2           ADD      SP,SP,#+12
   \   00000090   80D08DE2           ADD      SP,SP,#+128
   \   00000094   3080BDE8           POP      {R4,R5,PC}
    430          	}
    431          	else
    432          	{
    433          		// unicode2win1251( ( char*)hp + sizeof( CFG_HDR ), string, hp->max );
    434          		wstrncpy( &myBook->cur_hp.wstr->chars[0], string, myBook->cur_hp.wstr->max - 1 );
   \                     ??OnOkCreateUnicodeGui_2:
   \   00000098   540094E5           LDR      R0,[R4, #+84]
   \   0000009C   280090E5           LDR      R0,[R0, #+40]
   \   000000A0   012040E2           SUB      R2,R0,#+1
   \   000000A4   540094E5           LDR      R0,[R4, #+84]
   \   000000A8   2C0080E2           ADD      R0,R0,#+44
   \   000000AC   530100EF           SWI      +339
    435          		FREE_GUI( myBook->text_input );
   \   000000B0   200094E5           LDR      R0,[R4, #+32]
   \   000000B4   000050E3           CMP      R0,#+0
   \   000000B8   0100000A           BEQ      ??OnOkCreateUnicodeGui_3
   \   000000BC   CE0100EF           SWI      +462
   \   000000C0   200084E5           STR      R0,[R4, #+32]
    436          		RefreshEdList(bk);
   \                     ??OnOkCreateUnicodeGui_3:
   \   000000C4   0400A0E1           MOV      R0,R4
   \   000000C8   ........           BL       ??RefreshEdList
    437          	}
    438          }
   \   000000CC   80D08DE2           ADD      SP,SP,#+128
   \   000000D0   3080BDE8           POP      {R4,R5,PC}       ;; return
    439          

   \                                 In segment CODE, align 4, keep-with-next
    440          void UnicodeOnSelFile( BOOK* bk, GUI* )
    441          {
   \                     ??UnicodeOnSelFile:
   \   00000000   10402DE9           PUSH     {R4,LR}
   \   00000004   08D04DE2           SUB      SP,SP,#+8
    442          	MyBOOK* myBook = (MyBOOK*) bk;
    443          	myBook->type = SFILE;
    444          	wchar_t* str;
    445          	u16 len;
    446          	StringInput_GetStringAndLen( myBook->text_input, &str, &len );
   \   00000008   04208DE2           ADD      R2,SP,#+4
   \   0000000C   0040A0E1           MOV      R4,R0
   \   00000010   0100A0E3           MOV      R0,#+1
   \   00000014   4C0084E5           STR      R0,[R4, #+76]
   \   00000018   200094E5           LDR      R0,[R4, #+32]
   \   0000001C   0D10A0E1           MOV      R1,SP
   \   00000020   D00100EF           SWI      +464
    447          	myBook->selectf = CreateFileFolderSelect( myBook, str );
   \   00000024   00109DE5           LDR      R1,[SP, #+0]
   \   00000028   0400A0E1           MOV      R0,R4
   \   0000002C   ........           _BLF     ??CreateFileFolderSelect,??CreateFileFolderSelect??rA
   \   00000030   480084E5           STR      R0,[R4, #+72]
    448          }
   \   00000034   1380BDE8           POP      {R0,R1,R4,PC}    ;; return
    449          

   \                                 In segment CODE, align 4, keep-with-next
    450          void UnicodeOnSelFolder( BOOK* bk, GUI* )
    451          {
   \                     ??UnicodeOnSelFolder:
   \   00000000   10402DE9           PUSH     {R4,LR}
   \   00000004   08D04DE2           SUB      SP,SP,#+8
    452          	MyBOOK* myBook = (MyBOOK*) bk;
    453          	myBook->type = SFOLDER;
    454          	wchar_t* str;
    455          	u16 len;
    456          	StringInput_GetStringAndLen( myBook->text_input, &str, &len );
   \   00000008   04208DE2           ADD      R2,SP,#+4
   \   0000000C   0040A0E1           MOV      R4,R0
   \   00000010   0000A0E3           MOV      R0,#+0
   \   00000014   4C0084E5           STR      R0,[R4, #+76]
   \   00000018   200094E5           LDR      R0,[R4, #+32]
   \   0000001C   0D10A0E1           MOV      R1,SP
   \   00000020   D00100EF           SWI      +464
    457          	myBook->selectf = CreateFileFolderSelect( myBook, str );
   \   00000024   00109DE5           LDR      R1,[SP, #+0]
   \   00000028   0400A0E1           MOV      R0,R4
   \   0000002C   ........           _BLF     ??CreateFileFolderSelect,??CreateFileFolderSelect??rA
   \   00000030   480084E5           STR      R0,[R4, #+72]
    458          }
   \   00000034   1380BDE8           POP      {R0,R1,R4,PC}    ;; return
    459          

   \                                 In segment CODE, align 4, keep-with-next
    460          void CreateUnicodeSI( MyBOOK* myBook, int is_pass )
    461          {
   \                     ??CreateUnicodeSI:
   \   00000000   F0472DE9           PUSH     {R4-R10,LR}
   \   00000004   04D04DE2           SUB      SP,SP,#+4
   \   00000008   0040A0E1           MOV      R4,R0
   \   0000000C   0150A0E1           MOV      R5,R1
    462          	wchar_t* ustr;
    463          	int len;
    464          	TEXTID text, header_name, sel_file, sel_folder;
    465          	int tmp=EMPTY_TEXTID;
   \   00000010   9014E0E3           MVN      R1,#-1879048192
   \   00000014   00108DE5           STR      R1,[SP, #+0]
    466          
    467          	len = myBook->cur_hp.wstr->max;
   \   00000018   540094E5           LDR      R0,[R4, #+84]
    468          
    469          	if( len < 63 )
    470          		len = 63;
    471          
    472          	ustr = new wchar_t[len + 1];
    473          	win12512unicode( ustr, myBook->cur_hp.wstr->name, len );
    474          	header_name = TextID_Create( ustr, ENC_UCS2, TEXTID_ANY_LEN );
   \   0000001C   FF90A0E3           MOV      R9,#+255
   \   00000020   288090E5           LDR      R8,[R0, #+40]
   \   00000024   FF9C89E3           ORR      R9,R9,#0xFF00
   \   00000028   3F0058E3           CMP      R8,#+63
   \   0000002C   3F80A0B3           MOVLT    R8,#+63
   \   00000030   010088E2           ADD      R0,R8,#+1
   \   00000034   8000A0E1           LSL      R0,R0,#+1
   \   00000038   ........           _BLF     `??operator new[]`,`??operator new[]??rA`
   \   0000003C   0060A0E1           MOV      R6,R0
   \   00000040   540094E5           LDR      R0,[R4, #+84]
   \   00000044   0820A0E1           MOV      R2,R8
   \   00000048   041080E2           ADD      R1,R0,#+4
   \   0000004C   0600A0E1           MOV      R0,R6
   \   00000050   ........           BL       ??win12512unicode
   \   00000054   0920A0E1           MOV      R2,R9
   \   00000058   0010A0E3           MOV      R1,#+0
   \   0000005C   0600A0E1           MOV      R0,R6
   \   00000060   5D0100EF           SWI      +349
   \   00000064   0070A0E1           MOV      R7,R0
    475          	// win12512unicode( ustr, ( char*)hp + sizeof( CFG_HDR ), len );
    476          	wstrncpy( ustr, &myBook->cur_hp.wstr->chars[0], len );
   \   00000068   540094E5           LDR      R0,[R4, #+84]
   \   0000006C   0820A0E1           MOV      R2,R8
   \   00000070   2C1080E2           ADD      R1,R0,#+44
   \   00000074   0600A0E1           MOV      R0,R6
   \   00000078   530100EF           SWI      +339
    477          	text = TextID_Create( ustr, ENC_UCS2, TEXTID_ANY_LEN );
   \   0000007C   0920A0E1           MOV      R2,R9
   \   00000080   0010A0E3           MOV      R1,#+0
   \   00000084   0600A0E1           MOV      R0,R6
   \   00000088   5D0100EF           SWI      +349
   \   0000008C   0080A0E1           MOV      R8,R0
    478          	textidname2id( L"MSG_UI_MOVE_MESSAGE_SELECT_FOLDER_TXT", - 1, &tmp );
   \   00000090   44019FE5           LDR      R0,??CreateUnicodeSI_1  ;; `?<Constant L"\\x57\\x41\\x50\\x5f\\x53\\x45\\x4c\\x45\\` + 40
   \   00000094   0D20A0E1           MOV      R2,SP
   \   00000098   0010E0E3           MVN      R1,#+0
   \   0000009C   870200EF           SWI      +647
    479          	if (tmp==EMPTY_TEXTID) tmp = TextID_Create(L"Select folder",ENC_UCS2,TEXTID_ANY_LEN);
   \   000000A0   00009DE5           LDR      R0,[SP, #+0]
   \   000000A4   9014E0E3           MVN      R1,#-1879048192
   \   000000A8   010050E1           CMP      R0,R1
   \   000000AC   0400001A           BNE      ??CreateUnicodeSI_2
   \   000000B0   28019FE5           LDR      R0,??CreateUnicodeSI_1+0x4  ;; `?<Constant L"\\x57\\x41\\x50\\x5f\\x53\\x45\\x4c\\x45\\` + 116
   \   000000B4   0920A0E1           MOV      R2,R9
   \   000000B8   0010A0E3           MOV      R1,#+0
   \   000000BC   5D0100EF           SWI      +349
   \   000000C0   00008DE5           STR      R0,[SP, #+0]
    480          	sel_folder = tmp;
   \                     ??CreateUnicodeSI_2:
   \   000000C4   00909DE5           LDR      R9,[SP, #+0]
    481          	textidname2id( L"WAP_SELECT_FILE_TXT", - 1, &tmp );
   \   000000C8   14019FE5           LDR      R0,??CreateUnicodeSI_1+0x8  ;; `?<Constant L"\\x57\\x41\\x50\\x5f\\x53\\x45\\x4c\\x45\\`
   \   000000CC   0D20A0E1           MOV      R2,SP
   \   000000D0   0010E0E3           MVN      R1,#+0
   \   000000D4   870200EF           SWI      +647
    482          	sel_file = tmp;
   \   000000D8   00A09DE5           LDR      R10,[SP, #+0]
    483          	myBook->text_input = CreateStringInputVA( 0,
    484          											 VAR_HEADER_TEXT( header_name ),
    485          											 VAR_STRINP_MIN_LEN( myBook->cur_hp.wstr->min ),
    486          											 VAR_STRINP_MAX_LEN( myBook->cur_hp.wstr->max ),
    487          											 VAR_STRINP_MODE( IT_STRING ),
    488          											 VAR_BOOK( myBook ),
    489          											 VAR_STRINP_TEXT( text ),
    490          											 VAR_PREV_ACTION_PROC( OnBackCreateTextInputGui ),
    491          											 VAR_OK_PROC( OnOkCreateUnicodeGui ),
    492          											 VAR_STRINP_IS_PASS_MODE( is_pass ),
    493          											 0 );
   \   000000DC   540094E5           LDR      R0,[R4, #+84]
   \   000000E0   ........           LDR      R3,??DataTable31  ;; VAR_ARG_STRINP_MIN_LEN
   \   000000E4   0010A0E3           MOV      R1,#+0
   \   000000E8   02002DE9           PUSH     {R1}
   \   000000EC   ........           LDR      R1,??DataTable32  ;; VAR_ARG_STRINP_IS_PASS_MODE
   \   000000F0   20002DE9           PUSH     {R5}
   \   000000F4   02002DE9           PUSH     {R1}
   \   000000F8   E8109FE5           LDR      R1,??CreateUnicodeSI_1+0xC  ;; ??OnOkCreateUnicodeGui
   \   000000FC   0720A0E1           MOV      R2,R7
   \   00000100   02002DE9           PUSH     {R1}
   \   00000104   ........           LDR      R1,??DataTable33  ;; VAR_ARG_CALL_BACK_OK
   \   00000108   02002DE9           PUSH     {R1}
   \   0000010C   ........           LDR      R1,??DataTable34  ;; ??OnBackCreateTextInputGui
   \   00000110   02002DE9           PUSH     {R1}
   \   00000114   ........           LDR      R1,??DataTable35  ;; VAR_ARG_CALL_BACK_PREV_ACT
   \   00000118   02002DE9           PUSH     {R1}
   \   0000011C   ........           LDR      R1,??DataTable36  ;; VAR_ARG_STRINP_TEXT
   \   00000120   00012DE9           PUSH     {R8}
   \   00000124   02002DE9           PUSH     {R1}
   \   00000128   0410A0E1           MOV      R1,R4
   \   0000012C   02002DE9           PUSH     {R1}
   \   00000130   ........           LDR      R1,??DataTable37  ;; VAR_ARG_BOOK
   \   00000134   02002DE9           PUSH     {R1}
   \   00000138   0110A0E3           MOV      R1,#+1
   \   0000013C   02002DE9           PUSH     {R1}
   \   00000140   ........           LDR      R1,??DataTable38  ;; VAR_ARG_STRINP_MODE
   \   00000144   02002DE9           PUSH     {R1}
   \   00000148   281090E5           LDR      R1,[R0, #+40]
   \   0000014C   02002DE9           PUSH     {R1}
   \   00000150   ........           LDR      R1,??DataTable39  ;; VAR_ARG_STRINP_MAX_LEN
   \   00000154   02002DE9           PUSH     {R1}
   \   00000158   240090E5           LDR      R0,[R0, #+36]
   \   0000015C   ........           LDR      R1,??DataTable40  ;; VAR_ARG_HTEXT
   \   00000160   01002DE9           PUSH     {R0}
   \   00000164   0000A0E3           MOV      R0,#+0
   \   00000168   440100EF           SWI      +324
    494          	GUIObject_SoftKeys_SetAction( myBook->text_input, 1, UnicodeOnSelFolder );
   \   0000016C   78209FE5           LDR      R2,??CreateUnicodeSI_1+0x10  ;; ??UnicodeOnSelFolder
   \   00000170   40D08DE2           ADD      SP,SP,#+64
   \   00000174   200084E5           STR      R0,[R4, #+32]
   \   00000178   0110A0E3           MOV      R1,#+1
   \   0000017C   4B0100EF           SWI      +331
    495          	GUIObject_SoftKeys_SetText( myBook->text_input, 1, sel_folder );
   \   00000180   200094E5           LDR      R0,[R4, #+32]
   \   00000184   0920A0E1           MOV      R2,R9
   \   00000188   0110A0E3           MOV      R1,#+1
   \   0000018C   4C0100EF           SWI      +332
    496          	StringInput_MenuItem_SetPriority( myBook->text_input, 0, 1 );
   \   00000190   200094E5           LDR      R0,[R4, #+32]
   \   00000194   0120A0E3           MOV      R2,#+1
   \   00000198   0010A0E3           MOV      R1,#+0
   \   0000019C   350300EF           SWI      +821
    497          	GUIObject_SoftKeys_SetAction( myBook->text_input, 2, UnicodeOnSelFile );
   \   000001A0   48209FE5           LDR      R2,??CreateUnicodeSI_1+0x14  ;; ??UnicodeOnSelFile
   \   000001A4   200094E5           LDR      R0,[R4, #+32]
   \   000001A8   0210A0E3           MOV      R1,#+2
   \   000001AC   4B0100EF           SWI      +331
    498          	GUIObject_SoftKeys_SetText( myBook->text_input, 2, sel_file );
   \   000001B0   200094E5           LDR      R0,[R4, #+32]
   \   000001B4   0A20A0E1           MOV      R2,R10
   \   000001B8   0210A0E3           MOV      R1,#+2
   \   000001BC   4C0100EF           SWI      +332
    499          	StringInput_MenuItem_SetPriority( myBook->text_input, 0, 2 );
   \   000001C0   200094E5           LDR      R0,[R4, #+32]
   \   000001C4   0220A0E3           MOV      R2,#+2
   \   000001C8   0010A0E3           MOV      R1,#+0
   \   000001CC   350300EF           SWI      +821
    500          	delete ustr;
   \   000001D0   0600A0E1           MOV      R0,R6
   \   000001D4   ........           _BLF     `??operator delete`,`??operator delete??rA`
    501          }
   \   000001D8   F187BDE8           POP      {R0,R4-R10,PC}   ;; return
   \                     ??CreateUnicodeSI_1:
   \   000001DC   ........           DC32     `?<Constant L"\\x57\\x41\\x50\\x5f\\x53\\x45\\x4c\\x45\\` + 40
   \   000001E0   ........           DC32     `?<Constant L"\\x57\\x41\\x50\\x5f\\x53\\x45\\x4c\\x45\\` + 116
   \   000001E4   ........           DC32     `?<Constant L"\\x57\\x41\\x50\\x5f\\x53\\x45\\x4c\\x45\\`
   \   000001E8   ........           DC32     ??OnOkCreateUnicodeGui
   \   000001EC   ........           DC32     ??UnicodeOnSelFolder
   \   000001F0   ........           DC32     ??UnicodeOnSelFile
    502          

   \                                 In segment CODE, align 4, keep-with-next
    503          void OnSelect1GuiBcfg( BOOK* bk, GUI* )
    504          {
   \                     ??OnSelect1GuiBcfg:
   \   00000000   70402DE9           PUSH     {R4-R6,LR}
   \   00000004   0040A0E1           MOV      R4,R0
    505          	MyBOOK* mbk = (MyBOOK*) bk;
    506          	BCFG_DATA* bdata = &mbk->bdata;
    507          	int item = ListMenu_GetSelectedItem( mbk->bcfg );
   \   00000008   180094E5           LDR      R0,[R4, #+24]
   \   0000000C   6C5084E2           ADD      R5,R4,#+108
   \   00000010   3E0100EF           SWI      +318
   \   00000014   0060A0E1           MOV      R6,R0
    508          	mbk->cur_hp.hdr = (CFG_HDR*) List_Get( mbk->list, item );
   \   00000018   500094E5           LDR      R0,[R4, #+80]
   \   0000001C   0610A0E1           MOV      R1,R6
   \   00000020   AD0100EF           SWI      +429
   \   00000024   540084E5           STR      R0,[R4, #+84]
    509          	switch( mbk->cur_hp.hdr->type )
   \   00000028   000090E5           LDR      R0,[R0, #+0]
   \   0000002C   010040E2           SUB      R0,R0,#+1
   \   00000030   110050E3           CMP      R0,#+17
   \   00000034   7080BD88           POPHI    {R4-R6,PC}
   \   00000038   011F8FE2           ADR      R1,??OnSelect1GuiBcfg_1
   \   0000003C   0010D1E7           LDRB     R1,[R1, R0]
   \   00000040   01F18FE0           ADD      PC,PC,R1, LSL #+2
   \                     ??OnSelect1GuiBcfg_1:
   \   00000044   0454070A           DC8      +4,+84,+7,+10
   \   00000048   0E111519           DC8      +14,+17,+21,+25
   \   0000004C   1D542B3B           DC8      +29,+84,+43,+59
   \   00000050   3D414549           DC8      +61,+65,+69,+73
   \   00000054   4D510000           DC8      +77,+81,+0,+0
    510          	{
    511          	case CFG_UINT:
    512          		CreateUnsignedNumberInput( mbk );
   \                     ??OnSelect1GuiBcfg_2:
   \   00000058   0400A0E1           MOV      R0,R4
   \   0000005C   ........           BL       ??CreateUnsignedNumberInput
   \   00000060   7080BDE8           POP      {R4-R6,PC}
    513          		break;
    514          	case CFG_INT:
    515          		CreateSignedNumberInput( mbk );
   \                     ??OnSelect1GuiBcfg_3:
   \   00000064   0400A0E1           MOV      R0,R4
   \   00000068   ........           BL       ??CreateSignedNumberInput
   \   0000006C   7080BDE8           POP      {R4-R6,PC}
    516          		break;
    517          	case CFG_STR_WIN1251:
    518          		CreateWinOrPassSI( mbk, 0 );
   \                     ??OnSelect1GuiBcfg_4:
   \   00000070   0010A0E3           MOV      R1,#+0
   \   00000074   0400A0E1           MOV      R0,R4
   \   00000078   ........           BL       ??CreateWinOrPassSI
   \   0000007C   7080BDE8           POP      {R4-R6,PC}
    519          		break;
    520          	case CFG_CBOX:
    521          		CreateCBoxGui( mbk );
   \                     ??OnSelect1GuiBcfg_5:
   \   00000080   0400A0E1           MOV      R0,R4
   \   00000084   ........           BL       ??CreateCBoxGui
   \   00000088   7080BDE8           POP      {R4-R6,PC}
    522          		break;
    523          	case CFG_STR_PASS:
    524          		CreateWinOrPassSI( mbk, 1 );
   \                     ??OnSelect1GuiBcfg_6:
   \   0000008C   0110A0E3           MOV      R1,#+1
   \   00000090   0400A0E1           MOV      R0,R4
   \   00000094   ........           BL       ??CreateWinOrPassSI
   \   00000098   7080BDE8           POP      {R4-R6,PC}
    525          		break;
    526          	case CFG_COORDINATES:
    527          		CreateEditCoordinatesGUI( mbk, 0 );
   \                     ??OnSelect1GuiBcfg_7:
   \   0000009C   0010A0E3           MOV      R1,#+0
   \   000000A0   0400A0E1           MOV      R0,R4
   \   000000A4   ........           _BLF     ??CreateEditCoordinatesGUI,??CreateEditCoordinatesGUI??rA
   \   000000A8   7080BDE8           POP      {R4-R6,PC}
    528          		break;
    529          	case CFG_COLOR:
    530          		CreateEditColorGUI( mbk, 0 );
   \                     ??OnSelect1GuiBcfg_8:
   \   000000AC   0010A0E3           MOV      R1,#+0
   \   000000B0   0400A0E1           MOV      R0,R4
   \   000000B4   ........           _BLF     ??CreateEditColorGUI,??CreateEditColorGUI??rA
   \   000000B8   7080BDE8           POP      {R4-R6,PC}
    531          		break;
    532          	case CFG_LEVEL:
    533          		bdata->level ++ ;
   \                     ??OnSelect1GuiBcfg_9:
   \   000000BC   080295E5           LDR      R0,[R5, #+520]
   \   000000C0   010080E2           ADD      R0,R0,#+1
   \   000000C4   080285E5           STR      R0,[R5, #+520]
    534          		bdata->levelstack[bdata->level] = mbk->cur_hp.hdr;
   \   000000C8   541094E5           LDR      R1,[R4, #+84]
   \   000000CC   000185E0           ADD      R0,R5,R0, LSL #+2
   \   000000D0   0C1280E5           STR      R1,[R0, #+524]
    535          		GUIObject_Destroy( mbk->bcfg );
   \   000000D4   180094E5           LDR      R0,[R4, #+24]
   \   000000D8   CE0100EF           SWI      +462
    536          		mbk->bcfg = NULL;
   \   000000DC   0000A0E3           MOV      R0,#+0
   \   000000E0   180084E5           STR      R0,[R4, #+24]
    537          		create_ed( bk, NULL );
   \   000000E4   0010A0E3           MOV      R1,#+0
   \   000000E8   0400A0E1           MOV      R0,R4
   \   000000EC   ........           BL       ??create_ed
    538          		return;
   \   000000F0   7080BDE8           POP      {R4-R6,PC}
    539          	case CFG_CHECKBOX:
    540          		mbk->cur_hp.checkbox->isChecked = !mbk->cur_hp.checkbox->isChecked;
   \                     ??OnSelect1GuiBcfg_10:
   \   000000F4   540094E5           LDR      R0,[R4, #+84]
   \   000000F8   541094E5           LDR      R1,[R4, #+84]
   \   000000FC   2C0090E5           LDR      R0,[R0, #+44]
   \   00000100   000050E3           CMP      R0,#+0
   \   00000104   0100A003           MOVEQ    R0,#+1
   \   00000108   0000A013           MOVNE    R0,#+0
   \   0000010C   2C0081E5           STR      R0,[R1, #+44]
    541          		ListMenu_SetItemSecondLineText( mbk->bcfg, item, (mbk->cur_hp.checkbox->isChecked ? mbk->check_box_checked : mbk->check_box_unchecked) );
   \   00000110   540094E5           LDR      R0,[R4, #+84]
   \   00000114   0610A0E1           MOV      R1,R6
   \   00000118   2C0090E5           LDR      R0,[R0, #+44]
   \   0000011C   000050E3           CMP      R0,#+0
   \   00000120   60209415           LDRNE    R2,[R4, #+96]
   \   00000124   180094E5           LDR      R0,[R4, #+24]
   \   00000128   5C209405           LDREQ    R2,[R4, #+92]
   \   0000012C   A60200EF           SWI      +678
   \   00000130   7080BDE8           POP      {R4-R6,PC}
    542          		break;
    543          	case CFG_TIME:
    544          		BookObj_CallPage( mbk, &bk_time_input );
   \                     ??OnSelect1GuiBcfg_11:
   \   00000134   60109FE5           LDR      R1,??OnSelect1GuiBcfg_12  ;; bk_time_input
   \   00000138   100000EA           B        ??OnSelect1GuiBcfg_13
    545          		break;
    546          	case CFG_DATE:
    547          		BookObj_CallPage( mbk, &bk_date_input );
   \                     ??OnSelect1GuiBcfg_14:
   \   0000013C   5C109FE5           LDR      R1,??OnSelect1GuiBcfg_12+0x4  ;; bk_date_input
   \   00000140   0400A0E1           MOV      R0,R4
   \   00000144   B80200EF           SWI      +696
   \   00000148   7080BDE8           POP      {R4-R6,PC}
    548          		break;
    549          	case CFG_RECT:
    550          		CreateEditCoordinatesGUI( mbk, 1 );
   \                     ??OnSelect1GuiBcfg_15:
   \   0000014C   0110A0E3           MOV      R1,#+1
   \   00000150   0400A0E1           MOV      R0,R4
   \   00000154   ........           _BLF     ??CreateEditCoordinatesGUI,??CreateEditCoordinatesGUI??rA
   \   00000158   7080BDE8           POP      {R4-R6,PC}
    551          		break;
    552          	case CFG_COLOR_INT:
    553          		CreateEditColorGUI( mbk, 1 );
   \                     ??OnSelect1GuiBcfg_16:
   \   0000015C   0110A0E3           MOV      R1,#+1
   \   00000160   0400A0E1           MOV      R0,R4
   \   00000164   ........           _BLF     ??CreateEditColorGUI,??CreateEditColorGUI??rA
   \   00000168   7080BDE8           POP      {R4-R6,PC}
    554          		break;
    555          	case CFG_FONT:
    556          		CreateFontSelectGUI( mbk, 5 );
   \                     ??OnSelect1GuiBcfg_17:
   \   0000016C   0510A0E3           MOV      R1,#+5
   \   00000170   0400A0E1           MOV      R0,R4
   \   00000174   ........           _BLF     ??CreateFontSelectGUI,??CreateFontSelectGUI??rA
   \   00000178   7080BDE8           POP      {R4-R6,PC}
    557          		break;
    558          	case CFG_KEYCODE:
    559          		BookObj_CallPage( mbk, &bk_keycode_select );
   \                     ??OnSelect1GuiBcfg_18:
   \   0000017C   20109FE5           LDR      R1,??OnSelect1GuiBcfg_12+0x8  ;; bk_keycode_select
   \                     ??OnSelect1GuiBcfg_13:
   \   00000180   0400A0E1           MOV      R0,R4
   \   00000184   B80200EF           SWI      +696
   \   00000188   7080BDE8           POP      {R4-R6,PC}
    560          		break;
    561          	case CFG_UTF16_STRING:
    562          		CreateUnicodeSI( mbk, 0 );
   \                     ??OnSelect1GuiBcfg_19:
   \   0000018C   0010A0E3           MOV      R1,#+0
   \   00000190   0400A0E1           MOV      R0,R4
   \   00000194   ........           BL       ??CreateUnicodeSI
   \                     ??OnSelect1GuiBcfg_20:
   \   00000198   7080BDE8           POP      {R4-R6,PC}       ;; return
   \                     ??OnSelect1GuiBcfg_12:
   \   0000019C   ........           DC32     bk_time_input
   \   000001A0   ........           DC32     bk_date_input
   \   000001A4   ........           DC32     bk_keycode_select
    563          		break;
    564          	default:
    565          		return;
    566          	}
    567          }
    568          
    569          
    570          

   \                                 In segment CODE, align 4, keep-with-next
    571          TEXTID GetSubItemText( MyBOOK* myBook, CFG_HDR* hp )
    572          {
   \                     ??GetSubItemText:
   \   00000000   30402DE9           PUSH     {R4,R5,LR}
   \   00000004   A0D04DE2           SUB      SP,SP,#+160
   \   00000008   0140B0E1           MOVS     R4,R1
    573          	wchar_t ustr[64];
    574          	TEXTID str_id = EMPTY_TEXTID;
   \   0000000C   9014E0E3           MVN      R1,#-1879048192
    575          	if( hp )
   \   00000010   C100000A           BEQ      ??GetSubItemText_2
    576          	{
    577          		switch( hp->type )
   \   00000014   001094E5           LDR      R1,[R4, #+0]
   \   00000018   011041E2           SUB      R1,R1,#+1
   \   0000001C   110051E3           CMP      R1,#+17
   \   00000020   B200008A           BHI      ??GetSubItemText_3
   \   00000024   012F8FE2           ADR      R2,??GetSubItemText_1
   \   00000028   0120D2E7           LDRB     R2,[R2, R1]
   \   0000002C   02F18FE0           ADD      PC,PC,R2, LSL #+2
   \                     ??GetSubItemText_1:
   \   00000030   04AF070A           DC8      +4,+175,+7,+10
   \   00000034   0F141928           DC8      +15,+20,+25,+40
   \   00000038   33AF363D           DC8      +51,+175,+54,+61
   \   0000003C   42535C74           DC8      +66,+83,+92,+116
   \   00000040   9DAA0000           DC8      +157,+170,+0,+0
    578          		{
    579          		case CFG_UINT:
    580          			snwprintf( ustr, MAXELEMS( ustr ) - 1, L"%u", ((CFG_HDR_UNSIGNEDINT*)hp)->unsignedint );
   \                     ??GetSubItemText_4:
   \   00000044   2C3094E5           LDR      R3,[R4, #+44]
   \   00000048   ........           LDR      R2,??DataTable41  ;; `?<Constant L"\\x25\\x75">`
   \   0000004C   A90000EA           B        ??GetSubItemText_5
    581          			str_id = TextID_Create( ustr, ENC_UCS2, TEXTID_ANY_LEN );
    582          			break;
    583          		case CFG_INT:
    584          			snwprintf( ustr, MAXELEMS( ustr ) - 1, L"%d", ((CFG_HDR_SIGNEDINT*)hp)->signedint );
   \                     ??GetSubItemText_6:
   \   00000050   2C3094E5           LDR      R3,[R4, #+44]
   \   00000054   CC229FE5           LDR      R2,??GetSubItemText_7  ;; `?<Constant L"\\x25\\x75">` + 8
   \   00000058   A60000EA           B        ??GetSubItemText_5
    585          			str_id = TextID_Create( ustr, ENC_UCS2, TEXTID_ANY_LEN );
    586          			break;
    587          		case CFG_STR_WIN1251:
    588          			win12512unicode( ustr, &((CFG_HDR_STR*)hp)->chars[0], MAXELEMS( ustr ) - 1 );
   \                     ??GetSubItemText_8:
   \   0000005C   3F20A0E3           MOV      R2,#+63
   \   00000060   2C1084E2           ADD      R1,R4,#+44
   \                     ??GetSubItemText_9:
   \   00000064   20008DE2           ADD      R0,SP,#+32
   \   00000068   ........           BL       ??win12512unicode
    589          			str_id = TextID_Create( ustr, ENC_UCS2, TEXTID_ANY_LEN );
   \   0000006C   A40000EA           B        ??GetSubItemText_10
    590          			break;
    591          		case CFG_CBOX:
    592          			win12512unicode( ustr, &((CFG_HDR_CBOX*)hp)->items[ ((CFG_HDR_CBOX*)hp)->selected ].cbox_text[0], MAXELEMS( ustr ) - 1 );
   \                     ??GetSubItemText_11:
   \   00000070   2C0094E5           LDR      R0,[R4, #+44]
   \   00000074   3F20A0E3           MOV      R2,#+63
   \   00000078   800284E0           ADD      R0,R4,R0, LSL #+5
   \   0000007C   301080E2           ADD      R1,R0,#+48
   \   00000080   F7FFFFEA           B        ??GetSubItemText_9
    593          			str_id = TextID_Create( ustr, ENC_UCS2, TEXTID_ANY_LEN );
    594          			break;
    595          		case CFG_STR_PASS:
    596          			win12512unicode( ustr, "********", MAXELEMS( ustr ) - 1 );
   \                     ??GetSubItemText_12:
   \   00000084   A0129FE5           LDR      R1,??GetSubItemText_7+0x4  ;; `?<Constant L"\\x25\\x75">` + 16
   \   00000088   3F20A0E3           MOV      R2,#+63
   \   0000008C   20008DE2           ADD      R0,SP,#+32
   \   00000090   ........           BL       ??win12512unicode
    597          			str_id = TextID_Create( ustr, ENC_UCS2, TEXTID_ANY_LEN );
   \   00000094   9A0000EA           B        ??GetSubItemText_10
    598          			break;
    599          		case CFG_COORDINATES:
    600          			snwprintf( ustr, MAXELEMS( ustr ) - 1, L"%03d, %03d", ((CFG_HDR_POINT*)hp)->point.x, ((CFG_HDR_POINT*)hp)->point.y );
   \                     ??GetSubItemText_13:
   \   00000098   300094E5           LDR      R0,[R4, #+48]
   \   0000009C   8C229FE5           LDR      R2,??GetSubItemText_7+0x8  ;; `?<Constant L"\\x25\\x75">` + 28
   \   000000A0   01002DE9           PUSH     {R0}
   \   000000A4   2C3094E5           LDR      R3,[R4, #+44]
   \                     ??GetSubItemText_14:
   \   000000A8   3F10A0E3           MOV      R1,#+63
   \   000000AC   24008DE2           ADD      R0,SP,#+36
   \   000000B0   150100EF           SWI      +277
    601          			str_id = TextID_Create( ustr, ENC_UCS2, TEXTID_ANY_LEN );
   \   000000B4   FF20A0E3           MOV      R2,#+255
   \   000000B8   FF2C82E3           ORR      R2,R2,#0xFF00
   \   000000BC   0010A0E3           MOV      R1,#+0
   \   000000C0   24008DE2           ADD      R0,SP,#+36
   \   000000C4   5D0100EF           SWI      +349
   \   000000C8   0010A0E1           MOV      R1,R0
   \   000000CC   04D08DE2           ADD      SP,SP,#+4
   \   000000D0   480000EA           B        ??GetSubItemText_15
    602          			break;
    603          		case CFG_COLOR:
    604          			{
    605          				snwprintf( ustr, MAXELEMS( ustr ) - 1, L"%02X, %02X, %02X, %02X", ((CFG_HDR_COLOR*)hp)->rgb[0], ((CFG_HDR_COLOR*)hp)->rgb[1], ((CFG_HDR_COLOR*)hp)->rgb[2], ((CFG_HDR_COLOR*)hp)->rgb[3] );
   \                     ??GetSubItemText_16:
   \   000000D4   2F00D4E5           LDRB     R0,[R4, #+47]
   \   000000D8   54229FE5           LDR      R2,??GetSubItemText_7+0xC  ;; `?<Constant L"\\x25\\x75">` + 52
   \   000000DC   01002DE9           PUSH     {R0}
   \   000000E0   2E00D4E5           LDRB     R0,[R4, #+46]
   \   000000E4   01002DE9           PUSH     {R0}
   \   000000E8   2D00D4E5           LDRB     R0,[R4, #+45]
   \   000000EC   01002DE9           PUSH     {R0}
   \   000000F0   2C30D4E5           LDRB     R3,[R4, #+44]
   \                     ??GetSubItemText_17:
   \   000000F4   3F10A0E3           MOV      R1,#+63
   \   000000F8   2C008DE2           ADD      R0,SP,#+44
   \   000000FC   350000EA           B        ??GetSubItemText_18
    606          				str_id = TextID_Create( ustr, ENC_UCS2, TEXTID_ANY_LEN );
    607          			}
    608          			break;
    609          		case CFG_LEVEL:
    610          			{
    611          				win12512unicode( ustr, "[Enter]", MAXELEMS( ustr ) - 1 );
   \                     ??GetSubItemText_19:
   \   00000100   30129FE5           LDR      R1,??GetSubItemText_7+0x10  ;; `?<Constant L"\\x25\\x75">` + 100
   \   00000104   3F20A0E3           MOV      R2,#+63
   \   00000108   D5FFFFEA           B        ??GetSubItemText_9
    612          				str_id = TextID_Create( ustr, ENC_UCS2, TEXTID_ANY_LEN );
    613          			}
    614          			break;
    615          		case CFG_CHECKBOX:
    616          			str_id = ( ((CFG_HDR_CHECKBOX*)hp)->isChecked ? myBook->check_box_checked : myBook->check_box_unchecked );
   \                     ??GetSubItemText_20:
   \   0000010C   2C1094E5           LDR      R1,[R4, #+44]
   \   00000110   000051E3           CMP      R1,#+0
   \   00000114   5C109005           LDREQ    R1,[R0, #+92]
   \   00000118   60109015           LDRNE    R1,[R0, #+96]
   \   0000011C   A0D08DE2           ADD      SP,SP,#+160
   \   00000120   0100A0E1           MOV      R0,R1
   \   00000124   3080BDE8           POP      {R4,R5,PC}
    617          			break;
    618          		case CFG_TIME:
    619          			{
    620          				snwprintf( ustr, MAXELEMS( ustr ) - 1, L"%02d:%02d", ((CFG_HDR_TIME*)hp)->time.hour, ((CFG_HDR_TIME*)hp)->time.min );
   \                     ??GetSubItemText_21:
   \   00000128   2D00D4E5           LDRB     R0,[R4, #+45]
   \   0000012C   08229FE5           LDR      R2,??GetSubItemText_7+0x14  ;; `?<Constant L"\\x25\\x75">` + 108
   \   00000130   01002DE9           PUSH     {R0}
   \   00000134   2C30D4E5           LDRB     R3,[R4, #+44]
   \   00000138   DAFFFFEA           B        ??GetSubItemText_14
    621          				str_id = TextID_Create( ustr, ENC_UCS2, TEXTID_ANY_LEN );
    622          			}
    623          			break;
    624          		case CFG_DATE:
    625          			{
    626          				snwprintf( ustr, MAXELEMS( ustr ) - 1, L"%02d.%02d.%04d", ((CFG_HDR_DATE*)hp)->date.day, ((CFG_HDR_DATE*)hp)->date.mon, ((CFG_HDR_DATE*)hp)->date.year );
   \                     ??GetSubItemText_22:
   \   0000013C   BC02D4E1           LDRH     R0,[R4, #+44]
   \   00000140   F8219FE5           LDR      R2,??GetSubItemText_7+0x18  ;; `?<Constant L"\\x25\\x75">` + 128
   \   00000144   3F10A0E3           MOV      R1,#+63
   \   00000148   01002DE9           PUSH     {R0}
   \   0000014C   2E00D4E5           LDRB     R0,[R4, #+46]
   \   00000150   01002DE9           PUSH     {R0}
   \   00000154   2F30D4E5           LDRB     R3,[R4, #+47]
   \   00000158   28008DE2           ADD      R0,SP,#+40
   \   0000015C   150100EF           SWI      +277
    627          				str_id = TextID_Create( ustr, ENC_UCS2, TEXTID_ANY_LEN );
   \   00000160   FF20A0E3           MOV      R2,#+255
   \   00000164   FF2C82E3           ORR      R2,R2,#0xFF00
   \   00000168   0010A0E3           MOV      R1,#+0
   \   0000016C   28008DE2           ADD      R0,SP,#+40
   \   00000170   5D0100EF           SWI      +349
   \   00000174   0010A0E1           MOV      R1,R0
   \   00000178   08D08DE2           ADD      SP,SP,#+8
   \   0000017C   1D0000EA           B        ??GetSubItemText_15
    628          			}
    629          			break;
    630          		case CFG_RECT:
    631          			{
    632          				snwprintf( ustr, MAXELEMS( ustr ) - 1, L"RC:%03d, %03d, %03d, %03d", ((CFG_HDR_RECT*)hp)->rect.x1, ((CFG_HDR_RECT*)hp)->rect.y1, ((CFG_HDR_RECT*)hp)->rect.x2, ((CFG_HDR_RECT*)hp)->rect.y2 );
   \                     ??GetSubItemText_23:
   \   00000180   B203D4E1           LDRH     R0,[R4, #+50]
   \   00000184   B8219FE5           LDR      R2,??GetSubItemText_7+0x1C  ;; `?<Constant L"\\x25\\x75">` + 160
   \   00000188   01002DE9           PUSH     {R0}
   \   0000018C   BE02D4E1           LDRH     R0,[R4, #+46]
   \   00000190   01002DE9           PUSH     {R0}
   \   00000194   B003D4E1           LDRH     R0,[R4, #+48]
   \   00000198   01002DE9           PUSH     {R0}
   \   0000019C   BC32D4E1           LDRH     R3,[R4, #+44]
   \   000001A0   D3FFFFEA           B        ??GetSubItemText_17
    633          				str_id = TextID_Create( ustr, ENC_UCS2, TEXTID_ANY_LEN );
    634          			}
    635          			break;
    636          		case CFG_COLOR_INT:
    637          			{
    638          				unsigned int color = ((CFG_HDR_COLOR*)hp)->color;
   \                     ??GetSubItemText_24:
   \   000001A4   2C0094E5           LDR      R0,[R4, #+44]
    639          				snwprintf( ustr, MAXELEMS( ustr ) - 1, L"%02X, %02X, %02X, %02X", COLOR_GET_R( color ), COLOR_GET_G( color ), COLOR_GET_B( color ), COLOR_GET_A( color ) );
   \   000001A8   84219FE5           LDR      R2,??GetSubItemText_7+0xC  ;; `?<Constant L"\\x25\\x75">` + 52
   \   000001AC   201CA0E1           LSR      R1,R0,#+24
   \   000001B0   02002DE9           PUSH     {R1}
   \   000001B4   FF1000E2           AND      R1,R0,#0xFF
   \   000001B8   02002DE9           PUSH     {R1}
   \   000001BC   FF10A0E3           MOV      R1,#+255
   \   000001C0   201401E0           AND      R1,R1,R0, LSR #+8
   \   000001C4   02002DE9           PUSH     {R1}
   \   000001C8   FF10A0E3           MOV      R1,#+255
   \   000001CC   203801E0           AND      R3,R1,R0, LSR #+16
   \   000001D0   2C008DE2           ADD      R0,SP,#+44
   \   000001D4   3F10A0E3           MOV      R1,#+63
   \                     ??GetSubItemText_18:
   \   000001D8   150100EF           SWI      +277
    640          				str_id = TextID_Create( ustr, ENC_UCS2, TEXTID_ANY_LEN );
   \   000001DC   FF20A0E3           MOV      R2,#+255
   \   000001E0   FF2C82E3           ORR      R2,R2,#0xFF00
   \   000001E4   0010A0E3           MOV      R1,#+0
   \   000001E8   2C008DE2           ADD      R0,SP,#+44
   \   000001EC   5D0100EF           SWI      +349
   \   000001F0   0010A0E1           MOV      R1,R0
   \   000001F4   0CD08DE2           ADD      SP,SP,#+12
   \                     ??GetSubItemText_15:
   \   000001F8   0100A0E1           MOV      R0,R1
   \   000001FC   A0D08DE2           ADD      SP,SP,#+160
   \   00000200   3080BDE8           POP      {R4,R5,PC}
    641          			}
    642          			break;
    643          		case CFG_FONT:
    644          			{
    645          				int platform=GetChipID()&CHIPID_MASK;
   \                     ??GetSubItemText_25:
   \   00000204   4E0200EF           SWI      +590
   \   00000208   FE0C00E2           AND      R0,R0,#0xFE00
    646          				if (platform==CHIPID_DB3200||platform==CHIPID_DB3210||platform==CHIPID_DB3350)
   \   0000020C   D80C50E3           CMP      R0,#+55296
   \   00000210   E80C5013           CMPNE    R0,#+59392
   \   00000214   F00C5013           CMPNE    R0,#+61440
   \   00000218   1C00001A           BNE      ??GetSubItemText_26
    647          				{
    648          					int n=1;
    649          					int sp[5];
    650          					sp[0] = TextID_CreateIntegerID (((CFG_HDR_FONT*)hp)->font&0xFF);
   \   0000021C   2C0094E5           LDR      R0,[R4, #+44]
   \   00000220   0150A0E3           MOV      R5,#+1
   \   00000224   FF0000E2           AND      R0,R0,#0xFF
   \   00000228   5C0100EF           SWI      +348
   \   0000022C   0C008DE5           STR      R0,[SP, #+12]
    651          					int style_flags = ((CFG_HDR_FONT*)hp)->font>>8;
   \   00000230   2C0094E5           LDR      R0,[R4, #+44]
   \   00000234   4004A0E1           ASR      R0,R0,#+8
    652          					if (style_flags&bold)
   \   00000238   010010E3           TST      R0,#0x1
   \   0000023C   0500000A           BEQ      ??GetSubItemText_27
    653          					{
    654          						sp[n] = 0x78000000 + '_';
   \   00000240   5F20A0E3           MOV      R2,#+95
   \   00000244   782482E3           ORR      R2,R2,#0x78000000
   \   00000248   10208DE5           STR      R2,[SP, #+16]
    655          						sp[n+1] = 0x78000000 + 'B';
   \   0000024C   1D20C2E3           BIC      R2,R2,#0x1D
   \   00000250   14208DE5           STR      R2,[SP, #+20]
    656          						n = n+2;
   \   00000254   0350A0E3           MOV      R5,#+3
    657          					}
    658          					if (style_flags&italic)
   \                     ??GetSubItemText_27:
   \   00000258   020010E3           TST      R0,#0x2
   \   0000025C   0700000A           BEQ      ??GetSubItemText_28
    659          					{
    660          						sp[n] = 0x78000000 + '_';
   \   00000260   0C008DE2           ADD      R0,SP,#+12
   \   00000264   050180E0           ADD      R0,R0,R5, LSL #+2
   \   00000268   5F10A0E3           MOV      R1,#+95
   \   0000026C   781481E3           ORR      R1,R1,#0x78000000
   \   00000270   001080E5           STR      R1,[R0, #+0]
    661          						sp[n+1] = 0x78000000 + 'I';
   \   00000274   1610C1E3           BIC      R1,R1,#0x16
   \   00000278   041080E5           STR      R1,[R0, #+4]
    662          						n = n+2;
   \   0000027C   025085E2           ADD      R5,R5,#+2
    663          					}
    664          					str_id = TextID_Create(sp,ENC_TEXTID,n);
   \                     ??GetSubItemText_28:
   \   00000280   0520A0E1           MOV      R2,R5
   \   00000284   0510A0E3           MOV      R1,#+5
   \   00000288   0C008DE2           ADD      R0,SP,#+12
   \   0000028C   200000EA           B        ??GetSubItemText_29
    665          				}
    666          				else str_id = TextID_Create( Font_GetNameByFontId( ((CFG_HDR_FONT*)hp)->font ), ENC_UCS2, TEXTID_ANY_LEN );
   \                     ??GetSubItemText_26:
   \   00000290   2C0094E5           LDR      R0,[R4, #+44]
   \   00000294   ........           _BLF     ??Font_GetNameByFontId,??Font_GetNameByFontId??rA
   \   00000298   FF20A0E3           MOV      R2,#+255
   \   0000029C   FF2C82E3           ORR      R2,R2,#0xFF00
   \   000002A0   0010A0E3           MOV      R1,#+0
   \   000002A4   1A0000EA           B        ??GetSubItemText_29
    667          			}
    668          			break;
    669          		case CFG_KEYCODE:
    670          			{
    671          				TEXTID s_ids[3];
    672          				s_ids[0] = KeyCode2Name( ((CFG_HDR_KEY*)hp)->keycode );
   \                     ??GetSubItemText_30:
   \   000002A8   2C0094E5           LDR      R0,[R4, #+44]
   \   000002AC   CB0200EF           SWI      +715
   \   000002B0   00008DE5           STR      R0,[SP, #+0]
    673          				s_ids[1] = ',' | 0x78000000;
   \   000002B4   2C10A0E3           MOV      R1,#+44
   \   000002B8   781481E3           ORR      R1,R1,#0x78000000
   \   000002BC   04108DE5           STR      R1,[SP, #+4]
    674          				s_ids[2] = GetKeyModeName( ((CFG_HDR_KEY*)hp)->keymode );
   \   000002C0   300094E5           LDR      R0,[R4, #+48]
   \   000002C4   ........           _BLF     ??GetKeyModeName,??GetKeyModeName??rA
   \   000002C8   08008DE5           STR      R0,[SP, #+8]
    675          				str_id = TextID_Create( s_ids, ENC_TEXTID, 3 );
   \   000002CC   0320A0E3           MOV      R2,#+3
   \   000002D0   0510A0E3           MOV      R1,#+5
   \   000002D4   0D00A0E1           MOV      R0,SP
   \   000002D8   0D0000EA           B        ??GetSubItemText_29
    676          			}
    677          			break;
    678          		case CFG_UTF16_STRING:
    679          			str_id = TextID_Create( &((CFG_HDR_WSTR*)hp)->chars[0], ENC_UCS2, TEXTID_ANY_LEN );
   \                     ??GetSubItemText_31:
   \   000002DC   FF20A0E3           MOV      R2,#+255
   \   000002E0   FF2C82E3           ORR      R2,R2,#0xFF00
   \   000002E4   0010A0E3           MOV      R1,#+0
   \   000002E8   2C0084E2           ADD      R0,R4,#+44
   \   000002EC   080000EA           B        ??GetSubItemText_29
    680          			break;
    681          		case CFG_STR_UTF8:
    682          		case CFG_UTF8_STRING:
    683          		default:
    684          			snwprintf( ustr, MAXELEMS( ustr ) - 1, L"Type %d is not supporting yet", hp->type );
   \                     ??GetSubItemText_3:
   \   000002F0   003094E5           LDR      R3,[R4, #+0]
   \   000002F4   4C209FE5           LDR      R2,??GetSubItemText_7+0x20  ;; `?<Constant L"\\x25\\x75">` + 212
   \                     ??GetSubItemText_5:
   \   000002F8   3F10A0E3           MOV      R1,#+63
   \   000002FC   20008DE2           ADD      R0,SP,#+32
   \   00000300   150100EF           SWI      +277
    685          			str_id = TextID_Create( ustr, ENC_UCS2, TEXTID_ANY_LEN );
   \                     ??GetSubItemText_10:
   \   00000304   FF20A0E3           MOV      R2,#+255
   \   00000308   FF2C82E3           ORR      R2,R2,#0xFF00
   \   0000030C   0010A0E3           MOV      R1,#+0
   \   00000310   20008DE2           ADD      R0,SP,#+32
   \                     ??GetSubItemText_29:
   \   00000314   5D0100EF           SWI      +349
   \   00000318   0010A0E1           MOV      R1,R0
    686          			break;
    687          		}
    688          	}
    689          	return str_id;
   \                     ??GetSubItemText_2:
   \   0000031C   0100A0E1           MOV      R0,R1
   \   00000320   A0D08DE2           ADD      SP,SP,#+160
   \   00000324   3080BDE8           POP      {R4,R5,PC}       ;; return
   \                     ??GetSubItemText_7:
   \   00000328   ........           DC32     `?<Constant L"\\x25\\x75">` + 8
   \   0000032C   ........           DC32     `?<Constant L"\\x25\\x75">` + 16
   \   00000330   ........           DC32     `?<Constant L"\\x25\\x75">` + 28
   \   00000334   ........           DC32     `?<Constant L"\\x25\\x75">` + 52
   \   00000338   ........           DC32     `?<Constant L"\\x25\\x75">` + 100
   \   0000033C   ........           DC32     `?<Constant L"\\x25\\x75">` + 108
   \   00000340   ........           DC32     `?<Constant L"\\x25\\x75">` + 128
   \   00000344   ........           DC32     `?<Constant L"\\x25\\x75">` + 160
   \   00000348   ........           DC32     `?<Constant L"\\x25\\x75">` + 212
    690          }
    691          
    692          //     

   \                                 In segment CODE, align 4, keep-with-next
    693          int onLBMessage( GUI_MESSAGE* msg )
    694          {
   \                     ??onLBMessage:
   \   00000000   F0402DE9           PUSH     {R4-R7,LR}
   \   00000004   40D04DE2           SUB      SP,SP,#+64
   \   00000008   0040A0E1           MOV      R4,R0
    695          	MyBOOK* myBook = (MyBOOK*) GUIonMessage_GetBook( msg );
   \   0000000C   750300EF           SWI      +885
   \   00000010   0050A0E1           MOV      R5,R0
    696          
    697          	switch( GUIonMessage_GetMsg( msg ) )
   \   00000014   0400A0E1           MOV      R0,R4
   \   00000018   740300EF           SWI      +884
   \   0000001C   010050E3           CMP      R0,#+1
   \   00000020   2600001A           BNE      ??onLBMessage_1
    698          	{
    699          		// onCreateListItem
    700          	case LISTMSG_GetItem:
    701          		int item = GUIonMessage_GetCreatedItemIndex( msg );
   \   00000024   0400A0E1           MOV      R0,R4
   \   00000028   370100EF           SWI      +311
    702          		CFG_HDR* hp = (CFG_HDR*) List_Get( myBook->list, item );
   \   0000002C   0010A0E1           MOV      R1,R0
   \   00000030   500095E5           LDR      R0,[R5, #+80]
    703          		wchar_t ustr[32];
    704          		win12512unicode( ustr, hp->name, MAXELEMS( ustr ) - 1 );
    705          		GUIonMessage_SetMenuItemText( msg, TextID_Create( ustr, ENC_UCS2, TEXTID_ANY_LEN ) );
   \   00000034   FF70A0E3           MOV      R7,#+255
   \   00000038   AD0100EF           SWI      +429
   \   0000003C   0060A0E1           MOV      R6,R0
   \   00000040   1F20A0E3           MOV      R2,#+31
   \   00000044   041086E2           ADD      R1,R6,#+4
   \   00000048   0D00A0E1           MOV      R0,SP
   \   0000004C   ........           BL       ??win12512unicode
   \   00000050   FF7C87E3           ORR      R7,R7,#0xFF00
   \   00000054   0720A0E1           MOV      R2,R7
   \   00000058   0010A0E3           MOV      R1,#+0
   \   0000005C   0D00A0E1           MOV      R0,SP
   \   00000060   5D0100EF           SWI      +349
   \   00000064   0010A0E1           MOV      R1,R0
   \   00000068   0400A0E1           MOV      R0,R4
   \   0000006C   380100EF           SWI      +312
    706          		GUIonMessage_SetMenuItemInfoText( msg, TextID_Create( ustr, ENC_UCS2, TEXTID_ANY_LEN ) );
   \   00000070   0720A0E1           MOV      R2,R7
   \   00000074   0010A0E3           MOV      R1,#+0
   \   00000078   0D00A0E1           MOV      R0,SP
   \   0000007C   5D0100EF           SWI      +349
   \   00000080   0010A0E1           MOV      R1,R0
   \   00000084   0400A0E1           MOV      R0,R4
   \   00000088   3A0100EF           SWI      +314
    707          		int str_id = GetSubItemText( myBook, hp );
   \   0000008C   0610A0E1           MOV      R1,R6
   \   00000090   0500A0E1           MOV      R0,R5
   \   00000094   ........           BL       ??GetSubItemText
    708          
    709          		if( str_id == EMPTY_TEXTID )
   \   00000098   9014E0E3           MVN      R1,#-1879048192
   \   0000009C   010050E1           CMP      R0,R1
   \   000000A0   0300001A           BNE      ??onLBMessage_2
    710          			str_id = TextID_Create ( L"", ENC_UCS2, TEXTID_ANY_LEN );
   \   000000A4   20009FE5           LDR      R0,??onLBMessage_3  ;; `?<Constant L"\\x425\\x440\\x435\\x43d\\x44c">`
   \   000000A8   0720A0E1           MOV      R2,R7
   \   000000AC   0010A0E3           MOV      R1,#+0
   \   000000B0   5D0100EF           SWI      +349
    711          
    712          		GUIonMessage_SetMenuItemSecondLineText( msg, str_id );
   \                     ??onLBMessage_2:
   \   000000B4   0010A0E1           MOV      R1,R0
   \   000000B8   0400A0E1           MOV      R0,R4
   \   000000BC   390100EF           SWI      +313
    713          	}
    714          	return 1;
   \                     ??onLBMessage_1:
   \   000000C0   0100A0E3           MOV      R0,#+1
   \   000000C4   40D08DE2           ADD      SP,SP,#+64
   \   000000C8   F080BDE8           POP      {R4-R7,PC}       ;; return
   \                     ??onLBMessage_3:
   \   000000CC   ........           DC32     `?<Constant L"\\x425\\x440\\x435\\x43d\\x44c">`
    715          };
    716          
    717          

   \                                 In segment CODE, align 4, keep-with-next
    718          TEXTID GetParentName( BCFG_DATA* bdata )
    719          {
   \                     ??GetParentName:
   \   00000000   30402DE9           PUSH     {R4,R5,LR}
   \   00000004   40D04DE2           SUB      SP,SP,#+64
   \   00000008   0040A0E1           MOV      R4,R0
    720          	wchar_t ustr[32];
    721          	if( bdata->level )
   \   0000000C   080294E5           LDR      R0,[R4, #+520]
   \   00000010   000050E3           CMP      R0,#+0
   \   00000014   0600000A           BEQ      ??GetParentName_1
    722          	{
    723          		CFG_HDR* hp = bdata->levelstack[bdata->level];
    724          		win12512unicode( ustr, hp->name, MAXELEMS( ustr ) - 1 );
   \   00000018   000184E0           ADD      R0,R4,R0, LSL #+2
   \   0000001C   0C0290E5           LDR      R0,[R0, #+524]
   \   00000020   1F20A0E3           MOV      R2,#+31
   \   00000024   041080E2           ADD      R1,R0,#+4
   \   00000028   0D00A0E1           MOV      R0,SP
   \   0000002C   ........           BL       ??win12512unicode
   \   00000030   110000EA           B        ??GetParentName_2
    725          	}
    726          	else
    727          	{
    728          		wchar_t* ext = wstrrchr( bdata->name, '.' );
   \                     ??GetParentName_1:
   \   00000034   2E10A0E3           MOV      R1,#+46
   \   00000038   400F84E2           ADD      R0,R4,#+256
   \   0000003C   AE0100EF           SWI      +430
    729          		int len = ext ? ext-bdata->name : MAXELEMS(ustr)-1;
   \   00000040   000050E3           CMP      R0,#+0
   \   00000044   0300000A           BEQ      ??GetParentName_3
   \   00000048   A000A0E1           LSR      R0,R0,#+1
   \   0000004C   401F84E2           ADD      R1,R4,#+256
   \   00000050   A15040E0           SUB      R5,R0,R1, LSR #+1
   \   00000054   000000EA           B        ??GetParentName_4
   \                     ??GetParentName_3:
   \   00000058   1F50A0E3           MOV      R5,#+31
    730          		wstrncpy( ustr, bdata->name, len );
   \                     ??GetParentName_4:
   \   0000005C   0520A0E1           MOV      R2,R5
   \   00000060   401F84E2           ADD      R1,R4,#+256
   \   00000064   0D00A0E1           MOV      R0,SP
   \   00000068   530100EF           SWI      +339
    731          		ustr[len] = 0;
   \   0000006C   0D00A0E1           MOV      R0,SP
   \   00000070   850080E0           ADD      R0,R0,R5, LSL #+1
   \   00000074   0010A0E3           MOV      R1,#+0
   \   00000078   B010C0E1           STRH     R1,[R0, #+0]
    732          	}
    733          	return TextID_Create( ustr, ENC_UCS2, MAXELEMS( ustr ) - 1 );
   \                     ??GetParentName_2:
   \   0000007C   1F20A0E3           MOV      R2,#+31
   \   00000080   0010A0E3           MOV      R1,#+0
   \   00000084   0D00A0E1           MOV      R0,SP
   \   00000088   5D0100EF           SWI      +349
   \   0000008C   40D08DE2           ADD      SP,SP,#+64
   \   00000090   3080BDE8           POP      {R4,R5,PC}       ;; return
    734          }
    735          
    736          //  

   \                                 In segment CODE, align 4, keep-with-next
    737          GUI_LIST* CreateGuiList( MyBOOK* bk, int set_focus )
    738          {
   \                     ??CreateGuiList:
   \   00000000   70402DE9           PUSH     {R4-R6,LR}
   \   00000004   0040A0E1           MOV      R4,R0
   \   00000008   0150A0E1           MOV      R5,R1
    739          	GUI_LIST* lo;
    740          	lo = CreateListMenu( bk, 0 );
   \   0000000C   0010A0E3           MOV      R1,#+0
   \   00000010   C00100EF           SWI      +448
   \   00000014   0060A0E1           MOV      R6,R0
    741          	bk->bcfg = lo;
   \   00000018   186084E5           STR      R6,[R4, #+24]
    742          	GUIObject_SetTitleText( lo, GetParentName( &bk->bdata ) );
   \   0000001C   6C0084E2           ADD      R0,R4,#+108
   \   00000020   ........           BL       ??GetParentName
   \   00000024   0010A0E1           MOV      R1,R0
   \   00000028   0600A0E1           MOV      R0,R6
   \   0000002C   330100EF           SWI      +307
    743          	ListMenu_SetItemCount( lo, bk->list->FirstFree );
   \   00000030   500094E5           LDR      R0,[R4, #+80]
    744          	ListMenu_SetOnMessage( lo, onLBMessage );
    745          	ListMenu_SetCursorToItem( lo, set_focus );
    746          	ListMenu_SetItemStyle( lo, 3 );
    747          	ListMenu_SetItemTextScroll( lo, 1 );
    748          	GUIObject_SoftKeys_SetAction( lo, ACTION_BACK, OnBackBcfgGui );
   \   00000034   94409FE5           LDR      R4,??CreateGuiList_1  ;; ??OnBackBcfgGui
   \   00000038   B210D0E1           LDRH     R1,[R0, #+2]
   \   0000003C   0600A0E1           MOV      R0,R6
   \   00000040   C10100EF           SWI      +449
   \   00000044   88109FE5           LDR      R1,??CreateGuiList_1+0x4  ;; ??onLBMessage
   \   00000048   0600A0E1           MOV      R0,R6
   \   0000004C   740100EF           SWI      +372
   \   00000050   0510A0E1           MOV      R1,R5
   \   00000054   0600A0E1           MOV      R0,R6
   \   00000058   350100EF           SWI      +309
   \   0000005C   0310A0E3           MOV      R1,#+3
   \   00000060   0600A0E1           MOV      R0,R6
   \   00000064   3F0100EF           SWI      +319
   \   00000068   0110A0E3           MOV      R1,#+1
   \   0000006C   0600A0E1           MOV      R0,R6
   \   00000070   A30300EF           SWI      +931
   \   00000074   ........           LDR      R0,??DataTable42  ;; ACTION_BACK
   \   00000078   0420A0E1           MOV      R2,R4
   \   0000007C   001090E5           LDR      R1,[R0, #+0]
   \   00000080   0600A0E1           MOV      R0,R6
   \   00000084   0118A0E1           MOV      R1,R1, LSL #+16
   \   00000088   2118A0E1           MOV      R1,R1, LSR #+16
   \   0000008C   4B0100EF           SWI      +331
    749          	GUIObject_SoftKeys_SetAction( lo, ACTION_LONG_BACK, OnBackBcfgGui );
   \   00000090   40009FE5           LDR      R0,??CreateGuiList_1+0x8  ;; ACTION_LONG_BACK
   \   00000094   0420A0E1           MOV      R2,R4
   \   00000098   001090E5           LDR      R1,[R0, #+0]
   \   0000009C   0600A0E1           MOV      R0,R6
   \   000000A0   0118A0E1           MOV      R1,R1, LSL #+16
   \   000000A4   2118A0E1           MOV      R1,R1, LSR #+16
   \   000000A8   4B0100EF           SWI      +331
    750          	GUIObject_SoftKeys_SetAction( lo, ACTION_SELECT1, OnSelect1GuiBcfg );
   \   000000AC   ........           LDR      R0,??DataTable44  ;; ACTION_SELECT1
   \   000000B0   24209FE5           LDR      R2,??CreateGuiList_1+0xC  ;; ??OnSelect1GuiBcfg
   \   000000B4   001090E5           LDR      R1,[R0, #+0]
   \   000000B8   0600A0E1           MOV      R0,R6
   \   000000BC   0118A0E1           MOV      R1,R1, LSL #+16
   \   000000C0   2118A0E1           MOV      R1,R1, LSR #+16
   \   000000C4   4B0100EF           SWI      +331
    751          	return lo;
   \   000000C8   0600A0E1           MOV      R0,R6
   \   000000CC   7080BDE8           POP      {R4-R6,PC}       ;; return
   \                     ??CreateGuiList_1:
   \   000000D0   ........           DC32     ??OnBackBcfgGui
   \   000000D4   ........           DC32     ??onLBMessage
   \   000000D8   ........           DC32     ACTION_LONG_BACK
   \   000000DC   ........           DC32     ??OnSelect1GuiBcfg
    752          };
    753          
    754          

   \                                 In segment CODE, align 4, keep-with-next
    755          void RefreshEdList(BOOK * bk)
    756          {
   \                     ??RefreshEdList:
   \   00000000   30402DE9           PUSH     {R4,R5,LR}
   \   00000004   0040A0E1           MOV      R4,R0
    757          	MyBOOK* mbk = (MyBOOK*) bk;
    758          	int pos = ListMenu_GetSelectedItem(mbk->bcfg);
   \   00000008   180094E5           LDR      R0,[R4, #+24]
   \   0000000C   3E0100EF           SWI      +318
   \   00000010   0050A0E1           MOV      R5,R0
    759          	ListMenu_DestroyItems(mbk->bcfg);
   \   00000014   180094E5           LDR      R0,[R4, #+24]
   \   00000018   BB0300EF           SWI      +955
    760          	ListMenu_SetItemCount( mbk->bcfg, mbk->list->FirstFree );
   \   0000001C   500094E5           LDR      R0,[R4, #+80]
   \   00000020   B210D0E1           LDRH     R1,[R0, #+2]
   \   00000024   180094E5           LDR      R0,[R4, #+24]
   \   00000028   C10100EF           SWI      +449
    761          	ListMenu_SetCursorToItem( mbk->bcfg, pos );
   \   0000002C   180094E5           LDR      R0,[R4, #+24]
   \   00000030   0510A0E1           MOV      R1,R5
   \   00000034   350100EF           SWI      +309
    762          	GUIObject_SoftKeys_SetVisible( mbk->bcfg, ACTION_SELECT1, 1 );
   \   00000038   ........           LDR      R0,??DataTable44  ;; ACTION_SELECT1
   \   0000003C   0120A0E3           MOV      R2,#+1
   \   00000040   001090E5           LDR      R1,[R0, #+0]
   \   00000044   180094E5           LDR      R0,[R4, #+24]
   \   00000048   0118A0E1           MOV      R1,R1, LSL #+16
   \   0000004C   2118A0E1           MOV      R1,R1, LSR #+16
   \   00000050   500100EF           SWI      +336
    763          }
   \   00000054   3080BDE8           POP      {R4,R5,PC}       ;; return
    764          
    765          

   \                                 In segment CODE, align 4, keep-with-next
    766          GUI* create_ed( BOOK* book, CFG_HDR* need_to_focus )
    767          {
   \                     ??create_ed:
   \   00000000   F34F2DE9           PUSH     {R0,R1,R4-R11,LR}
   \   00000004   40D04DE2           SUB      SP,SP,#+64
    768          	MyBOOK* mbk = (MyBOOK*) book;
    769          	BCFG_DATA* bdata = &mbk->bdata;
    770          	unsigned char* p = bdata->cfg;
    771          	int n = bdata->size_cfg;
    772          	CFG_HDR* hp;
    773          	int need_to_jump = 0;
    774          	LIST* list = mbk->list;
   \   00000008   508090E5           LDR      R8,[R0, #+80]
   \   0000000C   6C4080E2           ADD      R4,R0,#+108
   \   00000010   B200D8E1           LDRH     R0,[R8, #+2]
   \   00000014   005294E5           LDR      R5,[R4, #+512]
   \   00000018   046294E5           LDR      R6,[R4, #+516]
   \   0000001C   0070A0E3           MOV      R7,#+0
   \   00000020   000050E3           CMP      R0,#+0
   \   00000024   0500000A           BEQ      ??create_ed_2
    775          
    776          	while( list->FirstFree )
    777          		List_RemoveAt( list, 0 );
   \                     ??create_ed_3:
   \   00000028   0010A0E3           MOV      R1,#+0
   \   0000002C   0800A0E1           MOV      R0,R8
   \   00000030   790100EF           SWI      +377
   \   00000034   B200D8E1           LDRH     R0,[R8, #+2]
   \   00000038   000050E3           CMP      R0,#+0
   \   0000003C   F9FFFF1A           BNE      ??create_ed_3
    778          
    779          	GUI* gui = NULL;
    780          
    781          	int i;
    782          	unsigned int curlev = 0;
   \                     ??create_ed_2:
   \   00000040   00A0A0E3           MOV      R10,#+0
   \   00000044   0790A0E1           MOV      R9,R7
    783          	CFG_HDR* parent = NULL;
    784          	CFG_HDR* parents[16];
    785          
    786          	bool error = false;
   \   00000048   030000EA           B        ??create_ed_4
    787          
    788          	while( !error && n >= sizeof( CFG_HDR ) )
    789          	{
    790          		hp = (CFG_HDR*) p;
    791          		if( hp->type == CFG_LEVEL )
    792          		{
    793          			if( hp->min )
    794          			{
    795          				if( curlev == bdata->level && parent == bdata->levelstack[bdata->level] )
    796          				{
    797          					List_InsertLast( list, hp );
    798          				}
    799          			}
    800          			else if( curlev )
    801          			{
    802          				parent = parents[curlev -- ];
    803          			}
    804          		}
    805          		else
    806          		{
    807          			if( curlev == bdata->level && parent == bdata->levelstack[bdata->level] )
    808          			{
    809          				List_InsertLast( list, hp );
    810          			}
    811          		}
    812          		n -= sizeof( CFG_HDR );
    813          		p += sizeof( CFG_HDR );
    814          
    815          		switch( hp->type )
    816          		{
    817          		case CFG_UINT:
    818          			n -= sizeof( unsigned int );
    819          			if( n < 0 )
    820          				error = true;
    821          			else
    822          				p += sizeof( unsigned int );
    823          			break;
    824          		case CFG_INT:
    825          			n -= sizeof(int) ;
    826          			if( n < 0 )
    827          				error = true;
    828          			else
    829          				p += sizeof(int) ;
    830          			break;
    831          		case CFG_STR_UTF8:
    832          			n -= ( hp->max + 1 + 3 )&( ~3 );
    833          			if( n < 0 )
    834          				error = true;
    835          			else
    836          				p += ( hp->max + 1 + 3 )&( ~3 );
    837          			break;
    838          		case CFG_STR_WIN1251:
    839          			n -= ( hp->max + 1 + 3 )&( ~3 );
    840          			if( n < 0 )
    841          				error = true;
    842          			else
    843          				p += ( hp->max + 1 + 3 )&( ~3 );
    844          			break;
    845          
    846          		case CFG_UTF8_STRING:
    847          			n -= ( hp->max + 1 + 3 )&( ~3 );
    848          			if( n < 0 )
    849          				error = true;
    850          			else
    851          				p += ( hp->max + 1 + 3 )&( ~3 );
    852          			break;
    853          
    854          		case CFG_CBOX:
    855          			n -= hp->max * sizeof( CFG_CBOX_ITEM ) + 4;
    856          			if( n < 0 )
    857          				error = true;
    858          			else
    859          			{
    860          				i =* ( ( int*)p );
    861          				if( i >= hp->max )
    862          					error = true;
    863          				else
    864          					p += hp->max * sizeof( CFG_CBOX_ITEM ) + 4;
    865          			}
    866          			break;
    867          		case CFG_STR_PASS:
    868          			n -= ( hp->max + 1 + 3 )&( ~3 );
    869          			if( n < 0 )
    870          				error = true;
    871          			else
    872          				p += ( hp->max + 1 + 3 )&( ~3 );
    873          			break;
    874          		case CFG_COORDINATES:
    875          			n -= 8;
    876          			if( n < 0 )
    877          				error = true;
    878          			else
    879          				p += 8;
    880          			break;
    881          		case CFG_COLOR:
    882          			n -= 4;
    883          			if( n < 0 )
    884          				error = true;
    885          			else
    886          				p += 4;
    887          			break;
    888          		case CFG_LEVEL:
    889          			if( n < 0 )
    890          			{
    891          				error = true;
    892          				break;
    893          			}
    894          			if( hp->min )
    895          			{
    896          				if( curlev == bdata->level && parent == bdata->levelstack[bdata->level] )
    897          				{
    898          					if( need_to_focus )
    899          					{
    900          						if( need_to_focus == hp )
    901          							need_to_jump = list->FirstFree - 1;
    902          					}
    903          				}
    904          				curlev ++ ;
    905          				parents[curlev] = parent;
    906          				parent = hp;
    907          			}
    908          			continue;
    909          		case CFG_CHECKBOX:
    910          			n -= sizeof(int) ;
    911          			if( n < 0 )
    912          				error = true;
    913          			else
    914          				p += sizeof(int) ;
    915          			break;
    916          
    917          		case CFG_TIME:
    918          			n -= sizeof( TIME );
    919          			if( n < 0 )
    920          				error = true;
    921          			else
    922          				p += sizeof( TIME );
    923          			break;
    924          
    925          		case CFG_DATE:
    926          			n -= sizeof( DATE );
    927          			if( n < 0 )
    928          				error = true;
    929          			else
    930          				p += sizeof( DATE );
    931          			break;
    932          
    933          		case CFG_RECT:
    934          			n -= sizeof( RECT );
    935          			if( n < 0 )
    936          				error = true;
    937          			else
    938          				p += sizeof( RECT );
    939          			break;
    940          
    941          		case CFG_COLOR_INT:
    942          			n -= sizeof(int) ;
    943          			if( n < 0 )
    944          				error = true;
    945          			else
    946          				p += sizeof(int) ;
    947          			break;
    948          		case CFG_FONT:
    949          			n -= sizeof(int) ;
    950          			if( n < 0 )
    951          				error = true;
    952          			else
    953          				p += sizeof(int) ;
    954          			break;
    955          		case CFG_KEYCODE:
    956          			n -= 2* sizeof(int) ;
    957          			if( n < 0 )
    958          				error = true;
    959          			else
    960          				p += 2* sizeof(int) ;
    961          			break;
    962          		case CFG_UTF16_STRING:
    963          			n -= ( ( ( hp->max + 1 )* 2 ) + 3 )&( ~3 );
    964          			if( n < 0 )
    965          				error = true;
    966          			else
    967          				p += ( ( ( hp->max + 1 )* 2 ) + 3 )&( ~3 );
   \                     ??create_ed_5:
   \   0000004C   28009BE5           LDR      R0,[R11, #+40]
   \   00000050   800081E0           ADD      R0,R1,R0, LSL #+1
   \                     ??create_ed_6:
   \   00000054   0300C0E3           BIC      R0,R0,#0x3
   \   00000058   055080E0           ADD      R5,R0,R5
   \                     ??create_ed_4:
   \   0000005C   2C0056E3           CMP      R6,#+44
   \   00000060   6300003A           BCC      ??create_ed_7
   \   00000064   05B0A0E1           MOV      R11,R5
   \   00000068   00009BE5           LDR      R0,[R11, #+0]
   \   0000006C   090050E3           CMP      R0,#+9
   \   00000070   24009B05           LDREQ    R0,[R11, #+36]
   \   00000074   00005003           CMPEQ    R0,#+0
   \   00000078   0500001A           BNE      ??create_ed_8
   \   0000007C   000059E3           CMP      R9,#+0
   \   00000080   0D00000A           BEQ      ??create_ed_9
   \   00000084   0D00A0E1           MOV      R0,SP
   \   00000088   09A190E7           LDR      R10,[R0, +R9, LSL #+2]
   \   0000008C   019049E2           SUB      R9,R9,#+1
   \   00000090   090000EA           B        ??create_ed_9
   \                     ??create_ed_8:
   \   00000094   080294E5           LDR      R0,[R4, #+520]
   \   00000098   000059E1           CMP      R9,R0
   \   0000009C   0600001A           BNE      ??create_ed_9
   \   000000A0   000184E0           ADD      R0,R4,R0, LSL #+2
   \   000000A4   0C0290E5           LDR      R0,[R0, #+524]
   \   000000A8   00005AE1           CMP      R10,R0
   \   000000AC   0200001A           BNE      ??create_ed_9
   \   000000B0   0B10A0E1           MOV      R1,R11
   \   000000B4   0800A0E1           MOV      R0,R8
   \   000000B8   B00100EF           SWI      +432
   \                     ??create_ed_9:
   \   000000BC   00009BE5           LDR      R0,[R11, #+0]
   \   000000C0   2C6046E2           SUB      R6,R6,#+44
   \   000000C4   2C5085E2           ADD      R5,R5,#+44
   \   000000C8   010040E2           SUB      R0,R0,#+1
   \   000000CC   110050E3           CMP      R0,#+17
   \   000000D0   4700008A           BHI      ??create_ed_7
   \   000000D4   011F8FE2           ADR      R1,??create_ed_1
   \   000000D8   0010D1E7           LDRB     R1,[R1, R0]
   \   000000DC   01F18FE0           ADD      PC,PC,R1, LSL #+2
   \                     ??create_ed_1:
   \   000000E0   04080408           DC8      +4,+8,+4,+8
   \   000000E4   18082304           DC8      +24,+8,+35,+4
   \   000000E8   27100404           DC8      +39,+16,+4,+4
   \   000000EC   04230404           DC8      +4,+35,+4,+4
   \   000000F0   233E0000           DC8      +35,+62,+0,+0
   \                     ??create_ed_10:
   \   000000F4   046056E2           SUBS     R6,R6,#+4
   \   000000F8   3D00004A           BMI      ??create_ed_7
   \   000000FC   045085E2           ADD      R5,R5,#+4
   \   00000100   D5FFFFEA           B        ??create_ed_4
   \                     ??create_ed_11:
   \   00000104   28009BE5           LDR      R0,[R11, #+40]
   \   00000108   040080E2           ADD      R0,R0,#+4
   \   0000010C   0300C0E3           BIC      R0,R0,#0x3
   \   00000110   006056E0           SUBS     R6,R6,R0
   \   00000114   3600004A           BMI      ??create_ed_7
   \   00000118   28009BE5           LDR      R0,[R11, #+40]
   \   0000011C   040080E2           ADD      R0,R0,#+4
   \   00000120   CBFFFFEA           B        ??create_ed_6
   \                     ??create_ed_12:
   \   00000124   28009BE5           LDR      R0,[R11, #+40]
   \   00000128   040080E2           ADD      R0,R0,#+4
   \   0000012C   0300C0E3           BIC      R0,R0,#0x3
   \   00000130   006056E0           SUBS     R6,R6,R0
   \   00000134   2E00004A           BMI      ??create_ed_7
   \   00000138   28009BE5           LDR      R0,[R11, #+40]
   \   0000013C   040080E2           ADD      R0,R0,#+4
   \   00000140   C3FFFFEA           B        ??create_ed_6
   \                     ??create_ed_13:
   \   00000144   28009BE5           LDR      R0,[R11, #+40]
   \   00000148   800246E0           SUB      R0,R6,R0, LSL #+5
   \   0000014C   046050E2           SUBS     R6,R0,#+4
   \   00000150   2700004A           BMI      ??create_ed_7
   \   00000154   000095E5           LDR      R0,[R5, #+0]
   \   00000158   28109BE5           LDR      R1,[R11, #+40]
   \   0000015C   010050E1           CMP      R0,R1
   \   00000160   2300002A           BCS      ??create_ed_7
   \   00000164   810285E0           ADD      R0,R5,R1, LSL #+5
   \   00000168   045080E2           ADD      R5,R0,#+4
   \   0000016C   BAFFFFEA           B        ??create_ed_4
   \                     ??create_ed_14:
   \   00000170   086056E2           SUBS     R6,R6,#+8
   \   00000174   1E00004A           BMI      ??create_ed_7
   \   00000178   085085E2           ADD      R5,R5,#+8
   \   0000017C   B6FFFFEA           B        ??create_ed_4
   \                     ??create_ed_15:
   \   00000180   000056E3           CMP      R6,#+0
   \   00000184   1A00004A           BMI      ??create_ed_7
   \   00000188   24009BE5           LDR      R0,[R11, #+36]
   \   0000018C   000050E3           CMP      R0,#+0
   \   00000190   B1FFFF0A           BEQ      ??create_ed_4
   \   00000194   080294E5           LDR      R0,[R4, #+520]
   \   00000198   000059E1           CMP      R9,R0
   \   0000019C   0900001A           BNE      ??create_ed_16
   \   000001A0   000184E0           ADD      R0,R4,R0, LSL #+2
   \   000001A4   0C0290E5           LDR      R0,[R0, #+524]
   \   000001A8   00005AE1           CMP      R10,R0
   \   000001AC   0500001A           BNE      ??create_ed_16
   \   000001B0   44009DE5           LDR      R0,[SP, #+68]
   \   000001B4   000050E3           CMP      R0,#+0
   \   000001B8   0200000A           BEQ      ??create_ed_16
   \   000001BC   0B0050E1           CMP      R0,R11
   \   000001C0   B200D801           LDRHEQ   R0,[R8, #+2]
   \   000001C4   01704002           SUBEQ    R7,R0,#+1
   \                     ??create_ed_16:
   \   000001C8   019089E2           ADD      R9,R9,#+1
   \   000001CC   0D00A0E1           MOV      R0,SP
   \   000001D0   09A180E7           STR      R10,[R0, +R9, LSL #+2]
   \   000001D4   0BA0A0E1           MOV      R10,R11
   \   000001D8   9FFFFFEA           B        ??create_ed_4
   \                     ??create_ed_17:
   \   000001DC   28009BE5           LDR      R0,[R11, #+40]
   \   000001E0   0510A0E3           MOV      R1,#+5
   \   000001E4   800081E0           ADD      R0,R1,R0, LSL #+1
   \   000001E8   0300C0E3           BIC      R0,R0,#0x3
   \   000001EC   006056E0           SUBS     R6,R6,R0
   \   000001F0   95FFFF5A           BPL      ??create_ed_5
    968          			break;
    969          		default:
    970          			error = true;
    971          			break;
    972          		}
    973          	}
    974          
    975          	gui = CreateGuiList( mbk, need_to_jump );
   \                     ??create_ed_7:
   \   000001F4   40009DE5           LDR      R0,[SP, #+64]
   \   000001F8   0710A0E1           MOV      R1,R7
   \   000001FC   ........           BL       ??CreateGuiList
   \   00000200   0040A0E1           MOV      R4,R0
    976          	GUIObject_Show( gui );
   \   00000204   340100EF           SWI      +308
    977          	return gui;
   \   00000208   0400A0E1           MOV      R0,R4
   \   0000020C   48D08DE2           ADD      SP,SP,#+72
   \   00000210   F08FBDE8           POP      {R4-R11,PC}      ;; return
    978          }
    979          

   \                                 In segment CODE, align 4, keep-with-next
    980          static int RecreateEdPage( void* mess , BOOK* bk )
    981          {
   \                     ??RecreateEdPage:
   \   00000000   00402DE9           PUSH     {LR}
   \   00000004   0100A0E1           MOV      R0,R1
    982          	RefreshEdList(bk);
   \   00000008   ........           BL       ??RefreshEdList
    983          	return 1;
   \   0000000C   0100A0E3           MOV      R0,#+1
   \   00000010   0080BDE8           POP      {PC}             ;; return
    984          }
    985          
    986          

   \                                 In segment CODE, align 4, keep-with-next
    987          static int CreateEdPageOnCreate( void* mess , BOOK* bk )
    988          {
   \                     ??CreateEdPageOnCreate:
   \   00000000   10402DE9           PUSH     {R4,LR}
   \   00000004   0140A0E1           MOV      R4,R1
    989          	MyBOOK* mbk = (MyBOOK*) bk;
    990          	BCFG_DATA* bdata = &mbk->bdata;
   \   00000008   6C0084E2           ADD      R0,R4,#+108
    991          	mbk->old_crc = Crc32( bdata->cfg, bdata->size_cfg );
   \   0000000C   041290E5           LDR      R1,[R0, #+516]
   \   00000010   000290E5           LDR      R0,[R0, #+512]
   \   00000014   ........           BL       ??Crc32
   \   00000018   580084E5           STR      R0,[R4, #+88]
    992          	create_ed( mbk, 0 );
   \   0000001C   0010A0E3           MOV      R1,#+0
   \   00000020   0400A0E1           MOV      R0,R4
   \   00000024   ........           BL       ??create_ed
    993          	return 1;
   \   00000028   0100A0E3           MOV      R0,#+1
   \   0000002C   1080BDE8           POP      {R4,PC}          ;; return
    994          }
    995          

   \                                 In segment DYN_PAGE, align 4, align-sorted
    996          const PAGE_MSG bk_msglst_editor[] @ "DYN_PAGE" =
   \                     bk_msglst_editor:
   \   00000000   42000000....       DC32 66, ??CreateEdPageOnCreate, 76, ??RecreateEdPage, 64, 0H
   \              ....4C000000
   \              ........4000
   \              000000000000
    997          {
    998          	PAGE_ENTER_EVENT_TAG, CreateEdPageOnCreate,
    999          	ACCEPT_EVENT_TAG, RecreateEdPage,
   1000          	NIL_EVENT_TAG, NULL
   1001          };
   1002          
   1003          const PAGE_DESC bk_editor = { "BcfgEdit_CreateEditor_Page", 0, bk_msglst_editor };
   1004          
   1005          
   1006          

   \                                 In segment CODE, align 4, keep-with-next
   1007          static int TerminateElf( void* , BOOK* book )
   1008          {
   \                     ??TerminateElf:
   \   00000000   10402DE9           PUSH     {R4,LR}
   \   00000004   0140A0E1           MOV      R4,R1
   1009          	UI_Event_toSID( TERMINATE_SESSION_EVENT, BookObj_GetSessionID( book ) );
   \   00000008   0400A0E1           MOV      R0,R4
   \   0000000C   E60200EF           SWI      +742
   \   00000010   0010A0E1           MOV      R1,R0
   \   00000014   14009FE5           LDR      R0,??TerminateElf_1  ;; TERMINATE_SESSION_EVENT
   \   00000018   000090E5           LDR      R0,[R0, #+0]
   \   0000001C   E70200EF           SWI      +743
   1010          	FreeBook( book );
   \   00000020   0400A0E1           MOV      R0,R4
   \   00000024   2F0100EF           SWI      +303
   1011          	return 1;
   \   00000028   0100A0E3           MOV      R0,#+1
   \   0000002C   1080BDE8           POP      {R4,PC}          ;; return
   \                     ??TerminateElf_1:
   \   00000030   ........           DC32     TERMINATE_SESSION_EVENT
   1012          }
   1013          
   1014          

   \                                 In segment CODE, align 4, keep-with-next
   1015          static int ShowAuthorInfo( void* mess , BOOK* book )
   1016          {
   1017          	MSG* msg = ( MSG*)mess;
   1018          	wchar_t ustr[64];
   1019          	snwprintf( ustr, MAXELEMS( ustr ) - 1, L"\nBcfgEdit v1.0\nRevision %d\n( c ) Rst7, KreN, Hussein", __SVN_REVISION__ );
   \                     ??ShowAuthorInfo:
   \   00000000   64209FE5           LDR      R2,??ShowAuthorInfo_1  ;; `?<Constant L"\\xa\\x42\\x63\\x66\\x67\\x45\\x64\\x69\\x`
   \   00000004   10402DE9           PUSH     {R4,LR}
   \   00000008   80D04DE2           SUB      SP,SP,#+128
   \   0000000C   7A30A0E3           MOV      R3,#+122
   \   00000010   0040A0E1           MOV      R4,R0
   \   00000014   E03E83E3           ORR      R3,R3,#0xE00
   \   00000018   3F10A0E3           MOV      R1,#+63
   \   0000001C   0D00A0E1           MOV      R0,SP
   \   00000020   150100EF           SWI      +277
   1020          	MessageBox( EMPTY_TEXTID, TextID_Create( ustr, ENC_UCS2, MAXELEMS( ustr ) - 1 ), NOIMAGE, 1 , 5000, msg->book );
   \   00000024   3F20A0E3           MOV      R2,#+63
   \   00000028   0010A0E3           MOV      R1,#+0
   \   0000002C   0D00A0E1           MOV      R0,SP
   \   00000030   5D0100EF           SWI      +349
   \   00000034   001094E5           LDR      R1,[R4, #+0]
   \   00000038   0130A0E3           MOV      R3,#+1
   \   0000003C   02002DE9           PUSH     {R1}
   \   00000040   FF20A0E3           MOV      R2,#+255
   \   00000044   FF2C82E3           ORR      R2,R2,#0xFF00
   \   00000048   8810A0E3           MOV      R1,#+136
   \   0000004C   4C1D81E3           ORR      R1,R1,#0x1300
   \   00000050   02002DE9           PUSH     {R1}
   \   00000054   0010A0E1           MOV      R1,R0
   \   00000058   9004E0E3           MVN      R0,#-1879048192
   \   0000005C   570200EF           SWI      +599
   1021          	return 1;
   \   00000060   0100A0E3           MOV      R0,#+1
   \   00000064   88D08DE2           ADD      SP,SP,#+136
   \   00000068   1080BDE8           POP      {R4,PC}          ;; return
   \                     ??ShowAuthorInfo_1:
   \   0000006C   ........           DC32     `?<Constant L"\\xa\\x42\\x63\\x66\\x67\\x45\\x64\\x69\\x`
   1022          }
   1023          

   \                                 In segment CODE, align 4, keep-with-next
   1024          int SelBcfg_BcfgFilter( const wchar_t* ExtList, const wchar_t* ItemPath, const wchar_t* ItemName )
   1025          {
   \                     ??SelBcfg_BcfgFilter:
   \   00000000   00402DE9           PUSH     {LR}
   1026          	return DataBrowser_isFileInListExt( ExtList, ItemPath, ItemName );
   \   00000004   270100EF           SWI      +295
   \   00000008   0080BDE8           POP      {PC}             ;; return
   1027          }
   1028          

   \                                 In segment CODE, align 4, keep-with-next
   1029          static int SelBcfgPageOnCreate( void* , BOOK* bk )
   1030          {
   \                     ??SelBcfgPageOnCreate:
   \   00000000   70402DE9           PUSH     {R4-R6,LR}
   1031          	MyBOOK* mbk = (MyBOOK*) bk;
   1032          	static char actions[4];
   1033          	void* DB_Desc = DataBrowserDesc_Create();
   1034          
   1035          	const wchar_t* folder_list[2];
   1036          	folder_list[0] = GetDir( DIR_ELFS_CONFIG|MEM_INTERNAL );
   1037          	folder_list[1] = GetDir( DIR_ELFS_CONFIG|MEM_EXTERNAL );
   1038          	DataBrowserDesc_SetHeaderText( DB_Desc, TextID_Create( L"Config", ENC_UCS2, TEXTID_ANY_LEN ) );
   \   00000004   D0609FE5           LDR      R6,??SelBcfgPageOnCreate_1  ;; `?<Constant L"\\x43\\x6f\\x6e\\x66\\x69\\x67">`
   \   00000008   08D04DE2           SUB      SP,SP,#+8
   \   0000000C   0150A0E1           MOV      R5,R1
   \   00000010   1F0100EF           SWI      +287
   \   00000014   0040A0E1           MOV      R4,R0
   \   00000018   1500A0E3           MOV      R0,#+21
   \   0000001C   050100EF           SWI      +261
   \   00000020   00008DE5           STR      R0,[SP, #+0]
   \   00000024   1400A0E3           MOV      R0,#+20
   \   00000028   050100EF           SWI      +261
   \   0000002C   04008DE5           STR      R0,[SP, #+4]
   \   00000030   FF20A0E3           MOV      R2,#+255
   \   00000034   FF2C82E3           ORR      R2,R2,#0xFF00
   \   00000038   0010A0E3           MOV      R1,#+0
   \   0000003C   0600A0E1           MOV      R0,R6
   \   00000040   5D0100EF           SWI      +349
   \   00000044   0010A0E1           MOV      R1,R0
   \   00000048   0400A0E1           MOV      R0,R4
   \   0000004C   210100EF           SWI      +289
   1039          	DataBrowserDesc_SetBookID( DB_Desc, BookObj_GetBookID( mbk ) );
   \   00000050   0500A0E1           MOV      R0,R5
   \   00000054   FA0100EF           SWI      +506
   \   00000058   0010A0E1           MOV      R1,R0
   \   0000005C   0400A0E1           MOV      R0,R4
   \   00000060   AD0200EF           SWI      +685
   1040          	DataBrowserDesc_SetFolders( DB_Desc, folder_list );
   \   00000064   0D10A0E1           MOV      R1,SP
   \   00000068   0400A0E1           MOV      R0,R4
   \   0000006C   220100EF           SWI      +290
   1041          	DataBrowserDesc_SetFoldersNumber( DB_Desc, 2 );
   \   00000070   0210A0E3           MOV      R1,#+2
   \   00000074   0400A0E1           MOV      R0,R4
   \   00000078   A90200EF           SWI      +681
   1042          
   1043          	DataBrowserDesc_SetSelectAction( DB_Desc, 1 );
   \   0000007C   0110A0E3           MOV      R1,#+1
   \   00000080   0400A0E1           MOV      R0,R4
   \   00000084   AB0200EF           SWI      +683
   1044          	DataBrowserDesc_SetFileExtList( DB_Desc, L"*.bcfg" );
   \   00000088   101086E2           ADD      R1,R6,#+16
   \   0000008C   0400A0E1           MOV      R0,R4
   \   00000090   B10200EF           SWI      +689
   1045          	DataBrowserDesc_SetItemFilter( DB_Desc, SelBcfg_BcfgFilter );
   \   00000094   44109FE5           LDR      R1,??SelBcfgPageOnCreate_1+0x4  ;; ??SelBcfg_BcfgFilter
   \   00000098   0400A0E1           MOV      R0,R4
   \   0000009C   AE0200EF           SWI      +686
   1046          
   1047          	actions[0] = DB_CMD_DELETE;
   \   000000A0   3C009FE5           LDR      R0,??SelBcfgPageOnCreate_1+0x8  ;; DB_CMD_DELETE
   \   000000A4   3C109FE5           LDR      R1,??SelBcfgPageOnCreate_1+0xC  ;; ??actions
   \   000000A8   000090E5           LDR      R0,[R0, #+0]
   \   000000AC   0000C1E5           STRB     R0,[R1, #+0]
   1048          	actions[1] = DB_CMD_LAST;
   \   000000B0   34009FE5           LDR      R0,??SelBcfgPageOnCreate_1+0x10  ;; DB_CMD_LAST
   \   000000B4   000090E5           LDR      R0,[R0, #+0]
   \   000000B8   0100C1E5           STRB     R0,[R1, #+1]
   1049          	DataBrowserDesc_SetActions( DB_Desc, actions );
   \   000000BC   0400A0E1           MOV      R0,R4
   \   000000C0   AA0200EF           SWI      +682
   1050          
   1051          	DataBrowser_Create( DB_Desc );
   \   000000C4   0400A0E1           MOV      R0,R4
   \   000000C8   240100EF           SWI      +292
   1052          	DataBrowserDesc_Destroy( DB_Desc );
   \   000000CC   0400A0E1           MOV      R0,R4
   \   000000D0   250100EF           SWI      +293
   1053          	return 1;
   \   000000D4   0100A0E3           MOV      R0,#+1
   \   000000D8   7680BDE8           POP      {R1,R2,R4-R6,PC}  ;; return
   \                     ??SelBcfgPageOnCreate_1:
   \   000000DC   ........           DC32     `?<Constant L"\\x43\\x6f\\x6e\\x66\\x69\\x67">`
   \   000000E0   ........           DC32     ??SelBcfg_BcfgFilter
   \   000000E4   ........           DC32     DB_CMD_DELETE
   \   000000E8   ........           DC32     ??actions
   \   000000EC   ........           DC32     DB_CMD_LAST
   1054          }

   \                                 In segment DATA_Z, align 4, align-sorted
   \                     ??actions:
   \   00000000                      DS8 4
   1055          

   \                                 In segment CODE, align 4, keep-with-next
   1056          static int SelBcfgPageOnAccept( void* data, BOOK* bk )
   1057          {
   \                     ??SelBcfgPageOnAccept:
   \   00000000   70402DE9           PUSH     {R4-R6,LR}
   \   00000004   0040A0E1           MOV      R4,R0
   \   00000008   0150A0E1           MOV      R5,R1
   1058          	MyBOOK* mbk = (MyBOOK*) bk;
   1059          	FILEITEM* file = ( FILEITEM*)data;
   1060          	BCFG_DATA* bdata = &mbk->bdata;
   \   0000000C   6C6085E2           ADD      R6,R5,#+108
   1061          	wstrncpy( bdata->path, FILEITEM_GetPath( file ), MAXELEMS( bdata->path ) );
   \   00000010   D30200EF           SWI      +723
   \   00000014   8020A0E3           MOV      R2,#+128
   \   00000018   0010A0E1           MOV      R1,R0
   \   0000001C   0600A0E1           MOV      R0,R6
   \   00000020   530100EF           SWI      +339
   1062          	wstrncpy( bdata->name, FILEITEM_GetFname( file ), MAXELEMS( bdata->name ) );
   \   00000024   0400A0E1           MOV      R0,R4
   \   00000028   D20200EF           SWI      +722
   \   0000002C   0010A0E1           MOV      R1,R0
   \   00000030   8020A0E3           MOV      R2,#+128
   \   00000034   400F86E2           ADD      R0,R6,#+256
   \   00000038   530100EF           SWI      +339
   1063          	if( LoadCfg( bdata ) )
   \   0000003C   0600A0E1           MOV      R0,R6
   \   00000040   ........           BL       ??LoadCfg
   \   00000044   000050E3           CMP      R0,#+0
   \   00000048   0400000A           BEQ      ??SelBcfgPageOnAccept_1
   1064          	{
   1065          		BookObj_GotoPage( mbk, &bk_editor );
   \   0000004C   ........           LDR      R1,??DataTable46  ;; `?<Constant L"\\x48\\x50\\x42\\x5f\\x53\\x41\\x56\\x45\\` + 136
   \   00000050   0500A0E1           MOV      R0,R5
   \   00000054   2D0100EF           SWI      +301
   \   00000058   0100A0E3           MOV      R0,#+1
   \   0000005C   7080BDE8           POP      {R4-R6,PC}
   1066          	}
   1067          	else
   1068          	{
   1069          		FreeBook( mbk );
   \                     ??SelBcfgPageOnAccept_1:
   \   00000060   0500A0E1           MOV      R0,R5
   \   00000064   2F0100EF           SWI      +303
   1070          	}
   1071          	return 1;
   \   00000068   0100A0E3           MOV      R0,#+1
   \   0000006C   7080BDE8           POP      {R4-R6,PC}       ;; return
   1072          }
   1073          

   \                                 In segment CODE, align 4, keep-with-next
   1074          static int SelBcfgPageOnCancel( void* data, BOOK* bk )
   1075          {
   \                     ??SelBcfgPageOnCancel:
   \   00000000   00402DE9           PUSH     {LR}
   \   00000004   0100A0E1           MOV      R0,R1
   1076          	FreeBook( bk );
   \   00000008   2F0100EF           SWI      +303
   1077          	return 1;
   \   0000000C   0100A0E3           MOV      R0,#+1
   \   00000010   0080BDE8           POP      {PC}             ;; return
   1078          }
   1079          

   \                                 In segment DYN_PAGE, align 4, align-sorted
   1080          const PAGE_MSG bk_msglst_selbcfg[] @ "DYN_PAGE" =
   \                     bk_msglst_selbcfg:
   \   00000000   42000000....       DC32 66, ??SelBcfgPageOnCreate, 76, ??SelBcfgPageOnAccept, 78
   \              ....4C000000
   \              ........4E00
   \              0000        
   \   00000014   ........4D00       DC32 ??SelBcfgPageOnCancel, 77, ??SelBcfgPageOnCancel, 64, 0H
   \              0000........
   \              400000000000
   \              0000        
   1081          {
   1082          	PAGE_ENTER_EVENT_TAG, SelBcfgPageOnCreate,
   1083          	ACCEPT_EVENT_TAG, SelBcfgPageOnAccept,
   1084          	CANCEL_EVENT_TAG, SelBcfgPageOnCancel,
   1085          	PREVIOUS_EVENT_TAG, SelBcfgPageOnCancel,
   1086          	NIL_EVENT_TAG, NULL
   1087          };
   1088          
   1089          const PAGE_DESC bk_selbcfg = { "BcfgEdit_SelectBcfg_Page", 0, bk_msglst_selbcfg };
   1090          

   \                                 In segment CODE, align 4, keep-with-next
   1091          static int MainPageOnCreate( void* , BOOK* bk )
   1092          {
   \                     ??MainPageOnCreate:
   \   00000000   70402DE9           PUSH     {R4-R6,LR}
   1093          	MyBOOK* mbk = (MyBOOK*) bk;
   1094          	BCFG_DATA* bdata = &mbk->bdata;
   1095          	mbk->list = List_Create();
   1096          
   1097          	textidname2id( IDN_CHANGES_HAVE_BEEN_MADE, - 1, &mbk->changes_have_been_made );
   \   00000004   90609FE5           LDR      R6,??MainPageOnCreate_1  ;; `?<Constant L"\\x48\\x50\\x42\\x5f\\x53\\x41\\x56\\x45\\`
   \   00000008   0140A0E1           MOV      R4,R1
   \   0000000C   6C5084E2           ADD      R5,R4,#+108
   \   00000010   690100EF           SWI      +361
   \   00000014   500084E5           STR      R0,[R4, #+80]
   \   00000018   642084E2           ADD      R2,R4,#+100
   \   0000001C   0010E0E3           MVN      R1,#+0
   \   00000020   0600A0E1           MOV      R0,R6
   \   00000024   870200EF           SWI      +647
   1098          	textidname2id( IDN_SAVE_BEFORE_EXIT, - 1, &mbk->save_before_exit );
   \   00000028   682084E2           ADD      R2,R4,#+104
   \   0000002C   0010E0E3           MVN      R1,#+0
   \   00000030   340086E2           ADD      R0,R6,#+52
   \   00000034   870200EF           SWI      +647
   1099          	textidname2id( IDN_CHECKBOX_UNCHECKED_ICON, - 1, &mbk->check_box_unchecked );
   \   00000038   5C2084E2           ADD      R2,R4,#+92
   \   0000003C   0010E0E3           MVN      R1,#+0
   \   00000040   680086E2           ADD      R0,R6,#+104
   \   00000044   870200EF           SWI      +647
   1100          	textidname2id( IDN_CHECKBOX_CHECKED_ICON, - 1, &mbk->check_box_checked );
   \   00000048   602084E2           ADD      R2,R4,#+96
   \   0000004C   0010E0E3           MVN      R1,#+0
   \   00000050   780086E2           ADD      R0,R6,#+120
   \   00000054   870200EF           SWI      +647
   1101          	if( *bdata->path == '/' ) //     
   \   00000058   B000D5E1           LDRH     R0,[R5, #+0]
   \   0000005C   2F0050E3           CMP      R0,#+47
   \   00000060   0800001A           BNE      ??MainPageOnCreate_2
   1102          	{
   1103          		if( LoadCfg( bdata ) )
   \   00000064   0500A0E1           MOV      R0,R5
   \   00000068   ........           BL       ??LoadCfg
   \   0000006C   000050E3           CMP      R0,#+0
   1104          		{
   1105          			BookObj_GotoPage( mbk, &bk_editor );
   \   00000070   ........           LDRNE    R1,??DataTable46  ;; `?<Constant L"\\x48\\x50\\x42\\x5f\\x53\\x41\\x56\\x45\\` + 136
   \   00000074   0400001A           BNE      ??MainPageOnCreate_3
   1106          		}
   1107          		else
   1108          		{
   1109          			FreeBook( mbk );
   \   00000078   0400A0E1           MOV      R0,R4
   \   0000007C   2F0100EF           SWI      +303
   \   00000080   0100A0E3           MOV      R0,#+1
   \   00000084   7080BDE8           POP      {R4-R6,PC}
   1110          		}
   1111          	}
   1112          	else
   1113          	{
   1114          		BookObj_GotoPage( mbk, &bk_selbcfg );
   \                     ??MainPageOnCreate_2:
   \   00000088   10109FE5           LDR      R1,??MainPageOnCreate_1+0x4  ;; `?<Constant L"\\x48\\x50\\x42\\x5f\\x53\\x41\\x56\\x45\\` + 148
   \                     ??MainPageOnCreate_3:
   \   0000008C   0400A0E1           MOV      R0,R4
   \   00000090   2D0100EF           SWI      +301
   1115          	}
   1116          	return 1;
   \   00000094   0100A0E3           MOV      R0,#+1
   \   00000098   7080BDE8           POP      {R4-R6,PC}       ;; return
   \                     ??MainPageOnCreate_1:
   \   0000009C   ........           DC32     `?<Constant L"\\x48\\x50\\x42\\x5f\\x53\\x41\\x56\\x45\\`
   \   000000A0   ........           DC32     `?<Constant L"\\x48\\x50\\x42\\x5f\\x53\\x41\\x56\\x45\\` + 148
   1117          }
   1118          

   \                                 In segment DYN_PAGE, align 4, align-sorted
   1119          const PAGE_MSG bk_msglst_main[] @ "DYN_PAGE" =
   \                     bk_msglst_main:
   \   00000000   42000000....       DC32 66, ??MainPageOnCreate, 64, 0H
   \              ....40000000
   \              00000000    

   \                                 In segment DATA_C, align 4, align-sorted
   \                     `?<Constant "BcfgEdit">`:
   \   00000000   426366674564       DC8 "BcfgEdit"
   \              697400      
   \   00000009   000000             DC8 0, 0, 0
   \   0000000C   ........0000       DC32 `?<Constant "BcfgEdit_Base_Page">`, 0H, bk_msglst_base
   \              0000........
   \   00000018   ........0000       DC32 `?<Constant "BcfgEdit_Main_Page">`, 0H, bk_msglst_main
   \              0000........

   \                                 In segment DATA_C, align 4, align-sorted
   \                     `?<Constant L"\\x48\\x50\\x42\\x5f\\x53\\x41\\x56\\x45\\`:
   \   00000000   480050004200       DC8 48H, 0, 50H, 0, 42H, 0, 5FH, 0
   \              5F00        
   \   00000008   530041005600       DC8 53H, 0, 41H, 0, 56H, 0, 45H, 0
   \              4500        
   \   00000010   5F0042004500       DC8 5FH, 0, 42H, 0, 45H, 0, 46H, 0
   \              4600        
   \   00000018   4F0052004500       DC8 4FH, 0, 52H, 0, 45H, 0, 5FH, 0
   \              5F00        
   \   00000020   450058004900       DC8 45H, 0, 58H, 0, 49H, 0, 54H, 0
   \              5400        
   \   00000028   44005F005400       DC8 44H, 0, 5FH, 0, 54H, 0, 58H, 0
   \              5800        
   \   00000030   54000000           DC8 54H, 0, 0, 0
   \   00000034   480050004200       DC8 48H, 0, 50H, 0, 42H, 0, 5FH, 0
   \              5F00        
   \   0000003C   530041005600       DC8 53H, 0, 41H, 0, 56H, 0, 45H, 0
   \              4500        
   \   00000044   5F0042004500       DC8 5FH, 0, 42H, 0, 45H, 0, 46H, 0
   \              4600        
   \   0000004C   4F0052004500       DC8 4FH, 0, 52H, 0, 45H, 0, 5FH, 0
   \              5F00        
   \   00000054   450058004900       DC8 45H, 0, 58H, 0, 49H, 0, 54H, 0
   \              5400        
   \   0000005C   51005F005400       DC8 51H, 0, 5FH, 0, 54H, 0, 58H, 0
   \              5800        
   \   00000064   54000000           DC8 54H, 0, 0, 0
   \   00000068   4F0046004600       DC8 4FH, 0, 46H, 0, 46H, 0, 5FH, 0
   \              5F00        
   \   00000070   540058005400       DC8 54H, 0, 58H, 0, 54H, 0, 0, 0
   \              0000        
   \   00000078   4F004E005F00       DC8 4FH, 0, 4EH, 0, 5FH, 0, 54H, 0
   \              5400        
   \   00000080   580054000000       DC8 58H, 0, 54H, 0, 0, 0
   \   00000086   0000               DC8 0, 0
   \   00000088   ........0000       DC32 `?<Constant "BcfgEdit_CreateEditor...">`, 0H, bk_msglst_editor
   \              0000........
   \   00000094   ........0000       DC32 `?<Constant "BcfgEdit_SelectBcfg_Page">`, 0H, bk_msglst_selbcfg
   \              0000........
   1120          {
   1121          	PAGE_ENTER_EVENT_TAG, MainPageOnCreate,
   1122          	NIL_EVENT_TAG, NULL
   1123          };
   1124          
   1125          const PAGE_DESC bk_main = { "BcfgEdit_Main_Page", 0, bk_msglst_main };
   1126          
   1127          
   1128          //   

   \                                 In segment CODE, align 4, keep-with-next
   1129          static void onMyBookClose( BOOK* book )
   1130          {
   \                     ??onMyBookClose:
   \   00000000   10402DE9           PUSH     {R4,LR}
   \   00000004   0040A0E1           MOV      R4,R0
   1131          	MyBOOK* mbk = (MyBOOK*) book;
   1132          	Free_FLIST();
   \   00000008   ........           _BLF     ??Free_FLIST,??Free_FLIST??rA
   1133          	delete mbk->bdata.cfg;
   \   0000000C   6C0294E5           LDR      R0,[R4, #+620]
   \   00000010   ........           _BLF     `??operator delete`,`??operator delete??rA`
   1134          	List_Destroy( mbk->list );
   \   00000014   500094E5           LDR      R0,[R4, #+80]
   \   00000018   6A0100EF           SWI      +362
   1135          	SUBPROC( elf_exit );
   \   0000001C   ........           LDR      R0,??DataTable50  ;; ??elf_exit
   \   00000020   080100EF           SWI      +264
   1136          }
   \   00000024   1080BDE8           POP      {R4,PC}          ;; return
   1137          

   \                                 In segment CODE, align 4, keep-with-next
   1138          int isBcfgEditBook( BOOK* struc )
   1139          {
   1140          	return struc->onClose == onMyBookClose;
   \                     ??isBcfgEditBook:
   \   00000000   040090E5           LDR      R0,[R0, #+4]
   \   00000004   ........           LDR      R1,??DataTable49  ;; ??onMyBookClose
   \   00000008   010050E1           CMP      R0,R1
   \   0000000C   0100A003           MOVEQ    R0,#+1
   \   00000010   1EFF2F01           BXEQ     LR
   \   00000014   0000A0E3           MOV      R0,#+0
   \   00000018   1EFF2FE1           BX       LR               ;; return
   1141          }
   1142          
   1143          

   \                                 In segment CODE, align 4, keep-with-next
   1144          int main( wchar_t* elfname, wchar_t* path, wchar_t* fname )
   1145          {
   \                     main:
   \   00000000   F0402DE9           PUSH     {R4-R7,LR}
   \   00000004   0140A0E1           MOV      R4,R1
   \   00000008   0250A0E1           MOV      R5,R2
   1146          	MyBOOK* myBook = new MyBOOK;
   \   0000000C   AE0FA0E3           MOV      R0,#+696
   \   00000010   ........           _BLF     `??operator new`,`??operator new??rA`
   \   00000014   0060A0E1           MOV      R6,R0
   1147          	BCFG_DATA* bdata = &myBook->bdata;
   \   00000018   6C7086E2           ADD      R7,R6,#+108
   1148          	memset( myBook, 0, sizeof( MyBOOK ) );
   \   0000001C   AE2FA0E3           MOV      R2,#+696
   \   00000020   0010A0E3           MOV      R1,#+0
   \   00000024   120100EF           SWI      +274
   1149          	if( path && fname )
   \   00000028   000054E3           CMP      R4,#+0
   \   0000002C   00005513           CMPNE    R5,#+0
   \   00000030   0700000A           BEQ      ??main_0
   1150          	{
   1151          		wstrncpy( bdata->path, path, MAXELEMS( bdata->path ) );
   \   00000034   8020A0E3           MOV      R2,#+128
   \   00000038   0410A0E1           MOV      R1,R4
   \   0000003C   0700A0E1           MOV      R0,R7
   \   00000040   530100EF           SWI      +339
   1152          		wstrncpy( bdata->name, fname, MAXELEMS( bdata->name ) );
   \   00000044   8020A0E3           MOV      R2,#+128
   \   00000048   0510A0E1           MOV      R1,R5
   \   0000004C   400F87E2           ADD      R0,R7,#+256
   \   00000050   530100EF           SWI      +339
   1153          	}
   1154          	if( ! CreateBook( myBook, onMyBookClose, &bk_base, "BcfgEdit", - 1, 0 ) )
   \                     ??main_0:
   \   00000054   58009FE5           LDR      R0,??main_1      ;; `?<Constant "BcfgEdit">`
   \   00000058   0010A0E3           MOV      R1,#+0
   \   0000005C   02002DE9           PUSH     {R1}
   \   00000060   0030A0E1           MOV      R3,R0
   \   00000064   0C2080E2           ADD      R2,R0,#+12
   \   00000068   0600A0E1           MOV      R0,R6
   \   0000006C   0110E0E1           MVN      R1,R1
   \   00000070   02002DE9           PUSH     {R1}
   \   00000074   ........           LDR      R1,??DataTable49  ;; ??onMyBookClose
   \   00000078   2B0100EF           SWI      +299
   \   0000007C   000050E3           CMP      R0,#+0
   \   00000080   08D08DE2           ADD      SP,SP,#+8
   \   00000084   0500001A           BNE      ??main_2
   1155          	{
   1156          		delete myBook;
   \   00000088   0600A0E1           MOV      R0,R6
   \   0000008C   ........           _BLF     `??operator delete`,`??operator delete??rA`
   1157          		SUBPROC( elf_exit );
   \   00000090   ........           LDR      R0,??DataTable50  ;; ??elf_exit
   \   00000094   080100EF           SWI      +264
   1158          		return 0;
   \   00000098   0000A0E3           MOV      R0,#+0
   \   0000009C   F080BDE8           POP      {R4-R7,PC}
   1159          	}
   1160          	BookObj_GotoPage( (BOOK*) myBook, &bk_main );
   \                     ??main_2:
   \   000000A0   10109FE5           LDR      R1,??main_1+0x4  ;; `?<Constant "BcfgEdit">` + 24
   \   000000A4   0600A0E1           MOV      R0,R6
   \   000000A8   2D0100EF           SWI      +301
   1161          	return 0;
   \   000000AC   0000A0E3           MOV      R0,#+0
   \   000000B0   F080BDE8           POP      {R4-R7,PC}       ;; return
   \                     ??main_1:
   \   000000B4   ........           DC32     `?<Constant "BcfgEdit">`
   \   000000B8   ........           DC32     `?<Constant "BcfgEdit">` + 24
   1162          }

   \                                 In segment CODE, align 4, keep-with-next
   \                     ??DataTable2:
   \   00000000   ........           DC32     ACTION_BACK

   \                                 In segment CODE, align 4, keep-with-next
   \                     ??DataTable3:
   \   00000000   ........           DC32     ACTION_SELECT1

   \                                 In segment CODE, align 4, keep-with-next
   \                     ??DataTable30:
   \   00000000   ........           DC32     `?<Constant L"\\x6d\\x69\\x6e\\x5f\\x73\\x74\\x72\\x69\\`

   \                                 In segment CODE, align 4, keep-with-next
   \                     ??DataTable31:
   \   00000000   ........           DC32     VAR_ARG_STRINP_MIN_LEN

   \                                 In segment CODE, align 4, keep-with-next
   \                     ??DataTable32:
   \   00000000   ........           DC32     VAR_ARG_STRINP_IS_PASS_MODE

   \                                 In segment CODE, align 4, keep-with-next
   \                     ??DataTable33:
   \   00000000   ........           DC32     VAR_ARG_CALL_BACK_OK

   \                                 In segment CODE, align 4, keep-with-next
   \                     ??DataTable34:
   \   00000000   ........           DC32     ??OnBackCreateTextInputGui

   \                                 In segment CODE, align 4, keep-with-next
   \                     ??DataTable35:
   \   00000000   ........           DC32     VAR_ARG_CALL_BACK_PREV_ACT

   \                                 In segment CODE, align 4, keep-with-next
   \                     ??DataTable36:
   \   00000000   ........           DC32     VAR_ARG_STRINP_TEXT

   \                                 In segment CODE, align 4, keep-with-next
   \                     ??DataTable37:
   \   00000000   ........           DC32     VAR_ARG_BOOK

   \                                 In segment CODE, align 4, keep-with-next
   \                     ??DataTable38:
   \   00000000   ........           DC32     VAR_ARG_STRINP_MODE

   \                                 In segment CODE, align 4, keep-with-next
   \                     ??DataTable39:
   \   00000000   ........           DC32     VAR_ARG_STRINP_MAX_LEN

   \                                 In segment CODE, align 4, keep-with-next
   \                     ??DataTable40:
   \   00000000   ........           DC32     VAR_ARG_HTEXT

   \                                 In segment CODE, align 4, keep-with-next
   \                     ??DataTable41:
   \   00000000   ........           DC32     `?<Constant L"\\x25\\x75">`

   \                                 In segment CODE, align 4, keep-with-next
   \                     ??DataTable42:
   \   00000000   ........           DC32     ACTION_BACK

   \                                 In segment CODE, align 4, keep-with-next
   \                     ??DataTable44:
   \   00000000   ........           DC32     ACTION_SELECT1

   \                                 In segment CODE, align 4, keep-with-next
   \                     ??DataTable46:
   \   00000000   ........           DC32     `?<Constant L"\\x48\\x50\\x42\\x5f\\x53\\x41\\x56\\x45\\` + 136

   \                                 In segment CODE, align 4, keep-with-next
   \                     ??DataTable49:
   \   00000000   ........           DC32     ??onMyBookClose

   \                                 In segment CODE, align 4, keep-with-next
   \                     ??DataTable50:
   \   00000000   ........           DC32     ??elf_exit

   \                                 In segment ELFBEGIN, align 1

   \                                 In segment DATA_C, align 4, align-sorted
   \                     `?<Constant L"\\x57\\x41\\x50\\x5f\\x53\\x45\\x4c\\x45\\`:
   \   00000000   570041005000       DC8 57H, 0, 41H, 0, 50H, 0, 5FH, 0
   \              5F00        
   \   00000008   530045004C00       DC8 53H, 0, 45H, 0, 4CH, 0, 45H, 0
   \              4500        
   \   00000010   430054005F00       DC8 43H, 0, 54H, 0, 5FH, 0, 46H, 0
   \              4600        
   \   00000018   49004C004500       DC8 49H, 0, 4CH, 0, 45H, 0, 5FH, 0
   \              5F00        
   \   00000020   540058005400       DC8 54H, 0, 58H, 0, 54H, 0, 0, 0
   \              0000        
   \   00000028   4D0053004700       DC8 4DH, 0, 53H, 0, 47H, 0, 5FH, 0
   \              5F00        
   \   00000030   550049005F00       DC8 55H, 0, 49H, 0, 5FH, 0, 4DH, 0
   \              4D00        
   \   00000038   4F0056004500       DC8 4FH, 0, 56H, 0, 45H, 0, 5FH, 0
   \              5F00        
   \   00000040   4D0045005300       DC8 4DH, 0, 45H, 0, 53H, 0, 53H, 0
   \              5300        
   \   00000048   410047004500       DC8 41H, 0, 47H, 0, 45H, 0, 5FH, 0
   \              5F00        
   \   00000050   530045004C00       DC8 53H, 0, 45H, 0, 4CH, 0, 45H, 0
   \              4500        
   \   00000058   430054005F00       DC8 43H, 0, 54H, 0, 5FH, 0, 46H, 0
   \              4600        
   \   00000060   4F004C004400       DC8 4FH, 0, 4CH, 0, 44H, 0, 45H, 0
   \              4500        
   \   00000068   52005F005400       DC8 52H, 0, 5FH, 0, 54H, 0, 58H, 0
   \              5800        
   \   00000070   54000000           DC8 54H, 0, 0, 0
   \   00000074   530065006C00       DC8 53H, 0, 65H, 0, 6CH, 0, 65H, 0
   \              6500        
   \   0000007C   630074002000       DC8 63H, 0, 74H, 0, 20H, 0, 66H, 0
   \              6600        
   \   00000084   6F006C006400       DC8 6FH, 0, 6CH, 0, 64H, 0, 65H, 0
   \              6500        
   \   0000008C   72000000           DC8 72H, 0, 0, 0

   \                                 In segment DATA_C, align 4, align-sorted
   \                     `?<Constant L"\\xa\\x42\\x63\\x66\\x67\\x45\\x64\\x69\\x`:
   \   00000000   0A0042006300       DC8 0AH, 0, 42H, 0, 63H, 0, 66H, 0
   \              6600        
   \   00000008   670045006400       DC8 67H, 0, 45H, 0, 64H, 0, 69H, 0
   \              6900        
   \   00000010   740020007600       DC8 74H, 0, 20H, 0, 76H, 0, 31H, 0
   \              3100        
   \   00000018   2E0030000A00       DC8 2EH, 0, 30H, 0, 0AH, 0, 52H, 0
   \              5200        
   \   00000020   650076006900       DC8 65H, 0, 76H, 0, 69H, 0, 73H, 0
   \              7300        
   \   00000028   69006F006E00       DC8 69H, 0, 6FH, 0, 6EH, 0, 20H, 0
   \              2000        
   \   00000030   250064000A00       DC8 25H, 0, 64H, 0, 0AH, 0, 28H, 0
   \              2800        
   \   00000038   200063002000       DC8 20H, 0, 63H, 0, 20H, 0, 29H, 0
   \              2900        
   \   00000040   200052007300       DC8 20H, 0, 52H, 0, 73H, 0, 74H, 0
   \              7400        
   \   00000048   37002C002000       DC8 37H, 0, 2CH, 0, 20H, 0, 4BH, 0
   \              4B00        
   \   00000050   720065004E00       DC8 72H, 0, 65H, 0, 4EH, 0, 2CH, 0
   \              2C00        
   \   00000058   200048007500       DC8 20H, 0, 48H, 0, 75H, 0, 73H, 0
   \              7300        
   \   00000060   730065006900       DC8 73H, 0, 65H, 0, 69H, 0, 6EH, 0
   \              6E00        
   \   00000068   0000               DC8 0, 0
   \   0000006A   0000               DC8 0, 0

   \                                 In segment DATA_C, align 4, align-sorted
   \                     `?<Constant L"\\x43\\x6f\\x6e\\x66\\x69\\x67">`:
   \   00000000   43006F006E00       DC8 43H, 0, 6FH, 0, 6EH, 0, 66H, 0
   \              6600        
   \   00000008   690067000000       DC8 69H, 0, 67H, 0, 0, 0
   \   0000000E   0000               DC8 0, 0
   \   00000010   2A002E006200       DC8 2AH, 0, 2EH, 0, 62H, 0, 63H, 0
   \              6300        
   \   00000018   660067000000       DC8 66H, 0, 67H, 0, 0, 0
   \   0000001E   0000               DC8 0, 0

   \                                 In segment DATA_C, align 4, align-sorted
   \                     `?<Constant "BcfgEdit_Base_Page">`:
   \   00000000   426366674564       DC8 "BcfgEdit_Base_Page"
   \              69745F426173
   \              655F50616765
   \              00          
   \   00000013   00                 DC8 0

   \                                 In segment DATA_C, align 4, align-sorted
   \                     `?<Constant "BcfgEdit_CreateEditor...">`:
   \   00000000   426366674564       DC8 "BcfgEdit_CreateEditor_Page"
   \              69745F437265
   \              617465456469
   \              746F725F5061
   \              676500      
   \   0000001B   00                 DC8 0

   \                                 In segment DATA_C, align 4, align-sorted
   \                     `?<Constant "BcfgEdit_SelectBcfg_Page">`:
   \   00000000   426366674564       DC8 "BcfgEdit_SelectBcfg_Page"
   \              69745F53656C
   \              656374426366
   \              675F50616765
   \              00          
   \   00000019   000000             DC8 0, 0, 0

   \                                 In segment DATA_C, align 4, align-sorted
   \                     `?<Constant "BcfgEdit_Main_Page">`:
   \   00000000   426366674564       DC8 "BcfgEdit_Main_Page"
   \              69745F4D6169
   \              6E5F50616765
   \              00          
   \   00000013   00                 DC8 0

   \                                 In segment DATA_C, align 4, align-sorted
   \                     `?<Constant L"\\x5a\\x65\\x72\\x6f\\x20\\x6c\\x65\\x6e\\`:
   \   00000000   5A0065007200       DC8 5AH, 0, 65H, 0, 72H, 0, 6FH, 0
   \              6F00        
   \   00000008   20006C006500       DC8 20H, 0, 6CH, 0, 65H, 0, 6EH, 0
   \              6E00        
   \   00000010   670068007400       DC8 67H, 0, 68H, 0, 74H, 0, 20H, 0
   \              2000        
   \   00000018   6F0066002000       DC8 6FH, 0, 66H, 0, 20H, 0, 2EH, 0
   \              2E00        
   \   00000020   620063006600       DC8 62H, 0, 63H, 0, 66H, 0, 67H, 0
   \              6700        
   \   00000028   200066006900       DC8 20H, 0, 66H, 0, 69H, 0, 6CH, 0
   \              6C00        
   \   00000030   650020002100       DC8 65H, 0, 20H, 0, 21H, 0, 20H, 0
   \              2000        
   \   00000038   0000               DC8 0, 0
   \   0000003A   0000               DC8 0, 0
   \   0000003C   430061006E00       DC8 43H, 0, 61H, 0, 6EH, 0, 27H, 0
   \              2700        
   \   00000044   740020007200       DC8 74H, 0, 20H, 0, 72H, 0, 65H, 0
   \              6500        
   \   0000004C   610064002000       DC8 61H, 0, 64H, 0, 20H, 0, 2EH, 0
   \              2E00        
   \   00000054   620063006600       DC8 62H, 0, 63H, 0, 66H, 0, 67H, 0
   \              6700        
   \   0000005C   200066006900       DC8 20H, 0, 66H, 0, 69H, 0, 6CH, 0
   \              6C00        
   \   00000064   650020002100       DC8 65H, 0, 20H, 0, 21H, 0, 20H, 0
   \              2000        
   \   0000006C   0000               DC8 0, 0
   \   0000006E   0000               DC8 0, 0

   \                                 In segment DATA_C, align 4, align-sorted
   \                     `?<Constant L"\\x6d\\x69\\x6e\\x3a\\x20\\x25\\x75\\xa\\x`:
   \   00000000   6D0069006E00       DC8 6DH, 0, 69H, 0, 6EH, 0, 3AH, 0
   \              3A00        
   \   00000008   200025007500       DC8 20H, 0, 25H, 0, 75H, 0, 0AH, 0
   \              0A00        
   \   00000010   6D0061007800       DC8 6DH, 0, 61H, 0, 78H, 0, 3AH, 0
   \              3A00        
   \   00000018   200025007500       DC8 20H, 0, 25H, 0, 75H, 0, 0, 0
   \              0000        

   \                                 In segment DATA_C, align 4, align-sorted
   \                     `?<Constant L"\\x25\\x75">`:
   \   00000000   250075000000       DC8 25H, 0, 75H, 0, 0, 0
   \   00000006   0000               DC8 0, 0
   \   00000008   250064000000       DC8 25H, 0, 64H, 0, 0, 0
   \   0000000E   0000               DC8 0, 0
   \   00000010   2A2A2A2A2A2A       DC8 "********"
   \              2A2A00      
   \   00000019   000000             DC8 0, 0, 0
   \   0000001C   250030003300       DC8 25H, 0, 30H, 0, 33H, 0, 64H, 0
   \              6400        
   \   00000024   2C0020002500       DC8 2CH, 0, 20H, 0, 25H, 0, 30H, 0
   \              3000        
   \   0000002C   330064000000       DC8 33H, 0, 64H, 0, 0, 0
   \   00000032   0000               DC8 0, 0
   \   00000034   250030003200       DC8 25H, 0, 30H, 0, 32H, 0, 58H, 0
   \              5800        
   \   0000003C   2C0020002500       DC8 2CH, 0, 20H, 0, 25H, 0, 30H, 0
   \              3000        
   \   00000044   320058002C00       DC8 32H, 0, 58H, 0, 2CH, 0, 20H, 0
   \              2000        
   \   0000004C   250030003200       DC8 25H, 0, 30H, 0, 32H, 0, 58H, 0
   \              5800        
   \   00000054   2C0020002500       DC8 2CH, 0, 20H, 0, 25H, 0, 30H, 0
   \              3000        
   \   0000005C   320058000000       DC8 32H, 0, 58H, 0, 0, 0
   \   00000062   0000               DC8 0, 0
   \   00000064   5B456E746572       DC8 "[Enter]"
   \              5D00        
   \   0000006C   250030003200       DC8 25H, 0, 30H, 0, 32H, 0, 64H, 0
   \              6400        
   \   00000074   3A0025003000       DC8 3AH, 0, 25H, 0, 30H, 0, 32H, 0
   \              3200        
   \   0000007C   64000000           DC8 64H, 0, 0, 0
   \   00000080   250030003200       DC8 25H, 0, 30H, 0, 32H, 0, 64H, 0
   \              6400        
   \   00000088   2E0025003000       DC8 2EH, 0, 25H, 0, 30H, 0, 32H, 0
   \              3200        
   \   00000090   64002E002500       DC8 64H, 0, 2EH, 0, 25H, 0, 30H, 0
   \              3000        
   \   00000098   340064000000       DC8 34H, 0, 64H, 0, 0, 0
   \   0000009E   0000               DC8 0, 0
   \   000000A0   520043003A00       DC8 52H, 0, 43H, 0, 3AH, 0, 25H, 0
   \              2500        
   \   000000A8   300033006400       DC8 30H, 0, 33H, 0, 64H, 0, 2CH, 0
   \              2C00        
   \   000000B0   200025003000       DC8 20H, 0, 25H, 0, 30H, 0, 33H, 0
   \              3300        
   \   000000B8   64002C002000       DC8 64H, 0, 2CH, 0, 20H, 0, 25H, 0
   \              2500        
   \   000000C0   300033006400       DC8 30H, 0, 33H, 0, 64H, 0, 2CH, 0
   \              2C00        
   \   000000C8   200025003000       DC8 20H, 0, 25H, 0, 30H, 0, 33H, 0
   \              3300        
   \   000000D0   64000000           DC8 64H, 0, 0, 0
   \   000000D4   540079007000       DC8 54H, 0, 79H, 0, 70H, 0, 65H, 0
   \              6500        
   \   000000DC   200025006400       DC8 20H, 0, 25H, 0, 64H, 0, 20H, 0
   \              2000        
   \   000000E4   690073002000       DC8 69H, 0, 73H, 0, 20H, 0, 6EH, 0
   \              6E00        
   \   000000EC   6F0074002000       DC8 6FH, 0, 74H, 0, 20H, 0, 73H, 0
   \              7300        
   \   000000F4   750070007000       DC8 75H, 0, 70H, 0, 70H, 0, 6FH, 0
   \              6F00        
   \   000000FC   720074006900       DC8 72H, 0, 74H, 0, 69H, 0, 6EH, 0
   \              6E00        
   \   00000104   670020007900       DC8 67H, 0, 20H, 0, 79H, 0, 65H, 0
   \              6500        
   \   0000010C   74000000           DC8 74H, 0, 0, 0

   \                                 In segment DATA_C, align 4, align-sorted
   \                     `?<Constant L"\\x6d\\x69\\x6e\\x3a\\x20\\x25\\x64\\xa\\x`:
   \   00000000   6D0069006E00       DC8 6DH, 0, 69H, 0, 6EH, 0, 3AH, 0
   \              3A00        
   \   00000008   200025006400       DC8 20H, 0, 25H, 0, 64H, 0, 0AH, 0
   \              0A00        
   \   00000010   6D0061007800       DC8 6DH, 0, 61H, 0, 78H, 0, 3AH, 0
   \              3A00        
   \   00000018   200025006400       DC8 20H, 0, 25H, 0, 64H, 0, 0, 0
   \              0000        

   \                                 In segment DATA_C, align 4, align-sorted
   \                     `?<Constant L"\\x6d\\x69\\x6e\\x5f\\x73\\x74\\x72\\x69\\`:
   \   00000000   6D0069006E00       DC8 6DH, 0, 69H, 0, 6EH, 0, 5FH, 0
   \              5F00        
   \   00000008   730074007200       DC8 73H, 0, 74H, 0, 72H, 0, 69H, 0
   \              6900        
   \   00000010   6E0067005F00       DC8 6EH, 0, 67H, 0, 5FH, 0, 6CH, 0
   \              6C00        
   \   00000018   65006E003A00       DC8 65H, 0, 6EH, 0, 3AH, 0, 20H, 0
   \              2000        
   \   00000020   250064000A00       DC8 25H, 0, 64H, 0, 0AH, 0, 6DH, 0
   \              6D00        
   \   00000028   610078005F00       DC8 61H, 0, 78H, 0, 5FH, 0, 73H, 0
   \              7300        
   \   00000030   740072006900       DC8 74H, 0, 72H, 0, 69H, 0, 6EH, 0
   \              6E00        
   \   00000038   67005F006C00       DC8 67H, 0, 5FH, 0, 6CH, 0, 65H, 0
   \              6500        
   \   00000040   6E003A002000       DC8 6EH, 0, 3AH, 0, 20H, 0, 25H, 0
   \              2500        
   \   00000048   64000000           DC8 64H, 0, 0, 0

   \                                 In segment DATA_C, align 4, align-sorted
   \                     `?<Constant L"\\x425\\x440\\x435\\x43d\\x44c">`:
   \   00000000   250440043504       DC8 25H, 4, 40H, 4, 35H, 4, 3DH, 4
   \              3D04        
   \   00000008   4C040000           DC8 4CH, 4, 0, 0

   Maximum stack usage in bytes:

     Function                       CSTACK
     --------                       ------
     Crc32(unsigned char *, unsigned long)
                                     1028
     CreateCBoxGui(MyBOOK *)          148
     CreateEdPageOnCreate(void *, BOOK *)
                                        8
     CreateGuiList(MyBOOK *, int)      16
     CreateSignedNumberInput(MyBOOK *)
                                      192
     CreateUnicodeSI(MyBOOK *, int)   100
     CreateUnsignedNumberInput(MyBOOK *)
                                      200
     CreateWinOrPassSI(MyBOOK *, int)
                                       92
     GetParentName(BCFG_DATA *)        76
     GetSubItemText(MyBOOK *, CFG_HDR *)
                                      184
     LoadCfg(BCFG_DATA *)              60
     MainPageOnCreate(void *, BOOK *)
                                       16
     OnBackBcfgGui(BOOK *, GUI *)      28
     OnBackCreateTextInputGui(BOOK *, u16 *, int)
                                        8
     OnBackExitGui(BOOK *, GUI *)       8
     OnCloseCBoxGui(BOOK *, GUI *)      8
     OnNoExitGui(BOOK *, GUI *)         4
     OnOkCreateSignedNumberGui(BOOK *, wchar_t *, int)
                                      152
     OnOkCreateUnicodeGui(BOOK *, wchar_t *, int)
                                      152
     OnOkCreateUnsignedNumberGui(BOOK *, wchar_t *, int)
                                      152
     OnOkCreateWinOrPassGui(BOOK *, wchar_t *, int)
                                      152
     OnSelect1GuiBcfg(BOOK *, GUI *)
                                       16
     OnSelectCBoxGui(BOOK *, GUI *)     8
     OnYesExitGui(BOOK *, GUI *)       12
     RecreateEdPage(void *, BOOK *)     4
     RefreshEdList(BOOK *)             12
     SaveCfg(BCFG_DATA *)              20
     SelBcfgPageOnAccept(void *, BOOK *)
                                       16
     SelBcfgPageOnCancel(void *, BOOK *)
                                        4
     SelBcfgPageOnCreate(void *, BOOK *)
                                       24
     SelBcfg_BcfgFilter(wchar_t const *, wchar_t const *, wchar_t const *)
                                        4
     SendReconfigEvent(BCFG_DATA *)    12
     ShowAuthorInfo(void *, BOOK *)   144
     TerminateElf(void *, BOOK *)       8
     UnicodeOnSelFile(BOOK *, GUI *)
                                       16
     UnicodeOnSelFolder(BOOK *, GUI *)
                                       16
     create_ed(BOOK *, CFG_HDR *)     108
     elf_exit()                         4
     getnumwidth(unsigned int)          0
     isBcfgEditBook(BOOK *)             0
     main(wchar_t *, wchar_t *, wchar_t *)
                                       28
     onLBMessage(GUI_MESSAGE *)        84
     onMyBookClose(BOOK *)              8
     unicode2win1251(char *, wchar_t *, int)
                                        4
     win12512unicode(wchar_t *, char const *, int)
                                        0


   Segment part sizes:

     Function/Label                 Bytes
     --------------                 -----
     bk_msglst_base                   24
     elf_exit()                       28
     Crc32(unsigned char *, unsigned long)
                                     136
     win12512unicode(wchar_t *, char const *, int)
                                     152
     unicode2win1251(char *, wchar_t *, int)
                                     192
     getnumwidth(unsigned int)        52
     SaveCfg(BCFG_DATA *)             92
     LoadCfg(BCFG_DATA *)            372
     SendReconfigEvent(BCFG_DATA *)   92
     OnYesExitGui(BOOK *, GUI *)      40
     OnNoExitGui(BOOK *, GUI *)       12
     OnBackExitGui(BOOK *, GUI *)     32
     OnBackBcfgGui(BOOK *, GUI *)    308
     OnCloseCBoxGui(BOOK *, GUI *)    32
     OnSelectCBoxGui(BOOK *, GUI *)   68
     CreateCBoxGui(MyBOOK *)         312
     OnBackCreateTextInputGui(BOOK *, u16 *, int)
                                      32
     OnOkCreateUnsignedNumberGui(BOOK *, wchar_t *, int)
                                     248
     CreateUnsignedNumberInput(MyBOOK *)
                                     264
     OnOkCreateSignedNumberGui(BOOK *, wchar_t *, int)
                                     248
     CreateSignedNumberInput(MyBOOK *)
                                     220
     OnOkCreateWinOrPassGui(BOOK *, wchar_t *, int)
                                     204
     CreateWinOrPassSI(MyBOOK *, int)
                                     296
     OnOkCreateUnicodeGui(BOOK *, wchar_t *, int)
                                     212
     UnicodeOnSelFile(BOOK *, GUI *)
                                      56
     UnicodeOnSelFolder(BOOK *, GUI *)
                                      56
     CreateUnicodeSI(MyBOOK *, int)  500
     OnSelect1GuiBcfg(BOOK *, GUI *)
                                     424
     GetSubItemText(MyBOOK *, CFG_HDR *)
                                     844
     onLBMessage(GUI_MESSAGE *)      208
     GetParentName(BCFG_DATA *)      148
     CreateGuiList(MyBOOK *, int)    224
     RefreshEdList(BOOK *)            88
     create_ed(BOOK *, CFG_HDR *)    532
     RecreateEdPage(void *, BOOK *)   20
     CreateEdPageOnCreate(void *, BOOK *)
                                      48
     bk_msglst_editor                 24
     TerminateElf(void *, BOOK *)     52
     ShowAuthorInfo(void *, BOOK *)  112
     SelBcfg_BcfgFilter(wchar_t const *, wchar_t const *, wchar_t const *)
                                      12
     SelBcfgPageOnCreate(void *, BOOK *)
                                     240
     actions                           4
     SelBcfgPageOnAccept(void *, BOOK *)
                                     112
     SelBcfgPageOnCancel(void *, BOOK *)
                                      20
     bk_msglst_selbcfg                40
     MainPageOnCreate(void *, BOOK *)
                                     164
     bk_msglst_main                   16
     ?<Constant "BcfgEdit">           36
     ?<Constant L"\x48\x50\x42\x5f\x53\x41\x56\x45\
                                     160
     onMyBookClose(BOOK *)            40
     isBcfgEditBook(BOOK *)           28
     main(wchar_t *, wchar_t *, wchar_t *)
                                     188
     ??DataTable2                      4
     ??DataTable3                      4
     ??DataTable30                     4
     ??DataTable31                     4
     ??DataTable32                     4
     ??DataTable33                     4
     ??DataTable34                     4
     ??DataTable35                     4
     ??DataTable36                     4
     ??DataTable37                     4
     ??DataTable38                     4
     ??DataTable39                     4
     ??DataTable40                     4
     ??DataTable41                     4
     ??DataTable42                     4
     ??DataTable44                     4
     ??DataTable46                     4
     ??DataTable49                     4
     ??DataTable50                     4
     ?<Constant L"\x57\x41\x50\x5f\x53\x45\x4c\x45\
                                     144
     ?<Constant L"\xa\x42\x63\x66\x67\x45\x64\x69\x
                                     108
     ?<Constant L"\x43\x6f\x6e\x66\x69\x67">
                                      32
     ?<Constant "BcfgEdit_Base_Page">
                                      20
     ?<Constant "BcfgEdit_CreateEditor...">
                                      28
     ?<Constant "BcfgEdit_SelectBcfg_Page">
                                      28
     ?<Constant "BcfgEdit_Main_Page">
                                      20
     ?<Constant L"\x5a\x65\x72\x6f\x20\x6c\x65\x6e\
                                     112
     ?<Constant L"\x6d\x69\x6e\x3a\x20\x25\x75\xa\x
                                      32
     ?<Constant L"\x25\x75">         272
     ?<Constant L"\x6d\x69\x6e\x3a\x20\x25\x64\xa\x
                                      32
     ?<Constant L"\x6d\x69\x6e\x5f\x73\x74\x72\x69\
                                      76
     ?<Constant L"\x425\x440\x435\x43d\x44c">
                                      12
      Others                         360

 
 8 184 bytes in segment CODE
 1 112 bytes in segment DATA_C
     4 bytes in segment DATA_Z
   104 bytes in segment DYN_PAGE
    12 bytes in segment INITTAB
 
 7 836 bytes of CODE  memory (+ 360 bytes shared)
 1 216 bytes of CONST memory
     4 bytes of DATA  memory

Errors: none
Warnings: none
