##############################################################################
#                                                                            #
# IAR ARM ANSI C/C++ Compiler V4.42A/W32 EVALUATION    10/Jun/2013  23:11:32 #
# Copyright 1999-2005 IAR Systems. All rights reserved.                      #
#                                                                            #
#    Cpu mode        =  interwork                                            #
#    Endian          =  little                                               #
#    Stack alignment =  4                                                    #
#    Source file     =  Z:\home\perk11\www\perk11.info\svn\SE\WalkmanDisplay #
#                       \images.cpp                                          #
#    Command line    =  Z:\home\perk11\www\perk11.info\svn\SE\WalkmanDisplay #
#                       \images.cpp -D NDEBUG -D ENG -D OLDFUNCTIONS -lC     #
#                       Z:\home\perk11\www\perk11.info\svn\SE\WalkmanDisplay #
#                       \Release_ENG\List\ -lA Z:\home\perk11\www\perk11.inf #
#                       o\svn\SE\WalkmanDisplay\Release_ENG\List\ -o         #
#                       Z:\home\perk11\www\perk11.info\svn\SE\WalkmanDisplay #
#                       \Release_ENG\Obj\ -s9 --cpu_mode arm --endian        #
#                       little --cpu ARM926EJ-S --stack_align 4 --interwork  #
#                       -e --enable_multibytes --fpu None --eec++            #
#                       --dlib_config Z:\home\perk11\IAR2\arm\LIB\dl5tpainl8 #
#                       n.h -I Z:\home\perk11\IAR2\arm\INC\                  #
#                       --inline_threshold=2                                 #
#    List file       =  Z:\home\perk11\www\perk11.info\svn\SE\WalkmanDisplay #
#                       \Release_ENG\List\images.lst                         #
#    Object file     =  Z:\home\perk11\www\perk11.info\svn\SE\WalkmanDisplay #
#                       \Release_ENG\Obj\images.r79                          #
#                                                                            #
#                                                                            #
##############################################################################

Z:\home\perk11\www\perk11.info\svn\SE\WalkmanDisplay\images.cpp
      1          #include "..\deleaker\mem2.h"
      2          #include "..\include\Lib_Clara.h"
      3          #include "..\include\Dir.h"
      4          #include "header\wdisplay.h"
      5          #include "header\cl.h"
      6          #include "header\config_data.h"
      7          #include "header\images.h"
      8          
      9          wchar_t playnow_h=NOIMAGE;
     10          wchar_t playview_h=NOIMAGE;
     11          
     12          wchar_t imageID=NOIMAGE;
     13          wchar_t cover_h_=NOIMAGE;
     14          wchar_t cover_v_=NOIMAGE;
     15          
     16          wchar_t playicn=NOIMAGE;
     17          wchar_t stopicn=NOIMAGE;
     18          wchar_t pauseicn=NOIMAGE;
     19          
     20          
     21          wchar_t images[]={NOIMAGE,NOIMAGE,NOIMAGE,NOIMAGE,NOIMAGE,NOIMAGE,NOIMAGE,NOIMAGE}; //left,right,left2,right2,play,stop,up,down
     22          wchar_t *images_fnames[]={
     23            L"Prev_nav_icn.png",
     24            L"Next_nav_icn.png",
     25            L"Prev2_nav_icn.png",
     26            L"Next2_nav_icn.png",
     27            L"Play_nav_icn.png",
     28            L"Stop_nav_icn.png",
     29            L"Up_nav_icn.png",
     30            L"Down_nav_icn.png"
     31          };
     32          int images_offsets[]={
     33            -2,
     34            -3,
     35            -4,
     36            -6,
     37            -5,
     38            -1,
     39            -7,
     40            -10
     41          };
     42          wchar_t presets[]={NOIMAGE,NOIMAGE,NOIMAGE,NOIMAGE,NOIMAGE,NOIMAGE, NOIMAGE};
     43          wchar_t navigimg=NOIMAGE;
     44          wchar_t *presets_names[]={
     45            L"MP_EQ_NORMAL_ICN",
     46            L"MP_EQ_BASS_ICN",
     47            L"MP_EQ_MEGABASS_ICN",
     48            L"MP_EQ_VOICE_ICN",
     49            L"MP_EQ_TREBLEBOOST_ICN",
     50            L"MP_EQ_NORMAL_ICN",
     51            L"MP_EQ_MANUAL_ICN"
     52          };
     53          
     54          wchar_t media_images[]={NOIMAGE,NOIMAGE,NOIMAGE,NOIMAGE,NOIMAGE,NOIMAGE,NOIMAGE,NOIMAGE};
     55          wchar_t *media_names[]={
     56            L"MEDIAPLAYER_FAST_FORWARD_ICN",
     57            L"MEDIAPLAYER_REWIND_ICN",
     58            L"MEDIAPLAYER_MODE_LOOP_ICN",
     59            L"EMPTY_ICN",
     60            L"MEDIAPLAYER_MODE_RANDOM_ICN",
     61            L"EMPTY_ICN",
     62            L"EMPTY_ICN",
     63            L"EMPTY_ICN"
     64          };
     65          
     66          wchar_t *media_fnames[]={
     67            L"Forward_icn.png",
     68            L"Rewind_icn.png",
     69            L"Loop_mode_icn.png",
     70            L"StereoWidening_mode_off_icn.png",
     71            L"Random_mode_icn.png",
     72            L"Random_mode_off_icn.png",
     73            L"StereoWidening_mode_icn.png",
     74            L"Loop_mode_off_icn.png"
     75          };
     76          
     77          inline IMAGEID RegisterImage (wchar_t  * path, wchar_t * fname)
     78          { 
     79            FSTAT fst;
     80            if (fstat(path,fname,&fst)==0)
     81            {
     82              IMAGEID ret;
     83              ImageID_Get(path, fname,&ret);
     84              
     85              return ret;
     86            }
     87            else
     88            {
     89              return NOIMAGE;
     90            }
     91          }; 
     92          
     93          #define IDFREE(a) if (a!=NOIMAGE && a!=0) {ImageID_Free(a);} a=NOIMAGE
     94          

   \                                 In segment CODE, align 4, keep-with-next
     95          int GetIconID(wchar_t *txt)
     96          {
   \                     ??GetIconID:
   \   00000000   00402DE9           PUSH     {LR}
   \   00000004   04D04DE2           SUB      SP,SP,#+4
     97            int id=NOIMAGE;
   \   00000008   FF20A0E3           MOV      R2,#+255
   \   0000000C   FF2C82E3           ORR      R2,R2,#0xFF00
   \   00000010   00208DE5           STR      R2,[SP, #+0]
     98            iconidname2id(txt,0xFFFFFFFF,&id);
   \   00000014   0D20A0E1           MOV      R2,SP
   \   00000018   0010E0E3           MVN      R1,#+0
   \   0000001C   860200EF           SWI      +646
     99            return id;
   \   00000020   00009DE5           LDR      R0,[SP, #+0]
   \   00000024   0280BDE8           POP      {R1,PC}          ;; return
    100          };

   \                                 In segment DATA_I, align 4, align-sorted
   \                     playnow_h:
   \   00000000                      DS8 2
   \   00000002                      REQUIRE `?<Initializer for playnow_h>`
   \                     playview_h:
   \   00000002                      DS8 2
   \   00000004                      REQUIRE `?<Initializer for playview_h>`
   \                     cover_h_:
   \   00000004                      DS8 2
   \   00000006                      REQUIRE `?<Initializer for cover_h_>`
   \                     cover_v_:
   \   00000006                      DS8 2
   \   00000008                      REQUIRE `?<Initializer for cover_v_>`
   \                     playicn:
   \   00000008                      DS8 2
   \   0000000A                      REQUIRE `?<Initializer for playicn>`
   \                     stopicn:
   \   0000000A                      DS8 2
   \   0000000C                      REQUIRE `?<Initializer for stopicn>`
   \                     pauseicn:
   \   0000000C                      DS8 2
   \   0000000E                      REQUIRE `?<Initializer for pauseicn>`
   \                     navigimg:
   \   0000000E                      DS8 2
   \   00000010                      REQUIRE `?<Initializer for navigimg>`
   \                     images:
   \   00000010                      DS8 16
   \   00000020                      REQUIRE `?<Initializer for images>`
   \                     presets:
   \   00000020                      DS8 16
   \   00000030                      REQUIRE `?<Initializer for presets>`
   \                     media_images:
   \   00000030                      DS8 16
   \   00000040                      REQUIRE `?<Initializer for media_images>`
    101          
    102          wchar_t main_icons[]={NOIMAGE,NOIMAGE,NOIMAGE};
   \                     main_icons:
   \   00000040                      DS8 8
   \   00000048                      REQUIRE `?<Initializer for main_icons>`
   \                     images_fnames:
   \   00000048                      DS8 32
   \   00000068                      REQUIRE `?<Initializer for images_fnames>`
   \                     images_offsets:
   \   00000068                      DS8 32
   \   00000088                      REQUIRE `?<Initializer for images_offsets>`
   \                     presets_names:
   \   00000088                      DS8 28
   \   000000A4                      REQUIRE `?<Initializer for presets_names>`
   \                     media_names:
   \   000000A4                      DS8 32
   \   000000C4                      REQUIRE `?<Initializer for media_names>`
   \                     media_fnames:
   \   000000C4                      DS8 32
   \   000000E4                      REQUIRE `?<Initializer for media_fnames>`
    103          wchar_t *main_icons_fnames[]={
   \                     main_icons_fnames:
   \   000000E4                      DS8 12
   \   000000F0                      REQUIRE `?<Initializer for main_icons_fnames>`

   \                                 In segment DATA_I, align 2, align-sorted
   \                     imageID:
   \   00000000                      DS8 2
   \   00000002                      REQUIRE `?<Initializer for imageID>`
    104            L"Artist_icn.png",
    105            L"Album_icn.png",
    106            L"Title_icn.png"
    107          };
    108          
    109          #pragma optimize = s 9

   \                                 In segment CODE, align 4, keep-with-next
    110          void init_resources(wchar_t *path)
    111          {
   \                     ??init_resources:
   \   00000000   F04F2DE9           PUSH     {R4-R11,LR}
    112          #define REGISTER(__iconname__,__internalname__,__filename__) if (img_priority==0 || img_priority==2) {__iconname__=GetIconID(__internalname__);} if (img_priority<2) {    wchar_t img=RegisterImage(checkfile_(__filename__,path),__filename__); if (img!=NOIMAGE) { __iconname__=img; }}
    113            
    114            IDFREE(playview_h);
   \   00000004   ........           LDR      R5,??DataTable1  ;; playnow_h
   \   00000008   8CD04DE2           SUB      SP,SP,#+140
   \   0000000C   0040A0E1           MOV      R4,R0
   \   00000010   B200D5E1           LDRH     R0,[R5, #+2]
   \   00000014   FF60A0E3           MOV      R6,#+255
   \   00000018   FF6C86E3           ORR      R6,R6,#0xFF00
   \   0000001C   060050E1           CMP      R0,R6
   \   00000020   00005013           CMPNE    R0,#+0
   \   00000024   0000000A           BEQ      ??init_resources_1
   \   00000028   CD0200EF           SWI      +717
    115            REGISTER(playview_h,L"EMPTY_ICN",L"PlayView_Background_h.png");
   \                     ??init_resources_1:
   \   0000002C   4C069FE5           LDR      R0,??init_resources_2  ;; img_priority
   \   00000030   4C869FE5           LDR      R8,??init_resources_2+0x4  ;; `?<Constant L"\\x50\\x6c\\x61\\x79\\x56\\x69\\x65\\x77\\`
   \   00000034   007090E5           LDR      R7,[R0, #+0]
   \   00000038   B260C5E1           STRH     R6,[R5, #+2]
   \   0000003C   000057E3           CMP      R7,#+0
   \   00000040   02005713           CMPNE    R7,#+2
   \   00000044   0200001A           BNE      ??init_resources_3
   \   00000048   670F88E2           ADD      R0,R8,#+412
   \   0000004C   ........           BL       ??GetIconID
   \   00000050   B200C5E1           STRH     R0,[R5, #+2]
   \                     ??init_resources_3:
   \   00000054   020057E3           CMP      R7,#+2
   \   00000058   0F0000AA           BGE      ??init_resources_4
   \   0000005C   0410A0E1           MOV      R1,R4
   \   00000060   0800A0E1           MOV      R0,R8
   \   00000064   ........           _BLF     ??checkfile_,??checkfile_??rA
   \   00000068   0090A0E1           MOV      R9,R0
   \   0000006C   08208DE2           ADD      R2,SP,#+8
   \   00000070   0810A0E1           MOV      R1,R8
   \   00000074   1C0100EF           SWI      +284
   \   00000078   000050E3           CMP      R0,#+0
   \   0000007C   0600001A           BNE      ??init_resources_4
   \   00000080   0D20A0E1           MOV      R2,SP
   \   00000084   0810A0E1           MOV      R1,R8
   \   00000088   0900A0E1           MOV      R0,R9
   \   0000008C   CC0200EF           SWI      +716
   \   00000090   B000DDE1           LDRH     R0,[SP, #+0]
   \   00000094   060050E1           CMP      R0,R6
   \   00000098   B200C511           STRHNE   R0,[R5, #+2]
    116            
    117            IDFREE(playnow_h);
   \                     ??init_resources_4:
   \   0000009C   B000D5E1           LDRH     R0,[R5, #+0]
   \   000000A0   060050E1           CMP      R0,R6
   \   000000A4   00005013           CMPNE    R0,#+0
   \   000000A8   0000000A           BEQ      ??init_resources_5
   \   000000AC   CD0200EF           SWI      +717
   \                     ??init_resources_5:
   \   000000B0   B060C5E1           STRH     R6,[R5, #+0]
    118            REGISTER(playnow_h,L"EMPTY_ICN",L"PlayNow_Background_h.png");
   \   000000B4   000057E3           CMP      R7,#+0
   \   000000B8   02005713           CMPNE    R7,#+2
   \   000000BC   0200001A           BNE      ??init_resources_6
   \   000000C0   670F88E2           ADD      R0,R8,#+412
   \   000000C4   ........           BL       ??GetIconID
   \   000000C8   B000C5E1           STRH     R0,[R5, #+0]
   \                     ??init_resources_6:
   \   000000CC   020057E3           CMP      R7,#+2
   \   000000D0   0F0000AA           BGE      ??init_resources_7
   \   000000D4   0410A0E1           MOV      R1,R4
   \   000000D8   340088E2           ADD      R0,R8,#+52
   \   000000DC   ........           _BLF     ??checkfile_,??checkfile_??rA
   \   000000E0   0090A0E1           MOV      R9,R0
   \   000000E4   08208DE2           ADD      R2,SP,#+8
   \   000000E8   341088E2           ADD      R1,R8,#+52
   \   000000EC   1C0100EF           SWI      +284
   \   000000F0   000050E3           CMP      R0,#+0
   \   000000F4   0600001A           BNE      ??init_resources_7
   \   000000F8   0D20A0E1           MOV      R2,SP
   \   000000FC   341088E2           ADD      R1,R8,#+52
   \   00000100   0900A0E1           MOV      R0,R9
   \   00000104   CC0200EF           SWI      +716
   \   00000108   B000DDE1           LDRH     R0,[SP, #+0]
   \   0000010C   060050E1           CMP      R0,R6
   \   00000110   B000C511           STRHNE   R0,[R5, #+0]
    119            
    120            IDFREE(playicn);
   \                     ??init_resources_7:
   \   00000114   B800D5E1           LDRH     R0,[R5, #+8]
   \   00000118   060050E1           CMP      R0,R6
   \   0000011C   00005013           CMPNE    R0,#+0
   \   00000120   0000000A           BEQ      ??init_resources_8
   \   00000124   CD0200EF           SWI      +717
   \                     ??init_resources_8:
   \   00000128   B860C5E1           STRH     R6,[R5, #+8]
    121            REGISTER(playicn,L"MEDIAPLAYER_PLAY_ICN",L"Play_icn.png");
   \   0000012C   000057E3           CMP      R7,#+0
   \   00000130   02005713           CMPNE    R7,#+2
   \   00000134   0200001A           BNE      ??init_resources_9
   \   00000138   680088E2           ADD      R0,R8,#+104
   \   0000013C   ........           BL       ??GetIconID
   \   00000140   B800C5E1           STRH     R0,[R5, #+8]
   \                     ??init_resources_9:
   \   00000144   020057E3           CMP      R7,#+2
   \   00000148   100000AA           BGE      ??init_resources_10
   \   0000014C   609FA0E3           MOV      R9,#+384
   \   00000150   0410A0E1           MOV      R1,R4
   \   00000154   080089E0           ADD      R0,R9,R8
   \   00000158   ........           _BLF     ??checkfile_,??checkfile_??rA
   \   0000015C   00A0A0E1           MOV      R10,R0
   \   00000160   08208DE2           ADD      R2,SP,#+8
   \   00000164   081089E0           ADD      R1,R9,R8
   \   00000168   1C0100EF           SWI      +284
   \   0000016C   000050E3           CMP      R0,#+0
   \   00000170   0600001A           BNE      ??init_resources_10
   \   00000174   0D20A0E1           MOV      R2,SP
   \   00000178   081089E0           ADD      R1,R9,R8
   \   0000017C   0A00A0E1           MOV      R0,R10
   \   00000180   CC0200EF           SWI      +716
   \   00000184   B000DDE1           LDRH     R0,[SP, #+0]
   \   00000188   060050E1           CMP      R0,R6
   \   0000018C   B800C511           STRHNE   R0,[R5, #+8]
    122              
    123            IDFREE(pauseicn);
   \                     ??init_resources_10:
   \   00000190   BC00D5E1           LDRH     R0,[R5, #+12]
   \   00000194   060050E1           CMP      R0,R6
   \   00000198   00005013           CMPNE    R0,#+0
   \   0000019C   0000000A           BEQ      ??init_resources_11
   \   000001A0   CD0200EF           SWI      +717
   \                     ??init_resources_11:
   \   000001A4   BC60C5E1           STRH     R6,[R5, #+12]
    124            REGISTER(pauseicn,L"MEDIAPLAYER_STOP_ICN",L"Pause_icn.png");
   \   000001A8   000057E3           CMP      R7,#+0
   \   000001AC   02005713           CMPNE    R7,#+2
   \   000001B0   0200001A           BNE      ??init_resources_12
   \   000001B4   940088E2           ADD      R0,R8,#+148
   \   000001B8   ........           BL       ??GetIconID
   \   000001BC   BC00C5E1           STRH     R0,[R5, #+12]
   \                     ??init_resources_12:
   \   000001C0   020057E3           CMP      R7,#+2
   \   000001C4   0F0000AA           BGE      ??init_resources_13
   \   000001C8   0410A0E1           MOV      R1,R4
   \   000001CC   C00088E2           ADD      R0,R8,#+192
   \   000001D0   ........           _BLF     ??checkfile_,??checkfile_??rA
   \   000001D4   0090A0E1           MOV      R9,R0
   \   000001D8   08208DE2           ADD      R2,SP,#+8
   \   000001DC   C01088E2           ADD      R1,R8,#+192
   \   000001E0   1C0100EF           SWI      +284
   \   000001E4   000050E3           CMP      R0,#+0
   \   000001E8   0600001A           BNE      ??init_resources_13
   \   000001EC   0D20A0E1           MOV      R2,SP
   \   000001F0   C01088E2           ADD      R1,R8,#+192
   \   000001F4   0900A0E1           MOV      R0,R9
   \   000001F8   CC0200EF           SWI      +716
   \   000001FC   B000DDE1           LDRH     R0,[SP, #+0]
   \   00000200   060050E1           CMP      R0,R6
   \   00000204   1A00001A           BNE      ??init_resources_14
    125            if (pauseicn==NOIMAGE)
   \                     ??init_resources_13:
   \   00000208   BC00D5E1           LDRH     R0,[R5, #+12]
   \   0000020C   060050E1           CMP      R0,R6
   \   00000210   1800001A           BNE      ??init_resources_15
    126            {
    127              REGISTER(pauseicn,L"MEDIAPLAYER_STOP_ICN",L"Stop_icn.png");
   \   00000214   000057E3           CMP      R7,#+0
   \   00000218   02005713           CMPNE    R7,#+2
   \   0000021C   0200001A           BNE      ??init_resources_16
   \   00000220   940088E2           ADD      R0,R8,#+148
   \   00000224   ........           BL       ??GetIconID
   \   00000228   BC00C5E1           STRH     R0,[R5, #+12]
   \                     ??init_resources_16:
   \   0000022C   020057E3           CMP      R7,#+2
   \   00000230   100000AA           BGE      ??init_resources_15
   \   00000234   0410A0E1           MOV      R1,R4
   \   00000238   DC0088E2           ADD      R0,R8,#+220
   \   0000023C   ........           _BLF     ??checkfile_,??checkfile_??rA
   \   00000240   0090A0E1           MOV      R9,R0
   \   00000244   08208DE2           ADD      R2,SP,#+8
   \   00000248   DC1088E2           ADD      R1,R8,#+220
   \   0000024C   1C0100EF           SWI      +284
   \   00000250   000050E3           CMP      R0,#+0
   \   00000254   0700001A           BNE      ??init_resources_15
   \   00000258   0D20A0E1           MOV      R2,SP
   \   0000025C   DC1088E2           ADD      R1,R8,#+220
   \   00000260   0900A0E1           MOV      R0,R9
   \   00000264   CC0200EF           SWI      +716
   \   00000268   B000DDE1           LDRH     R0,[SP, #+0]
   \   0000026C   060050E1           CMP      R0,R6
   \   00000270   0000000A           BEQ      ??init_resources_15
   \                     ??init_resources_14:
   \   00000274   BC00C5E1           STRH     R0,[R5, #+12]
    128            }
    129            
    130            IDFREE(stopicn);
   \                     ??init_resources_15:
   \   00000278   BA00D5E1           LDRH     R0,[R5, #+10]
   \   0000027C   060050E1           CMP      R0,R6
   \   00000280   00005013           CMPNE    R0,#+0
   \   00000284   0000000A           BEQ      ??init_resources_17
   \   00000288   CD0200EF           SWI      +717
   \                     ??init_resources_17:
   \   0000028C   BA60C5E1           STRH     R6,[R5, #+10]
    131            REGISTER(stopicn,L"MEDIAPLAYER_STOP_ICN",L"Stop_icn.png");
   \   00000290   000057E3           CMP      R7,#+0
   \   00000294   02005713           CMPNE    R7,#+2
   \   00000298   0200001A           BNE      ??init_resources_18
   \   0000029C   940088E2           ADD      R0,R8,#+148
   \   000002A0   ........           BL       ??GetIconID
   \   000002A4   BA00C5E1           STRH     R0,[R5, #+10]
   \                     ??init_resources_18:
   \   000002A8   020057E3           CMP      R7,#+2
   \   000002AC   470000AA           BGE      ??init_resources_19
   \   000002B0   0410A0E1           MOV      R1,R4
   \   000002B4   DC0088E2           ADD      R0,R8,#+220
   \   000002B8   ........           _BLF     ??checkfile_,??checkfile_??rA
   \   000002BC   0090A0E1           MOV      R9,R0
   \   000002C0   08208DE2           ADD      R2,SP,#+8
   \   000002C4   DC1088E2           ADD      R1,R8,#+220
   \   000002C8   1C0100EF           SWI      +284
   \   000002CC   000050E3           CMP      R0,#+0
   \   000002D0   0600001A           BNE      ??init_resources_20
   \   000002D4   0D20A0E1           MOV      R2,SP
   \   000002D8   DC1088E2           ADD      R1,R8,#+220
   \   000002DC   0900A0E1           MOV      R0,R9
   \   000002E0   CC0200EF           SWI      +716
   \   000002E4   B000DDE1           LDRH     R0,[SP, #+0]
   \   000002E8   060050E1           CMP      R0,R6
   \   000002EC   BA00C511           STRHNE   R0,[R5, #+10]
    132            
    133            if (img_priority<2)
    134            {
    135              for (int j=0;j<3;j++)
   \                     ??init_resources_20:
   \   000002F0   0090A0E3           MOV      R9,#+0
    136              {
    137                wchar_t img=RegisterImage(checkfile_(main_icons_fnames[j],path),main_icons_fnames[j]);
   \                     ??init_resources_21:
   \   000002F4   09A185E0           ADD      R10,R5,R9, LSL #+2
   \   000002F8   E4009AE5           LDR      R0,[R10, #+228]
   \   000002FC   0410A0E1           MOV      R1,R4
   \   00000300   ........           _BLF     ??checkfile_,??checkfile_??rA
   \   00000304   E4A09AE5           LDR      R10,[R10, #+228]
   \   00000308   00B0A0E1           MOV      R11,R0
   \   0000030C   08208DE2           ADD      R2,SP,#+8
   \   00000310   0A10A0E1           MOV      R1,R10
   \   00000314   1C0100EF           SWI      +284
   \   00000318   000050E3           CMP      R0,#+0
   \   0000031C   0700001A           BNE      ??init_resources_22
   \   00000320   0D20A0E1           MOV      R2,SP
   \   00000324   0A10A0E1           MOV      R1,R10
   \   00000328   0B00A0E1           MOV      R0,R11
   \   0000032C   CC0200EF           SWI      +716
   \   00000330   B000DDE1           LDRH     R0,[SP, #+0]
    138                if (img!=NOIMAGE)
   \   00000334   060050E1           CMP      R0,R6
    139                  main_icons[j]=img;
   \   00000338   89108510           ADDNE    R1,R5,R9, LSL #+1
   \   0000033C   B004C111           STRHNE   R0,[R1, #+64]
    140              }
   \                     ??init_resources_22:
   \   00000340   019089E2           ADD      R9,R9,#+1
   \   00000344   030059E3           CMP      R9,#+3
   \   00000348   E9FFFFBA           BLT      ??init_resources_21
    141              int imageID;
    142              imageID=GetIconID(L"MP_EQ_BASS_ICN");
   \   0000034C   580F88E2           ADD      R0,R8,#+352
   \   00000350   ........           BL       ??GetIconID
   \   00000354   24008DE5           STR      R0,[SP, #+36]
    143              for (int j=0;j<8;j++)
   \   00000358   0090A0E3           MOV      R9,#+0
    144              {
    145                images[j]=imageID+images_offsets[j];
   \                     ??init_resources_23:
   \   0000035C   891085E0           ADD      R1,R5,R9, LSL #+1
   \   00000360   04108DE5           STR      R1,[SP, #+4]
   \   00000364   09A185E0           ADD      R10,R5,R9, LSL #+2
   \   00000368   68209AE5           LDR      R2,[R10, #+104]
   \   0000036C   0100A0E1           MOV      R0,R1
   \   00000370   24109DE5           LDR      R1,[SP, #+36]
   \   00000374   011082E0           ADD      R1,R2,R1
   \   00000378   B011C0E1           STRH     R1,[R0, #+16]
    146                wchar_t img=RegisterImage(checkfile_(images_fnames[j],path),images_fnames[j]);
   \   0000037C   48009AE5           LDR      R0,[R10, #+72]
   \   00000380   0410A0E1           MOV      R1,R4
   \   00000384   ........           _BLF     ??checkfile_,??checkfile_??rA
   \   00000388   48A09AE5           LDR      R10,[R10, #+72]
   \   0000038C   00B0A0E1           MOV      R11,R0
   \   00000390   08208DE2           ADD      R2,SP,#+8
   \   00000394   0A10A0E1           MOV      R1,R10
   \   00000398   1C0100EF           SWI      +284
   \   0000039C   000050E3           CMP      R0,#+0
   \   000003A0   0700001A           BNE      ??init_resources_24
   \   000003A4   0D20A0E1           MOV      R2,SP
   \   000003A8   0A10A0E1           MOV      R1,R10
   \   000003AC   0B00A0E1           MOV      R0,R11
   \   000003B0   CC0200EF           SWI      +716
   \   000003B4   B000DDE1           LDRH     R0,[SP, #+0]
    147                if (img!=NOIMAGE)
   \   000003B8   060050E1           CMP      R0,R6
    148                  images[j]=img;
   \   000003BC   04109D15           LDRNE    R1,[SP, #+4]
   \   000003C0   B001C111           STRHNE   R0,[R1, #+16]
    149              }
   \                     ??init_resources_24:
   \   000003C4   019089E2           ADD      R9,R9,#+1
   \   000003C8   080059E3           CMP      R9,#+8
   \   000003CC   E2FFFFBA           BLT      ??init_resources_23
    150            }
    151            
    152            IDFREE(cover_h_);
   \                     ??init_resources_19:
   \   000003D0   B400D5E1           LDRH     R0,[R5, #+4]
   \   000003D4   060050E1           CMP      R0,R6
   \   000003D8   00005013           CMPNE    R0,#+0
   \   000003DC   0000000A           BEQ      ??init_resources_25
   \   000003E0   CD0200EF           SWI      +717
   \                     ??init_resources_25:
   \   000003E4   B460C5E1           STRH     R6,[R5, #+4]
    153            REGISTER(cover_h_,L"EMPTY_ICN",L"cover_h.png");
   \   000003E8   000057E3           CMP      R7,#+0
   \   000003EC   02005713           CMPNE    R7,#+2
   \   000003F0   0200001A           BNE      ??init_resources_26
   \   000003F4   670F88E2           ADD      R0,R8,#+412
   \   000003F8   ........           BL       ??GetIconID
   \   000003FC   B400C5E1           STRH     R0,[R5, #+4]
   \                     ??init_resources_26:
   \   00000400   020057E3           CMP      R7,#+2
   \   00000404   0F0000AA           BGE      ??init_resources_27
   \   00000408   0410A0E1           MOV      R1,R4
   \   0000040C   F80088E2           ADD      R0,R8,#+248
   \   00000410   ........           _BLF     ??checkfile_,??checkfile_??rA
   \   00000414   0090A0E1           MOV      R9,R0
   \   00000418   08208DE2           ADD      R2,SP,#+8
   \   0000041C   F81088E2           ADD      R1,R8,#+248
   \   00000420   1C0100EF           SWI      +284
   \   00000424   000050E3           CMP      R0,#+0
   \   00000428   0600001A           BNE      ??init_resources_27
   \   0000042C   0D20A0E1           MOV      R2,SP
   \   00000430   F81088E2           ADD      R1,R8,#+248
   \   00000434   0900A0E1           MOV      R0,R9
   \   00000438   CC0200EF           SWI      +716
   \   0000043C   B000DDE1           LDRH     R0,[SP, #+0]
   \   00000440   060050E1           CMP      R0,R6
   \   00000444   B400C511           STRHNE   R0,[R5, #+4]
    154          
    155            IDFREE(cover_v_);
   \                     ??init_resources_27:
   \   00000448   B600D5E1           LDRH     R0,[R5, #+6]
   \   0000044C   060050E1           CMP      R0,R6
   \   00000450   00005013           CMPNE    R0,#+0
   \   00000454   0000000A           BEQ      ??init_resources_28
   \   00000458   CD0200EF           SWI      +717
   \                     ??init_resources_28:
   \   0000045C   B660C5E1           STRH     R6,[R5, #+6]
    156          
    157            REGISTER(cover_v_,L"EMPTY_ICN",L"cover_v.png");
   \   00000460   000057E3           CMP      R7,#+0
   \   00000464   02005713           CMPNE    R7,#+2
   \   00000468   0200001A           BNE      ??init_resources_29
   \   0000046C   670F88E2           ADD      R0,R8,#+412
   \   00000470   ........           BL       ??GetIconID
   \   00000474   B600C5E1           STRH     R0,[R5, #+6]
   \                     ??init_resources_29:
   \   00000478   020057E3           CMP      R7,#+2
   \   0000047C   100000AA           BGE      ??init_resources_30
   \   00000480   449FA0E3           MOV      R9,#+272
   \   00000484   0410A0E1           MOV      R1,R4
   \   00000488   080089E0           ADD      R0,R9,R8
   \   0000048C   ........           _BLF     ??checkfile_,??checkfile_??rA
   \   00000490   00A0A0E1           MOV      R10,R0
   \   00000494   08208DE2           ADD      R2,SP,#+8
   \   00000498   081089E0           ADD      R1,R9,R8
   \   0000049C   1C0100EF           SWI      +284
   \   000004A0   000050E3           CMP      R0,#+0
   \   000004A4   0600001A           BNE      ??init_resources_30
   \   000004A8   0D20A0E1           MOV      R2,SP
   \   000004AC   081089E0           ADD      R1,R9,R8
   \   000004B0   0A00A0E1           MOV      R0,R10
   \   000004B4   CC0200EF           SWI      +716
   \   000004B8   B000DDE1           LDRH     R0,[SP, #+0]
   \   000004BC   060050E1           CMP      R0,R6
   \   000004C0   B600C511           STRHNE   R0,[R5, #+6]
    158            
    159            for (int j=0;j<7;j++)
   \                     ??init_resources_30:
   \   000004C4   0090A0E3           MOV      R9,#+0
    160            {
    161              IDFREE(presets[j]);
   \                     ??init_resources_31:
   \   000004C8   89A085E0           ADD      R10,R5,R9, LSL #+1
   \   000004CC   B002DAE1           LDRH     R0,[R10, #+32]
   \   000004D0   060050E1           CMP      R0,R6
   \   000004D4   00005013           CMPNE    R0,#+0
   \   000004D8   0000000A           BEQ      ??init_resources_32
   \   000004DC   CD0200EF           SWI      +717
   \                     ??init_resources_32:
   \   000004E0   B062CAE1           STRH     R6,[R10, #+32]
    162              wchar_t prt_name[50];
    163              snwprintf(prt_name,49,L"eq_%02d.png",j);
   \   000004E4   0930A0E1           MOV      R3,R9
   \   000004E8   4A2F88E2           ADD      R2,R8,#+296
   \   000004EC   3110A0E3           MOV      R1,#+49
   \   000004F0   28008DE2           ADD      R0,SP,#+40
   \   000004F4   150100EF           SWI      +277
    164              REGISTER(presets[j],presets_names[j],prt_name);
   \   000004F8   000057E3           CMP      R7,#+0
   \   000004FC   02005713           CMPNE    R7,#+2
   \   00000500   0300001A           BNE      ??init_resources_33
   \   00000504   090185E0           ADD      R0,R5,R9, LSL #+2
   \   00000508   880090E5           LDR      R0,[R0, #+136]
   \   0000050C   ........           BL       ??GetIconID
   \   00000510   B002CAE1           STRH     R0,[R10, #+32]
   \                     ??init_resources_33:
   \   00000514   020057E3           CMP      R7,#+2
   \   00000518   0F0000AA           BGE      ??init_resources_34
   \   0000051C   0410A0E1           MOV      R1,R4
   \   00000520   28008DE2           ADD      R0,SP,#+40
   \   00000524   ........           _BLF     ??checkfile_,??checkfile_??rA
   \   00000528   00B0A0E1           MOV      R11,R0
   \   0000052C   08208DE2           ADD      R2,SP,#+8
   \   00000530   28108DE2           ADD      R1,SP,#+40
   \   00000534   1C0100EF           SWI      +284
   \   00000538   000050E3           CMP      R0,#+0
   \   0000053C   0600001A           BNE      ??init_resources_34
   \   00000540   0D20A0E1           MOV      R2,SP
   \   00000544   28108DE2           ADD      R1,SP,#+40
   \   00000548   0B00A0E1           MOV      R0,R11
   \   0000054C   CC0200EF           SWI      +716
   \   00000550   B000DDE1           LDRH     R0,[SP, #+0]
   \   00000554   060050E1           CMP      R0,R6
   \   00000558   B002CA11           STRHNE   R0,[R10, #+32]
    165            }
   \                     ??init_resources_34:
   \   0000055C   019089E2           ADD      R9,R9,#+1
   \   00000560   070059E3           CMP      R9,#+7
   \   00000564   D7FFFFBA           BLT      ??init_resources_31
    166            for (int j=0;j<8;j++)
   \   00000568   0090A0E3           MOV      R9,#+0
    167            {
    168              IDFREE(media_images[j]);
   \                     ??init_resources_35:
   \   0000056C   89A085E0           ADD      R10,R5,R9, LSL #+1
   \   00000570   B003DAE1           LDRH     R0,[R10, #+48]
   \   00000574   060050E1           CMP      R0,R6
   \   00000578   00005013           CMPNE    R0,#+0
   \   0000057C   0000000A           BEQ      ??init_resources_36
   \   00000580   CD0200EF           SWI      +717
   \                     ??init_resources_36:
   \   00000584   B063CAE1           STRH     R6,[R10, #+48]
    169              REGISTER(media_images[j],media_names[j],media_fnames[j]);
   \   00000588   09B185E0           ADD      R11,R5,R9, LSL #+2
   \   0000058C   000057E3           CMP      R7,#+0
   \   00000590   02005713           CMPNE    R7,#+2
   \   00000594   0200001A           BNE      ??init_resources_37
   \   00000598   A4009BE5           LDR      R0,[R11, #+164]
   \   0000059C   ........           BL       ??GetIconID
   \   000005A0   B003CAE1           STRH     R0,[R10, #+48]
   \                     ??init_resources_37:
   \   000005A4   020057E3           CMP      R7,#+2
   \   000005A8   100000AA           BGE      ??init_resources_38
   \   000005AC   C4009BE5           LDR      R0,[R11, #+196]
   \   000005B0   0410A0E1           MOV      R1,R4
   \   000005B4   ........           _BLF     ??checkfile_,??checkfile_??rA
   \   000005B8   C4B09BE5           LDR      R11,[R11, #+196]
   \   000005BC   04008DE5           STR      R0,[SP, #+4]
   \   000005C0   08208DE2           ADD      R2,SP,#+8
   \   000005C4   0B10A0E1           MOV      R1,R11
   \   000005C8   1C0100EF           SWI      +284
   \   000005CC   000050E3           CMP      R0,#+0
   \   000005D0   0600001A           BNE      ??init_resources_38
   \   000005D4   04009DE5           LDR      R0,[SP, #+4]
   \   000005D8   0D20A0E1           MOV      R2,SP
   \   000005DC   0B10A0E1           MOV      R1,R11
   \   000005E0   CC0200EF           SWI      +716
   \   000005E4   B000DDE1           LDRH     R0,[SP, #+0]
   \   000005E8   060050E1           CMP      R0,R6
   \   000005EC   B003CA11           STRHNE   R0,[R10, #+48]
    170            }
   \                     ??init_resources_38:
   \   000005F0   019089E2           ADD      R9,R9,#+1
   \   000005F4   080059E3           CMP      R9,#+8
   \   000005F8   DBFFFFBA           BLT      ??init_resources_35
    171            IDFREE(navigimg);
   \   000005FC   BE00D5E1           LDRH     R0,[R5, #+14]
   \   00000600   060050E1           CMP      R0,R6
   \   00000604   00005013           CMPNE    R0,#+0
   \   00000608   0000000A           BEQ      ??init_resources_39
   \   0000060C   CD0200EF           SWI      +717
   \                     ??init_resources_39:
   \   00000610   BE60C5E1           STRH     R6,[R5, #+14]
    172            REGISTER(navigimg,L"EMPTY_ICN",L"Navigation.png");
   \   00000614   000057E3           CMP      R7,#+0
   \   00000618   02005713           CMPNE    R7,#+2
   \   0000061C   0200001A           BNE      ??init_resources_40
   \   00000620   670F88E2           ADD      R0,R8,#+412
   \   00000624   ........           BL       ??GetIconID
   \   00000628   BE00C5E1           STRH     R0,[R5, #+14]
   \                     ??init_resources_40:
   \   0000062C   020057E3           CMP      R7,#+2
   \   00000630   100000AA           BGE      ??init_resources_41
   \   00000634   507FA0E3           MOV      R7,#+320
   \   00000638   0410A0E1           MOV      R1,R4
   \   0000063C   080087E0           ADD      R0,R7,R8
   \   00000640   ........           _BLF     ??checkfile_,??checkfile_??rA
   \   00000644   0040A0E1           MOV      R4,R0
   \   00000648   08208DE2           ADD      R2,SP,#+8
   \   0000064C   081087E0           ADD      R1,R7,R8
   \   00000650   1C0100EF           SWI      +284
   \   00000654   000050E3           CMP      R0,#+0
   \   00000658   0600001A           BNE      ??init_resources_41
   \   0000065C   0D20A0E1           MOV      R2,SP
   \   00000660   081087E0           ADD      R1,R7,R8
   \   00000664   0400A0E1           MOV      R0,R4
   \   00000668   CC0200EF           SWI      +716
   \   0000066C   B000DDE1           LDRH     R0,[SP, #+0]
   \   00000670   060050E1           CMP      R0,R6
   \   00000674   BE00C511           STRHNE   R0,[R5, #+14]
    173          };
   \                     ??init_resources_41:
   \   00000678   8CD08DE2           ADD      SP,SP,#+140      ;; stack cleaning
   \   0000067C   F08FBDE8           POP      {R4-R11,PC}      ;; return
   \                     ??init_resources_2:
   \   00000680   ........           DC32     img_priority
   \   00000684   ........           DC32     `?<Constant L"\\x50\\x6c\\x61\\x79\\x56\\x69\\x65\\x77\\`
    174          
    175          #pragma optimize = s 9

   \                                 In segment CODE, align 4, keep-with-next
    176          void deinit_resources()
    177          {
   \                     ??deinit_resources:
   \   00000000   F0402DE9           PUSH     {R4-R7,LR}
    178            IDFREE(playnow_h);
   \   00000004   ........           LDR      R4,??DataTable1  ;; playnow_h
   \   00000008   FF50A0E3           MOV      R5,#+255
   \   0000000C   B000D4E1           LDRH     R0,[R4, #+0]
   \   00000010   FF5C85E3           ORR      R5,R5,#0xFF00
   \   00000014   050050E1           CMP      R0,R5
   \   00000018   00005013           CMPNE    R0,#+0
   \   0000001C   0000000A           BEQ      ??deinit_resources_1
   \   00000020   CD0200EF           SWI      +717
    179            IDFREE(playview_h);
   \                     ??deinit_resources_1:
   \   00000024   B200D4E1           LDRH     R0,[R4, #+2]
   \   00000028   B050C4E1           STRH     R5,[R4, #+0]
   \   0000002C   050050E1           CMP      R0,R5
   \   00000030   00005013           CMPNE    R0,#+0
   \   00000034   0000000A           BEQ      ??deinit_resources_2
   \   00000038   CD0200EF           SWI      +717
    180          
    181            IDFREE(cover_h_);
   \                     ??deinit_resources_2:
   \   0000003C   B400D4E1           LDRH     R0,[R4, #+4]
   \   00000040   B250C4E1           STRH     R5,[R4, #+2]
   \   00000044   050050E1           CMP      R0,R5
   \   00000048   00005013           CMPNE    R0,#+0
   \   0000004C   0000000A           BEQ      ??deinit_resources_3
   \   00000050   CD0200EF           SWI      +717
    182            IDFREE(cover_v_);
   \                     ??deinit_resources_3:
   \   00000054   B600D4E1           LDRH     R0,[R4, #+6]
   \   00000058   B450C4E1           STRH     R5,[R4, #+4]
   \   0000005C   050050E1           CMP      R0,R5
   \   00000060   00005013           CMPNE    R0,#+0
   \   00000064   0000000A           BEQ      ??deinit_resources_4
   \   00000068   CD0200EF           SWI      +717
    183            
    184            IDFREE(playicn);
   \                     ??deinit_resources_4:
   \   0000006C   B800D4E1           LDRH     R0,[R4, #+8]
   \   00000070   B650C4E1           STRH     R5,[R4, #+6]
   \   00000074   050050E1           CMP      R0,R5
   \   00000078   00005013           CMPNE    R0,#+0
   \   0000007C   0000000A           BEQ      ??deinit_resources_5
   \   00000080   CD0200EF           SWI      +717
    185            IDFREE(pauseicn);
   \                     ??deinit_resources_5:
   \   00000084   BC00D4E1           LDRH     R0,[R4, #+12]
   \   00000088   B850C4E1           STRH     R5,[R4, #+8]
   \   0000008C   050050E1           CMP      R0,R5
   \   00000090   00005013           CMPNE    R0,#+0
   \   00000094   0000000A           BEQ      ??deinit_resources_6
   \   00000098   CD0200EF           SWI      +717
    186            IDFREE(stopicn);
   \                     ??deinit_resources_6:
   \   0000009C   BA00D4E1           LDRH     R0,[R4, #+10]
   \   000000A0   BC50C4E1           STRH     R5,[R4, #+12]
   \   000000A4   050050E1           CMP      R0,R5
   \   000000A8   00005013           CMPNE    R0,#+0
   \   000000AC   0000000A           BEQ      ??deinit_resources_7
   \   000000B0   CD0200EF           SWI      +717
    187            IDFREE(navigimg);
   \                     ??deinit_resources_7:
   \   000000B4   BE00D4E1           LDRH     R0,[R4, #+14]
   \   000000B8   BA50C4E1           STRH     R5,[R4, #+10]
   \   000000BC   050050E1           CMP      R0,R5
   \   000000C0   00005013           CMPNE    R0,#+0
   \   000000C4   0000000A           BEQ      ??deinit_resources_8
   \   000000C8   CD0200EF           SWI      +717
   \                     ??deinit_resources_8:
   \   000000CC   BE50C4E1           STRH     R5,[R4, #+14]
    188            for (int j=0;j<7;j++)
   \   000000D0   0060A0E3           MOV      R6,#+0
    189            {
    190              IDFREE(presets[j]);
   \                     ??deinit_resources_9:
   \   000000D4   867084E0           ADD      R7,R4,R6, LSL #+1
   \   000000D8   B002D7E1           LDRH     R0,[R7, #+32]
   \   000000DC   050050E1           CMP      R0,R5
   \   000000E0   00005013           CMPNE    R0,#+0
   \   000000E4   0000000A           BEQ      ??deinit_resources_10
   \   000000E8   CD0200EF           SWI      +717
   \                     ??deinit_resources_10:
   \   000000EC   B052C7E1           STRH     R5,[R7, #+32]
    191            }
   \   000000F0   016086E2           ADD      R6,R6,#+1
   \   000000F4   070056E3           CMP      R6,#+7
   \   000000F8   F5FFFFBA           BLT      ??deinit_resources_9
    192            for (int j=0;j<8;j++)
   \   000000FC   0060A0E3           MOV      R6,#+0
    193            {
    194              IDFREE(images[j]);
   \                     ??deinit_resources_11:
   \   00000100   867084E0           ADD      R7,R4,R6, LSL #+1
   \   00000104   B001D7E1           LDRH     R0,[R7, #+16]
   \   00000108   050050E1           CMP      R0,R5
   \   0000010C   00005013           CMPNE    R0,#+0
   \   00000110   0000000A           BEQ      ??deinit_resources_12
   \   00000114   CD0200EF           SWI      +717
   \                     ??deinit_resources_12:
   \   00000118   B051C7E1           STRH     R5,[R7, #+16]
    195            }
   \   0000011C   016086E2           ADD      R6,R6,#+1
   \   00000120   080056E3           CMP      R6,#+8
   \   00000124   F5FFFFBA           BLT      ??deinit_resources_11
    196            for (int j=0;j<6;j++)
   \   00000128   0060A0E3           MOV      R6,#+0
    197            {
    198              IDFREE(media_images[j]);
   \                     ??deinit_resources_13:
   \   0000012C   867084E0           ADD      R7,R4,R6, LSL #+1
   \   00000130   B003D7E1           LDRH     R0,[R7, #+48]
   \   00000134   050050E1           CMP      R0,R5
   \   00000138   00005013           CMPNE    R0,#+0
   \   0000013C   0000000A           BEQ      ??deinit_resources_14
   \   00000140   CD0200EF           SWI      +717
   \                     ??deinit_resources_14:
   \   00000144   B053C7E1           STRH     R5,[R7, #+48]
    199            }
   \   00000148   016086E2           ADD      R6,R6,#+1
   \   0000014C   060056E3           CMP      R6,#+6
   \   00000150   F5FFFFBA           BLT      ??deinit_resources_13
    200            for (int j=0;j<3;j++)
   \   00000154   0060A0E3           MOV      R6,#+0
    201            {
    202              IDFREE(main_icons[j]);
   \                     ??deinit_resources_15:
   \   00000158   867084E0           ADD      R7,R4,R6, LSL #+1
   \   0000015C   B004D7E1           LDRH     R0,[R7, #+64]
   \   00000160   050050E1           CMP      R0,R5
   \   00000164   00005013           CMPNE    R0,#+0
   \   00000168   0000000A           BEQ      ??deinit_resources_16
   \   0000016C   CD0200EF           SWI      +717
   \                     ??deinit_resources_16:
   \   00000170   B054C7E1           STRH     R5,[R7, #+64]
    203            }
   \   00000174   016086E2           ADD      R6,R6,#+1
   \   00000178   030056E3           CMP      R6,#+3
   \   0000017C   F5FFFFBA           BLT      ??deinit_resources_15
    204          };
   \   00000180   F080BDE8           POP      {R4-R7,PC}       ;; return

   \                                 In segment CODE, align 4, keep-with-next
   \                     ??DataTable1:
   \   00000000   ........           DC32     playnow_h

   \                                 In segment DATA_ID, align 4, align-sorted
   \                     `?<Initializer for playnow_h>`:
   \   00000000   FFFF               DC16 65535
   \                     `?<Initializer for playview_h>`:
   \   00000002   FFFF               DC16 65535
   \                     `?<Initializer for cover_h_>`:
   \   00000004   FFFF               DC16 65535
   \                     `?<Initializer for cover_v_>`:
   \   00000006   FFFF               DC16 65535
   \                     `?<Initializer for playicn>`:
   \   00000008   FFFF               DC16 65535
   \                     `?<Initializer for stopicn>`:
   \   0000000A   FFFF               DC16 65535
   \                     `?<Initializer for pauseicn>`:
   \   0000000C   FFFF               DC16 65535
   \                     `?<Initializer for navigimg>`:
   \   0000000E   FFFF               DC16 65535
   \                     `?<Initializer for images>`:
   \   00000010   FFFFFFFFFFFF       DC16 65535, 65535, 65535, 65535, 65535, 65535, 65535, 65535
   \              FFFFFFFFFFFF
   \              FFFFFFFF    
   \                     `?<Initializer for presets>`:
   \   00000020   FFFFFFFFFFFF       DC16 65535, 65535, 65535, 65535, 65535, 65535, 65535
   \              FFFFFFFFFFFF
   \              FFFF        
   \   0000002E   0000               DC8 0, 0
   \                     `?<Initializer for media_images>`:
   \   00000030   FFFFFFFFFFFF       DC16 65535, 65535, 65535, 65535, 65535, 65535, 65535, 65535
   \              FFFFFFFFFFFF
   \              FFFFFFFF    
   \                     `?<Initializer for main_icons>`:
   \   00000040   FFFFFFFFFFFF       DC16 65535, 65535, 65535
   \   00000046   0000               DC8 0, 0
   \                     `?<Initializer for images_fnames>`:
   \   00000048   ........           DC32 `?<Constant L"\\x50\\x72\\x65\\x76\\x5f\\x6e\\x61\\x76\\`
   \   0000004C   ........           DC32 `?<Constant L"\\x4e\\x65\\x78\\x74\\x5f\\x6e\\x61\\x76\\`
   \   00000050   ........           DC32 `?<Constant L"\\x50\\x72\\x65\\x76\\x32\\x5f\\x6e\\x61\\`
   \   00000054   ........           DC32 `?<Constant L"\\x4e\\x65\\x78\\x74\\x32\\x5f\\x6e\\x61\\`
   \   00000058   ........           DC32 `?<Constant L"\\x50\\x6c\\x61\\x79\\x5f\\x6e\\x61\\x76\\`
   \   0000005C   ........           DC32 `?<Constant L"\\x53\\x74\\x6f\\x70\\x5f\\x6e\\x61\\x76\\`
   \   00000060   ........           DC32 `?<Constant L"\\x55\\x70\\x5f\\x6e\\x61\\x76\\x5f\\x69\\`
   \   00000064   ........           DC32 `?<Constant L"\\x44\\x6f\\x77\\x6e\\x5f\\x6e\\x61\\x76\\`
   \                     `?<Initializer for images_offsets>`:
   \   00000068   FEFFFFFFFDFF       DC32 -2, -3, -4, -6, -5, -1, -7, -10
   \              FFFFFCFFFFFF
   \              FAFFFFFFFBFF
   \              FFFFFFFFFFFF
   \              F9FFFFFFF6FF
   \              FFFF        
   \                     `?<Initializer for presets_names>`:
   \   00000088   ........           DC32 `?<Constant L"\\x4d\\x50\\x5f\\x45\\x51\\x5f\\x4e\\x4f\\`
   \   0000008C   ........           DC32 `?<Constant L"\\x4d\\x50\\x5f\\x45\\x51\\x5f\\x42\\x41\\`
   \   00000090   ........           DC32 `?<Constant L"\\x4d\\x50\\x5f\\x45\\x51\\x5f\\x4d\\x45\\`
   \   00000094   ........           DC32 `?<Constant L"\\x4d\\x50\\x5f\\x45\\x51\\x5f\\x56\\x4f\\`
   \   00000098   ........           DC32 `?<Constant L"\\x4d\\x50\\x5f\\x45\\x51\\x5f\\x54\\x52\\`
   \   0000009C   ........           DC32 `?<Constant L"\\x4d\\x50\\x5f\\x45\\x51\\x5f\\x4e\\x4f\\`
   \   000000A0   ........           DC32 `?<Constant L"\\x4d\\x50\\x5f\\x45\\x51\\x5f\\x4d\\x41\\`
   \                     `?<Initializer for media_names>`:
   \   000000A4   ........           DC32 `?<Constant L"\\x4d\\x45\\x44\\x49\\x41\\x50\\x4c\\x41\\_2`
   \   000000A8   ........           DC32 `?<Constant L"\\x4d\\x45\\x44\\x49\\x41\\x50\\x4c\\x41\\_3`
   \   000000AC   ........           DC32 `?<Constant L"\\x4d\\x45\\x44\\x49\\x41\\x50\\x4c\\x41\\_4`
   \   000000B0   ........           DC32 `?<Constant L"\\x45\\x4d\\x50\\x54\\x59\\x5f\\x49\\x43\\`
   \   000000B4   ........           DC32 `?<Constant L"\\x4d\\x45\\x44\\x49\\x41\\x50\\x4c\\x41\\_5`
   \   000000B8   ........           DC32 `?<Constant L"\\x45\\x4d\\x50\\x54\\x59\\x5f\\x49\\x43\\`
   \   000000BC   ........           DC32 `?<Constant L"\\x45\\x4d\\x50\\x54\\x59\\x5f\\x49\\x43\\`
   \   000000C0   ........           DC32 `?<Constant L"\\x45\\x4d\\x50\\x54\\x59\\x5f\\x49\\x43\\`
   \                     `?<Initializer for media_fnames>`:
   \   000000C4   ........           DC32 `?<Constant L"\\x46\\x6f\\x72\\x77\\x61\\x72\\x64\\x5f\\`
   \   000000C8   ........           DC32 `?<Constant L"\\x52\\x65\\x77\\x69\\x6e\\x64\\x5f\\x69\\`
   \   000000CC   ........           DC32 `?<Constant L"\\x4c\\x6f\\x6f\\x70\\x5f\\x6d\\x6f\\x64\\_1`
   \   000000D0   ........           DC32 `?<Constant L"\\x53\\x74\\x65\\x72\\x65\\x6f\\x57\\x69\\`
   \   000000D4   ........           DC32 `?<Constant L"\\x52\\x61\\x6e\\x64\\x6f\\x6d\\x5f\\x6d\\`
   \   000000D8   ........           DC32 `?<Constant L"\\x52\\x61\\x6e\\x64\\x6f\\x6d\\x5f\\x6d\\_1`
   \   000000DC   ........           DC32 `?<Constant L"\\x53\\x74\\x65\\x72\\x65\\x6f\\x57\\x69\\_1`
   \   000000E0   ........           DC32 `?<Constant L"\\x4c\\x6f\\x6f\\x70\\x5f\\x6d\\x6f\\x64\\`
   \                     `?<Initializer for main_icons_fnames>`:
   \   000000E4   ........           DC32 `?<Constant L"\\x41\\x72\\x74\\x69\\x73\\x74\\x5f\\x69\\`
   \   000000E8   ........           DC32 `?<Constant L"\\x41\\x6c\\x62\\x75\\x6d\\x5f\\x69\\x63\\`
   \   000000EC   ........           DC32 `?<Constant L"\\x54\\x69\\x74\\x6c\\x65\\x5f\\x69\\x63\\`

   \                                 In segment DATA_ID, align 2, align-sorted
   \                     `?<Initializer for imageID>`:
   \   00000000   FFFF               DC16 65535

   \                                 In segment DATA_C, align 4, align-sorted
   \                     `?<Constant L"\\x53\\x74\\x65\\x72\\x65\\x6f\\x57\\x69\\`:
   \   00000000   530074006500       DC8 53H, 0, 74H, 0, 65H, 0, 72H, 0
   \              7200        
   \   00000008   65006F005700       DC8 65H, 0, 6FH, 0, 57H, 0, 69H, 0
   \              6900        
   \   00000010   640065006E00       DC8 64H, 0, 65H, 0, 6EH, 0, 69H, 0
   \              6900        
   \   00000018   6E0067005F00       DC8 6EH, 0, 67H, 0, 5FH, 0, 6DH, 0
   \              6D00        
   \   00000020   6F0064006500       DC8 6FH, 0, 64H, 0, 65H, 0, 5FH, 0
   \              5F00        
   \   00000028   6F0066006600       DC8 6FH, 0, 66H, 0, 66H, 0, 5FH, 0
   \              5F00        
   \   00000030   690063006E00       DC8 69H, 0, 63H, 0, 6EH, 0, 2EH, 0
   \              2E00        
   \   00000038   70006E006700       DC8 70H, 0, 6EH, 0, 67H, 0, 0, 0
   \              0000        

   \                                 In segment DATA_C, align 4, align-sorted
   \                     `?<Constant L"\\x52\\x61\\x6e\\x64\\x6f\\x6d\\x5f\\x6d\\`:
   \   00000000   520061006E00       DC8 52H, 0, 61H, 0, 6EH, 0, 64H, 0
   \              6400        
   \   00000008   6F006D005F00       DC8 6FH, 0, 6DH, 0, 5FH, 0, 6DH, 0
   \              6D00        
   \   00000010   6F0064006500       DC8 6FH, 0, 64H, 0, 65H, 0, 5FH, 0
   \              5F00        
   \   00000018   690063006E00       DC8 69H, 0, 63H, 0, 6EH, 0, 2EH, 0
   \              2E00        
   \   00000020   70006E006700       DC8 70H, 0, 6EH, 0, 67H, 0, 0, 0
   \              0000        

   \                                 In segment DATA_C, align 4, align-sorted
   \                     `?<Constant L"\\x52\\x61\\x6e\\x64\\x6f\\x6d\\x5f\\x6d\\_1`:
   \   00000000   520061006E00       DC8 52H, 0, 61H, 0, 6EH, 0, 64H, 0
   \              6400        
   \   00000008   6F006D005F00       DC8 6FH, 0, 6DH, 0, 5FH, 0, 6DH, 0
   \              6D00        
   \   00000010   6F0064006500       DC8 6FH, 0, 64H, 0, 65H, 0, 5FH, 0
   \              5F00        
   \   00000018   6F0066006600       DC8 6FH, 0, 66H, 0, 66H, 0, 5FH, 0
   \              5F00        
   \   00000020   690063006E00       DC8 69H, 0, 63H, 0, 6EH, 0, 2EH, 0
   \              2E00        
   \   00000028   70006E006700       DC8 70H, 0, 6EH, 0, 67H, 0, 0, 0
   \              0000        

   \                                 In segment DATA_C, align 4, align-sorted
   \                     `?<Constant L"\\x53\\x74\\x65\\x72\\x65\\x6f\\x57\\x69\\_1`:
   \   00000000   530074006500       DC8 53H, 0, 74H, 0, 65H, 0, 72H, 0
   \              7200        
   \   00000008   65006F005700       DC8 65H, 0, 6FH, 0, 57H, 0, 69H, 0
   \              6900        
   \   00000010   640065006E00       DC8 64H, 0, 65H, 0, 6EH, 0, 69H, 0
   \              6900        
   \   00000018   6E0067005F00       DC8 6EH, 0, 67H, 0, 5FH, 0, 6DH, 0
   \              6D00        
   \   00000020   6F0064006500       DC8 6FH, 0, 64H, 0, 65H, 0, 5FH, 0
   \              5F00        
   \   00000028   690063006E00       DC8 69H, 0, 63H, 0, 6EH, 0, 2EH, 0
   \              2E00        
   \   00000030   70006E006700       DC8 70H, 0, 6EH, 0, 67H, 0, 0, 0
   \              0000        

   \                                 In segment DATA_C, align 4, align-sorted
   \                     `?<Constant L"\\x4c\\x6f\\x6f\\x70\\x5f\\x6d\\x6f\\x64\\`:
   \   00000000   4C006F006F00       DC8 4CH, 0, 6FH, 0, 6FH, 0, 70H, 0
   \              7000        
   \   00000008   5F006D006F00       DC8 5FH, 0, 6DH, 0, 6FH, 0, 64H, 0
   \              6400        
   \   00000010   65005F006F00       DC8 65H, 0, 5FH, 0, 6FH, 0, 66H, 0
   \              6600        
   \   00000018   66005F006900       DC8 66H, 0, 5FH, 0, 69H, 0, 63H, 0
   \              6300        
   \   00000020   6E002E007000       DC8 6EH, 0, 2EH, 0, 70H, 0, 6EH, 0
   \              6E00        
   \   00000028   67000000           DC8 67H, 0, 0, 0

   \                                 In segment DATA_C, align 4, align-sorted
   \                     `?<Constant L"\\x41\\x72\\x74\\x69\\x73\\x74\\x5f\\x69\\`:
   \   00000000   410072007400       DC8 41H, 0, 72H, 0, 74H, 0, 69H, 0
   \              6900        
   \   00000008   730074005F00       DC8 73H, 0, 74H, 0, 5FH, 0, 69H, 0
   \              6900        
   \   00000010   63006E002E00       DC8 63H, 0, 6EH, 0, 2EH, 0, 70H, 0
   \              7000        
   \   00000018   6E0067000000       DC8 6EH, 0, 67H, 0, 0, 0
   \   0000001E   0000               DC8 0, 0

   \                                 In segment DATA_C, align 4, align-sorted
   \                     `?<Constant L"\\x41\\x6c\\x62\\x75\\x6d\\x5f\\x69\\x63\\`:
   \   00000000   41006C006200       DC8 41H, 0, 6CH, 0, 62H, 0, 75H, 0
   \              7500        
   \   00000008   6D005F006900       DC8 6DH, 0, 5FH, 0, 69H, 0, 63H, 0
   \              6300        
   \   00000010   6E002E007000       DC8 6EH, 0, 2EH, 0, 70H, 0, 6EH, 0
   \              6E00        
   \   00000018   67000000           DC8 67H, 0, 0, 0

   \                                 In segment DATA_C, align 4, align-sorted
   \                     `?<Constant L"\\x4d\\x50\\x5f\\x45\\x51\\x5f\\x56\\x4f\\`:
   \   00000000   4D0050005F00       DC8 4DH, 0, 50H, 0, 5FH, 0, 45H, 0
   \              4500        
   \   00000008   51005F005600       DC8 51H, 0, 5FH, 0, 56H, 0, 4FH, 0
   \              4F00        
   \   00000010   490043004500       DC8 49H, 0, 43H, 0, 45H, 0, 5FH, 0
   \              5F00        
   \   00000018   490043004E00       DC8 49H, 0, 43H, 0, 4EH, 0, 0, 0
   \              0000        

   \                                 In segment DATA_C, align 4, align-sorted
   \                     `?<Constant L"\\x54\\x69\\x74\\x6c\\x65\\x5f\\x69\\x63\\`:
   \   00000000   540069007400       DC8 54H, 0, 69H, 0, 74H, 0, 6CH, 0
   \              6C00        
   \   00000008   65005F006900       DC8 65H, 0, 5FH, 0, 69H, 0, 63H, 0
   \              6300        
   \   00000010   6E002E007000       DC8 6EH, 0, 2EH, 0, 70H, 0, 6EH, 0
   \              6E00        
   \   00000018   67000000           DC8 67H, 0, 0, 0

   \                                 In segment DATA_C, align 4, align-sorted
   \                     `?<Constant L"\\x50\\x6c\\x61\\x79\\x56\\x69\\x65\\x77\\`:
   \   00000000   50006C006100       DC8 50H, 0, 6CH, 0, 61H, 0, 79H, 0
   \              7900        
   \   00000008   560069006500       DC8 56H, 0, 69H, 0, 65H, 0, 77H, 0
   \              7700        
   \   00000010   5F0042006100       DC8 5FH, 0, 42H, 0, 61H, 0, 63H, 0
   \              6300        
   \   00000018   6B0067007200       DC8 6BH, 0, 67H, 0, 72H, 0, 6FH, 0
   \              6F00        
   \   00000020   75006E006400       DC8 75H, 0, 6EH, 0, 64H, 0, 5FH, 0
   \              5F00        
   \   00000028   68002E007000       DC8 68H, 0, 2EH, 0, 70H, 0, 6EH, 0
   \              6E00        
   \   00000030   67000000           DC8 67H, 0, 0, 0
   \   00000034   50006C006100       DC8 50H, 0, 6CH, 0, 61H, 0, 79H, 0
   \              7900        
   \   0000003C   4E006F007700       DC8 4EH, 0, 6FH, 0, 77H, 0, 5FH, 0
   \              5F00        
   \   00000044   420061006300       DC8 42H, 0, 61H, 0, 63H, 0, 6BH, 0
   \              6B00        
   \   0000004C   670072006F00       DC8 67H, 0, 72H, 0, 6FH, 0, 75H, 0
   \              7500        
   \   00000054   6E0064005F00       DC8 6EH, 0, 64H, 0, 5FH, 0, 68H, 0
   \              6800        
   \   0000005C   2E0070006E00       DC8 2EH, 0, 70H, 0, 6EH, 0, 67H, 0
   \              6700        
   \   00000064   0000               DC8 0, 0
   \   00000066   0000               DC8 0, 0
   \   00000068   4D0045004400       DC8 4DH, 0, 45H, 0, 44H, 0, 49H, 0
   \              4900        
   \   00000070   410050004C00       DC8 41H, 0, 50H, 0, 4CH, 0, 41H, 0
   \              4100        
   \   00000078   590045005200       DC8 59H, 0, 45H, 0, 52H, 0, 5FH, 0
   \              5F00        
   \   00000080   50004C004100       DC8 50H, 0, 4CH, 0, 41H, 0, 59H, 0
   \              5900        
   \   00000088   5F0049004300       DC8 5FH, 0, 49H, 0, 43H, 0, 4EH, 0
   \              4E00        
   \   00000090   0000               DC8 0, 0
   \   00000092   0000               DC8 0, 0
   \   00000094   4D0045004400       DC8 4DH, 0, 45H, 0, 44H, 0, 49H, 0
   \              4900        
   \   0000009C   410050004C00       DC8 41H, 0, 50H, 0, 4CH, 0, 41H, 0
   \              4100        
   \   000000A4   590045005200       DC8 59H, 0, 45H, 0, 52H, 0, 5FH, 0
   \              5F00        
   \   000000AC   530054004F00       DC8 53H, 0, 54H, 0, 4FH, 0, 50H, 0
   \              5000        
   \   000000B4   5F0049004300       DC8 5FH, 0, 49H, 0, 43H, 0, 4EH, 0
   \              4E00        
   \   000000BC   0000               DC8 0, 0
   \   000000BE   0000               DC8 0, 0
   \   000000C0   500061007500       DC8 50H, 0, 61H, 0, 75H, 0, 73H, 0
   \              7300        
   \   000000C8   65005F006900       DC8 65H, 0, 5FH, 0, 69H, 0, 63H, 0
   \              6300        
   \   000000D0   6E002E007000       DC8 6EH, 0, 2EH, 0, 70H, 0, 6EH, 0
   \              6E00        
   \   000000D8   67000000           DC8 67H, 0, 0, 0
   \   000000DC   530074006F00       DC8 53H, 0, 74H, 0, 6FH, 0, 70H, 0
   \              7000        
   \   000000E4   5F0069006300       DC8 5FH, 0, 69H, 0, 63H, 0, 6EH, 0
   \              6E00        
   \   000000EC   2E0070006E00       DC8 2EH, 0, 70H, 0, 6EH, 0, 67H, 0
   \              6700        
   \   000000F4   0000               DC8 0, 0
   \   000000F6   0000               DC8 0, 0
   \   000000F8   63006F007600       DC8 63H, 0, 6FH, 0, 76H, 0, 65H, 0
   \              6500        
   \   00000100   72005F006800       DC8 72H, 0, 5FH, 0, 68H, 0, 2EH, 0
   \              2E00        
   \   00000108   70006E006700       DC8 70H, 0, 6EH, 0, 67H, 0, 0, 0
   \              0000        
   \   00000110   63006F007600       DC8 63H, 0, 6FH, 0, 76H, 0, 65H, 0
   \              6500        
   \   00000118   72005F007600       DC8 72H, 0, 5FH, 0, 76H, 0, 2EH, 0
   \              2E00        
   \   00000120   70006E006700       DC8 70H, 0, 6EH, 0, 67H, 0, 0, 0
   \              0000        
   \   00000128   650071005F00       DC8 65H, 0, 71H, 0, 5FH, 0, 25H, 0
   \              2500        
   \   00000130   300032006400       DC8 30H, 0, 32H, 0, 64H, 0, 2EH, 0
   \              2E00        
   \   00000138   70006E006700       DC8 70H, 0, 6EH, 0, 67H, 0, 0, 0
   \              0000        
   \   00000140   4E0061007600       DC8 4EH, 0, 61H, 0, 76H, 0, 69H, 0
   \              6900        
   \   00000148   670061007400       DC8 67H, 0, 61H, 0, 74H, 0, 69H, 0
   \              6900        
   \   00000150   6F006E002E00       DC8 6FH, 0, 6EH, 0, 2EH, 0, 70H, 0
   \              7000        
   \   00000158   6E0067000000       DC8 6EH, 0, 67H, 0, 0, 0
   \   0000015E   0000               DC8 0, 0
   \                     `?<Constant L"\\x4d\\x50\\x5f\\x45\\x51\\x5f\\x42\\x41\\`:
   \   00000160   4D0050005F00       DC8 4DH, 0, 50H, 0, 5FH, 0, 45H, 0
   \              4500        
   \   00000168   51005F004200       DC8 51H, 0, 5FH, 0, 42H, 0, 41H, 0
   \              4100        
   \   00000170   530053005F00       DC8 53H, 0, 53H, 0, 5FH, 0, 49H, 0
   \              4900        
   \   00000178   43004E000000       DC8 43H, 0, 4EH, 0, 0, 0
   \   0000017E   0000               DC8 0, 0
   \   00000180   50006C006100       DC8 50H, 0, 6CH, 0, 61H, 0, 79H, 0
   \              7900        
   \   00000188   5F0069006300       DC8 5FH, 0, 69H, 0, 63H, 0, 6EH, 0
   \              6E00        
   \   00000190   2E0070006E00       DC8 2EH, 0, 70H, 0, 6EH, 0, 67H, 0
   \              6700        
   \   00000198   0000               DC8 0, 0
   \   0000019A   0000               DC8 0, 0
   \                     `?<Constant L"\\x45\\x4d\\x50\\x54\\x59\\x5f\\x49\\x43\\`:
   \   0000019C   45004D005000       DC8 45H, 0, 4DH, 0, 50H, 0, 54H, 0
   \              5400        
   \   000001A4   59005F004900       DC8 59H, 0, 5FH, 0, 49H, 0, 43H, 0
   \              4300        
   \   000001AC   4E000000           DC8 4EH, 0, 0, 0

   \                                 In segment DATA_C, align 4, align-sorted
   \                     `?<Constant L"\\x50\\x72\\x65\\x76\\x5f\\x6e\\x61\\x76\\`:
   \   00000000   500072006500       DC8 50H, 0, 72H, 0, 65H, 0, 76H, 0
   \              7600        
   \   00000008   5F006E006100       DC8 5FH, 0, 6EH, 0, 61H, 0, 76H, 0
   \              7600        
   \   00000010   5F0069006300       DC8 5FH, 0, 69H, 0, 63H, 0, 6EH, 0
   \              6E00        
   \   00000018   2E0070006E00       DC8 2EH, 0, 70H, 0, 6EH, 0, 67H, 0
   \              6700        
   \   00000020   0000               DC8 0, 0
   \   00000022   0000               DC8 0, 0

   \                                 In segment DATA_C, align 4, align-sorted
   \                     `?<Constant L"\\x4e\\x65\\x78\\x74\\x5f\\x6e\\x61\\x76\\`:
   \   00000000   4E0065007800       DC8 4EH, 0, 65H, 0, 78H, 0, 74H, 0
   \              7400        
   \   00000008   5F006E006100       DC8 5FH, 0, 6EH, 0, 61H, 0, 76H, 0
   \              7600        
   \   00000010   5F0069006300       DC8 5FH, 0, 69H, 0, 63H, 0, 6EH, 0
   \              6E00        
   \   00000018   2E0070006E00       DC8 2EH, 0, 70H, 0, 6EH, 0, 67H, 0
   \              6700        
   \   00000020   0000               DC8 0, 0
   \   00000022   0000               DC8 0, 0

   \                                 In segment DATA_C, align 4, align-sorted
   \                     `?<Constant L"\\x50\\x72\\x65\\x76\\x32\\x5f\\x6e\\x61\\`:
   \   00000000   500072006500       DC8 50H, 0, 72H, 0, 65H, 0, 76H, 0
   \              7600        
   \   00000008   32005F006E00       DC8 32H, 0, 5FH, 0, 6EH, 0, 61H, 0
   \              6100        
   \   00000010   76005F006900       DC8 76H, 0, 5FH, 0, 69H, 0, 63H, 0
   \              6300        
   \   00000018   6E002E007000       DC8 6EH, 0, 2EH, 0, 70H, 0, 6EH, 0
   \              6E00        
   \   00000020   67000000           DC8 67H, 0, 0, 0

   \                                 In segment DATA_C, align 4, align-sorted
   \                     `?<Constant L"\\x4e\\x65\\x78\\x74\\x32\\x5f\\x6e\\x61\\`:
   \   00000000   4E0065007800       DC8 4EH, 0, 65H, 0, 78H, 0, 74H, 0
   \              7400        
   \   00000008   32005F006E00       DC8 32H, 0, 5FH, 0, 6EH, 0, 61H, 0
   \              6100        
   \   00000010   76005F006900       DC8 76H, 0, 5FH, 0, 69H, 0, 63H, 0
   \              6300        
   \   00000018   6E002E007000       DC8 6EH, 0, 2EH, 0, 70H, 0, 6EH, 0
   \              6E00        
   \   00000020   67000000           DC8 67H, 0, 0, 0

   \                                 In segment DATA_C, align 4, align-sorted
   \                     `?<Constant L"\\x50\\x6c\\x61\\x79\\x5f\\x6e\\x61\\x76\\`:
   \   00000000   50006C006100       DC8 50H, 0, 6CH, 0, 61H, 0, 79H, 0
   \              7900        
   \   00000008   5F006E006100       DC8 5FH, 0, 6EH, 0, 61H, 0, 76H, 0
   \              7600        
   \   00000010   5F0069006300       DC8 5FH, 0, 69H, 0, 63H, 0, 6EH, 0
   \              6E00        
   \   00000018   2E0070006E00       DC8 2EH, 0, 70H, 0, 6EH, 0, 67H, 0
   \              6700        
   \   00000020   0000               DC8 0, 0
   \   00000022   0000               DC8 0, 0

   \                                 In segment DATA_C, align 4, align-sorted
   \                     `?<Constant L"\\x53\\x74\\x6f\\x70\\x5f\\x6e\\x61\\x76\\`:
   \   00000000   530074006F00       DC8 53H, 0, 74H, 0, 6FH, 0, 70H, 0
   \              7000        
   \   00000008   5F006E006100       DC8 5FH, 0, 6EH, 0, 61H, 0, 76H, 0
   \              7600        
   \   00000010   5F0069006300       DC8 5FH, 0, 69H, 0, 63H, 0, 6EH, 0
   \              6E00        
   \   00000018   2E0070006E00       DC8 2EH, 0, 70H, 0, 6EH, 0, 67H, 0
   \              6700        
   \   00000020   0000               DC8 0, 0
   \   00000022   0000               DC8 0, 0

   \                                 In segment DATA_C, align 4, align-sorted
   \                     `?<Constant L"\\x55\\x70\\x5f\\x6e\\x61\\x76\\x5f\\x69\\`:
   \   00000000   550070005F00       DC8 55H, 0, 70H, 0, 5FH, 0, 6EH, 0
   \              6E00        
   \   00000008   610076005F00       DC8 61H, 0, 76H, 0, 5FH, 0, 69H, 0
   \              6900        
   \   00000010   63006E002E00       DC8 63H, 0, 6EH, 0, 2EH, 0, 70H, 0
   \              7000        
   \   00000018   6E0067000000       DC8 6EH, 0, 67H, 0, 0, 0
   \   0000001E   0000               DC8 0, 0

   \                                 In segment DATA_C, align 4, align-sorted
   \                     `?<Constant L"\\x44\\x6f\\x77\\x6e\\x5f\\x6e\\x61\\x76\\`:
   \   00000000   44006F007700       DC8 44H, 0, 6FH, 0, 77H, 0, 6EH, 0
   \              6E00        
   \   00000008   5F006E006100       DC8 5FH, 0, 6EH, 0, 61H, 0, 76H, 0
   \              7600        
   \   00000010   5F0069006300       DC8 5FH, 0, 69H, 0, 63H, 0, 6EH, 0
   \              6E00        
   \   00000018   2E0070006E00       DC8 2EH, 0, 70H, 0, 6EH, 0, 67H, 0
   \              6700        
   \   00000020   0000               DC8 0, 0
   \   00000022   0000               DC8 0, 0

   \                                 In segment DATA_C, align 4, align-sorted
   \                     `?<Constant L"\\x4d\\x50\\x5f\\x45\\x51\\x5f\\x4e\\x4f\\`:
   \   00000000   4D0050005F00       DC8 4DH, 0, 50H, 0, 5FH, 0, 45H, 0
   \              4500        
   \   00000008   51005F004E00       DC8 51H, 0, 5FH, 0, 4EH, 0, 4FH, 0
   \              4F00        
   \   00000010   52004D004100       DC8 52H, 0, 4DH, 0, 41H, 0, 4CH, 0
   \              4C00        
   \   00000018   5F0049004300       DC8 5FH, 0, 49H, 0, 43H, 0, 4EH, 0
   \              4E00        
   \   00000020   0000               DC8 0, 0
   \   00000022   0000               DC8 0, 0

   \                                 In segment DATA_C, align 4, align-sorted
   \                     `?<Constant L"\\x4d\\x50\\x5f\\x45\\x51\\x5f\\x4d\\x45\\`:
   \   00000000   4D0050005F00       DC8 4DH, 0, 50H, 0, 5FH, 0, 45H, 0
   \              4500        
   \   00000008   51005F004D00       DC8 51H, 0, 5FH, 0, 4DH, 0, 45H, 0
   \              4500        
   \   00000010   470041004200       DC8 47H, 0, 41H, 0, 42H, 0, 41H, 0
   \              4100        
   \   00000018   530053005F00       DC8 53H, 0, 53H, 0, 5FH, 0, 49H, 0
   \              4900        
   \   00000020   43004E000000       DC8 43H, 0, 4EH, 0, 0, 0
   \   00000026   0000               DC8 0, 0

   \                                 In segment DATA_C, align 4, align-sorted
   \                     `?<Constant L"\\x4d\\x50\\x5f\\x45\\x51\\x5f\\x54\\x52\\`:
   \   00000000   4D0050005F00       DC8 4DH, 0, 50H, 0, 5FH, 0, 45H, 0
   \              4500        
   \   00000008   51005F005400       DC8 51H, 0, 5FH, 0, 54H, 0, 52H, 0
   \              5200        
   \   00000010   450042004C00       DC8 45H, 0, 42H, 0, 4CH, 0, 45H, 0
   \              4500        
   \   00000018   42004F004F00       DC8 42H, 0, 4FH, 0, 4FH, 0, 53H, 0
   \              5300        
   \   00000020   54005F004900       DC8 54H, 0, 5FH, 0, 49H, 0, 43H, 0
   \              4300        
   \   00000028   4E000000           DC8 4EH, 0, 0, 0

   \                                 In segment DATA_C, align 4, align-sorted
   \                     `?<Constant L"\\x4d\\x50\\x5f\\x45\\x51\\x5f\\x4d\\x41\\`:
   \   00000000   4D0050005F00       DC8 4DH, 0, 50H, 0, 5FH, 0, 45H, 0
   \              4500        
   \   00000008   51005F004D00       DC8 51H, 0, 5FH, 0, 4DH, 0, 41H, 0
   \              4100        
   \   00000010   4E0055004100       DC8 4EH, 0, 55H, 0, 41H, 0, 4CH, 0
   \              4C00        
   \   00000018   5F0049004300       DC8 5FH, 0, 49H, 0, 43H, 0, 4EH, 0
   \              4E00        
   \   00000020   0000               DC8 0, 0
   \   00000022   0000               DC8 0, 0

   \                                 In segment DATA_C, align 4, align-sorted
   \                     `?<Constant L"\\x4d\\x45\\x44\\x49\\x41\\x50\\x4c\\x41\\_2`:
   \   00000000   4D0045004400       DC8 4DH, 0, 45H, 0, 44H, 0, 49H, 0
   \              4900        
   \   00000008   410050004C00       DC8 41H, 0, 50H, 0, 4CH, 0, 41H, 0
   \              4100        
   \   00000010   590045005200       DC8 59H, 0, 45H, 0, 52H, 0, 5FH, 0
   \              5F00        
   \   00000018   460041005300       DC8 46H, 0, 41H, 0, 53H, 0, 54H, 0
   \              5400        
   \   00000020   5F0046004F00       DC8 5FH, 0, 46H, 0, 4FH, 0, 52H, 0
   \              5200        
   \   00000028   570041005200       DC8 57H, 0, 41H, 0, 52H, 0, 44H, 0
   \              4400        
   \   00000030   5F0049004300       DC8 5FH, 0, 49H, 0, 43H, 0, 4EH, 0
   \              4E00        
   \   00000038   0000               DC8 0, 0
   \   0000003A   0000               DC8 0, 0

   \                                 In segment DATA_C, align 4, align-sorted
   \                     `?<Constant L"\\x4d\\x45\\x44\\x49\\x41\\x50\\x4c\\x41\\_3`:
   \   00000000   4D0045004400       DC8 4DH, 0, 45H, 0, 44H, 0, 49H, 0
   \              4900        
   \   00000008   410050004C00       DC8 41H, 0, 50H, 0, 4CH, 0, 41H, 0
   \              4100        
   \   00000010   590045005200       DC8 59H, 0, 45H, 0, 52H, 0, 5FH, 0
   \              5F00        
   \   00000018   520045005700       DC8 52H, 0, 45H, 0, 57H, 0, 49H, 0
   \              4900        
   \   00000020   4E0044005F00       DC8 4EH, 0, 44H, 0, 5FH, 0, 49H, 0
   \              4900        
   \   00000028   43004E000000       DC8 43H, 0, 4EH, 0, 0, 0
   \   0000002E   0000               DC8 0, 0

   \                                 In segment DATA_C, align 4, align-sorted
   \                     `?<Constant L"\\x4d\\x45\\x44\\x49\\x41\\x50\\x4c\\x41\\_4`:
   \   00000000   4D0045004400       DC8 4DH, 0, 45H, 0, 44H, 0, 49H, 0
   \              4900        
   \   00000008   410050004C00       DC8 41H, 0, 50H, 0, 4CH, 0, 41H, 0
   \              4100        
   \   00000010   590045005200       DC8 59H, 0, 45H, 0, 52H, 0, 5FH, 0
   \              5F00        
   \   00000018   4D004F004400       DC8 4DH, 0, 4FH, 0, 44H, 0, 45H, 0
   \              4500        
   \   00000020   5F004C004F00       DC8 5FH, 0, 4CH, 0, 4FH, 0, 4FH, 0
   \              4F00        
   \   00000028   50005F004900       DC8 50H, 0, 5FH, 0, 49H, 0, 43H, 0
   \              4300        
   \   00000030   4E000000           DC8 4EH, 0, 0, 0

   \                                 In segment DATA_C, align 4, align-sorted
   \                     `?<Constant L"\\x4d\\x45\\x44\\x49\\x41\\x50\\x4c\\x41\\_5`:
   \   00000000   4D0045004400       DC8 4DH, 0, 45H, 0, 44H, 0, 49H, 0
   \              4900        
   \   00000008   410050004C00       DC8 41H, 0, 50H, 0, 4CH, 0, 41H, 0
   \              4100        
   \   00000010   590045005200       DC8 59H, 0, 45H, 0, 52H, 0, 5FH, 0
   \              5F00        
   \   00000018   4D004F004400       DC8 4DH, 0, 4FH, 0, 44H, 0, 45H, 0
   \              4500        
   \   00000020   5F0052004100       DC8 5FH, 0, 52H, 0, 41H, 0, 4EH, 0
   \              4E00        
   \   00000028   44004F004D00       DC8 44H, 0, 4FH, 0, 4DH, 0, 5FH, 0
   \              5F00        
   \   00000030   490043004E00       DC8 49H, 0, 43H, 0, 4EH, 0, 0, 0
   \              0000        

   \                                 In segment DATA_C, align 4, align-sorted
   \                     `?<Constant L"\\x46\\x6f\\x72\\x77\\x61\\x72\\x64\\x5f\\`:
   \   00000000   46006F007200       DC8 46H, 0, 6FH, 0, 72H, 0, 77H, 0
   \              7700        
   \   00000008   610072006400       DC8 61H, 0, 72H, 0, 64H, 0, 5FH, 0
   \              5F00        
   \   00000010   690063006E00       DC8 69H, 0, 63H, 0, 6EH, 0, 2EH, 0
   \              2E00        
   \   00000018   70006E006700       DC8 70H, 0, 6EH, 0, 67H, 0, 0, 0
   \              0000        

   \                                 In segment DATA_C, align 4, align-sorted
   \                     `?<Constant L"\\x52\\x65\\x77\\x69\\x6e\\x64\\x5f\\x69\\`:
   \   00000000   520065007700       DC8 52H, 0, 65H, 0, 77H, 0, 69H, 0
   \              6900        
   \   00000008   6E0064005F00       DC8 6EH, 0, 64H, 0, 5FH, 0, 69H, 0
   \              6900        
   \   00000010   63006E002E00       DC8 63H, 0, 6EH, 0, 2EH, 0, 70H, 0
   \              7000        
   \   00000018   6E0067000000       DC8 6EH, 0, 67H, 0, 0, 0
   \   0000001E   0000               DC8 0, 0

   \                                 In segment DATA_C, align 4, align-sorted
   \                     `?<Constant L"\\x4c\\x6f\\x6f\\x70\\x5f\\x6d\\x6f\\x64\\_1`:
   \   00000000   4C006F006F00       DC8 4CH, 0, 6FH, 0, 6FH, 0, 70H, 0
   \              7000        
   \   00000008   5F006D006F00       DC8 5FH, 0, 6DH, 0, 6FH, 0, 64H, 0
   \              6400        
   \   00000010   65005F006900       DC8 65H, 0, 5FH, 0, 69H, 0, 63H, 0
   \              6300        
   \   00000018   6E002E007000       DC8 6EH, 0, 2EH, 0, 70H, 0, 6EH, 0
   \              6E00        
   \   00000020   67000000           DC8 67H, 0, 0, 0

   Maximum stack usage in bytes:

     Function                  CSTACK
     --------                  ------
     GetIconID(wchar_t *)          8
     deinit_resources()           20
     init_resources(wchar_t *)   176


   Segment part sizes:

     Function/Label                 Bytes
     --------------                 -----
     GetIconID(wchar_t *)             40
     playnow_h                       240
     imageID                           2
     init_resources(wchar_t *)      1672
     deinit_resources()              388
     ??DataTable1                      4
     ?<Initializer for playnow_h>    240
     ?<Initializer for imageID>        2
     ?<Constant L"\x53\x74\x65\x72\x65\x6f\x57\x69\
                                      64
     ?<Constant L"\x52\x61\x6e\x64\x6f\x6d\x5f\x6d\
                                      40
     ?<Constant L"\x52\x61\x6e\x64\x6f\x6d\x5f\x6d\_1
                                      48
     ?<Constant L"\x53\x74\x65\x72\x65\x6f\x57\x69\_1
                                      56
     ?<Constant L"\x4c\x6f\x6f\x70\x5f\x6d\x6f\x64\
                                      44
     ?<Constant L"\x41\x72\x74\x69\x73\x74\x5f\x69\
                                      32
     ?<Constant L"\x41\x6c\x62\x75\x6d\x5f\x69\x63\
                                      28
     ?<Constant L"\x4d\x50\x5f\x45\x51\x5f\x56\x4f\
                                      32
     ?<Constant L"\x54\x69\x74\x6c\x65\x5f\x69\x63\
                                      28
     ?<Constant L"\x50\x6c\x61\x79\x56\x69\x65\x77\
                                     432
     ?<Constant L"\x50\x72\x65\x76\x5f\x6e\x61\x76\
                                      36
     ?<Constant L"\x4e\x65\x78\x74\x5f\x6e\x61\x76\
                                      36
     ?<Constant L"\x50\x72\x65\x76\x32\x5f\x6e\x61\
                                      36
     ?<Constant L"\x4e\x65\x78\x74\x32\x5f\x6e\x61\
                                      36
     ?<Constant L"\x50\x6c\x61\x79\x5f\x6e\x61\x76\
                                      36
     ?<Constant L"\x53\x74\x6f\x70\x5f\x6e\x61\x76\
                                      36
     ?<Constant L"\x55\x70\x5f\x6e\x61\x76\x5f\x69\
                                      32
     ?<Constant L"\x44\x6f\x77\x6e\x5f\x6e\x61\x76\
                                      36
     ?<Constant L"\x4d\x50\x5f\x45\x51\x5f\x4e\x4f\
                                      36
     ?<Constant L"\x4d\x50\x5f\x45\x51\x5f\x4d\x45\
                                      40
     ?<Constant L"\x4d\x50\x5f\x45\x51\x5f\x54\x52\
                                      44
     ?<Constant L"\x4d\x50\x5f\x45\x51\x5f\x4d\x41\
                                      36
     ?<Constant L"\x4d\x45\x44\x49\x41\x50\x4c\x41\_2
                                      60
     ?<Constant L"\x4d\x45\x44\x49\x41\x50\x4c\x41\_3
                                      48
     ?<Constant L"\x4d\x45\x44\x49\x41\x50\x4c\x41\_4
                                      52
     ?<Constant L"\x4d\x45\x44\x49\x41\x50\x4c\x41\_5
                                      56
     ?<Constant L"\x46\x6f\x72\x77\x61\x72\x64\x5f\
                                      32
     ?<Constant L"\x52\x65\x77\x69\x6e\x64\x5f\x69\
                                      32
     ?<Constant L"\x4c\x6f\x6f\x70\x5f\x6d\x6f\x64\_1
                                      36
      Others                          36

 
 2 128 bytes in segment CODE
 1 560 bytes in segment DATA_C
   242 bytes in segment DATA_I
   242 bytes in segment DATA_ID
    12 bytes in segment INITTAB
 
 2 104 bytes of CODE  memory (+ 36 bytes shared)
 1 802 bytes of CONST memory
   242 bytes of DATA  memory

Errors: none
Warnings: none
