##############################################################################
#                                                                            #
# IAR ARM ANSI C/C++ Compiler V4.42A/W32 EVALUATION    10/Jun/2013  23:12:58 #
# Copyright 1999-2005 IAR Systems. All rights reserved.                      #
#                                                                            #
#    Cpu mode        =  interwork                                            #
#    Endian          =  little                                               #
#    Stack alignment =  4                                                    #
#    Source file     =  Z:\home\perk11\www\perk11.info\svn\SE\WalkmanDisplay #
#                       \tag.cpp                                             #
#    Command line    =  Z:\home\perk11\www\perk11.info\svn\SE\WalkmanDisplay #
#                       \tag.cpp -D NDEBUG -D ENG -D OLDFUNCTIONS -lC        #
#                       Z:\home\perk11\www\perk11.info\svn\SE\WalkmanDisplay #
#                       \Release_ENG\List\ -lA Z:\home\perk11\www\perk11.inf #
#                       o\svn\SE\WalkmanDisplay\Release_ENG\List\ -o         #
#                       Z:\home\perk11\www\perk11.info\svn\SE\WalkmanDisplay #
#                       \Release_ENG\Obj\ -s9 --cpu_mode arm --endian        #
#                       little --cpu ARM926EJ-S --stack_align 4 --interwork  #
#                       -e --enable_multibytes --fpu None --eec++            #
#                       --dlib_config Z:\home\perk11\IAR2\arm\LIB\dl5tpainl8 #
#                       n.h -I Z:\home\perk11\IAR2\arm\INC\                  #
#                       --inline_threshold=2                                 #
#    List file       =  Z:\home\perk11\www\perk11.info\svn\SE\WalkmanDisplay #
#                       \Release_ENG\List\tag.lst                            #
#    Object file     =  Z:\home\perk11\www\perk11.info\svn\SE\WalkmanDisplay #
#                       \Release_ENG\Obj\tag.r79                             #
#                                                                            #
#                                                                            #
##############################################################################

Z:\home\perk11\www\perk11.info\svn\SE\WalkmanDisplay\tag.cpp
      1          #include "..\deleaker\mem2.h"
      2          #include "..\include\Lib_Clara.h"
      3          #include "..\include\dir.h"
      4          #include "header\wdisplay.h"
      5          
      6          

   \                                 In segment CODE, align 4, keep-with-next
      7          char * GetGenre(int num)
      8          {
   \                     ??GetGenre:
   \   00000000   0010A0E1           MOV      R1,R0
      9            switch (num) 
   \   00000004   44069FE5           LDR      R0,??GetGenre_2+0x8  ;; `?<Constant "Blues">`
   \   00000008   930051E3           CMP      R1,#+147
   \   0000000C   8B01008A           BHI      ??GetGenre_3
   \   00000010   022F8FE2           ADR      R2,??GetGenre_1
   \   00000014   8110A0E1           MOV      R1,R1, LSL #+1
   \   00000018   B12092E1           LDRH     R2,[R2, R1]
   \   0000001C   02F18FE0           ADD      PC,PC,R2, LSL #+2
   \                     ??GetGenre_1:
   \   00000020   880149004B00       DC16     +392,+73,+75,+77
   \              4D00        
   \   00000028   4F0051005300       DC16     +79,+81,+83,+85
   \              5500        
   \   00000030   570059005B00       DC16     +87,+89,+91,+93
   \              5D00        
   \   00000038   5F0061006300       DC16     +95,+97,+99,+101
   \              6500        
   \   00000040   670069006B00       DC16     +103,+105,+107,+109
   \              6D00        
   \   00000048   6F0071007300       DC16     +111,+113,+115,+117
   \              7500        
   \   00000050   770079007B00       DC16     +119,+121,+123,+125
   \              7D00        
   \   00000058   7F0081008300       DC16     +127,+129,+131,+133
   \              8500        
   \   00000060   870089008B00       DC16     +135,+137,+139,+141
   \              8D00        
   \   00000068   8F0091009300       DC16     +143,+145,+147,+149
   \              9500        
   \   00000070   970099009B00       DC16     +151,+153,+155,+157
   \              9D00        
   \   00000078   9F00A100A300       DC16     +159,+161,+163,+165
   \              A500        
   \   00000080   A700A900AB00       DC16     +167,+169,+171,+173
   \              AD00        
   \   00000088   AF00B100B300       DC16     +175,+177,+179,+181
   \              B500        
   \   00000090   B700B900BB00       DC16     +183,+185,+187,+189
   \              BD00        
   \   00000098   BF00C100C300       DC16     +191,+193,+195,+197
   \              C500        
   \   000000A0   C700C900CB00       DC16     +199,+201,+203,+205
   \              CD00        
   \   000000A8   CF00D100D300       DC16     +207,+209,+211,+213
   \              D500        
   \   000000B0   D700D900DB00       DC16     +215,+217,+219,+221
   \              DD00        
   \   000000B8   DF00E100E300       DC16     +223,+225,+227,+229
   \              E500        
   \   000000C0   E700E900EB00       DC16     +231,+233,+235,+237
   \              ED00        
   \   000000C8   EF00F100F300       DC16     +239,+241,+243,+245
   \              F500        
   \   000000D0   F700F900FB00       DC16     +247,+249,+251,+253
   \              FD00        
   \   000000D8   FF0001010301       DC16     +255,+257,+259,+261
   \              0501        
   \   000000E0   070109010B01       DC16     +263,+265,+267,+269
   \              0D01        
   \   000000E8   0F0111011301       DC16     +271,+273,+275,+279
   \              1701        
   \   000000F0   19011B011D01       DC16     +281,+283,+285,+287
   \              1F01        
   \   000000F8   210123012501       DC16     +289,+291,+293,+295
   \              2701        
   \   00000100   29012B012D01       DC16     +297,+299,+301,+303
   \              2F01        
   \   00000108   310133013501       DC16     +305,+307,+309,+311
   \              3701        
   \   00000110   39013B013D01       DC16     +313,+315,+317,+319
   \              3F01        
   \   00000118   410143014601       DC16     +321,+323,+326,+328
   \              4801        
   \   00000120   4A014D015001       DC16     +330,+333,+336,+339
   \              5301        
   \   00000128   5A015D016001       DC16     +346,+349,+352,+355
   \              6301        
   \   00000130   660169016B01       DC16     +358,+361,+363,+366
   \              6E01        
   \   00000138   710174017701       DC16     +369,+372,+375,+378
   \              7A01        
   \   00000140   7C017F018201       DC16     +380,+383,+386,+388
   \              8401        
     10            {
     11              case 0 : return "Blues";
     12              case 1 : return "Classic Rock";
   \                     ??GetGenre_4:
   \   00000148   080080E2           ADD      R0,R0,#+8
   \   0000014C   1EFF2FE1           BX       LR
     13              case 2 : return "Country";
   \                     ??GetGenre_5:
   \   00000150   180080E2           ADD      R0,R0,#+24
   \   00000154   1EFF2FE1           BX       LR
     14              case 3 : return "Dance";
   \                     ??GetGenre_6:
   \   00000158   200080E2           ADD      R0,R0,#+32
   \   0000015C   1EFF2FE1           BX       LR
     15              case 4 : return "Disco";
   \                     ??GetGenre_7:
   \   00000160   280080E2           ADD      R0,R0,#+40
   \   00000164   1EFF2FE1           BX       LR
     16              case 5 : return "Funk";
   \                     ??GetGenre_8:
   \   00000168   300080E2           ADD      R0,R0,#+48
   \   0000016C   1EFF2FE1           BX       LR
     17              case 6 : return "Grunge";
   \                     ??GetGenre_9:
   \   00000170   380080E2           ADD      R0,R0,#+56
   \   00000174   1EFF2FE1           BX       LR
     18              case 7 : return "Hip-Hop";
   \                     ??GetGenre_10:
   \   00000178   400080E2           ADD      R0,R0,#+64
   \   0000017C   1EFF2FE1           BX       LR
     19              case 8 : return "Jazz";
   \                     ??GetGenre_11:
   \   00000180   480080E2           ADD      R0,R0,#+72
   \   00000184   1EFF2FE1           BX       LR
     20              case 9 : return "Metal";
   \                     ??GetGenre_12:
   \   00000188   500080E2           ADD      R0,R0,#+80
   \   0000018C   1EFF2FE1           BX       LR
     21              case 10 : return "New Age";
   \                     ??GetGenre_13:
   \   00000190   580080E2           ADD      R0,R0,#+88
   \   00000194   1EFF2FE1           BX       LR
     22              case 11 : return "Oldies";
   \                     ??GetGenre_14:
   \   00000198   600080E2           ADD      R0,R0,#+96
   \   0000019C   1EFF2FE1           BX       LR
     23              case 12 : return "Other";
   \                     ??GetGenre_15:
   \   000001A0   680080E2           ADD      R0,R0,#+104
   \   000001A4   1EFF2FE1           BX       LR
     24              case 13 : return "Pop";
   \                     ??GetGenre_16:
   \   000001A8   F30F8FE2           ADR      R0,??GetGenre_17  ;; "Pop"
   \   000001AC   1EFF2FE1           BX       LR
     25              case 14 : return "R&B";
   \                     ??GetGenre_18:
   \   000001B0   F20F8FE2           ADR      R0,??GetGenre_17+0x4  ;; "R&B"
   \   000001B4   1EFF2FE1           BX       LR
     26              case 15 : return "Rap";
   \                     ??GetGenre_19:
   \   000001B8   F10F8FE2           ADR      R0,??GetGenre_17+0x8  ;; "Rap"
   \   000001BC   1EFF2FE1           BX       LR
     27              case 16 : return "Reggae";
   \                     ??GetGenre_20:
   \   000001C0   700080E2           ADD      R0,R0,#+112
   \   000001C4   1EFF2FE1           BX       LR
     28              case 17 : return "Rock";
   \                     ??GetGenre_21:
   \   000001C8   780080E2           ADD      R0,R0,#+120
   \   000001CC   1EFF2FE1           BX       LR
     29              case 18 : return "Techno";
   \                     ??GetGenre_22:
   \   000001D0   800080E2           ADD      R0,R0,#+128
   \   000001D4   1EFF2FE1           BX       LR
     30              case 19 : return "Industrial";
   \                     ??GetGenre_23:
   \   000001D8   880080E2           ADD      R0,R0,#+136
   \   000001DC   1EFF2FE1           BX       LR
     31              case 20 : return "Alternative";
   \                     ??GetGenre_24:
   \   000001E0   940080E2           ADD      R0,R0,#+148
   \   000001E4   1EFF2FE1           BX       LR
     32              case 21 : return "Ska";
   \                     ??GetGenre_25:
   \   000001E8   E60F8FE2           ADR      R0,??GetGenre_17+0xC  ;; "Ska"
   \   000001EC   1EFF2FE1           BX       LR
     33              case 22 : return "Death Metal";
   \                     ??GetGenre_26:
   \   000001F0   A00080E2           ADD      R0,R0,#+160
   \   000001F4   1EFF2FE1           BX       LR
     34              case 23 : return "Pranks";
   \                     ??GetGenre_27:
   \   000001F8   AC0080E2           ADD      R0,R0,#+172
   \   000001FC   1EFF2FE1           BX       LR
     35              case 24 : return "Soundtrack";
   \                     ??GetGenre_28:
   \   00000200   B40080E2           ADD      R0,R0,#+180
   \   00000204   1EFF2FE1           BX       LR
     36              case 25 : return "Euro-Techno";
   \                     ??GetGenre_29:
   \   00000208   C00080E2           ADD      R0,R0,#+192
   \   0000020C   1EFF2FE1           BX       LR
     37              case 26 : return "Ambient";
   \                     ??GetGenre_30:
   \   00000210   CC0080E2           ADD      R0,R0,#+204
   \   00000214   1EFF2FE1           BX       LR
     38              case 27 : return "Trip-Hop";
   \                     ??GetGenre_31:
   \   00000218   D40080E2           ADD      R0,R0,#+212
   \   0000021C   1EFF2FE1           BX       LR
     39              case 28 : return "Vocal";
   \                     ??GetGenre_32:
   \   00000220   E00080E2           ADD      R0,R0,#+224
   \   00000224   1EFF2FE1           BX       LR
     40              case 29 : return "Jazz+Funk";
   \                     ??GetGenre_33:
   \   00000228   E80080E2           ADD      R0,R0,#+232
   \   0000022C   1EFF2FE1           BX       LR
     41              case 30 : return "Fusion";
   \                     ??GetGenre_34:
   \   00000230   F40080E2           ADD      R0,R0,#+244
   \   00000234   1EFF2FE1           BX       LR
     42              case 31 : return "Trance";
   \                     ??GetGenre_35:
   \   00000238   FC0080E2           ADD      R0,R0,#+252
   \   0000023C   1EFF2FE1           BX       LR
     43              case 32 : return "Classical";
   \                     ??GetGenre_36:
   \   00000240   410F80E2           ADD      R0,R0,#+260
   \   00000244   1EFF2FE1           BX       LR
     44              case 33 : return "Instrumental";
   \                     ??GetGenre_37:
   \   00000248   440F80E2           ADD      R0,R0,#+272
   \   0000024C   1EFF2FE1           BX       LR
     45              case 34 : return "Acid";
   \                     ??GetGenre_38:
   \   00000250   480F80E2           ADD      R0,R0,#+288
   \   00000254   1EFF2FE1           BX       LR
     46              case 35 : return "House";
   \                     ??GetGenre_39:
   \   00000258   4A0F80E2           ADD      R0,R0,#+296
   \   0000025C   1EFF2FE1           BX       LR
     47              case 36 : return "Game";
   \                     ??GetGenre_40:
   \   00000260   4C0F80E2           ADD      R0,R0,#+304
   \   00000264   1EFF2FE1           BX       LR
     48              case 37 : return "Sound Clip";
   \                     ??GetGenre_41:
   \   00000268   4E0F80E2           ADD      R0,R0,#+312
   \   0000026C   1EFF2FE1           BX       LR
     49              case 38 : return "Gospel";
   \                     ??GetGenre_42:
   \   00000270   510F80E2           ADD      R0,R0,#+324
   \   00000274   1EFF2FE1           BX       LR
     50              case 39 : return "Noise";
   \                     ??GetGenre_43:
   \   00000278   530F80E2           ADD      R0,R0,#+332
   \   0000027C   1EFF2FE1           BX       LR
     51              case 40 : return "Alternative Rock";
   \                     ??GetGenre_44:
   \   00000280   550F80E2           ADD      R0,R0,#+340
   \   00000284   1EFF2FE1           BX       LR
     52              case 41 : return "Bass";
   \                     ??GetGenre_45:
   \   00000288   5A0F80E2           ADD      R0,R0,#+360
   \   0000028C   1EFF2FE1           BX       LR
     53              case 42 : return "Soul";
   \                     ??GetGenre_46:
   \   00000290   5C0F80E2           ADD      R0,R0,#+368
   \   00000294   1EFF2FE1           BX       LR
     54              case 43 : return "Punk";
   \                     ??GetGenre_47:
   \   00000298   5E0F80E2           ADD      R0,R0,#+376
   \   0000029C   1EFF2FE1           BX       LR
     55              case 44 : return "Space";
   \                     ??GetGenre_48:
   \   000002A0   600F80E2           ADD      R0,R0,#+384
   \   000002A4   1EFF2FE1           BX       LR
     56              case 45 : return "Meditative";
   \                     ??GetGenre_49:
   \   000002A8   620F80E2           ADD      R0,R0,#+392
   \   000002AC   1EFF2FE1           BX       LR
     57              case 46 : return "Instrumental Pop";
   \                     ??GetGenre_50:
   \   000002B0   650F80E2           ADD      R0,R0,#+404
   \   000002B4   1EFF2FE1           BX       LR
     58              case 47 : return "Instrumental Rock";
   \                     ??GetGenre_51:
   \   000002B8   6A0F80E2           ADD      R0,R0,#+424
   \   000002BC   1EFF2FE1           BX       LR
     59              case 48 : return "Ethnic";
   \                     ??GetGenre_52:
   \   000002C0   6F0F80E2           ADD      R0,R0,#+444
   \   000002C4   1EFF2FE1           BX       LR
     60              case 49 : return "Gothic";
   \                     ??GetGenre_53:
   \   000002C8   710F80E2           ADD      R0,R0,#+452
   \   000002CC   1EFF2FE1           BX       LR
     61              case 50 : return "Darkwave";
   \                     ??GetGenre_54:
   \   000002D0   730F80E2           ADD      R0,R0,#+460
   \   000002D4   1EFF2FE1           BX       LR
     62              case 51 : return "Techno-Industrial";
   \                     ??GetGenre_55:
   \   000002D8   760F80E2           ADD      R0,R0,#+472
   \   000002DC   1EFF2FE1           BX       LR
     63              case 52 : return "Electronic";
   \                     ??GetGenre_56:
   \   000002E0   7B0F80E2           ADD      R0,R0,#+492
   \   000002E4   1EFF2FE1           BX       LR
     64              case 53 : return "Pop-Folk";
   \                     ??GetGenre_57:
   \   000002E8   7E0F80E2           ADD      R0,R0,#+504
   \   000002EC   1EFF2FE1           BX       LR
     65              case 54 : return "Eurodance";
   \                     ??GetGenre_58:
   \   000002F0   810F80E2           ADD      R0,R0,#+516
   \   000002F4   1EFF2FE1           BX       LR
     66              case 55 : return "Dream";
   \                     ??GetGenre_59:
   \   000002F8   840F80E2           ADD      R0,R0,#+528
   \   000002FC   1EFF2FE1           BX       LR
     67              case 56 : return "Southern Rock";
   \                     ??GetGenre_60:
   \   00000300   860F80E2           ADD      R0,R0,#+536
   \   00000304   1EFF2FE1           BX       LR
     68              case 57 : return "Comedy";
   \                     ??GetGenre_61:
   \   00000308   8A0F80E2           ADD      R0,R0,#+552
   \   0000030C   1EFF2FE1           BX       LR
     69              case 58 : return "Cult";
   \                     ??GetGenre_62:
   \   00000310   8C0F80E2           ADD      R0,R0,#+560
   \   00000314   1EFF2FE1           BX       LR
     70              case 59 : return "Gangsta";
   \                     ??GetGenre_63:
   \   00000318   8E0F80E2           ADD      R0,R0,#+568
   \   0000031C   1EFF2FE1           BX       LR
     71              case 60 : return "Top 40";
   \                     ??GetGenre_64:
   \   00000320   900F80E2           ADD      R0,R0,#+576
   \   00000324   1EFF2FE1           BX       LR
     72              case 61 : return "Christian Rap";
   \                     ??GetGenre_65:
   \   00000328   920F80E2           ADD      R0,R0,#+584
   \   0000032C   1EFF2FE1           BX       LR
     73              case 62 : return "Pop/Funk";
   \                     ??GetGenre_66:
   \   00000330   960F80E2           ADD      R0,R0,#+600
   \   00000334   1EFF2FE1           BX       LR
     74              case 63 : return "Jungle";
   \                     ??GetGenre_67:
   \   00000338   990F80E2           ADD      R0,R0,#+612
   \   0000033C   1EFF2FE1           BX       LR
     75              case 64 : return "Native US";
   \                     ??GetGenre_68:
   \   00000340   9B0F80E2           ADD      R0,R0,#+620
   \   00000344   1EFF2FE1           BX       LR
     76              case 65 : return "Cabaret";
   \                     ??GetGenre_69:
   \   00000348   9E0F80E2           ADD      R0,R0,#+632
   \   0000034C   1EFF2FE1           BX       LR
     77              case 66 : return "New Wave";
   \                     ??GetGenre_70:
   \   00000350   A00F80E2           ADD      R0,R0,#+640
   \   00000354   1EFF2FE1           BX       LR
     78              case 67 : return "Psychadelic";
   \                     ??GetGenre_71:
   \   00000358   A30F80E2           ADD      R0,R0,#+652
   \   0000035C   1EFF2FE1           BX       LR
     79              case 68 : return "Rave";
   \                     ??GetGenre_72:
   \   00000360   A60F80E2           ADD      R0,R0,#+664
   \   00000364   1EFF2FE1           BX       LR
     80              case 69 : return "Showtunes";
   \                     ??GetGenre_73:
   \   00000368   A80F80E2           ADD      R0,R0,#+672
   \   0000036C   1EFF2FE1           BX       LR
     81              case 70 : return "Trailer";
   \                     ??GetGenre_74:
   \   00000370   AB0F80E2           ADD      R0,R0,#+684
   \   00000374   1EFF2FE1           BX       LR
     82              case 71 : return "Lo-Fi";
   \                     ??GetGenre_75:
   \   00000378   AD0F80E2           ADD      R0,R0,#+692
   \   0000037C   1EFF2FE1           BX       LR
     83              case 72 : return "Tribal";
   \                     ??GetGenre_76:
   \   00000380   AF0F80E2           ADD      R0,R0,#+700
   \   00000384   1EFF2FE1           BX       LR
     84              case 73 : return "Acid Punk";
   \                     ??GetGenre_77:
   \   00000388   B10F80E2           ADD      R0,R0,#+708
   \   0000038C   1EFF2FE1           BX       LR
     85              case 74 : return "Acid Jazz";
   \                     ??GetGenre_78:
   \   00000390   B40F80E2           ADD      R0,R0,#+720
   \   00000394   1EFF2FE1           BX       LR
     86              case 75 : return "Polka";
   \                     ??GetGenre_79:
   \   00000398   B70F80E2           ADD      R0,R0,#+732
   \   0000039C   1EFF2FE1           BX       LR
     87              case 76 : return "Retro";
   \                     ??GetGenre_80:
   \   000003A0   B90F80E2           ADD      R0,R0,#+740
   \   000003A4   1EFF2FE1           BX       LR
     88              case 77 : return "Musical";
   \                     ??GetGenre_81:
   \   000003A8   BB0F80E2           ADD      R0,R0,#+748
   \   000003AC   1EFF2FE1           BX       LR
     89              case 78 : return "Rock & Roll";
   \                     ??GetGenre_82:
   \   000003B0   BD0F80E2           ADD      R0,R0,#+756
   \   000003B4   1EFF2FE1           BX       LR
     90              case 79 : return "Hard Rock";
   \                     ??GetGenre_83:
   \   000003B8   C00F80E2           ADD      R0,R0,#+768
   \   000003BC   1EFF2FE1           BX       LR
     91              case 80 : return "Folk";
   \                     ??GetGenre_84:
   \   000003C0   C30F80E2           ADD      R0,R0,#+780
   \   000003C4   1EFF2FE1           BX       LR
     92              case 81 : return "Folk-Rock";
   \                     ??GetGenre_85:
   \   000003C8   C50F80E2           ADD      R0,R0,#+788
   \   000003CC   1EFF2FE1           BX       LR
     93              case 82 : return "National Folk";
   \                     ??GetGenre_86:
   \   000003D0   C80F80E2           ADD      R0,R0,#+800
   \   000003D4   1EFF2FE1           BX       LR
     94              case 83 : return "Swing";
   \                     ??GetGenre_87:
   \   000003D8   CC0F80E2           ADD      R0,R0,#+816
   \   000003DC   1EFF2FE1           BX       LR
     95              case 84 : return "Fast Fusion";
   \                     ??GetGenre_88:
   \   000003E0   CE0F80E2           ADD      R0,R0,#+824
   \   000003E4   1EFF2FE1           BX       LR
     96              case 85 : return "Bebob";
   \                     ??GetGenre_89:
   \   000003E8   D10F80E2           ADD      R0,R0,#+836
   \   000003EC   1EFF2FE1           BX       LR
     97              case 86 : return "Latin";
   \                     ??GetGenre_90:
   \   000003F0   D30F80E2           ADD      R0,R0,#+844
   \   000003F4   1EFF2FE1           BX       LR
     98              case 87 : return "Revival";
   \                     ??GetGenre_91:
   \   000003F8   D50F80E2           ADD      R0,R0,#+852
   \   000003FC   1EFF2FE1           BX       LR
     99              case 88 : return "Celtic";
   \                     ??GetGenre_92:
   \   00000400   D70F80E2           ADD      R0,R0,#+860
   \   00000404   1EFF2FE1           BX       LR
    100              case 89 : return "Bluegrass";
   \                     ??GetGenre_93:
   \   00000408   D90F80E2           ADD      R0,R0,#+868
   \   0000040C   1EFF2FE1           BX       LR
    101              case 90 : return "Avantgarde";
   \                     ??GetGenre_94:
   \   00000410   DC0F80E2           ADD      R0,R0,#+880
   \   00000414   1EFF2FE1           BX       LR
    102              case 91 : return "Gothic Rock";
   \                     ??GetGenre_95:
   \   00000418   DF0F80E2           ADD      R0,R0,#+892
   \   0000041C   1EFF2FE1           BX       LR
    103              case 92 : return "Progressive Rock";
   \                     ??GetGenre_96:
   \   00000420   E20F80E2           ADD      R0,R0,#+904
   \   00000424   1EFF2FE1           BX       LR
    104              case 93 : return "Psychedelic Rock";
   \                     ??GetGenre_97:
   \   00000428   E70F80E2           ADD      R0,R0,#+924
   \   0000042C   1EFF2FE1           BX       LR
    105              case 94 : return "Symphonic Rock";
   \                     ??GetGenre_98:
   \   00000430   EC0F80E2           ADD      R0,R0,#+944
   \   00000434   1EFF2FE1           BX       LR
    106              case 95 : return "Slow Rock";
   \                     ??GetGenre_99:
   \   00000438   F00F80E2           ADD      R0,R0,#+960
   \   0000043C   1EFF2FE1           BX       LR
    107              case 96 : return "Big Band";
   \                     ??GetGenre_100:
   \   00000440   F30F80E2           ADD      R0,R0,#+972
   \   00000444   1EFF2FE1           BX       LR
    108              case 97 : return "Chorus";
   \                     ??GetGenre_101:
   \   00000448   F60F80E2           ADD      R0,R0,#+984
   \   0000044C   1EFF2FE1           BX       LR
    109              case 98 : return "Easy Listening";
   \                     ??GetGenre_102:
   \   00000450   F80F80E2           ADD      R0,R0,#+992
   \   00000454   1EFF2FE1           BX       LR
    110              case 99 : return "Acoustic";
   \                     ??GetGenre_103:
   \   00000458   FC0F80E2           ADD      R0,R0,#+1008
   \   0000045C   1EFF2FE1           BX       LR
    111              case 100 : return "Humour";
   \                     ??GetGenre_104:
   \   00000460   FF0F80E2           ADD      R0,R0,#+1020
   \   00000464   1EFF2FE1           BX       LR
    112              case 101 : return "Speech";
   \                     ??GetGenre_105:
   \   00000468   0410A0E3           MOV      R1,#+4
   \   0000046C   000000EA           B        ??GetGenre_106
    113              case 102 : return "Chanson";
   \                     ??GetGenre_107:
   \   00000470   0C10A0E3           MOV      R1,#+12
   \                     ??GetGenre_106:
   \   00000474   401E81E3           ORR      R1,R1,#0x400
   \                     ??GetGenre_108:
   \   00000478   000081E0           ADD      R0,R1,R0
   \   0000047C   1EFF2FE1           BX       LR
    114              case 103 : return "Opera";
   \                     ??GetGenre_109:
   \   00000480   1410A0E3           MOV      R1,#+20
   \   00000484   FAFFFFEA           B        ??GetGenre_106
    115              case 104 : return "Chamber Music";
   \                     ??GetGenre_110:
   \   00000488   1C10A0E3           MOV      R1,#+28
   \   0000048C   F8FFFFEA           B        ??GetGenre_106
    116              case 105 : return "Sonata";
   \                     ??GetGenre_111:
   \   00000490   2C10A0E3           MOV      R1,#+44
   \   00000494   F6FFFFEA           B        ??GetGenre_106
    117              case 106 : return "Symphony";
   \                     ??GetGenre_112:
   \   00000498   3410A0E3           MOV      R1,#+52
   \   0000049C   F4FFFFEA           B        ??GetGenre_106
    118              case 107 : return "Booty Bass";
   \                     ??GetGenre_113:
   \   000004A0   440E80E2           ADD      R0,R0,#+1088
   \   000004A4   1EFF2FE1           BX       LR
    119              case 108 : return "Primus";
   \                     ??GetGenre_114:
   \   000004A8   4C10A0E3           MOV      R1,#+76
   \   000004AC   F0FFFFEA           B        ??GetGenre_106
    120              case 109 : return "Porn Groove";
   \                     ??GetGenre_115:
   \   000004B0   5410A0E3           MOV      R1,#+84
   \   000004B4   EEFFFFEA           B        ??GetGenre_106
    121              case 110 : return "Satire";
   \                     ??GetGenre_116:
   \   000004B8   460E80E2           ADD      R0,R0,#+1120
   \   000004BC   1EFF2FE1           BX       LR
    122              case 111 : return "Slow Jam";
   \                     ??GetGenre_117:
   \   000004C0   6810A0E3           MOV      R1,#+104
   \   000004C4   EAFFFFEA           B        ??GetGenre_106
    123              case 112 : return "Club";
   \                     ??GetGenre_118:
   \   000004C8   7410A0E3           MOV      R1,#+116
   \   000004CC   E8FFFFEA           B        ??GetGenre_106
    124              case 113 : return "Tango";
   \                     ??GetGenre_119:
   \   000004D0   7C10A0E3           MOV      R1,#+124
   \   000004D4   E6FFFFEA           B        ??GetGenre_106
    125              case 114 : return "Samba";
   \                     ??GetGenre_120:
   \   000004D8   8410A0E3           MOV      R1,#+132
   \   000004DC   E4FFFFEA           B        ??GetGenre_106
    126              case 115 : return "Folklore";
   \                     ??GetGenre_121:
   \   000004E0   8C10A0E3           MOV      R1,#+140
   \   000004E4   E2FFFFEA           B        ??GetGenre_106
    127              case 116 : return "Ballad";
   \                     ??GetGenre_122:
   \   000004E8   9810A0E3           MOV      R1,#+152
   \   000004EC   E0FFFFEA           B        ??GetGenre_106
    128              case 117 : return "Power Ballad";
   \                     ??GetGenre_123:
   \   000004F0   4A0E80E2           ADD      R0,R0,#+1184
   \   000004F4   1EFF2FE1           BX       LR
    129              case 118 : return "Rhytmic Soul";
   \                     ??GetGenre_124:
   \   000004F8   4B0E80E2           ADD      R0,R0,#+1200
   \   000004FC   1EFF2FE1           BX       LR
    130              case 119 : return "Freestyle";
   \                     ??GetGenre_125:
   \   00000500   4C0E80E2           ADD      R0,R0,#+1216
   \   00000504   1EFF2FE1           BX       LR
    131              case 120 : return "Duet";
   \                     ??GetGenre_126:
   \   00000508   CC10A0E3           MOV      R1,#+204
   \   0000050C   D8FFFFEA           B        ??GetGenre_106
    132              case 121 : return "Punk Rock";
   \                     ??GetGenre_127:
   \   00000510   D410A0E3           MOV      R1,#+212
   \   00000514   D6FFFFEA           B        ??GetGenre_106
    133              case 122 : return "Drum Solo";
   \                     ??GetGenre_128:
   \   00000518   4E0E80E2           ADD      R0,R0,#+1248
   \   0000051C   1EFF2FE1           BX       LR
    134              case 123 : return "Acapella";
   \                     ??GetGenre_129:
   \   00000520   EC10A0E3           MOV      R1,#+236
   \   00000524   D2FFFFEA           B        ??GetGenre_106
    135              case 124 : return "Euro-House";
   \                     ??GetGenre_130:
   \   00000528   F810A0E3           MOV      R1,#+248
   \   0000052C   D0FFFFEA           B        ??GetGenre_106
    136              case 125 : return "Dance Hall";
   \                     ??GetGenre_131:
   \   00000530   0410A0E3           MOV      R1,#+4
   \   00000534   501E81E3           ORR      R1,R1,#0x500
   \   00000538   CEFFFFEA           B        ??GetGenre_108
    137              case 126 : return "Goa";
   \                     ??GetGenre_132:
   \   0000053C   410F8FE2           ADR      R0,??GetGenre_2  ;; "Goa"
   \   00000540   1EFF2FE1           BX       LR
    138              case 127 : return "Drum & Bass";
   \                     ??GetGenre_133:
   \   00000544   510E80E2           ADD      R0,R0,#+1296
   \   00000548   1EFF2FE1           BX       LR
    139              case 128 : return "Club-House";
   \                     ??GetGenre_134:
   \   0000054C   1C10A0E3           MOV      R1,#+28
   \   00000550   501E81E3           ORR      R1,R1,#0x500
   \   00000554   C7FFFFEA           B        ??GetGenre_108
    140              case 129 : return "Hardcore";
   \                     ??GetGenre_135:
   \   00000558   2810A0E3           MOV      R1,#+40
   \   0000055C   501E81E3           ORR      R1,R1,#0x500
   \   00000560   C4FFFFEA           B        ??GetGenre_108
    141              case 130 : return "Terror";
   \                     ??GetGenre_136:
   \   00000564   3410A0E3           MOV      R1,#+52
   \   00000568   501E81E3           ORR      R1,R1,#0x500
   \   0000056C   C1FFFFEA           B        ??GetGenre_108
    142              case 131 : return "Indie";
   \                     ??GetGenre_137:
   \   00000570   3C10A0E3           MOV      R1,#+60
   \   00000574   501E81E3           ORR      R1,R1,#0x500
   \   00000578   BEFFFFEA           B        ??GetGenre_108
   \                     ??GetGenre_17:
   \   0000057C   506F7000           DC8      "Pop"
   \   00000580   52264200           DC8      "R&B"
   \   00000584   52617000           DC8      "Rap"
   \   00000588   536B6100           DC8      "Ska"
    143              case 132 : return "BritPop";
   \                     ??GetGenre_138:
   \   0000058C   4410A0E3           MOV      R1,#+68
   \   00000590   501E81E3           ORR      R1,R1,#0x500
   \   00000594   B7FFFFEA           B        ??GetGenre_108
    144              case 133 : return "Negerpunk";
   \                     ??GetGenre_139:
   \   00000598   4C10A0E3           MOV      R1,#+76
   \   0000059C   501E81E3           ORR      R1,R1,#0x500
   \   000005A0   B4FFFFEA           B        ??GetGenre_108
    145              case 134 : return "Polsk Punk";
   \                     ??GetGenre_140:
   \   000005A4   5810A0E3           MOV      R1,#+88
   \   000005A8   501E81E3           ORR      R1,R1,#0x500
   \   000005AC   B1FFFFEA           B        ??GetGenre_108
    146              case 135 : return "Beat";
   \                     ??GetGenre_141:
   \   000005B0   6410A0E3           MOV      R1,#+100
   \   000005B4   501E81E3           ORR      R1,R1,#0x500
   \   000005B8   AEFFFFEA           B        ??GetGenre_108
    147              case 136 : return "Christian Gangsta";
   \                     ??GetGenre_142:
   \   000005BC   6C10A0E3           MOV      R1,#+108
   \   000005C0   501E81E3           ORR      R1,R1,#0x500
   \   000005C4   ABFFFFEA           B        ??GetGenre_108
    148              case 137 : return "Heavy Metal";
   \                     ??GetGenre_143:
   \   000005C8   580E80E2           ADD      R0,R0,#+1408
   \   000005CC   1EFF2FE1           BX       LR
    149              case 138 : return "Black Metal";
   \                     ??GetGenre_144:
   \   000005D0   8C10A0E3           MOV      R1,#+140
   \   000005D4   501E81E3           ORR      R1,R1,#0x500
   \   000005D8   A6FFFFEA           B        ??GetGenre_108
    150              case 139 : return "Crossover";
   \                     ??GetGenre_145:
   \   000005DC   9810A0E3           MOV      R1,#+152
   \   000005E0   501E81E3           ORR      R1,R1,#0x500
   \   000005E4   A3FFFFEA           B        ??GetGenre_108
    151              case 140 : return "Contemporary C";
   \                     ??GetGenre_146:
   \   000005E8   A410A0E3           MOV      R1,#+164
   \   000005EC   501E81E3           ORR      R1,R1,#0x500
   \   000005F0   A0FFFFEA           B        ??GetGenre_108
    152              case 141 : return "Christian Rock";
   \                     ??GetGenre_147:
   \   000005F4   B410A0E3           MOV      R1,#+180
   \   000005F8   501E81E3           ORR      R1,R1,#0x500
   \   000005FC   9DFFFFEA           B        ??GetGenre_108
    153              case 142 : return "Merengue";
   \                     ??GetGenre_148:
   \   00000600   C410A0E3           MOV      R1,#+196
   \   00000604   501E81E3           ORR      R1,R1,#0x500
   \   00000608   9AFFFFEA           B        ??GetGenre_108
    154              case 143 : return "Salsa";
   \                     ??GetGenre_149:
   \   0000060C   5D0E80E2           ADD      R0,R0,#+1488
   \   00000610   1EFF2FE1           BX       LR
    155              case 144 : return "Thrash Metal";
   \                     ??GetGenre_150:
   \   00000614   D810A0E3           MOV      R1,#+216
   \   00000618   501E81E3           ORR      R1,R1,#0x500
   \   0000061C   95FFFFEA           B        ??GetGenre_108
    156              case 145 : return "Anime";
   \                     ??GetGenre_151:
   \   00000620   E810A0E3           MOV      R1,#+232
   \   00000624   501E81E3           ORR      R1,R1,#0x500
   \   00000628   92FFFFEA           B        ??GetGenre_108
    157              case 146 : return "JPop";
   \                     ??GetGenre_152:
   \   0000062C   5F0E80E2           ADD      R0,R0,#+1520
   \   00000630   1EFF2FE1           BX       LR
    158              case 147 : return "SynthPop";
   \                     ??GetGenre_153:
   \   00000634   F810A0E3           MOV      R1,#+248
   \   00000638   501E81E3           ORR      R1,R1,#0x500
   \   0000063C   8DFFFFEA           B        ??GetGenre_108
    159            }
    160            return " ";
   \                     ??GetGenre_3:
   \   00000640   010F8FE2           ADR      R0,??GetGenre_2+0x4  ;; " "
   \                     ??GetGenre_154:
   \   00000644   1EFF2FE1           BX       LR               ;; return
   \                     ??GetGenre_2:
   \   00000648   476F6100           DC8      "Goa"
   \   0000064C   20000000           DC8      " ",+0,+0
   \   00000650   ........           DC32     `?<Constant "Blues">`
    161          };
    162          
    163          #pragma optimize = z 9

   \                                 In segment CODE, align 4, keep-with-next
    164          void metadata_Read(wchar_t *path, wchar_t *name, METADATA *meta, TAG_REQUEST tr)
    165          {
   \                     ??metadata_Read:
   \   00000000   08002DE9           PUSH     {R3}
   \   00000004   70402DE9           PUSH     {R4-R6,LR}
   \   00000008   ACD04DE2           SUB      SP,SP,#+172
   \   0000000C   0050A0E1           MOV      R5,R0
   \   00000010   0160A0E1           MOV      R6,R1
   \   00000014   0240A0E1           MOV      R4,R2
    166            FSTAT fst;
    167            if (wstrcmpni(L"mp3",&name[wstrlen(name)-3],3)!=0)
   \   00000018   0600A0E1           MOV      R0,R6
   \   0000001C   570100EF           SWI      +343
   \   00000020   800086E0           ADD      R0,R6,R0, LSL #+1
   \   00000024   061040E2           SUB      R1,R0,#+6
   \   00000028   E8019FE5           LDR      R0,??metadata_Read_1+0x4  ;; `?<Constant L"\\x6d\\x70\\x33">`
   \   0000002C   0320A0E3           MOV      R2,#+3
   \   00000030   9A0200EF           SWI      +666
   \   00000034   000050E3           CMP      R0,#+0
   \   00000038   7100001A           BNE      ??metadata_Read_2
    168            {
    169              return;
    170            }
    171            if (fstat(path,name,&fst)==0)
   \   0000003C   90208DE2           ADD      R2,SP,#+144
   \   00000040   0610A0E1           MOV      R1,R6
   \   00000044   0500A0E1           MOV      R0,R5
   \   00000048   1C0100EF           SWI      +284
   \   0000004C   000050E3           CMP      R0,#+0
   \   00000050   6B00001A           BNE      ??metadata_Read_2
    172            {
    173              int file;
    174              if ((file=_fopen(path,name,FSX_O_RDONLY,FSX_S_IREAD|FSX_S_IWRITE,0))>=0)
   \   00000054   01002DE9           PUSH     {R0}
   \   00000058   603FA0E3           MOV      R3,#+384
   \   0000005C   0120A0E3           MOV      R2,#+1
   \   00000060   0610A0E1           MOV      R1,R6
   \   00000064   0500A0E1           MOV      R0,R5
   \   00000068   160100EF           SWI      +278
   \   0000006C   0050B0E1           MOVS     R5,R0
   \   00000070   04D08DE2           ADD      SP,SP,#+4
   \   00000074   6000004A           BMI      ??metadata_Read_3
    175              {
    176                if (fst.fsize>128)
   \   00000078   98009DE5           LDR      R0,[SP, #+152]
   \   0000007C   810050E3           CMP      R0,#+129
   \   00000080   5D0000BA           BLT      ??metadata_Read_3
    177                {
    178                  char wtag[4];
    179                  char title[31];
    180                  char artist[31];
    181                  char album[31];
    182                  char year[5];
    183                  char comment[31];
    184                  char genre;
    185                  lseek(file,fst.fsize-128,0);
   \   00000084   0020A0E3           MOV      R2,#+0
   \   00000088   7F10E0E3           MVN      R1,#+127
   \   0000008C   001081E0           ADD      R1,R1,R0
   \   00000090   0500A0E1           MOV      R0,R5
   \   00000094   760100EF           SWI      +374
    186                  fread(file,wtag,3);
   \   00000098   0320A0E3           MOV      R2,#+3
   \   0000009C   0D10A0E1           MOV      R1,SP
   \   000000A0   0500A0E1           MOV      R0,R5
   \   000000A4   180100EF           SWI      +280
    187                  wtag[3]='\0';
   \   000000A8   0060A0E3           MOV      R6,#+0
   \   000000AC   0360CDE5           STRB     R6,[SP, #+3]
    188                  if (strcmp(wtag,"TAG")==0)
   \   000000B0   571F8FE2           ADR      R1,??metadata_Read_1  ;; "TAG"
   \   000000B4   0D00A0E1           MOV      R0,SP
   \   000000B8   590100EF           SWI      +345
   \   000000BC   000050E3           CMP      R0,#+0
   \   000000C0   4D00001A           BNE      ??metadata_Read_3
    189                  {
    190                    fread(file,title,30);
   \   000000C4   1E20A0E3           MOV      R2,#+30
   \   000000C8   10108DE2           ADD      R1,SP,#+16
   \   000000CC   0500A0E1           MOV      R0,R5
   \   000000D0   180100EF           SWI      +280
    191                    fread(file,artist,30);
   \   000000D4   1E20A0E3           MOV      R2,#+30
   \   000000D8   30108DE2           ADD      R1,SP,#+48
   \   000000DC   0500A0E1           MOV      R0,R5
   \   000000E0   180100EF           SWI      +280
    192                    fread(file,album,30);
   \   000000E4   1E20A0E3           MOV      R2,#+30
   \   000000E8   50108DE2           ADD      R1,SP,#+80
   \   000000EC   0500A0E1           MOV      R0,R5
   \   000000F0   180100EF           SWI      +280
    193                    fread(file,year,4);
   \   000000F4   0420A0E3           MOV      R2,#+4
   \   000000F8   08108DE2           ADD      R1,SP,#+8
   \   000000FC   0500A0E1           MOV      R0,R5
   \   00000100   180100EF           SWI      +280
    194                    fread(file,comment,30);
   \   00000104   1E20A0E3           MOV      R2,#+30
   \   00000108   70108DE2           ADD      R1,SP,#+112
   \   0000010C   0500A0E1           MOV      R0,R5
   \   00000110   180100EF           SWI      +280
    195                    fread(file,&genre,1);
   \   00000114   0120A0E3           MOV      R2,#+1
   \   00000118   04108DE2           ADD      R1,SP,#+4
   \   0000011C   0500A0E1           MOV      R0,R5
   \   00000120   180100EF           SWI      +280
    196                    title[30]='\0';
   \   00000124   2E60CDE5           STRB     R6,[SP, #+46]
    197                    artist[30]='\0';
   \   00000128   4E60CDE5           STRB     R6,[SP, #+78]
    198                    album[30]='\0';
   \   0000012C   6E60CDE5           STRB     R6,[SP, #+110]
    199                    year[4]='\0';
   \   00000130   0C60CDE5           STRB     R6,[SP, #+12]
    200                    comment[30]='\0';
   \   00000134   8E60CDE5           STRB     R6,[SP, #+142]
    201                    if (tr.title && title[0]!=0)
   \   00000138   BC00DDE5           LDRB     R0,[SP, #+188]
   \   0000013C   FF60A0E3           MOV      R6,#+255
   \   00000140   FF6C86E3           ORR      R6,R6,#0xFF00
   \   00000144   000050E3           CMP      R0,#+0
   \   00000148   1000DD15           LDRBNE   R0,[SP, #+16]
   \   0000014C   00005013           CMPNE    R0,#+0
   \   00000150   0300000A           BEQ      ??metadata_Read_4
    202                    {
    203                      char2unicode(meta->Title,title,TEXTID_ANY_LEN);
   \   00000154   0620A0E1           MOV      R2,R6
   \   00000158   10108DE2           ADD      R1,SP,#+16
   \   0000015C   0400A0E1           MOV      R0,R4
   \   00000160   ........           _BLF     ??char2unicode,??char2unicode??rA
    204                    }
    205                    if (tr.artist && artist[0]!=0)
   \                     ??metadata_Read_4:
   \   00000164   BD00DDE5           LDRB     R0,[SP, #+189]
   \   00000168   000050E3           CMP      R0,#+0
   \   0000016C   3000DD15           LDRBNE   R0,[SP, #+48]
   \   00000170   00005013           CMPNE    R0,#+0
   \   00000174   0300000A           BEQ      ??metadata_Read_5
    206                    {
    207                      char2unicode(meta->Artist,artist,TEXTID_ANY_LEN);
   \   00000178   0620A0E1           MOV      R2,R6
   \   0000017C   30108DE2           ADD      R1,SP,#+48
   \   00000180   400D84E2           ADD      R0,R4,#+4096
   \   00000184   ........           _BLF     ??char2unicode,??char2unicode??rA
    208                    }
    209                    if (tr.album && album[0]!=0)
   \                     ??metadata_Read_5:
   \   00000188   BE00DDE5           LDRB     R0,[SP, #+190]
   \   0000018C   000050E3           CMP      R0,#+0
   \   00000190   5000DD15           LDRBNE   R0,[SP, #+80]
   \   00000194   00005013           CMPNE    R0,#+0
   \   00000198   0300000A           BEQ      ??metadata_Read_6
    210                    {
    211                      char2unicode(meta->Album,album,TEXTID_ANY_LEN);
   \   0000019C   0620A0E1           MOV      R2,R6
   \   000001A0   50108DE2           ADD      R1,SP,#+80
   \   000001A4   800E84E2           ADD      R0,R4,#+2048
   \   000001A8   ........           _BLF     ??char2unicode,??char2unicode??rA
    212                    }
    213                    if (tr.year && year[0]!=0)
   \                     ??metadata_Read_6:
   \   000001AC   BF00DDE5           LDRB     R0,[SP, #+191]
   \   000001B0   000050E3           CMP      R0,#+0
   \   000001B4   0800DD15           LDRBNE   R0,[SP, #+8]
   \   000001B8   00005013           CMPNE    R0,#+0
   \   000001BC   0300000A           BEQ      ??metadata_Read_7
    214                    {
    215                      char2unicode(meta->Year,year,TEXTID_ANY_LEN);
   \   000001C0   0620A0E1           MOV      R2,R6
   \   000001C4   08108DE2           ADD      R1,SP,#+8
   \   000001C8   600D84E2           ADD      R0,R4,#+6144
   \   000001CC   ........           _BLF     ??char2unicode,??char2unicode??rA
    216                    }
    217                    if (tr.genre && year[0]!=0)
   \                     ??metadata_Read_7:
   \   000001D0   C000DDE5           LDRB     R0,[SP, #+192]
   \   000001D4   000050E3           CMP      R0,#+0
   \   000001D8   0800DD15           LDRBNE   R0,[SP, #+8]
   \   000001DC   00005013           CMPNE    R0,#+0
   \   000001E0   0500000A           BEQ      ??metadata_Read_3
    218                    {
    219                      char2unicode(meta->Genre,GetGenre(genre),TEXTID_ANY_LEN);
   \   000001E4   0400DDE5           LDRB     R0,[SP, #+4]
   \   000001E8   ........           BL       ??GetGenre
   \   000001EC   0010A0E1           MOV      R1,R0
   \   000001F0   0620A0E1           MOV      R2,R6
   \   000001F4   800D84E2           ADD      R0,R4,#+8192
   \   000001F8   ........           _BLF     ??char2unicode,??char2unicode??rA
    220                    }
    221                  }
    222                }
    223              }
    224              fclose(file);
   \                     ??metadata_Read_3:
   \   000001FC   0500A0E1           MOV      R0,R5
   \   00000200   170100EF           SWI      +279
   \                     ??metadata_Read_2:
   \   00000204   ACD08DE2           ADD      SP,SP,#+172
   \   00000208   7040BDE8           POP      {R4-R6,LR}
   \   0000020C   04D08DE2           ADD      SP,SP,#+4
   \   00000210   1EFF2FE1           BX       LR               ;; return
   \                     ??metadata_Read_1:
   \   00000214   54414700           DC8      "TAG"
   \   00000218   ........           DC32     `?<Constant L"\\x6d\\x70\\x33">`
    225            }
    226          };

   \                                 In segment DATA_C, align 4, align-sorted
   \                     `?<Constant "Blues">`:
   \   00000000   426C75657300       DC8 "Blues"
   \   00000006   0000               DC8 0, 0
   \   00000008   436C61737369       DC8 "Classic Rock"
   \              6320526F636B
   \              00          
   \   00000015   000000             DC8 0, 0, 0
   \   00000018   436F756E7472       DC8 "Country"
   \              7900        
   \   00000020   44616E636500       DC8 "Dance"
   \   00000026   0000               DC8 0, 0
   \   00000028   446973636F00       DC8 "Disco"
   \   0000002E   0000               DC8 0, 0
   \   00000030   46756E6B00         DC8 "Funk"
   \   00000035   000000             DC8 0, 0, 0
   \   00000038   4772756E6765       DC8 "Grunge"
   \              00          
   \   0000003F   00                 DC8 0
   \   00000040   4869702D486F       DC8 "Hip-Hop"
   \              7000        
   \   00000048   4A617A7A00         DC8 "Jazz"
   \   0000004D   000000             DC8 0, 0, 0
   \   00000050   4D6574616C00       DC8 "Metal"
   \   00000056   0000               DC8 0, 0
   \   00000058   4E6577204167       DC8 "New Age"
   \              6500        
   \   00000060   4F6C64696573       DC8 "Oldies"
   \              00          
   \   00000067   00                 DC8 0
   \   00000068   4F7468657200       DC8 "Other"
   \   0000006E   0000               DC8 0, 0
   \   00000070   526567676165       DC8 "Reggae"
   \              00          
   \   00000077   00                 DC8 0
   \   00000078   526F636B00         DC8 "Rock"
   \   0000007D   000000             DC8 0, 0, 0
   \   00000080   546563686E6F       DC8 "Techno"
   \              00          
   \   00000087   00                 DC8 0
   \   00000088   496E64757374       DC8 "Industrial"
   \              7269616C00  
   \   00000093   00                 DC8 0
   \   00000094   416C7465726E       DC8 "Alternative"
   \              617469766500
   \   000000A0   446561746820       DC8 "Death Metal"
   \              4D6574616C00
   \   000000AC   5072616E6B73       DC8 "Pranks"
   \              00          
   \   000000B3   00                 DC8 0
   \   000000B4   536F756E6474       DC8 "Soundtrack"
   \              7261636B00  
   \   000000BF   00                 DC8 0
   \   000000C0   4575726F2D54       DC8 "Euro-Techno"
   \              6563686E6F00
   \   000000CC   416D6269656E       DC8 "Ambient"
   \              7400        
   \   000000D4   547269702D48       DC8 "Trip-Hop"
   \              6F7000      
   \   000000DD   000000             DC8 0, 0, 0
   \   000000E0   566F63616C00       DC8 "Vocal"
   \   000000E6   0000               DC8 0, 0
   \   000000E8   4A617A7A2B46       DC8 "Jazz+Funk"
   \              756E6B00    
   \   000000F2   0000               DC8 0, 0
   \   000000F4   467573696F6E       DC8 "Fusion"
   \              00          
   \   000000FB   00                 DC8 0
   \   000000FC   5472616E6365       DC8 "Trance"
   \              00          
   \   00000103   00                 DC8 0
   \   00000104   436C61737369       DC8 "Classical"
   \              63616C00    
   \   0000010E   0000               DC8 0, 0
   \   00000110   496E73747275       DC8 "Instrumental"
   \              6D656E74616C
   \              00          
   \   0000011D   000000             DC8 0, 0, 0
   \   00000120   4163696400         DC8 "Acid"
   \   00000125   000000             DC8 0, 0, 0
   \   00000128   486F75736500       DC8 "House"
   \   0000012E   0000               DC8 0, 0
   \   00000130   47616D6500         DC8 "Game"
   \   00000135   000000             DC8 0, 0, 0
   \   00000138   536F756E6420       DC8 "Sound Clip"
   \              436C697000  
   \   00000143   00                 DC8 0
   \   00000144   476F7370656C       DC8 "Gospel"
   \              00          
   \   0000014B   00                 DC8 0
   \   0000014C   4E6F69736500       DC8 "Noise"
   \   00000152   0000               DC8 0, 0
   \   00000154   416C7465726E       DC8 "Alternative Rock"
   \              617469766520
   \              526F636B00  
   \   00000165   000000             DC8 0, 0, 0
   \   00000168   4261737300         DC8 "Bass"
   \   0000016D   000000             DC8 0, 0, 0
   \   00000170   536F756C00         DC8 "Soul"
   \   00000175   000000             DC8 0, 0, 0
   \   00000178   50756E6B00         DC8 "Punk"
   \   0000017D   000000             DC8 0, 0, 0
   \   00000180   537061636500       DC8 "Space"
   \   00000186   0000               DC8 0, 0
   \   00000188   4D6564697461       DC8 "Meditative"
   \              7469766500  
   \   00000193   00                 DC8 0
   \   00000194   496E73747275       DC8 "Instrumental Pop"
   \              6D656E74616C
   \              20506F7000  
   \   000001A5   000000             DC8 0, 0, 0
   \   000001A8   496E73747275       DC8 "Instrumental Rock"
   \              6D656E74616C
   \              20526F636B00
   \   000001BA   0000               DC8 0, 0
   \   000001BC   4574686E6963       DC8 "Ethnic"
   \              00          
   \   000001C3   00                 DC8 0
   \   000001C4   476F74686963       DC8 "Gothic"
   \              00          
   \   000001CB   00                 DC8 0
   \   000001CC   4461726B7761       DC8 "Darkwave"
   \              766500      
   \   000001D5   000000             DC8 0, 0, 0
   \   000001D8   546563686E6F       DC8 "Techno-Industrial"
   \              2D496E647573
   \              747269616C00
   \   000001EA   0000               DC8 0, 0
   \   000001EC   456C65637472       DC8 "Electronic"
   \              6F6E696300  
   \   000001F7   00                 DC8 0
   \   000001F8   506F702D466F       DC8 "Pop-Folk"
   \              6C6B00      
   \   00000201   000000             DC8 0, 0, 0
   \   00000204   4575726F6461       DC8 "Eurodance"
   \              6E636500    
   \   0000020E   0000               DC8 0, 0
   \   00000210   447265616D00       DC8 "Dream"
   \   00000216   0000               DC8 0, 0
   \   00000218   536F75746865       DC8 "Southern Rock"
   \              726E20526F63
   \              6B00        
   \   00000226   0000               DC8 0, 0
   \   00000228   436F6D656479       DC8 "Comedy"
   \              00          
   \   0000022F   00                 DC8 0
   \   00000230   43756C7400         DC8 "Cult"
   \   00000235   000000             DC8 0, 0, 0
   \   00000238   47616E677374       DC8 "Gangsta"
   \              6100        
   \   00000240   546F70203430       DC8 "Top 40"
   \              00          
   \   00000247   00                 DC8 0
   \   00000248   436872697374       DC8 "Christian Rap"
   \              69616E205261
   \              7000        
   \   00000256   0000               DC8 0, 0
   \   00000258   506F702F4675       DC8 "Pop/Funk"
   \              6E6B00      
   \   00000261   000000             DC8 0, 0, 0
   \   00000264   4A756E676C65       DC8 "Jungle"
   \              00          
   \   0000026B   00                 DC8 0
   \   0000026C   4E6174697665       DC8 "Native US"
   \              20555300    
   \   00000276   0000               DC8 0, 0
   \   00000278   436162617265       DC8 "Cabaret"
   \              7400        
   \   00000280   4E6577205761       DC8 "New Wave"
   \              766500      
   \   00000289   000000             DC8 0, 0, 0
   \   0000028C   507379636861       DC8 "Psychadelic"
   \              64656C696300
   \   00000298   5261766500         DC8 "Rave"
   \   0000029D   000000             DC8 0, 0, 0
   \   000002A0   53686F777475       DC8 "Showtunes"
   \              6E657300    
   \   000002AA   0000               DC8 0, 0
   \   000002AC   547261696C65       DC8 "Trailer"
   \              7200        
   \   000002B4   4C6F2D466900       DC8 "Lo-Fi"
   \   000002BA   0000               DC8 0, 0
   \   000002BC   54726962616C       DC8 "Tribal"
   \              00          
   \   000002C3   00                 DC8 0
   \   000002C4   416369642050       DC8 "Acid Punk"
   \              756E6B00    
   \   000002CE   0000               DC8 0, 0
   \   000002D0   41636964204A       DC8 "Acid Jazz"
   \              617A7A00    
   \   000002DA   0000               DC8 0, 0
   \   000002DC   506F6C6B6100       DC8 "Polka"
   \   000002E2   0000               DC8 0, 0
   \   000002E4   526574726F00       DC8 "Retro"
   \   000002EA   0000               DC8 0, 0
   \   000002EC   4D7573696361       DC8 "Musical"
   \              6C00        
   \   000002F4   526F636B2026       DC8 "Rock & Roll"
   \              20526F6C6C00
   \   00000300   486172642052       DC8 "Hard Rock"
   \              6F636B00    
   \   0000030A   0000               DC8 0, 0
   \   0000030C   466F6C6B00         DC8 "Folk"
   \   00000311   000000             DC8 0, 0, 0
   \   00000314   466F6C6B2D52       DC8 "Folk-Rock"
   \              6F636B00    
   \   0000031E   0000               DC8 0, 0
   \   00000320   4E6174696F6E       DC8 "National Folk"
   \              616C20466F6C
   \              6B00        
   \   0000032E   0000               DC8 0, 0
   \   00000330   5377696E6700       DC8 "Swing"
   \   00000336   0000               DC8 0, 0
   \   00000338   466173742046       DC8 "Fast Fusion"
   \              7573696F6E00
   \   00000344   4265626F6200       DC8 "Bebob"
   \   0000034A   0000               DC8 0, 0
   \   0000034C   4C6174696E00       DC8 "Latin"
   \   00000352   0000               DC8 0, 0
   \   00000354   526576697661       DC8 "Revival"
   \              6C00        
   \   0000035C   43656C746963       DC8 "Celtic"
   \              00          
   \   00000363   00                 DC8 0
   \   00000364   426C75656772       DC8 "Bluegrass"
   \              61737300    
   \   0000036E   0000               DC8 0, 0
   \   00000370   4176616E7467       DC8 "Avantgarde"
   \              6172646500  
   \   0000037B   00                 DC8 0
   \   0000037C   476F74686963       DC8 "Gothic Rock"
   \              20526F636B00
   \   00000388   50726F677265       DC8 "Progressive Rock"
   \              737369766520
   \              526F636B00  
   \   00000399   000000             DC8 0, 0, 0
   \   0000039C   507379636865       DC8 "Psychedelic Rock"
   \              64656C696320
   \              526F636B00  
   \   000003AD   000000             DC8 0, 0, 0
   \   000003B0   53796D70686F       DC8 "Symphonic Rock"
   \              6E696320526F
   \              636B00      
   \   000003BF   00                 DC8 0
   \   000003C0   536C6F772052       DC8 "Slow Rock"
   \              6F636B00    
   \   000003CA   0000               DC8 0, 0
   \   000003CC   426967204261       DC8 "Big Band"
   \              6E6400      
   \   000003D5   000000             DC8 0, 0, 0
   \   000003D8   43686F727573       DC8 "Chorus"
   \              00          
   \   000003DF   00                 DC8 0
   \   000003E0   45617379204C       DC8 "Easy Listening"
   \              697374656E69
   \              6E6700      
   \   000003EF   00                 DC8 0
   \   000003F0   41636F757374       DC8 "Acoustic"
   \              696300      
   \   000003F9   000000             DC8 0, 0, 0
   \   000003FC   48756D6F7572       DC8 "Humour"
   \              00          
   \   00000403   00                 DC8 0
   \   00000404   537065656368       DC8 "Speech"
   \              00          
   \   0000040B   00                 DC8 0
   \   0000040C   4368616E736F       DC8 "Chanson"
   \              6E00        
   \   00000414   4F7065726100       DC8 "Opera"
   \   0000041A   0000               DC8 0, 0
   \   0000041C   4368616D6265       DC8 "Chamber Music"
   \              72204D757369
   \              6300        
   \   0000042A   0000               DC8 0, 0
   \   0000042C   536F6E617461       DC8 "Sonata"
   \              00          
   \   00000433   00                 DC8 0
   \   00000434   53796D70686F       DC8 "Symphony"
   \              6E7900      
   \   0000043D   000000             DC8 0, 0, 0
   \   00000440   426F6F747920       DC8 "Booty Bass"
   \              4261737300  
   \   0000044B   00                 DC8 0
   \   0000044C   5072696D7573       DC8 "Primus"
   \              00          
   \   00000453   00                 DC8 0
   \   00000454   506F726E2047       DC8 "Porn Groove"
   \              726F6F766500
   \   00000460   536174697265       DC8 "Satire"
   \              00          
   \   00000467   00                 DC8 0
   \   00000468   536C6F77204A       DC8 "Slow Jam"
   \              616D00      
   \   00000471   000000             DC8 0, 0, 0
   \   00000474   436C756200         DC8 "Club"
   \   00000479   000000             DC8 0, 0, 0
   \   0000047C   54616E676F00       DC8 "Tango"
   \   00000482   0000               DC8 0, 0
   \   00000484   53616D626100       DC8 "Samba"
   \   0000048A   0000               DC8 0, 0
   \   0000048C   466F6C6B6C6F       DC8 "Folklore"
   \              726500      
   \   00000495   000000             DC8 0, 0, 0
   \   00000498   42616C6C6164       DC8 "Ballad"
   \              00          
   \   0000049F   00                 DC8 0
   \   000004A0   506F77657220       DC8 "Power Ballad"
   \              42616C6C6164
   \              00          
   \   000004AD   000000             DC8 0, 0, 0
   \   000004B0   526879746D69       DC8 "Rhytmic Soul"
   \              6320536F756C
   \              00          
   \   000004BD   000000             DC8 0, 0, 0
   \   000004C0   467265657374       DC8 "Freestyle"
   \              796C6500    
   \   000004CA   0000               DC8 0, 0
   \   000004CC   4475657400         DC8 "Duet"
   \   000004D1   000000             DC8 0, 0, 0
   \   000004D4   50756E6B2052       DC8 "Punk Rock"
   \              6F636B00    
   \   000004DE   0000               DC8 0, 0
   \   000004E0   4472756D2053       DC8 "Drum Solo"
   \              6F6C6F00    
   \   000004EA   0000               DC8 0, 0
   \   000004EC   41636170656C       DC8 "Acapella"
   \              6C6100      
   \   000004F5   000000             DC8 0, 0, 0
   \   000004F8   4575726F2D48       DC8 "Euro-House"
   \              6F75736500  
   \   00000503   00                 DC8 0
   \   00000504   44616E636520       DC8 "Dance Hall"
   \              48616C6C00  
   \   0000050F   00                 DC8 0
   \   00000510   4472756D2026       DC8 "Drum & Bass"
   \              204261737300
   \   0000051C   436C75622D48       DC8 "Club-House"
   \              6F75736500  
   \   00000527   00                 DC8 0
   \   00000528   48617264636F       DC8 "Hardcore"
   \              726500      
   \   00000531   000000             DC8 0, 0, 0
   \   00000534   546572726F72       DC8 "Terror"
   \              00          
   \   0000053B   00                 DC8 0
   \   0000053C   496E64696500       DC8 "Indie"
   \   00000542   0000               DC8 0, 0
   \   00000544   42726974506F       DC8 "BritPop"
   \              7000        
   \   0000054C   4E6567657270       DC8 "Negerpunk"
   \              756E6B00    
   \   00000556   0000               DC8 0, 0
   \   00000558   506F6C736B20       DC8 "Polsk Punk"
   \              50756E6B00  
   \   00000563   00                 DC8 0
   \   00000564   4265617400         DC8 "Beat"
   \   00000569   000000             DC8 0, 0, 0
   \   0000056C   436872697374       DC8 "Christian Gangsta"
   \              69616E204761
   \              6E6773746100
   \   0000057E   0000               DC8 0, 0
   \   00000580   486561767920       DC8 "Heavy Metal"
   \              4D6574616C00
   \   0000058C   426C61636B20       DC8 "Black Metal"
   \              4D6574616C00
   \   00000598   43726F73736F       DC8 "Crossover"
   \              76657200    
   \   000005A2   0000               DC8 0, 0
   \   000005A4   436F6E74656D       DC8 "Contemporary C"
   \              706F72617279
   \              204300      
   \   000005B3   00                 DC8 0
   \   000005B4   436872697374       DC8 "Christian Rock"
   \              69616E20526F
   \              636B00      
   \   000005C3   00                 DC8 0
   \   000005C4   4D6572656E67       DC8 "Merengue"
   \              756500      
   \   000005CD   000000             DC8 0, 0, 0
   \   000005D0   53616C736100       DC8 "Salsa"
   \   000005D6   0000               DC8 0, 0
   \   000005D8   546872617368       DC8 "Thrash Metal"
   \              204D6574616C
   \              00          
   \   000005E5   000000             DC8 0, 0, 0
   \   000005E8   416E696D6500       DC8 "Anime"
   \   000005EE   0000               DC8 0, 0
   \   000005F0   4A506F7000         DC8 "JPop"
   \   000005F5   000000             DC8 0, 0, 0
   \   000005F8   53796E746850       DC8 "SynthPop"
   \              6F7000      
   \   00000601   000000             DC8 0, 0, 0

   \                                 In segment DATA_C, align 4, align-sorted
   \   00000000   506F7000           DC8 "Pop"

   \                                 In segment DATA_C, align 4, align-sorted
   \   00000000   52264200           DC8 "R&B"

   \                                 In segment DATA_C, align 4, align-sorted
   \   00000000   52617000           DC8 "Rap"

   \                                 In segment DATA_C, align 4, align-sorted
   \   00000000   536B6100           DC8 "Ska"

   \                                 In segment DATA_C, align 4, align-sorted
   \   00000000   476F6100           DC8 "Goa"

   \                                 In segment DATA_C, align 1, align-sorted
   \   00000000   2000               DC8 " "

   \                                 In segment DATA_C, align 4, align-sorted
   \                     `?<Constant L"\\x6d\\x70\\x33">`:
   \   00000000   6D0070003300       DC8 6DH, 0, 70H, 0, 33H, 0, 0, 0
   \              0000        

   \                                 In segment DATA_C, align 4, align-sorted
   \   00000000   54414700           DC8 "TAG"

   Maximum stack usage in bytes:

     Function                       CSTACK
     --------                       ------
     GetGenre(int)                      0
     metadata_Read(wchar_t *, wchar_t *, METADATA *, TAG_REQUEST)
                                      192


   Segment part sizes:

     Function/Label                 Bytes
     --------------                 -----
     GetGenre(int)                  1620
     metadata_Read(wchar_t *, wchar_t *, METADATA *, TAG_REQUEST)
                                     540
     ?<Constant "Blues">            1540
     ?<Constant "Pop">                 4
     ?<Constant "R&B">                 4
     ?<Constant "Rap">                 4
     ?<Constant "Ska">                 4
     ?<Constant "Goa">                 4
     ?<Constant " ">                   2
     ?<Constant L"\x6d\x70\x33">       8
     ?<Constant "TAG">                 4
      Others                          20

 
 2 180 bytes in segment CODE
 1 574 bytes in segment DATA_C
 
 2 160 bytes of CODE  memory (+ 20 bytes shared)
 1 574 bytes of CONST memory

Errors: none
Warnings: none
