##############################################################################
#                                                                            #
# IAR ARM ANSI C/C++ Compiler V4.42A/W32 EVALUATION    10/Jun/2013  22:46:19 #
# Copyright 1999-2005 IAR Systems. All rights reserved.                      #
#                                                                            #
#    Cpu mode        =  interwork                                            #
#    Endian          =  little                                               #
#    Stack alignment =  4                                                    #
#    Source file     =  Z:\home\perk11\www\perk11.info\svn\SE\mcse\arch.cpp  #
#    Command line    =  Z:\home\perk11\www\perk11.info\svn\SE\mcse\arch.cpp  #
#                       -D NDEBUG -D USEZLIB -D OLDFUNCTIONS -lCN            #
#                       Z:\home\perk11\www\perk11.info\svn\SE\mcse\Release\L #
#                       ist\ -la Z:\home\perk11\www\perk11.info\svn\SE\mcse\ #
#                       Release\List\ -o Z:\home\perk11\www\perk11.info\svn\ #
#                       SE\mcse\Release\Obj\ -s9 --no_unroll                 #
#                       --no_code_motion --cpu_mode arm --endian little      #
#                       --cpu ARM926EJ-S --stack_align 4 --interwork -e      #
#                       --enable_multibytes --fpu None --eec++               #
#                       --dlib_config Z:\home\perk11\IAR2\arm\LIB\dl5tpainl8 #
#                       n.h --preinclude Z:\home\perk11\www\perk11.info\svn\ #
#                       SE\mcse\..\deleaker\mem2.h -I                        #
#                       Z:\home\perk11\IAR2\arm\INC\ --inline_threshold=2    #
#    List file       =  Z:\home\perk11\www\perk11.info\svn\SE\mcse\Release\L #
#                       ist\arch.lst                                         #
#    Object file     =  Z:\home\perk11\www\perk11.info\svn\SE\mcse\Release\O #
#                       bj\arch.r79                                          #
#                                                                            #
#                                                                            #
##############################################################################

Z:\home\perk11\www\perk11.info\svn\SE\mcse\arch.cpp
      1          #include "inc\mc.h"
      2          
      3          #include "inc\mui.h"
      4          #include "inc\arch.h"
      5          #include "inc\7zslib.h"
      6          #include "inc\zslib.h"
      7          #include "inc\fn_list.h"
      8          

   \                                 In segment CODE, align 4, keep-with-next
      9          void FreeArchInfo(ARCHINFO* pzi)
     10          {
   \                     ??FreeArchInfo:
   \   00000000   30402DE9           PUSH     {R4,R5,LR}
   \   00000004   0040A0E1           MOV      R4,R0
     11            if (pzi->pszNames)
   \   00000008   040494E5           LDR      R0,[R4, #+1028]
   \   0000000C   000050E3           CMP      R0,#+0
   \   00000010   1100000A           BEQ      ??FreeArchInfo_1
     12            {
     13              for (int i=0; i < pzi->total_names; i++)
   \   00000014   080494E5           LDR      R0,[R4, #+1032]
   \   00000018   0050A0E3           MOV      R5,#+0
   \   0000001C   010050E3           CMP      R0,#+1
   \   00000020   080000AA           BGE      ??FreeArchInfo_2
   \   00000024   0A0000EA           B        ??FreeArchInfo_3
     14                if (pzi->pszNames[i]) delete (pzi->pszNames[i]);
   \                     ??FreeArchInfo_4:
   \   00000028   040494E5           LDR      R0,[R4, #+1028]
   \   0000002C   050190E7           LDR      R0,[R0, +R5, LSL #+2]
   \   00000030   000050E3           CMP      R0,#+0
   \   00000034   0200000A           BEQ      ??FreeArchInfo_5
   \   00000038   040494E5           LDR      R0,[R4, #+1028]
   \   0000003C   050190E7           LDR      R0,[R0, +R5, LSL #+2]
   \   00000040   ........           _BLF     `??operator delete`,`??operator delete??rA`
   \                     ??FreeArchInfo_5:
   \   00000044   015085E2           ADD      R5,R5,#+1
   \                     ??FreeArchInfo_2:
   \   00000048   080494E5           LDR      R0,[R4, #+1032]
   \   0000004C   000055E1           CMP      R5,R0
   \   00000050   F4FFFFBA           BLT      ??FreeArchInfo_4
     15              delete(pzi->pszNames);
   \                     ??FreeArchInfo_3:
   \   00000054   040494E5           LDR      R0,[R4, #+1028]
   \   00000058   ........           _BLF     `??operator delete`,`??operator delete??rA`
     16            }
     17              
     18            if (pzi->password)
   \                     ??FreeArchInfo_1:
   \   0000005C   0C0494E5           LDR      R0,[R4, #+1036]
   \   00000060   000050E3           CMP      R0,#+0
   \   00000064   0000000A           BEQ      ??FreeArchInfo_6
     19              delete(pzi->password);
   \   00000068   ........           _BLF     `??operator delete`,`??operator delete??rA`
     20              
     21            memset(pzi, 0, sizeof(ARCHINFO));
   \                     ??FreeArchInfo_6:
   \   0000006C   6420A0E3           MOV      R2,#+100
   \   00000070   402E82E3           ORR      R2,R2,#0x400
   \   00000074   0010A0E3           MOV      R1,#+0
   \   00000078   0400A0E1           MOV      R0,R4
   \   0000007C   120100EF           SWI      +274
     22            pzi->type = NO_ARCH;
   \   00000080   0000A0E3           MOV      R0,#+0
   \   00000084   000084E5           STR      R0,[R4, #+0]
     23          }
   \   00000088   3080BDE8           POP      {R4,R5,PC}       ;; return
     24          

   \                                 In segment CODE, align 4, keep-with-next
     25          int IsArchiveOpened(int tab)
     26          {
     27            return (tabs[tab]->zipInfo->type);
   \                     ??IsArchiveOpened:
   \   00000000   ........           LDR      R1,??DataTable6  ;; tabs
   \   00000004   000191E7           LDR      R0,[R1, +R0, LSL #+2]
   \   00000008   140890E5           LDR      R0,[R0, #+2068]
   \   0000000C   000090E5           LDR      R0,[R0, #+0]
   \   00000010   1EFF2FE1           BX       LR               ;; return
     28          }
     29          

   \                                 In segment CODE, align 4, keep-with-next
     30          int IsInArchive()
     31          {
     32            return IsArchiveOpened(curtab);
   \                     ??IsInArchive:
   \   00000000   14009FE5           LDR      R0,??IsInArchive_1  ;; curtab
   \   00000004   ........           LDR      R1,??DataTable6  ;; tabs
   \   00000008   000090E5           LDR      R0,[R0, #+0]
   \   0000000C   000191E7           LDR      R0,[R1, +R0, LSL #+2]
   \   00000010   140890E5           LDR      R0,[R0, #+2068]
   \   00000014   000090E5           LDR      R0,[R0, #+0]
   \   00000018   1EFF2FE1           BX       LR               ;; return
   \                     ??IsInArchive_1:
   \   0000001C   ........           DC32     curtab
     33          }
     34          
     35          

   \                                 In segment DATA_Z, align 4, align-sorted
     36          ARCHINFO zi;
   \                     zi:
   \   00000000                      DS8 1124
     37          

   \                                 In segment CODE, align 4, keep-with-next
     38          void ZeroArchiveBuffer()
     39          {
   \                     ??ZeroArchiveBuffer:
   \   00000000   10402DE9           PUSH     {R4,LR}
     40            memset(&zi,0,sizeof(ARCHINFO));
   \   00000004   ........           LDR      R4,??DataTable17  ;; zi
   \   00000008   6420A0E3           MOV      R2,#+100
   \   0000000C   402E82E3           ORR      R2,R2,#0x400
   \   00000010   0010A0E3           MOV      R1,#+0
   \   00000014   0400A0E1           MOV      R0,R4
   \   00000018   120100EF           SWI      +274
     41            zi.type=NO_ARCH;
   \   0000001C   0000A0E3           MOV      R0,#+0
   \   00000020   000084E5           STR      R0,[R4, #+0]
     42          }
   \   00000024   1080BDE8           POP      {R4,PC}          ;; return
     43          

   \                                 In segment CODE, align 4, keep-with-next
     44          void ArchiveBufferExtractBegin()
     45          {
     46          }
   \                     ??ArchiveBufferExtractBegin:
   \   00000000   1EFF2FE1           BX       LR               ;; return
     47          

   \                                 In segment CODE, align 4, keep-with-next
     48          int ArchiveBufferExtract(int type, FN_ITM* pi, wchar_t* extractDir)
     49          {
   \                     ??ArchiveBufferExtract:
   \   00000000   F0412DE9           PUSH     {R4-R8,LR}
   \   00000004   0040A0E1           MOV      R4,R0
     50            int i=0;
     51            ARCHINFO *pzi=&zi;
   \   00000008   ........           LDR      R7,??DataTable17  ;; zi
   \   0000000C   0150A0E1           MOV      R5,R1
   \   00000010   0260A0E1           MOV      R6,R2
     52            if (pi && pi->zipPath && pi->full)
   \   00000014   000055E3           CMP      R5,#+0
   \   00000018   3B00000A           BEQ      ??ArchiveBufferExtract_1
   \   0000001C   100095E5           LDR      R0,[R5, #+16]
   \   00000020   000050E3           CMP      R0,#+0
   \   00000024   08009515           LDRNE    R0,[R5, #+8]
   \   00000028   00005013           CMPNE    R0,#+0
   \   0000002C   F081BD08           POPEQ    {R4-R8,PC}
     53            {
     54              int usingZipFromTab = 0;
     55              for (int i = 0; i < MAX_TABS; i++)
   \   00000030   0080A0E3           MOV      R8,#+0
     56              {
     57                if (IsArchiveOpened(i)==type && wstrcmpi(tabs[i]->zipInfo->szZipPath, pi->zipPath) == 0)
   \                     ??ArchiveBufferExtract_2:
   \   00000034   ........           LDR      R0,??DataTable6  ;; tabs
   \   00000038   080190E7           LDR      R0,[R0, +R8, LSL #+2]
   \   0000003C   140890E5           LDR      R0,[R0, #+2068]
   \   00000040   000090E5           LDR      R0,[R0, #+0]
   \   00000044   040050E1           CMP      R0,R4
   \   00000048   0B00001A           BNE      ??ArchiveBufferExtract_3
   \   0000004C   ........           LDR      R0,??DataTable6  ;; tabs
   \   00000050   101095E5           LDR      R1,[R5, #+16]
   \   00000054   080190E7           LDR      R0,[R0, +R8, LSL #+2]
   \   00000058   140890E5           LDR      R0,[R0, #+2068]
   \   0000005C   040080E2           ADD      R0,R0,#+4
   \   00000060   9F0200EF           SWI      +671
   \   00000064   000050E3           CMP      R0,#+0
   \   00000068   0300001A           BNE      ??ArchiveBufferExtract_3
     58                {
     59                  // Если уже открыт в табе, то используем его
     60                  pzi = tabs[i]->zipInfo;
   \   0000006C   ........           LDR      R0,??DataTable6  ;; tabs
   \   00000070   080190E7           LDR      R0,[R0, +R8, LSL #+2]
   \   00000074   147890E5           LDR      R7,[R0, #+2068]
     61                  usingZipFromTab = 1;
     62                  break;
   \   00000078   300000EA           B        ??ArchiveBufferExtract_4
     63                }
     64              }
   \                     ??ArchiveBufferExtract_3:
   \   0000007C   018088E2           ADD      R8,R8,#+1
   \   00000080   020058E3           CMP      R8,#+2
   \   00000084   EAFFFFBA           BLT      ??ArchiveBufferExtract_2
     65              if (!usingZipFromTab)
     66              {
     67                if (pzi->type==ZIP_ARCH && wstrcmpi(pzi->szZipPath, pi->zipPath) != 0)
   \   00000088   ........           LDR      R0,??DataTable17  ;; zi
   \   0000008C   000090E5           LDR      R0,[R0, #+0]
   \   00000090   010050E3           CMP      R0,#+1
   \   00000094   0600001A           BNE      ??ArchiveBufferExtract_5
   \   00000098   24019FE5           LDR      R0,??ArchiveBufferExtract_6  ;; zi + 4
   \   0000009C   101095E5           LDR      R1,[R5, #+16]
   \   000000A0   9F0200EF           SWI      +671
   \   000000A4   000050E3           CMP      R0,#+0
   \   000000A8   0100000A           BEQ      ??ArchiveBufferExtract_5
     68                  CloseZip(pzi);
   \   000000AC   ........           LDR      R0,??DataTable17  ;; zi
   \   000000B0   ........           _BLF     ??CloseZip,??CloseZip??rA
     69                if (pzi->type==_7Z_ARCH && wstrcmpi(pzi->szZipPath, pi->zipPath) != 0)
   \                     ??ArchiveBufferExtract_5:
   \   000000B4   ........           LDR      R0,??DataTable17  ;; zi
   \   000000B8   000090E5           LDR      R0,[R0, #+0]
   \   000000BC   020050E3           CMP      R0,#+2
   \   000000C0   0600001A           BNE      ??ArchiveBufferExtract_7
   \   000000C4   F8009FE5           LDR      R0,??ArchiveBufferExtract_6  ;; zi + 4
   \   000000C8   101095E5           LDR      R1,[R5, #+16]
   \   000000CC   9F0200EF           SWI      +671
   \   000000D0   000050E3           CMP      R0,#+0
   \   000000D4   0100000A           BEQ      ??ArchiveBufferExtract_7
     70                  Close7Z(pzi);
   \   000000D8   ........           LDR      R0,??DataTable17  ;; zi
   \   000000DC   ........           _BLF     ??Close7Z,??Close7Z??rA
     71                if (type==ZIP_ARCH)
   \                     ??ArchiveBufferExtract_7:
   \   000000E0   010054E3           CMP      R4,#+1
   \   000000E4   0A00001A           BNE      ??ArchiveBufferExtract_8
     72                {
     73                  // Если файл еще не открыт - то открываем
     74                  if (pzi->type == 0)
   \   000000E8   ........           LDR      R0,??DataTable17  ;; zi
   \   000000EC   000090E5           LDR      R0,[R0, #+0]
   \   000000F0   000050E3           CMP      R0,#+0
   \   000000F4   1100001A           BNE      ??ArchiveBufferExtract_4
     75                    if (OpenZip(pzi, pi->zipPath) != UNZ_OK)
   \   000000F8   ........           LDR      R0,??DataTable17  ;; zi
   \   000000FC   101095E5           LDR      R1,[R5, #+16]
   \   00000100   ........           _BLF     ??OpenZip,??OpenZip??rA
   \   00000104   000050E3           CMP      R0,#+0
   \   00000108   0C00000A           BEQ      ??ArchiveBufferExtract_4
     76                      return 0;
   \                     ??ArchiveBufferExtract_1:
   \   0000010C   0000A0E3           MOV      R0,#+0
   \   00000110   F081BDE8           POP      {R4-R8,PC}
     77                }
     78                if (type==_7Z_ARCH)
   \                     ??ArchiveBufferExtract_8:
   \   00000114   020054E3           CMP      R4,#+2
   \   00000118   0800001A           BNE      ??ArchiveBufferExtract_4
     79                {
     80                  // Если файл еще не открыт - то открываем
     81                  if (pzi->type == 0)
   \   0000011C   ........           LDR      R0,??DataTable17  ;; zi
   \   00000120   000090E5           LDR      R0,[R0, #+0]
   \   00000124   000050E3           CMP      R0,#+0
   \   00000128   0400001A           BNE      ??ArchiveBufferExtract_4
     82                    if (Open7ZFile(pzi, pi->zipPath) != SZ_OK)
   \   0000012C   ........           LDR      R0,??DataTable17  ;; zi
   \   00000130   101095E5           LDR      R1,[R5, #+16]
   \   00000134   ........           _BLF     ??Open7ZFile,??Open7ZFile??rA
   \   00000138   000050E3           CMP      R0,#+0
   \   0000013C   F2FFFF1A           BNE      ??ArchiveBufferExtract_1
     83                      return 0;
     84                }
     85              }
     86              
     87              if (pi->ftype == TYPE_ZIP_FILE)
   \                     ??ArchiveBufferExtract_4:
   \   00000140   000095E5           LDR      R0,[R5, #+0]
   \   00000144   020050E3           CMP      R0,#+2
   \   00000148   0500001A           BNE      ??ArchiveBufferExtract_9
     88                return ExtractFile(pzi, pi->full, extractDir, 0);
   \   0000014C   081095E5           LDR      R1,[R5, #+8]
   \   00000150   0030A0E3           MOV      R3,#+0
   \   00000154   0620A0E1           MOV      R2,R6
   \   00000158   0700A0E1           MOV      R0,R7
   \   0000015C   ........           _BLF     ??ExtractFile,??ExtractFile??rA
   \   00000160   F081BDE8           POP      {R4-R8,PC}
     89              else if (pi->ftype == TYPE_ZIP_DIR)
   \                     ??ArchiveBufferExtract_9:
   \   00000164   030050E3           CMP      R0,#+3
   \   00000168   0500001A           BNE      ??ArchiveBufferExtract_10
     90                return ExtractDir(pzi, pi->full, extractDir, 1);
   \   0000016C   081095E5           LDR      R1,[R5, #+8]
   \   00000170   0130A0E3           MOV      R3,#+1
   \   00000174   0620A0E1           MOV      R2,R6
   \   00000178   0700A0E1           MOV      R0,R7
   \   0000017C   ........           _BLF     ??ExtractDir,??ExtractDir??rA
   \   00000180   F081BDE8           POP      {R4-R8,PC}
     91              else if (pi->ftype == TYPE_7Z_FILE)
   \                     ??ArchiveBufferExtract_10:
   \   00000184   040050E3           CMP      R0,#+4
   \   00000188   0500001A           BNE      ??ArchiveBufferExtract_11
     92                return ExtractFile7Z(pzi, pi->full, extractDir, 0);
   \   0000018C   081095E5           LDR      R1,[R5, #+8]
   \   00000190   0030A0E3           MOV      R3,#+0
   \   00000194   0620A0E1           MOV      R2,R6
   \   00000198   0700A0E1           MOV      R0,R7
   \   0000019C   ........           _BLF     ??ExtractFile7Z,??ExtractFile7Z??rA
   \   000001A0   F081BDE8           POP      {R4-R8,PC}
     93              else if (pi->ftype == TYPE_7Z_DIR)
   \                     ??ArchiveBufferExtract_11:
   \   000001A4   050050E3           CMP      R0,#+5
   \   000001A8   D7FFFF1A           BNE      ??ArchiveBufferExtract_1
     94                return ExtractDir7Z(pzi, pi->full, extractDir, 1);
   \   000001AC   081095E5           LDR      R1,[R5, #+8]
   \   000001B0   0130A0E3           MOV      R3,#+1
   \   000001B4   0620A0E1           MOV      R2,R6
   \   000001B8   0700A0E1           MOV      R0,R7
   \   000001BC   ........           _BLF     ??ExtractDir7Z,??ExtractDir7Z??rA
   \   000001C0   F081BDE8           POP      {R4-R8,PC}       ;; return
   \                     ??ArchiveBufferExtract_6:
   \   000001C4   ........           DC32     zi + 4
     95            }
     96            return (i);
     97          }
     98          

   \                                 In segment CODE, align 4, keep-with-next
     99          void ArchiveBufferExtractEnd()
    100          {
    101            if (zi.type==ZIP_ARCH)
   \                     ??ArchiveBufferExtractEnd:
   \   00000000   ........           LDR      R0,??DataTable17  ;; zi
   \   00000004   000090E5           LDR      R0,[R0, #+0]
   \   00000008   010050E3           CMP      R0,#+1
   \   0000000C   ........           LDR      R0,??DataTable17  ;; zi
   \   00000010   0000001A           BNE      ??ArchiveBufferExtractEnd_1
    102              CloseZip(&zi);
   \   00000014   ........           _BF      ??CloseZip,??CloseZip??rA  ;; tailcall
    103            else if (zi.type==_7Z_ARCH)
   \                     ??ArchiveBufferExtractEnd_1:
   \   00000018   000090E5           LDR      R0,[R0, #+0]
   \   0000001C   020050E3           CMP      R0,#+2
   \   00000020   1EFF2F11           BXNE     LR
    104              Close7Z(&zi);    
   \   00000024   ........           LDR      R0,??DataTable17  ;; zi
   \   00000028   ........           _BF      ??Close7Z,??Close7Z??rA  ;; tailcall
    105          }

   \                                 In segment CODE, align 4, keep-with-next
   \                     ??DataTable6:
   \   00000000   ........           DC32     tabs

   \                                 In segment CODE, align 4, keep-with-next
   \                     ??DataTable17:
   \   00000000   ........           DC32     zi

   Maximum stack usage in bytes:

     Function                       CSTACK
     --------                       ------
     ArchiveBufferExtract(int, FN_ITM *, wchar_t *)
                                       24
     ArchiveBufferExtractBegin()        0
     ArchiveBufferExtractEnd()          4
     FreeArchInfo(ARCHINFO *)          12
     IsArchiveOpened(int)               0
     IsInArchive()                      0
     ZeroArchiveBuffer()                8


   Segment part sizes:

     Function/Label                 Bytes
     --------------                 -----
     FreeArchInfo(ARCHINFO *)        140
     IsArchiveOpened(int)             20
     IsInArchive()                    32
     zi                             1124
     ZeroArchiveBuffer()              40
     ArchiveBufferExtractBegin()       4
     ArchiveBufferExtract(int, FN_ITM *, wchar_t *)
                                     456
     ArchiveBufferExtractEnd()        44
     ??DataTable6                      4
     ??DataTable17                     4
      Others                         148

 
   880 bytes in segment CODE
 1 124 bytes in segment DATA_Z
    12 bytes in segment INITTAB
 
   744 bytes of CODE memory (+ 148 bytes shared)
 1 124 bytes of DATA memory

Errors: none
Warnings: none
