##############################################################################
#                                                                            #
# IAR ARM ANSI C/C++ Compiler V4.42A/W32 EVALUATION    10/Jun/2013  22:46:47 #
# Copyright 1999-2005 IAR Systems. All rights reserved.                      #
#                                                                            #
#    Cpu mode        =  interwork                                            #
#    Endian          =  little                                               #
#    Stack alignment =  4                                                    #
#    Source file     =  Z:\home\perk11\www\perk11.info\svn\SE\mcse\encode.cp #
#                       p                                                    #
#    Command line    =  Z:\home\perk11\www\perk11.info\svn\SE\mcse\encode.cp #
#                       p -D NDEBUG -D USEZLIB -D OLDFUNCTIONS -lCN          #
#                       Z:\home\perk11\www\perk11.info\svn\SE\mcse\Release\L #
#                       ist\ -la Z:\home\perk11\www\perk11.info\svn\SE\mcse\ #
#                       Release\List\ -o Z:\home\perk11\www\perk11.info\svn\ #
#                       SE\mcse\Release\Obj\ -s9 --no_unroll                 #
#                       --no_code_motion --cpu_mode arm --endian little      #
#                       --cpu ARM926EJ-S --stack_align 4 --interwork -e      #
#                       --enable_multibytes --fpu None --eec++               #
#                       --dlib_config Z:\home\perk11\IAR2\arm\LIB\dl5tpainl8 #
#                       n.h --preinclude Z:\home\perk11\www\perk11.info\svn\ #
#                       SE\mcse\..\deleaker\mem2.h -I                        #
#                       Z:\home\perk11\IAR2\arm\INC\ --inline_threshold=2    #
#    List file       =  Z:\home\perk11\www\perk11.info\svn\SE\mcse\Release\L #
#                       ist\encode.lst                                       #
#    Object file     =  Z:\home\perk11\www\perk11.info\svn\SE\mcse\Release\O #
#                       bj\encode.r79                                        #
#                                                                            #
#                                                                            #
##############################################################################

Z:\home\perk11\www\perk11.info\svn\SE\mcse\encode.cpp
      1          #include "inc\mc.h"
      2          

   \                                 In segment CODE, align 4, keep-with-next
      3          void win12512unicode(wchar_t *ws, const char *s, int len)
      4          {
   \                     ??win12512unicode:
   \   00000000   040000EA           B        ??win12512unicode_1
      5            int c;
      6            while((c=*s++)&&((len--)>0))
      7            {
      8              if (c==0xA8) c=0x401;
      9              if (c==0xAA) c=0x404;
     10              if (c==0xAF) c=0x407;
     11              if (c==0xB8) c=0x451;
     12              if (c==0xBA) c=0x454;
     13              if (c==0xBF) c=0x457;
     14              if ((c>=0xC0)&&(c<0x100)) c+=0x350;
   \                     ??win12512unicode_2:
   \   00000004   C00053E3           CMP      R3,#+192
   \   00000008   010000BA           BLT      ??win12512unicode_3
   \   0000000C   400F53E3           CMP      R3,#+256
   \   00000010   D43F83B2           ADDLT    R3,R3,#+848
     15              *ws++=c;
   \                     ??win12512unicode_3:
   \   00000014   ........           STRH     R3,[R0], #+2
   \                     ??win12512unicode_1:
   \   00000018   ........           LDRB     R3,[R1], #+1
   \   0000001C   000053E3           CMP      R3,#+0
   \   00000020   1900000A           BEQ      ??win12512unicode_4
   \   00000024   02C0A0E1           MOV      R12,R2
   \   00000028   01204CE2           SUB      R2,R12,#+1
   \   0000002C   01005CE3           CMP      R12,#+1
   \   00000030   150000BA           BLT      ??win12512unicode_4
   \   00000034   A80053E3           CMP      R3,#+168
   \   00000038   0200001A           BNE      ??win12512unicode_5
   \   0000003C   0130A0E3           MOV      R3,#+1
   \                     ??win12512unicode_6:
   \   00000040   403E83E3           ORR      R3,R3,#0x400
   \   00000044   F2FFFFEA           B        ??win12512unicode_3
   \                     ??win12512unicode_5:
   \   00000048   AA0053E3           CMP      R3,#+170
   \   0000004C   0430A003           MOVEQ    R3,#+4
   \   00000050   FAFFFF0A           BEQ      ??win12512unicode_6
   \   00000054   AF0053E3           CMP      R3,#+175
   \   00000058   0100001A           BNE      ??win12512unicode_7
   \   0000005C   0730A0E3           MOV      R3,#+7
   \                     ??win12512unicode_8:
   \   00000060   F6FFFFEA           B        ??win12512unicode_6
   \                     ??win12512unicode_7:
   \   00000064   B80053E3           CMP      R3,#+184
   \   00000068   5130A003           MOVEQ    R3,#+81
   \   0000006C   F3FFFF0A           BEQ      ??win12512unicode_6
   \   00000070   BA0053E3           CMP      R3,#+186
   \   00000074   5430A003           MOVEQ    R3,#+84
   \   00000078   F0FFFF0A           BEQ      ??win12512unicode_6
   \   0000007C   BF0053E3           CMP      R3,#+191
   \   00000080   DFFFFF1A           BNE      ??win12512unicode_2
   \   00000084   5730A0E3           MOV      R3,#+87
   \   00000088   ECFFFFEA           B        ??win12512unicode_6
     16            }
     17            *ws=0;
   \                     ??win12512unicode_4:
   \   0000008C   0010A0E3           MOV      R1,#+0
   \   00000090   B010C0E1           STRH     R1,[R0, #+0]
     18          }
   \   00000094   1EFF2FE1           BX       LR               ;; return
     19          

   \                                 In segment DATA_C, align 4, align-sorted
     20          const char wintranslation[128] =
     21          {
     22          	0x5F,0x5F,0x27,0x5F,0x22,0x3A,0xC5,0xD8,0x5F,0x25,0x5F,0x3C,0x5F,0x5F,0x5F,0x5F,
     23          	0x5F,0x27,0x27,0x22,0x22,0x07,0x2D,0x2D,0x5F,0x54,0x5F,0x3E,0x5F,0x5F,0x5F,0x5F,
     24          	0xFF,0xF6,0xF7,0x5F,0xFD,0x83,0xB3,0x15,0xF0,0x63,0xF2,0x3C,0xBF,0x2D,0x52,0xF4,
     25          	0xF8,0x2B,'I' ,'i' ,0xA3,0xE7,0x14,0xFA,0xF1,0xFC,0xF3,0x3E,0x5F,0x5F,0x5F,0xF5,
     26          	0x80,0x81,0x82,0x83,0x84,0x85,0x86,0x87,0x88,0x89,0x8A,0x8B,0x8C,0x8D,0x8E,0x8F,
     27          	0x90,0x91,0x92,0x93,0x94,0x95,0x96,0x97,0x98,0x99,0x9A,0x9B,0x9C,0x9D,0x9E,0x9F,
     28          	0xA0,0xA1,0xA2,0xA3,0xA4,0xA5,0xA6,0xA7,0xA8,0xA9,0xAA,0xAB,0xAC,0xAD,0xAE,0xAF,
     29          	0xE0,0xE1,0xE2,0xE3,0xE4,0xE5,0xE6,0xE7,0xE8,0xE9,0xEA,0xEB,0xEC,0xED,0xEE,0xEF
     30          };
     31          
     32          const char koi8translation[128] =
     33          {
     34          	0x5F,0x5F,0x27,0x5F,0x22,0x3A,0xC5,0xD8,0x5F,0x25,0x5F,0x3C,0x5F,0x5F,0x5F,0x5F,
     35          	0x5F,0x27,0x27,0x22,0x22,0x07,0x2D,0x2D,0x5F,0x54,0x5F,0x3E,0x5F,0x5F,0x5F,0x5F,
     36          	0xFF,0xF6,0xF7,0xF1,0xF3,0x5F,'i' ,0xF5,0xF0,0x63,0xF2,0x3C,0xBF,0xA3,0x52,0xF4,
     37          	0xF8,0x2B,0x5F,0xF0,0xF2,0xE7,'I' ,0xF4,0xF1,0xFC,0xF3,0x3E,0x5F,0x83,0x5F,0xF5,
     38          
     39          	0xEE,0xA0,0xA1,0xE6,0xA4,0xA5,0xE4,0xA3,0xE5,0xA8,0xA9,0xAA,0xAB,0xAC,0xAD,0xAE,
     40          	0xAF,0xEF,0xE0,0xE1,0xE2,0xE3,0xA6,0xA2,0xEC,0xEB,0xA7,0xE8,0xED,0xE9,0xE7,0xEA,
     41          	0x9E,0x80,0x81,0x96,0x84,0x85,0x94,0x83,0x95,0x88,0x89,0x8A,0x8B,0x8C,0x8D,0x8E,
     42          	0x8F,0x9F,0x90,0x91,0x92,0x93,0x86,0x82,0x9C,0x9B,0x87,0x98,0x9D,0x99,0x97,0x9A
     43          };
     44          
     45          const unsigned short dos2unicode[128] =
   \                     dos2unicode:
   \   00000000   100411041204       DC16 1040, 1041, 1042, 1043, 1044, 1045, 1046, 1047, 1048, 1049, 1050
   \              130414041504
   \              160417041804
   \              19041A04    
   \   00000016   1B041C041D04       DC16 1051, 1052, 1053, 1054, 1055, 1056, 1057, 1058, 1059, 1060, 1061
   \              1E041F042004
   \              210422042304
   \              24042504    
   \   0000002C   260427042804       DC16 1062, 1063, 1064, 1065, 1066, 1067, 1068, 1069, 1070, 1071, 1072
   \              29042A042B04
   \              2C042D042E04
   \              2F043004    
   \   00000042   310432043304       DC16 1073, 1074, 1075, 1076, 1077, 1078, 1079, 1080, 1081, 1082, 1083
   \              340435043604
   \              370438043904
   \              3A043B04    
   \   00000058   3C043D043E04       DC16 1084, 1085, 1086, 1087, 45, 45, 45, 166, 43, 166, 166, 172, 172
   \              3F042D002D00
   \              2D00A6002B00
   \              A600A600AC00
   \              AC00        
   \   00000072   A600A600AC00       DC16 166, 166, 172, 45, 45, 45, 172, 76, 43, 84, 43, 45, 43, 166, 166
   \              2D002D002D00
   \              AC004C002B00
   \              54002B002D00
   \              2B00A600A600
   \   00000090   4C003304A600       DC16 76, 1075, 166, 84, 166, 61, 43, 166, 166, 84, 84, 76, 76, 45, 1075
   \              5400A6003D00
   \              2B00A600A600
   \              540054004C00
   \              4C002D003304
   \   000000AE   2B002B002D00       DC16 43, 43, 45, 45, 45, 45, 166, 166, 45, 1088, 1089, 1090, 1091, 1092
   \              2D002D002D00
   \              A600A6002D00
   \              400441044204
   \              43044404    
   \   000000CA   450446044704       DC16 1093, 1094, 1095, 1096, 1097, 1098, 1099, 1100, 1101, 1102, 1103
   \              480449044A04
   \              4B044C044D04
   \              4E044F04    
   \   000000E0   010451040404       DC16 1025, 1105, 1028, 1108, 1031, 1111, 1038, 1118, 176, 8226, 183
   \              540407045704
   \              0E045E04B000
   \              2220B700    
   \   000000F6   76001621A400       DC16 118, 8470, 164, 166, 160
   \              A600A000    
   \   00000100   5F5F275F223A       DC8 95, 95, 39, 95, 34, 58, 197, 216, 95, 37, 95, 60, 95, 95, 95, 95
   \              C5D85F255F3C
   \              5F5F5F5F    
   \   00000110   5F2727222207       DC8 95, 39, 39, 34, 34, 7, 45, 45, 95, 84, 95, 62, 95, 95, 95, 95, 255
   \              2D2D5F545F3E
   \              5F5F5F5FFF  
   \   00000121   F6F75FFD83B3       DC8 246, 247, 95, 253, 131, 179, 21, 240, 99, 242, 60, 191, 45, 82, 244
   \              15F063F23CBF
   \              2D52F4      
   \   00000130   F82B4969A3E7       DC8 248, 43, 73, 105, 163, 231, 20, 250, 241, 252, 243, 62, 95, 95, 95
   \              14FAF1FCF33E
   \              5F5F5F      
   \   0000013F   F58081828384       DC8 245, 128, 129, 130, 131, 132, 133, 134, 135, 136, 137, 138, 139
   \              85868788898A
   \              8B          
   \   0000014C   8C8D8E8F9091       DC8 140, 141, 142, 143, 144, 145, 146, 147, 148, 149, 150, 151, 152
   \              929394959697
   \              98          
   \   00000159   999A9B9C9D9E       DC8 153, 154, 155, 156, 157, 158, 159, 160, 161, 162, 163, 164, 165
   \              9FA0A1A2A3A4
   \              A5          
   \   00000166   A6A7A8A9AAAB       DC8 166, 167, 168, 169, 170, 171, 172, 173, 174, 175, 224, 225, 226
   \              ACADAEAFE0E1
   \              E2          
   \   00000173   E3E4E5E6E7E8       DC8 227, 228, 229, 230, 231, 232, 233, 234, 235, 236, 237, 238, 239
   \              E9EAEBECEDEE
   \              EF          
   \   00000180   5F5F275F223A       DC8 95, 95, 39, 95, 34, 58, 197, 216, 95, 37, 95, 60, 95, 95, 95, 95
   \              C5D85F255F3C
   \              5F5F5F5F    
   \   00000190   5F2727222207       DC8 95, 39, 39, 34, 34, 7, 45, 45, 95, 84, 95, 62, 95, 95, 95, 95, 255
   \              2D2D5F545F3E
   \              5F5F5F5FFF  
   \   000001A1   F6F7F1F35F69       DC8 246, 247, 241, 243, 95, 105, 245, 240, 99, 242, 60, 191, 163, 82
   \              F5F063F23CBF
   \              A352        
   \   000001AF   F4F82B5FF0F2       DC8 244, 248, 43, 95, 240, 242, 231, 73, 244, 241, 252, 243, 62, 95
   \              E749F4F1FCF3
   \              3E5F        
   \   000001BD   835FF5EEA0A1       DC8 131, 95, 245, 238, 160, 161, 230, 164, 165, 228, 163, 229, 168, 169
   \              E6A4A5E4A3E5
   \              A8A9        
   \   000001CB   AAABACADAEAF       DC8 170, 171, 172, 173, 174, 175, 239, 224, 225, 226, 227, 166, 162
   \              EFE0E1E2E3A6
   \              A2          
   \   000001D8   ECEBA7E8EDE9       DC8 236, 235, 167, 232, 237, 233, 231, 234, 158, 128, 129, 150, 132
   \              E7EA9E808196
   \              84          
   \   000001E5   859483958889       DC8 133, 148, 131, 149, 136, 137, 138, 139, 140, 141, 142, 143, 159
   \              8A8B8C8D8E8F
   \              9F          
   \   000001F2   909192938682       DC8 144, 145, 146, 147, 134, 130, 156, 155, 135, 152, 157, 153, 151
   \              9C9B87989D99
   \              97          
   \   000001FF   9A                 DC8 154
     46          {
     47          	0x0410,0x0411,0x0412,0x0413,0x0414,0x0415,0x0416,0x0417,
     48          	0x0418,0x0419,0x041A,0x041B,0x041C,0x041D,0x041E,0x041F,
     49          	0x0420,0x0421,0x0422,0x0423,0x0424,0x0425,0x0426,0x0427,
     50          	0x0428,0x0429,0x042A,0x042B,0x042C,0x042D,0x042E,0x042F,
     51          	0x0430,0x0431,0x0432,0x0433,0x0434,0x0435,0x0436,0x0437,
     52          	0x0438,0x0439,0x043A,0x043B,0x043C,0x043D,0x043E,0x043F,
     53          	0x002D,0x002D,0x002D,0x00A6,0x002B,0x00A6,0x00A6,0x00AC,
     54          	0x00AC,0x00A6,0x00A6,0x00AC,0x002D,0x002D,0x002D,0x00AC,
     55          	0x004C,0x002B,0x0054,0x002B,0x002D,0x002B,0x00A6,0x00A6,
     56          	0x004C,0x0433,0x00A6,0x0054,0x00A6,0x003D,0x002B,0x00A6,
     57          	0x00A6,0x0054,0x0054,0x004C,0x004C,0x002D,0x0433,0x002B,
     58          	0x002B,0x002D,0x002D,0x002D,0x002D,0x00A6,0x00A6,0x002D,
     59          	0x0440,0x0441,0x0442,0x0443,0x0444,0x0445,0x0446,0x0447,
     60          	0x0448,0x0449,0x044A,0x044B,0x044C,0x044D,0x044E,0x044F,
     61          	0x0401,0x0451,0x0404,0x0454,0x0407,0x0457,0x040E,0x045E,
     62          	0x00B0,0x2022,0x00B7,0x0076,0x2116,0x00A4,0x00A6,0x00A0
     63          };
     64          

   \                                 In segment CODE, align 4, keep-with-next
     65          unsigned int char8to16(int c, int type)
     66          {
     67            if (c>=128)
   \                     ??char8to16:
   \   00000000   800050E3           CMP      R0,#+128
   \   00000004   1EFF2FB1           BXLT     LR
     68            {
     69              switch(type)
   \   00000008   011051E2           SUBS     R1,R1,#+1
   \   0000000C   0400000A           BEQ      ??char8to16_1
   \   00000010   011051E2           SUBS     R1,R1,#+1
   \   00000014   30109F05           LDREQ    R1,??char8to16_2  ;; dos2unicode
   \   00000018   01008000           ADDEQ    R0,R0,R1
   \   0000001C   0001D005           LDRBEQ   R0,[R0, #+256]
   \   00000020   020000EA           B        ??char8to16_3
     70              {
     71              case 1:
     72                //Win->Dos
     73                c = wintranslation[c-128];
   \                     ??char8to16_1:
   \   00000024   20109FE5           LDR      R1,??char8to16_2  ;; dos2unicode
   \   00000028   010080E0           ADD      R0,R0,R1
   \   0000002C   8000D0E5           LDRB     R0,[R0, #+128]
     74                break;
     75              case 2:
     76                //Koi8->Dos
     77                c = koi8translation[c-128];
     78                break;
     79              case 3:
     80                break;
     81                //Dos
     82              }
     83              if (c < 128) return(c);
   \                     ??char8to16_3:
   \   00000030   800050E3           CMP      R0,#+128
   \   00000034   1EFF2FB1           BXLT     LR
     84              return(dos2unicode[c - 128]);
   \   00000038   0C209FE5           LDR      R2,??char8to16_2  ;; dos2unicode
   \   0000003C   FF10E0E3           MVN      R1,#+255
   \   00000040   800082E0           ADD      R0,R2,R0, LSL #+1
   \   00000044   B00091E1           LDRH     R0,[R1, +R0]
     85            }
     86            return(c);
   \   00000048   1EFF2FE1           BX       LR               ;; return
   \                     ??char8to16_2:
   \   0000004C   ........           DC32     dos2unicode
     87          }
     88          

   \                                 In segment CODE, align 4, keep-with-next
     89          void dos2utf16(wchar_t *ws, const char* s)
     90          {
   \                     ??dos2utf16:
   \   00000000   30402DE9           PUSH     {R4,R5,LR}
   \   00000004   0040A0E1           MOV      R4,R0
   \   00000008   0150A0E1           MOV      R5,R1
   \   0000000C   020000EA           B        ??dos2utf16_1
     91            int c;
     92            while((c=*s++))
     93            {
     94              *ws++=char8to16(c, 3);
   \                     ??dos2utf16_2:
   \   00000010   0310A0E3           MOV      R1,#+3
   \   00000014   ........           BL       ??char8to16
   \   00000018   ........           STRH     R0,[R4], #+2
     95            }
   \                     ??dos2utf16_1:
   \   0000001C   ........           LDRB     R0,[R5], #+1
   \   00000020   000050E3           CMP      R0,#+0
   \   00000024   F9FFFF1A           BNE      ??dos2utf16_2
     96            *ws=0;
   \   00000028   B000C4E1           STRH     R0,[R4, #+0]
     97          }
   \   0000002C   3080BDE8           POP      {R4,R5,PC}       ;; return
     98          
     99          // Готовимся к отказу от ANSI вообще. Пока не используется, скоро, наверное, будет...
    100          
    101          /* UTF-8 to UTF-16 conversion.  Surrogates are handeled properly, e.g.
    102           * a single 4-byte UTF-8 character is encoded into a surrogate pair.
    103           * On the other hand, if the UTF-8 string contains surrogate values, this
    104           * is considered an error and returned as such.
    105           *
    106           * The destination array must be able to hold as many Unicode-16 characters
    107           * as there are ASCII characters in the UTF-8 string.  This in case all UTF-8
    108           * characters are ASCII characters.  No more will be needed.
    109           *
    110           * Copyright (c) 2000 Morten Rolland, Screen Media
    111           */
    112          
    113          
    114          

   \                                 In segment CODE, align 4, keep-with-next
    115          int utf8_to_utf16(char *utf8, int cc, wchar_t *unicode16)
    116          {
   \                     ??utf8_to_utf16:
   \   00000000   70002DE9           PUSH     {R4-R6}
    117            int count = 0;
   \   00000004   0030A0E3           MOV      R3,#+0
   \   00000008   020000EA           B        ??utf8_to_utf16_1
    118            unsigned char c0, c1;
    119            unsigned long scalar;
    120            
    121            while(--cc >= 0) {
    122              c0 = *utf8++;
    123              
    124              if ( c0 < 0x80 ) {
    125                /* Plain ASCII character, simple translation :-) */
    126                if (unicode16) *unicode16++ = c0;
   \                     ??utf8_to_utf16_2:
   \   0000000C   000052E3           CMP      R2,#+0
   \   00000010   ........           STRHNE   R12,[R2], #+2
    127                count++;
   \                     ??utf8_to_utf16_3:
   \   00000014   013083E2           ADD      R3,R3,#+1
    128                continue;
    129              }
   \                     ??utf8_to_utf16_1:
   \   00000018   011051E2           SUBS     R1,R1,#+1
   \   0000001C   4A00004A           BMI      ??utf8_to_utf16_4
   \   00000020   ........           LDRB     R12,[R0], #+1
   \   00000024   80005CE3           CMP      R12,#+128
   \   00000028   F7FFFF3A           BCC      ??utf8_to_utf16_2
    130              
    131              if ( (c0 & 0xc0) == 0x80 )
   \   0000002C   C0400CE2           AND      R4,R12,#0xC0
   \   00000030   800054E3           CMP      R4,#+128
   \   00000034   0200001A           BNE      ??utf8_to_utf16_5
    132                /* Illegal; starts with 10xxxxxx */
    133                return -1;
   \                     ??utf8_to_utf16_6:
   \   00000038   7000BDE8           POP      {R4-R6}
   \   0000003C   0000E0E3           MVN      R0,#+0
   \   00000040   1EFF2FE1           BX       LR
    134              
    135              /* c0 must be 11xxxxxx if we get here => at least 2 bytes */
    136              scalar = c0;
    137              if(--cc < 0)
   \                     ??utf8_to_utf16_5:
   \   00000044   011051E2           SUBS     R1,R1,#+1
   \   00000048   FAFFFF4A           BMI      ??utf8_to_utf16_6
    138                return -1;
    139              
    140              c1 = *utf8++;
   \   0000004C   ........           LDRB     R5,[R0], #+1
    141              
    142              if ( (c1 & 0xc0) != 0x80 )
   \   00000050   C06005E2           AND      R6,R5,#0xC0
   \   00000054   800056E3           CMP      R6,#+128
   \   00000058   F6FFFF1A           BNE      ??utf8_to_utf16_6
    143                /* Bad byte */
    144                return -1;
    145              
    146              scalar <<= 6;
    147              scalar |= (c1 & 0x3f);
   \   0000005C   3F5005E2           AND      R5,R5,#0x3F
   \   00000060   0C4385E1           ORR      R4,R5,R12, LSL #+6
    148              
    149              if ( !(c0 & 0x20) ) {
   \   00000064   20001CE3           TST      R12,#0x20
   \   00000068   0700001A           BNE      ??utf8_to_utf16_7
    150                /* Two bytes UTF-8 */
    151                if ( scalar < 0x80 )
   \   0000006C   800054E3           CMP      R4,#+128
   \   00000070   F0FFFF3A           BCC      ??utf8_to_utf16_6
    152                  return -1;	/* Overlong encoding */
    153                if (unicode16) *unicode16++ = scalar & 0x7ff;
   \   00000074   000052E3           CMP      R2,#+0
   \   00000078   E5FFFF0A           BEQ      ??utf8_to_utf16_3
   \   0000007C   844AA0E1           LSL      R4,R4,#+21
   \   00000080   A44AA0E1           LSR      R4,R4,#+21
   \                     ??utf8_to_utf16_8:
   \   00000084   ........           STRH     R4,[R2], #+2
   \   00000088   E1FFFFEA           B        ??utf8_to_utf16_3
    154                count++;
    155                continue;
    156              }
    157              
    158              /* c0 must be 111xxxxx if we get here => at least 3 bytes */
    159              if(--cc < 0)
   \                     ??utf8_to_utf16_7:
   \   0000008C   011051E2           SUBS     R1,R1,#+1
   \   00000090   E8FFFF4A           BMI      ??utf8_to_utf16_6
    160                return -1;
    161              
    162              c1 = *utf8++;
   \   00000094   ........           LDRB     R5,[R0], #+1
    163              if ( (c1 & 0xc0) != 0x80 )
   \   00000098   C06005E2           AND      R6,R5,#0xC0
   \   0000009C   800056E3           CMP      R6,#+128
   \   000000A0   E4FFFF1A           BNE      ??utf8_to_utf16_6
    164                /* Bad byte */
    165                return -1;
    166              
    167              scalar <<= 6;
    168              scalar |= (c1 & 0x3f);
   \   000000A4   3F5005E2           AND      R5,R5,#0x3F
   \   000000A8   044385E1           ORR      R4,R5,R4, LSL #+6
    169              
    170              if ( !(c0 & 0x10) ) {
   \   000000AC   10001CE3           TST      R12,#0x10
   \   000000B0   0800001A           BNE      ??utf8_to_utf16_9
    171                /* Three bytes UTF-8 */
    172                if ( scalar < 0x800 )
   \   000000B4   800E54E3           CMP      R4,#+2048
   \   000000B8   DEFFFF3A           BCC      ??utf8_to_utf16_6
    173                  return -1;	/* Overlong encoding */
    174                if ( scalar >= 0xd800 && scalar < 0xe000 )
   \   000000BC   D80C54E3           CMP      R4,#+55296
   \   000000C0   0100003A           BCC      ??utf8_to_utf16_10
   \   000000C4   E00C54E3           CMP      R4,#+57344
   \   000000C8   DAFFFF3A           BCC      ??utf8_to_utf16_6
    175                  return -1;	/* UTF-16 high/low halfs */
    176                if (unicode16) *unicode16++ = scalar & 0xffff;
   \                     ??utf8_to_utf16_10:
   \   000000CC   000052E3           CMP      R2,#+0
   \   000000D0   CFFFFF0A           BEQ      ??utf8_to_utf16_3
   \   000000D4   EAFFFFEA           B        ??utf8_to_utf16_8
    177                count++;
    178                continue;
    179              }
    180              
    181              /* c0 must be 1111xxxx if we get here => at least 4 bytes */
    182              
    183              c1 = *utf8++;
   \                     ??utf8_to_utf16_9:
   \   000000D8   ........           LDRB     R5,[R0], #+1
    184              if(--cc < 0)
   \   000000DC   011051E2           SUBS     R1,R1,#+1
   \   000000E0   D4FFFF4A           BMI      ??utf8_to_utf16_6
    185                return -1;
    186              
    187              if ( (c1 & 0xc0) != 0x80 )
   \   000000E4   C06005E2           AND      R6,R5,#0xC0
   \   000000E8   800056E3           CMP      R6,#+128
   \   000000EC   D1FFFF1A           BNE      ??utf8_to_utf16_6
    188                /* Bad byte */
    189                return -1;
    190              
    191              scalar <<= 6;
    192              scalar |= (c1 & 0x3f);
   \   000000F0   3F5005E2           AND      R5,R5,#0x3F
   \   000000F4   044385E1           ORR      R4,R5,R4, LSL #+6
    193              
    194              if ( !(c0 & 0x08) ) {
   \   000000F8   08001CE3           TST      R12,#0x8
   \   000000FC   CDFFFF1A           BNE      ??utf8_to_utf16_6
    195                /* Four bytes UTF-8, needs encoding as surrogates */
    196                if ( scalar < 0x10000 )
   \   00000100   400B54E3           CMP      R4,#+65536
   \   00000104   CBFFFF3A           BCC      ??utf8_to_utf16_6
    197                  return -1;	/* Overlong encoding */
    198                scalar -= 0x10000;
   \   00000108   FF54A0E3           MOV      R5,#-16777216
   \   0000010C   FF5885E3           ORR      R5,R5,#0xFF0000
   \   00000110   044085E0           ADD      R4,R5,R4
    199                if (unicode16) *unicode16++ = ((scalar >> 10) & 0x3ff) + 0xd800;
   \   00000114   000052E3           CMP      R2,#+0
   \   00000118   0300000A           BEQ      ??utf8_to_utf16_11
   \   0000011C   0456A0E1           LSL      R5,R4,#+12
   \   00000120   D86CA0E3           MOV      R6,#+55296
   \   00000124   255B86E0           ADD      R5,R6,R5, LSR #+22
   \   00000128   ........           STRH     R5,[R2], #+2
    200                if (unicode16) *unicode16++ = (scalar & 0x3ff) + 0xdc00;
   \                     ??utf8_to_utf16_11:
   \   0000012C   000052E3           CMP      R2,#+0
   \   00000130   0300000A           BEQ      ??utf8_to_utf16_12
   \   00000134   044BA0E1           LSL      R4,R4,#+22
   \   00000138   DC5CA0E3           MOV      R5,#+56320
   \   0000013C   244B85E0           ADD      R4,R5,R4, LSR #+22
   \   00000140   ........           STRH     R4,[R2], #+2
    201                count += 2;
   \                     ??utf8_to_utf16_12:
   \   00000144   023083E2           ADD      R3,R3,#+2
    202                continue;
   \   00000148   B2FFFFEA           B        ??utf8_to_utf16_1
    203              }
    204              return -1;	/* No support for more than four byte UTF-8 */
    205            }
    206            return count;
   \                     ??utf8_to_utf16_4:
   \   0000014C   7000BDE8           POP      {R4-R6}
   \   00000150   0300A0E1           MOV      R0,R3
   \   00000154   1EFF2FE1           BX       LR               ;; return
    207          }
    208          

   Maximum stack usage in bytes:

     Function                       CSTACK
     --------                       ------
     char8to16(int, int)                0
     dos2utf16(wchar_t *, char const *)
                                       12
     utf8_to_utf16(char *, int, wchar_t *)
                                       12
     win12512unicode(wchar_t *, char const *, int)
                                        0


   Segment part sizes:

     Function/Label                 Bytes
     --------------                 -----
     win12512unicode(wchar_t *, char const *, int)
                                     152
     dos2unicode                     512
     char8to16(int, int)              80
     dos2utf16(wchar_t *, char const *)
                                      48
     utf8_to_utf16(char *, int, wchar_t *)
                                     344
      Others                          16

 
 640 bytes in segment CODE
 512 bytes in segment DATA_C
 
 624 bytes of CODE  memory (+ 16 bytes shared)
 512 bytes of CONST memory

Errors: none
Warnings: none
