##############################################################################
#                                                                            #
# IAR ARM ANSI C/C++ Compiler V4.42A/W32 EVALUATION    10/Jun/2013  22:47:34 #
# Copyright 1999-2005 IAR Systems. All rights reserved.                      #
#                                                                            #
#    Cpu mode        =  interwork                                            #
#    Endian          =  little                                               #
#    Stack alignment =  4                                                    #
#    Source file     =  Z:\home\perk11\www\perk11.info\svn\SE\mcse\krnl.cpp  #
#    Command line    =  Z:\home\perk11\www\perk11.info\svn\SE\mcse\krnl.cpp  #
#                       -D NDEBUG -D USEZLIB -D OLDFUNCTIONS -lCN            #
#                       Z:\home\perk11\www\perk11.info\svn\SE\mcse\Release\L #
#                       ist\ -la Z:\home\perk11\www\perk11.info\svn\SE\mcse\ #
#                       Release\List\ -o Z:\home\perk11\www\perk11.info\svn\ #
#                       SE\mcse\Release\Obj\ -s9 --no_unroll                 #
#                       --no_code_motion --cpu_mode arm --endian little      #
#                       --cpu ARM926EJ-S --stack_align 4 --interwork -e      #
#                       --enable_multibytes --fpu None --eec++               #
#                       --dlib_config Z:\home\perk11\IAR2\arm\LIB\dl5tpainl8 #
#                       n.h --preinclude Z:\home\perk11\www\perk11.info\svn\ #
#                       SE\mcse\..\deleaker\mem2.h -I                        #
#                       Z:\home\perk11\IAR2\arm\INC\ --inline_threshold=2    #
#    List file       =  Z:\home\perk11\www\perk11.info\svn\SE\mcse\Release\L #
#                       ist\krnl.lst                                         #
#    Object file     =  Z:\home\perk11\www\perk11.info\svn\SE\mcse\Release\O #
#                       bj\krnl.r79                                          #
#                                                                            #
#                                                                            #
##############################################################################

Z:\home\perk11\www\perk11.info\svn\SE\mcse\krnl.cpp
      1          #include "..\\include\Dir.h"
      2          #include "inc\mc.h"
      3          #include "inc\lng.h"
      4          #include "inc\zslib.h"
      5          #include "inc\krnl.h"
      6          #include "inc\exts.h"
      7          #include "inc\gui.h"
      8          #include "inc\7zslib.h"
      9          #include "inc\menus.h"
     10          #include "inc\ColorMap.h"
     11          #include "inc\mui.h"
     12          #include "inc\bookmarks.h"
     13          #include "inc\file_op.h"
     14          
     15          wchar_t msgbuf[256];
     16          wchar_t mcpath[MAX_PATH];
     17          wchar_t pathbuf[MAX_PATH];
     18          wchar_t arcpathbuf[MAX_PATH];
     19          wchar_t szLastNewFile[MAX_PATH];
     20          wchar_t szLastNewDir[MAX_PATH];
     21          wchar_t wsbuf[MAX_PATH*2];
     22          int back_tab;
     23          

   \                                 In segment DATA_C, align 4, align-sorted
     24          const wchar_t def_filter[] = L"*.*";
   \                     def_filter:
   \   00000000   2A002E002A00       DC8 2AH, 0, 2EH, 0, 2AH, 0, 0, 0
   \              0000        
     25          
     26          int progr_stop  = 0;
     27          int progr_act   = 0;
     28          
     29          int progr_max   = 0;
     30          int progr_cur   = 0;
     31          int progr_start = 0;
     32          
     33          int progrsp_max = 0;
     34          int progrsp_cur = 0;
     35          int progrsp_start = 0;
     36          
     37          wchar_t in_open_path[MAX_PATH];
     38          
     39          
     40          
     41          
     42          
     43          DRVINFO Drives[MAX_DRV] = {
     44          	{NULL, L"",  0},
     45          	{NULL, L"",  0},
     46          	{NULL, L"",  0},
     47          };
     48          
     49          int curtab=0;
     50          TABINFO* tabs[MAX_TABS+1];
     51          FILEINF* FileListBase[MAX_TABS+1];
     52          
     53          

   \                                 In segment CODE, align 4, keep-with-next
     54          wchar_t* MCFilePath(const wchar_t* sfile)
     55          {
     56            snwprintf(pathbuf,MAXELEMS(pathbuf)-1, _ls_ls, mcpath, sfile);
   \                     ??MCFilePath:
   \   00000000   ........           LDR      R2,??DataTable42  ;; _ls_ls
   \   00000004   30402DE9           PUSH     {R4,R5,LR}
   \   00000008   ........           LDR      R5,??DataTable43  ;; ExitTimer
   \   0000000C   01002DE9           PUSH     {R0}
   \   00000010   7C40A0E3           MOV      R4,#+124
   \   00000014   604E84E3           ORR      R4,R4,#0x600
   \   00000018   FF10A0E3           MOV      R1,#+255
   \   0000001C   800FC4E3           BIC      R0,R4,#0x200
   \   00000020   053080E0           ADD      R3,R0,R5
   \   00000024   050084E0           ADD      R0,R4,R5
   \   00000028   150100EF           SWI      +277
     57            return pathbuf;
   \   0000002C   050084E0           ADD      R0,R4,R5
   \   00000030   3280BDE8           POP      {R1,R4,R5,PC}    ;; return
     58          }
     59          

   \                                 In segment CODE, align 4, keep-with-next
     60          void SetTabIndex(int tab, int num, int slide)
     61          {
     62            TABINFO *tmp = tabs[tab];
   \                     ??SetTabIndex:
   \   00000000   ........           LDR      R3,??DataTable43  ;; ExitTimer
   \   00000004   00402DE9           PUSH     {LR}
   \   00000008   000183E0           ADD      R0,R3,R0, LSL #+2
   \   0000000C   640290E5           LDR      R0,[R0, #+612]
     63            
     64            if (tmp->ccFiles == 0)
   \   00000010   F030D0E1           LDRSH    R3,[R0, #+0]
   \   00000014   000053E3           CMP      R3,#+0
     65            {
     66              num = -1;
   \   00000018   0010E003           MVNEQ    R1,#+0
   \   0000001C   0C00000A           BEQ      ??SetTabIndex_1
     67            }
     68            else
     69            {
     70              if (slide)
   \   00000020   000052E3           CMP      R2,#+0
   \   00000024   0500000A           BEQ      ??SetTabIndex_2
     71              {
     72                if ( num >= tmp->ccFiles) num = 0;
   \   00000028   030051E1           CMP      R1,R3
   \   0000002C   070000AA           BGE      ??SetTabIndex_3
     73                else if (num < 0) num = tmp->ccFiles - 1;
   \   00000030   000051E3           CMP      R1,#+0
   \   00000034   0600005A           BPL      ??SetTabIndex_1
   \                     ??SetTabIndex_4:
   \   00000038   011043E2           SUB      R1,R3,#+1
   \   0000003C   040000EA           B        ??SetTabIndex_1
     74              }
     75              else
     76              {
     77                if (num >= tmp->ccFiles) num = tmp->ccFiles - 1;
   \                     ??SetTabIndex_2:
   \   00000040   030051E1           CMP      R1,R3
   \   00000044   FBFFFFAA           BGE      ??SetTabIndex_4
     78                else if (num < 0) num = 0;
   \   00000048   000051E3           CMP      R1,#+0
   \   0000004C   0000005A           BPL      ??SetTabIndex_1
   \                     ??SetTabIndex_3:
   \   00000050   0010A0E3           MOV      R1,#+0
     79              }
     80            }
     81            tmp->iIndex[tmp->CurDrv] = num;
   \                     ??SetTabIndex_1:
   \   00000054   F420D0E1           LDRSH    R2,[R0, #+4]
   \   00000058   820080E0           ADD      R0,R0,R2, LSL #+1
   \   0000005C   B610C0E1           STRH     R1,[R0, #+6]
     82            DisableScroll();
   \   00000060   ........           _BLF     ??DisableScroll,??DisableScroll??rA
     83            RedrawGUI=1;
   \   00000064   ........           LDR      R0,??DataTable52  ;; RedrawGUI
   \   00000068   0110A0E3           MOV      R1,#+1
   \   0000006C   001080E5           STR      R1,[R0, #+0]
     84          }
   \   00000070   0080BDE8           POP      {PC}             ;; return
     85          

   \                                 In segment CODE, align 4, keep-with-next
     86          void SetCurTabIndex(int num, int slide)
     87          {
     88            SetTabIndex(curtab, num, slide);
   \                     ??SetCurTabIndex:
   \   00000000   0120A0E1           MOV      R2,R1
   \   00000004   0010A0E1           MOV      R1,R0
   \   00000008   ........           LDR      R0,??DataTable34  ;; ExitTimer + 608
   \   0000000C   000090E5           LDR      R0,[R0, #+0]
   \   00000010   ........           B        ??SetTabIndex    ;; tailcall
     89          }
     90          

   \                                 In segment CODE, align 4, keep-with-next
     91          int GetTabIndex(int tab)
   \                     ??GetTabIndex:
   \   00000000   ........           LDR      R1,??DataTable43  ;; ExitTimer
   \   00000004   000181E0           ADD      R0,R1,R0, LSL #+2
   \   00000008   640290E5           LDR      R0,[R0, #+612]
   \   0000000C   F410D0E1           LDRSH    R1,[R0, #+4]
   \   00000010   810080E0           ADD      R0,R0,R1, LSL #+1
   \   00000014   F600D0E1           LDRSH    R0,[R0, #+6]
   \   00000018   1EFF2FE1           BX       LR               ;; return
     92          {
     93            return tabs[tab]->iIndex[ tabs[tab]->CurDrv ];
     94          }
     95          

   \                                 In segment CODE, align 4, keep-with-next
     96          wchar_t* GetTabPath(int tab)
     97          {
   \                     ??GetTabPath:
   \   00000000   10402DE9           PUSH     {R4,LR}
   \   00000004   0040A0E1           MOV      R4,R0
     98            if (IsArchiveOpened(tab))
   \   00000008   ........           _BLF     ??IsArchiveOpened,??IsArchiveOpened??rA
   \   0000000C   000050E3           CMP      R0,#+0
   \   00000010   ........           LDR      R0,??DataTable43  ;; ExitTimer
   \   00000014   040180E0           ADD      R0,R0,R4, LSL #+2
   \   00000018   640290E5           LDR      R0,[R0, #+612]
     99              return tabs[tab]->zipInfo->szCurDir;
   \   0000001C   14089015           LDRNE    R0,[R0, #+2068]
   \   00000020   810F8012           ADDNE    R0,R0,#+516
   \   00000024   1080BD18           POPNE    {R4,PC}
   \   00000028   F410D0E1           LDRSH    R1,[R0, #+4]
   \   0000002C   810480E0           ADD      R0,R0,R1, LSL #+9
   \   00000030   120080E2           ADD      R0,R0,#+18
   \   00000034   1080BDE8           POP      {R4,PC}          ;; return
    100            else
    101              return tabs[tab]->szDirs[tabs[tab]->CurDrv];
    102          }
    103          

   \                                 In segment CODE, align 4, keep-with-next
    104          void FillFileInfo(FILEINF *file)
    105          {
   \                     ??FillFileInfo:
   \   00000000   30402DE9           PUSH     {R4,R5,LR}
   \   00000004   48DF4DE2           SUB      SP,SP,#+288
   \   00000008   0040B0E1           MOVS     R4,R0
    106            TEXTID str;
    107            if (!file || file->inited) return;
   \   0000000C   9E00000A           BEQ      ??FillFileInfo_1
   \   00000010   1C0094E5           LDR      R0,[R4, #+28]
   \   00000014   000050E3           CMP      R0,#+0
   \   00000018   9B00001A           BNE      ??FillFileInfo_1
    108            
    109            wchar_t buf[MAX_PATH/2];
    110            if (file->ws_attr==LGP_NULL)
   \   0000001C   2C0094E5           LDR      R0,[R4, #+44]
   \   00000020   9014E0E3           MVN      R1,#-1879048192
   \   00000024   010050E1           CMP      R0,R1
   \   00000028   0800001A           BNE      ??FillFileInfo_2
    111            {
    112              attr2s(file->attr, buf);
   \   0000002C   F800D4E1           LDRSH    R0,[R4, #+8]
   \   00000030   0D10A0E1           MOV      R1,SP
   \   00000034   ........           _BLF     ??attr2s,??attr2s??rA
    113              str=TextID_Create(buf,ENC_UCS2,TEXTID_ANY_LEN);
    114              file->ws_attr=str;
   \   00000038   FF20A0E3           MOV      R2,#+255
   \   0000003C   FF2C82E3           ORR      R2,R2,#0xFF00
   \   00000040   0010A0E3           MOV      R1,#+0
   \   00000044   0D00A0E1           MOV      R0,SP
   \   00000048   5D0100EF           SWI      +349
   \   0000004C   2C0084E5           STR      R0,[R4, #+44]
    115            }
    116            if (file->ws_size==LGP_NULL)
   \                     ??FillFileInfo_2:
   \   00000050   300094E5           LDR      R0,[R4, #+48]
   \   00000054   9014E0E3           MVN      R1,#-1879048192
   \   00000058   010050E1           CMP      R0,R1
   \   0000005C   0800001A           BNE      ??FillFileInfo_3
    117            {
    118              sz2s(file->size, buf);
   \   00000060   0C0094E5           LDR      R0,[R4, #+12]
   \   00000064   0D10A0E1           MOV      R1,SP
   \   00000068   ........           _BLF     ??sz2s,??sz2s??rA
    119              str=TextID_Create(buf,ENC_UCS2,TEXTID_ANY_LEN);
    120              file->ws_size=str;
   \   0000006C   FF20A0E3           MOV      R2,#+255
   \   00000070   FF2C82E3           ORR      R2,R2,#0xFF00
   \   00000074   0010A0E3           MOV      R1,#+0
   \   00000078   0D00A0E1           MOV      R0,SP
   \   0000007C   5D0100EF           SWI      +349
   \   00000080   300084E5           STR      R0,[R4, #+48]
    121            }
    122            if (file->ws_time==LGP_NULL)
   \                     ??FillFileInfo_3:
   \   00000084   340094E5           LDR      R0,[R4, #+52]
   \   00000088   9014E0E3           MVN      R1,#-1879048192
   \   0000008C   010050E1           CMP      R0,R1
   \   00000090   0800001A           BNE      ??FillFileInfo_4
    123            {
    124              unixt2s(file->time, buf);
   \   00000094   140094E5           LDR      R0,[R4, #+20]
   \   00000098   0D10A0E1           MOV      R1,SP
   \   0000009C   ........           _BLF     ??unixt2s,??unixt2s??rA
    125              str=TextID_Create(buf,ENC_UCS2,TEXTID_ANY_LEN);
    126              file->ws_time=str;
   \   000000A0   FF20A0E3           MOV      R2,#+255
   \   000000A4   FF2C82E3           ORR      R2,R2,#0xFF00
   \   000000A8   0010A0E3           MOV      R1,#+0
   \   000000AC   0D00A0E1           MOV      R0,SP
   \   000000B0   5D0100EF           SWI      +349
   \   000000B4   340084E5           STR      R0,[R4, #+52]
    127            }
    128            if (!file->icon)
   \                     ??FillFileInfo_4:
   \   000000B8   B802D4E1           LDRH     R0,[R4, #+40]
   \   000000BC   000050E3           CMP      R0,#+0
   \   000000C0   0300001A           BNE      ??FillFileInfo_5
    129            {
    130              file->icon = GetIcon(file->ws_name, file->attr);
   \   000000C4   200094E5           LDR      R0,[R4, #+32]
   \   000000C8   F810D4E1           LDRSH    R1,[R4, #+8]
   \   000000CC   ........           _BLF     ??GetIcon,??GetIcon??rA
   \   000000D0   B802C4E1           STRH     R0,[R4, #+40]
    131            }
    132            if (file->ftype == TYPE_ZIP_FILE && file->ws_ratio==LGP_NULL)
   \                     ??FillFileInfo_5:
   \   000000D4   040094E5           LDR      R0,[R4, #+4]
   \   000000D8   020050E3           CMP      R0,#+2
   \   000000DC   2200001A           BNE      ??FillFileInfo_6
   \   000000E0   380094E5           LDR      R0,[R4, #+56]
   \   000000E4   9014E0E3           MVN      R1,#-1879048192
   \   000000E8   010050E1           CMP      R0,R1
   \   000000EC   1E00001A           BNE      ??FillFileInfo_6
    133            {
    134              if (file->size && file->csize)
   \   000000F0   0C0094E5           LDR      R0,[R4, #+12]
   \   000000F4   000050E3           CMP      R0,#+0
   \   000000F8   10009415           LDRNE    R0,[R4, #+16]
   \   000000FC   00005013           CMPNE    R0,#+0
   \   00000100   1900000A           BEQ      ??FillFileInfo_6
    135              {
    136                char cbuf[32];
    137                float ratio = (float)file->csize * (float)100 / (float)file->size;
    138                sprintf(cbuf, "%.0f%%", ratio); // без цифр после точки
   \   00000104   ........           _BLF     __ulongToFloat,??__ulongToFloat??rA
   \   00000108   4014A0E3           MOV      R1,#+1073741824
   \   0000010C   B21781E3           ORR      R1,R1,#0x2C80000
   \   00000110   ........           _BLF     __fMul,??__fMul??rA
   \   00000114   0050A0E1           MOV      R5,R0
   \   00000118   0C0094E5           LDR      R0,[R4, #+12]
   \   0000011C   ........           _BLF     __ulongToFloat,??__ulongToFloat??rA
   \   00000120   0010A0E1           MOV      R1,R0
   \   00000124   0500A0E1           MOV      R0,R5
   \   00000128   ........           _BLF     __fDiv,??__fDiv??rA
   \   0000012C   ........           _BLF     __floatToDouble,??__floatToDouble??rA
   \   00000130   0020A0E1           MOV      R2,R0
   \   00000134   0130A0E1           MOV      R3,R1
   \   00000138   54119FE5           LDR      R1,??FillFileInfo_7  ;; `?<Constant "%.0f%%">`
   \   0000013C   400F8DE2           ADD      R0,SP,#+256
   \   00000140   140100EF           SWI      +276
    139                win12512unicode(buf,cbuf,MAXELEMS(buf));
   \   00000144   8020A0E3           MOV      R2,#+128
   \   00000148   401F8DE2           ADD      R1,SP,#+256
   \   0000014C   0D00A0E1           MOV      R0,SP
   \   00000150   ........           _BLF     ??win12512unicode,??win12512unicode??rA
    140                file->ws_ratio=TextID_Create(buf,ENC_UCS2,TEXTID_ANY_LEN);
   \   00000154   FF20A0E3           MOV      R2,#+255
   \   00000158   FF2C82E3           ORR      R2,R2,#0xFF00
   \   0000015C   0010A0E3           MOV      R1,#+0
   \   00000160   0D00A0E1           MOV      R0,SP
   \   00000164   5D0100EF           SWI      +349
   \   00000168   380084E5           STR      R0,[R4, #+56]
    141              }
    142            }
    143            wchar_t* sext = GetFileExt(file->ws_name);
   \                     ??FillFileInfo_6:
   \   0000016C   200094E5           LDR      R0,[R4, #+32]
   \   00000170   ........           _BLF     ??GetFileExt,??GetFileExt??rA
   \   00000174   0050B0E1           MOVS     R5,R0
    144            if (sext && !file->ws_showname && wstrcmpi(sext, mcbm_ext) == 0)
   \   00000178   1900000A           BEQ      ??FillFileInfo_8
   \   0000017C   240094E5           LDR      R0,[R4, #+36]
   \   00000180   000050E3           CMP      R0,#+0
   \   00000184   1600001A           BNE      ??FillFileInfo_8
   \   00000188   ........           LDR      R1,??DataTable7  ;; mcbm_ext
   \   0000018C   0500A0E1           MOV      R0,R5
   \   00000190   9F0200EF           SWI      +671
   \   00000194   000050E3           CMP      R0,#+0
   \   00000198   1100001A           BNE      ??FillFileInfo_8
    145            {
    146              // Откидываем расширение
    147              wstrcpy(buf, file->ws_name);
   \   0000019C   201094E5           LDR      R1,[R4, #+32]
   \   000001A0   0D00A0E1           MOV      R0,SP
   \   000001A4   520100EF           SWI      +338
    148              buf[sext - file->ws_name - 1] = '\0';
   \   000001A8   201094E5           LDR      R1,[R4, #+32]
   \   000001AC   A500A0E1           LSR      R0,R5,#+1
   \   000001B0   A10040E0           SUB      R0,R0,R1, LSR #+1
   \   000001B4   0D10A0E1           MOV      R1,SP
   \   000001B8   800081E0           ADD      R0,R1,R0, LSL #+1
   \   000001BC   0010A0E3           MOV      R1,#+0
   \   000001C0   B21040E1           STRH     R1,[R0, #-2]
    149              file->ws_showname = new wchar_t[wstrlen(buf) + 1];
   \   000001C4   0D00A0E1           MOV      R0,SP
   \   000001C8   570100EF           SWI      +343
   \   000001CC   010080E2           ADD      R0,R0,#+1
   \   000001D0   8000A0E1           LSL      R0,R0,#+1
   \   000001D4   ........           _BLF     `??operator new[]`,`??operator new[]??rA`
   \   000001D8   240084E5           STR      R0,[R4, #+36]
    150              wstrcpy(file->ws_showname,buf);
   \   000001DC   0D10A0E1           MOV      R1,SP
   \   000001E0   520100EF           SWI      +338
    151            }
    152            
    153            if (file->ws_short==LGP_NULL)
   \                     ??FillFileInfo_8:
   \   000001E4   3C0094E5           LDR      R0,[R4, #+60]
   \   000001E8   9014E0E3           MVN      R1,#-1879048192
   \   000001EC   010050E1           CMP      R0,R1
   \   000001F0   1600001A           BNE      ??FillFileInfo_9
    154            {
    155              wchar_t *ws;
    156              if (file->ws_showname) ws=file->ws_showname;
   \   000001F4   240094E5           LDR      R0,[R4, #+36]
   \   000001F8   000050E3           CMP      R0,#+0
    157              else ws=file->ws_name;
   \   000001FC   20509405           LDREQ    R5,[R4, #+32]
   \   00000200   0050A011           MOVNE    R5,R0
    158              file->uccnt = getLVC(ws, CONFIG_FONT_FILES);
   \   00000204   8C009FE5           LDR      R0,??FillFileInfo_7+0x4  ;; CONFIG_FONT_FILES
   \   00000208   001090E5           LDR      R1,[R0, #+0]
   \   0000020C   0500A0E1           MOV      R0,R5
   \   00000210   ........           _BLF     ??getLVC,??getLVC??rA
   \   00000214   180084E5           STR      R0,[R4, #+24]
    159              if (file->uccnt)
   \   00000218   000050E3           CMP      R0,#+0
   \   0000021C   0B00000A           BEQ      ??FillFileInfo_9
    160              {
    161                cutname(ws, buf, file->uccnt>MAX_PATH/2?MAX_PATH/2:file->uccnt);
   \   00000220   810050E3           CMP      R0,#+129
   \   00000224   8020A0A3           MOVGE    R2,#+128
   \   00000228   0020A0B1           MOVLT    R2,R0
   \   0000022C   0D10A0E1           MOV      R1,SP
   \   00000230   0500A0E1           MOV      R0,R5
   \   00000234   ........           _BLF     ??cutname,??cutname??rA
    162                file->ws_short=TextID_Create(buf,ENC_UCS2,TEXTID_ANY_LEN);
   \   00000238   FF20A0E3           MOV      R2,#+255
   \   0000023C   FF2C82E3           ORR      R2,R2,#0xFF00
   \   00000240   0010A0E3           MOV      R1,#+0
   \   00000244   0D00A0E1           MOV      R0,SP
   \   00000248   5D0100EF           SWI      +349
   \   0000024C   3C0084E5           STR      R0,[R4, #+60]
    163              }
    164            }
    165            wchar_t *ws;
    166            if (curtab == systab && file->ws_showname) ws=file->ws_showname;
   \                     ??FillFileInfo_9:
   \   00000250   ........           LDR      R0,??DataTable34  ;; ExitTimer + 608
   \   00000254   000090E5           LDR      R0,[R0, #+0]
   \   00000258   020050E3           CMP      R0,#+2
   \   0000025C   0200001A           BNE      ??FillFileInfo_10
   \   00000260   240094E5           LDR      R0,[R4, #+36]
   \   00000264   000050E3           CMP      R0,#+0
   \   00000268   0000001A           BNE      ??FillFileInfo_11
    167            else ws=file->ws_name;
   \                     ??FillFileInfo_10:
   \   0000026C   200094E5           LDR      R0,[R4, #+32]
    168            file->sid_name=TextID_Create(ws,ENC_UCS2,TEXTID_ANY_LEN);
   \                     ??FillFileInfo_11:
   \   00000270   FF20A0E3           MOV      R2,#+255
   \   00000274   FF2C82E3           ORR      R2,R2,#0xFF00
   \   00000278   0010A0E3           MOV      R1,#+0
   \   0000027C   5D0100EF           SWI      +349
   \   00000280   400084E5           STR      R0,[R4, #+64]
    169            file->inited = 1;
   \   00000284   0100A0E3           MOV      R0,#+1
   \   00000288   1C0084E5           STR      R0,[R4, #+28]
    170          }
   \                     ??FillFileInfo_1:
   \   0000028C   48DF8DE2           ADD      SP,SP,#+288      ;; stack cleaning
   \   00000290   3080BDE8           POP      {R4,R5,PC}       ;; return
   \                     ??FillFileInfo_7:
   \   00000294   ........           DC32     `?<Constant "%.0f%%">`
   \   00000298   ........           DC32     CONFIG_FONT_FILES
    171          

   \                                 In segment CODE, align 4, keep-with-next
    172          FILEINF* CreateFileInfo(int findex, const wchar_t* fpathOriginal,
    173          				unsigned int fsize, short fattr, unsigned int ftime,
    174          				int fcsize, int ftype)
    175          {
   \                     ??CreateFileInfo:
   \   00000000   F14F2DE9           PUSH     {R0,R4-R11,LR}
   \   00000004   28809DE5           LDR      R8,[SP, #+40]
   \   00000008   2C909DE5           LDR      R9,[SP, #+44]
   \   0000000C   30A09DE5           LDR      R10,[SP, #+48]
   \   00000010   0150A0E1           MOV      R5,R1
   \   00000014   0260A0E1           MOV      R6,R2
   \   00000018   0370A0E1           MOV      R7,R3
    176          	FILEINF *file = new FILEINF;
   \   0000001C   4800A0E3           MOV      R0,#+72
   \   00000020   ........           _BLF     `??operator new`,`??operator new??rA`
   \   00000024   0040A0E1           MOV      R4,R0
    177                  memset(file,0,sizeof(FILEINF));
   \   00000028   4820A0E3           MOV      R2,#+72
   \   0000002C   0010A0E3           MOV      R1,#+0
   \   00000030   120100EF           SWI      +274
    178                  
    179                  wchar_t *name=new wchar_t[wstrlen(fpathOriginal)+1];
   \   00000034   0500A0E1           MOV      R0,R5
   \   00000038   570100EF           SWI      +343
   \   0000003C   010080E2           ADD      R0,R0,#+1
   \   00000040   8000A0E1           LSL      R0,R0,#+1
   \   00000044   ........           _BLF     `??operator new[]`,`??operator new[]??rA`
   \   00000048   00B0A0E1           MOV      R11,R0
    180                  wstrcpy(name,fpathOriginal);
   \   0000004C   0510A0E1           MOV      R1,R5
   \   00000050   520100EF           SWI      +338
    181          
    182          	file->id		= findex;
   \   00000054   00009DE5           LDR      R0,[SP, #+0]
   \   00000058   B000C4E1           STRH     R0,[R4, #+0]
    183          	file->attr		= fattr;
   \   0000005C   B870C4E1           STRH     R7,[R4, #+8]
    184          	file->size		= fsize;
   \   00000060   0C6084E5           STR      R6,[R4, #+12]
    185          	file->time		= ftime;
   \   00000064   148084E5           STR      R8,[R4, #+20]
    186                  file->ws_name           = name;
   \   00000068   20B084E5           STR      R11,[R4, #+32]
    187          	file->csize		= fcsize;
   \   0000006C   109084E5           STR      R9,[R4, #+16]
    188          	file->ftype		= ftype;
   \   00000070   04A084E5           STR      R10,[R4, #+4]
    189                  
    190                  file->ws_attr=LGP_NULL;
   \   00000074   9004E0E3           MVN      R0,#-1879048192
   \   00000078   2C0084E5           STR      R0,[R4, #+44]
    191                  file->ws_size=LGP_NULL;
   \   0000007C   300084E5           STR      R0,[R4, #+48]
    192                  file->ws_time=LGP_NULL;
   \   00000080   340084E5           STR      R0,[R4, #+52]
    193                  file->ws_ratio=LGP_NULL;
   \   00000084   380084E5           STR      R0,[R4, #+56]
    194                  file->ws_short=LGP_NULL;
   \   00000088   3C0084E5           STR      R0,[R4, #+60]
    195                  file->sid_name=LGP_NULL;
   \   0000008C   400084E5           STR      R0,[R4, #+64]
    196          	return file;
   \   00000090   0400A0E1           MOV      R0,R4
   \   00000094   F28FBDE8           POP      {R1,R4-R11,PC}   ;; return
    197          }
    198          

   \                                 In segment CODE, align 4, keep-with-next
    199          void AddFile(int tab, int findex, const wchar_t *fname, unsigned int fsize, short fattr,
    200          				  unsigned int ftime, int fcsize, int ftype)
    201          {
   \                     ??AddFile:
   \   00000000   30402DE9           PUSH     {R4,R5,LR}
   \   00000004   10C09DE5           LDR      R12,[SP, #+16]
   \   00000008   14E09DE5           LDR      LR,[SP, #+20]
   \   0000000C   18509DE5           LDR      R5,[SP, #+24]
   \   00000010   0040A0E1           MOV      R4,R0
   \   00000014   0100A0E1           MOV      R0,R1
   \   00000018   0210A0E1           MOV      R1,R2
   \   0000001C   0320A0E1           MOV      R2,R3
   \   00000020   FC30DDE1           LDRSH    R3,[SP, #+12]
    202          	FILEINF *file = CreateFileInfo(findex, fname, fsize, fattr, ftime, fcsize, ftype);
   \   00000024   20002DE9           PUSH     {R5}
   \   00000028   00402DE9           PUSH     {LR}
   \   0000002C   00102DE9           PUSH     {R12}
   \   00000030   ........           BL       ??CreateFileInfo
   \   00000034   ........           LDR      R1,??DataTable43  ;; ExitTimer
   \   00000038   041181E0           ADD      R1,R1,R4, LSL #+2
   \   0000003C   701291E5           LDR      R1,[R1, #+624]
   \   00000040   442091E5           LDR      R2,[R1, #+68]
   \   00000044   442080E5           STR      R2,[R0, #+68]
    203          	file->next = FileListBase[tab]->next;
    204          	FileListBase[tab]->next = file;
   \   00000048   440081E5           STR      R0,[R1, #+68]
    205          }
   \   0000004C   3780BDE8           POP      {R0-R2,R4,R5,PC}  ;; return
    206          

   \                                 In segment CODE, align 4, keep-with-next
    207          void AddFileFromDE(int tab, int findex, const wchar_t *name, W_FSTAT *fs)
    208          {
   \                     ??AddFileFromDE:
   \   00000000   10402DE9           PUSH     {R4,LR}
   \   00000004   0040A0E1           MOV      R4,R0
   \   00000008   0100A0E1           MOV      R0,R1
   \   0000000C   0210A0E1           MOV      R1,R2
   \   00000010   0320A0E1           MOV      R2,R3
    209            AddFile(tab, findex, name , fs->st_size, fs->attr, fs->unk_0x1C, 0, fs->attr&FA_DIRECTORY ? TYPE_COMMON_DIR : TYPE_COMMON_FILE);
   \   00000014   003092E5           LDR      R3,[R2, #+0]
   \   00000018   400C13E3           TST      R3,#0x4000
   \   0000001C   0130A013           MOVNE    R3,#+1
   \   00000020   0030A003           MOVEQ    R3,#+0
   \   00000024   08002DE9           PUSH     {R3}
   \   00000028   0030A0E3           MOV      R3,#+0
   \   0000002C   08002DE9           PUSH     {R3}
   \   00000030   1C3092E5           LDR      R3,[R2, #+28]
   \   00000034   08002DE9           PUSH     {R3}
   \   00000038   003092E5           LDR      R3,[R2, #+0]
   \   0000003C   182092E5           LDR      R2,[R2, #+24]
   \   00000040   0338A0E1           MOV      R3,R3, LSL #+16
   \   00000044   4338A0E1           MOV      R3,R3, ASR #+16
   \   00000048   ........           BL       ??CreateFileInfo
   \   0000004C   ........           LDR      R1,??DataTable43  ;; ExitTimer
   \   00000050   041181E0           ADD      R1,R1,R4, LSL #+2
   \   00000054   701291E5           LDR      R1,[R1, #+624]
   \   00000058   442091E5           LDR      R2,[R1, #+68]
   \   0000005C   442080E5           STR      R2,[R0, #+68]
   \   00000060   440081E5           STR      R0,[R1, #+68]
    210          }
   \   00000064   1780BDE8           POP      {R0-R2,R4,PC}    ;; return
    211          
    212          

   \                                 In segment CODE, align 4, keep-with-next
    213          void FreeFileInfo(FILEINF* file)
    214          {
   \                     ??FreeFileInfo:
   \   00000000   10402DE9           PUSH     {R4,LR}
   \   00000004   0040B0E1           MOVS     R4,R0
    215            if (file)
   \   00000008   1080BD08           POPEQ    {R4,PC}
    216            {
    217              if (file->ws_name)	delete(file->ws_name);
   \   0000000C   200094E5           LDR      R0,[R4, #+32]
   \   00000010   000050E3           CMP      R0,#+0
   \   00000014   0000000A           BEQ      ??FreeFileInfo_1
   \   00000018   ........           _BLF     `??operator delete`,`??operator delete??rA`
    218              if (file->ws_showname) delete(file->ws_showname);
   \                     ??FreeFileInfo_1:
   \   0000001C   240094E5           LDR      R0,[R4, #+36]
   \   00000020   000050E3           CMP      R0,#+0
   \   00000024   0000000A           BEQ      ??FreeFileInfo_2
   \   00000028   ........           _BLF     `??operator delete`,`??operator delete??rA`
    219              TextID_Destroy(file->ws_attr);
   \                     ??FreeFileInfo_2:
   \   0000002C   2C0094E5           LDR      R0,[R4, #+44]
   \   00000030   610100EF           SWI      +353
    220              TextID_Destroy(file->ws_size);
   \   00000034   300094E5           LDR      R0,[R4, #+48]
   \   00000038   610100EF           SWI      +353
    221              TextID_Destroy(file->ws_time);
   \   0000003C   340094E5           LDR      R0,[R4, #+52]
   \   00000040   610100EF           SWI      +353
    222              TextID_Destroy(file->ws_ratio);
   \   00000044   380094E5           LDR      R0,[R4, #+56]
   \   00000048   610100EF           SWI      +353
    223              TextID_Destroy(file->ws_short);
   \   0000004C   3C0094E5           LDR      R0,[R4, #+60]
   \   00000050   610100EF           SWI      +353
    224              TextID_Destroy(file->sid_name);
   \   00000054   400094E5           LDR      R0,[R4, #+64]
   \   00000058   610100EF           SWI      +353
    225              delete (file);
   \   0000005C   0400A0E1           MOV      R0,R4
   \   00000060   ........           _BLF     `??operator delete`,`??operator delete??rA`
    226            }
    227          }
   \   00000064   1080BDE8           POP      {R4,PC}          ;; return
    228          

   \                                 In segment CODE, align 4, keep-with-next
    229          void DelFiles(int tab)
    230          {
   \                     ??DelFiles:
   \   00000000   30402DE9           PUSH     {R4,R5,LR}
   \   00000004   0040A0E1           MOV      R4,R0
    231            if (tabs[tab]->ccFiles)
   \   00000008   ........           LDR      R0,??DataTable43  ;; ExitTimer
   \   0000000C   040180E0           ADD      R0,R0,R4, LSL #+2
   \   00000010   640290E5           LDR      R0,[R0, #+612]
   \   00000014   F000D0E1           LDRSH    R0,[R0, #+0]
   \   00000018   000050E3           CMP      R0,#+0
   \   0000001C   0700001A           BNE      ??DelFiles_1
   \   00000020   3080BDE8           POP      {R4,R5,PC}
    232            {
    233              //scfile=NULL;
    234              while(FileListBase[tab]->next!=FileListBase[tab])
    235              {
    236                FILEINF *file = (FILEINF *) FileListBase[tab]->next;	// Второй элемент
    237                FileListBase[tab]->next = (FILEINF *) file->next;		// Следующий у FileListBase - на третий
   \                     ??DelFiles_2:
   \   00000024   442090E5           LDR      R2,[R0, #+68]
   \   00000028   442081E5           STR      R2,[R1, #+68]
    238                FreeFileInfo(file);
   \   0000002C   ........           BL       ??FreeFileInfo
    239                tabs[tab]->ccFiles--;
   \   00000030   640295E5           LDR      R0,[R5, #+612]
   \   00000034   F010D0E1           LDRSH    R1,[R0, #+0]
   \   00000038   011041E2           SUB      R1,R1,#+1
   \   0000003C   B010C0E1           STRH     R1,[R0, #+0]
    240              }
   \                     ??DelFiles_1:
   \   00000040   ........           LDR      R0,??DataTable43  ;; ExitTimer
   \   00000044   045180E0           ADD      R5,R0,R4, LSL #+2
   \   00000048   701295E5           LDR      R1,[R5, #+624]
   \   0000004C   440091E5           LDR      R0,[R1, #+68]
   \   00000050   010050E1           CMP      R0,R1
   \   00000054   F2FFFF1A           BNE      ??DelFiles_2
    241            }
    242          }
   \   00000058   3080BDE8           POP      {R4,R5,PC}       ;; return
    243          
    244          
    245          

   \                                 In segment CODE, align 4, keep-with-next
    246          int FillRealPathFiles(int tab, wchar_t* dname)
    247          {
   \                     ??FillRealPathFiles:
   \   00000000   F0412DE9           PUSH     {R4-R8,LR}
   \   00000004   28D04DE2           SUB      SP,SP,#+40
   \   00000008   0040A0E1           MOV      R4,R0
   \   0000000C   0150A0E1           MOV      R5,R1
    248            W_FSTAT fs;
    249            wchar_t *next;
    250            int num = 0;
   \   00000010   0060A0E3           MOV      R6,#+0
    251            void *handle=w_diropen(dname); 
   \   00000014   0500A0E1           MOV      R0,R5
   \   00000018   2C0300EF           SWI      +812
   \   0000001C   0070B0E1           MOVS     R7,R0
    252            if (handle)
   \   00000020   1B00000A           BEQ      ??FillRealPathFiles_1
    253            {
    254              w_chdir(dname);
   \   00000024   0500A0E1           MOV      R0,R5
   \   00000028   F70200EF           SWI      +759
   \   0000002C   120000EA           B        ??FillRealPathFiles_2
    255              while((next=w_dirread(handle)))
    256              {
    257                w_fstat(next,&fs);
   \                     ??FillRealPathFiles_3:
   \   00000030   0D10A0E1           MOV      R1,SP
   \   00000034   F90200EF           SWI      +761
    258                if (!tabs[tab]->szFilter[0] || fs.attr&FA_DIRECTORY)
   \   00000038   ........           LDR      R1,??DataTable43  ;; ExitTimer
   \   0000003C   1200A0E3           MOV      R0,#+18
   \   00000040   041181E0           ADD      R1,R1,R4, LSL #+2
   \   00000044   641291E5           LDR      R1,[R1, #+612]
   \   00000048   600E80E3           ORR      R0,R0,#0x600
   \   0000004C   B10090E1           LDRH     R0,[R0, +R1]
   \   00000050   000050E3           CMP      R0,#+0
   \   00000054   0200000A           BEQ      ??FillRealPathFiles_4
   \   00000058   00009DE5           LDR      R0,[SP, #+0]
   \   0000005C   400C10E3           TST      R0,#0x4000
   \   00000060   0500000A           BEQ      ??FillRealPathFiles_2
    259                {
    260                  AddFileFromDE(tab, num++, next, &fs);
   \                     ??FillRealPathFiles_4:
   \   00000064   0D30A0E1           MOV      R3,SP
   \   00000068   0820A0E1           MOV      R2,R8
   \   0000006C   0610A0E1           MOV      R1,R6
   \   00000070   0400A0E1           MOV      R0,R4
   \   00000074   ........           BL       ??AddFileFromDE
   \   00000078   016086E2           ADD      R6,R6,#+1
    261                }
    262              }
   \                     ??FillRealPathFiles_2:
   \   0000007C   0700A0E1           MOV      R0,R7
   \   00000080   2D0300EF           SWI      +813
   \   00000084   0080B0E1           MOVS     R8,R0
   \   00000088   E8FFFF1A           BNE      ??FillRealPathFiles_3
    263              w_dirclose(handle);
   \   0000008C   0700A0E1           MOV      R0,R7
   \   00000090   2E0300EF           SWI      +814
    264            }
    265            if (tabs[tab]->szFilter[0])
   \                     ??FillRealPathFiles_1:
   \   00000094   ........           LDR      R1,??DataTable43  ;; ExitTimer
   \   00000098   1200A0E3           MOV      R0,#+18
   \   0000009C   041181E0           ADD      R1,R1,R4, LSL #+2
   \   000000A0   641291E5           LDR      R1,[R1, #+612]
   \   000000A4   600E80E3           ORR      R0,R0,#0x600
   \   000000A8   B10090E1           LDRH     R0,[R0, +R1]
   \   000000AC   000050E3           CMP      R0,#+0
   \   000000B0   2100000A           BEQ      ??FillRealPathFiles_5
    266            {
    267              handle=w_diropen(dname);
   \   000000B4   0500A0E1           MOV      R0,R5
   \   000000B8   2C0300EF           SWI      +812
   \   000000BC   0070B0E1           MOVS     R7,R0
    268              if (handle)
   \   000000C0   1D00000A           BEQ      ??FillRealPathFiles_5
    269              {
    270                w_chdir(dname);
   \   000000C4   0500A0E1           MOV      R0,R5
   \   000000C8   F70200EF           SWI      +759
   \   000000CC   140000EA           B        ??FillRealPathFiles_6
    271                while((next=w_dirread(handle)))
    272                {
    273                  w_fstat(next,&fs);
   \                     ??FillRealPathFiles_7:
   \   000000D0   0D10A0E1           MOV      R1,SP
   \   000000D4   F90200EF           SWI      +761
    274                  if (!(fs.attr&FA_DIRECTORY))
   \   000000D8   00009DE5           LDR      R0,[SP, #+0]
   \   000000DC   400C10E3           TST      R0,#0x4000
   \   000000E0   0F00001A           BNE      ??FillRealPathFiles_6
    275                  {
    276                    if (match(tabs[tab]->szFilter, next))
   \   000000E4   ........           LDR      R2,??DataTable43  ;; ExitTimer
   \   000000E8   0810A0E1           MOV      R1,R8
   \   000000EC   042182E0           ADD      R2,R2,R4, LSL #+2
   \   000000F0   642292E5           LDR      R2,[R2, #+612]
   \   000000F4   1200A0E3           MOV      R0,#+18
   \   000000F8   600E80E3           ORR      R0,R0,#0x600
   \   000000FC   020080E0           ADD      R0,R0,R2
   \   00000100   ........           _BLF     ??match,??match??rA
   \   00000104   000050E3           CMP      R0,#+0
   \   00000108   0500000A           BEQ      ??FillRealPathFiles_6
    277                    {
    278                      AddFileFromDE(tab, num++, next, &fs);
   \   0000010C   0D30A0E1           MOV      R3,SP
   \   00000110   0820A0E1           MOV      R2,R8
   \   00000114   0610A0E1           MOV      R1,R6
   \   00000118   0400A0E1           MOV      R0,R4
   \   0000011C   ........           BL       ??AddFileFromDE
   \   00000120   016086E2           ADD      R6,R6,#+1
    279                    }
    280                  }
    281                }
   \                     ??FillRealPathFiles_6:
   \   00000124   0700A0E1           MOV      R0,R7
   \   00000128   2D0300EF           SWI      +813
   \   0000012C   0080B0E1           MOVS     R8,R0
   \   00000130   E6FFFF1A           BNE      ??FillRealPathFiles_7
    282                w_dirclose(handle);
   \   00000134   0700A0E1           MOV      R0,R7
   \   00000138   2E0300EF           SWI      +814
    283              }
    284            }
    285            return num;
   \                     ??FillRealPathFiles_5:
   \   0000013C   0600A0E1           MOV      R0,R6
   \   00000140   28D08DE2           ADD      SP,SP,#+40
   \   00000144   F081BDE8           POP      {R4-R8,PC}       ;; return
    286          }
    287          
    288          // Заполняет список файлов текущей директории

   \                                 In segment CODE, align 4, keep-with-next
    289          int FillFiles(int tab, wchar_t* dname) 
    290          {
   \                     ??FillFiles:
   \   00000000   30402DE9           PUSH     {R4,R5,LR}
   \   00000004   0040A0E1           MOV      R4,R0
    291            if (tabs[tab]->ccFiles) DelFiles(tab);
   \   00000008   ........           LDR      R0,??DataTable43  ;; ExitTimer
   \   0000000C   0150A0E1           MOV      R5,R1
   \   00000010   040180E0           ADD      R0,R0,R4, LSL #+2
   \   00000014   640290E5           LDR      R0,[R0, #+612]
   \   00000018   F000D0E1           LDRSH    R0,[R0, #+0]
   \   0000001C   000050E3           CMP      R0,#+0
   \   00000020   0100000A           BEQ      ??FillFiles_1
   \   00000024   0400A0E1           MOV      R0,R4
   \   00000028   ........           BL       ??DelFiles
    292            if (IsArchiveOpened(tab)==ZIP_ARCH)
   \                     ??FillFiles_1:
   \   0000002C   0400A0E1           MOV      R0,R4
   \   00000030   ........           _BLF     ??IsArchiveOpened,??IsArchiveOpened??rA
   \   00000034   010050E3           CMP      R0,#+1
   \   00000038   0300001A           BNE      ??FillFiles_2
    293              tabs[tab]->ccFiles = FillZipFiles(tab, dname);
   \   0000003C   0510A0E1           MOV      R1,R5
   \   00000040   0400A0E1           MOV      R0,R4
   \   00000044   ........           _BLF     ??FillZipFiles,??FillZipFiles??rA
   \   00000048   080000EA           B        ??FillFiles_3
    294            else if (IsArchiveOpened(tab)==_7Z_ARCH)
   \                     ??FillFiles_2:
   \   0000004C   0400A0E1           MOV      R0,R4
   \   00000050   ........           _BLF     ??IsArchiveOpened,??IsArchiveOpened??rA
   \   00000054   020050E3           CMP      R0,#+2
   \   00000058   0510A0E1           MOV      R1,R5
   \   0000005C   0400A0E1           MOV      R0,R4
   \   00000060   0100001A           BNE      ??FillFiles_4
    295              tabs[tab]->ccFiles = Fill7ZFiles(tab, dname);  
   \   00000064   ........           _BLF     ??Fill7ZFiles,??Fill7ZFiles??rA
   \   00000068   000000EA           B        ??FillFiles_3
    296            else
    297              tabs[tab]->ccFiles = FillRealPathFiles(tab, dname);
   \                     ??FillFiles_4:
   \   0000006C   ........           BL       ??FillRealPathFiles
   \                     ??FillFiles_3:
   \   00000070   ........           LDR      R1,??DataTable43  ;; ExitTimer
   \   00000074   041181E0           ADD      R1,R1,R4, LSL #+2
   \   00000078   641291E5           LDR      R1,[R1, #+612]
   \   0000007C   B000C1E1           STRH     R0,[R1, #+0]
    298            SortFiles(tab);
   \   00000080   0400A0E1           MOV      R0,R4
   \   00000084   ........           _BLF     ??SortFiles,??SortFiles??rA
    299            return tabs[tab]->ccFiles;
   \   00000088   ........           LDR      R0,??DataTable43  ;; ExitTimer
   \   0000008C   040180E0           ADD      R0,R0,R4, LSL #+2
   \   00000090   640290E5           LDR      R0,[R0, #+612]
   \   00000094   F000D0E1           LDRSH    R0,[R0, #+0]
   \   00000098   3080BDE8           POP      {R4,R5,PC}       ;; return
    300          }
    301          

   \                                 In segment CODE, align 4, keep-with-next
    302          int SetTabDrv(int tab, int num)
    303          {
   \                     ??SetTabDrv:
   \   00000000   10402DE9           PUSH     {R4,LR}
    304            if (num >= MAX_DRV) num = 0;
   \   00000004   030051E3           CMP      R1,#+3
   \   00000008   0010A0A3           MOVGE    R1,#+0
   \   0000000C   0040A0E1           MOV      R4,R0
   \   00000010   010000AA           BGE      ??SetTabDrv_1
    305            else if (num < 0) num = MAX_DRV - 1;
   \   00000014   000051E3           CMP      R1,#+0
   \   00000018   0210A043           MOVMI    R1,#+2
    306            tabs[tab]->CurDrv = num;
   \                     ??SetTabDrv_1:
   \   0000001C   ........           LDR      R0,??DataTable43  ;; ExitTimer
   \   00000020   040180E0           ADD      R0,R0,R4, LSL #+2
   \   00000024   640290E5           LDR      R0,[R0, #+612]
   \   00000028   B410C0E1           STRH     R1,[R0, #+4]
    307            return FillFiles(tab, GetTabPath(tab));
   \   0000002C   0400A0E1           MOV      R0,R4
   \   00000030   ........           BL       ??GetTabPath
   \   00000034   0010A0E1           MOV      R1,R0
   \   00000038   0400A0E1           MOV      R0,R4
   \   0000003C   1040BDE8           POP      {R4,LR}          ;; Pop
   \   00000040   ........           B        ??FillFiles      ;; tailcall
    308          }
    309          

   \                                 In segment CODE, align 4, keep-with-next
    310          int SetCurTabDrv(int num)
    311          {
    312            return SetTabDrv(curtab, num);
   \                     ??SetCurTabDrv:
   \   00000000   0010A0E1           MOV      R1,R0
   \   00000004   ........           LDR      R0,??DataTable34  ;; ExitTimer + 608
   \   00000008   000090E5           LDR      R0,[R0, #+0]
   \   0000000C   ........           B        ??SetTabDrv      ;; tailcall
    313          }
    314          
    315          

   \                                 In segment CODE, align 4, keep-with-next
    316          FILEINF* _CurTabFile(int tab)
    317          {
   \                     ??_CurTabFile:
   \   00000000   10402DE9           PUSH     {R4,LR}
   \   00000004   0040A0E1           MOV      R4,R0
    318            int ind = GetTabIndex(tab);
   \   00000008   ........           BL       ??GetTabIndex
    319            if (ind < 0) return NULL;
   \   0000000C   000050E3           CMP      R0,#+0
   \   00000010   0100005A           BPL      ??_CurTabFile_1
   \                     ??_CurTabFile_2:
   \   00000014   0000A0E3           MOV      R0,#+0
   \   00000018   1080BDE8           POP      {R4,PC}
    320            
    321            FILEINF* file = FileListBase[tab];
   \                     ??_CurTabFile_1:
   \   0000001C   ........           LDR      R1,??DataTable43  ;; ExitTimer
    322            for(int ii=0; ii<=ind; ii++)
   \   00000020   0020A0E3           MOV      R2,#+0
   \   00000024   041181E0           ADD      R1,R1,R4, LSL #+2
   \   00000028   701291E5           LDR      R1,[R1, #+624]
    323              if (file)
   \                     ??_CurTabFile_3:
   \   0000002C   000051E3           CMP      R1,#+0
   \   00000030   F7FFFF0A           BEQ      ??_CurTabFile_2
    324                file =  (FILEINF *)file->next;
   \   00000034   441091E5           LDR      R1,[R1, #+68]
   \   00000038   012082E2           ADD      R2,R2,#+1
   \   0000003C   020050E1           CMP      R0,R2
   \   00000040   F9FFFFAA           BGE      ??_CurTabFile_3
    325              else
    326                return NULL;
    327            return file;
   \   00000044   0100A0E1           MOV      R0,R1
   \   00000048   1080BDE8           POP      {R4,PC}          ;; return
    328          }
    329          

   \                                 In segment CODE, align 4, keep-with-next
    330          int GetFileIndex(int tab, wchar_t* fname)
    331          {
   \                     ??GetFileIndex:
   \   00000000   F0402DE9           PUSH     {R4-R7,LR}
   \   00000004   0040A0E1           MOV      R4,R0
    332            if (tabs[tab]->ccFiles)
   \   00000008   ........           LDR      R0,??DataTable43  ;; ExitTimer
   \   0000000C   0150A0E1           MOV      R5,R1
   \   00000010   040180E0           ADD      R0,R0,R4, LSL #+2
   \   00000014   640290E5           LDR      R0,[R0, #+612]
   \   00000018   F000D0E1           LDRSH    R0,[R0, #+0]
   \   0000001C   000050E3           CMP      R0,#+0
   \   00000020   1300000A           BEQ      ??GetFileIndex_1
    333            {
    334              int ind=0;
    335              FILEINF* file =  (FILEINF *)FileListBase[tab]->next;
   \   00000024   ........           LDR      R0,??DataTable43  ;; ExitTimer
   \   00000028   0060A0E3           MOV      R6,#+0
   \   0000002C   040180E0           ADD      R0,R0,R4, LSL #+2
   \   00000030   700290E5           LDR      R0,[R0, #+624]
   \   00000034   447090E5           LDR      R7,[R0, #+68]
   \   00000038   010000EA           B        ??GetFileIndex_2
    336              while(file != FileListBase[tab])
    337              {
    338                if (!wstrcmp(fname, file->ws_name))
    339                  return ind;
    340                file = (FILEINF *)file->next;
   \                     ??GetFileIndex_3:
   \   0000003C   447097E5           LDR      R7,[R7, #+68]
    341                ind++;
   \   00000040   016086E2           ADD      R6,R6,#+1
   \                     ??GetFileIndex_2:
   \   00000044   ........           LDR      R0,??DataTable43  ;; ExitTimer
   \   00000048   040180E0           ADD      R0,R0,R4, LSL #+2
   \   0000004C   700290E5           LDR      R0,[R0, #+624]
   \   00000050   000057E1           CMP      R7,R0
   \   00000054   0600000A           BEQ      ??GetFileIndex_1
   \   00000058   201097E5           LDR      R1,[R7, #+32]
   \   0000005C   0500A0E1           MOV      R0,R5
   \   00000060   560100EF           SWI      +342
   \   00000064   000050E3           CMP      R0,#+0
   \   00000068   F3FFFF1A           BNE      ??GetFileIndex_3
   \   0000006C   0600A0E1           MOV      R0,R6
   \   00000070   F080BDE8           POP      {R4-R7,PC}
    342              }
    343            }
    344            return -1;
   \                     ??GetFileIndex_1:
   \   00000074   0000E0E3           MVN      R0,#+0
   \   00000078   F080BDE8           POP      {R4-R7,PC}       ;; return
    345          }
    346          

   \                                 In segment CODE, align 4, keep-with-next
    347          int GetCurTabFileIndex(wchar_t* fname)
    348          {
    349            return GetFileIndex(curtab, fname);
   \                     ??GetCurTabFileIndex:
   \   00000000   0010A0E1           MOV      R1,R0
   \   00000004   ........           LDR      R0,??DataTable34  ;; ExitTimer + 608
   \   00000008   000090E5           LDR      R0,[R0, #+0]
   \   0000000C   ........           B        ??GetFileIndex   ;; tailcall
    350          }
    351          

   \                                 In segment CODE, align 4, keep-with-next
    352          int RefreshTab(int tab)
    353          {
   \                     ??RefreshTab:
   \   00000000   F0402DE9           PUSH     {R4-R7,LR}
   \   00000004   0040A0E1           MOV      R4,R0
    354            FILEINF* cfile = _CurTabFile(tab);
   \   00000008   ........           BL       ??_CurTabFile
   \   0000000C   0060B0E1           MOVS     R6,R0
    355            wchar_t* lpname;
    356            if (cfile)
   \   00000010   0700000A           BEQ      ??RefreshTab_1
    357            {
    358              lpname = new wchar_t[wstrlen(cfile->ws_name) + 1];
   \   00000014   200096E5           LDR      R0,[R6, #+32]
   \   00000018   570100EF           SWI      +343
   \   0000001C   010080E2           ADD      R0,R0,#+1
   \   00000020   8000A0E1           LSL      R0,R0,#+1
   \   00000024   ........           _BLF     `??operator new[]`,`??operator new[]??rA`
    359              wstrcpy(lpname, cfile->ws_name);
   \   00000028   201096E5           LDR      R1,[R6, #+32]
   \   0000002C   0050A0E1           MOV      R5,R0
   \   00000030   520100EF           SWI      +338
    360            }
    361            int res = FillFiles(tab, GetTabPath(tab));
   \                     ??RefreshTab_1:
   \   00000034   0400A0E1           MOV      R0,R4
   \   00000038   ........           BL       ??GetTabPath
   \   0000003C   0010A0E1           MOV      R1,R0
   \   00000040   0400A0E1           MOV      R0,R4
   \   00000044   ........           BL       ??FillFiles
   \   00000048   0070A0E1           MOV      R7,R0
    362            
    363            int ind;
    364            if (cfile)
   \   0000004C   000056E3           CMP      R6,#+0
   \   00000050   0500000A           BEQ      ??RefreshTab_2
    365            {
    366              ind = GetFileIndex(tab, lpname);
   \   00000054   0510A0E1           MOV      R1,R5
   \   00000058   0400A0E1           MOV      R0,R4
   \   0000005C   ........           BL       ??GetFileIndex
   \   00000060   0060A0E1           MOV      R6,R0
    367              delete(lpname);
   \   00000064   0500A0E1           MOV      R0,R5
   \   00000068   ........           _BLF     `??operator delete`,`??operator delete??rA`
    368            }
    369            else
    370              ind = 0;
    371            SetTabIndex(tab, ind, 0);
   \                     ??RefreshTab_2:
   \   0000006C   0020A0E3           MOV      R2,#+0
   \   00000070   0610A0E1           MOV      R1,R6
   \   00000074   0400A0E1           MOV      R0,R4
   \   00000078   ........           BL       ??SetTabIndex
    372            return res;
   \   0000007C   0700A0E1           MOV      R0,R7
   \   00000080   F080BDE8           POP      {R4-R7,PC}       ;; return
    373          }
    374          

   \                                 In segment CODE, align 4, keep-with-next
    375          int DoRefresh()
    376          {
    377            return RefreshTab(curtab);
   \                     ??DoRefresh:
   \   00000000   ........           LDR      R0,??DataTable34  ;; ExitTimer + 608
   \   00000004   000090E5           LDR      R0,[R0, #+0]
   \   00000008   ........           B        ??RefreshTab     ;; tailcall
    378          }
    379          

   \                                 In segment CODE, align 4, keep-with-next
    380          void UpdateAll()
    381          {
   \                     ??UpdateAll:
   \   00000000   10402DE9           PUSH     {R4,LR}
    382            for(int ii=0; ii < MAX_TABS + 1; ii++)
   \   00000004   0040A0E3           MOV      R4,#+0
    383              RefreshTab(ii);
   \                     ??UpdateAll_1:
   \   00000008   0400A0E1           MOV      R0,R4
   \   0000000C   ........           BL       ??RefreshTab
   \   00000010   014084E2           ADD      R4,R4,#+1
   \   00000014   030054E3           CMP      R4,#+3
   \   00000018   FAFFFFBA           BLT      ??UpdateAll_1
    384          }
   \   0000001C   1080BDE8           POP      {R4,PC}          ;; return
    385          

   \                                 In segment CODE, align 4, keep-with-next
    386          void _cd_tab(int tab, int drv, const wchar_t *dname)
    387          {
   \                     ??_cd_tab:
   \   00000000   70402DE9           PUSH     {R4-R6,LR}
   \   00000004   0240A0E1           MOV      R4,R2
   \   00000008   0150A0E1           MOV      R5,R1
   \   0000000C   0060A0E1           MOV      R6,R0
    388            if (IsArchiveOpened(tab))
   \   00000010   ........           _BLF     ??IsArchiveOpened,??IsArchiveOpened??rA
   \   00000014   000050E3           CMP      R0,#+0
   \   00000018   ........           LDR      R0,??DataTable43  ;; ExitTimer
   \   0000001C   0410A0E1           MOV      R1,R4
   \   00000020   060180E0           ADD      R0,R0,R6, LSL #+2
   \   00000024   640290E5           LDR      R0,[R0, #+612]
   \   00000028   0F00000A           BEQ      ??_cd_tab_1
    389            {
    390              if (wstrcmp(tabs[tab]->zipInfo->szCurDir, dname))
   \   0000002C   140890E5           LDR      R0,[R0, #+2068]
   \   00000030   810F80E2           ADD      R0,R0,#+516
   \   00000034   560100EF           SWI      +342
   \   00000038   000050E3           CMP      R0,#+0
   \   0000003C   7080BD08           POPEQ    {R4-R6,PC}
    391              {
    392                tabs[tab]->iBase[drv] = 0;
   \   00000040   ........           LDR      R0,??DataTable43  ;; ExitTimer
   \   00000044   0020A0E3           MOV      R2,#+0
   \   00000048   060180E0           ADD      R0,R0,R6, LSL #+2
   \   0000004C   640290E5           LDR      R0,[R0, #+612]
   \   00000050   851080E0           ADD      R1,R0,R5, LSL #+1
   \   00000054   BC20C1E1           STRH     R2,[R1, #+12]
    393                tabs[tab]->iIndex[drv] = 0;
   \   00000058   B620C1E1           STRH     R2,[R1, #+6]
    394                wstrcpy(tabs[tab]->zipInfo->szCurDir, dname);
   \   0000005C   140890E5           LDR      R0,[R0, #+2068]
   \   00000060   0410A0E1           MOV      R1,R4
   \   00000064   810F80E2           ADD      R0,R0,#+516
   \   00000068   0E0000EA           B        ??_cd_tab_2
    395              }
    396            }
    397            else
    398            {
    399              if (wstrcmp(tabs[tab]->szDirs[drv], dname))
   \                     ??_cd_tab_1:
   \   0000006C   850480E0           ADD      R0,R0,R5, LSL #+9
   \   00000070   120080E2           ADD      R0,R0,#+18
   \   00000074   560100EF           SWI      +342
   \   00000078   000050E3           CMP      R0,#+0
   \   0000007C   7080BD08           POPEQ    {R4-R6,PC}
    400              {
    401                tabs[tab]->iBase[drv] = 0;
   \   00000080   ........           LDR      R0,??DataTable43  ;; ExitTimer
   \   00000084   0020A0E3           MOV      R2,#+0
   \   00000088   060180E0           ADD      R0,R0,R6, LSL #+2
   \   0000008C   640290E5           LDR      R0,[R0, #+612]
   \   00000090   851080E0           ADD      R1,R0,R5, LSL #+1
   \   00000094   BC20C1E1           STRH     R2,[R1, #+12]
    402                tabs[tab]->iIndex[drv] = 0;
   \   00000098   B620C1E1           STRH     R2,[R1, #+6]
    403                wstrcpy(tabs[tab]->szDirs[drv], dname);
   \   0000009C   0410A0E1           MOV      R1,R4
   \   000000A0   850480E0           ADD      R0,R0,R5, LSL #+9
   \   000000A4   120080E2           ADD      R0,R0,#+18
   \                     ??_cd_tab_2:
   \   000000A8   520100EF           SWI      +338
    404              }
    405            }
    406          }
   \   000000AC   7080BDE8           POP      {R4-R6,PC}       ;; return
    407          
    408          

   \                                 In segment CODE, align 4, keep-with-next
    409          int InitTab(int tab)
    410          {
   \                     ??InitTab:
   \   00000000   70402DE9           PUSH     {R4-R6,LR}
   \   00000004   0040A0E1           MOV      R4,R0
   \   00000008   ........           LDR      R0,??DataTable43  ;; ExitTimer
    411            tabs[tab] = new TABINFO;
    412            {
    413              tabs[tab]->sort = ST_FIRST;
    414              tabs[tab]->szFilter[0]=0;
    415            }
    416            tabs[tab]->zipInfo = new ARCHINFO;
   \   0000000C   6460A0E3           MOV      R6,#+100
   \   00000010   045180E0           ADD      R5,R0,R4, LSL #+2
   \   00000014   1800A0E3           MOV      R0,#+24
   \   00000018   800E80E3           ORR      R0,R0,#0x800
   \   0000001C   ........           _BLF     `??operator new`,`??operator new??rA`
   \   00000020   640285E5           STR      R0,[R5, #+612]
   \   00000024   0010A0E3           MOV      R1,#+0
   \   00000028   B210C0E1           STRH     R1,[R0, #+2]
   \   0000002C   1220A0E3           MOV      R2,#+18
   \   00000030   602E82E3           ORR      R2,R2,#0x600
   \   00000034   B01082E1           STRH     R1,[R2, +R0]
   \   00000038   406E86E3           ORR      R6,R6,#0x400
   \   0000003C   0600A0E1           MOV      R0,R6
   \   00000040   ........           _BLF     `??operator new`,`??operator new??rA`
   \   00000044   643295E5           LDR      R3,[R5, #+612]
    417            {
    418              memset(tabs[tab]->zipInfo, 0, sizeof(ARCHINFO));
   \   00000048   0620A0E1           MOV      R2,R6
   \   0000004C   140883E5           STR      R0,[R3, #+2068]
   \   00000050   0010A0E3           MOV      R1,#+0
   \   00000054   120100EF           SWI      +274
    419            }
    420            FileListBase[tab] = new FILEINF;
   \   00000058   4800A0E3           MOV      R0,#+72
   \   0000005C   ........           _BLF     `??operator new`,`??operator new??rA`
   \   00000060   700285E5           STR      R0,[R5, #+624]
    421            {
    422              memset(FileListBase[tab],0, sizeof(FILEINF));
   \   00000064   4820A0E3           MOV      R2,#+72
   \   00000068   0010A0E3           MOV      R1,#+0
   \   0000006C   120100EF           SWI      +274
    423              FileListBase[tab]->id = -1;
   \   00000070   700295E5           LDR      R0,[R5, #+624]
   \   00000074   0010E0E3           MVN      R1,#+0
   \   00000078   B010C0E1           STRH     R1,[R0, #+0]
    424              FileListBase[tab]->next = FileListBase[tab];
   \   0000007C   440080E5           STR      R0,[R0, #+68]
    425            }
    426            for(int num = 0; num < MAX_DRV; num++)
   \   00000080   0050A0E3           MOV      R5,#+0
    427            {
    428              _cd_tab(tab, num, Drives[num].path);
   \                     ??InitTab_1:
   \   00000084   ........           LDR      R1,??DataTable43  ;; ExitTimer
   \   00000088   1800A0E3           MOV      R0,#+24
   \   0000008C   901521E0           MLA      R1,R0,R5,R1
   \   00000090   0400A0E1           MOV      R0,R4
   \   00000094   042291E5           LDR      R2,[R1, #+516]
   \   00000098   0510A0E1           MOV      R1,R5
   \   0000009C   ........           BL       ??_cd_tab
    429            }
   \   000000A0   015085E2           ADD      R5,R5,#+1
   \   000000A4   030055E3           CMP      R5,#+3
   \   000000A8   F5FFFFBA           BLT      ??InitTab_1
    430            return SetTabDrv(tab, 0);
   \   000000AC   0010A0E3           MOV      R1,#+0
   \   000000B0   0400A0E1           MOV      R0,R4
   \   000000B4   ........           BL       ??SetTabDrv
   \   000000B8   7080BDE8           POP      {R4-R6,PC}       ;; return
    431          }
    432          

   \                                 In segment CODE, align 4, keep-with-next
    433          void FreeTab(int tab)
    434          {
   \                     ??FreeTab:
   \   00000000   10402DE9           PUSH     {R4,LR}
   \   00000004   0040A0E1           MOV      R4,R0
    435            delete (FileListBase[tab]);
   \   00000008   ........           LDR      R0,??DataTable43  ;; ExitTimer
   \   0000000C   040180E0           ADD      R0,R0,R4, LSL #+2
   \   00000010   700290E5           LDR      R0,[R0, #+624]
   \   00000014   ........           _BLF     `??operator delete`,`??operator delete??rA`
    436            if (IsArchiveOpened(tab)==ZIP_ARCH)
   \   00000018   0400A0E1           MOV      R0,R4
   \   0000001C   ........           _BLF     ??IsArchiveOpened,??IsArchiveOpened??rA
   \   00000020   010050E3           CMP      R0,#+1
   \   00000024   0400A0E1           MOV      R0,R4
   \   00000028   0100001A           BNE      ??FreeTab_1
    437              CloseTabZip(tab);
   \   0000002C   ........           _BLF     ??CloseTabZip,??CloseTabZip??rA
   \   00000030   040000EA           B        ??FreeTab_2
    438            else if (IsArchiveOpened(tab)==_7Z_ARCH)
   \                     ??FreeTab_1:
   \   00000034   ........           _BLF     ??IsArchiveOpened,??IsArchiveOpened??rA
   \   00000038   020050E3           CMP      R0,#+2
   \   0000003C   0100001A           BNE      ??FreeTab_2
    439              CloseTab7Z(tab);
   \   00000040   0400A0E1           MOV      R0,R4
   \   00000044   ........           _BLF     ??CloseTab7Z,??CloseTab7Z??rA
    440            delete (tabs[tab]->zipInfo);
   \                     ??FreeTab_2:
   \   00000048   ........           LDR      R0,??DataTable43  ;; ExitTimer
   \   0000004C   044180E0           ADD      R4,R0,R4, LSL #+2
   \   00000050   640294E5           LDR      R0,[R4, #+612]
   \   00000054   140890E5           LDR      R0,[R0, #+2068]
   \   00000058   ........           _BLF     `??operator delete`,`??operator delete??rA`
    441            delete (tabs[tab]);
   \   0000005C   640294E5           LDR      R0,[R4, #+612]
   \   00000060   ........           _BLF     `??operator delete`,`??operator delete??rA`
    442          }
   \   00000064   1080BDE8           POP      {R4,PC}          ;; return
    443          

   \                                 In segment CODE, align 4, keep-with-next
    444          void DoErrKey()
    445          {
    446            //MessageBox
    447            //MsgBoxError(1, (int) muitxt(ind_err_badkey));
    448          }
   \                     ??DoErrKey:
   \   00000000   1EFF2FE1           BX       LR               ;; return
    449          
    450          
    451          

   \                                 In segment CODE, align 4, keep-with-next
    452          FILEINF* _CurFile()
    453          {
    454            return _CurTabFile(curtab);
   \                     ??_CurFile:
   \   00000000   ........           LDR      R0,??DataTable34  ;; ExitTimer + 608
   \   00000004   000090E5           LDR      R0,[R0, #+0]
   \   00000008   ........           B        ??_CurTabFile    ;; tailcall
    455          }
    456          

   \                                 In segment CODE, align 4, keep-with-next
    457          wchar_t* CurFullPath(wchar_t* sfile)
    458          {
   \                     ??CurFullPath:
   \   00000000   10402DE9           PUSH     {R4,LR}
   \   00000004   0040A0E1           MOV      R4,R0
    459            if (IsInArchive())
   \   00000008   ........           _BLF     ??IsInArchive,??IsInArchive??rA
   \   0000000C   000050E3           CMP      R0,#+0
   \   00000010   ........           LDR      R0,??DataTable43  ;; ExitTimer
   \   00000014   0600000A           BEQ      ??CurFullPath_1
    460              snwprintf(pathbuf,MAXELEMS(pathbuf)-1, _ls_ls, _CurTab->zipInfo->szCurDir, sfile);
   \   00000018   10002DE9           PUSH     {R4}
   \   0000001C   601290E5           LDR      R1,[R0, #+608]
   \   00000020   011180E0           ADD      R1,R0,R1, LSL #+2
   \   00000024   641291E5           LDR      R1,[R1, #+612]
   \   00000028   141891E5           LDR      R1,[R1, #+2068]
   \   0000002C   813F81E2           ADD      R3,R1,#+516
   \   00000030   1D0000EA           B        ??CurFullPath_2
    461            else
    462            {
    463              if (_CurPath[0]=='/' && _CurPath[1]==0)
   \                     ??CurFullPath_1:
   \   00000034   601290E5           LDR      R1,[R0, #+608]
   \   00000038   011180E0           ADD      R1,R0,R1, LSL #+2
   \   0000003C   641291E5           LDR      R1,[R1, #+612]
   \   00000040   F400D1E1           LDRSH    R0,[R1, #+4]
   \   00000044   800481E0           ADD      R0,R1,R0, LSL #+9
   \   00000048   B201D0E1           LDRH     R0,[R0, #+18]
   \   0000004C   2F0050E3           CMP      R0,#+47
   \   00000050   0D00001A           BNE      ??CurFullPath_3
   \   00000054   ........           LDR      R0,??DataTable43  ;; ExitTimer
   \   00000058   601290E5           LDR      R1,[R0, #+608]
   \   0000005C   011180E0           ADD      R1,R0,R1, LSL #+2
   \   00000060   641291E5           LDR      R1,[R1, #+612]
   \   00000064   F400D1E1           LDRSH    R0,[R1, #+4]
   \   00000068   800481E0           ADD      R0,R1,R0, LSL #+9
   \   0000006C   B401D0E1           LDRH     R0,[R0, #+20]
   \   00000070   000050E3           CMP      R0,#+0
   \   00000074   0400001A           BNE      ??CurFullPath_3
    464              {
    465                wstrcpy(pathbuf+1, sfile);
   \   00000078   50009FE5           LDR      R0,??CurFullPath_4  ;; ExitTimer + 1662
   \   0000007C   0410A0E1           MOV      R1,R4
   \   00000080   520100EF           SWI      +338
   \   00000084   ........           LDR      R0,??DataTable77  ;; ExitTimer + 1660
   \   00000088   1080BDE8           POP      {R4,PC}
    466              }
    467              else
    468              {
    469                snwprintf(pathbuf,MAXELEMS(pathbuf)-1,_ls_ls, _CurPath, sfile);
   \                     ??CurFullPath_3:
   \   0000008C   ........           LDR      R0,??DataTable43  ;; ExitTimer
   \   00000090   601290E5           LDR      R1,[R0, #+608]
   \   00000094   011180E0           ADD      R1,R0,R1, LSL #+2
   \   00000098   641291E5           LDR      R1,[R1, #+612]
   \   0000009C   10002DE9           PUSH     {R4}
   \   000000A0   F420D1E1           LDRSH    R2,[R1, #+4]
   \   000000A4   821481E0           ADD      R1,R1,R2, LSL #+9
   \   000000A8   123081E2           ADD      R3,R1,#+18
   \                     ??CurFullPath_2:
   \   000000AC   ........           LDR      R2,??DataTable42  ;; _ls_ls
   \   000000B0   FF10A0E3           MOV      R1,#+255
   \   000000B4   7C40A0E3           MOV      R4,#+124
   \   000000B8   604E84E3           ORR      R4,R4,#0x600
   \   000000BC   000084E0           ADD      R0,R4,R0
   \   000000C0   150100EF           SWI      +277
    470              }
    471            }   
    472            return pathbuf;
   \   000000C4   ........           LDR      R0,??DataTable77  ;; ExitTimer + 1660
   \   000000C8   04D08DE2           ADD      SP,SP,#+4
   \   000000CC   1080BDE8           POP      {R4,PC}          ;; return
   \                     ??CurFullPath_4:
   \   000000D0   ........           DC32     ExitTimer + 1662
    473          }
    474          

   \                                 In segment CODE, align 4, keep-with-next
    475          wchar_t* CurFullPathBM(wchar_t* buff, wchar_t* sfile, int len)
    476          {
   \                     ??CurFullPathBM:
   \   00000000   10402DE9           PUSH     {R4,LR}
   \   00000004   0040A0E1           MOV      R4,R0
   \   00000008   0100A0E1           MOV      R0,R1
   \   0000000C   0210A0E1           MOV      R1,R2
    477            if (buff)
   \   00000010   000054E3           CMP      R4,#+0
   \   00000014   0B00000A           BEQ      ??CurFullPathBM_1
    478              snwprintf(buff, len, _ls_ls, _CurPath, sfile);
   \   00000018   ........           LDR      R2,??DataTable43  ;; ExitTimer
   \   0000001C   603292E5           LDR      R3,[R2, #+608]
   \   00000020   032182E0           ADD      R2,R2,R3, LSL #+2
   \   00000024   642292E5           LDR      R2,[R2, #+612]
   \   00000028   01002DE9           PUSH     {R0}
   \   0000002C   F400D2E1           LDRSH    R0,[R2, #+4]
   \   00000030   800482E0           ADD      R0,R2,R0, LSL #+9
   \   00000034   ........           LDR      R2,??DataTable42  ;; _ls_ls
   \   00000038   123080E2           ADD      R3,R0,#+18
   \   0000003C   0400A0E1           MOV      R0,R4
   \   00000040   150100EF           SWI      +277
   \   00000044   04D08DE2           ADD      SP,SP,#+4
    479            return buff;
   \                     ??CurFullPathBM_1:
   \   00000048   0400A0E1           MOV      R0,R4
   \   0000004C   1080BDE8           POP      {R4,PC}          ;; return
    480          }
    481          

   \                                 In segment CODE, align 4, keep-with-next
    482          void initprogr(int act)
    483          {
    484            progr_start = 1;
   \                     ??initprogr:
   \   00000000   ........           LDR      R1,??DataTable43  ;; ExitTimer
   \   00000004   0120A0E3           MOV      R2,#+1
   \   00000008   5C2281E5           STR      R2,[R1, #+604]
    485            progr_max = 0;
   \   0000000C   0020A0E3           MOV      R2,#+0
   \   00000010   582281E5           STR      R2,[R1, #+600]
    486            progr_stop = 0;
   \   00000014   502281E5           STR      R2,[R1, #+592]
    487            progr_act = act;
   \   00000018   540281E5           STR      R0,[R1, #+596]
    488          }
   \   0000001C   1EFF2FE1           BX       LR               ;; return
    489          
    490          

   \                                 In segment CODE, align 4, keep-with-next
    491          void incprogr(int inc)
    492          {
    493            if (inc > 0) progr_cur += inc;
   \                     ??incprogr:
   \   00000000   2C109FE5           LDR      R1,??incprogr_1  ;; progr_cur
   \   00000004   010050E3           CMP      R0,#+1
   \   00000008   001091E5           LDR      R1,[R1, #+0]
   \   0000000C   011080A0           ADDGE    R1,R0,R1
   \   00000010   010000AA           BGE      ??incprogr_2
    494            else if (!inc) progr_cur = 0;
   \   00000014   000050E3           CMP      R0,#+0
   \   00000018   0010A003           MOVEQ    R1,#+0
   \                     ??incprogr_2:
   \   0000001C   10009FE5           LDR      R0,??incprogr_1  ;; progr_cur
   \   00000020   001080E5           STR      R1,[R0, #+0]
    495            RedrawGUI=1;
   \   00000024   ........           LDR      R0,??DataTable52  ;; RedrawGUI
   \   00000028   0110A0E3           MOV      R1,#+1
   \   0000002C   001080E5           STR      R1,[R0, #+0]
    496          }
   \   00000030   1EFF2FE1           BX       LR               ;; return
   \                     ??incprogr_1:
   \   00000034   ........           DC32     progr_cur
    497          

   \                                 In segment CODE, align 4, keep-with-next
    498          void incprogrsp(int inc)
    499          {
    500            if (inc) progrsp_cur += inc;
   \                     ??incprogrsp:
   \   00000000   000050E3           CMP      R0,#+0
   \   00000004   1C109F15           LDRNE    R1,??incprogrsp_1  ;; progrsp_max + 4
   \   00000008   00109115           LDRNE    R1,[R1, #+0]
   \   0000000C   01008010           ADDNE    R0,R0,R1
    501            else progrsp_cur = 0;
   \   00000010   10109FE5           LDR      R1,??incprogrsp_1  ;; progrsp_max + 4
   \   00000014   000081E5           STR      R0,[R1, #+0]
    502            RedrawGUI=1;
   \   00000018   ........           LDR      R0,??DataTable52  ;; RedrawGUI
   \   0000001C   0110A0E3           MOV      R1,#+1
   \   00000020   001080E5           STR      R1,[R0, #+0]
    503          }
   \   00000024   1EFF2FE1           BX       LR               ;; return
   \                     ??incprogrsp_1:
   \   00000028   ........           DC32     progrsp_max + 4
    504          

   \                                 In segment CODE, align 4, keep-with-next
    505          void endprogr()
    506          {
    507            progr_start = 0;
   \                     ??endprogr:
   \   00000000   14009FE5           LDR      R0,??endprogr_1  ;; ExitTimer + 604
   \   00000004   0010A0E3           MOV      R1,#+0
   \   00000008   001080E5           STR      R1,[R0, #+0]
    508            RedrawGUI=1;
   \   0000000C   ........           LDR      R0,??DataTable52  ;; RedrawGUI
   \   00000010   0110A0E3           MOV      R1,#+1
   \   00000014   001080E5           STR      R1,[R0, #+0]
    509          }
   \   00000018   1EFF2FE1           BX       LR               ;; return
   \                     ??endprogr_1:
   \   0000001C   ........           DC32     ExitTimer + 604
    510          

   \                                 In segment CODE, align 4, keep-with-next
    511          void endprogrsp()
    512          {
    513            progrsp_max = progrsp_cur = 0;
   \                     ??endprogrsp:
   \   00000000   18009FE5           LDR      R0,??endprogrsp_1  ;; progrsp_max
   \   00000004   0010A0E3           MOV      R1,#+0
   \   00000008   041080E5           STR      R1,[R0, #+4]
   \   0000000C   001080E5           STR      R1,[R0, #+0]
    514            RedrawGUI=1;
   \   00000010   ........           LDR      R0,??DataTable52  ;; RedrawGUI
   \   00000014   0110A0E3           MOV      R1,#+1
   \   00000018   001080E5           STR      R1,[R0, #+0]
    515          }
   \   0000001C   1EFF2FE1           BX       LR               ;; return
   \                     ??endprogrsp_1:
   \   00000020   ........           DC32     progrsp_max
    516          
    517          

   \                                 In segment CODE, align 4, keep-with-next
    518          void CB_Paste(int id)
    519          {
   \                     ??CB_Paste:
   \   00000000   00402DE9           PUSH     {LR}
    520            if (id == IDYES) SUBPROC((void*)S_Paste);
   \   00000004   010050E3           CMP      R0,#+1
   \   00000008   0080BD18           POPNE    {PC}
   \   0000000C   ........           LDR      R0,??DataTable50  ;; ??S_Paste
   \   00000010   080100EF           SWI      +264
    521          }
   \   00000014   0080BDE8           POP      {PC}             ;; return
    522          

   \                                 In segment CODE, align 4, keep-with-next
    523          void DoPaste()
    524          {
   \                     ??DoPaste:
   \   00000000   00402DE9           PUSH     {LR}
    525            if (IsInArchive()) return; // Пока не обрабатывается
   \   00000004   ........           _BLF     ??IsInArchive,??IsInArchive??rA
   \   00000008   000050E3           CMP      R0,#+0
   \   0000000C   0080BD18           POPNE    {PC}
    526            
    527            if (buffer.count)
   \   00000010   ........           LDR      R0,??DataTable116  ;; buffer
   \   00000014   000090E5           LDR      R0,[R0, #+0]
   \   00000018   000050E3           CMP      R0,#+0
   \   0000001C   0080BD08           POPEQ    {PC}
    528            {
    529              if (buffer.type == FNT_MOVE)
   \   00000020   60009FE5           LDR      R0,??DoPaste_1   ;; buffer + 4
   \   00000024   000090E5           LDR      R0,[R0, #+0]
   \   00000028   020050E3           CMP      R0,#+2
   \   0000002C   0500001A           BNE      ??DoPaste_2
    530              {
    531                if (CONFIG_CONFIRM_MOVE)
   \   00000030   54009FE5           LDR      R0,??DoPaste_1+0x4  ;; CONFIG_CONFIRM_MOVE
   \   00000034   000090E5           LDR      R0,[R0, #+0]
   \   00000038   000050E3           CMP      R0,#+0
    532                  MsgBoxYesNo(muitxt(ind_pmt_move), CB_Paste);
   \   0000003C   4400A013           MOVNE    R0,#+68
   \   00000040   0900001A           BNE      ??DoPaste_3
    533                else
    534                  CB_Paste(IDYES);
   \   00000044   0C0000EA           B        ??DoPaste_4
    535              }
    536              else if (buffer.type == FNT_COPY)
   \                     ??DoPaste_2:
   \   00000048   38009FE5           LDR      R0,??DoPaste_1   ;; buffer + 4
   \   0000004C   000090E5           LDR      R0,[R0, #+0]
   \   00000050   010050E3           CMP      R0,#+1
   \   00000054   0080BD18           POPNE    {PC}
    537              {
    538                if (CONFIG_CONFIRM_COPY)
   \   00000058   30009FE5           LDR      R0,??DoPaste_1+0x8  ;; CONFIG_CONFIRM_COPY
   \   0000005C   000090E5           LDR      R0,[R0, #+0]
   \   00000060   000050E3           CMP      R0,#+0
   \   00000064   0400000A           BEQ      ??DoPaste_4
    539                  MsgBoxYesNo(muitxt(ind_pmt_copy), CB_Paste);
   \   00000068   4300A0E3           MOV      R0,#+67
   \                     ??DoPaste_3:
   \   0000006C   ........           _BLF     ??muitxt,??muitxt??rA
   \   00000070   1C109FE5           LDR      R1,??DoPaste_1+0xC  ;; ??CB_Paste
   \   00000074   ........           _BLF     ??MsgBoxYesNo,??MsgBoxYesNo??rA
   \   00000078   0080BDE8           POP      {PC}
    540                else
    541                  CB_Paste(IDYES);
   \                     ??DoPaste_4:
   \   0000007C   ........           LDR      R0,??DataTable50  ;; ??S_Paste
   \   00000080   080100EF           SWI      +264
   \   00000084   0080BDE8           POP      {PC}             ;; return
   \                     ??DoPaste_1:
   \   00000088   ........           DC32     buffer + 4
   \   0000008C   ........           DC32     CONFIG_CONFIRM_MOVE
   \   00000090   ........           DC32     CONFIG_CONFIRM_COPY
   \   00000094   ........           DC32     ??CB_Paste
    542              }
    543            }
    544          }
    545          
    546          
    547          
    548          

   \                                 In segment CODE, align 4, keep-with-next
    549          void CB_CS(int id)
    550          {
   \                     ??CB_CS:
   \   00000000   00402DE9           PUSH     {LR}
    551            if (id==1)
   \   00000004   010050E3           CMP      R0,#+1
   \   00000008   0080BD18           POPNE    {PC}
    552            {
    553              if (!LoadCS(pathbuf))
   \   0000000C   ........           LDR      R0,??DataTable77  ;; ExitTimer + 1660
   \   00000010   ........           _BLF     ??LoadCS,??LoadCS??rA
   \   00000014   000050E3           CMP      R0,#+0
   \   00000018   0300001A           BNE      ??CB_CS_1
    554                MsgBoxError(muitxt(ind_err_badformat));
   \   0000001C   5600A0E3           MOV      R0,#+86
   \   00000020   ........           _BLF     ??muitxt,??muitxt??rA
   \   00000024   0040BDE8           POP      {LR}             ;; Pop
   \   00000028   ........           _BF      ??MsgBoxError,??MsgBoxError??rA  ;; tailcall
    555              else
    556              {
    557                SaveCS(NULL);
   \                     ??CB_CS_1:
   \   0000002C   0000A0E3           MOV      R0,#+0
   \   00000030   ........           _BLF     ??SaveCS,??SaveCS??rA
    558                RedrawGUI=1;
   \   00000034   ........           LDR      R0,??DataTable52  ;; RedrawGUI
   \   00000038   0110A0E3           MOV      R1,#+1
   \   0000003C   001080E5           STR      R1,[R0, #+0]
    559              }
    560            }
    561          }
   \   00000040   0080BDE8           POP      {PC}             ;; return
    562          

   \                                 In segment CODE, align 4, keep-with-next
    563          void CB_LG(int id)
    564          {
   \                     ??CB_LG:
   \   00000000   70402DE9           PUSH     {R4-R6,LR}
    565            if (id==1)
   \   00000004   010050E3           CMP      R0,#+1
   \   00000008   7080BD18           POPNE    {R4-R6,PC}
    566            {
    567              if (!LoadMUI(pathbuf))
   \   0000000C   ........           LDR      R0,??DataTable77  ;; ExitTimer + 1660
   \   00000010   ........           _BLF     ??LoadMUI,??LoadMUI??rA
   \   00000014   000050E3           CMP      R0,#+0
   \   00000018   0300001A           BNE      ??CB_LG_1
    568                MsgBoxError(muitxt(ind_err_badformat));
   \   0000001C   5600A0E3           MOV      R0,#+86
   \   00000020   ........           _BLF     ??muitxt,??muitxt??rA
   \   00000024   ........           _BLF     ??MsgBoxError,??MsgBoxError??rA
   \   00000028   7080BDE8           POP      {R4-R6,PC}
    569              else
    570              {
    571                SaveMUI(NULL);
    572                snwprintf(msgbuf, MAXELEMS(msgbuf),_lsls, muitxt(ind_lng), muitxt(ind_lngname));
   \                     ??CB_LG_1:
   \   0000002C   ........           LDR      R6,??DataTable122  ;; ExitTimer
   \   00000030   0000A0E3           MOV      R0,#+0
   \   00000034   ........           _BLF     ??SaveMUI,??SaveMUI??rA
   \   00000038   0700A0E3           MOV      R0,#+7
   \   0000003C   ........           _BLF     ??muitxt,??muitxt??rA
   \   00000040   0040A0E1           MOV      R4,R0
   \   00000044   0600A0E3           MOV      R0,#+6
   \   00000048   ........           _BLF     ??muitxt,??muitxt??rA
   \   0000004C   24209FE5           LDR      R2,??CB_LG_2     ;; _lsls
   \   00000050   0030A0E1           MOV      R3,R0
   \   00000054   9F5FA0E3           MOV      R5,#+636
   \   00000058   10002DE9           PUSH     {R4}
   \   0000005C   401FA0E3           MOV      R1,#+256
   \   00000060   060085E0           ADD      R0,R5,R6
   \   00000064   150100EF           SWI      +277
    573                MsgBoxError(msgbuf);
   \   00000068   060085E0           ADD      R0,R5,R6
   \   0000006C   ........           _BLF     ??MsgBoxError,??MsgBoxError??rA
   \   00000070   04D08DE2           ADD      SP,SP,#+4
    574              }
    575            }
    576          }
   \   00000074   7080BDE8           POP      {R4-R6,PC}       ;; return
   \                     ??CB_LG_2:
   \   00000078   ........           DC32     _lsls
    577          
    578          

   \                                 In segment CODE, align 4, keep-with-next
    579          void S_ZipOpen(void)
    580          {
    581            if (arcpathbuf[0])
   \                     ??S_ZipOpen:
   \   00000000   ........           LDR      R0,??DataTable59  ;; ExitTimer + 4
   \   00000004   30402DE9           PUSH     {R4,R5,LR}
   \   00000008   B000D0E1           LDRH     R0,[R0, #+0]
   \   0000000C   000050E3           CMP      R0,#+0
   \   00000010   3080BD08           POPEQ    {R4,R5,PC}
    582            {
    583              int zerr = OpenTabZip(curtab, arcpathbuf);
   \   00000014   ........           LDR      R4,??DataTable122  ;; ExitTimer
   \   00000018   041084E2           ADD      R1,R4,#+4
   \   0000001C   600294E5           LDR      R0,[R4, #+608]
   \   00000020   ........           _BLF     ??OpenTabZip,??OpenTabZip??rA
    584              if (zerr == UNZ_OK)
   \   00000024   000050E3           CMP      R0,#+0
   \   00000028   0800001A           BNE      ??S_ZipOpen_1
    585              {
    586                cd(curtab, (wchar_t *)str_empty, -1);
   \   0000002C   ........           LDR      R1,??DataTable104  ;; str_empty
   \   00000030   600294E5           LDR      R0,[R4, #+608]
   \   00000034   0020E0E3           MVN      R2,#+0
   \   00000038   ........           _BLF     ??cd,??cd??rA
    587                SetCurTabIndex(0, 0);
   \   0000003C   600294E5           LDR      R0,[R4, #+608]
   \   00000040   0020A0E3           MOV      R2,#+0
   \   00000044   0010A0E3           MOV      R1,#+0
   \   00000048   ........           BL       ??SetTabIndex
   \   0000004C   0B0000EA           B        ??S_ZipOpen_2
    588              }
    589              else if (zerr != -11111) // ignore propr_stop
   \                     ??S_ZipOpen_1:
   \   00000050   6610E0E3           MVN      R1,#+102
   \   00000054   AC1DC1E3           BIC      R1,R1,#0x2B00
   \   00000058   010050E1           CMP      R0,R1
   \   0000005C   0700000A           BEQ      ??S_ZipOpen_2
    590              {
    591                snwprintf(msgbuf, MAXELEMS(msgbuf), L"OpenZip error %i", zerr);
   \   00000060   28209FE5           LDR      R2,??S_ZipOpen_3  ;; `?<Constant L"\\x4f\\x70\\x65\\x6e\\x5a\\x69\\x70\\x20\\`
   \   00000064   9F5FA0E3           MOV      R5,#+636
   \   00000068   0030A0E1           MOV      R3,R0
   \   0000006C   401FA0E3           MOV      R1,#+256
   \   00000070   040085E0           ADD      R0,R5,R4
   \   00000074   150100EF           SWI      +277
    592                MsgBoxError(msgbuf);
   \   00000078   040085E0           ADD      R0,R5,R4
   \   0000007C   ........           _BLF     ??MsgBoxError,??MsgBoxError??rA
    593              }
    594              RedrawGUI=1;
   \                     ??S_ZipOpen_2:
   \   00000080   ........           LDR      R0,??DataTable62  ;; RedrawGUI
   \   00000084   0110A0E3           MOV      R1,#+1
   \   00000088   001080E5           STR      R1,[R0, #+0]
    595            }
    596          }
   \   0000008C   3080BDE8           POP      {R4,R5,PC}       ;; return
   \                     ??S_ZipOpen_3:
   \   00000090   ........           DC32     `?<Constant L"\\x4f\\x70\\x65\\x6e\\x5a\\x69\\x70\\x20\\`
    597          

   \                                 In segment CODE, align 4, keep-with-next
    598          void S_7ZOpen(void)
    599          {
    600            if (arcpathbuf[0])
   \                     ??S_7ZOpen:
   \   00000000   ........           LDR      R0,??DataTable59  ;; ExitTimer + 4
   \   00000004   10402DE9           PUSH     {R4,LR}
   \   00000008   B000D0E1           LDRH     R0,[R0, #+0]
   \   0000000C   000050E3           CMP      R0,#+0
   \   00000010   1080BD08           POPEQ    {R4,PC}
    601            {
    602              int zerr = OpenTab7Z(curtab, arcpathbuf);
   \   00000014   ........           LDR      R4,??DataTable122  ;; ExitTimer
   \   00000018   041084E2           ADD      R1,R4,#+4
   \   0000001C   600294E5           LDR      R0,[R4, #+608]
   \   00000020   ........           _BLF     ??OpenTab7Z,??OpenTab7Z??rA
    603              if (zerr == SZ_OK)
   \   00000024   000050E3           CMP      R0,#+0
   \   00000028   0800001A           BNE      ??S_7ZOpen_1
    604              {
    605                cd(curtab, (wchar_t *)str_empty, -1);
   \   0000002C   ........           LDR      R1,??DataTable104  ;; str_empty
   \   00000030   600294E5           LDR      R0,[R4, #+608]
   \   00000034   0020E0E3           MVN      R2,#+0
   \   00000038   ........           _BLF     ??cd,??cd??rA
    606                SetCurTabIndex(0, 0);
   \   0000003C   600294E5           LDR      R0,[R4, #+608]
   \   00000040   0020A0E3           MOV      R2,#+0
   \   00000044   0010A0E3           MOV      R1,#+0
   \   00000048   ........           BL       ??SetTabIndex
   \   0000004C   080000EA           B        ??S_7ZOpen_2
    607              }
    608              else if (zerr != -11111) // ignore propr_stop
   \                     ??S_7ZOpen_1:
   \   00000050   6610E0E3           MVN      R1,#+102
   \   00000054   AC1DC1E3           BIC      R1,R1,#0x2B00
   \   00000058   010050E1           CMP      R0,R1
   \   0000005C   0400000A           BEQ      ??S_7ZOpen_2
    609              {
    610                snwprintf(msgbuf, MAXELEMS(msgbuf), L"7Zip error %i", zerr);
   \   00000060   1C209FE5           LDR      R2,??S_7ZOpen_3  ;; `?<Constant L"\\x37\\x5a\\x69\\x70\\x20\\x65\\x72\\x72\\`
   \   00000064   0030A0E1           MOV      R3,R0
   \   00000068   18009FE5           LDR      R0,??S_7ZOpen_3+0x4  ;; ExitTimer + 636
   \   0000006C   401FA0E3           MOV      R1,#+256
   \   00000070   150100EF           SWI      +277
    611                //MsgBoxError(msgbuf);
    612              }
    613              RedrawGUI=1;
   \                     ??S_7ZOpen_2:
   \   00000074   ........           LDR      R0,??DataTable62  ;; RedrawGUI
   \   00000078   0110A0E3           MOV      R1,#+1
   \   0000007C   001080E5           STR      R1,[R0, #+0]
    614            }
    615          }
   \   00000080   1080BDE8           POP      {R4,PC}          ;; return
   \                     ??S_7ZOpen_3:
   \   00000084   ........           DC32     `?<Constant L"\\x37\\x5a\\x69\\x70\\x20\\x65\\x72\\x72\\`
   \   00000088   ........           DC32     ExitTimer + 636
    616          
    617          
    618          

   \                                 In segment CODE, align 4, keep-with-next
    619          static int EF_OnEnter(void *, BOOK * bk)
    620          {
   \                     ??EF_OnEnter:
   \   00000000   10402DE9           PUSH     {R4,LR}
   \   00000004   0140A0E1           MOV      R4,R1
    621            MyBOOK *mbk=(MyBOOK *)bk;
    622            if (mbk->subr)
   \   00000008   3C0094E5           LDR      R0,[R4, #+60]
   \   0000000C   000050E3           CMP      R0,#+0
   \   00000010   0400000A           BEQ      ??EF_OnEnter_1
    623              DataBrowser_ExecuteSubroutine(mbk->subr,DB_CMD_DESTROY_SUBROUTINE,0);
   \   00000014   ........           LDR      R0,??DataTable64  ;; DB_CMD_DESTROY_SUBROUTINE
   \   00000018   0020A0E3           MOV      R2,#+0
   \   0000001C   001090E5           LDR      R1,[R0, #+0]
   \   00000020   3C0094E5           LDR      R0,[R4, #+60]
   \   00000024   CF0200EF           SWI      +719
    624            mbk->subr=DataBrowser_CreateSubExecute(BookObj_GetBookID(&mbk->book), mbk->fitem);
   \                     ??EF_OnEnter_1:
   \   00000028   0400A0E1           MOV      R0,R4
   \   0000002C   FA0100EF           SWI      +506
   \   00000030   381094E5           LDR      R1,[R4, #+56]
   \   00000034   CE0200EF           SWI      +718
   \   00000038   3C0084E5           STR      R0,[R4, #+60]
    625            DataBrowser_ExecuteSubroutine(mbk->subr,DB_CMD_RUN,0);
   \   0000003C   24009FE5           LDR      R0,??EF_OnEnter_2  ;; DB_CMD_RUN
   \   00000040   0020A0E3           MOV      R2,#+0
   \   00000044   001090E5           LDR      R1,[R0, #+0]
   \   00000048   3C0094E5           LDR      R0,[R4, #+60]
   \   0000004C   CF0200EF           SWI      +719
    626            FILEITEM_Destroy(mbk->fitem);
   \   00000050   380094E5           LDR      R0,[R4, #+56]
   \   00000054   B40200EF           SWI      +692
    627            mbk->fitem=NULL;
   \   00000058   0000A0E3           MOV      R0,#+0
   \   0000005C   380084E5           STR      R0,[R4, #+56]
    628            return (1);
   \   00000060   0100A0E3           MOV      R0,#+1
   \   00000064   1080BDE8           POP      {R4,PC}          ;; return
   \                     ??EF_OnEnter_2:
   \   00000068   ........           DC32     DB_CMD_RUN
    629          }
    630          

   \                                 In segment CODE, align 4, keep-with-next
    631          static int EF_OnExit(void *, BOOK * bk)
    632          {
    633            MyBOOK *mbk=(MyBOOK *)bk;
    634            WriteLog("EF_OnExit");
    635            DataBrowser_ExecuteSubroutine(mbk->subr,DB_CMD_DESTROY_SUBROUTINE,0);
   \                     ??EF_OnExit:
   \   00000000   ........           LDR      R0,??DataTable64  ;; DB_CMD_DESTROY_SUBROUTINE
   \   00000004   10402DE9           PUSH     {R4,LR}
   \   00000008   0020A0E3           MOV      R2,#+0
   \   0000000C   0140A0E1           MOV      R4,R1
   \   00000010   001090E5           LDR      R1,[R0, #+0]
   \   00000014   3C0094E5           LDR      R0,[R4, #+60]
   \   00000018   CF0200EF           SWI      +719
    636            mbk->subr=NULL;
   \   0000001C   0000A0E3           MOV      R0,#+0
   \   00000020   3C0084E5           STR      R0,[R4, #+60]
    637            return (1);  
   \   00000024   0100A0E3           MOV      R0,#+1
   \   00000028   1080BDE8           POP      {R4,PC}          ;; return
    638          }
    639          

   \                                 In segment CODE, align 4, keep-with-next
    640          static int EF_OnPreviuos(void *data, BOOK *bk)
    641          {
   \                     ??EF_OnPreviuos:
   \   00000000   00402DE9           PUSH     {LR}
   \   00000004   0100A0E1           MOV      R0,R1
    642            WriteLog("EF_OnPreviuos");
    643            BookObj_ReturnPage(bk,PREVIOUS_EVENT);
   \   00000008   ........           LDR      R1,??DataTable65  ;; PREVIOUS_EVENT
   \   0000000C   001091E5           LDR      R1,[R1, #+0]
   \   00000010   2E0100EF           SWI      +302
    644            return (1);
   \   00000014   0100A0E3           MOV      R0,#+1
   \   00000018   0080BDE8           POP      {PC}             ;; return
    645          }
    646          

   \                                 In segment DYN_PAGE, align 4, align-sorted
    647          const PAGE_MSG bk_msglst_execfile[] @ "DYN_PAGE"  = 
   \                     bk_msglst_execfile:
   \   00000000   42000000....       DC32 66, ??EF_OnEnter, 67, ??EF_OnExit, 77, ??EF_OnPreviuos, 64, 0H
   \              ....43000000
   \              ........4D00
   \              0000........
   \              400000000000
   \              0000        
    648          {
    649            PAGE_ENTER_EVENT_TAG,    EF_OnEnter,
    650            PAGE_EXIT_EVENT_TAG,     EF_OnExit,
    651            PREVIOUS_EVENT_TAG,      EF_OnPreviuos,
    652            NIL_EVENT_TAG,           NULL
    653          };
    654          

   \                                 In segment DATA_C, align 4, align-sorted
    655          const PAGE_DESC bk_execfile = {"MC_ExecuteFile_Page",0,bk_msglst_execfile};
   \                     bk_execfile:
   \   00000000   ........0000       DC32 `?<Constant "MC_ExecuteFile_Page">`, 0H, bk_msglst_execfile
   \              0000........
    656          

   \                                 In segment CODE, align 4, keep-with-next
    657          void DoExecFile(const wchar_t *path, const wchar_t *fname)
    658          {
   \                     ??DoExecFile:
   \   00000000   70402DE9           PUSH     {R4-R6,LR}
   \   00000004   0040A0E1           MOV      R4,R0
    659            MyBOOK *mbk=MCBook;
   \   00000008   ........           LDR      R0,??DataTable78  ;; MCBook
   \   0000000C   0150A0E1           MOV      R5,R1
   \   00000010   006090E5           LDR      R6,[R0, #+0]
    660            if (mbk->fitem)
   \   00000014   380096E5           LDR      R0,[R6, #+56]
   \   00000018   000050E3           CMP      R0,#+0
   \   0000001C   0000000A           BEQ      ??DoExecFile_1
    661              FILEITEM_Destroy(mbk->fitem);
   \   00000020   B40200EF           SWI      +692
    662            mbk->fitem=FILEITEM_Create();
   \                     ??DoExecFile_1:
   \   00000024   B30200EF           SWI      +691
   \   00000028   380086E5           STR      R0,[R6, #+56]
    663            FILEITEM_SetPathAndContentType(mbk->fitem,path);
   \   0000002C   0410A0E1           MOV      R1,R4
   \   00000030   D50200EF           SWI      +725
    664            FILEITEM_SetFnameAndContentType(mbk->fitem,fname);
   \   00000034   380096E5           LDR      R0,[R6, #+56]
   \   00000038   0510A0E1           MOV      R1,R5
   \   0000003C   D40200EF           SWI      +724
    665            BookObj_CallPage(&MCBook->book,&bk_execfile);
   \   00000040   ........           LDR      R0,??DataTable78  ;; MCBook
   \   00000044   08109FE5           LDR      R1,??DoExecFile_2  ;; bk_execfile
   \   00000048   000090E5           LDR      R0,[R0, #+0]
   \   0000004C   B80200EF           SWI      +696
    666          }
   \   00000050   7080BDE8           POP      {R4-R6,PC}       ;; return
   \                     ??DoExecFile_2:
   \   00000054   ........           DC32     bk_execfile
    667          

   \                                 In segment CODE, align 4, keep-with-next
    668          void ExecuteFile(wchar_t *fname, int, int)
    669          {
   \                     ??ExecuteFile:
   \   00000000   30402DE9           PUSH     {R4,R5,LR}
    670            wchar_t *name;
    671            wchar_t *w=wstrrchr(fname, '/');
   \   00000004   2F10A0E3           MOV      R1,#+47
   \   00000008   0040A0E1           MOV      R4,R0
   \   0000000C   AE0100EF           SWI      +430
   \   00000010   0050B0E1           MOVS     R5,R0
    672            if (w)
   \   00000014   3080BD08           POPEQ    {R4,R5,PC}
    673            {
    674              name=w+1;
    675              *w=0;
   \   00000018   0000A0E3           MOV      R0,#+0
   \   0000001C   B000C5E1           STRH     R0,[R5, #+0]
    676              DoExecFile(fname,name);
   \   00000020   021085E2           ADD      R1,R5,#+2
   \   00000024   0400A0E1           MOV      R0,R4
   \   00000028   ........           BL       ??DoExecFile
    677              *w='/';
   \   0000002C   2F00A0E3           MOV      R0,#+47
   \   00000030   B000C5E1           STRH     R0,[R5, #+0]
    678            }
    679          }
   \   00000034   3080BDE8           POP      {R4,R5,PC}       ;; return
    680          

   \                                 In segment CODE, align 4, keep-with-next
    681          void _Open(int isSysOpen)
    682          {
    683            if (_CurIndex < 0) return;
   \                     ??_Open:
   \   00000000   ........           LDR      R3,??DataTable122  ;; ExitTimer
   \   00000004   30402DE9           PUSH     {R4,R5,LR}
   \   00000008   0040A0E1           MOV      R4,R0
   \   0000000C   600293E5           LDR      R0,[R3, #+608]
   \   00000010   000183E0           ADD      R0,R3,R0, LSL #+2
   \   00000014   640290E5           LDR      R0,[R0, #+612]
   \   00000018   F410D0E1           LDRSH    R1,[R0, #+4]
   \   0000001C   810080E0           ADD      R0,R0,R1, LSL #+1
   \   00000020   F600D0E1           LDRSH    R0,[R0, #+6]
   \   00000024   000050E3           CMP      R0,#+0
   \   00000028   3080BD48           POPMI    {R4,R5,PC}
    684            
    685            FILEINF* file = _CurFile();
   \   0000002C   ........           LDR      R0,??DataTable131  ;; ExitTimer + 608
   \   00000030   000090E5           LDR      R0,[R0, #+0]
   \   00000034   ........           BL       ??_CurTabFile
   \   00000038   0050B0E1           MOVS     R5,R0
    686            if (file && pathbuf && wstrlen(file->ws_name))
   \   0000003C   3080BD08           POPEQ    {R4,R5,PC}
   \   00000040   200095E5           LDR      R0,[R5, #+32]
   \   00000044   570100EF           SWI      +343
   \   00000048   000050E3           CMP      R0,#+0
   \   0000004C   3080BD08           POPEQ    {R4,R5,PC}
    687            {
    688              CurFullPath(file->ws_name);
   \   00000050   200095E5           LDR      R0,[R5, #+32]
   \   00000054   ........           BL       ??CurFullPath
    689              if (file->attr & FA_DIRECTORY)
   \   00000058   B800D5E1           LDRH     R0,[R5, #+8]
   \   0000005C   400C10E3           TST      R0,#0x4000
   \   00000060   0900000A           BEQ      ??_Open_1
    690                cd(curtab, pathbuf, _CurDrv);  
   \   00000064   ........           LDR      R3,??DataTable122  ;; ExitTimer
   \   00000068   600293E5           LDR      R0,[R3, #+608]
   \   0000006C   001183E0           ADD      R1,R3,R0, LSL #+2
   \   00000070   641291E5           LDR      R1,[R1, #+612]
   \   00000074   F420D1E1           LDRSH    R2,[R1, #+4]
   \   00000078   7C10A0E3           MOV      R1,#+124
   \   0000007C   601E81E3           ORR      R1,R1,#0x600
   \   00000080   031081E0           ADD      R1,R1,R3
   \   00000084   ........           _BLF     ??cd,??cd??rA
   \   00000088   3080BDE8           POP      {R4,R5,PC}
    691              else
    692              {
    693                wchar_t* sz = GetFileExt(file->ws_name);
   \                     ??_Open_1:
   \   0000008C   200095E5           LDR      R0,[R5, #+32]
   \   00000090   ........           _BLF     ??GetFileExt,??GetFileExt??rA
   \   00000094   0050B0E1           MOVS     R5,R0
    694                if (sz)
   \   00000098   1D00000A           BEQ      ??_Open_2
    695                {
    696                  if (!wstrcmpni(sz, mcbm_ext, MAX_EXT))
   \   0000009C   ........           LDR      R1,??DataTable71  ;; mcbm_ext
   \   000000A0   0820A0E3           MOV      R2,#+8
   \   000000A4   9A0200EF           SWI      +666
   \   000000A8   000050E3           CMP      R0,#+0
   \   000000AC   0200001A           BNE      ??_Open_3
    697                  {
    698                    UseBM(pathbuf);
   \   000000B0   ........           LDR      R0,??DataTable77  ;; ExitTimer + 1660
   \   000000B4   ........           _BLF     ??UseBM,??UseBM??rA
    699                    return;
   \   000000B8   3080BDE8           POP      {R4,R5,PC}
    700                  }
    701                  else if (!wstrcmpni(sz, mccs_ext, MAX_EXT))
   \                     ??_Open_3:
   \   000000BC   18119FE5           LDR      R1,??_Open_4     ;; mccs_ext
   \   000000C0   0820A0E3           MOV      R2,#+8
   \   000000C4   0500A0E1           MOV      R0,R5
   \   000000C8   9A0200EF           SWI      +666
   \   000000CC   000050E3           CMP      R0,#+0
   \   000000D0   0400001A           BNE      ??_Open_5
    702                  {
    703                    MsgBoxYesNo(muitxt(ind_pmt_impcs), CB_CS);
   \   000000D4   4900A0E3           MOV      R0,#+73
   \   000000D8   ........           _BLF     ??muitxt,??muitxt??rA
   \   000000DC   FC109FE5           LDR      R1,??_Open_4+0x4  ;; ??CB_CS
   \   000000E0   ........           _BLF     ??MsgBoxYesNo,??MsgBoxYesNo??rA
   \   000000E4   3080BDE8           POP      {R4,R5,PC}
    704                    return;
    705                  }
    706                  else if (!wstrcmpni(sz, mclg_ext, MAX_EXT))
   \                     ??_Open_5:
   \   000000E8   F4109FE5           LDR      R1,??_Open_4+0x8  ;; mclg_ext
   \   000000EC   0820A0E3           MOV      R2,#+8
   \   000000F0   0500A0E1           MOV      R0,R5
   \   000000F4   9A0200EF           SWI      +666
   \   000000F8   000050E3           CMP      R0,#+0
   \   000000FC   0400001A           BNE      ??_Open_2
    707                  {
    708                    MsgBoxYesNo(muitxt(ind_pmt_implg), CB_LG);
   \   00000100   4A00A0E3           MOV      R0,#+74
   \   00000104   ........           _BLF     ??muitxt,??muitxt??rA
   \   00000108   D8109FE5           LDR      R1,??_Open_4+0xC  ;; ??CB_LG
   \   0000010C   ........           _BLF     ??MsgBoxYesNo,??MsgBoxYesNo??rA
    709                    return;
   \   00000110   3080BDE8           POP      {R4,R5,PC}
    710                  }
    711                }
    712                if (!isSysOpen && CONFIG_ZIP_ENABLE && !IsInArchive() && IsItZipFile(pathbuf))
   \                     ??_Open_2:
   \   00000114   000054E3           CMP      R4,#+0
   \   00000118   2700001A           BNE      ??_Open_6
   \   0000011C   C8009FE5           LDR      R0,??_Open_4+0x10  ;; CONFIG_ZIP_ENABLE
   \   00000120   000090E5           LDR      R0,[R0, #+0]
   \   00000124   000050E3           CMP      R0,#+0
   \   00000128   0F00000A           BEQ      ??_Open_7
   \   0000012C   ........           _BLF     ??IsInArchive,??IsInArchive??rA
   \   00000130   000050E3           CMP      R0,#+0
   \   00000134   0C00001A           BNE      ??_Open_7
   \   00000138   ........           LDR      R0,??DataTable77  ;; ExitTimer + 1660
   \   0000013C   ........           _BLF     ??IsItZipFile,??IsItZipFile??rA
   \   00000140   000050E3           CMP      R0,#+0
   \   00000144   0800000A           BEQ      ??_Open_7
    713                {
    714                  wstrcpy(arcpathbuf, pathbuf);
   \   00000148   ........           LDR      R3,??DataTable122  ;; ExitTimer
   \   0000014C   7C00A0E3           MOV      R0,#+124
   \   00000150   600E80E3           ORR      R0,R0,#0x600
   \   00000154   031080E0           ADD      R1,R0,R3
   \   00000158   040083E2           ADD      R0,R3,#+4
   \   0000015C   520100EF           SWI      +338
    715                  SUBPROC((void*)S_ZipOpen);
   \   00000160   88009FE5           LDR      R0,??_Open_4+0x14  ;; ??S_ZipOpen
   \   00000164   080100EF           SWI      +264
   \   00000168   3080BDE8           POP      {R4,R5,PC}
    716                  return;
    717                }
   \                     ??_Open_7:
   \   0000016C   80009FE5           LDR      R0,??_Open_4+0x18  ;; CONFIG_7Z_ENABLE
   \   00000170   000090E5           LDR      R0,[R0, #+0]
   \   00000174   000050E3           CMP      R0,#+0
   \   00000178   0F00000A           BEQ      ??_Open_6
   \   0000017C   ........           _BLF     ??IsInArchive,??IsInArchive??rA
   \   00000180   000050E3           CMP      R0,#+0
   \   00000184   0C00001A           BNE      ??_Open_6
   \   00000188   ........           LDR      R0,??DataTable77  ;; ExitTimer + 1660
   \   0000018C   ........           _BLF     ??IsIt7ZipFile,??IsIt7ZipFile??rA
   \   00000190   000050E3           CMP      R0,#+0
   \   00000194   0800000A           BEQ      ??_Open_6
    718                if (!isSysOpen && CONFIG_7Z_ENABLE && !IsInArchive() && IsIt7ZipFile(pathbuf))
    719                {
    720                  wstrcpy(arcpathbuf, pathbuf);
   \   00000198   ........           LDR      R3,??DataTable122  ;; ExitTimer
   \   0000019C   7C00A0E3           MOV      R0,#+124
   \   000001A0   600E80E3           ORR      R0,R0,#0x600
   \   000001A4   031080E0           ADD      R1,R0,R3
   \   000001A8   040083E2           ADD      R0,R3,#+4
   \   000001AC   520100EF           SWI      +338
    721                  WriteLog("открываем 7z");
    722                  SUBPROC((void*)S_7ZOpen);
   \   000001B0   40009FE5           LDR      R0,??_Open_4+0x1C  ;; ??S_7ZOpen
   \   000001B4   080100EF           SWI      +264
    723                  return;
   \   000001B8   3080BDE8           POP      {R4,R5,PC}
    724                }
    725                if (IsInArchive())
   \                     ??_Open_6:
   \   000001BC   ........           _BLF     ??IsInArchive,??IsInArchive??rA
   \   000001C0   000050E3           CMP      R0,#+0
   \   000001C4   3080BD18           POPNE    {R4,R5,PC}
    726                {
    727                  //SUBPROC((void*)S_ZipOpenFile);
    728                  return;
    729                }
    730                else
    731                {
    732                  ExecuteFile(pathbuf, 0, 0);
   \   000001C8   ........           LDR      R0,??DataTable77  ;; ExitTimer + 1660
   \   000001CC   0020A0E3           MOV      R2,#+0
   \   000001D0   0010A0E3           MOV      R1,#+0
   \   000001D4   ........           BL       ??ExecuteFile
   \   000001D8   3080BDE8           POP      {R4,R5,PC}       ;; return
   \                     ??_Open_4:
   \   000001DC   ........           DC32     mccs_ext
   \   000001E0   ........           DC32     ??CB_CS
   \   000001E4   ........           DC32     mclg_ext
   \   000001E8   ........           DC32     ??CB_LG
   \   000001EC   ........           DC32     CONFIG_ZIP_ENABLE
   \   000001F0   ........           DC32     ??S_ZipOpen
   \   000001F4   ........           DC32     CONFIG_7Z_ENABLE
   \   000001F8   ........           DC32     ??S_7ZOpen
    733                  WriteLog(pathbuf);
    734                }
    735              }
    736            }
    737          }
    738          

   \                                 In segment CODE, align 4, keep-with-next
    739          void DoOpen()
    740          {
    741          	_Open(0);
   \                     ??DoOpen:
   \   00000000   0000A0E3           MOV      R0,#+0
   \   00000004   ........           B        ??_Open          ;; tailcall
    742          }
    743          

   \                                 In segment CODE, align 4, keep-with-next
    744          void DoSysOpen()
    745          {
    746          	_Open(1);
   \                     ??DoSysOpen:
   \   00000000   0100A0E3           MOV      R0,#+1
   \   00000004   ........           B        ??_Open          ;; tailcall
    747          }

   \                                 In segment DATA_Z, align 4, align-sorted
    748          
    749          u16 ExitTimer;
   \                     ExitTimer:
   \   00000000                      DS8 2
   \   00000002                      DS8 2
   \                     arcpathbuf:
   \   00000004                      DS8 512
   \                     Drives:
   \   00000204                      DS8 72
   \                     back_tab:
   \   0000024C                      DS8 4
   \                     progr_stop:
   \   00000250                      DS8 4
   \                     progr_act:
   \   00000254                      DS8 4
   \                     progr_max:
   \   00000258                      DS8 4
   \                     progr_start:
   \   0000025C                      DS8 4
   \                     curtab:
   \   00000260                      DS8 4
   \                     tabs:
   \   00000264                      DS8 12
   \                     FileListBase:
   \   00000270                      DS8 12
   \                     msgbuf:
   \   0000027C                      DS8 512
   \                     mcpath:
   \   0000047C                      DS8 512
   \                     pathbuf:
   \   0000067C                      DS8 512

   \                                 In segment DATA_Z, align 4, align-sorted
   \                     szLastNewFile:
   \   00000000                      DS8 512

   \                                 In segment DATA_Z, align 4, align-sorted
   \                     szLastNewDir:
   \   00000000                      DS8 512

   \                                 In segment DATA_Z, align 4, align-sorted
   \                     wsbuf:
   \   00000000                      DS8 1024

   \                                 In segment DATA_Z, align 4, align-sorted
   \                     progr_cur:
   \   00000000                      DS8 4

   \                                 In segment DATA_Z, align 4, align-sorted
   \                     progrsp_max:
   \   00000000                      DS8 4
   \                     progrsp_cur:
   \   00000004                      DS8 4

   \                                 In segment DATA_Z, align 4, align-sorted
   \                     progrsp_start:
   \   00000000                      DS8 4

   \                                 In segment DATA_Z, align 4, align-sorted
   \                     in_open_path:
   \   00000000                      DS8 512
    750          
    751          void DoExitIdYes(u16 , LPARAM );
    752          void ExitFrom7Z();

   \                                 In segment CODE, align 4, keep-with-next
    753          void CB_Exit(int id)
    754          {
   \                     ??CB_Exit:
   \   00000000   10402DE9           PUSH     {R4,LR}
    755            if (id == IDYES)
   \   00000004   010050E3           CMP      R0,#+1
   \   00000008   1080BD18           POPNE    {R4,PC}
    756            {
    757              Terminate = progr_stop = 1;
   \   0000000C   BC109FE5           LDR      R1,??CB_Exit_1   ;; ExitTimer + 592
   \   00000010   000081E5           STR      R0,[R1, #+0]
   \   00000014   B8109FE5           LDR      R1,??CB_Exit_1+0x4  ;; Terminate
   \   00000018   000081E5           STR      R0,[R1, #+0]
    758              if (!Busy)
   \   0000001C   B4009FE5           LDR      R0,??CB_Exit_1+0x8  ;; Busy
   \   00000020   000090E5           LDR      R0,[R0, #+0]
   \   00000024   000050E3           CMP      R0,#+0
   \   00000028   2000001A           BNE      ??CB_Exit_2
    759              {
    760                // Выходим из зипа на текущем табе с восстановлением позиции
    761                if (IsInArchive()==ZIP_ARCH) ExitFromZip();
   \   0000002C   ........           _BLF     ??IsInArchive,??IsInArchive??rA
   \   00000030   010050E3           CMP      R0,#+1
   \   00000034   0100001A           BNE      ??CB_Exit_3
   \   00000038   ........           BL       ??ExitFromZip
   \   0000003C   030000EA           B        ??CB_Exit_4
    762                else if (IsInArchive()==_7Z_ARCH) ExitFrom7Z();
   \                     ??CB_Exit_3:
   \   00000040   ........           _BLF     ??IsInArchive,??IsInArchive??rA
   \   00000044   020050E3           CMP      R0,#+2
   \   00000048   0000001A           BNE      ??CB_Exit_4
   \   0000004C   ........           BL       ??ExitFrom7Z
    763                
    764                // Закрываем остальные зипы при выходе
    765                for (int i = 0; i < MAX_TABS; i++)
   \                     ??CB_Exit_4:
   \   00000050   0040A0E3           MOV      R4,#+0
    766                {
    767                  if (i != curtab)
   \                     ??CB_Exit_5:
   \   00000054   80009FE5           LDR      R0,??CB_Exit_1+0xC  ;; ExitTimer + 608
   \   00000058   000090E5           LDR      R0,[R0, #+0]
   \   0000005C   000054E1           CMP      R4,R0
   \   00000060   0B00000A           BEQ      ??CB_Exit_6
    768                  {
    769                    if (IsArchiveOpened(i)==ZIP_ARCH) CloseTabZip(i);
   \   00000064   0400A0E1           MOV      R0,R4
   \   00000068   ........           _BLF     ??IsArchiveOpened,??IsArchiveOpened??rA
   \   0000006C   010050E3           CMP      R0,#+1
   \   00000070   0400A0E1           MOV      R0,R4
   \   00000074   0100001A           BNE      ??CB_Exit_7
   \   00000078   ........           _BLF     ??CloseTabZip,??CloseTabZip??rA
   \   0000007C   040000EA           B        ??CB_Exit_6
    770                    else if (IsArchiveOpened(i)==_7Z_ARCH) CloseTab7Z(i);
   \                     ??CB_Exit_7:
   \   00000080   ........           _BLF     ??IsArchiveOpened,??IsArchiveOpened??rA
   \   00000084   020050E3           CMP      R0,#+2
   \   00000088   0100001A           BNE      ??CB_Exit_6
   \   0000008C   0400A0E1           MOV      R0,R4
   \   00000090   ........           _BLF     ??CloseTab7Z,??CloseTab7Z??rA
    771                  }
    772                }
   \                     ??CB_Exit_6:
   \   00000094   014084E2           ADD      R4,R4,#+1
   \   00000098   020054E3           CMP      R4,#+2
   \   0000009C   ECFFFFBA           BLT      ??CB_Exit_5
    773                  
    774            
    775            /*
    776            // Очищаем темп, если разрешено в конфиге
    777            if (CONFIG_DELETE_TEMP_FILES_ON_EXIT && tmp_files.count)
    778            {
    779              DeleteTempFiles();
    780              fn_free(&tmp_files);
    781            }*/
    782                FreeBook(&MCBook->book);
   \   000000A0   ........           LDR      R0,??DataTable78  ;; MCBook
   \   000000A4   000090E5           LDR      R0,[R0, #+0]
   \   000000A8   2F0100EF           SWI      +303
   \   000000AC   1080BDE8           POP      {R4,PC}
    783              }
    784              else ExitTimer=Timer_Set(3000,DoExitIdYes,0);
   \                     ??CB_Exit_2:
   \   000000B0   28109FE5           LDR      R1,??CB_Exit_1+0x10  ;; ??DoExitIdYes
   \   000000B4   0020A0E3           MOV      R2,#+0
   \   000000B8   B800A0E3           MOV      R0,#+184
   \   000000BC   B00E80E3           ORR      R0,R0,#0xB00
   \   000000C0   290100EF           SWI      +297
   \   000000C4   18109FE5           LDR      R1,??CB_Exit_1+0x14  ;; ExitTimer
   \   000000C8   B000C1E1           STRH     R0,[R1, #+0]
    785            }
    786          }
   \   000000CC   1080BDE8           POP      {R4,PC}          ;; return
   \                     ??CB_Exit_1:
   \   000000D0   ........           DC32     ExitTimer + 592
   \   000000D4   ........           DC32     Terminate
   \   000000D8   ........           DC32     Busy
   \   000000DC   ........           DC32     ExitTimer + 608
   \   000000E0   ........           DC32     ??DoExitIdYes
   \   000000E4   ........           DC32     ExitTimer
    787          

   \                                 In segment CODE, align 4, keep-with-next
    788          void DoExitIdYes(u16 id, LPARAM f)
    789          {
    790            CB_Exit(IDYES);
   \                     ??DoExitIdYes:
   \   00000000   0100A0E3           MOV      R0,#+1
   \   00000004   ........           B        ??CB_Exit        ;; tailcall
    791          }
    792          

   \                                 In segment CODE, align 4, keep-with-next
    793          void DoExit()
    794          {
    795            if (CONFIG_CONFIRM_EXIT)
   \                     ??DoExit:
   \   00000000   2C009FE5           LDR      R0,??DoExit_1    ;; CONFIG_CONFIRM_EXIT
   \   00000004   00402DE9           PUSH     {LR}
   \   00000008   000090E5           LDR      R0,[R0, #+0]
   \   0000000C   000050E3           CMP      R0,#+0
   \   00000010   0400000A           BEQ      ??DoExit_2
    796              MsgBoxYesNo(muitxt(ind_pmt_exit), CB_Exit);
   \   00000014   4800A0E3           MOV      R0,#+72
   \   00000018   ........           _BLF     ??muitxt,??muitxt??rA
   \   0000001C   14109FE5           LDR      R1,??DoExit_1+0x4  ;; ??CB_Exit
   \   00000020   0040BDE8           POP      {LR}             ;; Pop
   \   00000024   ........           _BF      ??MsgBoxYesNo,??MsgBoxYesNo??rA  ;; tailcall
    797            else
    798              CB_Exit(IDYES);
   \                     ??DoExit_2:
   \   00000028   0100A0E3           MOV      R0,#+1
   \   0000002C   0040BDE8           POP      {LR}             ;; Pop
   \   00000030   ........           B        ??CB_Exit        ;; tailcall
   \                     ??DoExit_1:
   \   00000034   ........           DC32     CONFIG_CONFIRM_EXIT
   \   00000038   ........           DC32     ??CB_Exit
    799          }
    800          

   \                                 In segment CODE, align 4, keep-with-next
    801          void DoCopy()
    802          {
    803            EnumSel(M_MoveCopy, FNT_COPY);
   \                     ??DoCopy:
   \   00000000   ........           LDR      R0,??DataTable115  ;; ??M_MoveCopy
   \   00000004   0110A0E3           MOV      R1,#+1
   \   00000008   ........           B        ??EnumSel        ;; tailcall
    804          }
    805          

   \                                 In segment CODE, align 4, keep-with-next
    806          void DoMove()
    807          {
   \                     ??DoMove:
   \   00000000   00402DE9           PUSH     {LR}
    808            if (IsInArchive()) return; // Пока не обрабатывается
   \   00000004   ........           _BLF     ??IsInArchive,??IsInArchive??rA
   \   00000008   000050E3           CMP      R0,#+0
   \   0000000C   0080BD18           POPNE    {PC}
    809            EnumSel(M_MoveCopy, FNT_MOVE);
   \   00000010   ........           LDR      R0,??DataTable115  ;; ??M_MoveCopy
   \   00000014   0210A0E3           MOV      R1,#+2
   \   00000018   ........           BL       ??EnumSel
    810          }
   \   0000001C   0080BDE8           POP      {PC}             ;; return
    811          

   \                                 In segment CODE, align 4, keep-with-next
    812          void DoSwapTab()
    813          {
    814            curtab++;
   \                     ??DoSwapTab:
   \   00000000   ........           LDR      R0,??DataTable131  ;; ExitTimer + 608
    815            if (curtab >= MAX_TABS) curtab = 0;
   \   00000004   ........           LDR      R1,??DataTable131  ;; ExitTimer + 608
   \   00000008   000090E5           LDR      R0,[R0, #+0]
   \   0000000C   010080E2           ADD      R0,R0,#+1
   \   00000010   020050E3           CMP      R0,#+2
   \   00000014   0000A0A3           MOVGE    R0,#+0
   \   00000018   000081E5           STR      R0,[R1, #+0]
    816            
    817            // Останавливаем скроллинг при смене таба
    818            //scfile = NULL;
    819          }
   \   0000001C   1EFF2FE1           BX       LR               ;; return
    820          
    821          

   \                                 In segment CODE, align 4, keep-with-next
    822          int cordrv(int num, int inc)
    823          {
    824            do
    825            {
    826              num = (MAX_DRV + num + inc) % MAX_DRV;
   \                     ??cordrv:
   \                     ??cordrv_1:
   \   00000000   34209FE5           LDR      R2,??cordrv_2    ;; 0x55555556
   \   00000004   000081E0           ADD      R0,R1,R0
   \   00000008   030080E2           ADD      R0,R0,#+3
   \   0000000C   9032CCE0           SMULL    R3,R12,R0,R2
   \   00000010   0330A0E3           MOV      R3,#+3
   \   00000014   A0CF8CE0           ADD      R12,R12,R0, LSR #+31
   \   00000018   930C0CE0           MUL      R12,R3,R12
    827            }
    828            while (!Drives[num].enabled);
   \   0000001C   ........           LDR      R3,??DataTable122  ;; ExitTimer
   \   00000020   0C0040E0           SUB      R0,R0,R12
   \   00000024   1820A0E3           MOV      R2,#+24
   \   00000028   923023E0           MLA      R3,R2,R0,R3
   \   0000002C   182293E5           LDR      R2,[R3, #+536]
   \   00000030   000052E3           CMP      R2,#+0
   \   00000034   F1FFFF0A           BEQ      ??cordrv_1
    829            return num;
   \   00000038   1EFF2FE1           BX       LR               ;; return
   \                     ??cordrv_2:
   \   0000003C   56555555           DC32     0x55555556
    830          }
    831          

   \                                 In segment CODE, align 4, keep-with-next
    832          void DoPrvDrv()
    833          {
    834            if (curtab < MAX_TABS && !IsInArchive())
   \                     ??DoPrvDrv:
   \   00000000   ........           LDR      R0,??DataTable131  ;; ExitTimer + 608
   \   00000004   10402DE9           PUSH     {R4,LR}
   \   00000008   000090E5           LDR      R0,[R0, #+0]
   \   0000000C   020050E3           CMP      R0,#+2
   \   00000010   1080BDA8           POPGE    {R4,PC}
   \   00000014   ........           _BLF     ??IsInArchive,??IsInArchive??rA
   \   00000018   000050E3           CMP      R0,#+0
   \   0000001C   1080BD18           POPNE    {R4,PC}
    835              SetCurTabDrv(cordrv(_CurDrv, -1));
   \   00000020   ........           LDR      R0,??DataTable122  ;; ExitTimer
   \   00000024   0010E0E3           MVN      R1,#+0
   \   00000028   604290E5           LDR      R4,[R0, #+608]
   \   0000002C   040180E0           ADD      R0,R0,R4, LSL #+2
   \   00000030   640290E5           LDR      R0,[R0, #+612]
   \   00000034   F400D0E1           LDRSH    R0,[R0, #+4]
   \   00000038   ........           BL       ??cordrv
   \   0000003C   0010A0E1           MOV      R1,R0
   \   00000040   0400A0E1           MOV      R0,R4
   \   00000044   ........           BL       ??SetTabDrv
    836          }
   \   00000048   1080BDE8           POP      {R4,PC}          ;; return
    837          

   \                                 In segment CODE, align 4, keep-with-next
    838          void DoNxtDrv()
    839          {
    840            if (curtab < MAX_TABS && !IsInArchive())
   \                     ??DoNxtDrv:
   \   00000000   ........           LDR      R0,??DataTable131  ;; ExitTimer + 608
   \   00000004   10402DE9           PUSH     {R4,LR}
   \   00000008   000090E5           LDR      R0,[R0, #+0]
   \   0000000C   020050E3           CMP      R0,#+2
   \   00000010   1080BDA8           POPGE    {R4,PC}
   \   00000014   ........           _BLF     ??IsInArchive,??IsInArchive??rA
   \   00000018   000050E3           CMP      R0,#+0
   \   0000001C   1080BD18           POPNE    {R4,PC}
    841              SetCurTabDrv(cordrv(_CurDrv, +1));
   \   00000020   ........           LDR      R0,??DataTable122  ;; ExitTimer
   \   00000024   0110A0E3           MOV      R1,#+1
   \   00000028   604290E5           LDR      R4,[R0, #+608]
   \   0000002C   040180E0           ADD      R0,R0,R4, LSL #+2
   \   00000030   640290E5           LDR      R0,[R0, #+612]
   \   00000034   F400D0E1           LDRSH    R0,[R0, #+4]
   \   00000038   ........           BL       ??cordrv
   \   0000003C   0010A0E1           MOV      R1,R0
   \   00000040   0400A0E1           MOV      R0,R4
   \   00000044   ........           BL       ??SetTabDrv
    842          }
   \   00000048   1080BDE8           POP      {R4,PC}          ;; return
    843          

   \                                 In segment CODE, align 4, keep-with-next
    844          void DoUp()
    845          {
    846            if (_CurIndex > 0 || CONFIG_LOOP_NAVIGATION_ENABLE)
   \                     ??DoUp:
   \   00000000   ........           LDR      R1,??DataTable122  ;; ExitTimer
   \   00000004   00402DE9           PUSH     {LR}
   \   00000008   600291E5           LDR      R0,[R1, #+608]
   \   0000000C   001181E0           ADD      R1,R1,R0, LSL #+2
   \   00000010   641291E5           LDR      R1,[R1, #+612]
   \   00000014   F400D1E1           LDRSH    R0,[R1, #+4]
   \   00000018   800081E0           ADD      R0,R1,R0, LSL #+1
   \   0000001C   F600D0E1           LDRSH    R0,[R0, #+6]
   \   00000020   010050E3           CMP      R0,#+1
   \   00000024   030000AA           BGE      ??DoUp_1
   \   00000028   ........           LDR      R0,??DataTable91  ;; CONFIG_LOOP_NAVIGATION_ENABLE
   \   0000002C   000090E5           LDR      R0,[R0, #+0]
   \   00000030   000050E3           CMP      R0,#+0
   \   00000034   0080BD08           POPEQ    {PC}
    847              SetCurTabIndex(--_CurIndex, 1);
   \                     ??DoUp_1:
   \   00000038   ........           LDR      R1,??DataTable122  ;; ExitTimer
   \   0000003C   600291E5           LDR      R0,[R1, #+608]
   \   00000040   001181E0           ADD      R1,R1,R0, LSL #+2
   \   00000044   641291E5           LDR      R1,[R1, #+612]
   \   00000048   F420D1E1           LDRSH    R2,[R1, #+4]
   \   0000004C   F430D1E1           LDRSH    R3,[R1, #+4]
   \   00000050   822081E0           ADD      R2,R1,R2, LSL #+1
   \   00000054   833081E0           ADD      R3,R1,R3, LSL #+1
   \   00000058   F630D3E1           LDRSH    R3,[R3, #+6]
   \   0000005C   013043E2           SUB      R3,R3,#+1
   \   00000060   B630C2E1           STRH     R3,[R2, #+6]
   \   00000064   F430D1E1           LDRSH    R3,[R1, #+4]
   \   00000068   0120A0E3           MOV      R2,#+1
   \   0000006C   831081E0           ADD      R1,R1,R3, LSL #+1
   \   00000070   F610D1E1           LDRSH    R1,[R1, #+6]
   \   00000074   ........           BL       ??SetTabIndex
    848          }
   \   00000078   0080BDE8           POP      {PC}             ;; return
    849          

   \                                 In segment CODE, align 4, keep-with-next
    850          void DoDwn()
    851          {
    852            if (CONFIG_LOOP_NAVIGATION_ENABLE || _CurIndex < _CurCount - 1)
   \                     ??DoDwn:
   \   00000000   ........           LDR      R0,??DataTable91  ;; CONFIG_LOOP_NAVIGATION_ENABLE
   \   00000004   00402DE9           PUSH     {LR}
   \   00000008   000090E5           LDR      R0,[R0, #+0]
   \   0000000C   000050E3           CMP      R0,#+0
   \   00000010   0A00001A           BNE      ??DoDwn_1
   \   00000014   ........           LDR      R1,??DataTable122  ;; ExitTimer
   \   00000018   600291E5           LDR      R0,[R1, #+608]
   \   0000001C   001181E0           ADD      R1,R1,R0, LSL #+2
   \   00000020   641291E5           LDR      R1,[R1, #+612]
   \   00000024   F400D1E1           LDRSH    R0,[R1, #+4]
   \   00000028   800081E0           ADD      R0,R1,R0, LSL #+1
   \   0000002C   F600D0E1           LDRSH    R0,[R0, #+6]
   \   00000030   F010D1E1           LDRSH    R1,[R1, #+0]
   \   00000034   011041E2           SUB      R1,R1,#+1
   \   00000038   010050E1           CMP      R0,R1
   \   0000003C   0080BDA8           POPGE    {PC}
    853              SetCurTabIndex(++_CurIndex, 1);
   \                     ??DoDwn_1:
   \   00000040   ........           LDR      R1,??DataTable122  ;; ExitTimer
   \   00000044   600291E5           LDR      R0,[R1, #+608]
   \   00000048   001181E0           ADD      R1,R1,R0, LSL #+2
   \   0000004C   641291E5           LDR      R1,[R1, #+612]
   \   00000050   F420D1E1           LDRSH    R2,[R1, #+4]
   \   00000054   F430D1E1           LDRSH    R3,[R1, #+4]
   \   00000058   822081E0           ADD      R2,R1,R2, LSL #+1
   \   0000005C   833081E0           ADD      R3,R1,R3, LSL #+1
   \   00000060   F630D3E1           LDRSH    R3,[R3, #+6]
   \   00000064   013083E2           ADD      R3,R3,#+1
   \   00000068   B630C2E1           STRH     R3,[R2, #+6]
   \   0000006C   F430D1E1           LDRSH    R3,[R1, #+4]
   \   00000070   0120A0E3           MOV      R2,#+1
   \   00000074   831081E0           ADD      R1,R1,R3, LSL #+1
   \   00000078   F610D1E1           LDRSH    R1,[R1, #+6]
   \   0000007C   ........           BL       ??SetTabIndex
    854          }
   \   00000080   0080BDE8           POP      {PC}             ;; return
    855          

   \                                 In segment CODE, align 4, keep-with-next
    856          void DoPgUp()
    857          {
    858          	_CurIndex -= LONG_SCRL;
   \                     ??DoPgUp:
   \   00000000   ........           LDR      R1,??DataTable122  ;; ExitTimer
   \   00000004   ........           LDR      R3,??DataTable99  ;; itms_max
   \   00000008   00402DE9           PUSH     {LR}
   \   0000000C   600291E5           LDR      R0,[R1, #+608]
   \   00000010   003093E5           LDR      R3,[R3, #+0]
   \   00000014   001181E0           ADD      R1,R1,R0, LSL #+2
   \   00000018   641291E5           LDR      R1,[R1, #+612]
   \   0000001C   F400D1E1           LDRSH    R0,[R1, #+4]
   \   00000020   F420D1E1           LDRSH    R2,[R1, #+4]
   \   00000024   800081E0           ADD      R0,R1,R0, LSL #+1
   \   00000028   822081E0           ADD      R2,R1,R2, LSL #+1
   \   0000002C   F620D2E1           LDRSH    R2,[R2, #+6]
   \   00000030   032042E0           SUB      R2,R2,R3
   \   00000034   B620C0E1           STRH     R2,[R0, #+6]
    859          	if (_CurIndex < 0) _CurIndex = 0;		
   \   00000038   F400D1E1           LDRSH    R0,[R1, #+4]
   \   0000003C   800081E0           ADD      R0,R1,R0, LSL #+1
   \   00000040   F600D0E1           LDRSH    R0,[R0, #+6]
   \   00000044   000050E3           CMP      R0,#+0
   \   00000048   0700005A           BPL      ??DoPgUp_1
   \   0000004C   ........           LDR      R1,??DataTable122  ;; ExitTimer
   \   00000050   600291E5           LDR      R0,[R1, #+608]
   \   00000054   001181E0           ADD      R1,R1,R0, LSL #+2
   \   00000058   641291E5           LDR      R1,[R1, #+612]
   \   0000005C   F400D1E1           LDRSH    R0,[R1, #+4]
   \   00000060   800081E0           ADD      R0,R1,R0, LSL #+1
   \   00000064   0010A0E3           MOV      R1,#+0
   \   00000068   B610C0E1           STRH     R1,[R0, #+6]
    860          	SetCurTabIndex(_CurIndex, 0);
   \                     ??DoPgUp_1:
   \   0000006C   ........           LDR      R1,??DataTable122  ;; ExitTimer
   \   00000070   0020A0E3           MOV      R2,#+0
   \   00000074   600291E5           LDR      R0,[R1, #+608]
   \   00000078   001181E0           ADD      R1,R1,R0, LSL #+2
   \   0000007C   641291E5           LDR      R1,[R1, #+612]
   \   00000080   F430D1E1           LDRSH    R3,[R1, #+4]
   \   00000084   831081E0           ADD      R1,R1,R3, LSL #+1
   \   00000088   F610D1E1           LDRSH    R1,[R1, #+6]
   \   0000008C   ........           BL       ??SetTabIndex
    861          }
   \   00000090   0080BDE8           POP      {PC}             ;; return
    862          

   \                                 In segment CODE, align 4, keep-with-next
    863          void DoPgDwn()
    864          {
    865          	_CurIndex += LONG_SCRL;
   \                     ??DoPgDwn:
   \   00000000   ........           LDR      R1,??DataTable122  ;; ExitTimer
   \   00000004   ........           LDR      R3,??DataTable99  ;; itms_max
   \   00000008   00402DE9           PUSH     {LR}
   \   0000000C   600291E5           LDR      R0,[R1, #+608]
   \   00000010   003093E5           LDR      R3,[R3, #+0]
   \   00000014   001181E0           ADD      R1,R1,R0, LSL #+2
   \   00000018   641291E5           LDR      R1,[R1, #+612]
   \   0000001C   F400D1E1           LDRSH    R0,[R1, #+4]
   \   00000020   F420D1E1           LDRSH    R2,[R1, #+4]
   \   00000024   800081E0           ADD      R0,R1,R0, LSL #+1
   \   00000028   822081E0           ADD      R2,R1,R2, LSL #+1
   \   0000002C   F620D2E1           LDRSH    R2,[R2, #+6]
   \   00000030   022083E0           ADD      R2,R3,R2
   \   00000034   B620C0E1           STRH     R2,[R0, #+6]
    866          	_CurBase  = _CurIndex;
   \   00000038   F420D1E1           LDRSH    R2,[R1, #+4]
   \   0000003C   F400D1E1           LDRSH    R0,[R1, #+4]
   \   00000040   822081E0           ADD      R2,R1,R2, LSL #+1
   \   00000044   F620D2E1           LDRSH    R2,[R2, #+6]
   \   00000048   800081E0           ADD      R0,R1,R0, LSL #+1
   \   0000004C   BC20C0E1           STRH     R2,[R0, #+12]
    867          	if (_CurIndex >= _CurCount) _CurIndex = _CurCount - 1;
   \   00000050   F400D1E1           LDRSH    R0,[R1, #+4]
   \   00000054   800081E0           ADD      R0,R1,R0, LSL #+1
   \   00000058   F600D0E1           LDRSH    R0,[R0, #+6]
   \   0000005C   F010D1E1           LDRSH    R1,[R1, #+0]
   \   00000060   010050E1           CMP      R0,R1
   \   00000064   080000BA           BLT      ??DoPgDwn_1
   \   00000068   ........           LDR      R1,??DataTable122  ;; ExitTimer
   \   0000006C   600291E5           LDR      R0,[R1, #+608]
   \   00000070   001181E0           ADD      R1,R1,R0, LSL #+2
   \   00000074   641291E5           LDR      R1,[R1, #+612]
   \   00000078   F400D1E1           LDRSH    R0,[R1, #+4]
   \   0000007C   800081E0           ADD      R0,R1,R0, LSL #+1
   \   00000080   F010D1E1           LDRSH    R1,[R1, #+0]
   \   00000084   011041E2           SUB      R1,R1,#+1
   \   00000088   B610C0E1           STRH     R1,[R0, #+6]
    868          	SetCurTabIndex(_CurIndex, 0);
   \                     ??DoPgDwn_1:
   \   0000008C   ........           LDR      R1,??DataTable122  ;; ExitTimer
   \   00000090   0020A0E3           MOV      R2,#+0
   \   00000094   600291E5           LDR      R0,[R1, #+608]
   \   00000098   001181E0           ADD      R1,R1,R0, LSL #+2
   \   0000009C   641291E5           LDR      R1,[R1, #+612]
   \   000000A0   F430D1E1           LDRSH    R3,[R1, #+4]
   \   000000A4   831081E0           ADD      R1,R1,R3, LSL #+1
   \   000000A8   F610D1E1           LDRSH    R1,[R1, #+6]
   \   000000AC   ........           BL       ??SetTabIndex
    869          }
   \   000000B0   0080BDE8           POP      {PC}             ;; return
    870          

   \                                 In segment CODE, align 4, keep-with-next
    871          void DoBegin()
    872          {
    873          	SetCurTabIndex(0, 0);
   \                     ??DoBegin:
   \   00000000   ........           LDR      R0,??DataTable131  ;; ExitTimer + 608
   \   00000004   000090E5           LDR      R0,[R0, #+0]
   \   00000008   0020A0E3           MOV      R2,#+0
   \   0000000C   0010A0E3           MOV      R1,#+0
   \   00000010   ........           B        ??SetTabIndex    ;; tailcall
    874          }
    875          

   \                                 In segment CODE, align 4, keep-with-next
    876          void DoRoot()
    877          {
   \                     ??DoRoot:
   \   00000000   00402DE9           PUSH     {LR}
    878            if (IsInArchive())
   \   00000004   ........           _BLF     ??IsInArchive,??IsInArchive??rA
   \   00000008   000050E3           CMP      R0,#+0
   \   0000000C   0400000A           BEQ      ??DoRoot_1
    879              cd(curtab, str_empty, -1);
   \   00000010   ........           LDR      R0,??DataTable131  ;; ExitTimer + 608
   \   00000014   ........           LDR      R1,??DataTable104  ;; str_empty
   \   00000018   000090E5           LDR      R0,[R0, #+0]
   \   0000001C   0020E0E3           MVN      R2,#+0
   \   00000020   0A0000EA           B        ??DoRoot_2
    880            else if (curtab < MAX_TABS)
   \                     ??DoRoot_1:
   \   00000024   ........           LDR      R0,??DataTable131  ;; ExitTimer + 608
   \   00000028   000090E5           LDR      R0,[R0, #+0]
   \   0000002C   020050E3           CMP      R0,#+2
   \   00000030   0080BDA8           POPGE    {PC}
    881              cd(curtab, Drives[_CurDrv].path, _CurDrv);
   \   00000034   ........           LDR      R1,??DataTable122  ;; ExitTimer
   \   00000038   18C0A0E3           MOV      R12,#+24
   \   0000003C   002181E0           ADD      R2,R1,R0, LSL #+2
   \   00000040   643292E5           LDR      R3,[R2, #+612]
   \   00000044   F420D3E1           LDRSH    R2,[R3, #+4]
   \   00000048   9C1221E0           MLA      R1,R12,R2,R1
   \   0000004C   041291E5           LDR      R1,[R1, #+516]
   \                     ??DoRoot_2:
   \   00000050   0040BDE8           POP      {LR}             ;; Pop
   \   00000054   ........           _BF      ??cd,??cd??rA    ;; tailcall
    882          }
    883          

   \                                 In segment CODE, align 4, keep-with-next
    884          void DoShowPath()
    885          {
    886            MsgBoxError(_CurPath);
   \                     ??DoShowPath:
   \   00000000   ........           LDR      R0,??DataTable122  ;; ExitTimer
   \   00000004   601290E5           LDR      R1,[R0, #+608]
   \   00000008   010180E0           ADD      R0,R0,R1, LSL #+2
   \   0000000C   640290E5           LDR      R0,[R0, #+612]
   \   00000010   F410D0E1           LDRSH    R1,[R0, #+4]
   \   00000014   810480E0           ADD      R0,R0,R1, LSL #+9
   \   00000018   120080E2           ADD      R0,R0,#+18
   \   0000001C   ........           _BF      ??MsgBoxError,??MsgBoxError??rA  ;; tailcall
    887          }
    888          

   \                                 In segment CODE, align 4, keep-with-next
    889          void DoSortN()
    890          {
    891          	_CurTab->sort=(_CurTab->sort & STD_MASK) | ST_NAME;
   \                     ??DoSortN:
   \   00000000   ........           LDR      R1,??DataTable122  ;; ExitTimer
   \   00000004   600291E5           LDR      R0,[R1, #+608]
   \   00000008   001181E0           ADD      R1,R1,R0, LSL #+2
   \   0000000C   641291E5           LDR      R1,[R1, #+612]
   \   00000010   F220D1E1           LDRSH    R2,[R1, #+2]
   \   00000014   402F02E2           AND      R2,R2,#0x100
   \   00000018   B220C1E1           STRH     R2,[R1, #+2]
    892          	DoRefresh();
   \   0000001C   ........           B        ??RefreshTab     ;; tailcall
    893          }
    894          

   \                                 In segment CODE, align 4, keep-with-next
    895          void DoSortE()
    896          {
    897          	_CurTab->sort=(_CurTab->sort & STD_MASK) | ST_EXT;
   \                     ??DoSortE:
   \   00000000   ........           LDR      R1,??DataTable122  ;; ExitTimer
   \   00000004   600291E5           LDR      R0,[R1, #+608]
   \   00000008   001181E0           ADD      R1,R1,R0, LSL #+2
   \   0000000C   641291E5           LDR      R1,[R1, #+612]
   \   00000010   F220D1E1           LDRSH    R2,[R1, #+2]
   \   00000014   402F02E2           AND      R2,R2,#0x100
   \   00000018   B220C1E1           STRH     R2,[R1, #+2]
   \   0000001C   F220D1E1           LDRSH    R2,[R1, #+2]
   \   00000020   012082E3           ORR      R2,R2,#0x1
   \   00000024   B220C1E1           STRH     R2,[R1, #+2]
    898          	DoRefresh();
   \   00000028   ........           B        ??RefreshTab     ;; tailcall
    899          }
    900          

   \                                 In segment CODE, align 4, keep-with-next
    901          void DoSortS()
    902          {
    903          	_CurTab->sort=(_CurTab->sort & STD_MASK) | ST_SIZE;
   \                     ??DoSortS:
   \   00000000   ........           LDR      R1,??DataTable122  ;; ExitTimer
   \   00000004   600291E5           LDR      R0,[R1, #+608]
   \   00000008   001181E0           ADD      R1,R1,R0, LSL #+2
   \   0000000C   641291E5           LDR      R1,[R1, #+612]
   \   00000010   F220D1E1           LDRSH    R2,[R1, #+2]
   \   00000014   402F02E2           AND      R2,R2,#0x100
   \   00000018   B220C1E1           STRH     R2,[R1, #+2]
   \   0000001C   F220D1E1           LDRSH    R2,[R1, #+2]
   \   00000020   022082E3           ORR      R2,R2,#0x2
   \   00000024   B220C1E1           STRH     R2,[R1, #+2]
    904          	DoRefresh();
   \   00000028   ........           B        ??RefreshTab     ;; tailcall
    905          }
    906          

   \                                 In segment CODE, align 4, keep-with-next
    907          void DoSortD()
    908          {
    909          	_CurTab->sort=(_CurTab->sort & STD_MASK) | ST_DATE;
   \                     ??DoSortD:
   \   00000000   ........           LDR      R1,??DataTable122  ;; ExitTimer
   \   00000004   600291E5           LDR      R0,[R1, #+608]
   \   00000008   001181E0           ADD      R1,R1,R0, LSL #+2
   \   0000000C   641291E5           LDR      R1,[R1, #+612]
   \   00000010   F220D1E1           LDRSH    R2,[R1, #+2]
   \   00000014   402F02E2           AND      R2,R2,#0x100
   \   00000018   B220C1E1           STRH     R2,[R1, #+2]
   \   0000001C   F220D1E1           LDRSH    R2,[R1, #+2]
   \   00000020   032082E3           ORR      R2,R2,#0x3
   \   00000024   B220C1E1           STRH     R2,[R1, #+2]
    910          	DoRefresh();
   \   00000028   ........           B        ??RefreshTab     ;; tailcall
    911          }
    912          

   \                                 In segment CODE, align 4, keep-with-next
    913          void DoSetSort()
    914          {
    915          	int srt = (_CurTab->sort & STV_MASK);
   \                     ??DoSetSort:
   \   00000000   ........           LDR      R1,??DataTable122  ;; ExitTimer
   \   00000004   600291E5           LDR      R0,[R1, #+608]
   \   00000008   000181E0           ADD      R0,R1,R0, LSL #+2
   \   0000000C   640290E5           LDR      R0,[R0, #+612]
   \   00000010   F200D0E1           LDRSH    R0,[R0, #+2]
   \   00000014   0F0000E2           AND      R0,R0,#0xF
    916          	srt=(srt>=ST_LAST)?srt=ST_FIRST:srt+1;
   \   00000018   030050E3           CMP      R0,#+3
   \   0000001C   012080B2           ADDLT    R2,R0,#+1
    917          	_CurTab->sort=(_CurTab->sort & STD_MASK) | srt;
   \   00000020   600291E5           LDR      R0,[R1, #+608]
   \   00000024   0020A0A3           MOVGE    R2,#+0
   \   00000028   001181E0           ADD      R1,R1,R0, LSL #+2
   \   0000002C   641291E5           LDR      R1,[R1, #+612]
   \   00000030   F230D1E1           LDRSH    R3,[R1, #+2]
   \   00000034   403F03E2           AND      R3,R3,#0x100
   \   00000038   032082E1           ORR      R2,R2,R3
   \   0000003C   B220C1E1           STRH     R2,[R1, #+2]
    918          	DoRefresh();
   \   00000040   ........           B        ??RefreshTab     ;; tailcall
    919          }
    920          

   \                                 In segment CODE, align 4, keep-with-next
    921          void DoSortR()
    922          {
    923          	_CurTab->sort=(_CurTab->sort & STV_MASK) | (~_CurTab->sort & STD_MASK);
   \                     ??DoSortR:
   \   00000000   ........           LDR      R1,??DataTable122  ;; ExitTimer
   \   00000004   600291E5           LDR      R0,[R1, #+608]
   \   00000008   001181E0           ADD      R1,R1,R0, LSL #+2
   \   0000000C   641291E5           LDR      R1,[R1, #+612]
   \   00000010   F220D1E1           LDRSH    R2,[R1, #+2]
   \   00000014   F230D1E1           LDRSH    R3,[R1, #+2]
   \   00000018   0F2002E2           AND      R2,R2,#0xF
   \   0000001C   0330E0E1           MVN      R3,R3
   \   00000020   403F03E2           AND      R3,R3,#0x100
   \   00000024   022083E1           ORR      R2,R3,R2
   \   00000028   B220C1E1           STRH     R2,[R1, #+2]
    924          	DoRefresh();
   \   0000002C   ........           B        ??RefreshTab     ;; tailcall
    925          }
    926          

   \                                 In segment CODE, align 4, keep-with-next
    927          void DoTabCopy()
    928          {
    929            // Очищаем буфер
    930            CB_Cancel(IDYES);
   \                     ??DoTabCopy:
   \   00000000   ........           LDR      R0,??DataTable116  ;; buffer
   \   00000004   00402DE9           PUSH     {LR}
   \   00000008   ........           _BLF     ??fn_free,??fn_free??rA
    931            
    932            // Копируем текущие файлы в буфер
    933            DoCopy();
   \   0000000C   ........           LDR      R0,??DataTable115  ;; ??M_MoveCopy
   \   00000010   0110A0E3           MOV      R1,#+1
   \   00000014   ........           BL       ??EnumSel
    934            
    935            // Переходим на другой таб
    936            DoSwapTab();
   \   00000018   ........           BL       ??DoSwapTab
    937            
    938            // Вставляем файлы на него
    939            DoPaste();
   \   0000001C   0040BDE8           POP      {LR}             ;; Pop
   \   00000020   ........           B        ??DoPaste        ;; tailcall
    940          }
    941          

   \                                 In segment CODE, align 4, keep-with-next
    942          void DoTabMove()
    943          {
    944            // Очищаем буфер
    945            CB_Cancel(IDYES);
   \                     ??DoTabMove:
   \   00000000   ........           LDR      R0,??DataTable116  ;; buffer
   \   00000004   00402DE9           PUSH     {LR}
   \   00000008   ........           _BLF     ??fn_free,??fn_free??rA
    946            
    947            // Копируем текущие файлы в буфер
    948            DoMove();
   \   0000000C   ........           BL       ??DoMove
    949            
    950            // Переходим на другой таб
    951            DoSwapTab();
   \   00000010   ........           BL       ??DoSwapTab
    952            
    953            // Вставляем файлы на него
    954            DoPaste();
   \   00000014   0040BDE8           POP      {LR}             ;; Pop
   \   00000018   ........           B        ??DoPaste        ;; tailcall
    955          }
    956          

   \                                 In segment CODE, align 4, keep-with-next
    957          void ExitFromZip()
    958          {
   \                     ??ExitFromZip:
   \   00000000   10402DE9           PUSH     {R4,LR}
   \   00000004   40DF4DE2           SUB      SP,SP,#+256
    959            if (IsInArchive()==ZIP_ARCH)
   \   00000008   ........           _BLF     ??IsInArchive,??IsInArchive??rA
   \   0000000C   010050E3           CMP      R0,#+1
   \   00000010   1500001A           BNE      ??ExitFromZip_1
    960            {
    961              //Сохраняем имя тек. зипа
    962              wchar_t lpname[MAX_PATH/2];
    963              wstrncpy(lpname, GetFileName(_CurTab->zipInfo->szZipPath), MAXELEMS(lpname));
   \   00000014   ........           LDR      R4,??DataTable122  ;; ExitTimer
   \   00000018   600294E5           LDR      R0,[R4, #+608]
   \   0000001C   000184E0           ADD      R0,R4,R0, LSL #+2
   \   00000020   640290E5           LDR      R0,[R0, #+612]
   \   00000024   140890E5           LDR      R0,[R0, #+2068]
   \   00000028   040080E2           ADD      R0,R0,#+4
   \   0000002C   ........           _BLF     ??GetFileName,??GetFileName??rA
   \   00000030   8020A0E3           MOV      R2,#+128
   \   00000034   0010A0E1           MOV      R1,R0
   \   00000038   0D00A0E1           MOV      R0,SP
   \   0000003C   530100EF           SWI      +339
    964              
    965              CloseTabZip(curtab);
   \   00000040   600294E5           LDR      R0,[R4, #+608]
   \   00000044   ........           _BLF     ??CloseTabZip,??CloseTabZip??rA
    966              RefreshTab(curtab);
   \   00000048   600294E5           LDR      R0,[R4, #+608]
   \   0000004C   ........           BL       ??RefreshTab
    967              
    968              //Ищем файл из которого вышли
    969              int ind = GetCurTabFileIndex(lpname);
   \   00000050   600294E5           LDR      R0,[R4, #+608]
   \   00000054   0D10A0E1           MOV      R1,SP
   \   00000058   ........           BL       ??GetFileIndex
   \   0000005C   0010A0E1           MOV      R1,R0
    970              SetCurTabIndex(ind, 0);
   \   00000060   600294E5           LDR      R0,[R4, #+608]
   \   00000064   0020A0E3           MOV      R2,#+0
   \   00000068   ........           BL       ??SetTabIndex
    971            }
    972          }
   \                     ??ExitFromZip_1:
   \   0000006C   40DF8DE2           ADD      SP,SP,#+256      ;; stack cleaning
   \   00000070   1080BDE8           POP      {R4,PC}          ;; return
    973          
    974          

   \                                 In segment CODE, align 4, keep-with-next
    975          void ExitFrom7Z()
    976          {
   \                     ??ExitFrom7Z:
   \   00000000   10402DE9           PUSH     {R4,LR}
   \   00000004   40DF4DE2           SUB      SP,SP,#+256
    977            if (IsInArchive()==_7Z_ARCH)
   \   00000008   ........           _BLF     ??IsInArchive,??IsInArchive??rA
   \   0000000C   020050E3           CMP      R0,#+2
   \   00000010   1500001A           BNE      ??ExitFrom7Z_1
    978            {
    979              //Сохраняем имя тек. зипа
    980              wchar_t lpname[MAX_PATH/2];
    981              wstrncpy(lpname, GetFileName(_CurTab->zipInfo->szZipPath), MAXELEMS(lpname));
   \   00000014   ........           LDR      R4,??DataTable122  ;; ExitTimer
   \   00000018   600294E5           LDR      R0,[R4, #+608]
   \   0000001C   000184E0           ADD      R0,R4,R0, LSL #+2
   \   00000020   640290E5           LDR      R0,[R0, #+612]
   \   00000024   140890E5           LDR      R0,[R0, #+2068]
   \   00000028   040080E2           ADD      R0,R0,#+4
   \   0000002C   ........           _BLF     ??GetFileName,??GetFileName??rA
   \   00000030   8020A0E3           MOV      R2,#+128
   \   00000034   0010A0E1           MOV      R1,R0
   \   00000038   0D00A0E1           MOV      R0,SP
   \   0000003C   530100EF           SWI      +339
    982              
    983              CloseTab7Z(curtab);
   \   00000040   600294E5           LDR      R0,[R4, #+608]
   \   00000044   ........           _BLF     ??CloseTab7Z,??CloseTab7Z??rA
    984              RefreshTab(curtab);
   \   00000048   600294E5           LDR      R0,[R4, #+608]
   \   0000004C   ........           BL       ??RefreshTab
    985              
    986              //Ищем файл из которого вышли
    987              int ind = GetCurTabFileIndex(lpname);
   \   00000050   600294E5           LDR      R0,[R4, #+608]
   \   00000054   0D10A0E1           MOV      R1,SP
   \   00000058   ........           BL       ??GetFileIndex
   \   0000005C   0010A0E1           MOV      R1,R0
    988              SetCurTabIndex(ind, 0);
   \   00000060   600294E5           LDR      R0,[R4, #+608]
   \   00000064   0020A0E3           MOV      R2,#+0
   \   00000068   ........           BL       ??SetTabIndex
    989            }
    990          }
   \                     ??ExitFrom7Z_1:
   \   0000006C   40DF8DE2           ADD      SP,SP,#+256      ;; stack cleaning
   \   00000070   1080BDE8           POP      {R4,PC}          ;; return
    991          

   \                                 In segment CODE, align 4, keep-with-next
    992          int DoBack()
    993          {
    994            int res = 0;
    995            if (curtab < MAX_TABS)
   \                     ??DoBack:
   \   00000000   ........           LDR      R0,??DataTable131  ;; ExitTimer + 608
   \   00000004   70402DE9           PUSH     {R4-R6,LR}
   \   00000008   40DF4DE2           SUB      SP,SP,#+256
   \   0000000C   000090E5           LDR      R0,[R0, #+0]
   \   00000010   0040A0E3           MOV      R4,#+0
   \   00000014   020050E3           CMP      R0,#+2
   \   00000018   490000AA           BGE      ??DoBack_1
    996            {
    997              wchar_t lpname[MAX_PATH/2];
    998              wchar_t* path = IsInArchive() ? _CurTab->zipInfo->szCurDir : _CurPath;
   \   0000001C   ........           LDR      R5,??DataTable122  ;; ExitTimer
   \   00000020   ........           _BLF     ??IsInArchive,??IsInArchive??rA
   \   00000024   000050E3           CMP      R0,#+0
   \   00000028   600295E5           LDR      R0,[R5, #+608]
   \   0000002C   000185E0           ADD      R0,R5,R0, LSL #+2
   \   00000030   640290E5           LDR      R0,[R0, #+612]
   \   00000034   14089015           LDRNE    R0,[R0, #+2068]
   \   00000038   816F8012           ADDNE    R6,R0,#+516
   \   0000003C   F410D001           LDRSHEQ  R1,[R0, #+4]
   \   00000040   81048000           ADDEQ    R0,R0,R1, LSL #+9
   \   00000044   12608002           ADDEQ    R6,R0,#+18
    999              
   1000              // Читаем родительскуюя папку в pathbuf
   1001              GetFileDir(path, pathbuf, IsInArchive());
   \   00000048   ........           _BLF     ??IsInArchive,??IsInArchive??rA
   \   0000004C   ........           LDR      R1,??DataTable156  ;; ExitTimer + 1660
   \   00000050   0020A0E1           MOV      R2,R0
   \   00000054   0600A0E1           MOV      R0,R6
   \   00000058   ........           _BLF     ??GetFileDir,??GetFileDir??rA
   1002              // Проверка на корень
   1003              int goOut;
   1004              if (IsInArchive())
   \   0000005C   ........           _BLF     ??IsInArchive,??IsInArchive??rA
   \   00000060   000050E3           CMP      R0,#+0
   \   00000064   0700000A           BEQ      ??DoBack_2
   1005                goOut=*path == '\0';
   \   00000068   B000D6E1           LDRH     R0,[R6, #+0]
   \   0000006C   000050E3           CMP      R0,#+0
   \   00000070   0F00001A           BNE      ??DoBack_3
   1006              else
   1007                goOut=!wstrcmpi(path, Drives[_CurDrv].path);
   1008              
   1009              WriteLog(path);
   1010              if (!goOut)
   1011              {
   1012                	//Сохраняем имя тек. папки
   1013                wstrncpy(lpname, GetFileName(path),MAXELEMS(lpname)-1);
   1014                res = cd(curtab, pathbuf, _CurDrv);
   1015                
   1016                //Ищем папку из которой вышли
   1017                int ind = GetCurTabFileIndex(lpname);
   1018                SetCurTabIndex(ind, 0);
   1019              }
   1020              else if (IsInArchive()==ZIP_ARCH) ExitFromZip();
   \                     ??DoBack_4:
   \   00000074   ........           _BLF     ??IsInArchive,??IsInArchive??rA
   \   00000078   010050E3           CMP      R0,#+1
   \   0000007C   2500001A           BNE      ??DoBack_5
   \   00000080   ........           BL       ??ExitFromZip
   \   00000084   200000EA           B        ??DoBack_6
   \                     ??DoBack_2:
   \   00000088   600295E5           LDR      R0,[R5, #+608]
   \   0000008C   1810A0E3           MOV      R1,#+24
   \   00000090   000185E0           ADD      R0,R5,R0, LSL #+2
   \   00000094   640290E5           LDR      R0,[R0, #+612]
   \   00000098   F400D0E1           LDRSH    R0,[R0, #+4]
   \   0000009C   915020E0           MLA      R0,R1,R0,R5
   \   000000A0   041290E5           LDR      R1,[R0, #+516]
   \   000000A4   0600A0E1           MOV      R0,R6
   \   000000A8   9F0200EF           SWI      +671
   \   000000AC   000050E3           CMP      R0,#+0
   \   000000B0   EFFFFF0A           BEQ      ??DoBack_4
   \                     ??DoBack_3:
   \   000000B4   0600A0E1           MOV      R0,R6
   \   000000B8   ........           _BLF     ??GetFileName,??GetFileName??rA
   \   000000BC   0010A0E1           MOV      R1,R0
   \   000000C0   7F20A0E3           MOV      R2,#+127
   \   000000C4   0D00A0E1           MOV      R0,SP
   \   000000C8   530100EF           SWI      +339
   \   000000CC   600295E5           LDR      R0,[R5, #+608]
   \   000000D0   001185E0           ADD      R1,R5,R0, LSL #+2
   \   000000D4   641291E5           LDR      R1,[R1, #+612]
   \   000000D8   F420D1E1           LDRSH    R2,[R1, #+4]
   \   000000DC   7C10A0E3           MOV      R1,#+124
   \   000000E0   601E81E3           ORR      R1,R1,#0x600
   \   000000E4   051081E0           ADD      R1,R1,R5
   \   000000E8   ........           _BLF     ??cd,??cd??rA
   \   000000EC   0040A0E1           MOV      R4,R0
   \   000000F0   600295E5           LDR      R0,[R5, #+608]
   \   000000F4   0D10A0E1           MOV      R1,SP
   \   000000F8   ........           BL       ??GetFileIndex
   \   000000FC   0020A0E3           MOV      R2,#+0
   \   00000100   0010A0E1           MOV      R1,R0
   \   00000104   600295E5           LDR      R0,[R5, #+608]
   \   00000108   ........           BL       ??SetTabIndex
   \                     ??DoBack_6:
   \   0000010C   0400A0E1           MOV      R0,R4
   \   00000110   40DF8DE2           ADD      SP,SP,#+256
   \   00000114   7080BDE8           POP      {R4-R6,PC}
   1021              else if (IsInArchive()==_7Z_ARCH) ExitFrom7Z();
   \                     ??DoBack_5:
   \   00000118   ........           _BLF     ??IsInArchive,??IsInArchive??rA
   \   0000011C   020050E3           CMP      R0,#+2
   \   00000120   0100001A           BNE      ??DoBack_7
   \   00000124   ........           BL       ??ExitFrom7Z
   \   00000128   F7FFFFEA           B        ??DoBack_6
   1022              else if (CONFIG_BACK_EXIT) DoExit();
   \                     ??DoBack_7:
   \   0000012C   3C009FE5           LDR      R0,??DoBack_8    ;; CONFIG_BACK_EXIT
   \   00000130   000090E5           LDR      R0,[R0, #+0]
   \   00000134   000050E3           CMP      R0,#+0
   \   00000138   0900000A           BEQ      ??DoBack_9
   \   0000013C   ........           BL       ??DoExit
   \   00000140   F1FFFFEA           B        ??DoBack_6
   1023            }
   1024            else
   1025            {
   1026              curtab = back_tab < MAX_TABS ? back_tab : 0;
   \                     ??DoBack_1:
   \   00000144   28009FE5           LDR      R0,??DoBack_8+0x4  ;; ExitTimer + 588
   \   00000148   000090E5           LDR      R0,[R0, #+0]
   \   0000014C   020050E3           CMP      R0,#+2
   \   00000150   ........           LDRLT    R5,??DataTable122  ;; ExitTimer
   \   00000154   ........           LDRGE    R0,??DataTable131  ;; ExitTimer + 608
   \   00000158   0010A0A3           MOVGE    R1,#+0
   \   0000015C   600285B5           STRLT    R0,[R5, #+608]
   \   00000160   001080A5           STRGE    R1,[R0, #+0]
   1027            }
   1028            return res;
   \                     ??DoBack_9:
   \   00000164   0400A0E1           MOV      R0,R4
   \   00000168   40DF8DE2           ADD      SP,SP,#+256
   \   0000016C   7080BDE8           POP      {R4-R6,PC}       ;; return
   \                     ??DoBack_8:
   \   00000170   ........           DC32     CONFIG_BACK_EXIT
   \   00000174   ........           DC32     ExitTimer + 588
   1029          }
   1030          

   \                                 In segment CODE, align 4, keep-with-next
   1031          void DoBackK()
   1032          {
   1033            DoBack();
   \                     ??DoBackK:
   \   00000000   ........           B        ??DoBack         ;; tailcall
   1034          }
   1035          

   \                                 In segment CODE, align 4, keep-with-next
   1036          int EnumChk(ENUM_SEL_PROC EnumProc, int param)
   1037          {
   \                     ??EnumChk:
   \   00000000   F0402DE9           PUSH     {R4-R7,LR}
   \   00000004   0040A0E1           MOV      R4,R0
   1038            int cc = 0;
   1039            if (tabs[curtab]->ccFiles)
   \   00000008   ........           LDR      R0,??DataTable155  ;; ExitTimer
   \   0000000C   0150A0E1           MOV      R5,R1
   \   00000010   601290E5           LDR      R1,[R0, #+608]
   \   00000014   0060A0E3           MOV      R6,#+0
   \   00000018   010180E0           ADD      R0,R0,R1, LSL #+2
   \   0000001C   640290E5           LDR      R0,[R0, #+612]
   \   00000020   F000D0E1           LDRSH    R0,[R0, #+0]
   \   00000024   000050E3           CMP      R0,#+0
   \   00000028   1600000A           BEQ      ??EnumChk_1
   1040            {
   1041              FILEINF *file = (FILEINF *)FileListBase[curtab]->next;
   \   0000002C   ........           LDR      R0,??DataTable155  ;; ExitTimer
   \   00000030   010180E0           ADD      R0,R0,R1, LSL #+2
   \   00000034   700290E5           LDR      R0,[R0, #+624]
   \   00000038   447090E5           LDR      R7,[R0, #+68]
   \   0000003C   000000EA           B        ??EnumChk_2
   1042              while(file != FileListBase[curtab])
   1043              {
   1044                if (file->attr & FA_CHECK)
   1045                {
   1046                  cc++;
   1047                  if (EnumProc)
   1048                    if (EnumProc(file, param)==0) break;
   1049                }
   1050                file = (FILEINF *)file->next;
   \                     ??EnumChk_3:
   \   00000040   447097E5           LDR      R7,[R7, #+68]
   \                     ??EnumChk_2:
   \   00000044   ........           LDR      R0,??DataTable155  ;; ExitTimer
   \   00000048   601290E5           LDR      R1,[R0, #+608]
   \   0000004C   010180E0           ADD      R0,R0,R1, LSL #+2
   \   00000050   700290E5           LDR      R0,[R0, #+624]
   \   00000054   000057E1           CMP      R7,R0
   \   00000058   0A00000A           BEQ      ??EnumChk_1
   \   0000005C   B800D7E1           LDRH     R0,[R7, #+8]
   \   00000060   400D10E3           TST      R0,#0x1000
   \   00000064   01608612           ADDNE    R6,R6,#+1
   \   00000068   00005413           CMPNE    R4,#+0
   \   0000006C   F3FFFF0A           BEQ      ??EnumChk_3
   \   00000070   0510A0E1           MOV      R1,R5
   \   00000074   0700A0E1           MOV      R0,R7
   \   00000078   0420A0E1           MOV      R2,R4
   \   0000007C   32FF2FE1           BLX      R2
   \   00000080   000050E3           CMP      R0,#+0
   \   00000084   EDFFFF1A           BNE      ??EnumChk_3
   1051              }
   1052            }
   1053            return cc;
   \                     ??EnumChk_1:
   \   00000088   0600A0E1           MOV      R0,R6
   \   0000008C   F080BDE8           POP      {R4-R7,PC}       ;; return
   1054          }
   1055          

   \                                 In segment CODE, align 4, keep-with-next
   1056          int EnumSel(ENUM_SEL_PROC EnumProc, int param)
   1057          {
   \                     ??EnumSel:
   \   00000000   70402DE9           PUSH     {R4-R6,LR}
   \   00000004   0040A0E1           MOV      R4,R0
   \   00000008   0150A0E1           MOV      R5,R1
   1058            int cc = EnumChk(EnumProc, param);
   \   0000000C   ........           BL       ??EnumChk
   \   00000010   0060B0E1           MOVS     R6,R0
   1059            if (cc == 0)
   \   00000014   0900001A           BNE      ??EnumSel_1
   1060            {
   1061              if (EnumProc)
   \   00000018   000054E3           CMP      R4,#+0
   \   0000001C   0700000A           BEQ      ??EnumSel_1
   1062              {
   1063                FILEINF* cfile = _CurFile();
   \   00000020   ........           LDR      R0,??DataTable131  ;; ExitTimer + 608
   \   00000024   000090E5           LDR      R0,[R0, #+0]
   \   00000028   ........           BL       ??_CurTabFile
   1064                if (cfile)
   \   0000002C   000050E3           CMP      R0,#+0
   \   00000030   0200000A           BEQ      ??EnumSel_1
   1065                {
   1066                  EnumProc(cfile, param);
   \   00000034   0510A0E1           MOV      R1,R5
   \   00000038   34FF2FE1           BLX      R4
   1067                  cc++;
   \   0000003C   0160A0E3           MOV      R6,#+1
   1068                }
   1069              }
   1070            }
   1071            return cc;
   \                     ??EnumSel_1:
   \   00000040   0600A0E1           MOV      R0,R6
   \   00000044   7080BDE8           POP      {R4-R6,PC}       ;; return
   1072          }
   1073          
   1074          

   \                                 In segment CODE, align 4, keep-with-next
   1075          int ChkAll(int chk)
   1076          {
   1077            if (tabs[curtab]->ccFiles)
   \                     ??ChkAll:
   \   00000000   ........           LDR      R1,??DataTable155  ;; ExitTimer
   \   00000004   602291E5           LDR      R2,[R1, #+608]
   \   00000008   021181E0           ADD      R1,R1,R2, LSL #+2
   \   0000000C   641291E5           LDR      R1,[R1, #+612]
   \   00000010   F010D1E1           LDRSH    R1,[R1, #+0]
   \   00000014   000051E3           CMP      R1,#+0
   \   00000018   1A00000A           BEQ      ??ChkAll_1
   1078            {
   1079              FILEINF *file = (FILEINF *)FileListBase[curtab]->next;
   \   0000001C   ........           LDR      R1,??DataTable155  ;; ExitTimer
   \   00000020   021181E0           ADD      R1,R1,R2, LSL #+2
   \   00000024   701291E5           LDR      R1,[R1, #+624]
   \   00000028   442091E5           LDR      R2,[R1, #+68]
   \   0000002C   010052E1           CMP      R2,R1
   \   00000030   1200000A           BEQ      ??ChkAll_2
   1080              while(file!=FileListBase[curtab])
   1081              {
   1082                if (chk>0 || (chk<0 && !(file->attr & FA_CHECK)))
   \                     ??ChkAll_3:
   \   00000034   F810D2E1           LDRSH    R1,[R2, #+8]
   \   00000038   010050E3           CMP      R0,#+1
   \   0000003C   030000AA           BGE      ??ChkAll_4
   \   00000040   000050E3           CMP      R0,#+0
   \   00000044   0300005A           BPL      ??ChkAll_5
   \   00000048   400D11E3           TST      R1,#0x1000
   \   0000004C   0100001A           BNE      ??ChkAll_5
   1083                  file->attr = file->attr | FA_CHECK;
   \                     ??ChkAll_4:
   \   00000050   401D81E3           ORR      R1,R1,#0x1000
   \   00000054   010000EA           B        ??ChkAll_6
   1084                else
   1085                  file->attr = file->attr & ~FA_CHECK;
   \                     ??ChkAll_5:
   \   00000058   403DE0E3           MVN      R3,#+4096
   \   0000005C   011003E0           AND      R1,R3,R1
   \                     ??ChkAll_6:
   \   00000060   B810C2E1           STRH     R1,[R2, #+8]
   1086                file = (FILEINF *)file->next;
   1087              }
   \   00000064   ........           LDR      R1,??DataTable155  ;; ExitTimer
   \   00000068   442092E5           LDR      R2,[R2, #+68]
   \   0000006C   603291E5           LDR      R3,[R1, #+608]
   \   00000070   031181E0           ADD      R1,R1,R3, LSL #+2
   \   00000074   701291E5           LDR      R1,[R1, #+624]
   \   00000078   010052E1           CMP      R2,R1
   \   0000007C   ECFFFF1A           BNE      ??ChkAll_3
   1088              return 1;
   \                     ??ChkAll_2:
   \   00000080   0100A0E3           MOV      R0,#+1
   \   00000084   1EFF2FE1           BX       LR
   1089            }
   1090            return 0;
   \                     ??ChkAll_1:
   \   00000088   0000A0E3           MOV      R0,#+0
   \   0000008C   1EFF2FE1           BX       LR               ;; return
   1091          }
   1092          
   1093          

   \                                 In segment CODE, align 4, keep-with-next
   1094          void ChkFile(FILEINF *file)
   1095          {
   1096            if (file)
   \                     ??ChkFile:
   \   00000000   000050E3           CMP      R0,#+0
   \   00000004   1EFF2F01           BXEQ     LR
   1097            {
   1098              file->attr = file->attr & FA_CHECK ? file->attr & ~FA_CHECK : file->attr | FA_CHECK;
   \   00000008   B810D0E1           LDRH     R1,[R0, #+8]
   \   0000000C   400D11E3           TST      R1,#0x1000
   \   00000010   F810D0E1           LDRSH    R1,[R0, #+8]
   \   00000014   402DE013           MVNNE    R2,#+4096
   \   00000018   01100210           ANDNE    R1,R2,R1
   \   0000001C   401D8103           ORREQ    R1,R1,#0x1000
   \   00000020   B810C0E1           STRH     R1,[R0, #+8]
   1099            }
   1100          }
   \   00000024   1EFF2FE1           BX       LR               ;; return
   1101          

   \                                 In segment CODE, align 4, keep-with-next
   1102          void DoChk()
   1103          {
   1104            ChkFile(_CurFile());
   \                     ??DoChk:
   \   00000000   ........           LDR      R0,??DataTable131  ;; ExitTimer + 608
   \   00000004   00402DE9           PUSH     {LR}
   \   00000008   000090E5           LDR      R0,[R0, #+0]
   \   0000000C   ........           BL       ??_CurTabFile
   \   00000010   ........           BL       ??ChkFile
   1105            if (CONFIG_CUR_DOWN_ON_CHECK && _CurIndex < _CurCount - 1)
   \   00000014   78009FE5           LDR      R0,??DoChk_1     ;; CONFIG_CUR_DOWN_ON_CHECK
   \   00000018   000090E5           LDR      R0,[R0, #+0]
   \   0000001C   000050E3           CMP      R0,#+0
   \   00000020   0080BD08           POPEQ    {PC}
   \   00000024   ........           LDR      R1,??DataTable155  ;; ExitTimer
   \   00000028   600291E5           LDR      R0,[R1, #+608]
   \   0000002C   001181E0           ADD      R1,R1,R0, LSL #+2
   \   00000030   641291E5           LDR      R1,[R1, #+612]
   \   00000034   F400D1E1           LDRSH    R0,[R1, #+4]
   \   00000038   800081E0           ADD      R0,R1,R0, LSL #+1
   \   0000003C   F600D0E1           LDRSH    R0,[R0, #+6]
   \   00000040   F010D1E1           LDRSH    R1,[R1, #+0]
   \   00000044   011041E2           SUB      R1,R1,#+1
   \   00000048   010050E1           CMP      R0,R1
   \   0000004C   0080BDA8           POPGE    {PC}
   1106              SetCurTabIndex(++_CurIndex, 1);
   \   00000050   ........           LDR      R1,??DataTable155  ;; ExitTimer
   \   00000054   600291E5           LDR      R0,[R1, #+608]
   \   00000058   001181E0           ADD      R1,R1,R0, LSL #+2
   \   0000005C   641291E5           LDR      R1,[R1, #+612]
   \   00000060   F420D1E1           LDRSH    R2,[R1, #+4]
   \   00000064   F430D1E1           LDRSH    R3,[R1, #+4]
   \   00000068   822081E0           ADD      R2,R1,R2, LSL #+1
   \   0000006C   833081E0           ADD      R3,R1,R3, LSL #+1
   \   00000070   F630D3E1           LDRSH    R3,[R3, #+6]
   \   00000074   013083E2           ADD      R3,R3,#+1
   \   00000078   B630C2E1           STRH     R3,[R2, #+6]
   \   0000007C   F430D1E1           LDRSH    R3,[R1, #+4]
   \   00000080   0120A0E3           MOV      R2,#+1
   \   00000084   831081E0           ADD      R1,R1,R3, LSL #+1
   \   00000088   F610D1E1           LDRSH    R1,[R1, #+6]
   \   0000008C   ........           BL       ??SetTabIndex
   1107          }
   \   00000090   0080BDE8           POP      {PC}             ;; return
   \                     ??DoChk_1:
   \   00000094   ........           DC32     CONFIG_CUR_DOWN_ON_CHECK
   1108          

   \                                 In segment CODE, align 4, keep-with-next
   1109          void DoChkAll()
   1110          {
   1111            ChkAll(1);
   \                     ??DoChkAll:
   \   00000000   0100A0E3           MOV      R0,#+1
   \   00000004   ........           B        ??ChkAll         ;; tailcall
   1112          }
   1113          

   \                                 In segment CODE, align 4, keep-with-next
   1114          void DoUnCAll()
   1115          {
   1116            ChkAll(0);
   \                     ??DoUnCAll:
   \   00000000   0000A0E3           MOV      R0,#+0
   \   00000004   ........           B        ??ChkAll         ;; tailcall
   1117          }
   1118          

   \                                 In segment CODE, align 4, keep-with-next
   1119          void DoInvChk()
   1120          {
   1121            ChkAll(-1);
   \                     ??DoInvChk:
   \   00000000   0000E0E3           MVN      R0,#+0
   \   00000004   ........           B        ??ChkAll         ;; tailcall
   1122          }
   1123          

   \                                 In segment CODE, align 4, keep-with-next
   1124          void CB_Del(int id)
   1125          {
   \                     ??CB_Del:
   \   00000000   00402DE9           PUSH     {LR}
   1126            if (id==IDYES) SUBPROC((void*)S_Delit);
   \   00000004   010050E3           CMP      R0,#+1
   \   00000008   0080BD18           POPNE    {PC}
   \   0000000C   ........           LDR      R0,??DataTable135  ;; ??S_Delit
   \   00000010   080100EF           SWI      +264
   1127          }
   \   00000014   0080BDE8           POP      {PC}             ;; return
   1128          

   \                                 In segment CODE, align 4, keep-with-next
   1129          void DoDel()
   1130          {
   \                     ??DoDel:
   \   00000000   00402DE9           PUSH     {LR}
   1131            if (IsInArchive()) return; // Пока не обрабатывается
   \   00000004   ........           _BLF     ??IsInArchive,??IsInArchive??rA
   \   00000008   000050E3           CMP      R0,#+0
   \   0000000C   0080BD18           POPNE    {PC}
   1132            
   1133            if (CONFIG_CONFIRM_DELETE)
   \   00000010   28009FE5           LDR      R0,??DoDel_1     ;; CONFIG_CONFIRM_DELETE
   \   00000014   000090E5           LDR      R0,[R0, #+0]
   \   00000018   000050E3           CMP      R0,#+0
   \   0000001C   0400000A           BEQ      ??DoDel_2
   1134              MsgBoxYesNo(muitxt(ind_pmt_del), CB_Del);
   \   00000020   4200A0E3           MOV      R0,#+66
   \   00000024   ........           _BLF     ??muitxt,??muitxt??rA
   \   00000028   14109FE5           LDR      R1,??DoDel_1+0x4  ;; ??CB_Del
   \   0000002C   0040BDE8           POP      {LR}             ;; Pop
   \   00000030   ........           _BF      ??MsgBoxYesNo,??MsgBoxYesNo??rA  ;; tailcall
   1135            else
   1136              CB_Del(1);
   \                     ??DoDel_2:
   \   00000034   ........           LDR      R0,??DataTable135  ;; ??S_Delit
   \   00000038   080100EF           SWI      +264
   \   0000003C   0080BDE8           POP      {PC}             ;; return
   \                     ??DoDel_1:
   \   00000040   ........           DC32     CONFIG_CONFIRM_DELETE
   \   00000044   ........           DC32     ??CB_Del
   1137          }
   1138          

   \                                 In segment CODE, align 4, keep-with-next
   1139          void DoMenu(void) {MM_Main();}
   \                     ??DoMenu:
   \   00000000   ........           _BF      ??MM_Main,??MM_Main??rA  ;; tailcall
   1140          

   \                                 In segment CODE, align 4, keep-with-next
   1141          void DoNewDir()
   1142          {
   \                     ??DoNewDir:
   \   00000000   10402DE9           PUSH     {R4,LR}
   1143            wchar_t *ws;
   1144            if (IsInArchive()) return; // Пока не обрабатывается
   \   00000004   ........           _BLF     ??IsInArchive,??IsInArchive??rA
   \   00000008   000050E3           CMP      R0,#+0
   \   0000000C   1080BD18           POPNE    {R4,PC}
   1145            
   1146            if (*szLastNewDir)
   \   00000010   28009FE5           LDR      R0,??DoNewDir_1  ;; szLastNewDir
   \   00000014   B000D0E1           LDRH     R0,[R0, #+0]
   \   00000018   000050E3           CMP      R0,#+0
   1147              ws=szLastNewDir;
   \   0000001C   1C409F15           LDRNE    R4,??DoNewDir_1  ;; szLastNewDir
   1148            else
   1149              ws=(wchar_t *)str_empty;
   1150            TextInput(muitxt(ind_name), 1, ws, _NewDir);
   \   00000020   3200A0E3           MOV      R0,#+50
   \   00000024   ........           LDREQ    R4,??DataTable136  ;; str_empty
   \   00000028   ........           _BLF     ??muitxt,??muitxt??rA
   \   0000002C   10309FE5           LDR      R3,??DoNewDir_1+0x4  ;; ??_NewDir
   \   00000030   0420A0E1           MOV      R2,R4
   \   00000034   0110A0E3           MOV      R1,#+1
   \   00000038   ........           _BLF     ??TextInput,??TextInput??rA
   1151          }
   \   0000003C   1080BDE8           POP      {R4,PC}          ;; return
   \                     ??DoNewDir_1:
   \   00000040   ........           DC32     szLastNewDir
   \   00000044   ........           DC32     ??_NewDir
   1152          

   \                                 In segment CODE, align 4, keep-with-next
   1153          void CB_Cancel(int id)
   1154          {
   \                     ??CB_Cancel:
   \   00000000   00402DE9           PUSH     {LR}
   1155            if (id==IDYES) fn_free(&buffer);
   \   00000004   010050E3           CMP      R0,#+1
   \   00000008   0080BD18           POPNE    {PC}
   \   0000000C   ........           LDR      R0,??DataTable166  ;; buffer
   \   00000010   ........           _BLF     ??fn_free,??fn_free??rA
   1156          }
   \   00000014   0080BDE8           POP      {PC}             ;; return
   1157          

   \                                 In segment CODE, align 4, keep-with-next
   1158          void DoCancel()
   1159          {
   1160            if (buffer.count)
   \                     ??DoCancel:
   \   00000000   ........           LDR      R0,??DataTable166  ;; buffer
   \   00000004   00402DE9           PUSH     {LR}
   \   00000008   000090E5           LDR      R0,[R0, #+0]
   \   0000000C   000050E3           CMP      R0,#+0
   \   00000010   0080BD08           POPEQ    {PC}
   1161              MsgBoxYesNo(muitxt(ind_pmt_cancel), CB_Cancel);
   \   00000014   4600A0E3           MOV      R0,#+70
   \   00000018   ........           _BLF     ??muitxt,??muitxt??rA
   \   0000001C   04109FE5           LDR      R1,??DoCancel_1  ;; ??CB_Cancel
   \   00000020   ........           _BLF     ??MsgBoxYesNo,??MsgBoxYesNo??rA
   1162          }
   \   00000024   0080BDE8           POP      {PC}             ;; return
   \                     ??DoCancel_1:
   \   00000028   ........           DC32     ??CB_Cancel
   1163          

   \                                 In segment CODE, align 4, keep-with-next
   1164          void _Filter(wchar_t *wsname)
   1165          {
   \                     ??_Filter:
   \   00000000   30402DE9           PUSH     {R4,R5,LR}
   1166            wstrncpy(_CurTab->szFilter, wsname, MAX_PATH);
   \   00000004   ........           LDR      R5,??DataTable155  ;; ExitTimer
   \   00000008   0010A0E1           MOV      R1,R0
   \   0000000C   600295E5           LDR      R0,[R5, #+608]
   \   00000010   1240A0E3           MOV      R4,#+18
   \   00000014   000185E0           ADD      R0,R5,R0, LSL #+2
   \   00000018   640290E5           LDR      R0,[R0, #+612]
   \   0000001C   604E84E3           ORR      R4,R4,#0x600
   \   00000020   402FA0E3           MOV      R2,#+256
   \   00000024   000084E0           ADD      R0,R4,R0
   \   00000028   530100EF           SWI      +339
   1167            if (wstrcmp(_CurTab->szFilter, def_filter) == 0)
   \   0000002C   600295E5           LDR      R0,[R5, #+608]
   \   00000030   ........           LDR      R1,??DataTable144  ;; def_filter
   \   00000034   000185E0           ADD      R0,R5,R0, LSL #+2
   \   00000038   640290E5           LDR      R0,[R0, #+612]
   \   0000003C   000084E0           ADD      R0,R4,R0
   \   00000040   560100EF           SWI      +342
   \   00000044   000050E3           CMP      R0,#+0
   \   00000048   0400001A           BNE      ??_Filter_1
   1168              _CurTab->szFilter[0] = 0;
   \   0000004C   601295E5           LDR      R1,[R5, #+608]
   \   00000050   0020A0E3           MOV      R2,#+0
   \   00000054   011185E0           ADD      R1,R5,R1, LSL #+2
   \   00000058   641291E5           LDR      R1,[R1, #+612]
   \   0000005C   B12084E1           STRH     R2,[R4, +R1]
   1169            
   1170            DoRefresh();
   \                     ??_Filter_1:
   \   00000060   ........           LDR      R0,??DataTable153  ;; ExitTimer + 608
   \   00000064   000090E5           LDR      R0,[R0, #+0]
   \   00000068   ........           BL       ??RefreshTab
   1171          }
   \   0000006C   3080BDE8           POP      {R4,R5,PC}       ;; return
   1172          

   \                                 In segment CODE, align 4, keep-with-next
   1173          void DoFilter()
   1174          {
   1175            const wchar_t *ws;
   1176            if (_CurTab->szFilter[0])
   \                     ??DoFilter:
   \   00000000   ........           LDR      R0,??DataTable155  ;; ExitTimer
   \   00000004   10402DE9           PUSH     {R4,LR}
   \   00000008   602290E5           LDR      R2,[R0, #+608]
   \   0000000C   1210A0E3           MOV      R1,#+18
   \   00000010   020180E0           ADD      R0,R0,R2, LSL #+2
   \   00000014   640290E5           LDR      R0,[R0, #+612]
   \   00000018   601E81E3           ORR      R1,R1,#0x600
   \   0000001C   B00091E1           LDRH     R0,[R1, +R0]
   \   00000020   000050E3           CMP      R0,#+0
   \   00000024   0400000A           BEQ      ??DoFilter_1
   1177              ws=_CurTab->szFilter;
   \   00000028   ........           LDR      R0,??DataTable155  ;; ExitTimer
   \   0000002C   020180E0           ADD      R0,R0,R2, LSL #+2
   \   00000030   640290E5           LDR      R0,[R0, #+612]
   \   00000034   004081E0           ADD      R4,R1,R0
   \   00000038   000000EA           B        ??DoFilter_2
   1178            else
   1179              ws=def_filter;
   \                     ??DoFilter_1:
   \   0000003C   ........           LDR      R4,??DataTable144  ;; def_filter
   1180            TextInput(muitxt(ind_name), 0, ws, _Filter);
   \                     ??DoFilter_2:
   \   00000040   3200A0E3           MOV      R0,#+50
   \   00000044   ........           _BLF     ??muitxt,??muitxt??rA
   \   00000048   0C309FE5           LDR      R3,??DoFilter_3  ;; ??_Filter
   \   0000004C   0420A0E1           MOV      R2,R4
   \   00000050   0010A0E3           MOV      R1,#+0
   \   00000054   1040BDE8           POP      {R4,LR}          ;; Pop
   \   00000058   ........           _BF      ??TextInput,??TextInput??rA  ;; tailcall
   \                     ??DoFilter_3:
   \   0000005C   ........           DC32     ??_Filter
   1181          }
   1182          

   \                                 In segment CODE, align 4, keep-with-next
   1183          void CB_RenEx(int id)
   1184          {
   \                     ??CB_RenEx:
   \   00000000   70402DE9           PUSH     {R4-R6,LR}
   \   00000004   80DF4DE2           SUB      SP,SP,#+512
   \   00000008   0040A0E1           MOV      R4,R0
   1185            if (id==IDYES || id==-1 || id==-2)
   \   0000000C   010054E3           CMP      R4,#+1
   \   00000010   01007413           CMNNE    R4,#+1
   \   00000014   02007413           CMNNE    R4,#+2
   \   00000018   3000001A           BNE      ??CB_RenEx_1
   1186            {
   1187              wchar_t src[MAX_PATH];
   1188              FILEINF *file = _CurFile();
   \   0000001C   ........           LDR      R5,??DataTable155  ;; ExitTimer
   \   00000020   606295E5           LDR      R6,[R5, #+608]
   \   00000024   0600A0E1           MOV      R0,R6
   \   00000028   ........           BL       ??_CurTabFile
   \   0000002C   200090E5           LDR      R0,[R0, #+32]
   \   00000030   ........           LDR      R2,??DataTable146  ;; _ls_ls
   \   00000034   061185E0           ADD      R1,R5,R6, LSL #+2
   \   00000038   641291E5           LDR      R1,[R1, #+612]
   \   0000003C   01002DE9           PUSH     {R0}
   \   00000040   F400D1E1           LDRSH    R0,[R1, #+4]
   \   00000044   800481E0           ADD      R0,R1,R0, LSL #+9
   \   00000048   123080E2           ADD      R3,R0,#+18
   \   0000004C   FF10A0E3           MOV      R1,#+255
   \   00000050   04008DE2           ADD      R0,SP,#+4
   1189              snwprintf(src, MAXELEMS(src)-1, _ls_ls, _CurPath, file->ws_name);
   \   00000054   150100EF           SWI      +277
   1190              if (id==IDYES) w_remove(pathbuf);
   \   00000058   010054E3           CMP      R4,#+1
   \   0000005C   04D08DE2           ADD      SP,SP,#+4
   \   00000060   0100001A           BNE      ??CB_RenEx_2
   \   00000064   ........           LDR      R0,??DataTable156  ;; ExitTimer + 1660
   \   00000068   300300EF           SWI      +816
   1191              int res=1;
   \                     ??CB_RenEx_2:
   \   0000006C   0150A0E3           MOV      R5,#+1
   1192              if (id==-2)
   \   00000070   020074E3           CMN      R4,#+2
   \   00000074   0300000A           BEQ      ??CB_RenEx_3
   1193              {
   1194                //char tmpBuf[MAX_PATH];
   1195                //TmpFullPath2(tmpBuf, file->sname);
   1196                //res = fmove(src, tmpBuf, &err) && fmove(tmpBuf, pathbuf, &err);
   1197              }
   1198              else
   1199                res = w_rename(src, pathbuf);
   \   00000078   ........           LDR      R1,??DataTable156  ;; ExitTimer + 1660
   \   0000007C   0D00A0E1           MOV      R0,SP
   \   00000080   2F0300EF           SWI      +815
   \   00000084   0050A0E1           MOV      R5,R0
   1200              
   1201              DoRefresh();
   \                     ??CB_RenEx_3:
   \   00000088   ........           LDR      R0,??DataTable153  ;; ExitTimer + 608
   \   0000008C   000090E5           LDR      R0,[R0, #+0]
   \   00000090   ........           BL       ??RefreshTab
   1202              if (!res)
   \   00000094   000055E3           CMP      R5,#+0
   \   00000098   0D00001A           BNE      ??CB_RenEx_4
   1203              {
   1204                //Ищем
   1205                int ind = GetCurTabFileIndex(GetFileName(pathbuf));
   \   0000009C   ........           LDR      R5,??DataTable155  ;; ExitTimer
   \   000000A0   7C00A0E3           MOV      R0,#+124
   \   000000A4   600E80E3           ORR      R0,R0,#0x600
   \   000000A8   050080E0           ADD      R0,R0,R5
   \   000000AC   ........           _BLF     ??GetFileName,??GetFileName??rA
   \   000000B0   0010A0E1           MOV      R1,R0
   \   000000B4   600295E5           LDR      R0,[R5, #+608]
   \   000000B8   ........           BL       ??GetFileIndex
   1206                SetCurTabIndex(ind, 0);
   \   000000BC   0020A0E3           MOV      R2,#+0
   \   000000C0   0010A0E1           MOV      R1,R0
   \   000000C4   600295E5           LDR      R0,[R5, #+608]
   \   000000C8   ........           BL       ??SetTabIndex
   \   000000CC   80DF8DE2           ADD      SP,SP,#+512
   \   000000D0   7080BDE8           POP      {R4-R6,PC}
   1207              }
   1208              else
   1209                MsgBoxError(muitxt(ind_err_rename));
   \                     ??CB_RenEx_4:
   \   000000D4   4E00A0E3           MOV      R0,#+78
   \   000000D8   ........           _BLF     ??muitxt,??muitxt??rA
   \   000000DC   ........           _BLF     ??MsgBoxError,??MsgBoxError??rA
   1210            }
   1211          }
   \                     ??CB_RenEx_1:
   \   000000E0   80DF8DE2           ADD      SP,SP,#+512      ;; stack cleaning
   \   000000E4   7080BDE8           POP      {R4-R6,PC}       ;; return
   1212          

   \                                 In segment CODE, align 4, keep-with-next
   1213          void _Rename(wchar_t *wsname)
   1214          {
   \                     ??_Rename:
   \   00000000   10402DE9           PUSH     {R4,LR}
   \   00000004   0040A0E1           MOV      R4,R0
   1215            CurFullPath(wsname);
   \   00000008   ........           BL       ??CurFullPath
   1216            if (wstrcmpi(wsname, _CurFile()->ws_name))
   \   0000000C   ........           LDR      R0,??DataTable153  ;; ExitTimer + 608
   \   00000010   000090E5           LDR      R0,[R0, #+0]
   \   00000014   ........           BL       ??_CurTabFile
   \   00000018   201090E5           LDR      R1,[R0, #+32]
   \   0000001C   0400A0E1           MOV      R0,R4
   \   00000020   9F0200EF           SWI      +671
   \   00000024   000050E3           CMP      R0,#+0
   \   00000028   1100000A           BEQ      ??_Rename_1
   1217            {
   1218              if (fexists(pathbuf))
   \   0000002C   ........           LDR      R0,??DataTable156  ;; ExitTimer + 1660
   \   00000030   ........           _BLF     ??fexists,??fexists??rA
   \   00000034   000050E3           CMP      R0,#+0
   \   00000038   0A00000A           BEQ      ??_Rename_2
   1219              {
   1220                if (CONFIG_CONFIRM_REPLACE)
   \   0000003C   3C009FE5           LDR      R0,??_Rename_3   ;; CONFIG_CONFIRM_REPLACE
   \   00000040   000090E5           LDR      R0,[R0, #+0]
   \   00000044   000050E3           CMP      R0,#+0
   \   00000048   0400000A           BEQ      ??_Rename_4
   1221                  MsgBoxYesNo(muitxt(ind_pmt_exists), CB_RenEx);
   \   0000004C   4700A0E3           MOV      R0,#+71
   \   00000050   ........           _BLF     ??muitxt,??muitxt??rA
   \   00000054   28109FE5           LDR      R1,??_Rename_3+0x4  ;; ??CB_RenEx
   \   00000058   ........           _BLF     ??MsgBoxYesNo,??MsgBoxYesNo??rA
   \   0000005C   1080BDE8           POP      {R4,PC}
   1222                else
   1223                  CB_RenEx(IDYES);
   \                     ??_Rename_4:
   \   00000060   0100A0E3           MOV      R0,#+1
   \   00000064   030000EA           B        ??_Rename_5
   1224              }
   1225              else
   1226              {
   1227                CB_RenEx(-1);
   \                     ??_Rename_2:
   \   00000068   0000E0E3           MVN      R0,#+0
   \   0000006C   ........           BL       ??CB_RenEx
   \   00000070   1080BDE8           POP      {R4,PC}
   1228              }
   1229              
   1230            }
   1231            else
   1232              CB_RenEx(-2);
   \                     ??_Rename_1:
   \   00000074   0100E0E3           MVN      R0,#+1
   \                     ??_Rename_5:
   \   00000078   ........           BL       ??CB_RenEx
   \   0000007C   1080BDE8           POP      {R4,PC}
   \                     ??_Rename_3:
   \   00000080   ........           DC32     CONFIG_CONFIRM_REPLACE
   \   00000084   ........           DC32     ??CB_RenEx
   1233          }
   1234          

   \                                 In segment CODE, align 4, keep-with-next
   1235          void DoRen()
   1236          {
   \                     ??DoRen:
   \   00000000   10402DE9           PUSH     {R4,LR}
   1237            if (IsInArchive()) return; // Пока не обрабатывается
   \   00000004   ........           _BLF     ??IsInArchive,??IsInArchive??rA
   \   00000008   000050E3           CMP      R0,#+0
   \   0000000C   1080BD18           POPNE    {R4,PC}
   1238            
   1239            FILEINF *cfile = _CurFile();
   \   00000010   ........           LDR      R0,??DataTable153  ;; ExitTimer + 608
   \   00000014   000090E5           LDR      R0,[R0, #+0]
   \   00000018   ........           BL       ??_CurTabFile
   \   0000001C   0040B0E1           MOVS     R4,R0
   1240            if (cfile)
   \   00000020   1080BD08           POPEQ    {R4,PC}
   1241              TextInput(muitxt(ind_name), 1, cfile->ws_name, _Rename);
   \   00000024   3200A0E3           MOV      R0,#+50
   \   00000028   ........           _BLF     ??muitxt,??muitxt??rA
   \   0000002C   0C309FE5           LDR      R3,??DoRen_1     ;; ??_Rename
   \   00000030   202094E5           LDR      R2,[R4, #+32]
   \   00000034   0110A0E3           MOV      R1,#+1
   \   00000038   ........           _BLF     ??TextInput,??TextInput??rA
   \   0000003C   1080BDE8           POP      {R4,PC}          ;; return
   \                     ??DoRen_1:
   \   00000040   ........           DC32     ??_Rename
   1242          }
   1243          
   1244          
   1245          

   \                                 In segment CODE, align 4, keep-with-next
   1246          int M_Send(FILEINF *file, int param)
   1247          {
   \                     ??M_Send:
   \   00000000   70402DE9           PUSH     {R4-R6,LR}
   \   00000004   0040A0E1           MOV      R4,R0
   \   00000008   0150A0E1           MOV      R5,R1
   1248            if (file && wstrlen(file->ws_name))
   \   0000000C   000054E3           CMP      R4,#+0
   \   00000010   2200000A           BEQ      ??M_Send_1
   \   00000014   200094E5           LDR      R0,[R4, #+32]
   \   00000018   570100EF           SWI      +343
   \   0000001C   000050E3           CMP      R0,#+0
   \   00000020   7080BD08           POPEQ    {R4-R6,PC}
   1249            {
   1250              int pname = wstrlen(_CurPath) + 1;
   \   00000024   ........           LDR      R0,??DataTable155  ;; ExitTimer
   \   00000028   601290E5           LDR      R1,[R0, #+608]
   \   0000002C   010180E0           ADD      R0,R0,R1, LSL #+2
   \   00000030   640290E5           LDR      R0,[R0, #+612]
   \   00000034   F410D0E1           LDRSH    R1,[R0, #+4]
   \   00000038   810480E0           ADD      R0,R0,R1, LSL #+9
   \   0000003C   120080E2           ADD      R0,R0,#+18
   \   00000040   570100EF           SWI      +343
   \   00000044   016080E2           ADD      R6,R0,#+1
   1251              CurFullPath(file->ws_name);
   \   00000048   200094E5           LDR      R0,[R4, #+32]
   \   0000004C   ........           BL       ??CurFullPath
   1252              fn_add(&buffer, param, file->ftype, pname, pathbuf, IsInArchive() ? _CurTab->zipInfo->szZipPath : NULL);
   \   00000050   ........           _BLF     ??IsInArchive,??IsInArchive??rA
   \   00000054   000050E3           CMP      R0,#+0
   \   00000058   0500000A           BEQ      ??M_Send_2
   \   0000005C   ........           LDR      R0,??DataTable155  ;; ExitTimer
   \   00000060   601290E5           LDR      R1,[R0, #+608]
   \   00000064   010180E0           ADD      R0,R0,R1, LSL #+2
   \   00000068   640290E5           LDR      R0,[R0, #+612]
   \   0000006C   140890E5           LDR      R0,[R0, #+2068]
   \   00000070   040080E2           ADD      R0,R0,#+4
   \                     ??M_Send_2:
   \   00000074   01002DE9           PUSH     {R0}
   \   00000078   ........           LDR      R0,??DataTable156  ;; ExitTimer + 1660
   \   0000007C   0630A0E1           MOV      R3,R6
   \   00000080   01002DE9           PUSH     {R0}
   \   00000084   042094E5           LDR      R2,[R4, #+4]
   \   00000088   ........           LDR      R0,??DataTable166  ;; buffer
   \   0000008C   0510A0E1           MOV      R1,R5
   \   00000090   ........           _BLF     ??fn_add,??fn_add??rA
   1253              return 1;
   \   00000094   0100A0E3           MOV      R0,#+1
   \   00000098   08D08DE2           ADD      SP,SP,#+8
   \   0000009C   7080BDE8           POP      {R4-R6,PC}
   1254            }
   1255            return 0;
   \                     ??M_Send_1:
   \   000000A0   0000A0E3           MOV      R0,#+0
   \   000000A4   7080BDE8           POP      {R4-R6,PC}       ;; return
   1256          }
   1257          

   \                                 In segment CODE, align 4, keep-with-next
   1258          void DestroySendList(LIST *lst)
   1259          {
   \                     ??DestroySendList:
   \   00000000   10402DE9           PUSH     {R4,LR}
   \   00000004   0040A0E1           MOV      R4,R0
   \   00000008   B200D4E1           LDRH     R0,[R4, #+2]
   \   0000000C   000050E3           CMP      R0,#+0
   \   00000010   1080BD08           POPEQ    {R4,PC}
   1260            WriteLog("DestroySendList");
   1261            while(lst->FirstFree)
   1262            {
   1263              void *f=List_RemoveAt(lst,0);
   \                     ??DestroySendList_1:
   \   00000014   0010A0E3           MOV      R1,#+0
   \   00000018   0400A0E1           MOV      R0,R4
   \   0000001C   790100EF           SWI      +377
   1264              delete (f);
   \   00000020   ........           _BLF     `??operator delete`,`??operator delete??rA`
   1265            }
   \   00000024   B200D4E1           LDRH     R0,[R4, #+2]
   \   00000028   000050E3           CMP      R0,#+0
   \   0000002C   F8FFFF1A           BNE      ??DestroySendList_1
   1266          }
   \   00000030   1080BDE8           POP      {R4,PC}          ;; return
   1267          
   1268          extern "C" void SendObexFile(void *send);
   1269          

   \                                 In segment CODE, align 4, keep-with-next
   1270          void SendBT_page()
   1271          {
   \                     ??SendBT_page:
   \   00000000   F0402DE9           PUSH     {R4-R7,LR}
   1272            if (IsInArchive()) return; // Пока не обрабатывается
   \   00000004   ........           _BLF     ??IsInArchive,??IsInArchive??rA
   \   00000008   000050E3           CMP      R0,#+0
   \   0000000C   F080BD18           POPNE    {R4-R7,PC}
   1273            // Очищаем буфер
   1274            CB_Cancel(IDYES);
   \   00000010   ........           LDR      R4,??DataTable166  ;; buffer
   \   00000014   0400A0E1           MOV      R0,R4
   \   00000018   ........           _BLF     ??fn_free,??fn_free??rA
   1275            // Копируем текущие файлы в буфер
   1276            EnumSel(M_Send, FNT_SEND);
   \   0000001C   DC019FE5           LDR      R0,??SendBT_page_1  ;; ??M_Send
   \   00000020   0310A0E3           MOV      R1,#+3
   \   00000024   ........           BL       ??EnumSel
   1277            if (buffer.count)
   \   00000028   000094E5           LDR      R0,[R4, #+0]
   \   0000002C   000050E3           CMP      R0,#+0
   \   00000030   F080BD08           POPEQ    {R4-R7,PC}
   1278            {
   1279              DestroySendList(MCBook->lst_send);
   \   00000034   ........           LDR      R0,??DataTable170  ;; MCBook
   \   00000038   000090E5           LDR      R0,[R0, #+0]
   \   0000003C   340090E5           LDR      R0,[R0, #+52]
   \   00000040   ........           BL       ??DestroySendList
   1280              SEND_OBEX_STRUCT *send=new SEND_OBEX_STRUCT;
   \   00000044   410EA0E3           MOV      R0,#+1040
   \   00000048   ........           _BLF     `??operator new`,`??operator new??rA`
   \   0000004C   0040A0E1           MOV      R4,R0
   1281              memset(send,0,sizeof(SEND_OBEX_STRUCT));
   \   00000050   412EA0E3           MOV      R2,#+1040
   \   00000054   0010A0E3           MOV      R1,#+0
   \   00000058   120100EF           SWI      +274
   1282              FN_ITM* itm = buffer.items;
   \   0000005C   A0019FE5           LDR      R0,??SendBT_page_1+0x4  ;; buffer + 8
   \   00000060   005090E5           LDR      R5,[R0, #+0]
   \   00000064   000055E3           CMP      R5,#+0
   \   00000068   3800000A           BEQ      ??SendBT_page_2
   1283              while(itm)
   1284              {
   1285                if(!isdir(itm->full))
   \                     ??SendBT_page_3:
   \   0000006C   080095E5           LDR      R0,[R5, #+8]
   \   00000070   ........           _BLF     ??isdir,??isdir??rA
   \   00000074   000050E3           CMP      R0,#+0
   \   00000078   3100001A           BNE      ??SendBT_page_4
   1286                {
   1287                  wchar_t *fname=wstrrchr(itm->full, L'/');
   \   0000007C   080095E5           LDR      R0,[R5, #+8]
   \   00000080   2F10A0E3           MOV      R1,#+47
   \   00000084   AE0100EF           SWI      +430
   \   00000088   0060B0E1           MOVS     R6,R0
   1288                  if (fname)
   \   0000008C   2C00000A           BEQ      ??SendBT_page_4
   1289                  {
   1290                    if (buffer.count==1)
   \   00000090   ........           LDR      R0,??DataTable166  ;; buffer
   \   00000094   000090E5           LDR      R0,[R0, #+0]
   \   00000098   010050E3           CMP      R0,#+1
   \   0000009C   64019FE5           LDR      R0,??SendBT_page_1+0x8  ;; is_db2010
   \   000000A0   000090E5           LDR      R0,[R0, #+0]
   \   000000A4   0D00001A           BNE      ??SendBT_page_5
   1291                    {
   1292                      if (is_db2010) {
   \   000000A8   000050E3           CMP      R0,#+0
   \   000000AC   0020A0E3           MOV      R2,#+0
   \   000000B0   0600000A           BEQ      ??SendBT_page_6
   1293                        GetFileDir(itm->full, send->btf2010.fpath,0);
   \   000000B4   831F84E2           ADD      R1,R4,#+524
   \                     ??SendBT_page_7:
   \   000000B8   080095E5           LDR      R0,[R5, #+8]
   \   000000BC   ........           _BLF     ??GetFileDir,??GetFileDir??rA
   1294                        wstrcpy(send->btf2010.fname,fname+1);
   \   000000C0   021086E2           ADD      R1,R6,#+2
   \   000000C4   140084E2           ADD      R0,R4,#+20
   \   000000C8   520100EF           SWI      +338
   \   000000CC   1C0000EA           B        ??SendBT_page_4
   1295                      }
   1296                      else {
   1297                        GetFileDir(itm->full, send->btf2020.fpath,0);
   \                     ??SendBT_page_6:
   \   000000D0   1200A0E3           MOV      R0,#+18
   \   000000D4   800F80E3           ORR      R0,R0,#0x200
   \   000000D8   041080E0           ADD      R1,R0,R4
   \   000000DC   F5FFFFEA           B        ??SendBT_page_7
   1298                        wstrcpy(send->btf2020.fname,fname+1);
   1299                      }
   1300                    }else{
   1301                      if (is_db2010) {
   \                     ??SendBT_page_5:
   \   000000E0   000050E3           CMP      R0,#+0
   \   000000E4   0500000A           BEQ      ??SendBT_page_8
   1302                        BT_FILE_2010 *f=new BT_FILE_2010;
   \   000000E8   FC0FA0E3           MOV      R0,#+1008
   \   000000EC   ........           _BLF     `??operator new`,`??operator new??rA`
   \   000000F0   0070A0E1           MOV      R7,R0
   1303                        GetFileDir(itm->full, f->fpath,0);
   \   000000F4   0020A0E3           MOV      R2,#+0
   \   000000F8   7E1F87E2           ADD      R1,R7,#+504
   \   000000FC   060000EA           B        ??SendBT_page_9
   1304                        wstrcpy(f->fname,fname+1);
   1305                        List_InsertFirst(MCBook->lst_send, f);
   1306                      }
   1307                      else {
   1308                        BT_FILE_2020 *f=new BT_FILE_2020;
   \                     ??SendBT_page_8:
   \   00000100   FF0FA0E3           MOV      R0,#+1020
   \   00000104   ........           _BLF     `??operator new`,`??operator new??rA`
   \   00000108   0070A0E1           MOV      R7,R0
   1309                        GetFileDir(itm->full, f->fpath,0);
   \   0000010C   0020A0E3           MOV      R2,#+0
   \   00000110   FE00A0E3           MOV      R0,#+254
   \   00000114   400F80E3           ORR      R0,R0,#0x100
   \   00000118   071080E0           ADD      R1,R0,R7
   \                     ??SendBT_page_9:
   \   0000011C   080095E5           LDR      R0,[R5, #+8]
   \   00000120   ........           _BLF     ??GetFileDir,??GetFileDir??rA
   1310                        wstrcpy(f->fname,fname+1);
   \   00000124   021086E2           ADD      R1,R6,#+2
   \   00000128   0700A0E1           MOV      R0,R7
   \   0000012C   520100EF           SWI      +338
   1311                        List_InsertFirst(MCBook->lst_send, f);
   \   00000130   ........           LDR      R0,??DataTable170  ;; MCBook
   \   00000134   0710A0E1           MOV      R1,R7
   \   00000138   000090E5           LDR      R0,[R0, #+0]
   \   0000013C   340090E5           LDR      R0,[R0, #+52]
   \   00000140   6B0100EF           SWI      +363
   1312                      }
   1313                    }
   1314                  }
   1315                }
   1316                itm=(FN_ITM *)itm->next;
   \                     ??SendBT_page_4:
   \   00000144   0C5095E5           LDR      R5,[R5, #+12]
   1317              }
   \   00000148   000055E3           CMP      R5,#+0
   \   0000014C   C6FFFF1A           BNE      ??SendBT_page_3
   1318              if (MCBook->lst_send->FirstFree)
   \                     ??SendBT_page_2:
   \   00000150   ........           LDR      R0,??DataTable170  ;; MCBook
   \   00000154   000090E5           LDR      R0,[R0, #+0]
   \   00000158   340090E5           LDR      R0,[R0, #+52]
   \   0000015C   B200D0E1           LDRH     R0,[R0, #+2]
   \   00000160   000050E3           CMP      R0,#+0
   \   00000164   0600000A           BEQ      ??SendBT_page_10
   1319              {
   1320                send->is_multiple=1;
   \   00000168   0100A0E3           MOV      R0,#+1
   \   0000016C   0000C4E5           STRB     R0,[R4, #+0]
   1321                send->lst=MCBook->lst_send;
   \   00000170   ........           LDR      R0,??DataTable170  ;; MCBook
   \   00000174   000090E5           LDR      R0,[R0, #+0]
   \   00000178   340090E5           LDR      R0,[R0, #+52]
   \   0000017C   140084E5           STR      R0,[R4, #+20]
   \   00000180   040000EA           B        ??SendBT_page_11
   1322              }else if(buffer.count==1){
   \                     ??SendBT_page_10:
   \   00000184   ........           LDR      R0,??DataTable166  ;; buffer
   \   00000188   000090E5           LDR      R0,[R0, #+0]
   \   0000018C   010050E3           CMP      R0,#+1
   1323                send->is_multiple=0;
   \   00000190   0000A003           MOVEQ    R0,#+0
   \   00000194   0000C405           STRBEQ   R0,[R4, #+0]
   1324              }
   1325              send->Book_ID=BookObj_GetBookID(&MCBook->book);
   \                     ??SendBT_page_11:
   \   00000198   ........           LDR      R0,??DataTable170  ;; MCBook
   1326              send->send=TextID_Create(L"Первая строка",ENC_UCS2,TEXTID_ANY_LEN);
   \   0000019C   68509FE5           LDR      R5,??SendBT_page_1+0xC  ;; `?<Constant L"\\x412\\x442\\x43e\\x440\\x430\\x44f\\x2`
   \   000001A0   000090E5           LDR      R0,[R0, #+0]
   \   000001A4   FF60A0E3           MOV      R6,#+255
   \   000001A8   FA0100EF           SWI      +506
   \   000001AC   040084E5           STR      R0,[R4, #+4]
   \   000001B0   FF6C86E3           ORR      R6,R6,#0xFF00
   \   000001B4   0620A0E1           MOV      R2,R6
   \   000001B8   0010A0E3           MOV      R1,#+0
   \   000001BC   1C0085E2           ADD      R0,R5,#+28
   \   000001C0   5D0100EF           SWI      +349
   \   000001C4   080084E5           STR      R0,[R4, #+8]
   1327              send->sent=TextID_Create(L"Вторая строка",ENC_UCS2,TEXTID_ANY_LEN);
   \   000001C8   0620A0E1           MOV      R2,R6
   \   000001CC   0010A0E3           MOV      R1,#+0
   \   000001D0   0500A0E1           MOV      R0,R5
   \   000001D4   5D0100EF           SWI      +349
   \   000001D8   0C0084E5           STR      R0,[R4, #+12]
   1328              send->obex_flag=2;
   \   000001DC   0200A0E3           MOV      R0,#+2
   \   000001E0   B001C4E1           STRH     R0,[R4, #+16]
   1329              ObexSendFile(send);
   \   000001E4   0400A0E1           MOV      R0,R4
   \   000001E8   790300EF           SWI      +889
   1330              delete (send);
   \   000001EC   0400A0E1           MOV      R0,R4
   \   000001F0   ........           _BLF     `??operator delete`,`??operator delete??rA`
   1331              fn_free(&buffer);
   \   000001F4   ........           LDR      R0,??DataTable166  ;; buffer
   \   000001F8   ........           _BLF     ??fn_free,??fn_free??rA
   \   000001FC   F080BDE8           POP      {R4-R7,PC}       ;; return
   \                     ??SendBT_page_1:
   \   00000200   ........           DC32     ??M_Send
   \   00000204   ........           DC32     buffer + 8
   \   00000208   ........           DC32     is_db2010
   \   0000020C   ........           DC32     `?<Constant L"\\x412\\x442\\x43e\\x440\\x430\\x44f\\x2`
   1332            }
   1333          }
   1334          

   \                                 In segment CODE, align 4, keep-with-next
   1335          static int SF_OnEnter(void *, BOOK * bk)
   1336          {
   \                     ??SF_OnEnter:
   \   00000000   00402DE9           PUSH     {LR}
   1337            SendBT_page();
   \   00000004   ........           BL       ??SendBT_page
   1338            return (1);
   \   00000008   0100A0E3           MOV      R0,#+1
   \   0000000C   0080BDE8           POP      {PC}             ;; return
   1339          }
   1340          

   \                                 In segment CODE, align 4, keep-with-next
   1341          static int SF_OnExit(void *, BOOK * bk)
   1342          {
   \                     ??SF_OnExit:
   \   00000000   00402DE9           PUSH     {LR}
   1343            MyBOOK *mbk=(MyBOOK *)bk;
   1344            WriteLog("SF_OnExit");
   1345            DestroySendList(mbk->lst_send);
   \   00000004   340091E5           LDR      R0,[R1, #+52]
   \   00000008   ........           BL       ??DestroySendList
   1346            return (1);  
   \   0000000C   0100A0E3           MOV      R0,#+1
   \   00000010   0080BDE8           POP      {PC}             ;; return
   1347          }
   1348          

   \                                 In segment CODE, align 4, keep-with-next
   1349          static int SF_OnAccept(void *data, BOOK *bk)
   1350          {
   \                     ??SF_OnAccept:
   \   00000000   00402DE9           PUSH     {LR}
   \   00000004   0100A0E1           MOV      R0,R1
   1351            WriteLog("SF_OnAccept");
   1352            BookObj_ReturnPage(bk, PREVIOUS_EVENT);
   \   00000008   ........           LDR      R1,??DataTable169  ;; PREVIOUS_EVENT
   \   0000000C   001091E5           LDR      R1,[R1, #+0]
   \   00000010   2E0100EF           SWI      +302
   1353            return (1);
   \   00000014   0100A0E3           MOV      R0,#+1
   \   00000018   0080BDE8           POP      {PC}             ;; return
   1354          }
   1355          

   \                                 In segment CODE, align 4, keep-with-next
   1356          static int SF_OnCancel(void *data, BOOK *bk)
   1357          {
   \                     ??SF_OnCancel:
   \   00000000   00402DE9           PUSH     {LR}
   \   00000004   0100A0E1           MOV      R0,R1
   1358            WriteLog("SF_OnCancel");
   1359            BookObj_ReturnPage(bk, PREVIOUS_EVENT);
   \   00000008   ........           LDR      R1,??DataTable169  ;; PREVIOUS_EVENT
   \   0000000C   001091E5           LDR      R1,[R1, #+0]
   \   00000010   2E0100EF           SWI      +302
   1360            return (1);
   \   00000014   0100A0E3           MOV      R0,#+1
   \   00000018   0080BDE8           POP      {PC}             ;; return
   1361          }
   1362          

   \                                 In segment CODE, align 4, keep-with-next
   1363          static int SF_OnPreviuos(void *data, BOOK *bk)
   1364          {
   \                     ??SF_OnPreviuos:
   \   00000000   00402DE9           PUSH     {LR}
   \   00000004   0100A0E1           MOV      R0,R1
   1365            WriteLog("SF_OnPreviuos");
   1366            BookObj_ReturnPage(bk,PREVIOUS_EVENT);
   \   00000008   ........           LDR      R1,??DataTable169  ;; PREVIOUS_EVENT
   \   0000000C   001091E5           LDR      R1,[R1, #+0]
   \   00000010   2E0100EF           SWI      +302
   1367            return (1);
   \   00000014   0100A0E3           MOV      R0,#+1
   \   00000018   0080BDE8           POP      {PC}             ;; return
   1368          }
   1369          

   \                                 In segment DYN_PAGE, align 4, align-sorted
   1370          const PAGE_MSG bk_msglst_sendfile[] @ "DYN_PAGE"  = 
   \                     bk_msglst_sendfile:
   \   00000000   42000000....       DC32 66, ??SF_OnEnter, 67, ??SF_OnExit, 76, ??SF_OnAccept, 77
   \              ....43000000
   \              ........4C00
   \              0000........
   \              4D000000    
   \   0000001C   ........4E00       DC32 ??SF_OnPreviuos, 78, ??SF_OnCancel, 64, 0H
   \              0000........
   \              400000000000
   \              0000        
   1371          {
   1372            PAGE_ENTER_EVENT_TAG,    SF_OnEnter,
   1373            PAGE_EXIT_EVENT_TAG,     SF_OnExit,
   1374            ACCEPT_EVENT_TAG,        SF_OnAccept,
   1375            PREVIOUS_EVENT_TAG,      SF_OnPreviuos,
   1376            CANCEL_EVENT_TAG,        SF_OnCancel,
   1377            NIL_EVENT_TAG,           NULL
   1378          };
   1379          

   \                                 In segment DATA_C, align 4, align-sorted
   1380          const PAGE_DESC bk_sendfile = {"MC_SendFile_Page",0,bk_msglst_sendfile};
   \                     bk_sendfile:
   \   00000000   ........0000       DC32 `?<Constant "MC_SendFile_Page">`, 0H, bk_msglst_sendfile
   \              0000........
   1381          

   \                                 In segment CODE, align 4, keep-with-next
   1382          void DoSendFile()
   1383          {
   1384            BookObj_CallPage(&MCBook->book,&bk_sendfile);
   \                     ??DoSendFile:
   \   00000000   10109FE5           LDR      R1,??DoSendFile_1  ;; bk_sendfile
   \   00000004   ........           LDR      R0,??DataTable170  ;; MCBook
   \   00000008   00402DE9           PUSH     {LR}
   \   0000000C   000090E5           LDR      R0,[R0, #+0]
   \   00000010   B80200EF           SWI      +696
   1385          }
   \   00000014   0080BDE8           POP      {PC}             ;; return
   \                     ??DoSendFile_1:
   \   00000018   ........           DC32     bk_sendfile

   \                                 In segment CODE, align 4, keep-with-next
   \                     ??DataTable7:
   \   00000000   ........           DC32     mcbm_ext

   \                                 In segment CODE, align 4, keep-with-next
   \                     ??DataTable34:
   \   00000000   ........           DC32     ExitTimer + 608

   \                                 In segment CODE, align 4, keep-with-next
   \                     ??DataTable42:
   \   00000000   ........           DC32     _ls_ls

   \                                 In segment CODE, align 4, keep-with-next
   \                     ??DataTable43:
   \   00000000   ........           DC32     ExitTimer

   \                                 In segment CODE, align 4, keep-with-next
   \                     ??DataTable50:
   \   00000000   ........           DC32     ??S_Paste

   \                                 In segment CODE, align 4, keep-with-next
   \                     ??DataTable52:
   \   00000000   ........           DC32     RedrawGUI

   \                                 In segment CODE, align 4, keep-with-next
   \                     ??DataTable59:
   \   00000000   ........           DC32     ExitTimer + 4

   \                                 In segment CODE, align 4, keep-with-next
   \                     ??DataTable62:
   \   00000000   ........           DC32     RedrawGUI

   \                                 In segment CODE, align 4, keep-with-next
   \                     ??DataTable64:
   \   00000000   ........           DC32     DB_CMD_DESTROY_SUBROUTINE

   \                                 In segment CODE, align 4, keep-with-next
   \                     ??DataTable65:
   \   00000000   ........           DC32     PREVIOUS_EVENT

   \                                 In segment CODE, align 4, keep-with-next
   \                     ??DataTable71:
   \   00000000   ........           DC32     mcbm_ext

   \                                 In segment CODE, align 4, keep-with-next
   \                     ??DataTable77:
   \   00000000   ........           DC32     ExitTimer + 1660

   \                                 In segment CODE, align 4, keep-with-next
   \                     ??DataTable78:
   \   00000000   ........           DC32     MCBook

   \                                 In segment CODE, align 4, keep-with-next
   \                     ??DataTable91:
   \   00000000   ........           DC32     CONFIG_LOOP_NAVIGATION_ENABLE

   \                                 In segment CODE, align 4, keep-with-next
   \                     ??DataTable99:
   \   00000000   ........           DC32     itms_max

   \                                 In segment CODE, align 4, keep-with-next
   \                     ??DataTable104:
   \   00000000   ........           DC32     str_empty

   \                                 In segment CODE, align 4, keep-with-next
   \                     ??DataTable115:
   \   00000000   ........           DC32     ??M_MoveCopy

   \                                 In segment CODE, align 4, keep-with-next
   \                     ??DataTable116:
   \   00000000   ........           DC32     buffer

   \                                 In segment CODE, align 4, keep-with-next
   \                     ??DataTable122:
   \   00000000   ........           DC32     ExitTimer

   \                                 In segment CODE, align 4, keep-with-next
   \                     ??DataTable131:
   \   00000000   ........           DC32     ExitTimer + 608

   \                                 In segment CODE, align 4, keep-with-next
   \                     ??DataTable135:
   \   00000000   ........           DC32     ??S_Delit

   \                                 In segment CODE, align 4, keep-with-next
   \                     ??DataTable136:
   \   00000000   ........           DC32     str_empty

   \                                 In segment CODE, align 4, keep-with-next
   \                     ??DataTable144:
   \   00000000   ........           DC32     def_filter

   \                                 In segment CODE, align 4, keep-with-next
   \                     ??DataTable146:
   \   00000000   ........           DC32     _ls_ls

   \                                 In segment CODE, align 4, keep-with-next
   \                     ??DataTable153:
   \   00000000   ........           DC32     ExitTimer + 608

   \                                 In segment CODE, align 4, keep-with-next
   \                     ??DataTable155:
   \   00000000   ........           DC32     ExitTimer

   \                                 In segment CODE, align 4, keep-with-next
   \                     ??DataTable156:
   \   00000000   ........           DC32     ExitTimer + 1660

   \                                 In segment CODE, align 4, keep-with-next
   \                     ??DataTable166:
   \   00000000   ........           DC32     buffer

   \                                 In segment CODE, align 4, keep-with-next
   \                     ??DataTable169:
   \   00000000   ........           DC32     PREVIOUS_EVENT

   \                                 In segment CODE, align 4, keep-with-next
   \                     ??DataTable170:
   \   00000000   ........           DC32     MCBook

   \                                 In segment DATA_C, align 4, align-sorted
   \                     `?<Constant L"\\x412\\x442\\x43e\\x440\\x430\\x44f\\x2`:
   \   00000000   120442043E04       DC8 12H, 4, 42H, 4, 3EH, 4, 40H, 4
   \              4004        
   \   00000008   30044F042000       DC8 30H, 4, 4FH, 4, 20H, 0, 41H, 4
   \              4104        
   \   00000010   420440043E04       DC8 42H, 4, 40H, 4, 3EH, 4, 3AH, 4
   \              3A04        
   \   00000018   30040000           DC8 30H, 4, 0, 0
   \   0000001C   1F0435044004       DC8 1FH, 4, 35H, 4, 40H, 4, 32H, 4
   \              3204        
   \   00000024   30044F042000       DC8 30H, 4, 4FH, 4, 20H, 0, 41H, 4
   \              4104        
   \   0000002C   420440043E04       DC8 42H, 4, 40H, 4, 3EH, 4, 3AH, 4
   \              3A04        
   \   00000034   30040000           DC8 30H, 4, 0, 0

   \                                 In segment DATA_C, align 4, align-sorted
   \                     `?<Constant L"\\x4f\\x70\\x65\\x6e\\x5a\\x69\\x70\\x20\\`:
   \   00000000   4F0070006500       DC8 4FH, 0, 70H, 0, 65H, 0, 6EH, 0
   \              6E00        
   \   00000008   5A0069007000       DC8 5AH, 0, 69H, 0, 70H, 0, 20H, 0
   \              2000        
   \   00000010   650072007200       DC8 65H, 0, 72H, 0, 72H, 0, 6FH, 0
   \              6F00        
   \   00000018   720020002500       DC8 72H, 0, 20H, 0, 25H, 0, 69H, 0
   \              6900        
   \   00000020   0000               DC8 0, 0
   \   00000022   0000               DC8 0, 0

   \                                 In segment DATA_C, align 4, align-sorted
   \                     `?<Constant "%.0f%%">`:
   \   00000000   252E30662525       DC8 "%.0f%%"
   \              00          
   \   00000007   00                 DC8 0

   \                                 In segment DATA_C, align 4, align-sorted
   \                     `?<Constant "MC_SendFile_Page">`:
   \   00000000   4D435F53656E       DC8 "MC_SendFile_Page"
   \              6446696C655F
   \              5061676500  
   \   00000011   000000             DC8 0, 0, 0

   \                                 In segment DATA_C, align 4, align-sorted
   \                     `?<Constant "MC_ExecuteFile_Page">`:
   \   00000000   4D435F457865       DC8 "MC_ExecuteFile_Page"
   \              637574654669
   \              6C655F506167
   \              6500        

   \                                 In segment DATA_C, align 4, align-sorted
   \                     `?<Constant L"\\x37\\x5a\\x69\\x70\\x20\\x65\\x72\\x72\\`:
   \   00000000   37005A006900       DC8 37H, 0, 5AH, 0, 69H, 0, 70H, 0
   \              7000        
   \   00000008   200065007200       DC8 20H, 0, 65H, 0, 72H, 0, 72H, 0
   \              7200        
   \   00000010   6F0072002000       DC8 6FH, 0, 72H, 0, 20H, 0, 25H, 0
   \              2500        
   \   00000018   69000000           DC8 69H, 0, 0, 0

   Maximum stack usage in bytes:

     Function                       CSTACK
     --------                       ------
     AddFile(int, int, wchar_t const *, unsigned int, short, unsigned int, int, int)
                                       24
     AddFileFromDE(int, int, wchar_t const *, W_FSTAT *)
                                       20
     CB_CS(int)                         4
     CB_Cancel(int)                     4
     CB_Del(int)                        4
     CB_Exit(int)                       8
     CB_LG(int)                        20
     CB_Paste(int)                      4
     CB_RenEx(int)                    532
     ChkAll(int)                        0
     ChkFile(FILEINF *)                 0
     CreateFileInfo(int, wchar_t const *, unsigned int, short, unsigned int, int, int)
                                       40
     CurFullPath(wchar_t *)            12
     CurFullPathBM(wchar_t *, wchar_t *, int)
                                       12
     DelFiles(int)                     12
     DestroySendList(LIST *)            8
     DoBack()                         272
     DoBackK()                          4
     DoBegin()                          4
     DoCancel()                         4
     DoChk()                            4
     DoChkAll()                         4
     DoCopy()                           4
     DoDel()                            4
     DoDwn()                            4
     DoErrKey()                         0
     DoExecFile(wchar_t const *, wchar_t const *)
                                       16
     DoExit()                           4
     DoExitIdYes(u16, LPARAM)           4
     DoFilter()                         8
     DoInvChk()                         4
     DoMenu()                           4
     DoMove()                           4
     DoNewDir()                         8
     DoNxtDrv()                         8
     DoOpen()                           4
     DoPaste()                          4
     DoPgDwn()                          4
     DoPgUp()                           4
     DoPrvDrv()                         8
     DoRefresh()                        4
     DoRen()                            8
     DoRoot()                           4
     DoSendFile()                       4
     DoSetSort()                        4
     DoShowPath()                       4
     DoSortD()                          4
     DoSortE()                          4
     DoSortN()                          4
     DoSortR()                          4
     DoSortS()                          4
     DoSwapTab()                        0
     DoSysOpen()                        4
     DoTabCopy()                        4
     DoTabMove()                        4
     DoUnCAll()                         4
     DoUp()                             4
     EF_OnEnter(void *, BOOK *)         8
     EF_OnExit(void *, BOOK *)          8
     EF_OnPreviuos(void *, BOOK *)      4
     EnumChk(ENUM_SEL_PROC, int)       20
     EnumSel(ENUM_SEL_PROC, int)       16
     ExecuteFile(wchar_t *, int, int)
                                       12
     ExitFrom7Z()                     264
     ExitFromZip()                    264
     FillFileInfo(FILEINF *)          300
     FillFiles(int, wchar_t *)         12
     FillRealPathFiles(int, wchar_t *)
                                       64
     FreeFileInfo(FILEINF *)            8
     FreeTab(int)                       8
     GetCurTabFileIndex(wchar_t *)      4
     GetFileIndex(int, wchar_t *)      20
     GetTabIndex(int)                   0
     GetTabPath(int)                    8
     InitTab(int)                      16
     MCFilePath(wchar_t const *)       16
     M_Send(FILEINF *, int)            24
     RefreshTab(int)                   20
     SF_OnAccept(void *, BOOK *)        4
     SF_OnCancel(void *, BOOK *)        4
     SF_OnEnter(void *, BOOK *)         4
     SF_OnExit(void *, BOOK *)          4
     SF_OnPreviuos(void *, BOOK *)      4
     S_7ZOpen()                         8
     S_ZipOpen()                       12
     SendBT_page()                     20
     SetCurTabDrv(int)                  4
     SetCurTabIndex(int, int)           4
     SetTabDrv(int, int)                8
     SetTabIndex(int, int, int)         4
     UpdateAll()                        8
     _CurFile()                         4
     _CurTabFile(int)                   8
     _Filter(wchar_t *)                12
     _Open(int)                        12
     _Rename(wchar_t *)                 8
     _cd_tab(int, int, wchar_t const *)
                                       16
     cordrv(int, int)                   0
     endprogr()                         0
     endprogrsp()                       0
     incprogr(int)                      0
     incprogrsp(int)                    0
     initprogr(int)                     0


   Segment part sizes:

     Function/Label                 Bytes
     --------------                 -----
     def_filter                        8
     MCFilePath(wchar_t const *)      52
     SetTabIndex(int, int, int)      116
     SetCurTabIndex(int, int)         20
     GetTabIndex(int)                 28
     GetTabPath(int)                  56
     FillFileInfo(FILEINF *)         668
     CreateFileInfo(int, wchar_t const *, unsigned int, short, unsigned int, int, int)
                                     152
     AddFile(int, int, wchar_t const *, unsigned int, short, unsigned int, int, int)
                                      80
     AddFileFromDE(int, int, wchar_t const *, W_FSTAT *)
                                     104
     FreeFileInfo(FILEINF *)         104
     DelFiles(int)                    92
     FillRealPathFiles(int, wchar_t *)
                                     328
     FillFiles(int, wchar_t *)       156
     SetTabDrv(int, int)              68
     SetCurTabDrv(int)                16
     _CurTabFile(int)                 76
     GetFileIndex(int, wchar_t *)    124
     GetCurTabFileIndex(wchar_t *)    16
     RefreshTab(int)                 132
     DoRefresh()                      12
     UpdateAll()                      32
     _cd_tab(int, int, wchar_t const *)
                                     176
     InitTab(int)                    188
     FreeTab(int)                    104
     DoErrKey()                        4
     _CurFile()                       12
     CurFullPath(wchar_t *)          212
     CurFullPathBM(wchar_t *, wchar_t *, int)
                                      80
     initprogr(int)                   32
     incprogr(int)                    56
     incprogrsp(int)                  44
     endprogr()                       32
     endprogrsp()                     36
     CB_Paste(int)                    24
     DoPaste()                       152
     CB_CS(int)                       68
     CB_LG(int)                      124
     S_ZipOpen()                     148
     S_7ZOpen()                      140
     EF_OnEnter(void *, BOOK *)      108
     EF_OnExit(void *, BOOK *)        44
     EF_OnPreviuos(void *, BOOK *)    28
     bk_msglst_execfile               32
     bk_execfile                      12
     DoExecFile(wchar_t const *, wchar_t const *)
                                      88
     ExecuteFile(wchar_t *, int, int)
                                      56
     _Open(int)                      508
     DoOpen()                          8
     DoSysOpen()                       8
     ExitTimer                      2172
     szLastNewFile                   512
     szLastNewDir                    512
     wsbuf                          1024
     progr_cur                         4
     progrsp_max                       8
     progrsp_start                     4
     in_open_path                    512
     CB_Exit(int)                    232
     DoExitIdYes(u16, LPARAM)          8
     DoExit()                         60
     DoCopy()                         12
     DoMove()                         32
     DoSwapTab()                      32
     cordrv(int, int)                 64
     DoPrvDrv()                       76
     DoNxtDrv()                       76
     DoUp()                          124
     DoDwn()                         132
     DoPgUp()                        148
     DoPgDwn()                       180
     DoBegin()                        20
     DoRoot()                         88
     DoShowPath()                     32
     DoSortN()                        32
     DoSortE()                        44
     DoSortS()                        44
     DoSortD()                        44
     DoSetSort()                      68
     DoSortR()                        48
     DoTabCopy()                      36
     DoTabMove()                      28
     ExitFromZip()                   116
     ExitFrom7Z()                    116
     DoBack()                        376
     DoBackK()                         4
     EnumChk(ENUM_SEL_PROC, int)     144
     EnumSel(ENUM_SEL_PROC, int)      72
     ChkAll(int)                     144
     ChkFile(FILEINF *)               40
     DoChk()                         152
     DoChkAll()                        8
     DoUnCAll()                        8
     DoInvChk()                        8
     CB_Del(int)                      24
     DoDel()                          72
     DoMenu()                          4
     DoNewDir()                       72
     CB_Cancel(int)                   24
     DoCancel()                       44
     _Filter(wchar_t *)              112
     DoFilter()                       96
     CB_RenEx(int)                   232
     _Rename(wchar_t *)              136
     DoRen()                          68
     M_Send(FILEINF *, int)          168
     DestroySendList(LIST *)          52
     SendBT_page()                   528
     SF_OnEnter(void *, BOOK *)       16
     SF_OnExit(void *, BOOK *)        20
     SF_OnAccept(void *, BOOK *)      28
     SF_OnCancel(void *, BOOK *)      28
     SF_OnPreviuos(void *, BOOK *)    28
     bk_msglst_sendfile               48
     bk_sendfile                      12
     DoSendFile()                     28
     ??DataTable7                      4
     ??DataTable34                     4
     ??DataTable42                     4
     ??DataTable43                     4
     ??DataTable50                     4
     ??DataTable52                     4
     ??DataTable59                     4
     ??DataTable62                     4
     ??DataTable64                     4
     ??DataTable65                     4
     ??DataTable71                     4
     ??DataTable77                     4
     ??DataTable78                     4
     ??DataTable91                     4
     ??DataTable99                     4
     ??DataTable104                    4
     ??DataTable115                    4
     ??DataTable116                    4
     ??DataTable122                    4
     ??DataTable131                    4
     ??DataTable135                    4
     ??DataTable136                    4
     ??DataTable144                    4
     ??DataTable146                    4
     ??DataTable153                    4
     ??DataTable155                    4
     ??DataTable156                    4
     ??DataTable166                    4
     ??DataTable169                    4
     ??DataTable170                    4
     ?<Constant L"\x412\x442\x43e\x440\x430\x44f\x2
                                      56
     ?<Constant L"\x4f\x70\x65\x6e\x5a\x69\x70\x20\
                                      36
     ?<Constant "%.0f%%">              8
     ?<Constant "MC_SendFile_Page">   20
     ?<Constant "MC_ExecuteFile_Page">
                                      20
     ?<Constant L"\x37\x5a\x69\x70\x20\x65\x72\x72\
                                      28
      Others                         964

 
 10 612 bytes in segment CODE
    200 bytes in segment DATA_C
  4 748 bytes in segment DATA_Z
     80 bytes in segment DYN_PAGE
     12 bytes in segment INITTAB
 
 9 660 bytes of CODE  memory (+ 964 bytes shared)
   280 bytes of CONST memory
 4 748 bytes of DATA  memory

Errors: none
Warnings: none
