//////////////////////////////////////////////////////////////////////////////
//                                                                           /
// IAR ARM ANSI C/C++ Compiler V4.42A/W32 EVALUATION   10/Jun/2013  22:57:41 /
// Copyright 1999-2005 IAR Systems. All rights reserved.                     /
//                                                                           /
//    Cpu mode        =  interwork                                           /
//    Endian          =  little                                              /
//    Stack alignment =  4                                                   /
//    Source file     =  Z:\home\perk11\www\perk11.info\svn\SE\TagEditor\mai /
//                       n.c                                                 /
//    Command line    =  Z:\home\perk11\www\perk11.info\svn\SE\TagEditor\mai /
//                       n.c -D NDEBUG -D OLDFUNCTIONS -lC                   /
//                       Z:\home\perk11\www\perk11.info\svn\SE\TagEditor\Rel /
//                       ease\List\ -lA Z:\home\perk11\www\perk11.info\svn\S /
//                       E\TagEditor\Release\List\ -o                        /
//                       Z:\home\perk11\www\perk11.info\svn\SE\TagEditor\Rel /
//                       ease\Obj\ -s9 --no_unroll --no_inline --cpu_mode    /
//                       arm --endian little --cpu ARM926EJ-S --stack_align  /
//                       4 --interwork -e --enable_multibytes --fpu None     /
//                       --eec++ --dlib_config Z:\home\perk11\IAR2\arm\LIB\d /
//                       l5tpainl8n.h -I Z:\home\perk11\IAR2\arm\INC\        /
//    List file       =  Z:\home\perk11\www\perk11.info\svn\SE\TagEditor\Rel /
//                       ease\List\main.s79                                  /
//                                                                           /
//                                                                           /
//////////////////////////////////////////////////////////////////////////////

        NAME main

        RTMODEL "StackAlign4", "USED"
        RTMODEL "__cpu_mode", "__pcs__interwork"
        RTMODEL "__data_model", "absolute"
        RTMODEL "__endian", "little"
        RTMODEL "__rt_version", "6"

        RSEG CSTACK:DATA:NOROOT(2)

        ERROR
//NOTE: This module defines or uses C++ features that are not
//      accessible from assembler code. Assembling this file will
//      not produce an equivalent object file to the one produced
//      by the C++ compiler.

        PUBLIC ??CopyFromID3v1
        FUNCTION ??CopyFromID3v1,0203H
        LOCFRAME CSTACK, 12, STACK
        MULTWEAK ??CopyFromID3v1??rT
        PUBLIC ??CopyFromID3v2
        FUNCTION ??CopyFromID3v2,0203H
        LOCFRAME CSTACK, 16, STACK
        MULTWEAK ??CopyFromID3v2??rT
        PUBLIC ??CopyFromName1
        FUNCTION ??CopyFromName1,0203H
        LOCFRAME CSTACK, 16, STACK
        MULTWEAK ??CopyFromName1??rT
        PUBLIC ??CopyFromName2
        FUNCTION ??CopyFromName2,0203H
        LOCFRAME CSTACK, 12, STACK
        MULTWEAK ??CopyFromName2??rT
        FUNCTION ??CreateDB,0603H
        LOCFRAME CSTACK, 28, STACK
        PUBLIC ??CreateGlavMenu
        FUNCTION ??CreateGlavMenu,0203H
        LOCFRAME CSTACK, 20, STACK
        MULTWEAK ??CreateGlavMenu??rT
        FUNCTION ??CreateGui,0603H
        LOCFRAME CSTACK, 4, STACK
        PUBLIC ??CreateML1
        FUNCTION ??CreateML1,0203H
        LOCFRAME CSTACK, 20, STACK
        MULTWEAK ??CreateML1??rT
        PUBLIC ??CreateML2
        FUNCTION ??CreateML2,0203H
        LOCFRAME CSTACK, 20, STACK
        MULTWEAK ??CreateML2??rT
??DataTable1 EQU 0
??DataTable10 EQU 0
??DataTable100 EQU 0
??DataTable101 EQU 0
??DataTable102 EQU 0
??DataTable103 EQU 0
??DataTable104 EQU 0
??DataTable105 EQU 0
??DataTable106 EQU 0
??DataTable107 EQU 0
??DataTable108 EQU 0
??DataTable109 EQU 0
??DataTable11 EQU 0
??DataTable110 EQU 0
??DataTable111 EQU 0
??DataTable112 EQU 0
??DataTable113 EQU 0
??DataTable114 EQU 0
??DataTable115 EQU 0
??DataTable116 EQU 0
??DataTable12 EQU 0
??DataTable126 EQU 0
??DataTable127 EQU 0
??DataTable128 EQU 0
??DataTable13 EQU 0
??DataTable133 EQU 0
??DataTable134 EQU 0
??DataTable135 EQU 0
??DataTable136 EQU 0
??DataTable137 EQU 0
??DataTable138 EQU 0
??DataTable139 EQU 0
??DataTable14 EQU 0
??DataTable140 EQU 0
??DataTable141 EQU 0
??DataTable142 EQU 0
??DataTable143 EQU 0
??DataTable144 EQU 0
??DataTable145 EQU 0
??DataTable146 EQU 0
??DataTable149 EQU 0
??DataTable15 EQU 0
??DataTable150 EQU 0
??DataTable151 EQU 0
??DataTable152 EQU 0
??DataTable153 EQU 0
??DataTable154 EQU 0
??DataTable155 EQU 0
??DataTable156 EQU 0
??DataTable157 EQU 0
??DataTable158 EQU 0
??DataTable159 EQU 0
??DataTable16 EQU 0
??DataTable161 EQU 0
??DataTable162 EQU 0
??DataTable163 EQU 0
??DataTable165 EQU 0
??DataTable166 EQU 0
??DataTable168 EQU 0
??DataTable169 EQU 0
??DataTable17 EQU 0
??DataTable173 EQU 0
??DataTable178 EQU 0
??DataTable19 EQU 0
??DataTable2 EQU 0
??DataTable20 EQU 0
??DataTable21 EQU 0
??DataTable22 EQU 0
??DataTable23 EQU 0
??DataTable24 EQU 0
??DataTable25 EQU 0
??DataTable26 EQU 0
??DataTable27 EQU 0
??DataTable28 EQU 0
??DataTable3 EQU 0
??DataTable39 EQU 0
??DataTable4 EQU 0
??DataTable40 EQU 0
??DataTable41 EQU 0
??DataTable48 EQU 0
??DataTable49 EQU 0
??DataTable5 EQU 0
??DataTable51 EQU 0
??DataTable52 EQU 0
??DataTable53 EQU 0
??DataTable58 EQU 0
??DataTable59 EQU 0
??DataTable6 EQU 0
??DataTable60 EQU 0
??DataTable61 EQU 0
??DataTable62 EQU 0
??DataTable63 EQU 0
??DataTable64 EQU 0
??DataTable68 EQU 0
??DataTable69 EQU 0
??DataTable7 EQU 0
??DataTable70 EQU 0
??DataTable71 EQU 0
??DataTable72 EQU 0
??DataTable74 EQU 0
??DataTable75 EQU 0
??DataTable76 EQU 0
??DataTable77 EQU 0
??DataTable78 EQU 0
??DataTable79 EQU 0
??DataTable8 EQU 0
??DataTable80 EQU 0
??DataTable81 EQU 0
??DataTable82 EQU 0
??DataTable83 EQU 0
??DataTable84 EQU 0
??DataTable86 EQU 0
??DataTable87 EQU 0
??DataTable88 EQU 0
??DataTable89 EQU 0
??DataTable9 EQU 0
??DataTable90 EQU 0
??DataTable91 EQU 0
??DataTable92 EQU 0
??DataTable93 EQU 0
??DataTable94 EQU 0
??DataTable95 EQU 0
??DataTable97 EQU 0
??DataTable98 EQU 0
??DataTable99 EQU 0
        PUBLIC ??DeleteTag
        FUNCTION ??DeleteTag,0203H
        LOCFRAME CSTACK, 16, STACK
        PUBLIC ??DeleteTag1
        FUNCTION ??DeleteTag1,0203H
        LOCFRAME CSTACK, 8, STACK
        MULTWEAK ??DeleteTag1??rT
        PUBLIC ??DeleteTag2
        FUNCTION ??DeleteTag2,0203H
        LOCFRAME CSTACK, 20, STACK
        MULTWEAK ??DeleteTag2??rT
        MULTWEAK ??DeleteTag??rT
        PUBLIC ??DestroyInputBooks
        FUNCTION ??DestroyInputBooks,0603H
        LOCFRAME CSTACK, 12, STACK
        PUBLIC ??DestroyInputBooks2
        FUNCTION ??DestroyInputBooks2,0603H
        LOCFRAME CSTACK, 12, STACK
        MULTWEAK ??DestroyInputBooks2??rT
        MULTWEAK ??DestroyInputBooks??rT
        PUBLIC ??ExitGM
        FUNCTION ??ExitGM,0603H
        LOCFRAME CSTACK, 8, STACK
        MULTWEAK ??ExitGM??rT
        PUBLIC ??ExitMG
        FUNCTION ??ExitMG,0603H
        LOCFRAME CSTACK, 8, STACK
        MULTWEAK ??ExitMG??rT
        PUBLIC ??ExitML1
        FUNCTION ??ExitML1,0603H
        LOCFRAME CSTACK, 8, STACK
        MULTWEAK ??ExitML1??rT
        PUBLIC ??ExitML2
        FUNCTION ??ExitML2,0603H
        LOCFRAME CSTACK, 8, STACK
        MULTWEAK ??ExitML2??rT
        PUBLIC ??ExitYN
        FUNCTION ??ExitYN,0603H
        LOCFRAME CSTACK, 8, STACK
        MULTWEAK ??ExitYN??rT
        PUBLIC ??FileRead
        FUNCTION ??FileRead,0203H
        LOCFRAME CSTACK, 76, STACK
        MULTWEAK ??FileRead??rT
        PUBLIC ??FileWrite
        FUNCTION ??FileWrite,0203H
        LOCFRAME CSTACK, 40, STACK
        MULTWEAK ??FileWrite??rT
        PUBLIC ??GetGenre
        FUNCTION ??GetGenre,0203H
        MULTWEAK ??GetGenre??rT
        PUBLIC ??ID1
        FUNCTION ??ID1,0203H
        LOCFRAME CSTACK, 8, STACK
        MULTWEAK ??ID1??rT
        MULTWEAK ??InitConfig??rA
        PUBLIC ??InputAlbumF
        FUNCTION ??InputAlbumF,0203H
        LOCFRAME CSTACK, 72, STACK
        PUBLIC ??InputAlbumF2
        FUNCTION ??InputAlbumF2,0203H
        LOCFRAME CSTACK, 72, STACK
        MULTWEAK ??InputAlbumF2??rT
        MULTWEAK ??InputAlbumF??rT
        PUBLIC ??InputAutorF
        FUNCTION ??InputAutorF,0203H
        LOCFRAME CSTACK, 72, STACK
        PUBLIC ??InputAutorF2
        FUNCTION ??InputAutorF2,0203H
        LOCFRAME CSTACK, 72, STACK
        MULTWEAK ??InputAutorF2??rT
        MULTWEAK ??InputAutorF??rT
        PUBLIC ??InputCommentF
        FUNCTION ??InputCommentF,0203H
        LOCFRAME CSTACK, 72, STACK
        MULTWEAK ??InputCommentF??rT
        PUBLIC ??InputTitleF
        FUNCTION ??InputTitleF,0203H
        LOCFRAME CSTACK, 72, STACK
        PUBLIC ??InputTitleF2
        FUNCTION ??InputTitleF2,0203H
        LOCFRAME CSTACK, 72, STACK
        MULTWEAK ??InputTitleF2??rT
        MULTWEAK ??InputTitleF??rT
        PUBLIC ??InputYearF
        FUNCTION ??InputYearF,0203H
        LOCFRAME CSTACK, 72, STACK
        MULTWEAK ??InputYearF??rT
        PUBLIC ??MGList
        FUNCTION ??MGList,0203H
        LOCFRAME CSTACK, 12, STACK
        MULTWEAK ??MGList??rT
        PUBLIC ??Mp3Filter
        FUNCTION ??Mp3Filter,0603H
        LOCFRAME CSTACK, 12, STACK
        MULTWEAK ??Mp3Filter??rT
        PUBLIC ??NewKey
        FUNCTION ??NewKey,0603H
        LOCFRAME CSTACK, 24, STACK
        PUBLIC ??NewKey1
        FUNCTION ??NewKey1,0603H
        LOCFRAME CSTACK, 28, STACK
        MULTWEAK ??NewKey1??rT
        PUBLIC ??NewKey2
        FUNCTION ??NewKey2,0603H
        LOCFRAME CSTACK, 28, STACK
        MULTWEAK ??NewKey2??rT
        MULTWEAK ??NewKey??rT
        PUBLIC ??NoPress
        FUNCTION ??NoPress,0603H
        LOCFRAME CSTACK, 12, STACK
        MULTWEAK ??NoPress??rT
        PUBLIC ??OnEntGM
        FUNCTION ??OnEntGM,0603H
        LOCFRAME CSTACK, 8, STACK
        MULTWEAK ??OnEntGM??rT
        PUBLIC ??OnEntInputAlbum
        FUNCTION ??OnEntInputAlbum,0603H
        LOCFRAME CSTACK, 12, STACK
        PUBLIC ??OnEntInputAlbum2
        FUNCTION ??OnEntInputAlbum2,0603H
        LOCFRAME CSTACK, 16, STACK
        MULTWEAK ??OnEntInputAlbum2??rT
        MULTWEAK ??OnEntInputAlbum??rT
        PUBLIC ??OnEntInputAutor
        FUNCTION ??OnEntInputAutor,0603H
        LOCFRAME CSTACK, 12, STACK
        PUBLIC ??OnEntInputAutor2
        FUNCTION ??OnEntInputAutor2,0603H
        LOCFRAME CSTACK, 16, STACK
        MULTWEAK ??OnEntInputAutor2??rT
        MULTWEAK ??OnEntInputAutor??rT
        PUBLIC ??OnEntInputComment
        FUNCTION ??OnEntInputComment,0603H
        LOCFRAME CSTACK, 12, STACK
        MULTWEAK ??OnEntInputComment??rT
        PUBLIC ??OnEntInputTitle
        FUNCTION ??OnEntInputTitle,0603H
        LOCFRAME CSTACK, 12, STACK
        PUBLIC ??OnEntInputTitle2
        FUNCTION ??OnEntInputTitle2,0603H
        LOCFRAME CSTACK, 16, STACK
        MULTWEAK ??OnEntInputTitle2??rT
        MULTWEAK ??OnEntInputTitle??rT
        PUBLIC ??OnEntInputYear
        FUNCTION ??OnEntInputYear,0603H
        LOCFRAME CSTACK, 12, STACK
        MULTWEAK ??OnEntInputYear??rT
        PUBLIC ??OnEntMG
        FUNCTION ??OnEntMG,0603H
        LOCFRAME CSTACK, 12, STACK
        MULTWEAK ??OnEntMG??rT
        PUBLIC ??OnEntML1
        FUNCTION ??OnEntML1,0603H
        LOCFRAME CSTACK, 4, STACK
        MULTWEAK ??OnEntML1??rT
        PUBLIC ??OnEntML2
        FUNCTION ??OnEntML2,0603H
        LOCFRAME CSTACK, 4, STACK
        MULTWEAK ??OnEntML2??rT
        PUBLIC ??PlayF
        FUNCTION ??PlayF,0603H
        LOCFRAME CSTACK, 20, STACK
        PUBLIC ??PlayF1
        FUNCTION ??PlayF1,0603H
        LOCFRAME CSTACK, 20, STACK
        MULTWEAK ??PlayF1??rT
        PUBLIC ??PlayF2
        FUNCTION ??PlayF2,0603H
        LOCFRAME CSTACK, 20, STACK
        MULTWEAK ??PlayF2??rT
        MULTWEAK ??PlayF??rT
        PUBLIC ??SetTitleML1
        FUNCTION ??SetTitleML1,0603H
        LOCFRAME CSTACK, 28, STACK
        MULTWEAK ??SetTitleML1??rT
        PUBLIC ??SetTitleML2
        FUNCTION ??SetTitleML2,0603H
        LOCFRAME CSTACK, 20, STACK
        MULTWEAK ??SetTitleML2??rT
        PUBLIC ??SetTitlePunktsGM
        FUNCTION ??SetTitlePunktsGM,0603H
        LOCFRAME CSTACK, 20, STACK
        MULTWEAK ??SetTitlePunktsGM??rT
        PUBLIC ??SetTitlePunktsMG
        FUNCTION ??SetTitlePunktsMG,0603H
        LOCFRAME CSTACK, 24, STACK
        MULTWEAK ??SetTitlePunktsMG??rT
        PUBLIC ??ShowAuthorInfo
        FUNCTION ??ShowAuthorInfo,0603H
        LOCFRAME CSTACK, 20, STACK
        MULTWEAK ??ShowAuthorInfo??rT
        PUBLIC ??ShowInfo
        FUNCTION ??ShowInfo,0203H
        LOCFRAME CSTACK, 56, STACK
        MULTWEAK ??ShowInfo??rT
        PUBLIC ??TerminateElf
        FUNCTION ??TerminateElf,0603H
        LOCFRAME CSTACK, 4, STACK
        MULTWEAK ??TerminateElf??rT
        PUBLIC ??YesNo
        FUNCTION ??YesNo,0203H
        LOCFRAME CSTACK, 20, STACK
        MULTWEAK ??YesNo??rT
        PUBLIC ??YesPress
        FUNCTION ??YesPress,0603H
        LOCFRAME CSTACK, 12, STACK
        MULTWEAK ??YesPress??rT
        PUBLIC ??elf_exit
        FUNCTION ??elf_exit,0603H
        LOCFRAME CSTACK, 4, STACK
        MULTWEAK ??elf_exit??rT
        PUBLIC ??isDir
        FUNCTION ??isDir,0203H
        LOCFRAME CSTACK, 560, STACK
        MULTWEAK ??isDir??rT
        MULTWEAK ??kill_data??rA
        MULTWEAK ??main??rT
        PUBLIC ??onAccept_DB
        FUNCTION ??onAccept_DB,0603H
        LOCFRAME CSTACK, 16, STACK
        MULTWEAK ??onAccept_DB??rT
        FUNCTION ??onCancelDB,0603H
        LOCFRAME CSTACK, 4, STACK
        PUBLIC ??onCloseCreateFileBook
        FUNCTION ??onCloseCreateFileBook,0603H
        LOCFRAME CSTACK, 4, STACK
        MULTWEAK ??onCloseCreateFileBook??rT
        FUNCTION ??onReconfigElf,0603H
        LOCFRAME CSTACK, 12, STACK
        MULTWEAK `??operator delete??rA`
        MULTWEAK `??operator new??rA`
        MULTWEAK `??operator new[]??rA`
        PUBLIC ??synchsafeToNormal
        FUNCTION ??synchsafeToNormal,0203H
        LOCFRAME CSTACK, 8, STACK
        MULTWEAK ??synchsafeToNormal??rT
        PUBLIC ??unicode2win1251
        FUNCTION ??unicode2win1251,0203H
        LOCFRAME CSTACK, 4, STACK
        MULTWEAK ??unicode2win1251??rT
        PUBLIC ??win12512unicode
        FUNCTION ??win12512unicode,0203H
        MULTWEAK ??win12512unicode??rT
        PUBWEAK ?init?tab?DATA_Z
        PUBLIC TagBook
        PUBLIC main
        FUNCTION main,0a03H
        LOCFRAME CSTACK, 32, STACK
        
        CFI Names cfiNames0
        CFI StackFrame CFA R13 HUGEDATA
        CFI Resource R0:32, R1:32, R2:32, R3:32, R4:32, R5:32, R6:32, R7:32
        CFI Resource R8:32, R9:32, R10:32, R11:32, R12:32, CPSR:32, R13:32
        CFI Resource R14:32, SPSR:32
        CFI VirtualResource ?RET:32
        CFI EndNames cfiNames0
        
        CFI Common cfiCommon0 Using cfiNames0
        CFI CodeAlign 2
        CFI DataAlign 4
        CFI ReturnAddress ?RET CODE
        CFI CFA R13+0
        CFI R0 Undefined
        CFI R1 Undefined
        CFI R2 Undefined
        CFI R3 Undefined
        CFI R4 SameValue
        CFI R5 SameValue
        CFI R6 SameValue
        CFI R7 SameValue
        CFI R8 SameValue
        CFI R9 SameValue
        CFI R10 SameValue
        CFI R11 SameValue
        CFI R12 Undefined
        CFI CPSR SameValue
        CFI R14 Undefined
        CFI SPSR SameValue
        CFI ?RET R14
        CFI EndCommon cfiCommon0
        
        
        CFI Common cfiCommon1 Using cfiNames0
        CFI CodeAlign 4
        CFI DataAlign 4
        CFI ReturnAddress ?RET CODE
        CFI CFA R13+0
        CFI R0 Undefined
        CFI R1 Undefined
        CFI R2 Undefined
        CFI R3 Undefined
        CFI R4 SameValue
        CFI R5 SameValue
        CFI R6 SameValue
        CFI R7 SameValue
        CFI R8 SameValue
        CFI R9 SameValue
        CFI R10 SameValue
        CFI R11 SameValue
        CFI R12 Undefined
        CFI CPSR SameValue
        CFI R14 Undefined
        CFI SPSR SameValue
        CFI ?RET R14
        CFI EndCommon cfiCommon1
        




kill_data           SYMBOL "kill_data"

??CopyFromID3v1??rT SYMBOL "??rT", ??CopyFromID3v1

??CopyFromID3v2??rT SYMBOL "??rT", ??CopyFromID3v2

??CopyFromName1??rT SYMBOL "??rT", ??CopyFromName1

??CopyFromName2??rT SYMBOL "??rT", ??CopyFromName2

??CreateGlavMenu??rT SYMBOL "??rT", ??CreateGlavMenu

??CreateML1??rT     SYMBOL "??rT", ??CreateML1

??CreateML2??rT     SYMBOL "??rT", ??CreateML2


??DeleteTag1??rT    SYMBOL "??rT", ??DeleteTag1

??DeleteTag2??rT    SYMBOL "??rT", ??DeleteTag2
??DeleteTag??rT     SYMBOL "??rT", ??DeleteTag


??DestroyInputBooks2??rT SYMBOL "??rT", ??DestroyInputBooks2
??DestroyInputBooks??rT SYMBOL "??rT", ??DestroyInputBooks

??ExitGM??rT        SYMBOL "??rT", ??ExitGM

??ExitMG??rT        SYMBOL "??rT", ??ExitMG

??ExitML1??rT       SYMBOL "??rT", ??ExitML1

??ExitML2??rT       SYMBOL "??rT", ??ExitML2

??ExitYN??rT        SYMBOL "??rT", ??ExitYN

??FileRead??rT      SYMBOL "??rT", ??FileRead

??FileWrite??rT     SYMBOL "??rT", ??FileWrite

??GetGenre??rT      SYMBOL "??rT", ??GetGenre

??ID1??rT           SYMBOL "??rT", ??ID1
??InitConfig??rA    SYMBOL "??rA", ??InitConfig


??InputAlbumF2??rT  SYMBOL "??rT", ??InputAlbumF2
??InputAlbumF??rT   SYMBOL "??rT", ??InputAlbumF


??InputAutorF2??rT  SYMBOL "??rT", ??InputAutorF2
??InputAutorF??rT   SYMBOL "??rT", ??InputAutorF

??InputCommentF??rT SYMBOL "??rT", ??InputCommentF


??InputTitleF2??rT  SYMBOL "??rT", ??InputTitleF2
??InputTitleF??rT   SYMBOL "??rT", ??InputTitleF

??InputYearF??rT    SYMBOL "??rT", ??InputYearF

??MGList??rT        SYMBOL "??rT", ??MGList

??Mp3Filter??rT     SYMBOL "??rT", ??Mp3Filter


??NewKey1??rT       SYMBOL "??rT", ??NewKey1

??NewKey2??rT       SYMBOL "??rT", ??NewKey2
??NewKey??rT        SYMBOL "??rT", ??NewKey

??NoPress??rT       SYMBOL "??rT", ??NoPress

??OnEntGM??rT       SYMBOL "??rT", ??OnEntGM


??OnEntInputAlbum2??rT SYMBOL "??rT", ??OnEntInputAlbum2
??OnEntInputAlbum??rT SYMBOL "??rT", ??OnEntInputAlbum


??OnEntInputAutor2??rT SYMBOL "??rT", ??OnEntInputAutor2
??OnEntInputAutor??rT SYMBOL "??rT", ??OnEntInputAutor

??OnEntInputComment??rT SYMBOL "??rT", ??OnEntInputComment


??OnEntInputTitle2??rT SYMBOL "??rT", ??OnEntInputTitle2
??OnEntInputTitle??rT SYMBOL "??rT", ??OnEntInputTitle

??OnEntInputYear??rT SYMBOL "??rT", ??OnEntInputYear

??OnEntMG??rT       SYMBOL "??rT", ??OnEntMG

??OnEntML1??rT      SYMBOL "??rT", ??OnEntML1

??OnEntML2??rT      SYMBOL "??rT", ??OnEntML2


??PlayF1??rT        SYMBOL "??rT", ??PlayF1

??PlayF2??rT        SYMBOL "??rT", ??PlayF2
??PlayF??rT         SYMBOL "??rT", ??PlayF

??SetTitleML1??rT   SYMBOL "??rT", ??SetTitleML1

??SetTitleML2??rT   SYMBOL "??rT", ??SetTitleML2

??SetTitlePunktsGM??rT SYMBOL "??rT", ??SetTitlePunktsGM

??SetTitlePunktsMG??rT SYMBOL "??rT", ??SetTitlePunktsMG

??ShowAuthorInfo??rT SYMBOL "??rT", ??ShowAuthorInfo

??ShowInfo??rT      SYMBOL "??rT", ??ShowInfo

??TerminateElf??rT  SYMBOL "??rT", ??TerminateElf

??YesNo??rT         SYMBOL "??rT", ??YesNo

??YesPress??rT      SYMBOL "??rT", ??YesPress

??elf_exit??rT      SYMBOL "??rT", ??elf_exit

??isDir??rT         SYMBOL "??rT", ??isDir
??kill_data??rA     SYMBOL "??rA", kill_data
main                SYMBOL "main"
??main??rT          SYMBOL "??rT", main

??onAccept_DB??rT   SYMBOL "??rT", ??onAccept_DB

??onCloseCreateFileBook??rT SYMBOL "??rT", ??onCloseCreateFileBook
`??operator delete??rA` SYMBOL "??rA", `??operator delete`
`??operator new??rA` SYMBOL "??rA", `??operator new`
`??operator new[]??rA` SYMBOL "??rA", `??operator new[]`

??synchsafeToNormal??rT SYMBOL "??rT", ??synchsafeToNormal

??unicode2win1251??rT SYMBOL "??rT", ??unicode2win1251

??win12512unicode??rT SYMBOL "??rT", ??win12512unicode

        EXTERN ??InitConfig
        FUNCTION ??InitConfig,0202H
        EXTERN `??operator delete`
        FUNCTION `??operator delete`,0202H
        EXTERN `??operator new`
        FUNCTION `??operator new`,0202H
        EXTERN `??operator new[]`
        FUNCTION `??operator new[]`,0202H
        EXTERN ACTION_BACK
        EXTERN ACTION_LONG_BACK
        EXTERN ACTION_NO
        EXTERN ACTION_SELECT1
        EXTERN ACTION_YES
        EXTERN ELF_BEGIN
        EXTERN FromRename
        EXTERN Icone
        EXTERN Iconi
        EXTERN Icono
        EXTERN Iconq
        EXTERN Iconr
        EXTERN Icont
        EXTERN Iconu
        EXTERN Iconw
        EXTERN Icony
        EXTERN KBD_LONG_PRESS
        EXTERN KBD_SHORT_RELEASE
        EXTERN KEY_DEL
        EXTERN KEY_DIGITAL_0
        EXTERN MptToMp3
        EXTERN RenameFile
        EXTERN VAR_ARG_BOOK
        EXTERN VAR_ARG_CALL_BACK_LONG_BACK
        EXTERN VAR_ARG_CALL_BACK_OK
        EXTERN VAR_ARG_CALL_BACK_PREV_ACT
        EXTERN VAR_ARG_STRINP_FIXED_TEXT
        EXTERN VAR_ARG_STRINP_MAX_LEN
        EXTERN VAR_ARG_STRINP_MIN_LEN
        EXTERN VAR_ARG_STRINP_TEXT
        EXTERN VAR_ARG_YESNO_QUESTION
        EXTERN kill_data
        FUNCTION kill_data,0202H
        EXTERN successed_config_name
        EXTERN successed_config_path

// Z:\home\perk11\www\perk11.info\svn\SE\TagEditor\main.c
//    1 #include "..\\include\Lib_Clara.h"
//    2 #include "..\\include\Dir.h"
//    3 #include "..\\include\var_arg.h"
//    4 #include "..\\include\cfg_items.h"
//    5 #include "config_data.h"
//    6 #include "conf_loader.h"
//    7 
//    8 #define FA_DIRECTORY 0x4000
//    9 
//   10 #define INDEX(x) x/8
//   11 #define SHIFT(x) x%8
//   12 #define GETBIT(v,x) ((v[INDEX(x)] << SHIFT(x)) & 0x80)>>7
//   13 
//   14 #define INFO_ALBUM L"Альбом: "
//   15 #define INFO_ARTIST L"Исполнитель: "
//   16 #define INFO_COMMENT L"Комментарий: "
//   17 #define INFO_FILENAME L"Имя файла: "
//   18 #define INFO_GENRE L"Жанр: "
//   19 #define INFO_LOCALISATION L"Расположение: "
//   20 #define INFO_TEXT L"Инфо mp3"
//   21 #define INFO_TITLE L"Название: "
//   22 #define INFO_YEAR L"Год: "
//   23 #define INPUT_ALBUM L"Альбом:"
//   24 #define INPUT_ARTIST L"Исполнитель:"
//   25 #define INPUT_COMMENT L"Комментарий:"
//   26 #define INPUT_TITLE L"Название:"
//   27 #define INPUT_YEAR L"Год:"
//   28 #define MENU_ITEM_TEXT_ALBUM L"Альбом"
//   29 #define MENU_ITEM_TEXT_ARTIST L"Исполнитель"
//   30 #define MENU_ITEM_TEXT_COMMENT L"Комментарий"
//   31 #define MENU_ITEM_TEXT_GENRE L"Жанр"
//   32 #define MENU_ITEM_TEXT_INFO L"Инфо"
//   33 #define MENU_ITEM_TEXT_TITLE L"Название"
//   34 #define MENU_ITEM_TEXT_YEAR L"Год"
//   35 #define NAME_EDIT1 L"Ред. ID3v1"
//   36 #define NAME_EDIT2 L"Ред. ID3v2"
//   37 #define NAME_GENRE L"Выб. жанр"
//   38 #define NAME_OPEN_FILE L"Открыть файл"
//   39 #define NAME_TAG_EDITOR L"Редактор тегов"
//   40 #define QUESTION_SAVE_FILE L"Сохранить перед выходом?"
//   41 #define RENAME_ARTIST_NOT_FOUND L"Дорожка"
//   42 #define RENAME_TITLE_NOT_FOUND L"Неизвестно"
//   43 #define SOFTKEY_STATUS_PLAY L"Плей"
//   44 #define SOFTKEY_STATUS_STOP L"Стоп"
//   45 
//   46 typedef struct
//   47 {
//   48   BOOK book;
//   49   char * Album;
//   50   char * Album2;
//   51   char * Autor;
//   52   char * Autor2;
//   53   char * buffer;
//   54   char * buffer2;
//   55   char * Comment;
//   56   char * newname;
//   57   char * Title;
//   58   char * Title2;
//   59   char * Year;
//   60   GUI * InputAlbum;
//   61   GUI * InputAlbum2;
//   62   GUI * InputAutor;
//   63   GUI * InputAutor2;
//   64   GUI * InputComment;
//   65   GUI * InputTitle;
//   66   GUI * InputTitle2;
//   67   GUI * InputYear;
//   68   GUI * yn;
//   69   GUI_LIST * GlavMenu;
//   70   GUI_LIST * GList;
//   71   GUI_LIST * MenuList1;
//   72   GUI_LIST * MenuList2;
//   73   int change;
//   74   int genre;
//   75   int i2;
//   76   int ID3;
//   77   int ID3v1;
//   78   int len_id3v2;
//   79   int lenn;
//   80   int lenp;
//   81   int PlayMode;
//   82   int pos2_Album;
//   83   int pos2_Autor;
//   84   int pos2_Title;
//   85   int PosAlbum;
//   86   int posAlbum2;
//   87   int PosAutor;
//   88   int posAutor2;
//   89   int PosComment;
//   90   int PosTitle;
//   91   int posTitle2;
//   92   int PosYear;
//   93   int Run;
//   94   int size;
//   95   int size_id3;
//   96   int size2;
//   97   int sizeAlbum2;
//   98   int sizeAutor2;
//   99   int sizeTitle2;
//  100   DISP_OBJ_ONKEY_METHOD OldKey;
//  101   DISP_OBJ_ONKEY_METHOD OldKey1;
//  102   DISP_OBJ_ONKEY_METHOD OldKey2;
//  103   wchar_t * name;
//  104   wchar_t * path;
//  105   wchar_t * TON;
//  106   wchar_t * UAlbum;
//  107   wchar_t * UAlbum2;
//  108   wchar_t * UAutor;
//  109   wchar_t * UAutor2;
//  110   wchar_t * Ubuffer2;
//  111   wchar_t * UComment;
//  112   wchar_t * UGenre;
//  113   wchar_t * Unewname;
//  114   wchar_t * UTitle;
//  115   wchar_t * UTitle2;
//  116   wchar_t * UYear;
//  117   wchar_t PlayText[10];
//  118 }MyBook;
//  119 
//  120 typedef struct
//  121 {
//  122   BOOK * book;
//  123 }MSG;
//  124 
//  125 void FileRead(wchar_t*path, wchar_t*name);
//  126 int onAccept_DB(void * data, BOOK * book);
//  127 void CreateGlavMenu(int x);
//  128 void CreateML1(int x);
//  129 void CreateML2(int x);

        RSEG DATA_Z:DATA:SORT:NOROOT(2)
//  130 MyBook * TagBook;
TagBook:
        DS8 4

        RSEG CODE:CODE:NOROOT(2)
        CFI Block cfiBlock0 Using cfiCommon0
        CFI NoFunction
        THUMB
??TerminateElf??rT:
        BX       PC
        Nop      
        CFI EndBlock cfiBlock0
        REQUIRE ??TerminateElf
//  131 

        RSEG CODE:CODE:NOROOT(2)
        CFI Block cfiBlock1 Using cfiCommon1
        CFI Function ??TerminateElf
        ARM
//  132 int TerminateElf(void * ,BOOK* book)
//  133 {
??TerminateElf:
        PUSH     {LR}
        CFI ?RET Frame(CFA, -4)
        CFI CFA R13+4
        MOV      R0,R1
//  134   FreeBook(book);
        SWI      +303
//  135   return(1);
        MOV      R0,#+1
        POP      {PC}             ;; return
        CFI EndBlock cfiBlock1
//  136 }

        RSEG CODE:CODE:NOROOT(2)
        CFI Block cfiBlock2 Using cfiCommon0
        CFI NoFunction
        THUMB
??ShowAuthorInfo??rT:
        BX       PC
        Nop      
        CFI EndBlock cfiBlock2
        REQUIRE ??ShowAuthorInfo
//  137 

        RSEG CODE:CODE:NOROOT(2)
        CFI Block cfiBlock3 Using cfiCommon1
        CFI Function ??ShowAuthorInfo
        ARM
//  138 int ShowAuthorInfo(void *mess ,BOOK* book)
//  139 {
??ShowAuthorInfo:
        PUSH     {R4,R5,LR}
        CFI ?RET Frame(CFA, -4)
        CFI R5 Frame(CFA, -8)
        CFI R4 Frame(CFA, -12)
        CFI CFA R13+12
//  140   MSG * msg = (MSG*)mess;
//  141   MessageBox(EMPTY_TEXTID,STR("TagEditor v1.4\n(c) MoneyMasteR\naka\nDoCent"), NOIMAGE, 1, 5000,msg->book);
        MOV      R1,#+0
        MOV      R4,R0
        LDR      R0,??ShowAuthorInfo_1  ;; `?<Constant L"\\x54\\x61\\x67\\x45\\x64\\x69\\x74\\x6f\\`
        MOV      R5,#+255
        ORR      R5,R5,#0xFF00
        MOV      R2,R5
        SWI      +349
        LDR      R1,[R4, #+0]
        MOV      R3,#+1
        PUSH     {R1}
        CFI CFA R13+16
        MOV      R2,R5
        MOV      R1,#+136
        ORR      R1,R1,#0x1300
        PUSH     {R1}
        CFI CFA R13+20
        MOV      R1,R0
        MVN      R0,#-1879048192
        SWI      +599
//  142   return(1);
        MOV      R0,#+1
        POP      {R1,R2,R4,R5,PC}  ;; return
        DATA
??ShowAuthorInfo_1:
        DC32     `?<Constant L"\\x54\\x61\\x67\\x45\\x64\\x69\\x74\\x6f\\`
        CFI EndBlock cfiBlock3
//  143 }

        RSEG CODE:CODE:NOROOT(2)
        CFI Block cfiBlock4 Using cfiCommon0
        CFI NoFunction
        THUMB
??elf_exit??rT:
        BX       PC
        Nop      
        CFI EndBlock cfiBlock4
        REQUIRE ??elf_exit
//  144 

        RSEG CODE:CODE:NOROOT(2)
        CFI Block cfiBlock5 Using cfiCommon1
        CFI Function ??elf_exit
        ARM
//  145 void elf_exit(void)
//  146 {
??elf_exit:
        PUSH     {LR}
        CFI ?RET Frame(CFA, -4)
        CFI CFA R13+4
//  147   kill_data(&ELF_BEGIN, (void(*)(void*))mfree_adr());
        SWI      +33028
        MOV      R1,R0
        LDR      R0,??elf_exit_1  ;; ELF_BEGIN
        POP      {LR}             ;; Pop
        CFI ?RET R14
        CFI CFA R13+0
        _BF      kill_data,??kill_data??rA  ;; tailcall
        DATA
??elf_exit_1:
        DC32     ELF_BEGIN
        CFI EndBlock cfiBlock5
//  148 }

        RSEG CODE:CODE:NOROOT(2)
        CFI Block cfiBlock6 Using cfiCommon0
        CFI NoFunction
        THUMB
??onCloseCreateFileBook??rT:
        BX       PC
        Nop      
        CFI EndBlock cfiBlock6
        REQUIRE ??onCloseCreateFileBook
//  149 

        RSEG CODE:CODE:NOROOT(2)
        CFI Block cfiBlock7 Using cfiCommon1
        CFI Function ??onCloseCreateFileBook
        ARM
//  150 void onCloseCreateFileBook(BOOK *book)
//  151 {
//  152   if(TagBook->PlayMode==1)
??onCloseCreateFileBook:
        LDR      R0,??DataTable0  ;; TagBook
        PUSH     {LR}
        CFI ?RET Frame(CFA, -4)
        CFI CFA R13+4
        LDR      R0,[R0, #+0]
        LDR      R0,[R0, #+152]
        CMP      R0,#+1
        BNE      ??onCloseCreateFileBook_1
//  153   {
//  154     PlaySystemSound(7);
        MOV      R0,#+7
        SWI      +602
//  155   }
//  156   SUBPROC(elf_exit);
??onCloseCreateFileBook_1:
        LDR      R0,??onCloseCreateFileBook_2  ;; ??elf_exit
        SWI      +264
//  157 }
        POP      {PC}             ;; return
        DATA
??onCloseCreateFileBook_2:
        DC32     ??elf_exit
        CFI EndBlock cfiBlock7

        RSEG CODE:CODE:NOROOT(2)
        DATA
??DataTable0:
        DC32     TagBook

        RSEG CODE:CODE:NOROOT(2)
        CFI Block cfiBlock8 Using cfiCommon0
        CFI NoFunction
        THUMB
??onReconfigElf??rT:
        BX       PC
        Nop      
        CFI EndBlock cfiBlock8
        REQUIRE ??onReconfigElf
//  158 

        RSEG CODE:CODE:NOROOT(2)
        CFI Block cfiBlock9 Using cfiCommon1
        CFI Function ??onReconfigElf
        ARM
//  159 static int onReconfigElf(void *mess ,BOOK *book)
//  160 {
??onReconfigElf:
        PUSH     {R4,R5,LR}
        CFI ?RET Frame(CFA, -4)
        CFI R5 Frame(CFA, -8)
        CFI R4 Frame(CFA, -12)
        CFI CFA R13+12
        MOV      R4,R0
//  161   RECONFIG_EVENT_DATA *reconf=(RECONFIG_EVENT_DATA *)mess;
//  162   int result=0;
//  163   if (wstrcmpi(reconf->path,successed_config_path)==0 && wstrcmpi(reconf->name,successed_config_name)==0)
        LDR      R0,??onReconfigElf_1  ;; successed_config_path
        MOV      R5,#+0
        LDR      R1,[R0, #+0]
        MOV      R0,R4
        SWI      +671
        CMP      R0,#+0
        BNE      ??onReconfigElf_2
        LDR      R0,??onReconfigElf_1+0x4  ;; successed_config_name
        LDR      R1,[R0, #+0]
        ADD      R0,R4,#+128
        SWI      +671
        CMP      R0,#+0
        BNE      ??onReconfigElf_2
//  164   {
//  165     InitConfig();
        _BLF     ??InitConfig,??InitConfig??rA
//  166     result=1;
        MOV      R5,#+1
//  167   }
//  168   return(result);
??onReconfigElf_2:
        MOV      R0,R5
        POP      {R4,R5,PC}       ;; return
        DATA
??onReconfigElf_1:
        DC32     successed_config_path
        DC32     successed_config_name
        CFI EndBlock cfiBlock9
//  169 }

        RSEG CODE:CODE:NOROOT(2)
        CFI Block cfiBlock10 Using cfiCommon0
        CFI NoFunction
        THUMB
??synchsafeToNormal??rT:
        BX       PC
        Nop      
        CFI EndBlock cfiBlock10
        REQUIRE ??synchsafeToNormal
//  170 
//  171 
//  172 

        RSEG CODE:CODE:NOROOT(2)
        CFI Block cfiBlock11 Using cfiCommon1
        CFI Function ??synchsafeToNormal
        ARM
//  173 int synchsafeToNormal(char tagSize[4])
//  174 {
??synchsafeToNormal:
        PUSH     {R4,R5}
        CFI R5 Frame(CFA, -4)
        CFI R4 Frame(CFA, -8)
        CFI CFA R13+8
//  175   int synchsafe, sizeloc, size, power, x;    
//  176   size=sizeloc=0;      
        MOV      R2,#+0
        MOV      R1,#+0
//  177   for(synchsafe=31;synchsafe>=0;synchsafe--)
        MOV      R3,#+31
//  178   {        
//  179     if(GETBIT(tagSize, synchsafe))
??synchsafeToNormal_1:
        ASR      R4,R3,#+2
        ADD      R4,R3,R4, LSR #+29
        ASR      R12,R4,#+3
        LDRB     R5,[R12, +R0]
        SUB      R4,R3,R12, LSL #+3
        LSL      R5,R5,R4
        TST      R5,#0x80
        BEQ      ??synchsafeToNormal_2
//  180     {          
//  181       power=1;            
        MOV      R12,#+1
//  182       for(x=0;x<sizeloc;x++) power*=2;		
        MOV      R5,#+0
        CMP      R2,#+1
        BGE      ??synchsafeToNormal_3
        B        ??synchsafeToNormal_4
??synchsafeToNormal_5:
        LSL      R12,R12,#+1
        ADD      R5,R5,#+1
??synchsafeToNormal_3:
        CMP      R5,R2
        BLT      ??synchsafeToNormal_5
//  183       size+=power;		
??synchsafeToNormal_4:
        ADD      R1,R12,R1
//  184     }		
//  185     if(synchsafe%8) sizeloc++;	
??synchsafeToNormal_2:
        CMP      R4,#+0
        ADDNE    R2,R2,#+1
//  186   }	
        SUBS     R3,R3,#+1
        BPL      ??synchsafeToNormal_1
//  187   return size;
        POP      {R4,R5}
        CFI R4 SameValue
        CFI R5 SameValue
        CFI CFA R13+0
        MOV      R0,R1
        BX       LR               ;; return
        CFI EndBlock cfiBlock11
//  188 };

        RSEG CODE:CODE:NOROOT(2)
        CFI Block cfiBlock12 Using cfiCommon0
        CFI NoFunction
        THUMB
??win12512unicode??rT:
        BX       PC
        Nop      
        CFI EndBlock cfiBlock12
        REQUIRE ??win12512unicode
//  189 

        RSEG CODE:CODE:NOROOT(2)
        CFI Block cfiBlock13 Using cfiCommon1
        CFI Function ??win12512unicode
        ARM
//  190 void win12512unicode(wchar_t *ws, char *s, int len)
//  191 {
??win12512unicode:
        B        ??win12512unicode_1
//  192   int c;
//  193   while((c=*s++)&&((len--)>0))
//  194   {
//  195     if (c==0xA8) c=0x401;
//  196     if (c==0xAA) c=0x404;
//  197     if (c==0xAF) c=0x407;
//  198     if (c==0xB8) c=0x451;
//  199     if (c==0xBA) c=0x454;
//  200     if (c==0xBF) c=0x457;
//  201     if ((c>=0xC0)&&(c<0x100)) c+=0x350;
??win12512unicode_2:
        CMP      R3,#+192
        BLT      ??win12512unicode_3
        CMP      R3,#+256
        ADDLT    R3,R3,#+848
//  202     *ws++=c;
??win12512unicode_3:
        STRH     R3,[R0], #+2
??win12512unicode_1:
        LDRB     R3,[R1], #+1
        CMP      R3,#+0
        BEQ      ??win12512unicode_4
        MOV      R12,R2
        SUB      R2,R12,#+1
        CMP      R12,#+1
        BLT      ??win12512unicode_4
        CMP      R3,#+168
        BNE      ??win12512unicode_5
        MOV      R3,#+1
??win12512unicode_6:
        ORR      R3,R3,#0x400
        B        ??win12512unicode_3
??win12512unicode_5:
        CMP      R3,#+170
        MOVEQ    R3,#+4
        BEQ      ??win12512unicode_6
        CMP      R3,#+175
        BNE      ??win12512unicode_7
        MOV      R3,#+7
??win12512unicode_8:
        B        ??win12512unicode_6
??win12512unicode_7:
        CMP      R3,#+184
        MOVEQ    R3,#+81
        BEQ      ??win12512unicode_6
        CMP      R3,#+186
        MOVEQ    R3,#+84
        BEQ      ??win12512unicode_6
        CMP      R3,#+191
        BNE      ??win12512unicode_2
        MOV      R3,#+87
        B        ??win12512unicode_6
//  203   }
//  204   *ws=0;
??win12512unicode_4:
        MOV      R1,#+0
        STRH     R1,[R0, #+0]
//  205 }
        BX       LR               ;; return
        CFI EndBlock cfiBlock13

        RSEG CODE:CODE:NOROOT(2)
        CFI Block cfiBlock14 Using cfiCommon0
        CFI NoFunction
        THUMB
??unicode2win1251??rT:
        BX       PC
        Nop      
        CFI EndBlock cfiBlock14
        REQUIRE ??unicode2win1251
//  206 

        RSEG CODE:CODE:NOROOT(2)
        CFI Block cfiBlock15 Using cfiCommon1
        CFI Function ??unicode2win1251
        ARM
//  207 char * unicode2win1251(char *s, wchar_t *ws, int len)
//  208 {
??unicode2win1251:
        PUSH     {R4}
        CFI R4 Frame(CFA, -4)
        CFI CFA R13+4
//  209   char *d=s;
        MOV      R3,R0
        B        ??unicode2win1251_1
//  210   int c;
//  211   while((c=*ws++)&&((len--)>0))
//  212   {
//  213     if (c==0x401) c=0xA8;
//  214     if (c==0x404) c=0xAA;
//  215     if (c==0x407) c=0xAF;
//  216     if (c==0x451) c=0xB8;
//  217     if (c==0x454) c=0xBA;
//  218     if (c==0x457) c=0xBF;
//  219     if ((c>=0x410)&&(c<0x450)) c-=0x350;
??unicode2win1251_2:
        CMP      R12,#+1040
        BLT      ??unicode2win1251_3
        CMP      R12,#+1104
        MVNLT    R4,#+79
        BICLT    R4,R4,#0x300
        ADDLT    R12,R4,R12
//  220     *s++=c;
??unicode2win1251_3:
        STRB     R12,[R0], #+1
??unicode2win1251_1:
        LDRH     R12,[R1], #+2
        CMP      R12,#+0
        BEQ      ??unicode2win1251_4
        MOV      R4,R2
        SUB      R2,R4,#+1
        CMP      R4,#+1
        BLT      ??unicode2win1251_4
        MOV      R4,#+1
        ORR      R4,R4,#0x400
        CMP      R12,R4
        MOVEQ    R12,#+168
        BEQ      ??unicode2win1251_3
        ADD      R4,R4,#+3
        CMP      R12,R4
        MOVEQ    R12,#+170
        BEQ      ??unicode2win1251_3
        ORR      R4,R4,#0x3
        CMP      R12,R4
        MOVEQ    R12,#+175
        BEQ      ??unicode2win1251_3
        ADD      R4,R4,#+74
        CMP      R12,R4
        MOVEQ    R12,#+184
        BEQ      ??unicode2win1251_3
        ADD      R4,R4,#+3
        CMP      R12,R4
        MOVEQ    R12,#+186
        BEQ      ??unicode2win1251_3
        ORR      R4,R4,#0x3
        CMP      R12,R4
        BNE      ??unicode2win1251_2
        MOV      R12,#+191
        B        ??unicode2win1251_3
//  221   }
//  222   *s=0;
??unicode2win1251_4:
        MOV      R1,#+0
        STRB     R1,[R0, #+0]
//  223   return(d);
        POP      {R4}
        CFI R4 SameValue
        CFI CFA R13+0
        MOV      R0,R3
        BX       LR               ;; return
        CFI EndBlock cfiBlock15
//  224 }

        RSEG CODE:CODE:NOROOT(2)
        CFI Block cfiBlock16 Using cfiCommon0
        CFI NoFunction
        THUMB
??GetGenre??rT:
        BX       PC
        Nop      
        CFI EndBlock cfiBlock16
        REQUIRE ??GetGenre
//  225 

        RSEG CODE:CODE:NOROOT(2)
        CFI Block cfiBlock17 Using cfiCommon1
        CFI Function ??GetGenre
        ARM
//  226 char * GetGenre(int num)
//  227 {
??GetGenre:
        MOV      R1,R0
//  228   switch (num) 
        LDR      R0,??GetGenre_2+0x8  ;; `?<Constant "Blues">`
        CMP      R1,#+147
        BHI      ??GetGenre_3
        ADR      R2,??GetGenre_1
        MOV      R1,R1, LSL #+1
        LDRH     R2,[R2, R1]
        ADD      PC,PC,R2, LSL #+2
        DATA
??GetGenre_1:
        DC16     +392,+73,+75,+77
        DC16     +79,+81,+83,+85
        DC16     +87,+89,+91,+93
        DC16     +95,+97,+99,+101
        DC16     +103,+105,+107,+109
        DC16     +111,+113,+115,+117
        DC16     +119,+121,+123,+125
        DC16     +127,+129,+131,+133
        DC16     +135,+137,+139,+141
        DC16     +143,+145,+147,+149
        DC16     +151,+153,+155,+157
        DC16     +159,+161,+163,+165
        DC16     +167,+169,+171,+173
        DC16     +175,+177,+179,+181
        DC16     +183,+185,+187,+189
        DC16     +191,+193,+195,+197
        DC16     +199,+201,+203,+205
        DC16     +207,+209,+211,+213
        DC16     +215,+217,+219,+221
        DC16     +223,+225,+227,+229
        DC16     +231,+233,+235,+237
        DC16     +239,+241,+243,+245
        DC16     +247,+249,+251,+253
        DC16     +255,+257,+259,+261
        DC16     +263,+265,+267,+269
        DC16     +271,+273,+275,+279
        DC16     +281,+283,+285,+287
        DC16     +289,+291,+293,+295
        DC16     +297,+299,+301,+303
        DC16     +305,+307,+309,+311
        DC16     +313,+315,+317,+319
        DC16     +321,+323,+326,+328
        DC16     +330,+333,+336,+339
        DC16     +346,+349,+352,+355
        DC16     +358,+361,+363,+366
        DC16     +369,+372,+375,+378
        DC16     +380,+383,+386,+388
        ARM
//  229   {
//  230     case 0 : return "Blues";
//  231     case 1 : return "Classic Rock";
??GetGenre_4:
        ADD      R0,R0,#+8
        BX       LR
//  232     case 2 : return "Country";
??GetGenre_5:
        ADD      R0,R0,#+24
        BX       LR
//  233     case 3 : return "Dance";
??GetGenre_6:
        ADD      R0,R0,#+32
        BX       LR
//  234     case 4 : return "Disco";
??GetGenre_7:
        ADD      R0,R0,#+40
        BX       LR
//  235     case 5 : return "Funk";
??GetGenre_8:
        ADD      R0,R0,#+48
        BX       LR
//  236     case 6 : return "Grunge";
??GetGenre_9:
        ADD      R0,R0,#+56
        BX       LR
//  237     case 7 : return "Hip-Hop";
??GetGenre_10:
        ADD      R0,R0,#+64
        BX       LR
//  238     case 8 : return "Jazz";
??GetGenre_11:
        ADD      R0,R0,#+72
        BX       LR
//  239     case 9 : return "Metal";
??GetGenre_12:
        ADD      R0,R0,#+80
        BX       LR
//  240     case 10 : return "New Age";
??GetGenre_13:
        ADD      R0,R0,#+88
        BX       LR
//  241     case 11 : return "Oldies";
??GetGenre_14:
        ADD      R0,R0,#+96
        BX       LR
//  242     case 12 : return "Other";
??GetGenre_15:
        ADD      R0,R0,#+104
        BX       LR
//  243     case 13 : return "Pop";
??GetGenre_16:
        ADR      R0,??GetGenre_17  ;; "Pop"
        BX       LR
//  244     case 14 : return "R&B";
??GetGenre_18:
        ADR      R0,??GetGenre_17+0x4  ;; "R&B"
        BX       LR
//  245     case 15 : return "Rap";
??GetGenre_19:
        ADR      R0,??GetGenre_17+0x8  ;; "Rap"
        BX       LR
//  246     case 16 : return "Reggae";
??GetGenre_20:
        ADD      R0,R0,#+120
        BX       LR
//  247     case 17 : return "Rock";
??GetGenre_21:
        ADD      R0,R0,#+128
        BX       LR
//  248     case 18 : return "Techno";
??GetGenre_22:
        ADD      R0,R0,#+136
        BX       LR
//  249     case 19 : return "Industrial";
??GetGenre_23:
        ADD      R0,R0,#+144
        BX       LR
//  250     case 20 : return "Alternative";
??GetGenre_24:
        ADD      R0,R0,#+156
        BX       LR
//  251     case 21 : return "Ska";
??GetGenre_25:
        ADR      R0,??GetGenre_17+0xC  ;; "Ska"
        BX       LR
//  252     case 22 : return "Death Metal";
??GetGenre_26:
        ADD      R0,R0,#+168
        BX       LR
//  253     case 23 : return "Pranks";
??GetGenre_27:
        ADD      R0,R0,#+180
        BX       LR
//  254     case 24 : return "Soundtrack";
??GetGenre_28:
        ADD      R0,R0,#+188
        BX       LR
//  255     case 25 : return "Euro-Techno";
??GetGenre_29:
        ADD      R0,R0,#+200
        BX       LR
//  256     case 26 : return "Ambient";
??GetGenre_30:
        ADD      R0,R0,#+212
        BX       LR
//  257     case 27 : return "Trip-Hop";
??GetGenre_31:
        ADD      R0,R0,#+220
        BX       LR
//  258     case 28 : return "Vocal";
??GetGenre_32:
        ADD      R0,R0,#+232
        BX       LR
//  259     case 29 : return "Jazz+Funk";
??GetGenre_33:
        ADD      R0,R0,#+240
        BX       LR
//  260     case 30 : return "Fusion";
??GetGenre_34:
        ADD      R0,R0,#+252
        BX       LR
//  261     case 31 : return "Trance";
??GetGenre_35:
        ADD      R0,R0,#+260
        BX       LR
//  262     case 32 : return "Classical";
??GetGenre_36:
        ADD      R0,R0,#+268
        BX       LR
//  263     case 33 : return "Instrumental";
??GetGenre_37:
        ADD      R0,R0,#+280
        BX       LR
//  264     case 34 : return "Acid";
??GetGenre_38:
        ADD      R0,R0,#+296
        BX       LR
//  265     case 35 : return "House";
??GetGenre_39:
        ADD      R0,R0,#+304
        BX       LR
//  266     case 36 : return "Game";
??GetGenre_40:
        ADD      R0,R0,#+312
        BX       LR
//  267     case 37 : return "Sound Clip";
??GetGenre_41:
        ADD      R0,R0,#+320
        BX       LR
//  268     case 38 : return "Gospel";
??GetGenre_42:
        ADD      R0,R0,#+332
        BX       LR
//  269     case 39 : return "Noise";
??GetGenre_43:
        ADD      R0,R0,#+112
        BX       LR
//  270     case 40 : return "Alternative Rock";
??GetGenre_44:
        ADD      R0,R0,#+340
        BX       LR
//  271     case 41 : return "Bass";
??GetGenre_45:
        ADD      R0,R0,#+360
        BX       LR
//  272     case 42 : return "Soul";
??GetGenre_46:
        ADD      R0,R0,#+368
        BX       LR
//  273     case 43 : return "Punk";
??GetGenre_47:
        ADD      R0,R0,#+376
        BX       LR
//  274     case 44 : return "Space";
??GetGenre_48:
        ADD      R0,R0,#+384
        BX       LR
//  275     case 45 : return "Meditative";
??GetGenre_49:
        ADD      R0,R0,#+392
        BX       LR
//  276     case 46 : return "Instrumental Pop";
??GetGenre_50:
        ADD      R0,R0,#+404
        BX       LR
//  277     case 47 : return "Instrumental Rock";
??GetGenre_51:
        ADD      R0,R0,#+424
        BX       LR
//  278     case 48 : return "Ethnic";
??GetGenre_52:
        ADD      R0,R0,#+444
        BX       LR
//  279     case 49 : return "Gothic";
??GetGenre_53:
        ADD      R0,R0,#+452
        BX       LR
//  280     case 50 : return "Darkwave";
??GetGenre_54:
        ADD      R0,R0,#+460
        BX       LR
//  281     case 51 : return "Techno-Industrial";
??GetGenre_55:
        ADD      R0,R0,#+472
        BX       LR
//  282     case 52 : return "Electronic";
??GetGenre_56:
        ADD      R0,R0,#+492
        BX       LR
//  283     case 53 : return "Pop-Folk";
??GetGenre_57:
        ADD      R0,R0,#+504
        BX       LR
//  284     case 54 : return "Eurodance";
??GetGenre_58:
        ADD      R0,R0,#+516
        BX       LR
//  285     case 55 : return "Dream";
??GetGenre_59:
        ADD      R0,R0,#+528
        BX       LR
//  286     case 56 : return "Southern Rock";
??GetGenre_60:
        ADD      R0,R0,#+536
        BX       LR
//  287     case 57 : return "Comedy";
??GetGenre_61:
        ADD      R0,R0,#+552
        BX       LR
//  288     case 58 : return "Cult";
??GetGenre_62:
        ADD      R0,R0,#+560
        BX       LR
//  289     case 59 : return "Gangsta";
??GetGenre_63:
        ADD      R0,R0,#+568
        BX       LR
//  290     case 60 : return "Top 40";
??GetGenre_64:
        ADD      R0,R0,#+576
        BX       LR
//  291     case 61 : return "Christian Rap";
??GetGenre_65:
        ADD      R0,R0,#+584
        BX       LR
//  292     case 62 : return "Pop/Funk";
??GetGenre_66:
        ADD      R0,R0,#+600
        BX       LR
//  293     case 63 : return "Jungle";
??GetGenre_67:
        ADD      R0,R0,#+612
        BX       LR
//  294     case 64 : return "Native US";
??GetGenre_68:
        ADD      R0,R0,#+620
        BX       LR
//  295     case 65 : return "Cabaret";
??GetGenre_69:
        ADD      R0,R0,#+632
        BX       LR
//  296     case 66 : return "New Wave";
??GetGenre_70:
        ADD      R0,R0,#+640
        BX       LR
//  297     case 67 : return "Psychadelic";
??GetGenre_71:
        ADD      R0,R0,#+652
        BX       LR
//  298     case 68 : return "Rave";
??GetGenre_72:
        ADD      R0,R0,#+664
        BX       LR
//  299     case 69 : return "Showtunes";
??GetGenre_73:
        ADD      R0,R0,#+672
        BX       LR
//  300     case 70 : return "Trailer";
??GetGenre_74:
        ADD      R0,R0,#+684
        BX       LR
//  301     case 71 : return "Lo-Fi";
??GetGenre_75:
        ADD      R0,R0,#+692
        BX       LR
//  302     case 72 : return "Tribal";
??GetGenre_76:
        ADD      R0,R0,#+700
        BX       LR
//  303     case 73 : return "Acid Punk";
??GetGenre_77:
        ADD      R0,R0,#+708
        BX       LR
//  304     case 74 : return "Acid Jazz";
??GetGenre_78:
        ADD      R0,R0,#+720
        BX       LR
//  305     case 75 : return "Polka";
??GetGenre_79:
        ADD      R0,R0,#+732
        BX       LR
//  306     case 76 : return "Retro";
??GetGenre_80:
        ADD      R0,R0,#+740
        BX       LR
//  307     case 77 : return "Musical";
??GetGenre_81:
        ADD      R0,R0,#+748
        BX       LR
//  308     case 78 : return "Rock & Roll";
??GetGenre_82:
        ADD      R0,R0,#+756
        BX       LR
//  309     case 79 : return "Hard Rock";
??GetGenre_83:
        ADD      R0,R0,#+768
        BX       LR
//  310     case 80 : return "Folk";
??GetGenre_84:
        ADD      R0,R0,#+780
        BX       LR
//  311     case 81 : return "Folk-Rock";
??GetGenre_85:
        ADD      R0,R0,#+788
        BX       LR
//  312     case 82 : return "National Folk";
??GetGenre_86:
        ADD      R0,R0,#+800
        BX       LR
//  313     case 83 : return "Swing";
??GetGenre_87:
        ADD      R0,R0,#+816
        BX       LR
//  314     case 84 : return "Fast Fusion";
??GetGenre_88:
        ADD      R0,R0,#+824
        BX       LR
//  315     case 85 : return "Bebob";
??GetGenre_89:
        ADD      R0,R0,#+836
        BX       LR
//  316     case 86 : return "Latin";
??GetGenre_90:
        ADD      R0,R0,#+844
        BX       LR
//  317     case 87 : return "Revival";
??GetGenre_91:
        ADD      R0,R0,#+852
        BX       LR
//  318     case 88 : return "Celtic";
??GetGenre_92:
        ADD      R0,R0,#+860
        BX       LR
//  319     case 89 : return "Bluegrass";
??GetGenre_93:
        ADD      R0,R0,#+868
        BX       LR
//  320     case 90 : return "Avantgarde";
??GetGenre_94:
        ADD      R0,R0,#+880
        BX       LR
//  321     case 91 : return "Gothic Rock";
??GetGenre_95:
        ADD      R0,R0,#+892
        BX       LR
//  322     case 92 : return "Progressive Rock";
??GetGenre_96:
        ADD      R0,R0,#+904
        BX       LR
//  323     case 93 : return "Psychedelic Rock";
??GetGenre_97:
        ADD      R0,R0,#+924
        BX       LR
//  324     case 94 : return "Symphonic Rock";
??GetGenre_98:
        ADD      R0,R0,#+944
        BX       LR
//  325     case 95 : return "Slow Rock";
??GetGenre_99:
        ADD      R0,R0,#+960
        BX       LR
//  326     case 96 : return "Big Band";
??GetGenre_100:
        ADD      R0,R0,#+972
        BX       LR
//  327     case 97 : return "Chorus";
??GetGenre_101:
        ADD      R0,R0,#+984
        BX       LR
//  328     case 98 : return "Easy Listening";
??GetGenre_102:
        ADD      R0,R0,#+992
        BX       LR
//  329     case 99 : return "Acoustic";
??GetGenre_103:
        ADD      R0,R0,#+1008
        BX       LR
//  330     case 100 : return "Humour";
??GetGenre_104:
        ADD      R0,R0,#+1020
        BX       LR
//  331     case 101 : return "Speech";
??GetGenre_105:
        MOV      R1,#+4
        B        ??GetGenre_106
//  332     case 102 : return "Chanson";
??GetGenre_107:
        MOV      R1,#+12
??GetGenre_106:
        ORR      R1,R1,#0x400
??GetGenre_108:
        ADD      R0,R1,R0
        BX       LR
//  333     case 103 : return "Opera";
??GetGenre_109:
        MOV      R1,#+20
        B        ??GetGenre_106
//  334     case 104 : return "Chamber Music";
??GetGenre_110:
        MOV      R1,#+28
        B        ??GetGenre_106
//  335     case 105 : return "Sonata";
??GetGenre_111:
        MOV      R1,#+44
        B        ??GetGenre_106
//  336     case 106 : return "Symphony";
??GetGenre_112:
        MOV      R1,#+52
        B        ??GetGenre_106
//  337     case 107 : return "Booty Bass";
??GetGenre_113:
        ADD      R0,R0,#+1088
        BX       LR
//  338     case 108 : return "Primus";
??GetGenre_114:
        MOV      R1,#+76
        B        ??GetGenre_106
//  339     case 109 : return "Porn Groove";
??GetGenre_115:
        MOV      R1,#+84
        B        ??GetGenre_106
//  340     case 110 : return "Satire";
??GetGenre_116:
        ADD      R0,R0,#+1120
        BX       LR
//  341     case 111 : return "Slow Jam";
??GetGenre_117:
        MOV      R1,#+104
        B        ??GetGenre_106
//  342     case 112 : return "Club";
??GetGenre_118:
        MOV      R1,#+116
        B        ??GetGenre_106
//  343     case 113 : return "Tango";
??GetGenre_119:
        MOV      R1,#+124
        B        ??GetGenre_106
//  344     case 114 : return "Samba";
??GetGenre_120:
        MOV      R1,#+132
        B        ??GetGenre_106
//  345     case 115 : return "Folklore";
??GetGenre_121:
        MOV      R1,#+140
        B        ??GetGenre_106
//  346     case 116 : return "Ballad";
??GetGenre_122:
        MOV      R1,#+152
        B        ??GetGenre_106
//  347     case 117 : return "Power Ballad";
??GetGenre_123:
        ADD      R0,R0,#+1184
        BX       LR
//  348     case 118 : return "Rhytmic Soul";
??GetGenre_124:
        ADD      R0,R0,#+1200
        BX       LR
//  349     case 119 : return "Freestyle";
??GetGenre_125:
        ADD      R0,R0,#+1216
        BX       LR
//  350     case 120 : return "Duet";
??GetGenre_126:
        MOV      R1,#+204
        B        ??GetGenre_106
//  351     case 121 : return "Punk Rock";
??GetGenre_127:
        MOV      R1,#+212
        B        ??GetGenre_106
//  352     case 122 : return "Drum Solo";
??GetGenre_128:
        ADD      R0,R0,#+1248
        BX       LR
//  353     case 123 : return "Acapella";
??GetGenre_129:
        MOV      R1,#+236
        B        ??GetGenre_106
//  354     case 124 : return "Euro-House";
??GetGenre_130:
        MOV      R1,#+248
        B        ??GetGenre_106
//  355     case 125 : return "Dance Hall";
??GetGenre_131:
        MOV      R1,#+4
        ORR      R1,R1,#0x500
        B        ??GetGenre_108
//  356     case 126 : return "Goa";
??GetGenre_132:
        ADR      R0,??GetGenre_2  ;; "Goa"
        BX       LR
//  357     case 127 : return "Drum & Bass";
??GetGenre_133:
        ADD      R0,R0,#+1296
        BX       LR
//  358     case 128 : return "Club-House";
??GetGenre_134:
        MOV      R1,#+28
        ORR      R1,R1,#0x500
        B        ??GetGenre_108
//  359     case 129 : return "Hardcore";
??GetGenre_135:
        MOV      R1,#+40
        ORR      R1,R1,#0x500
        B        ??GetGenre_108
//  360     case 130 : return "Terror";
??GetGenre_136:
        MOV      R1,#+52
        ORR      R1,R1,#0x500
        B        ??GetGenre_108
//  361     case 131 : return "Indie";
??GetGenre_137:
        MOV      R1,#+60
        ORR      R1,R1,#0x500
        B        ??GetGenre_108
        DATA
??GetGenre_17:
        DC8      "Pop"
        DC8      "R&B"
        DC8      "Rap"
        DC8      "Ska"
        ARM
//  362     case 132 : return "BritPop";
??GetGenre_138:
        MOV      R1,#+68
        ORR      R1,R1,#0x500
        B        ??GetGenre_108
//  363     case 133 : return "Negerpunk";
??GetGenre_139:
        MOV      R1,#+76
        ORR      R1,R1,#0x500
        B        ??GetGenre_108
//  364     case 134 : return "Polsk Punk";
??GetGenre_140:
        MOV      R1,#+88
        ORR      R1,R1,#0x500
        B        ??GetGenre_108
//  365     case 135 : return "Beat";
??GetGenre_141:
        MOV      R1,#+100
        ORR      R1,R1,#0x500
        B        ??GetGenre_108
//  366     case 136 : return "Christian Gangsta";
??GetGenre_142:
        MOV      R1,#+108
        ORR      R1,R1,#0x500
        B        ??GetGenre_108
//  367     case 137 : return "Heavy Metal";
??GetGenre_143:
        ADD      R0,R0,#+1408
        BX       LR
//  368     case 138 : return "Black Metal";
??GetGenre_144:
        MOV      R1,#+140
        ORR      R1,R1,#0x500
        B        ??GetGenre_108
//  369     case 139 : return "Crossover";
??GetGenre_145:
        MOV      R1,#+152
        ORR      R1,R1,#0x500
        B        ??GetGenre_108
//  370     case 140 : return "Contemporary C";
??GetGenre_146:
        MOV      R1,#+164
        ORR      R1,R1,#0x500
        B        ??GetGenre_108
//  371     case 141 : return "Christian Rock";
??GetGenre_147:
        MOV      R1,#+180
        ORR      R1,R1,#0x500
        B        ??GetGenre_108
//  372     case 142 : return "Merengue";
??GetGenre_148:
        MOV      R1,#+196
        ORR      R1,R1,#0x500
        B        ??GetGenre_108
//  373     case 143 : return "Salsa";
??GetGenre_149:
        ADD      R0,R0,#+1488
        BX       LR
//  374     case 144 : return "Thrash Metal";
??GetGenre_150:
        MOV      R1,#+216
        ORR      R1,R1,#0x500
        B        ??GetGenre_108
//  375     case 145 : return "Anime";
??GetGenre_151:
        MOV      R1,#+232
        ORR      R1,R1,#0x500
        B        ??GetGenre_108
//  376     case 146 : return "JPop";
??GetGenre_152:
        ADD      R0,R0,#+1520
        BX       LR
//  377     case 147 : return "SynthPop";
??GetGenre_153:
        MOV      R1,#+248
        ORR      R1,R1,#0x500
        B        ??GetGenre_108
//  378   }
//  379   return " ";
??GetGenre_3:
        ADR      R0,??GetGenre_2+0x4  ;; " "
??GetGenre_154:
        BX       LR               ;; return
        DATA
??GetGenre_2:
        DC8      "Goa"
        DC8      " ",+0,+0
        DC32     `?<Constant "Blues">`
        CFI EndBlock cfiBlock17
//  380 }

        RSEG CODE:CODE:NOROOT(2)
        CFI Block cfiBlock18 Using cfiCommon0
        CFI NoFunction
        THUMB
??FileWrite??rT:
        BX       PC
        Nop      
        CFI EndBlock cfiBlock18
        REQUIRE ??FileWrite
//  381 

        RSEG CODE:CODE:NOROOT(2)
        CFI Block cfiBlock19 Using cfiCommon1
        CFI Function ??FileWrite
        ARM
//  382 void FileWrite()
//  383 {
??FileWrite:
        PUSH     {R4-R11,LR}
        CFI ?RET Frame(CFA, -4)
        CFI R11 Frame(CFA, -8)
        CFI R10 Frame(CFA, -12)
        CFI R9 Frame(CFA, -16)
        CFI R8 Frame(CFA, -20)
        CFI R7 Frame(CFA, -24)
        CFI R6 Frame(CFA, -28)
        CFI R5 Frame(CFA, -32)
        CFI R4 Frame(CFA, -36)
        CFI CFA R13+36
//  384   int f=_fopen(TagBook->path,TagBook->name,FSX_O_WRONLY,FSX_S_IREAD|FSX_S_IWRITE,0);
        LDR      R4,??DataTable46  ;; TagBook
        MOV      R1,#+0
        LDR      R0,[R4, #+0]
        PUSH     {R1}
        CFI CFA R13+40
        MOV      R3,#+384
        LDR      R1,[R0, #+240]
        LDR      R0,[R0, #+244]
        MOV      R2,#+2
        SWI      +278
//  385   for(int i=10; i<=TagBook->size_id3-1; i++)
        LDR      R1,[R4, #+0]
        MOV      R6,R0
        LDR      R1,[R1, #+208]
        MOV      R0,#+10
        MOV      R7,#+0
        SUB      R1,R1,#+1
        CMP      R1,#+10
        ADD      SP,SP,#+4
        CFI CFA R13+36
        BGE      ??FileWrite_1
        B        ??FileWrite_2
//  386   {
//  387     TagBook->buffer2[i]=0;
??FileWrite_3:
        LDR      R1,[R1, #+44]
        STRB     R7,[R0, +R1]
//  388   }
        ADD      R0,R0,#+1
??FileWrite_1:
        LDR      R1,[R4, #+0]
        LDR      R2,[R1, #+208]
        SUB      R2,R2,#+1
        CMP      R2,R0
        BGE      ??FileWrite_3
??FileWrite_2:
        LDR      R0,[R4, #+0]
        LDR      R0,[R0, #+60]
        CMP      R0,#+0
        BEQ      ??FileWrite_4
//  389   if(TagBook->Title2!=0) delete TagBook->Title2;
        _BLF     `??operator delete`,`??operator delete??rA`
//  390   if(wstrlen(TagBook->UTitle2)==0)
??FileWrite_4:
        LDR      R0,[R4, #+0]
        LDR      R5,??FileWrite_5  ;; `?<Constant L"\\x20\\x20">`
        LDR      R0,[R0, #+288]
        SWI      +343
        CMP      R0,#+0
        BNE      ??FileWrite_6
//  391   {
//  392     TagBook->UTitle2=new wchar_t[wstrlen(L"  ")+1];
        MOV      R0,R5
        SWI      +343
        ADD      R0,R0,#+1
        LSL      R0,R0,#+1
        _BLF     `??operator new[]`,`??operator new[]??rA`
        LDR      R2,[R4, #+0]
//  393     wstrcpy(TagBook->UTitle2, L"  ");
        MOV      R1,R5
        STR      R0,[R2, #+288]
        SWI      +338
//  394   }
//  395   TagBook->Title2=new char[wstrlen(TagBook->UTitle2)+1];
??FileWrite_6:
        LDR      R0,[R4, #+0]
        LDR      R0,[R0, #+288]
        SWI      +343
        ADD      R0,R0,#+1
        _BLF     `??operator new[]`,`??operator new[]??rA`
        LDR      R1,[R4, #+0]
        STR      R0,[R1, #+60]
//  396   unicode2win1251(TagBook->Title2, TagBook->UTitle2, wstrlen(TagBook->UTitle2));
        LDR      R0,[R1, #+288]
        SWI      +343
        MOV      R2,R0
        LDR      R0,[R4, #+0]
        LDR      R1,[R0, #+288]
        LDR      R0,[R0, #+60]
        BL       ??unicode2win1251
        LDR      R0,[R4, #+0]
        LDR      R0,[R0, #+36]
        CMP      R0,#+0
        BEQ      ??FileWrite_7
//  397   if(TagBook->Autor2!=0) delete TagBook->Autor2;
        _BLF     `??operator delete`,`??operator delete??rA`
//  398   if(wstrlen(TagBook->UAutor2)==0)
??FileWrite_7:
        LDR      R0,[R4, #+0]
        LDR      R0,[R0, #+264]
        SWI      +343
        CMP      R0,#+0
        BNE      ??FileWrite_8
//  399   {
//  400     TagBook->UAutor2=new wchar_t[wstrlen(L"  ")+1];
        MOV      R0,R5
        SWI      +343
        ADD      R0,R0,#+1
        LSL      R0,R0,#+1
        _BLF     `??operator new[]`,`??operator new[]??rA`
        LDR      R2,[R4, #+0]
//  401     wstrcpy(TagBook->UAutor2, L"  ");
        MOV      R1,R5
        STR      R0,[R2, #+264]
        SWI      +338
//  402   }
//  403   TagBook->Autor2=new char[wstrlen(TagBook->UAutor2)+1];
??FileWrite_8:
        LDR      R0,[R4, #+0]
        LDR      R0,[R0, #+264]
        SWI      +343
        ADD      R0,R0,#+1
        _BLF     `??operator new[]`,`??operator new[]??rA`
        LDR      R1,[R4, #+0]
        STR      R0,[R1, #+36]
//  404   unicode2win1251(TagBook->Autor2, TagBook->UAutor2, wstrlen(TagBook->UAutor2));
        LDR      R0,[R1, #+264]
        SWI      +343
        LDR      R3,[R4, #+0]
        MOV      R2,R0
        LDR      R1,[R3, #+264]
        LDR      R0,[R3, #+36]
        BL       ??unicode2win1251
        LDR      R0,[R4, #+0]
        LDR      R0,[R0, #+28]
        CMP      R0,#+0
        BEQ      ??FileWrite_9
//  405   if(TagBook->Album2!=0) delete TagBook->Album2;
        _BLF     `??operator delete`,`??operator delete??rA`
//  406   if(wstrlen(TagBook->UAlbum2)==0)
??FileWrite_9:
        LDR      R0,[R4, #+0]
        LDR      R0,[R0, #+256]
        SWI      +343
        CMP      R0,#+0
        BNE      ??FileWrite_10
//  407   {
//  408     TagBook->UAlbum2=new wchar_t[wstrlen(L"  ")+1];
        MOV      R0,R5
        SWI      +343
        ADD      R0,R0,#+1
        LSL      R0,R0,#+1
        _BLF     `??operator new[]`,`??operator new[]??rA`
        LDR      R2,[R4, #+0]
//  409     wstrcpy(TagBook->UAlbum2, L"  ");
        MOV      R1,R5
        STR      R0,[R2, #+256]
        SWI      +338
//  410   }  
//  411   TagBook->Album2=new char[wstrlen(TagBook->UAlbum2)+1];
??FileWrite_10:
        LDR      R0,[R4, #+0]
        LDR      R0,[R0, #+256]
        SWI      +343
        ADD      R0,R0,#+1
        _BLF     `??operator new[]`,`??operator new[]??rA`
        LDR      R1,[R4, #+0]
        STR      R0,[R1, #+28]
//  412   unicode2win1251(TagBook->Album2, TagBook->UAlbum2, wstrlen(TagBook->UAlbum2));
        LDR      R0,[R1, #+256]
        SWI      +343
        LDR      R3,[R4, #+0]
        MOV      R2,R0
        LDR      R1,[R3, #+256]
        LDR      R0,[R3, #+28]
        BL       ??unicode2win1251
//  413   int size=strlen(TagBook->Title2)+strlen(TagBook->Autor2)+strlen(TagBook->Album2)+11*3+10;
        LDR      R0,[R4, #+0]
        LDR      R0,[R0, #+60]
        SWI      +346
        MOV      R8,R0
        LDR      R0,[R4, #+0]
        LDR      R0,[R0, #+36]
        SWI      +346
        ADD      R8,R0,R8
        LDR      R0,[R4, #+0]
        LDR      R0,[R0, #+28]
        SWI      +346
        ADD      R0,R0,R8
        ADD      R9,R0,#+43
//  414   char*write=new char[size+1];
        ADD      R0,R9,#+1
        _BLF     `??operator new[]`,`??operator new[]??rA`
        MOV      R8,R0
//  415   for(int i=0; i<=size-1; i++)
        MOV      R0,#+0
        SUBS     R1,R9,#+1
        BPL      ??FileWrite_11
        B        ??FileWrite_12
//  416   {
//  417     write[i]=0;
??FileWrite_13:
        STRB     R7,[R0, +R8]
//  418   }
        ADD      R0,R0,#+1
??FileWrite_11:
        CMP      R1,R0
        BGE      ??FileWrite_13
//  419   int pos=0;
//  420   write[pos]='T';
??FileWrite_12:
        MOV      R9,#+84
        STRB     R9,[R8, #+0]
//  421   pos++;
//  422   write[pos]='I';
        MOV      R0,#+73
        STRB     R0,[R8, #+1]
//  423   pos++;
//  424   write[pos]='T';
        STRB     R9,[R8, #+2]
//  425   pos++;
//  426   write[pos]='2';
        MOV      R0,#+50
        STRB     R0,[R8, #+3]
//  427   pos++;
//  428   pos++;
//  429   pos++;
//  430   pos++;
//  431   write[pos]=strlen(TagBook->Title2)+1;
        LDR      R0,[R4, #+0]
//  432   pos++;
//  433   pos++;
//  434   pos++;
        MOV      R11,#+10
        LDR      R0,[R0, #+60]
//  435   for(int i=0; i<=strlen(TagBook->Title2)-1; i++)
        MOV      R10,#+0
        SWI      +346
        ADD      R0,R0,#+1
        STRB     R0,[R8, #+7]
        B        ??FileWrite_14
//  436   {
//  437     pos++;
//  438     write[pos]=TagBook->Title2[i];
??FileWrite_15:
        LDR      R0,[R4, #+0]
        LDR      R0,[R0, #+60]
        LDRB     R0,[R10, +R0]
//  439   }
        ADD      R10,R10,#+1
        STRB     R0,[R11, +R8]
??FileWrite_14:
        LDR      R0,[R4, #+0]
        ADD      R11,R11,#+1
        LDR      R0,[R0, #+60]
        SWI      +346
        SUB      R0,R0,#+1
        CMP      R0,R10
        BGE      ??FileWrite_15
//  440   pos++;
//  441   write[pos]='T';
        STRB     R9,[R11, +R8]
//  442   pos++;
        ADD      R0,R11,#+1
//  443   write[pos]='P';
        MOV      R1,#+80
        STRB     R1,[R0, +R8]
//  444   pos++;
        ADD      R0,R0,#+1
//  445   write[pos]='E';
        MOV      R1,#+69
        STRB     R1,[R0, +R8]
//  446   pos++;
        ADD      R0,R0,#+1
//  447   write[pos]='1';
        MOV      R1,#+49
        STRB     R1,[R0, +R8]
//  448   pos++;
//  449   pos++;
//  450   pos++;
//  451   pos++;
        ADD      R10,R0,#+4
//  452   write[pos]=strlen(TagBook->Autor2)+1;
        LDR      R0,[R4, #+0]
//  453   pos++;
//  454   pos++;
//  455   pos++;
        ADD      R11,R10,#+3
        LDR      R0,[R0, #+36]
        SWI      +346
        ADD      R0,R0,#+1
        STRB     R0,[R10, +R8]
//  456   for(int i=0; i<=strlen(TagBook->Autor2)-1; i++)
        MOV      R10,#+0
        B        ??FileWrite_16
//  457   {
//  458     pos++;
//  459     write[pos]=TagBook->Autor2[i];
??FileWrite_17:
        LDR      R0,[R4, #+0]
        LDR      R0,[R0, #+36]
        LDRB     R0,[R10, +R0]
//  460   }
        ADD      R10,R10,#+1
        STRB     R0,[R11, +R8]
??FileWrite_16:
        LDR      R0,[R4, #+0]
        ADD      R11,R11,#+1
        LDR      R0,[R0, #+36]
        SWI      +346
        SUB      R0,R0,#+1
        CMP      R0,R10
        BGE      ??FileWrite_17
//  461   pos++;
//  462   write[pos]='T';
        STRB     R9,[R11, +R8]
//  463   pos++;
        ADD      R0,R11,#+1
//  464   write[pos]='A';
        MOV      R1,#+65
        STRB     R1,[R0, +R8]
//  465   pos++;
        ADD      R0,R0,#+1
//  466   write[pos]='L';
        MOV      R1,#+76
        STRB     R1,[R0, +R8]
//  467   pos++;
        ADD      R0,R0,#+1
//  468   write[pos]='B';
        MOV      R1,#+66
        STRB     R1,[R0, +R8]
//  469   pos++;
//  470   pos++;
//  471   pos++;
//  472   pos++;
        ADD      R9,R0,#+4
//  473   write[pos]=strlen(TagBook->Album2)+1;
        LDR      R0,[R4, #+0]
//  474   pos++;
//  475   pos++;
//  476   pos++;
//  477   for(int i=0; i<=strlen(TagBook->Album2)-1; i++)
        MOV      R10,#+0
        LDR      R0,[R0, #+28]
        SWI      +346
        ADD      R0,R0,#+1
        STRB     R0,[R9, +R8]
        ADD      R9,R9,#+3
        B        ??FileWrite_18
//  478   {
//  479     pos++;
//  480     write[pos]=TagBook->Album2[i];
??FileWrite_19:
        LDR      R0,[R4, #+0]
        ADD      R9,R9,#+1
        LDR      R0,[R0, #+28]
        LDRB     R0,[R10, +R0]
//  481   }
        ADD      R10,R10,#+1
        STRB     R0,[R9, +R8]
??FileWrite_18:
        LDR      R0,[R4, #+0]
        LDR      R0,[R0, #+28]
        SWI      +346
        SUB      R0,R0,#+1
        CMP      R0,R10
        BGE      ??FileWrite_19
//  482   for(int i=0; i<=pos; i++){
        MOV      R0,#+0
        CMP      R9,#+0
        BPL      ??FileWrite_20
        B        ??FileWrite_21
//  483     TagBook->buffer2[i+10]=write[i];
??FileWrite_22:
        LDR      R1,[R4, #+0]
        LDRB     R2,[R0, +R8]
        LDR      R1,[R1, #+44]
        ADD      R1,R0,R1
        STRB     R2,[R1, #+10]
//  484   }
        ADD      R0,R0,#+1
??FileWrite_20:
        CMP      R9,R0
        BGE      ??FileWrite_22
//  485   fwrite(f, TagBook->buffer2, TagBook->size_id3);
??FileWrite_21:
        LDR      R0,[R4, #+0]
        LDR      R2,[R0, #+208]
        LDR      R1,[R0, #+44]
        MOV      R0,R6
        SWI      +281
//  486   for(int i=0; i<=29; i++)
        MOV      R0,#+0
//  487   {
//  488     TagBook->Title[i]=0;
??FileWrite_23:
        LDR      R1,[R4, #+0]
        LDR      R1,[R1, #+56]
        STRB     R7,[R0, +R1]
//  489     TagBook->Autor[i]=0;
        LDR      R1,[R4, #+0]
        LDR      R1,[R1, #+32]
        STRB     R7,[R0, +R1]
//  490     TagBook->Album[i]=0;
        LDR      R1,[R4, #+0]
        LDR      R1,[R1, #+24]
        STRB     R7,[R0, +R1]
//  491     TagBook->Comment[i]=0;
        LDR      R1,[R4, #+0]
        LDR      R1,[R1, #+48]
        STRB     R7,[R0, +R1]
//  492   }
        ADD      R0,R0,#+1
        CMP      R0,#+30
        BLT      ??FileWrite_23
//  493   for(int i=0; i<=3; i++)
        MOV      R0,#+0
//  494   {
//  495     TagBook->Year[i]=0;
??FileWrite_24:
        LDR      R1,[R4, #+0]
        LDR      R1,[R1, #+64]
        STRB     R7,[R0, +R1]
//  496   }
        ADD      R0,R0,#+1
        CMP      R0,#+4
        BLT      ??FileWrite_24
//  497   unicode2win1251(TagBook->Title,TagBook->UTitle,30);
        LDR      R0,[R4, #+0]
        MOV      R2,#+30
        LDR      R1,[R0, #+284]
        LDR      R0,[R0, #+56]
        BL       ??unicode2win1251
//  498   unicode2win1251(TagBook->Autor,TagBook->UAutor,30);
        LDR      R0,[R4, #+0]
        MOV      R2,#+30
        LDR      R1,[R0, #+260]
        LDR      R0,[R0, #+32]
        BL       ??unicode2win1251
//  499   unicode2win1251(TagBook->Album,TagBook->UAlbum,30);
        LDR      R0,[R4, #+0]
        MOV      R2,#+30
        LDR      R1,[R0, #+252]
        LDR      R0,[R0, #+24]
        BL       ??unicode2win1251
//  500   unicode2win1251(TagBook->Year,TagBook->UYear,30);
        LDR      R0,[R4, #+0]
        MOV      R2,#+30
        LDR      R1,[R0, #+292]
        LDR      R0,[R0, #+64]
        BL       ??unicode2win1251
//  501   unicode2win1251(TagBook->Comment,TagBook->UComment,30);
        LDR      R0,[R4, #+0]
        MOV      R2,#+30
        LDR      R1,[R0, #+272]
        LDR      R0,[R0, #+48]
        BL       ??unicode2win1251
//  502   for(int i=0; i<=3; i++)
        MOV      R0,#+0
//  503   {
//  504     TagBook->buffer[TagBook->PosYear+i]=TagBook->Year[i];
??FileWrite_25:
        LDR      R1,[R4, #+0]
        LDR      R2,[R1, #+196]
        LDR      R3,[R1, #+40]
        LDR      R1,[R1, #+64]
        ADD      R2,R0,R2
        LDRB     R1,[R0, +R1]
//  505   }
        ADD      R0,R0,#+1
        CMP      R0,#+4
        STRB     R1,[R2, +R3]
        BLT      ??FileWrite_25
//  506   for(int i=0; i<=29; i++)
        MOV      R0,#+0
//  507   {
//  508     TagBook->buffer[TagBook->PosTitle+i]=TagBook->Title[i];
??FileWrite_26:
        LDR      R1,[R4, #+0]
        LDR      R2,[R1, #+188]
        LDR      R3,[R1, #+40]
        LDR      R1,[R1, #+56]
        ADD      R2,R0,R2
        LDRB     R1,[R0, +R1]
        STRB     R1,[R2, +R3]
//  509     TagBook->buffer[TagBook->PosAutor+i]=TagBook->Autor[i];
        LDR      R1,[R4, #+0]
        LDR      R2,[R1, #+176]
        LDR      R3,[R1, #+40]
        LDR      R1,[R1, #+32]
        ADD      R2,R0,R2
        LDRB     R1,[R0, +R1]
        STRB     R1,[R2, +R3]
//  510     TagBook->buffer[TagBook->PosAlbum+i]=TagBook->Album[i];
        LDR      R1,[R4, #+0]
        LDR      R2,[R1, #+168]
        LDR      R3,[R1, #+40]
        LDR      R1,[R1, #+24]
        ADD      R2,R0,R2
        LDRB     R1,[R0, +R1]
        STRB     R1,[R2, +R3]
//  511     TagBook->buffer[TagBook->PosComment+i]=TagBook->Comment[i];
        LDR      R1,[R4, #+0]
        LDR      R2,[R1, #+184]
        LDR      R3,[R1, #+40]
        LDR      R1,[R1, #+48]
        ADD      R2,R0,R2
        LDRB     R1,[R0, +R1]
//  512   }
        ADD      R0,R0,#+1
        CMP      R0,#+30
        STRB     R1,[R2, +R3]
        BLT      ??FileWrite_26
//  513   TagBook->buffer[127]=TagBook->genre;
        LDR      R0,[R4, #+0]
//  514   lseek(f, TagBook->size-TagBook->ID3v1*128, 0);
        MOV      R2,#+0
        LDR      R1,[R0, #+40]
        LDR      R0,[R0, #+124]
        STRB     R0,[R1, #+127]
        LDR      R0,[R4, #+0]
        LDR      R1,[R0, #+204]
        LDR      R0,[R0, #+136]
        SUB      R1,R1,R0, LSL #+7
        MOV      R0,R6
        SWI      +374
//  515   fwrite(f, TagBook->buffer, 128);  
        LDR      R0,[R4, #+0]
        MOV      R2,#+128
        LDR      R1,[R0, #+40]
        MOV      R0,R6
        SWI      +281
//  516   fclose(f);
        MOV      R0,R6
        SWI      +279
//  517   if(TagBook->name[TagBook->lenn-1]=='t'&&MptToMp3)
        LDR      R2,[R4, #+0]
        LDR      R1,[R2, #+240]
        LDR      R0,[R2, #+144]
        ADD      R0,R1,R0, LSL #+1
        LDRH     R0,[R0, #-2]
        CMP      R0,#+116
        BNE      ??FileWrite_27
        LDR      R0,??FileWrite_5+0x4  ;; MptToMp3
        LDR      R0,[R0, #+0]
        CMP      R0,#+0
        BEQ      ??FileWrite_27
//  518   {
//  519     rename(TagBook->path, TagBook->name, TagBook->path, TagBook->Unewname,0);
        LDR      R0,[R2, #+244]
        MOV      R3,#+0
        PUSH     {R3}
        CFI CFA R13+40
        LDR      R3,[R2, #+280]
        MOV      R2,R0
        SWI      +658
//  520     TagBook->name[TagBook->lenn-1]='3';
        LDR      R0,[R4, #+0]
        LDR      R1,[R0, #+144]
        LDR      R0,[R0, #+240]
        ADD      R0,R0,R1, LSL #+1
        MOV      R1,#+51
        STRH     R1,[R0, #-2]
        ADD      SP,SP,#+4
        CFI CFA R13+36
//  521   }
//  522   if(RenameFile)
??FileWrite_27:
        LDR      R0,??FileWrite_5+0x8  ;; RenameFile
        LDR      R0,[R0, #+0]
        CMP      R0,#+0
        BEQ      ??FileWrite_28
//  523   {
//  524     wchar_t*new_name;
//  525     if(FromRename==0)
        LDR      R0,??FileWrite_5+0xC  ;; FromRename
        LDR      R0,[R0, #+0]
        CMP      R0,#+0
        BNE      ??FileWrite_29
//  526     {
//  527       new_name=new wchar_t[255+255+255+wstrlen(L".mp3")+150];
        ADD      R0,R5,#+8
        SWI      +343
        MOV      R1,#+147
        ORR      R1,R1,#0x300
        ADD      R0,R1,R0
        LSL      R0,R0,#+1
        _BLF     `??operator new[]`,`??operator new[]??rA`
        MOV      R6,R0
//  528       if(wstrlen(TagBook->UAutor))
        LDR      R0,[R4, #+0]
        LDR      R0,[R0, #+260]
        SWI      +343
        CMP      R0,#+0
//  529       {
//  530         wstrcpy(new_name, TagBook->UAutor);
        LDRNE    R0,[R4, #+0]
        LDRNE    R1,[R0, #+260]
        BNE      ??FileWrite_30
//  531       }
//  532       else
//  533       {
//  534         if(wstrcmp(TagBook->UAutor2, L"  "))
        LDR      R0,[R4, #+0]
        MOV      R1,R5
        LDR      R0,[R0, #+264]
        SWI      +342
        CMP      R0,#+0
//  535         {
//  536           wstrcpy(new_name, TagBook->UAutor2);
        LDRNE    R0,[R4, #+0]
//  537         }
//  538         else
//  539         {
//  540           wstrcpy(new_name, RENAME_ARTIST_NOT_FOUND);
        ADDEQ    R1,R5,#+20
        LDRNE    R1,[R0, #+264]
??FileWrite_30:
        MOV      R0,R6
        SWI      +338
//  541         }
//  542       }
//  543       wstrcat(new_name, L" - ");
        ADD      R1,R5,#+36
        MOV      R0,R6
        SWI      +340
//  544       if(wstrlen(TagBook->UTitle))
        LDR      R0,[R4, #+0]
        LDR      R0,[R0, #+284]
        SWI      +343
        CMP      R0,#+0
//  545       {
//  546         wstrcat(new_name, TagBook->UTitle);
        LDRNE    R0,[R4, #+0]
        LDRNE    R1,[R0, #+284]
        BNE      ??FileWrite_31
//  547       }
//  548       else
//  549       {
//  550         if(wstrcmp(TagBook->UTitle2, L"  "))
        LDR      R0,[R4, #+0]
        MOV      R1,R5
        LDR      R0,[R0, #+288]
        SWI      +342
        CMP      R0,#+0
        BEQ      ??FileWrite_32
//  551         {
//  552           wstrcpy(new_name, TagBook->UTitle2);
        LDR      R0,[R4, #+0]
        LDR      R1,[R0, #+288]
        MOV      R0,R6
        SWI      +338
        B        ??FileWrite_33
//  553         }
//  554         else
//  555         {
//  556           wstrcat(new_name, RENAME_TITLE_NOT_FOUND);
??FileWrite_32:
        ADD      R1,R5,#+44
??FileWrite_31:
        MOV      R0,R6
        SWI      +340
//  557         }
//  558       }
//  559       if(wstrlen(TagBook->UAlbum))
??FileWrite_33:
        LDR      R0,[R4, #+0]
        LDR      R0,[R0, #+252]
        SWI      +343
        CMP      R0,#+0
        BEQ      ??FileWrite_34
//  560       {
//  561         wstrcat(new_name, L" (");
        ADD      R1,R5,#+68
        MOV      R0,R6
        SWI      +340
//  562         wstrcat(new_name, TagBook->UAlbum);
        LDR      R0,[R4, #+0]
        LDR      R1,[R0, #+252]
??FileWrite_35:
        MOV      R0,R6
        SWI      +340
//  563         wstrcat(new_name, L").mp3");
        ADD      R1,R5,#+76
        B        ??FileWrite_36
//  564       }
//  565       else
//  566       {
//  567         if(wstrlen(TagBook->UAlbum2))
??FileWrite_34:
        LDR      R0,[R4, #+0]
        LDR      R0,[R0, #+256]
        SWI      +343
        CMP      R0,#+0
        BEQ      ??FileWrite_37
//  568         {
//  569           wstrcat(new_name, L" (");
        ADD      R1,R5,#+68
        MOV      R0,R6
        SWI      +340
//  570           wstrcat(new_name, TagBook->UAlbum2);
        LDR      R0,[R4, #+0]
        LDR      R1,[R0, #+256]
        B        ??FileWrite_35
//  571           wstrcat(new_name, L").mp3");
//  572         }
//  573         else
//  574         {
//  575           wstrcat(new_name, L".mp3");
??FileWrite_37:
        ADD      R1,R5,#+8
??FileWrite_36:
        MOV      R0,R6
        SWI      +340
//  576         }
//  577       }
//  578     }
//  579     rename(TagBook->path, TagBook->name, TagBook->path, new_name,0);
??FileWrite_29:
        LDR      R1,[R4, #+0]
        MOV      R2,#+0
        LDR      R0,[R1, #+244]
        PUSH     {R2}
        CFI CFA R13+40
        LDR      R1,[R1, #+240]
        MOV      R3,R6
        MOV      R2,R0
        SWI      +658
        ADD      SP,SP,#+4
        CFI CFA R13+36
//  580   }
//  581   PAudioControl pAC = AudioControl_Init();
??FileWrite_28:
        SWI      +479
//  582   if( !pAC ) pAC = *GetAudioControlPtr();
        CMP      R0,#+0
        BNE      ??FileWrite_38
        SWI      +33233
        LDR      R0,[R0, #+0]
//  583   AudioControl_Vibrate(pAC, 400, 50, 1000);
??FileWrite_38:
        MOV      R3,#+1000
        MOV      R2,#+50
        MOV      R1,#+400
        SWI      +466
//  584 }
        POP      {R4-R11,PC}      ;; return
        DATA
??FileWrite_5:
        DC32     `?<Constant L"\\x20\\x20">`
        DC32     MptToMp3
        DC32     RenameFile
        DC32     FromRename
        CFI EndBlock cfiBlock19

        RSEG CODE:CODE:NOROOT(2)
        CFI Block cfiBlock20 Using cfiCommon0
        CFI NoFunction
        THUMB
??DestroyInputBooks2??rT:
        BX       PC
        Nop      
        CFI EndBlock cfiBlock20
        REQUIRE ??DestroyInputBooks2
//  585 

        RSEG CODE:CODE:NOROOT(2)
        CFI Block cfiBlock21 Using cfiCommon1
        CFI Function ??DestroyInputBooks2
        ARM
//  586 void DestroyInputBooks2()
//  587 {
??DestroyInputBooks2:
        PUSH     {R4,R5,LR}
        CFI ?RET Frame(CFA, -4)
        CFI R5 Frame(CFA, -8)
        CFI R4 Frame(CFA, -12)
        CFI CFA R13+12
//  588   if(TagBook->InputTitle2)
        LDR      R4,??DataTable46  ;; TagBook
        MOV      R5,#+0
        LDR      R0,[R4, #+0]
        LDR      R0,[R0, #+92]
        CMP      R0,#+0
        BEQ      ??DestroyInputBooks2_1
//  589   {
//  590     GUIObject_Destroy(TagBook->InputTitle2);
        SWI      +462
//  591     TagBook->InputTitle2=0;
        LDR      R0,[R4, #+0]
        STR      R5,[R0, #+92]
??DestroyInputBooks2_1:
        LDR      R0,[R4, #+0]
        LDR      R0,[R0, #+72]
        CMP      R0,#+0
        BEQ      ??DestroyInputBooks2_2
//  592   }
//  593   if(TagBook->InputAlbum2)
//  594   {
//  595     GUIObject_Destroy(TagBook->InputAlbum2);
        SWI      +462
//  596     TagBook->InputAlbum2=0;
        LDR      R0,[R4, #+0]
        STR      R5,[R0, #+72]
??DestroyInputBooks2_2:
        LDR      R0,[R4, #+0]
        LDR      R0,[R0, #+80]
        CMP      R0,#+0
        POPEQ    {R4,R5,PC}
//  597   }
//  598   if(TagBook->InputAutor2)
//  599   {
//  600     GUIObject_Destroy(TagBook->InputAutor2);
        SWI      +462
//  601     TagBook->InputAutor2=0;
        LDR      R0,[R4, #+0]
        STR      R5,[R0, #+80]
//  602   }
//  603 }
        POP      {R4,R5,PC}       ;; return
        CFI EndBlock cfiBlock21

        RSEG CODE:CODE:NOROOT(2)
        CFI Block cfiBlock22 Using cfiCommon0
        CFI NoFunction
        THUMB
??OnEntInputTitle2??rT:
        BX       PC
        Nop      
        CFI EndBlock cfiBlock22
        REQUIRE ??OnEntInputTitle2
//  604 

        RSEG CODE:CODE:NOROOT(2)
        CFI Block cfiBlock23 Using cfiCommon1
        CFI Function ??OnEntInputTitle2
        ARM
//  605 void OnEntInputTitle2(BOOK *,wchar_t * string,int len)
//  606 {
??OnEntInputTitle2:
        PUSH     {R4-R6,LR}
        CFI ?RET Frame(CFA, -4)
        CFI R6 Frame(CFA, -8)
        CFI R5 Frame(CFA, -12)
        CFI R4 Frame(CFA, -16)
        CFI CFA R13+16
//  607   if(TagBook->UTitle2) delete TagBook->UTitle2;
        LDR      R4,??DataTable46  ;; TagBook
        MOV      R5,R1
        LDR      R0,[R4, #+0]
        MOV      R6,R2
        LDR      R0,[R0, #+288]
        CMP      R0,#+0
        BEQ      ??OnEntInputTitle2_1
        _BLF     `??operator delete`,`??operator delete??rA`
//  608   TagBook->UTitle2=new wchar_t[len+1];
??OnEntInputTitle2_1:
        ADD      R0,R6,#+1
        LSL      R0,R0,#+1
        _BLF     `??operator new[]`,`??operator new[]??rA`
        LDR      R2,[R4, #+0]
//  609   wstrcpy(TagBook->UTitle2, string);
        MOV      R1,R5
        STR      R0,[R2, #+288]
        SWI      +338
//  610   TagBook->change++;
        LDR      R0,[R4, #+0]
        LDR      R1,[R0, #+120]
        ADD      R1,R1,#+1
        STR      R1,[R0, #+120]
//  611   DestroyInputBooks2();
        BL       ??DestroyInputBooks2
//  612   GUIObject_Show(TagBook->MenuList2);
        LDR      R0,[R4, #+0]
        LDR      R0,[R0, #+116]
        SWI      +308
//  613 }
        POP      {R4-R6,PC}       ;; return
        CFI EndBlock cfiBlock23

        RSEG CODE:CODE:NOROOT(2)
        CFI Block cfiBlock24 Using cfiCommon0
        CFI NoFunction
        THUMB
??OnEntInputAutor2??rT:
        BX       PC
        Nop      
        CFI EndBlock cfiBlock24
        REQUIRE ??OnEntInputAutor2
//  614 

        RSEG CODE:CODE:NOROOT(2)
        CFI Block cfiBlock25 Using cfiCommon1
        CFI Function ??OnEntInputAutor2
        ARM
//  615 void OnEntInputAutor2(BOOK *,wchar_t * string,int len)
//  616 {
??OnEntInputAutor2:
        PUSH     {R4-R6,LR}
        CFI ?RET Frame(CFA, -4)
        CFI R6 Frame(CFA, -8)
        CFI R5 Frame(CFA, -12)
        CFI R4 Frame(CFA, -16)
        CFI CFA R13+16
//  617   if(TagBook->UAutor2) delete TagBook->UAutor2;
        LDR      R4,??DataTable46  ;; TagBook
        MOV      R5,R1
        LDR      R0,[R4, #+0]
        MOV      R6,R2
        LDR      R0,[R0, #+264]
        CMP      R0,#+0
        BEQ      ??OnEntInputAutor2_1
        _BLF     `??operator delete`,`??operator delete??rA`
//  618   TagBook->UAutor2=new wchar_t[len+1];
??OnEntInputAutor2_1:
        ADD      R0,R6,#+1
        LSL      R0,R0,#+1
        _BLF     `??operator new[]`,`??operator new[]??rA`
        LDR      R2,[R4, #+0]
//  619   wstrcpy(TagBook->UAutor2, string);
        MOV      R1,R5
        STR      R0,[R2, #+264]
        SWI      +338
//  620   TagBook->change++;
        LDR      R0,[R4, #+0]
        LDR      R1,[R0, #+120]
        ADD      R1,R1,#+1
        STR      R1,[R0, #+120]
//  621   DestroyInputBooks2();
        BL       ??DestroyInputBooks2
//  622   GUIObject_Show(TagBook->MenuList2);
        LDR      R0,[R4, #+0]
        LDR      R0,[R0, #+116]
        SWI      +308
//  623 }
        POP      {R4-R6,PC}       ;; return
        CFI EndBlock cfiBlock25

        RSEG CODE:CODE:NOROOT(2)
        CFI Block cfiBlock26 Using cfiCommon0
        CFI NoFunction
        THUMB
??OnEntInputAlbum2??rT:
        BX       PC
        Nop      
        CFI EndBlock cfiBlock26
        REQUIRE ??OnEntInputAlbum2
//  624 

        RSEG CODE:CODE:NOROOT(2)
        CFI Block cfiBlock27 Using cfiCommon1
        CFI Function ??OnEntInputAlbum2
        ARM
//  625 void OnEntInputAlbum2(BOOK *,wchar_t * string,int len)
//  626 {
??OnEntInputAlbum2:
        PUSH     {R4-R6,LR}
        CFI ?RET Frame(CFA, -4)
        CFI R6 Frame(CFA, -8)
        CFI R5 Frame(CFA, -12)
        CFI R4 Frame(CFA, -16)
        CFI CFA R13+16
//  627   if(TagBook->UAlbum2) delete TagBook->UAlbum2;
        LDR      R4,??DataTable46  ;; TagBook
        MOV      R5,R1
        LDR      R0,[R4, #+0]
        MOV      R6,R2
        LDR      R0,[R0, #+256]
        CMP      R0,#+0
        BEQ      ??OnEntInputAlbum2_1
        _BLF     `??operator delete`,`??operator delete??rA`
//  628   TagBook->UAlbum2=new wchar_t[len+1];
??OnEntInputAlbum2_1:
        ADD      R0,R6,#+1
        LSL      R0,R0,#+1
        _BLF     `??operator new[]`,`??operator new[]??rA`
        LDR      R2,[R4, #+0]
//  629   wstrcpy(TagBook->UAlbum2, string);
        MOV      R1,R5
        STR      R0,[R2, #+256]
        SWI      +338
//  630   TagBook->change++;
        LDR      R0,[R4, #+0]
        LDR      R1,[R0, #+120]
        ADD      R1,R1,#+1
        STR      R1,[R0, #+120]
//  631   DestroyInputBooks2();
        BL       ??DestroyInputBooks2
//  632   GUIObject_Show(TagBook->MenuList2);
        LDR      R0,[R4, #+0]
        LDR      R0,[R0, #+116]
        SWI      +308
//  633 }
        POP      {R4-R6,PC}       ;; return
        CFI EndBlock cfiBlock27

        RSEG CODE:CODE:NOROOT(2)
        CFI Block cfiBlock28 Using cfiCommon0
        CFI NoFunction
        THUMB
??InputTitleF2??rT:
        BX       PC
        Nop      
        CFI EndBlock cfiBlock28
        REQUIRE ??InputTitleF2
//  634 

        RSEG CODE:CODE:NOROOT(2)
        CFI Block cfiBlock29 Using cfiCommon1
        CFI Function ??InputTitleF2
        ARM
//  635 void InputTitleF2()
//  636 {
??InputTitleF2:
        PUSH     {R4-R6,LR}
        CFI ?RET Frame(CFA, -4)
        CFI R6 Frame(CFA, -8)
        CFI R5 Frame(CFA, -12)
        CFI R4 Frame(CFA, -16)
        CFI CFA R13+16
//  637   TagBook->InputTitle2=CreateStringInputVA(0,
//  638                                        VAR_PREV_ACTION_PROC(DestroyInputBooks2),
//  639                                        VAR_LONG_BACK_PROC(DestroyInputBooks2),
//  640                                        VAR_BOOK(TagBook),
//  641                                        VAR_STRINP_FIXED_TEXT(TextID_Create(INFO_TITLE, ENC_UCS2, TEXTID_ANY_LEN)),
//  642                                        VAR_STRINP_TEXT(TextID_Create(TagBook->UTitle2, ENC_UCS2, TEXTID_ANY_LEN)),
//  643                                        VAR_STRINP_MAX_LEN(255),
//  644                                        VAR_STRINP_MIN_LEN(0),
//  645                                        VAR_OK_PROC(OnEntInputTitle2),
//  646                                        0);                                      
        LDR      R4,??DataTable46  ;; TagBook
        MOV      R1,#+0
        LDR      R0,[R4, #+0]
        MOV      R6,#+255
        LDR      R0,[R0, #+288]
        ORR      R6,R6,#0xFF00
        MOV      R2,R6
        SWI      +349
        MOV      R5,R0
        LDR      R0,??DataTable50  ;; `?<Constant L"\\x41d\\x430\\x437\\x432\\x430\\x43d\\x4`
        MOV      R2,R6
        MOV      R1,#+0
        SWI      +349
        LDR      R2,??DataTable30  ;; ??DestroyInputBooks2
        LDR      R3,??DataTable31  ;; VAR_ARG_CALL_BACK_LONG_BACK
        MOV      R1,#+0
        PUSH     {R1}
        CFI CFA R13+20
        LDR      R1,??InputTitleF2_1  ;; ??OnEntInputTitle2
        PUSH     {R1}
        CFI CFA R13+24
        LDR      R1,??DataTable32  ;; VAR_ARG_CALL_BACK_OK
        PUSH     {R1}
        CFI CFA R13+28
        MOV      R1,#+0
        PUSH     {R1}
        CFI CFA R13+32
        LDR      R1,??DataTable33  ;; VAR_ARG_STRINP_MIN_LEN
        PUSH     {R1}
        CFI CFA R13+36
        MOV      R1,#+255
        PUSH     {R1}
        CFI CFA R13+40
        LDR      R1,??DataTable34  ;; VAR_ARG_STRINP_MAX_LEN
        PUSH     {R1}
        CFI CFA R13+44
        LDR      R1,??DataTable35  ;; VAR_ARG_STRINP_TEXT
        PUSH     {R5}
        CFI CFA R13+48
        PUSH     {R1}
        CFI CFA R13+52
        LDR      R1,??DataTable36  ;; VAR_ARG_CALL_BACK_PREV_ACT
        PUSH     {R0}
        CFI CFA R13+56
        LDR      R0,??DataTable37  ;; VAR_ARG_STRINP_FIXED_TEXT
        PUSH     {R0}
        CFI CFA R13+60
        LDR      R0,[R4, #+0]
        PUSH     {R0}
        CFI CFA R13+64
        LDR      R0,??DataTable38  ;; VAR_ARG_BOOK
        PUSH     {R0}
        CFI CFA R13+68
        MOV      R0,R2
        PUSH     {R0}
        CFI CFA R13+72
        MOV      R0,#+0
        SWI      +324
        ADD      SP,SP,#+56
        CFI CFA R13+16
        LDR      R1,[R4, #+0]
        STR      R0,[R1, #+92]
//  647                                        
//  648 }
        POP      {R4-R6,PC}       ;; return
        DATA
??InputTitleF2_1:
        DC32     ??OnEntInputTitle2
        CFI EndBlock cfiBlock29

        RSEG CODE:CODE:NOROOT(2)
        CFI Block cfiBlock30 Using cfiCommon0
        CFI NoFunction
        THUMB
??InputAutorF2??rT:
        BX       PC
        Nop      
        CFI EndBlock cfiBlock30
        REQUIRE ??InputAutorF2
//  649 

        RSEG CODE:CODE:NOROOT(2)
        CFI Block cfiBlock31 Using cfiCommon1
        CFI Function ??InputAutorF2
        ARM
//  650 void InputAutorF2()
//  651 {
??InputAutorF2:
        PUSH     {R4-R6,LR}
        CFI ?RET Frame(CFA, -4)
        CFI R6 Frame(CFA, -8)
        CFI R5 Frame(CFA, -12)
        CFI R4 Frame(CFA, -16)
        CFI CFA R13+16
//  652     TagBook->InputAutor2=CreateStringInputVA(0,
//  653                                        VAR_PREV_ACTION_PROC(DestroyInputBooks2),
//  654                                        VAR_LONG_BACK_PROC(DestroyInputBooks2),
//  655                                        VAR_BOOK(TagBook),
//  656                                        VAR_STRINP_FIXED_TEXT(TextID_Create(INPUT_ARTIST, ENC_UCS2, TEXTID_ANY_LEN)),
//  657                                        VAR_STRINP_TEXT(TextID_Create(TagBook->UAutor2, ENC_UCS2, TEXTID_ANY_LEN)),
//  658                                        VAR_STRINP_MAX_LEN(255),
//  659                                        VAR_STRINP_MIN_LEN(0),
//  660                                        VAR_OK_PROC(OnEntInputAutor2),
//  661                                        0);   
        LDR      R4,??DataTable46  ;; TagBook
        MOV      R1,#+0
        LDR      R0,[R4, #+0]
        MOV      R6,#+255
        LDR      R0,[R0, #+264]
        ORR      R6,R6,#0xFF00
        MOV      R2,R6
        SWI      +349
        MOV      R5,R0
        LDR      R0,??DataTable18  ;; `?<Constant L"\\x418\\x441\\x43f\\x43e\\x43b\\x43d\\x4_1`
        MOV      R2,R6
        MOV      R1,#+0
        SWI      +349
        LDR      R2,??DataTable30  ;; ??DestroyInputBooks2
        LDR      R3,??DataTable31  ;; VAR_ARG_CALL_BACK_LONG_BACK
        MOV      R1,#+0
        PUSH     {R1}
        CFI CFA R13+20
        LDR      R1,??InputAutorF2_1  ;; ??OnEntInputAutor2
        PUSH     {R1}
        CFI CFA R13+24
        LDR      R1,??DataTable32  ;; VAR_ARG_CALL_BACK_OK
        PUSH     {R1}
        CFI CFA R13+28
        MOV      R1,#+0
        PUSH     {R1}
        CFI CFA R13+32
        LDR      R1,??DataTable33  ;; VAR_ARG_STRINP_MIN_LEN
        PUSH     {R1}
        CFI CFA R13+36
        MOV      R1,#+255
        PUSH     {R1}
        CFI CFA R13+40
        LDR      R1,??DataTable34  ;; VAR_ARG_STRINP_MAX_LEN
        PUSH     {R1}
        CFI CFA R13+44
        LDR      R1,??DataTable35  ;; VAR_ARG_STRINP_TEXT
        PUSH     {R5}
        CFI CFA R13+48
        PUSH     {R1}
        CFI CFA R13+52
        LDR      R1,??DataTable36  ;; VAR_ARG_CALL_BACK_PREV_ACT
        PUSH     {R0}
        CFI CFA R13+56
        LDR      R0,??DataTable37  ;; VAR_ARG_STRINP_FIXED_TEXT
        PUSH     {R0}
        CFI CFA R13+60
        LDR      R0,[R4, #+0]
        PUSH     {R0}
        CFI CFA R13+64
        LDR      R0,??DataTable38  ;; VAR_ARG_BOOK
        PUSH     {R0}
        CFI CFA R13+68
        MOV      R0,R2
        PUSH     {R0}
        CFI CFA R13+72
        MOV      R0,#+0
        SWI      +324
        ADD      SP,SP,#+56
        CFI CFA R13+16
        LDR      R1,[R4, #+0]
        STR      R0,[R1, #+80]
//  662 }
        POP      {R4-R6,PC}       ;; return
        DATA
??InputAutorF2_1:
        DC32     ??OnEntInputAutor2
        CFI EndBlock cfiBlock31

        RSEG CODE:CODE:NOROOT(2)
        DATA
??DataTable18:
        DC32     `?<Constant L"\\x418\\x441\\x43f\\x43e\\x43b\\x43d\\x4_1`

        RSEG CODE:CODE:NOROOT(2)
        CFI Block cfiBlock32 Using cfiCommon0
        CFI NoFunction
        THUMB
??InputAlbumF2??rT:
        BX       PC
        Nop      
        CFI EndBlock cfiBlock32
        REQUIRE ??InputAlbumF2
//  663 

        RSEG CODE:CODE:NOROOT(2)
        CFI Block cfiBlock33 Using cfiCommon1
        CFI Function ??InputAlbumF2
        ARM
//  664 void InputAlbumF2()
//  665 {
??InputAlbumF2:
        PUSH     {R4-R6,LR}
        CFI ?RET Frame(CFA, -4)
        CFI R6 Frame(CFA, -8)
        CFI R5 Frame(CFA, -12)
        CFI R4 Frame(CFA, -16)
        CFI CFA R13+16
//  666     TagBook->InputAlbum2=CreateStringInputVA(0,
//  667                                        VAR_PREV_ACTION_PROC(DestroyInputBooks2),
//  668                                        VAR_LONG_BACK_PROC(DestroyInputBooks2),
//  669                                        VAR_BOOK(TagBook),
//  670                                        VAR_STRINP_FIXED_TEXT(TextID_Create(INPUT_ALBUM, ENC_UCS2, TEXTID_ANY_LEN)),
//  671                                        VAR_STRINP_TEXT(TextID_Create(TagBook->UAlbum2, ENC_UCS2, TEXTID_ANY_LEN)),
//  672                                        VAR_STRINP_MAX_LEN(255),
//  673                                        VAR_STRINP_MIN_LEN(0),
//  674                                        VAR_OK_PROC(OnEntInputAlbum2),
//  675                                        0); 
        LDR      R4,??DataTable46  ;; TagBook
        MOV      R1,#+0
        LDR      R0,[R4, #+0]
        MOV      R6,#+255
        LDR      R0,[R0, #+256]
        ORR      R6,R6,#0xFF00
        MOV      R2,R6
        SWI      +349
        MOV      R5,R0
        LDR      R0,??DataTable29  ;; `?<Constant L"\\x410\\x43b\\x44c\\x431\\x43e\\x43c\\x3_1`
        MOV      R2,R6
        MOV      R1,#+0
        SWI      +349
        LDR      R2,??DataTable30  ;; ??DestroyInputBooks2
        LDR      R3,??DataTable31  ;; VAR_ARG_CALL_BACK_LONG_BACK
        MOV      R1,#+0
        PUSH     {R1}
        CFI CFA R13+20
        LDR      R1,??InputAlbumF2_1  ;; ??OnEntInputAlbum2
        PUSH     {R1}
        CFI CFA R13+24
        LDR      R1,??DataTable32  ;; VAR_ARG_CALL_BACK_OK
        PUSH     {R1}
        CFI CFA R13+28
        MOV      R1,#+0
        PUSH     {R1}
        CFI CFA R13+32
        LDR      R1,??DataTable33  ;; VAR_ARG_STRINP_MIN_LEN
        PUSH     {R1}
        CFI CFA R13+36
        MOV      R1,#+255
        PUSH     {R1}
        CFI CFA R13+40
        LDR      R1,??DataTable34  ;; VAR_ARG_STRINP_MAX_LEN
        PUSH     {R1}
        CFI CFA R13+44
        LDR      R1,??DataTable35  ;; VAR_ARG_STRINP_TEXT
        PUSH     {R5}
        CFI CFA R13+48
        PUSH     {R1}
        CFI CFA R13+52
        LDR      R1,??DataTable36  ;; VAR_ARG_CALL_BACK_PREV_ACT
        PUSH     {R0}
        CFI CFA R13+56
        LDR      R0,??DataTable37  ;; VAR_ARG_STRINP_FIXED_TEXT
        PUSH     {R0}
        CFI CFA R13+60
        LDR      R0,[R4, #+0]
        PUSH     {R0}
        CFI CFA R13+64
        LDR      R0,??DataTable38  ;; VAR_ARG_BOOK
        PUSH     {R0}
        CFI CFA R13+68
        MOV      R0,R2
        PUSH     {R0}
        CFI CFA R13+72
        MOV      R0,#+0
        SWI      +324
        ADD      SP,SP,#+56
        CFI CFA R13+16
        LDR      R1,[R4, #+0]
        STR      R0,[R1, #+72]
//  676 }
        POP      {R4-R6,PC}       ;; return
        DATA
??InputAlbumF2_1:
        DC32     ??OnEntInputAlbum2
        CFI EndBlock cfiBlock33

        RSEG CODE:CODE:NOROOT(2)
        DATA
??DataTable29:
        DC32     `?<Constant L"\\x410\\x43b\\x44c\\x431\\x43e\\x43c\\x3_1`

        RSEG CODE:CODE:NOROOT(2)
        DATA
??DataTable30:
        DC32     ??DestroyInputBooks2

        RSEG CODE:CODE:NOROOT(2)
        DATA
??DataTable31:
        DC32     VAR_ARG_CALL_BACK_LONG_BACK

        RSEG CODE:CODE:NOROOT(2)
        DATA
??DataTable32:
        DC32     VAR_ARG_CALL_BACK_OK

        RSEG CODE:CODE:NOROOT(2)
        DATA
??DataTable33:
        DC32     VAR_ARG_STRINP_MIN_LEN

        RSEG CODE:CODE:NOROOT(2)
        DATA
??DataTable34:
        DC32     VAR_ARG_STRINP_MAX_LEN

        RSEG CODE:CODE:NOROOT(2)
        DATA
??DataTable35:
        DC32     VAR_ARG_STRINP_TEXT

        RSEG CODE:CODE:NOROOT(2)
        DATA
??DataTable36:
        DC32     VAR_ARG_CALL_BACK_PREV_ACT

        RSEG CODE:CODE:NOROOT(2)
        DATA
??DataTable37:
        DC32     VAR_ARG_STRINP_FIXED_TEXT

        RSEG CODE:CODE:NOROOT(2)
        DATA
??DataTable38:
        DC32     VAR_ARG_BOOK

        RSEG CODE:CODE:NOROOT(2)
        CFI Block cfiBlock34 Using cfiCommon0
        CFI NoFunction
        THUMB
??OnEntML2??rT:
        BX       PC
        Nop      
        CFI EndBlock cfiBlock34
        REQUIRE ??OnEntML2
//  677 

        RSEG CODE:CODE:NOROOT(2)
        CFI Block cfiBlock35 Using cfiCommon1
        CFI Function ??OnEntML2
        ARM
//  678 void OnEntML2( BOOK* bk, GUI* )
//  679 {
//  680   int item=ListMenu_GetSelectedItem(TagBook->MenuList2);
??OnEntML2:
        LDR      R0,??DataTable46  ;; TagBook
        PUSH     {LR}
        CFI ?RET Frame(CFA, -4)
        CFI CFA R13+4
        LDR      R0,[R0, #+0]
        LDR      R0,[R0, #+116]
        SWI      +318
//  681   if(item==0)
        CMP      R0,#+0
        BNE      ??OnEntML2_1
//  682   {
//  683     InputTitleF2();
        POP      {LR}             ;; Pop
        CFI ?RET R14
        CFI CFA R13+0
        B        ??InputTitleF2   ;; tailcall
        CFI ?RET Frame(CFA, -4)
        CFI CFA R13+4
//  684   }
//  685   if(item==1)
??OnEntML2_1:
        CMP      R0,#+1
        BNE      ??OnEntML2_2
//  686   {
//  687     InputAutorF2();
        POP      {LR}             ;; Pop
        CFI ?RET R14
        CFI CFA R13+0
        B        ??InputAutorF2   ;; tailcall
        CFI ?RET Frame(CFA, -4)
        CFI CFA R13+4
//  688   }
//  689   if(item==2)
??OnEntML2_2:
        CMP      R0,#+2
        POPNE    {PC}
//  690   {
//  691     InputAlbumF2();
        POP      {LR}             ;; Pop
        CFI ?RET R14
        CFI CFA R13+0
        B        ??InputAlbumF2   ;; tailcall
        CFI EndBlock cfiBlock35
//  692   }
//  693 }

        RSEG CODE:CODE:NOROOT(2)
        CFI Block cfiBlock36 Using cfiCommon0
        CFI NoFunction
        THUMB
??ExitML2??rT:
        BX       PC
        Nop      
        CFI EndBlock cfiBlock36
        REQUIRE ??ExitML2
//  694 

        RSEG CODE:CODE:NOROOT(2)
        CFI Block cfiBlock37 Using cfiCommon1
        CFI Function ??ExitML2
        ARM
//  695 void ExitML2( BOOK*, GUI* )
//  696 {
??ExitML2:
        PUSH     {R4,LR}
        CFI ?RET Frame(CFA, -4)
        CFI R4 Frame(CFA, -8)
        CFI CFA R13+8
//  697   GUIObject_Destroy(TagBook->MenuList2);
        LDR      R4,??DataTable46  ;; TagBook
        LDR      R0,[R4, #+0]
        LDR      R0,[R0, #+116]
        SWI      +462
//  698   TagBook->MenuList2=0;
        LDR      R0,[R4, #+0]
        MOV      R1,#+0
        STR      R1,[R0, #+116]
//  699   CreateGlavMenu(1);
        MOV      R0,#+1
        POP      {R4,LR}          ;; Pop
        CFI R4 SameValue
        CFI ?RET R14
        CFI CFA R13+0
        B        ??CreateGlavMenu  ;; tailcall
        CFI EndBlock cfiBlock37
//  700 }

        RSEG CODE:CODE:NOROOT(2)
        CFI Block cfiBlock38 Using cfiCommon0
        CFI NoFunction
        THUMB
??SetTitleML2??rT:
        BX       PC
        Nop      
        CFI EndBlock cfiBlock38
        REQUIRE ??SetTitleML2
//  701 

        RSEG CODE:CODE:NOROOT(2)
        CFI Block cfiBlock39 Using cfiCommon1
        CFI Function ??SetTitleML2
        ARM
//  702 int SetTitleML2(GUI_MESSAGE * msg)
//  703 {
??SetTitleML2:
        PUSH     {R4-R6,LR}
        CFI ?RET Frame(CFA, -4)
        CFI R6 Frame(CFA, -8)
        CFI R5 Frame(CFA, -12)
        CFI R4 Frame(CFA, -16)
        CFI CFA R13+16
        SUB      SP,SP,#+4
        CFI CFA R13+20
        MOV      R4,R0
//  704   int item;
//  705   int imgID;
//  706   switch( GUIonMessage_GetMsg(msg) )
        SWI      +884
        CMP      R0,#+1
        BNE      ??SetTitleML2_1
//  707   {
//  708     case 1:
//  709       item=GUIonMessage_GetCreatedItemIndex(msg);
//  710       if(item==0)
        LDR      R5,??DataTable46  ;; TagBook
        MOV      R0,R4
        SWI      +311
        MOVS     R1,R0
        LDR      R0,??DataTable42  ;; `?<Constant L"\\x41d\\x430\\x437\\x432\\x430\\x43d\\x4_1`
        MOV      R6,#+255
        ORR      R6,R6,#0xFF00
        BNE      ??SetTitleML2_2
//  711       {
//  712         GUIonMessage_SetMenuItemText(msg,TextID_Create(MENU_ITEM_TEXT_TITLE,ENC_UCS2,TEXTID_ANY_LEN));
        MOV      R2,R6
        MOV      R1,#+0
        SWI      +349
        MOV      R1,R0
        MOV      R0,R4
        SWI      +312
//  713         GUIonMessage_SetMenuItemSecondLineText(msg,TextID_Create(TagBook->UTitle2,ENC_UCS2,TEXTID_ANY_LEN));
        LDR      R0,[R5, #+0]
        MOV      R2,R6
        LDR      R0,[R0, #+288]
        MOV      R1,#+0
        SWI      +349
        MOV      R1,R0
        MOV      R0,R4
        SWI      +313
//  714         iconidname2id(Iconr,-1,&imgID);
        LDR      R0,??DataTable43  ;; Iconr
        B        ??SetTitleML2_3
//  715         GUIonMessage_SetMenuItemIcon(msg, 0, imgID);
//  716       }
//  717       if(item==1)
??SetTitleML2_2:
        CMP      R1,#+1
        BNE      ??SetTitleML2_4
//  718       {
//  719         GUIonMessage_SetMenuItemText(msg,TextID_Create(MENU_ITEM_TEXT_ARTIST,ENC_UCS2,TEXTID_ANY_LEN));
        MOV      R2,R6
        MOV      R1,#+0
        ADD      R0,R0,#+20
        SWI      +349
        MOV      R1,R0
        MOV      R0,R4
        SWI      +312
//  720         GUIonMessage_SetMenuItemSecondLineText(msg,TextID_Create(TagBook->UAutor2,ENC_UCS2,TEXTID_ANY_LEN));
        LDR      R0,[R5, #+0]
        MOV      R2,R6
        LDR      R0,[R0, #+264]
        MOV      R1,#+0
        SWI      +349
        MOV      R1,R0
        MOV      R0,R4
        SWI      +313
//  721         iconidname2id(Icont,-1,&imgID);
        LDR      R0,??DataTable44  ;; Icont
        B        ??SetTitleML2_3
//  722         GUIonMessage_SetMenuItemIcon(msg, 0, imgID);
//  723       }
//  724       if(item==2)
??SetTitleML2_4:
        CMP      R1,#+2
        BNE      ??SetTitleML2_1
//  725       {
//  726         GUIonMessage_SetMenuItemText(msg,TextID_Create(MENU_ITEM_TEXT_ALBUM,ENC_UCS2,TEXTID_ANY_LEN));
        MOV      R2,R6
        MOV      R1,#+0
        ADD      R0,R0,#+44
        SWI      +349
        MOV      R1,R0
        MOV      R0,R4
        SWI      +312
//  727         GUIonMessage_SetMenuItemSecondLineText(msg,TextID_Create(TagBook->UAlbum2,ENC_UCS2,TEXTID_ANY_LEN));
        LDR      R0,[R5, #+0]
        MOV      R2,R6
        LDR      R0,[R0, #+256]
        MOV      R1,#+0
        SWI      +349
        MOV      R1,R0
        MOV      R0,R4
        SWI      +313
//  728         iconidname2id(Icony,-1,&imgID);
        LDR      R0,??DataTable45  ;; Icony
??SetTitleML2_3:
        MOV      R2,SP
        MVN      R1,#+0
        SWI      +646
//  729         GUIonMessage_SetMenuItemIcon(msg, 0, imgID);
        LDR      R2,[SP, #+0]
        MOV      R1,#+0
        MOV      R2,R2, LSL #+16
        MOV      R2,R2, LSR #+16
        MOV      R0,R4
        SWI      +316
//  730       }      
//  731   }
//  732   return(1);        
??SetTitleML2_1:
        MOV      R0,#+1
        POP      {R1,R4-R6,PC}    ;; return
        CFI EndBlock cfiBlock39
//  733 }

        RSEG CODE:CODE:NOROOT(2)
        DATA
??DataTable42:
        DC32     `?<Constant L"\\x41d\\x430\\x437\\x432\\x430\\x43d\\x4_1`

        RSEG CODE:CODE:NOROOT(2)
        DATA
??DataTable43:
        DC32     Iconr

        RSEG CODE:CODE:NOROOT(2)
        DATA
??DataTable44:
        DC32     Icont

        RSEG CODE:CODE:NOROOT(2)
        DATA
??DataTable45:
        DC32     Icony

        RSEG CODE:CODE:NOROOT(2)
        CFI Block cfiBlock40 Using cfiCommon0
        CFI NoFunction
        THUMB
??PlayF2??rT:
        BX       PC
        Nop      
        CFI EndBlock cfiBlock40
        REQUIRE ??PlayF2
//  734 

        RSEG CODE:CODE:NOROOT(2)
        CFI Block cfiBlock41 Using cfiCommon1
        CFI Function ??PlayF2
        ARM
//  735 void PlayF2( BOOK* bk, GUI* )
//  736 {
??PlayF2:
        PUSH     {R4-R7,LR}
        CFI ?RET Frame(CFA, -4)
        CFI R7 Frame(CFA, -8)
        CFI R6 Frame(CFA, -12)
        CFI R5 Frame(CFA, -16)
        CFI R4 Frame(CFA, -20)
        CFI CFA R13+20
//  737   if(TagBook->PlayMode==0)
        LDR      R4,??DataTable46  ;; TagBook
        LDR      R7,??DataTable47  ;; `?<Constant L"\\x421\\x442\\x43e\\x43f">`
        LDR      R0,[R4, #+0]
        MOV      R6,#+255
        LDR      R1,[R0, #+152]
        ORR      R6,R6,#0xFF00
        MOV      R5,#+296
        CMP      R1,#+0
        BNE      ??PlayF2_1
//  738   {
//  739     PlayFile(TagBook->path,TagBook->name);
        LDR      R1,[R0, #+240]
        LDR      R0,[R0, #+244]
        SWI      +434
//  740     wstrcpy(TagBook->PlayText,SOFTKEY_STATUS_STOP);
        LDR      R0,[R4, #+0]
        MOV      R1,R7
        ADD      R0,R5,R0
        SWI      +338
//  741     GUIObject_SoftKeys_SetText(TagBook->MenuList2,1,TextID_Create(TagBook->PlayText,ENC_UCS2,TEXTID_ANY_LEN));
        LDR      R0,[R4, #+0]
        MOV      R2,R6
        MOV      R1,#+0
        ADD      R0,R5,R0
        SWI      +349
        MOV      R2,R0
        LDR      R0,[R4, #+0]
        MOV      R1,#+1
        LDR      R0,[R0, #+116]
        SWI      +332
//  742     TagBook->PlayMode=1;
        LDR      R0,[R4, #+0]
        MOV      R1,#+1
        STR      R1,[R0, #+152]
        POP      {R4-R7,PC}
//  743   }
//  744   else
//  745   {
//  746     PlaySystemSound(7);
??PlayF2_1:
        MOV      R0,#+7
        SWI      +602
//  747     wstrcpy(TagBook->PlayText,SOFTKEY_STATUS_PLAY);
        LDR      R0,[R4, #+0]
        ADD      R1,R7,#+12
        ADD      R0,R5,R0
        SWI      +338
//  748     GUIObject_SoftKeys_SetText(TagBook->MenuList2,1,TextID_Create(TagBook->PlayText,ENC_UCS2,TEXTID_ANY_LEN));
        LDR      R0,[R4, #+0]
        MOV      R2,R6
        MOV      R1,#+0
        ADD      R0,R5,R0
        SWI      +349
        MOV      R2,R0
        LDR      R0,[R4, #+0]
        MOV      R1,#+1
        LDR      R0,[R0, #+116]
        SWI      +332
//  749     TagBook->PlayMode=0;
        LDR      R0,[R4, #+0]
        MOV      R1,#+0
        STR      R1,[R0, #+152]
//  750   }
//  751 }
        POP      {R4-R7,PC}       ;; return
        CFI EndBlock cfiBlock41

        RSEG CODE:CODE:NOROOT(2)
        DATA
??DataTable46:
        DC32     TagBook

        RSEG CODE:CODE:NOROOT(2)
        DATA
??DataTable47:
        DC32     `?<Constant L"\\x421\\x442\\x43e\\x43f">`

        RSEG CODE:CODE:NOROOT(2)
        CFI Block cfiBlock42 Using cfiCommon0
        CFI NoFunction
        THUMB
??DeleteTag2??rT:
        BX       PC
        Nop      
        CFI EndBlock cfiBlock42
        REQUIRE ??DeleteTag2
//  752 

        RSEG CODE:CODE:NOROOT(2)
        CFI Block cfiBlock43 Using cfiCommon1
        CFI Function ??DeleteTag2
        ARM
//  753 void DeleteTag2(int x){
??DeleteTag2:
        PUSH     {R4-R7,LR}
        CFI ?RET Frame(CFA, -4)
        CFI R7 Frame(CFA, -8)
        CFI R6 Frame(CFA, -12)
        CFI R5 Frame(CFA, -16)
        CFI R4 Frame(CFA, -20)
        CFI CFA R13+20
//  754   int i;
//  755   if(x==0)
        LDR      R5,??DataTable73  ;; TagBook
        MOVS     R4,R0
        MOV      R6,#+0
        BNE      ??DeleteTag2_1
//  756   {
//  757     for(i=0; i<=(wstrlen(TagBook->UTitle2)-1); i++)
        MOV      R7,#+0
??DeleteTag2_2:
        LDR      R0,[R5, #+0]
        LDR      R0,[R0, #+288]
        SWI      +343
        SUB      R0,R0,#+1
        CMP      R0,R7
        BLT      ??DeleteTag2_3
//  758     {
//  759       TagBook->UTitle2[i]=0;
        LDR      R0,[R5, #+0]
        LDR      R0,[R0, #+288]
        ADD      R0,R0,R7, LSL #+1
        STRH     R6,[R0, #+0]
//  760     }
        ADD      R7,R7,#+1
        B        ??DeleteTag2_2
//  761   }
//  762   if(x==1)
??DeleteTag2_1:
        CMP      R4,#+1
        BNE      ??DeleteTag2_4
//  763   {
//  764     for(i=0; i<=(wstrlen(TagBook->UAutor2)-1); i++)
        MOV      R7,#+0
??DeleteTag2_5:
        LDR      R0,[R5, #+0]
        LDR      R0,[R0, #+264]
        SWI      +343
        SUB      R0,R0,#+1
        CMP      R0,R7
        BLT      ??DeleteTag2_3
//  765     {
//  766       TagBook->UAutor2[i]=0;
        LDR      R0,[R5, #+0]
        LDR      R0,[R0, #+264]
        ADD      R0,R0,R7, LSL #+1
        STRH     R6,[R0, #+0]
//  767     }
        ADD      R7,R7,#+1
        B        ??DeleteTag2_5
//  768   }
//  769   if(x==2)
??DeleteTag2_4:
        CMP      R4,#+2
        BNE      ??DeleteTag2_3
//  770   {
//  771     for(i=0; i<=(wstrlen(TagBook->UAlbum2)-1); i++)
        MOV      R7,#+0
        B        ??DeleteTag2_6
//  772     {
//  773       TagBook->UAlbum2[i]=0;
??DeleteTag2_7:
        LDR      R0,[R5, #+0]
        LDR      R0,[R0, #+256]
        ADD      R0,R0,R7, LSL #+1
        STRH     R6,[R0, #+0]
//  774     }
        ADD      R7,R7,#+1
??DeleteTag2_6:
        LDR      R0,[R5, #+0]
        LDR      R0,[R0, #+256]
        SWI      +343
        SUB      R0,R0,#+1
        CMP      R0,R7
        BGE      ??DeleteTag2_7
//  775   }
//  776   TagBook->change++;
??DeleteTag2_3:
        LDR      R0,[R5, #+0]
        LDR      R1,[R0, #+120]
        ADD      R1,R1,#+1
        STR      R1,[R0, #+120]
//  777   if(TagBook->MenuList2) GUIObject_Destroy(TagBook->MenuList2);
        LDR      R0,[R0, #+116]
        CMP      R0,#+0
        BEQ      ??DeleteTag2_8
        SWI      +462
//  778   CreateML2(x);
??DeleteTag2_8:
        MOV      R0,R4
        BL       ??CreateML2
//  779 }
        POP      {R4-R7,PC}       ;; return
        CFI EndBlock cfiBlock43

        RSEG CODE:CODE:NOROOT(2)
        CFI Block cfiBlock44 Using cfiCommon0
        CFI NoFunction
        THUMB
??ShowInfo??rT:
        BX       PC
        Nop      
        CFI EndBlock cfiBlock44
        REQUIRE ??ShowInfo
//  780 

        RSEG CODE:CODE:NOROOT(2)
        CFI Block cfiBlock45 Using cfiCommon1
        CFI Function ??ShowInfo
        ARM
//  781 int ShowInfo()
//  782 {
??ShowInfo:
        PUSH     {R4-R11,LR}
        CFI ?RET Frame(CFA, -4)
        CFI R11 Frame(CFA, -8)
        CFI R10 Frame(CFA, -12)
        CFI R9 Frame(CFA, -16)
        CFI R8 Frame(CFA, -20)
        CFI R7 Frame(CFA, -24)
        CFI R6 Frame(CFA, -28)
        CFI R5 Frame(CFA, -32)
        CFI R4 Frame(CFA, -36)
        CFI CFA R13+36
//  783   wchar_t * info_mp3=new wchar_t[wstrlen(TagBook->path)+1+wstrlen(TagBook->name)+1+wstrlen(TagBook->UTitle)+1+wstrlen(TagBook->UAutor)+1+wstrlen(TagBook->UAlbum)+1+wstrlen(TagBook->UYear)+1+wstrlen(TagBook->UComment)+1+strlen(GetGenre(TagBook->genre))+1+150+wstrlen(TagBook->UTitle2)+1+wstrlen(TagBook->UAutor2)+1+wstrlen(TagBook->UAlbum2)+100];
        LDR      R4,??DataTable73  ;; TagBook
        SUB      SP,SP,#+12
        CFI CFA R13+48
        LDR      R0,[R4, #+0]
        LDR      R0,[R0, #+244]
        SWI      +343
        STR      R0,[SP, #+0]
        LDR      R0,[R4, #+0]
        LDR      R0,[R0, #+240]
        SWI      +343
        STR      R0,[SP, #+4]
        LDR      R0,[R4, #+0]
        LDR      R0,[R0, #+284]
        SWI      +343
        STR      R0,[SP, #+8]
        LDR      R0,[R4, #+0]
        LDR      R0,[R0, #+260]
        SWI      +343
        MOV      R5,R0
        LDR      R0,[R4, #+0]
        LDR      R0,[R0, #+252]
        SWI      +343
        MOV      R6,R0
        LDR      R0,[R4, #+0]
        LDR      R0,[R0, #+292]
        SWI      +343
        MOV      R7,R0
        LDR      R0,[R4, #+0]
        LDR      R0,[R0, #+272]
        SWI      +343
        MOV      R8,R0
        LDR      R0,[R4, #+0]
        LDR      R0,[R0, #+124]
        BL       ??GetGenre
        SWI      +346
        MOV      R9,R0
        LDR      R0,[R4, #+0]
        LDR      R0,[R0, #+288]
        SWI      +343
        MOV      R10,R0
        LDR      R0,[R4, #+0]
        LDR      R0,[R0, #+264]
        SWI      +343
        MOV      R11,R0
        LDR      R0,[R4, #+0]
        LDR      R0,[R0, #+256]
        SWI      +343
        LDR      R1,[SP, #+0]
        LDR      R2,[SP, #+4]
        ADD      R1,R2,R1
        LDR      R2,[SP, #+8]
        ADD      R1,R2,R1
        ADD      R1,R5,R1
        ADD      R1,R6,R1
//  784   wstrcpy(info_mp3,INFO_FILENAME);
        LDR      R6,??DataTable50  ;; `?<Constant L"\\x41d\\x430\\x437\\x432\\x430\\x43d\\x4`
        ADD      R1,R7,R1
        ADD      R1,R8,R1
        ADD      R1,R9,R1
        ADD      R1,R10,R1
        ADD      R1,R11,R1
        ADD      R0,R0,R1
        ADD      R0,R0,#+260
        LSL      R0,R0,#+1
        _BLF     `??operator new[]`,`??operator new[]??rA`
        MOV      R5,R0
        ADD      R1,R6,#+24
        SWI      +338
//  785   wstrcat(info_mp3,TagBook->name);
        LDR      R0,[R4, #+0]
//  786   wstrcat(info_mp3,L"\n");
        ADR      R7,??ShowInfo_1  ;; 0x0A, 0x00, 0x00, 0x00
        LDR      R1,[R0, #+240]
        MOV      R0,R5
        SWI      +340
        MOV      R1,R7
        MOV      R0,R5
        SWI      +340
//  787   wstrcat(info_mp3,INFO_LOCALISATION);
        ADD      R1,R6,#+48
        MOV      R0,R5
        SWI      +340
//  788   wstrcat(info_mp3,TagBook->path);
        LDR      R0,[R4, #+0]
        LDR      R1,[R0, #+244]
        MOV      R0,R5
        SWI      +340
//  789   wstrcat(info_mp3,L"\n");
        MOV      R1,R7
        MOV      R0,R5
        SWI      +340
//  790   wstrcat(info_mp3,L"ID3v1:\n");
        ADD      R1,R6,#+80
        MOV      R0,R5
        SWI      +340
//  791   wstrcat(info_mp3,INFO_TITLE);
        MOV      R1,R6
        MOV      R0,R5
        SWI      +340
//  792   wstrcat(info_mp3,TagBook->UTitle);
        LDR      R0,[R4, #+0]
        LDR      R1,[R0, #+284]
        MOV      R0,R5
        SWI      +340
//  793   wstrcat(info_mp3,L"\n");
        MOV      R1,R7
        MOV      R0,R5
        SWI      +340
//  794   wstrcat(info_mp3,INFO_ARTIST);
        ADD      R1,R6,#+96
        MOV      R0,R5
        SWI      +340
//  795   wstrcat(info_mp3,TagBook->UAutor);
        LDR      R0,[R4, #+0]
        LDR      R1,[R0, #+260]
        MOV      R0,R5
        SWI      +340
//  796   wstrcat(info_mp3,L"\n");
        MOV      R1,R7
        MOV      R0,R5
        SWI      +340
//  797   wstrcat(info_mp3,INFO_ALBUM);
        ADD      R1,R6,#+124
        MOV      R0,R5
        SWI      +340
//  798   wstrcat(info_mp3,TagBook->UAlbum);
        LDR      R0,[R4, #+0]
        LDR      R1,[R0, #+252]
        MOV      R0,R5
        SWI      +340
//  799   wstrcat(info_mp3,L"\n");
        MOV      R1,R7
        MOV      R0,R5
        SWI      +340
//  800   wstrcat(info_mp3,INFO_YEAR);
        ADD      R1,R6,#+144
        MOV      R0,R5
        SWI      +340
//  801   wstrcat(info_mp3,TagBook->UYear);
        LDR      R0,[R4, #+0]
        LDR      R1,[R0, #+292]
        MOV      R0,R5
        SWI      +340
//  802   wstrcat(info_mp3,L"\n");
        MOV      R1,R7
        MOV      R0,R5
        SWI      +340
//  803   wstrcat(info_mp3,INFO_COMMENT);
        ADD      R1,R6,#+156
        MOV      R0,R5
        SWI      +340
//  804   wstrcat(info_mp3,TagBook->UComment);
        LDR      R0,[R4, #+0]
        LDR      R1,[R0, #+272]
        MOV      R0,R5
        SWI      +340
//  805   wstrcat(info_mp3,L"\n");
        MOV      R1,R7
        MOV      R0,R5
        SWI      +340
//  806   wstrcat(info_mp3,INFO_GENRE);  
        ADD      R1,R6,#+184
        MOV      R0,R5
        SWI      +340
//  807   wchar_t*Gen=new wchar_t[strlen(GetGenre(TagBook->genre))+1];
        LDR      R0,[R4, #+0]
        LDR      R0,[R0, #+124]
        BL       ??GetGenre
        SWI      +346
        ADD      R0,R0,#+1
        LSL      R0,R0,#+1
        _BLF     `??operator new[]`,`??operator new[]??rA`
        MOV      R8,R0
//  808   win12512unicode(Gen,GetGenre(TagBook->genre),strlen(GetGenre(TagBook->genre)));
        LDR      R0,[R4, #+0]
        LDR      R0,[R0, #+124]
        BL       ??GetGenre
        SWI      +346
        MOV      R9,R0
        LDR      R0,[R4, #+0]
        LDR      R0,[R0, #+124]
        BL       ??GetGenre
        MOV      R1,R0
        MOV      R2,R9
        MOV      R0,R8
        BL       ??win12512unicode
//  809   wstrcat(info_mp3,Gen);
        MOV      R1,R8
        MOV      R0,R5
        SWI      +340
//  810   wstrcat(info_mp3,L"\n");
        MOV      R1,R7
        MOV      R0,R5
        SWI      +340
//  811   wstrcat(info_mp3,L"ID3v2:\n");
        ADD      R1,R6,#+200
        MOV      R0,R5
        SWI      +340
//  812   wstrcat(info_mp3,INFO_TITLE);
        MOV      R1,R6
        MOV      R0,R5
        SWI      +340
//  813   wstrcat(info_mp3,TagBook->UTitle2);
        LDR      R0,[R4, #+0]
        LDR      R1,[R0, #+288]
        MOV      R0,R5
        SWI      +340
//  814   wstrcat(info_mp3,L"\n");
        MOV      R1,R7
        MOV      R0,R5
        SWI      +340
//  815   wstrcat(info_mp3,INFO_ARTIST);
        ADD      R1,R6,#+96
        MOV      R0,R5
        SWI      +340
//  816   wstrcat(info_mp3,TagBook->UAutor2);
        LDR      R0,[R4, #+0]
        LDR      R1,[R0, #+264]
        MOV      R0,R5
        SWI      +340
//  817   wstrcat(info_mp3,L"\n");
        MOV      R1,R7
        MOV      R0,R5
        SWI      +340
//  818   wstrcat(info_mp3,INFO_ALBUM);
        ADD      R1,R6,#+124
        MOV      R0,R5
        SWI      +340
//  819   wstrcat(info_mp3,TagBook->UAlbum2);
        LDR      R0,[R4, #+0]
//  820   wstrcat(info_mp3,L"\n");
//  821   MessageBox(TextID_Create(INFO_TEXT,ENC_UCS2,TEXTID_ANY_LEN),TextID_Create(info_mp3,ENC_UCS2,TEXTID_ANY_LEN), NOIMAGE, 2 ,0,0);
        MOV      R4,#+255
        LDR      R1,[R0, #+256]
        MOV      R0,R5
        SWI      +340
        MOV      R1,R7
        MOV      R0,R5
        SWI      +340
        ORR      R4,R4,#0xFF00
        MOV      R2,R4
        MOV      R1,#+0
        MOV      R0,R5
        SWI      +349
        MOV      R7,R0
        MOV      R2,R4
        MOV      R1,#+0
        ADD      R0,R6,#+216
        SWI      +349
        MOV      R1,#+0
        PUSH     {R1}
        CFI CFA R13+52
        PUSH     {R1}
        CFI CFA R13+56
        MOV      R3,#+2
        MOV      R2,R4
        MOV      R1,R7
        SWI      +599
//  822   delete info_mp3;
        MOV      R0,R5
        _BLF     `??operator delete`,`??operator delete??rA`
//  823   delete Gen;
        MOV      R0,R8
        _BLF     `??operator delete`,`??operator delete??rA`
//  824   return 1;
        MOV      R0,#+1
        ADD      SP,SP,#+20
        CFI CFA R13+36
        POP      {R4-R11,PC}      ;; return
        DATA
??ShowInfo_1:
        DC8      0x0A, 0x00, 0x00, 0x00
        CFI EndBlock cfiBlock45
//  825 }

        RSEG CODE:CODE:NOROOT(2)
        DATA
??DataTable50:
        DC32     `?<Constant L"\\x41d\\x430\\x437\\x432\\x430\\x43d\\x4`

        RSEG CODE:CODE:NOROOT(2)
        CFI Block cfiBlock46 Using cfiCommon0
        CFI NoFunction
        THUMB
??CopyFromName2??rT:
        BX       PC
        Nop      
        CFI EndBlock cfiBlock46
        REQUIRE ??CopyFromName2
//  826 

        RSEG CODE:CODE:NOROOT(2)
        CFI Block cfiBlock47 Using cfiCommon1
        CFI Function ??CopyFromName2
        ARM
//  827 void CopyFromName2(int x)
//  828 {
??CopyFromName2:
        PUSH     {R4,R5,LR}
        CFI ?RET Frame(CFA, -4)
        CFI R5 Frame(CFA, -8)
        CFI R4 Frame(CFA, -12)
        CFI CFA R13+12
//  829   int i;
//  830   if(x==0)
        LDR      R5,??DataTable73  ;; TagBook
        MOVS     R4,R0
        LDR      R0,[R5, #+0]
        LDR      R0,[R0, #+240]
        BNE      ??CopyFromName2_1
//  831   {
//  832     if(wstrlen(TagBook->name)<=0xff)
        SWI      +343
        CMP      R0,#+256
        BGE      ??CopyFromName2_2
//  833     {
//  834       TagBook->UTitle2=new wchar_t[wstrlen(TagBook->name)+1];
        LDR      R0,[R5, #+0]
        LDR      R0,[R0, #+240]
        SWI      +343
        ADD      R0,R0,#+1
        LSL      R0,R0,#+1
        _BLF     `??operator new[]`,`??operator new[]??rA`
        LDR      R2,[R5, #+0]
        STR      R0,[R2, #+288]
//  835       wstrcpy(TagBook->UTitle2, TagBook->name);
??CopyFromName2_3:
        LDR      R1,[R2, #+240]
        SWI      +338
        B        ??CopyFromName2_4
//  836     }
//  837     else
//  838     {
//  839       TagBook->UTitle2=new wchar_t[255+1];
??CopyFromName2_2:
        MOV      R0,#+512
        _BLF     `??operator new[]`,`??operator new[]??rA`
        LDR      R1,[R5, #+0]
        STR      R0,[R1, #+288]
//  840       for(i=0; i<=255; i++)
        MOV      R0,#+0
//  841       {
//  842         TagBook->UTitle2[i]=TagBook->name[i];
??CopyFromName2_5:
        LDR      R3,[R1, #+240]
        LDR      R2,[R1, #+288]
        ADD      R3,R3,R0, LSL #+1
        LDRH     R3,[R3, #+0]
        ADD      R2,R2,R0, LSL #+1
//  843       }
        ADD      R0,R0,#+1
        STRH     R3,[R2, #+0]
        CMP      R0,#+256
        BGE      ??CopyFromName2_4
        B        ??CopyFromName2_5
//  844     }      
//  845   }
//  846   if(x==1)
??CopyFromName2_1:
        CMP      R4,#+1
        BNE      ??CopyFromName2_6
//  847   {
//  848     if(wstrlen(TagBook->name)<=0xff)
        SWI      +343
        CMP      R0,#+256
        BGE      ??CopyFromName2_7
//  849     {
//  850       TagBook->UAutor2=new wchar_t[wstrlen(TagBook->name)+1];
        LDR      R0,[R5, #+0]
        LDR      R0,[R0, #+240]
        SWI      +343
        ADD      R0,R0,#+1
        LSL      R0,R0,#+1
        _BLF     `??operator new[]`,`??operator new[]??rA`
        LDR      R2,[R5, #+0]
        STR      R0,[R2, #+264]
//  851       wstrcpy(TagBook->UAutor2, TagBook->name);
        B        ??CopyFromName2_3
//  852     }
//  853     else
//  854     {
//  855       TagBook->UAutor2=new wchar_t[255+1];
??CopyFromName2_7:
        MOV      R0,#+512
        _BLF     `??operator new[]`,`??operator new[]??rA`
        LDR      R1,[R5, #+0]
        STR      R0,[R1, #+264]
//  856       for(i=0; i<=255; i++)
        MOV      R0,#+0
//  857       {
//  858         TagBook->UAutor2[i]=TagBook->name[i];
??CopyFromName2_8:
        LDR      R3,[R1, #+240]
        LDR      R2,[R1, #+264]
        ADD      R3,R3,R0, LSL #+1
        LDRH     R3,[R3, #+0]
        ADD      R2,R2,R0, LSL #+1
//  859       }
        ADD      R0,R0,#+1
        STRH     R3,[R2, #+0]
        CMP      R0,#+256
        BGE      ??CopyFromName2_4
        B        ??CopyFromName2_8
//  860     }
//  861   }
//  862   if(x==2)
??CopyFromName2_6:
        CMP      R4,#+2
        BNE      ??CopyFromName2_4
//  863   {
//  864     if(wstrlen(TagBook->name)<=0xff)
        SWI      +343
        CMP      R0,#+256
        BGE      ??CopyFromName2_9
//  865     {
//  866       TagBook->UAlbum2=new wchar_t[wstrlen(TagBook->name)+1];
        LDR      R0,[R5, #+0]
        LDR      R0,[R0, #+240]
        SWI      +343
        ADD      R0,R0,#+1
        LSL      R0,R0,#+1
        _BLF     `??operator new[]`,`??operator new[]??rA`
        LDR      R2,[R5, #+0]
        STR      R0,[R2, #+256]
//  867       wstrcpy(TagBook->UAlbum2, TagBook->name);
        B        ??CopyFromName2_3
//  868     }
//  869     else
//  870     {
//  871       TagBook->UAlbum2=new wchar_t[255+1];
??CopyFromName2_9:
        MOV      R0,#+512
        _BLF     `??operator new[]`,`??operator new[]??rA`
        LDR      R1,[R5, #+0]
        STR      R0,[R1, #+256]
//  872       for(i=0; i<=255; i++)
        MOV      R0,#+0
//  873       {
//  874         TagBook->UAlbum2[i]=TagBook->name[i];
??CopyFromName2_10:
        LDR      R3,[R1, #+240]
        LDR      R2,[R1, #+256]
        ADD      R3,R3,R0, LSL #+1
        LDRH     R3,[R3, #+0]
        ADD      R2,R2,R0, LSL #+1
//  875       }
        ADD      R0,R0,#+1
        STRH     R3,[R2, #+0]
        CMP      R0,#+256
        BLT      ??CopyFromName2_10
//  876     }
//  877   }
//  878   TagBook->change++;
??CopyFromName2_4:
        LDR      R0,[R5, #+0]
        LDR      R1,[R0, #+120]
        ADD      R1,R1,#+1
        STR      R1,[R0, #+120]
//  879   if(TagBook->MenuList2) GUIObject_Destroy(TagBook->MenuList2);
        LDR      R0,[R0, #+116]
        CMP      R0,#+0
        BEQ      ??CopyFromName2_11
        SWI      +462
//  880   CreateML2(x);
??CopyFromName2_11:
        MOV      R0,R4
        BL       ??CreateML2
//  881 }
        POP      {R4,R5,PC}       ;; return
        CFI EndBlock cfiBlock47

        RSEG CODE:CODE:NOROOT(2)
        CFI Block cfiBlock48 Using cfiCommon0
        CFI NoFunction
        THUMB
??CopyFromID3v1??rT:
        BX       PC
        Nop      
        CFI EndBlock cfiBlock48
        REQUIRE ??CopyFromID3v1
//  882 

        RSEG CODE:CODE:NOROOT(2)
        CFI Block cfiBlock49 Using cfiCommon1
        CFI Function ??CopyFromID3v1
        ARM
//  883 void CopyFromID3v1(int x)
//  884 {
??CopyFromID3v1:
        PUSH     {R4,R5,LR}
        CFI ?RET Frame(CFA, -4)
        CFI R5 Frame(CFA, -8)
        CFI R4 Frame(CFA, -12)
        CFI CFA R13+12
//  885   int i;
//  886   if(x==0)
        LDR      R5,??DataTable73  ;; TagBook
        MOVS     R4,R0
        BNE      ??CopyFromID3v1_1
//  887   {
//  888     TagBook->UTitle2=new wchar_t[31];
        MOV      R0,#+62
        _BLF     `??operator new[]`,`??operator new[]??rA`
        LDR      R1,[R5, #+0]
        STR      R0,[R1, #+288]
//  889     for(i=0; i<=29; i++)
        MOV      R0,#+0
//  890     {
//  891       TagBook->UTitle2[i]=TagBook->UTitle[i];
??CopyFromID3v1_2:
        LDR      R3,[R1, #+284]
        LDR      R2,[R1, #+288]
        ADD      R3,R3,R0, LSL #+1
        LDRH     R3,[R3, #+0]
        ADD      R2,R2,R0, LSL #+1
//  892     }
        ADD      R0,R0,#+1
        STRH     R3,[R2, #+0]
        CMP      R0,#+30
        BGE      ??CopyFromID3v1_3
        B        ??CopyFromID3v1_2
//  893   }
//  894   if(x==1)
??CopyFromID3v1_1:
        CMP      R4,#+1
        BNE      ??CopyFromID3v1_4
//  895   {
//  896     TagBook->UAutor2=new wchar_t[31];
        MOV      R0,#+62
        _BLF     `??operator new[]`,`??operator new[]??rA`
        LDR      R1,[R5, #+0]
        STR      R0,[R1, #+264]
//  897     for(i=0; i<=29; i++)
        MOV      R0,#+0
//  898     {
//  899       TagBook->UAutor2[i]=TagBook->UAutor[i];
??CopyFromID3v1_5:
        LDR      R3,[R1, #+260]
        LDR      R2,[R1, #+264]
        ADD      R3,R3,R0, LSL #+1
        LDRH     R3,[R3, #+0]
        ADD      R2,R2,R0, LSL #+1
//  900     }
        ADD      R0,R0,#+1
        STRH     R3,[R2, #+0]
        CMP      R0,#+30
        BGE      ??CopyFromID3v1_3
        B        ??CopyFromID3v1_5
//  901   }
//  902   if(x==2)
??CopyFromID3v1_4:
        CMP      R4,#+2
        BNE      ??CopyFromID3v1_3
//  903   {
//  904     TagBook->UAlbum2=new wchar_t[31];
        MOV      R0,#+62
        _BLF     `??operator new[]`,`??operator new[]??rA`
        LDR      R1,[R5, #+0]
        STR      R0,[R1, #+256]
//  905     for(i=0; i<=29; i++)
        MOV      R0,#+0
//  906     {
//  907       TagBook->UAlbum2[i]=TagBook->UAlbum[i];
??CopyFromID3v1_6:
        LDR      R3,[R1, #+252]
        LDR      R2,[R1, #+256]
        ADD      R3,R3,R0, LSL #+1
        LDRH     R3,[R3, #+0]
        ADD      R2,R2,R0, LSL #+1
//  908     }
        ADD      R0,R0,#+1
        STRH     R3,[R2, #+0]
        CMP      R0,#+30
        BLT      ??CopyFromID3v1_6
//  909   }
//  910   TagBook->change++;
??CopyFromID3v1_3:
        LDR      R0,[R5, #+0]
        LDR      R1,[R0, #+120]
        ADD      R1,R1,#+1
        STR      R1,[R0, #+120]
//  911   if(TagBook->MenuList2) GUIObject_Destroy(TagBook->MenuList2);
        LDR      R0,[R0, #+116]
        CMP      R0,#+0
        BEQ      ??CopyFromID3v1_7
        SWI      +462
//  912   CreateML2(x);
??CopyFromID3v1_7:
        MOV      R0,R4
        BL       ??CreateML2
//  913 }
        POP      {R4,R5,PC}       ;; return
        CFI EndBlock cfiBlock49

        RSEG CODE:CODE:NOROOT(2)
        CFI Block cfiBlock50 Using cfiCommon0
        CFI NoFunction
        THUMB
??NewKey2??rT:
        BX       PC
        Nop      
        CFI EndBlock cfiBlock50
        REQUIRE ??NewKey2
//  914   

        RSEG CODE:CODE:NOROOT(2)
        CFI Block cfiBlock51 Using cfiCommon1
        CFI Function ??NewKey2
        ARM
//  915 void NewKey2(DISP_OBJ * p, int i1, int i2, int i3, int i4)
//  916 {
??NewKey2:
        PUSH     {R4-R8,LR}
        CFI ?RET Frame(CFA, -4)
        CFI R8 Frame(CFA, -8)
        CFI R7 Frame(CFA, -12)
        CFI R6 Frame(CFA, -16)
        CFI R5 Frame(CFA, -20)
        CFI R4 Frame(CFA, -24)
        CFI CFA R13+24
        LDR      R5,[SP, #+24]
//  917   TagBook->OldKey2(p, i1, i2, i3, i4);
        LDR      R6,??DataTable73  ;; TagBook
        MOV      R4,R1
        MOV      R1,R5
        PUSH     {R1}
        CFI CFA R13+28
        LDR      R7,[R6, #+0]
        MOV      R1,R4
        LDR      R7,[R7, #+236]
        BLX      R7
//  918   if(i4==KBD_SHORT_RELEASE && i1==KEY_DEL)
        LDR      R0,??DataTable54  ;; KEY_DIGITAL_0
        LDR      R8,[R0, #+0]
        LDR      R0,??DataTable55  ;; KBD_SHORT_RELEASE
        ADD      R7,R8,#+11
        LDR      R0,[R0, #+0]
        ADD      SP,SP,#+4
        CFI CFA R13+24
        CMP      R5,R0
        BNE      ??NewKey2_1
        LDR      R0,??DataTable56  ;; KEY_DEL
        LDR      R0,[R0, #+0]
        CMP      R4,R0
        BNE      ??NewKey2_2
//  919   {
//  920     int sel=ListMenu_GetSelectedItem(TagBook->MenuList2);
        LDR      R0,[R6, #+0]
        LDR      R0,[R0, #+116]
        SWI      +318
//  921     if(sel<=2)
        CMP      R0,#+3
        BGE      ??NewKey2_2
//  922     {
//  923       DeleteTag2(sel);
        BL       ??DeleteTag2
??NewKey2_2:
        CMP      R4,R8
        BNE      ??NewKey2_3
//  924     }
//  925   }
//  926   if(i4==KBD_SHORT_RELEASE && i1==KEY_DIGITAL_0)
//  927   {
//  928     PlayF2((BOOK*)TagBook,0);
        LDR      R0,[R6, #+0]
        MOV      R1,#+0
        BL       ??PlayF2
??NewKey2_3:
        ADD      R0,R8,#+1
        CMP      R4,R0
        BNE      ??NewKey2_4
//  929   }
//  930   if(i4==KBD_SHORT_RELEASE && i1==(KEY_DIGITAL_0+1))
//  931   {
//  932     InputTitleF2();
        BL       ??InputTitleF2
??NewKey2_4:
        ADD      R0,R8,#+2
        CMP      R4,R0
        BNE      ??NewKey2_5
//  933   }
//  934   if(i4==KBD_SHORT_RELEASE && i1==(KEY_DIGITAL_0+2))
//  935   {
//  936     InputAutorF2();
        BL       ??InputAutorF2
??NewKey2_5:
        ADD      R0,R8,#+3
        CMP      R4,R0
        BNE      ??NewKey2_6
//  937   }
//  938   if(i4==KBD_SHORT_RELEASE && i1==(KEY_DIGITAL_0+3))
//  939   {
//  940     InputAlbumF2();
        BL       ??InputAlbumF2
??NewKey2_6:
        ADD      R0,R8,#+10
        CMP      R4,R0
        BNE      ??NewKey2_7
//  941   }
//  942   if(i4==KBD_SHORT_RELEASE && i1==(KEY_DIGITAL_0+10))
//  943   {
//  944     ShowInfo();
        BL       ??ShowInfo
??NewKey2_7:
        CMP      R4,R7
        BNE      ??NewKey2_1
//  945   }
//  946   if(i4==KBD_SHORT_RELEASE && i1==(KEY_DIGITAL_0+11))
//  947   {
//  948     CopyFromID3v1(ListMenu_GetSelectedItem(TagBook->MenuList2));
        LDR      R0,[R6, #+0]
        LDR      R0,[R0, #+116]
        SWI      +318
        BL       ??CopyFromID3v1
//  949   }
//  950   if(i4==KBD_LONG_PRESS && i1==(KEY_DIGITAL_0+11))
??NewKey2_1:
        LDR      R0,??DataTable57  ;; KBD_LONG_PRESS
        LDR      R0,[R0, #+0]
        CMP      R5,R0
        CMPEQ    R4,R7
        POPNE    {R4-R8,PC}
//  951   {
//  952     CopyFromName2(ListMenu_GetSelectedItem(TagBook->MenuList2));
        LDR      R0,[R6, #+0]
        LDR      R0,[R0, #+116]
        SWI      +318
        BL       ??CopyFromName2
//  953   }
//  954 }
        POP      {R4-R8,PC}       ;; return
        CFI EndBlock cfiBlock51

        RSEG CODE:CODE:NOROOT(2)
        DATA
??DataTable54:
        DC32     KEY_DIGITAL_0

        RSEG CODE:CODE:NOROOT(2)
        DATA
??DataTable55:
        DC32     KBD_SHORT_RELEASE

        RSEG CODE:CODE:NOROOT(2)
        DATA
??DataTable56:
        DC32     KEY_DEL

        RSEG CODE:CODE:NOROOT(2)
        DATA
??DataTable57:
        DC32     KBD_LONG_PRESS

        RSEG CODE:CODE:NOROOT(2)
        CFI Block cfiBlock52 Using cfiCommon0
        CFI NoFunction
        THUMB
??CreateML2??rT:
        BX       PC
        Nop      
        CFI EndBlock cfiBlock52
        REQUIRE ??CreateML2
//  955 

        RSEG CODE:CODE:NOROOT(2)
        CFI Block cfiBlock53 Using cfiCommon1
        CFI Function ??CreateML2
        ARM
//  956 void CreateML2(int x)
//  957 {
??CreateML2:
        PUSH     {R4-R7,LR}
        CFI ?RET Frame(CFA, -4)
        CFI R7 Frame(CFA, -8)
        CFI R6 Frame(CFA, -12)
        CFI R5 Frame(CFA, -16)
        CFI R4 Frame(CFA, -20)
        CFI CFA R13+20
//  958   GUI_LIST*MList2=CreateListMenu((BOOK*)TagBook,0);
        LDR      R5,??DataTable73  ;; TagBook
        MOV      R6,R0
        LDR      R0,[R5, #+0]
        MOV      R1,#+0
        SWI      +448
        MOV      R4,R0
//  959   TagBook->MenuList2=MList2;
        LDR      R0,[R5, #+0]
//  960   GUIObject_SetTitleText(MList2, TextID_Create(NAME_EDIT2,ENC_UCS2,TEXTID_ANY_LEN));
        MOV      R7,#+255
        STR      R4,[R0, #+116]
        LDR      R0,??CreateML2_1  ;; `?<Constant L"\\x49\\x44\\x33\\x76\\x31">` + 36
        ORR      R7,R7,#0xFF00
        MOV      R2,R7
        MOV      R1,#+0
        SWI      +349
        MOV      R1,R0
        MOV      R0,R4
        SWI      +307
//  961   ListMenu_SetItemCount(MList2, 3);
        MOV      R1,#+3
        MOV      R0,R4
        SWI      +449
//  962   OneOfMany_SetOnMessage(MList2,SetTitleML2);
        LDR      R1,??CreateML2_1+0x4  ;; ??SetTitleML2
        MOV      R0,R4
        SWI      +481
//  963   ListMenu_SetCursorToItem(MList2,x);
        MOV      R1,R6
//  964   ListMenu_SetItemStyle(MList2,3);
//  965   GUIObject_SoftKeys_SetAction(MList2,ACTION_BACK,ExitML2);
        LDR      R6,??CreateML2_1+0x8  ;; ??ExitML2
        MOV      R0,R4
        SWI      +309
        MOV      R1,#+3
        MOV      R0,R4
        SWI      +319
        LDR      R0,??DataTable65  ;; ACTION_BACK
        MOV      R2,R6
        LDR      R1,[R0, #+0]
        MOV      R0,R4
        MOV      R1,R1, LSL #+16
        MOV      R1,R1, LSR #+16
        SWI      +331
//  966   GUIObject_SoftKeys_SetAction(MList2,ACTION_LONG_BACK,ExitML2);
        LDR      R0,??DataTable66  ;; ACTION_LONG_BACK
        MOV      R2,R6
        LDR      R1,[R0, #+0]
        MOV      R0,R4
        MOV      R1,R1, LSL #+16
        MOV      R1,R1, LSR #+16
        SWI      +331
//  967   GUIObject_SoftKeys_SetAction(MList2,ACTION_SELECT1,OnEntML2);	
        LDR      R0,??DataTable67  ;; ACTION_SELECT1
        LDR      R2,??CreateML2_1+0xC  ;; ??OnEntML2
        LDR      R1,[R0, #+0]
        MOV      R0,R4
        MOV      R1,R1, LSL #+16
        MOV      R1,R1, LSR #+16
        SWI      +331
//  968   GUIObject_SoftKeys_SetAction(MList2,1,PlayF2);
        LDR      R2,??CreateML2_1+0x10  ;; ??PlayF2
        MOV      R1,#+1
        MOV      R0,R4
        SWI      +331
//  969   GUIObject_SoftKeys_SetText(MList2,1,TextID_Create(TagBook->PlayText,ENC_UCS2,TEXTID_ANY_LEN));
        LDR      R0,[R5, #+0]
        MOV      R2,R7
        MOV      R1,#+0
        ADD      R0,R0,#+296
        SWI      +349
        MOV      R2,R0
        MOV      R1,#+1
        MOV      R0,R4
        SWI      +332
//  970   TagBook->OldKey2 = DispObject_GetOnKey( GUIObject_GetDispObject(MList2) );
        MOV      R0,R4
        SWI      +360
        SWI      +555
        LDR      R1,[R5, #+0]
        STR      R0,[R1, #+236]
//  971   DISP_DESC_SetOnKey( DispObject_GetDESC ( GUIObject_GetDispObject(MList2) ), NewKey2);
        MOV      R0,R4
        SWI      +360
        SWI      +543
        LDR      R1,??CreateML2_1+0x14  ;; ??NewKey2
        SWI      +554
//  972   GUIObject_Show(MList2);
        MOV      R0,R4
        SWI      +308
//  973 }
        POP      {R4-R7,PC}       ;; return
        DATA
??CreateML2_1:
        DC32     `?<Constant L"\\x49\\x44\\x33\\x76\\x31">` + 36
        DC32     ??SetTitleML2
        DC32     ??ExitML2
        DC32     ??OnEntML2
        DC32     ??PlayF2
        DC32     ??NewKey2
        CFI EndBlock cfiBlock53

        RSEG CODE:CODE:NOROOT(2)
        CFI Block cfiBlock54 Using cfiCommon0
        CFI NoFunction
        THUMB
??ExitMG??rT:
        BX       PC
        Nop      
        CFI EndBlock cfiBlock54
        REQUIRE ??ExitMG
//  974 

        RSEG CODE:CODE:NOROOT(2)
        CFI Block cfiBlock55 Using cfiCommon1
        CFI Function ??ExitMG
        ARM
//  975 void ExitMG( BOOK*, GUI* )
//  976 {
??ExitMG:
        PUSH     {R4,LR}
        CFI ?RET Frame(CFA, -4)
        CFI R4 Frame(CFA, -8)
        CFI CFA R13+8
//  977   GUIObject_Destroy(TagBook->GList);
        LDR      R4,??DataTable73  ;; TagBook
        LDR      R0,[R4, #+0]
        LDR      R0,[R0, #+108]
        SWI      +462
//  978   TagBook->GList=0;
        LDR      R0,[R4, #+0]
        MOV      R1,#+0
        STR      R1,[R0, #+108]
//  979   GUIObject_Show(TagBook->MenuList1);
        LDR      R0,[R0, #+112]
        SWI      +308
//  980 }
        POP      {R4,PC}          ;; return
        CFI EndBlock cfiBlock55

        RSEG CODE:CODE:NOROOT(2)
        CFI Block cfiBlock56 Using cfiCommon0
        CFI NoFunction
        THUMB
??OnEntMG??rT:
        BX       PC
        Nop      
        CFI EndBlock cfiBlock56
        REQUIRE ??OnEntMG
//  981 

        RSEG CODE:CODE:NOROOT(2)
        CFI Block cfiBlock57 Using cfiCommon1
        CFI Function ??OnEntMG
        ARM
//  982 void OnEntMG( BOOK* bk, GUI* )
//  983 {
??OnEntMG:
        PUSH     {R4,R5,LR}
        CFI ?RET Frame(CFA, -4)
        CFI R5 Frame(CFA, -8)
        CFI R4 Frame(CFA, -12)
        CFI CFA R13+12
//  984   int item=ListMenu_GetSelectedItem(TagBook->GList);
        LDR      R5,??DataTable73  ;; TagBook
        MOV      R4,R0
        LDR      R0,[R5, #+0]
        LDR      R0,[R0, #+108]
        SWI      +318
//  985   for(int i=0;i<=147;i++)
        MOV      R1,#+0
//  986   {
//  987     if(item==i)
??OnEntMG_1:
        LDR      R2,[R5, #+0]
        CMP      R0,R1
//  988     {
//  989       TagBook->genre=i;
        STREQ    R1,[R2, #+124]
//  990     }
//  991   }
        ADD      R1,R1,#+1
        CMP      R1,#+148
        BLT      ??OnEntMG_1
//  992   TagBook->change++;
        LDR      R0,[R2, #+120]
//  993   ExitMG(bk,0);
        MOV      R1,#+0
        ADD      R0,R0,#+1
        STR      R0,[R2, #+120]
        MOV      R0,R4
        POP      {R4,R5,LR}       ;; Pop
        CFI R4 SameValue
        CFI R5 SameValue
        CFI ?RET R14
        CFI CFA R13+0
        B        ??ExitMG         ;; tailcall
        CFI EndBlock cfiBlock57
//  994 }

        RSEG CODE:CODE:NOROOT(2)
        CFI Block cfiBlock58 Using cfiCommon0
        CFI NoFunction
        THUMB
??SetTitlePunktsMG??rT:
        BX       PC
        Nop      
        CFI EndBlock cfiBlock58
        REQUIRE ??SetTitlePunktsMG
//  995 

        RSEG CODE:CODE:NOROOT(2)
        CFI Block cfiBlock59 Using cfiCommon1
        CFI Function ??SetTitlePunktsMG
        ARM
//  996 int SetTitlePunktsMG(GUI_MESSAGE * msg)
//  997 {
??SetTitlePunktsMG:
        PUSH     {R4-R8,LR}
        CFI ?RET Frame(CFA, -4)
        CFI R8 Frame(CFA, -8)
        CFI R7 Frame(CFA, -12)
        CFI R6 Frame(CFA, -16)
        CFI R5 Frame(CFA, -20)
        CFI R4 Frame(CFA, -24)
        CFI CFA R13+24
        MOV      R4,R0
//  998   int item;
//  999   switch( GUIonMessage_GetMsg(msg) )
        SWI      +884
        CMP      R0,#+1
        BNE      ??SetTitlePunktsMG_1
// 1000   {
// 1001     case 1:
// 1002       item=GUIonMessage_GetCreatedItemIndex(msg);
        MOV      R0,R4
        SWI      +311
        MOV      R5,R0
// 1003       for(int i=0; i<=147; i++)
        MOV      R6,#+0
// 1004       {
// 1005         if(item==i)
??SetTitlePunktsMG_2:
        CMP      R5,R6
        BNE      ??SetTitlePunktsMG_3
// 1006         {
// 1007           wchar_t * Genre=new wchar_t[strlen(GetGenre(i))+1];
        MOV      R0,R6
        BL       ??GetGenre
        SWI      +346
        ADD      R0,R0,#+1
        LSL      R0,R0,#+1
        _BLF     `??operator new[]`,`??operator new[]??rA`
        MOV      R7,R0
// 1008           win12512unicode(Genre,GetGenre(i),strlen(GetGenre(i))+1);
        MOV      R0,R6
        BL       ??GetGenre
        SWI      +346
        MOV      R8,R0
        MOV      R0,R6
        BL       ??GetGenre
        MOV      R1,R0
        ADD      R2,R8,#+1
        MOV      R0,R7
        BL       ??win12512unicode
// 1009           GUIonMessage_SetMenuItemText(msg,TextID_Create(Genre,ENC_UCS2,TEXTID_ANY_LEN));
        MOV      R2,#+255
        ORR      R2,R2,#0xFF00
        MOV      R1,#+0
        MOV      R0,R7
        SWI      +349
        MOV      R1,R0
        MOV      R0,R4
        SWI      +312
// 1010           delete Genre;
        MOV      R0,R7
        _BLF     `??operator delete`,`??operator delete??rA`
// 1011         }
// 1012       }
??SetTitlePunktsMG_3:
        ADD      R6,R6,#+1
        CMP      R6,#+148
        BLT      ??SetTitlePunktsMG_2
// 1013   }
// 1014   return(1);
??SetTitlePunktsMG_1:
        MOV      R0,#+1
        POP      {R4-R8,PC}       ;; return
        CFI EndBlock cfiBlock59
// 1015 }

        RSEG CODE:CODE:NOROOT(2)
        CFI Block cfiBlock60 Using cfiCommon0
        CFI NoFunction
        THUMB
??MGList??rT:
        BX       PC
        Nop      
        CFI EndBlock cfiBlock60
        REQUIRE ??MGList
// 1016       

        RSEG CODE:CODE:NOROOT(2)
        CFI Block cfiBlock61 Using cfiCommon1
        CFI Function ??MGList
        ARM
// 1017 int MGList()
// 1018 {
??MGList:
        PUSH     {R4,R5,LR}
        CFI ?RET Frame(CFA, -4)
        CFI R5 Frame(CFA, -8)
        CFI R4 Frame(CFA, -12)
        CFI CFA R13+12
// 1019   GUI_LIST*MGList=CreateListMenu((BOOK*)TagBook,0);
        LDR      R4,??DataTable73  ;; TagBook
        MOV      R1,#+0
        LDR      R0,[R4, #+0]
        SWI      +448
        MOV      R5,R0
// 1020   TagBook->GList=MGList;
        LDR      R0,[R4, #+0]
// 1021   GUIObject_SetTitleText(MGList, TextID_Create(NAME_GENRE,ENC_UCS2,TEXTID_ANY_LEN));
        MOV      R2,#+255
        STR      R5,[R0, #+108]
        LDR      R0,??MGList_1    ;; `?<Constant L"\\x412\\x44b\\x431\\x2e\\x20\\x436\\x430`
        ORR      R2,R2,#0xFF00
        MOV      R1,#+0
        SWI      +349
        MOV      R1,R0
        MOV      R0,R5
        SWI      +307
// 1022   ListMenu_SetItemCount(MGList, 148);
        MOV      R1,#+148
        MOV      R0,R5
        SWI      +449
// 1023   OneOfMany_SetOnMessage(MGList,SetTitlePunktsMG);
        LDR      R1,??MGList_1+0x4  ;; ??SetTitlePunktsMG
        MOV      R0,R5
        SWI      +481
// 1024   ListMenu_SetCursorToItem(MGList,TagBook->genre);
        LDR      R0,[R4, #+0]
// 1025   GUIObject_SoftKeys_SetAction(MGList,ACTION_BACK,ExitMG);
        LDR      R4,??MGList_1+0x8  ;; ??ExitMG
        LDR      R1,[R0, #+124]
        MOV      R0,R5
        SWI      +309
        LDR      R0,??DataTable65  ;; ACTION_BACK
        MOV      R2,R4
        LDR      R1,[R0, #+0]
        MOV      R0,R5
        MOV      R1,R1, LSL #+16
        MOV      R1,R1, LSR #+16
        SWI      +331
// 1026   GUIObject_SoftKeys_SetAction(MGList,ACTION_LONG_BACK,ExitMG);
        LDR      R0,??DataTable66  ;; ACTION_LONG_BACK
        MOV      R2,R4
        LDR      R1,[R0, #+0]
        MOV      R0,R5
        MOV      R1,R1, LSL #+16
        MOV      R1,R1, LSR #+16
        SWI      +331
// 1027   GUIObject_SoftKeys_SetAction(MGList,ACTION_SELECT1,OnEntMG);	
        LDR      R0,??DataTable67  ;; ACTION_SELECT1
        LDR      R2,??MGList_1+0xC  ;; ??OnEntMG
        LDR      R1,[R0, #+0]
        MOV      R0,R5
        MOV      R1,R1, LSL #+16
        MOV      R1,R1, LSR #+16
        SWI      +331
// 1028   GUIObject_Show(MGList);
        MOV      R0,R5
        SWI      +308
// 1029   return(0);
        MOV      R0,#+0
        POP      {R4,R5,PC}       ;; return
        DATA
??MGList_1:
        DC32     `?<Constant L"\\x412\\x44b\\x431\\x2e\\x20\\x436\\x430`
        DC32     ??SetTitlePunktsMG
        DC32     ??ExitMG
        DC32     ??OnEntMG
        CFI EndBlock cfiBlock61
// 1030 }

        RSEG CODE:CODE:NOROOT(2)
        DATA
??DataTable65:
        DC32     ACTION_BACK

        RSEG CODE:CODE:NOROOT(2)
        DATA
??DataTable66:
        DC32     ACTION_LONG_BACK

        RSEG CODE:CODE:NOROOT(2)
        DATA
??DataTable67:
        DC32     ACTION_SELECT1

        RSEG CODE:CODE:NOROOT(2)
        CFI Block cfiBlock62 Using cfiCommon0
        CFI NoFunction
        THUMB
??DestroyInputBooks??rT:
        BX       PC
        Nop      
        CFI EndBlock cfiBlock62
        REQUIRE ??DestroyInputBooks
// 1031 

        RSEG CODE:CODE:NOROOT(2)
        CFI Block cfiBlock63 Using cfiCommon1
        CFI Function ??DestroyInputBooks
        ARM
// 1032 void DestroyInputBooks()
// 1033 {
??DestroyInputBooks:
        PUSH     {R4,R5,LR}
        CFI ?RET Frame(CFA, -4)
        CFI R5 Frame(CFA, -8)
        CFI R4 Frame(CFA, -12)
        CFI CFA R13+12
// 1034   if(TagBook->InputTitle)
        LDR      R4,??DataTable73  ;; TagBook
        MOV      R5,#+0
        LDR      R0,[R4, #+0]
        LDR      R0,[R0, #+88]
        CMP      R0,#+0
        BEQ      ??DestroyInputBooks_1
// 1035   {
// 1036     GUIObject_Destroy(TagBook->InputTitle);
        SWI      +462
// 1037     TagBook->InputTitle=0;
        LDR      R0,[R4, #+0]
        STR      R5,[R0, #+88]
??DestroyInputBooks_1:
        LDR      R0,[R4, #+0]
        LDR      R0,[R0, #+68]
        CMP      R0,#+0
        BEQ      ??DestroyInputBooks_2
// 1038   }
// 1039   if(TagBook->InputAlbum)
// 1040   {
// 1041     GUIObject_Destroy(TagBook->InputAlbum);
        SWI      +462
// 1042     TagBook->InputAlbum=0;
        LDR      R0,[R4, #+0]
        STR      R5,[R0, #+68]
??DestroyInputBooks_2:
        LDR      R0,[R4, #+0]
        LDR      R0,[R0, #+76]
        CMP      R0,#+0
        BEQ      ??DestroyInputBooks_3
// 1043   }
// 1044   if(TagBook->InputAutor)
// 1045   {
// 1046     GUIObject_Destroy(TagBook->InputAutor);
        SWI      +462
// 1047     TagBook->InputAutor=0;
        LDR      R0,[R4, #+0]
        STR      R5,[R0, #+76]
??DestroyInputBooks_3:
        LDR      R0,[R4, #+0]
        LDR      R0,[R0, #+96]
        CMP      R0,#+0
        BEQ      ??DestroyInputBooks_4
// 1048   }
// 1049   if(TagBook->InputYear)
// 1050   {
// 1051     GUIObject_Destroy(TagBook->InputYear);
        SWI      +462
// 1052     TagBook->InputYear=0;
        LDR      R0,[R4, #+0]
        STR      R5,[R0, #+96]
??DestroyInputBooks_4:
        LDR      R0,[R4, #+0]
        LDR      R0,[R0, #+84]
        CMP      R0,#+0
        POPEQ    {R4,R5,PC}
// 1053   }
// 1054   if(TagBook->InputComment)
// 1055   {
// 1056     GUIObject_Destroy(TagBook->InputComment);
        SWI      +462
// 1057     TagBook->InputComment=0;
        LDR      R0,[R4, #+0]
        STR      R5,[R0, #+84]
// 1058   }
// 1059 }
        POP      {R4,R5,PC}       ;; return
        CFI EndBlock cfiBlock63

        RSEG CODE:CODE:NOROOT(2)
        CFI Block cfiBlock64 Using cfiCommon0
        CFI NoFunction
        THUMB
??OnEntInputTitle??rT:
        BX       PC
        Nop      
        CFI EndBlock cfiBlock64
        REQUIRE ??OnEntInputTitle
// 1060 

        RSEG CODE:CODE:NOROOT(2)
        CFI Block cfiBlock65 Using cfiCommon1
        CFI Function ??OnEntInputTitle
        ARM
// 1061 void OnEntInputTitle(BOOK *,wchar_t * string,int len)
// 1062 {
??OnEntInputTitle:
        PUSH     {R4,R5,LR}
        CFI ?RET Frame(CFA, -4)
        CFI R5 Frame(CFA, -8)
        CFI R4 Frame(CFA, -12)
        CFI CFA R13+12
// 1063   for(int i=0; i<=29; i++)
        LDR      R4,??DataTable73  ;; TagBook
        MOV      R0,#+0
        MOV      R5,#+0
// 1064   {
// 1065     TagBook->UTitle[i]=0;
??OnEntInputTitle_1:
        LDR      R3,[R4, #+0]
        LDR      R12,[R3, #+284]
        ADD      LR,R12,R0, LSL #+1
        STRH     R5,[LR, #+0]
// 1066   }
        ADD      R0,R0,#+1
        CMP      R0,#+30
        BLT      ??OnEntInputTitle_1
// 1067   for(int i=0; i<=len; i++)
        MOV      R0,#+0
        CMP      R2,#+0
        BPL      ??OnEntInputTitle_2
        B        ??OnEntInputTitle_3
// 1068   {
// 1069     TagBook->UTitle[i]=string[i];
??OnEntInputTitle_4:
        ADD      LR,R1,R0, LSL #+1
        LDRH     LR,[LR, #+0]
        ADD      R5,R12,R0, LSL #+1
// 1070   }
        ADD      R0,R0,#+1
        STRH     LR,[R5, #+0]
??OnEntInputTitle_2:
        CMP      R2,R0
        BGE      ??OnEntInputTitle_4
// 1071   TagBook->change++;
??OnEntInputTitle_3:
        LDR      R0,[R3, #+120]
        ADD      R0,R0,#+1
        STR      R0,[R3, #+120]
// 1072   DestroyInputBooks();
        BL       ??DestroyInputBooks
// 1073   GUIObject_Show(TagBook->MenuList1);
        LDR      R0,[R4, #+0]
        LDR      R0,[R0, #+112]
        SWI      +308
// 1074 }
        POP      {R4,R5,PC}       ;; return
        CFI EndBlock cfiBlock65

        RSEG CODE:CODE:NOROOT(2)
        CFI Block cfiBlock66 Using cfiCommon0
        CFI NoFunction
        THUMB
??OnEntInputAutor??rT:
        BX       PC
        Nop      
        CFI EndBlock cfiBlock66
        REQUIRE ??OnEntInputAutor
// 1075 

        RSEG CODE:CODE:NOROOT(2)
        CFI Block cfiBlock67 Using cfiCommon1
        CFI Function ??OnEntInputAutor
        ARM
// 1076 void OnEntInputAutor(BOOK *,wchar_t * string,int len)
// 1077 {
??OnEntInputAutor:
        PUSH     {R4,R5,LR}
        CFI ?RET Frame(CFA, -4)
        CFI R5 Frame(CFA, -8)
        CFI R4 Frame(CFA, -12)
        CFI CFA R13+12
// 1078   for(int i=0; i<=29; i++)
        LDR      R4,??DataTable73  ;; TagBook
        MOV      R0,#+0
        MOV      R5,#+0
// 1079   {
// 1080     TagBook->UAutor[i]=0;
??OnEntInputAutor_1:
        LDR      R3,[R4, #+0]
        LDR      R12,[R3, #+260]
        ADD      LR,R12,R0, LSL #+1
        STRH     R5,[LR, #+0]
// 1081   }
        ADD      R0,R0,#+1
        CMP      R0,#+30
        BLT      ??OnEntInputAutor_1
// 1082   for(int i=0; i<=len; i++)
        MOV      R0,#+0
        CMP      R2,#+0
        BPL      ??OnEntInputAutor_2
        B        ??OnEntInputAutor_3
// 1083   {
// 1084     TagBook->UAutor[i]=string[i];
??OnEntInputAutor_4:
        ADD      LR,R1,R0, LSL #+1
        LDRH     LR,[LR, #+0]
        ADD      R5,R12,R0, LSL #+1
// 1085   }
        ADD      R0,R0,#+1
        STRH     LR,[R5, #+0]
??OnEntInputAutor_2:
        CMP      R2,R0
        BGE      ??OnEntInputAutor_4
// 1086   TagBook->change++;
??OnEntInputAutor_3:
        LDR      R0,[R3, #+120]
        ADD      R0,R0,#+1
        STR      R0,[R3, #+120]
// 1087   DestroyInputBooks();
        BL       ??DestroyInputBooks
// 1088   GUIObject_Show(TagBook->MenuList1);
        LDR      R0,[R4, #+0]
        LDR      R0,[R0, #+112]
        SWI      +308
// 1089 }
        POP      {R4,R5,PC}       ;; return
        CFI EndBlock cfiBlock67

        RSEG CODE:CODE:NOROOT(2)
        CFI Block cfiBlock68 Using cfiCommon0
        CFI NoFunction
        THUMB
??OnEntInputAlbum??rT:
        BX       PC
        Nop      
        CFI EndBlock cfiBlock68
        REQUIRE ??OnEntInputAlbum
// 1090 

        RSEG CODE:CODE:NOROOT(2)
        CFI Block cfiBlock69 Using cfiCommon1
        CFI Function ??OnEntInputAlbum
        ARM
// 1091 void OnEntInputAlbum(BOOK *,wchar_t * string,int len)
// 1092 {
??OnEntInputAlbum:
        PUSH     {R4,R5,LR}
        CFI ?RET Frame(CFA, -4)
        CFI R5 Frame(CFA, -8)
        CFI R4 Frame(CFA, -12)
        CFI CFA R13+12
// 1093   for(int i=0; i<=29; i++)
        LDR      R4,??DataTable73  ;; TagBook
        MOV      R0,#+0
        MOV      R5,#+0
// 1094   {
// 1095     TagBook->UAlbum[i]=0;
??OnEntInputAlbum_1:
        LDR      R3,[R4, #+0]
        LDR      R12,[R3, #+252]
        ADD      LR,R12,R0, LSL #+1
        STRH     R5,[LR, #+0]
// 1096   }
        ADD      R0,R0,#+1
        CMP      R0,#+30
        BLT      ??OnEntInputAlbum_1
// 1097   for(int i=0; i<=len; i++)
        MOV      R0,#+0
        CMP      R2,#+0
        BPL      ??OnEntInputAlbum_2
        B        ??OnEntInputAlbum_3
// 1098   {
// 1099     TagBook->UAlbum[i]=string[i];
??OnEntInputAlbum_4:
        ADD      LR,R1,R0, LSL #+1
        LDRH     LR,[LR, #+0]
        ADD      R5,R12,R0, LSL #+1
// 1100   }
        ADD      R0,R0,#+1
        STRH     LR,[R5, #+0]
??OnEntInputAlbum_2:
        CMP      R2,R0
        BGE      ??OnEntInputAlbum_4
// 1101   TagBook->change++;
??OnEntInputAlbum_3:
        LDR      R0,[R3, #+120]
        ADD      R0,R0,#+1
        STR      R0,[R3, #+120]
// 1102   DestroyInputBooks();
        BL       ??DestroyInputBooks
// 1103   GUIObject_Show(TagBook->MenuList1);
        LDR      R0,[R4, #+0]
        LDR      R0,[R0, #+112]
        SWI      +308
// 1104 }
        POP      {R4,R5,PC}       ;; return
        CFI EndBlock cfiBlock69

        RSEG CODE:CODE:NOROOT(2)
        CFI Block cfiBlock70 Using cfiCommon0
        CFI NoFunction
        THUMB
??OnEntInputYear??rT:
        BX       PC
        Nop      
        CFI EndBlock cfiBlock70
        REQUIRE ??OnEntInputYear
// 1105 

        RSEG CODE:CODE:NOROOT(2)
        CFI Block cfiBlock71 Using cfiCommon1
        CFI Function ??OnEntInputYear
        ARM
// 1106 void OnEntInputYear(BOOK *,wchar_t * string,int len)
// 1107 {
??OnEntInputYear:
        PUSH     {R4,R5,LR}
        CFI ?RET Frame(CFA, -4)
        CFI R5 Frame(CFA, -8)
        CFI R4 Frame(CFA, -12)
        CFI CFA R13+12
// 1108   for(int i=0; i<=3; i++)
        LDR      R4,??DataTable73  ;; TagBook
        MOV      R0,#+0
        MOV      R5,#+0
// 1109   {
// 1110     TagBook->UYear[i]=0;
??OnEntInputYear_1:
        LDR      R3,[R4, #+0]
        LDR      R12,[R3, #+292]
        ADD      LR,R12,R0, LSL #+1
        STRH     R5,[LR, #+0]
// 1111   }
        ADD      R0,R0,#+1
        CMP      R0,#+4
        BLT      ??OnEntInputYear_1
// 1112   for(int i=0; i<=len; i++)
        MOV      R0,#+0
        CMP      R2,#+0
        BPL      ??OnEntInputYear_2
        B        ??OnEntInputYear_3
// 1113   {
// 1114     TagBook->UYear[i]=string[i];
??OnEntInputYear_4:
        ADD      LR,R1,R0, LSL #+1
        LDRH     LR,[LR, #+0]
        ADD      R5,R12,R0, LSL #+1
// 1115   }
        ADD      R0,R0,#+1
        STRH     LR,[R5, #+0]
??OnEntInputYear_2:
        CMP      R2,R0
        BGE      ??OnEntInputYear_4
// 1116   TagBook->change++;
??OnEntInputYear_3:
        LDR      R0,[R3, #+120]
        ADD      R0,R0,#+1
        STR      R0,[R3, #+120]
// 1117   DestroyInputBooks();
        BL       ??DestroyInputBooks
// 1118   GUIObject_Show(TagBook->MenuList1);
        LDR      R0,[R4, #+0]
        LDR      R0,[R0, #+112]
        SWI      +308
// 1119 }
        POP      {R4,R5,PC}       ;; return
        CFI EndBlock cfiBlock71

        RSEG CODE:CODE:NOROOT(2)
        CFI Block cfiBlock72 Using cfiCommon0
        CFI NoFunction
        THUMB
??OnEntInputComment??rT:
        BX       PC
        Nop      
        CFI EndBlock cfiBlock72
        REQUIRE ??OnEntInputComment
// 1120 

        RSEG CODE:CODE:NOROOT(2)
        CFI Block cfiBlock73 Using cfiCommon1
        CFI Function ??OnEntInputComment
        ARM
// 1121 void OnEntInputComment(BOOK *,wchar_t * string,int len)
// 1122 {
??OnEntInputComment:
        PUSH     {R4,R5,LR}
        CFI ?RET Frame(CFA, -4)
        CFI R5 Frame(CFA, -8)
        CFI R4 Frame(CFA, -12)
        CFI CFA R13+12
// 1123   for(int i=0; i<=29; i++)
        LDR      R4,??DataTable73  ;; TagBook
        MOV      R0,#+0
        MOV      R5,#+0
// 1124   {
// 1125     TagBook->UComment[i]=0;
??OnEntInputComment_1:
        LDR      R3,[R4, #+0]
        LDR      R12,[R3, #+272]
        ADD      LR,R12,R0, LSL #+1
        STRH     R5,[LR, #+0]
// 1126   }
        ADD      R0,R0,#+1
        CMP      R0,#+30
        BLT      ??OnEntInputComment_1
// 1127   for(int i=0; i<=len; i++)
        MOV      R0,#+0
        CMP      R2,#+0
        BPL      ??OnEntInputComment_2
        B        ??OnEntInputComment_3
// 1128   {
// 1129     TagBook->UComment[i]=string[i];
??OnEntInputComment_4:
        ADD      LR,R1,R0, LSL #+1
        LDRH     LR,[LR, #+0]
        ADD      R5,R12,R0, LSL #+1
// 1130   }
        ADD      R0,R0,#+1
        STRH     LR,[R5, #+0]
??OnEntInputComment_2:
        CMP      R2,R0
        BGE      ??OnEntInputComment_4
// 1131   TagBook->change++;
??OnEntInputComment_3:
        LDR      R0,[R3, #+120]
        ADD      R0,R0,#+1
        STR      R0,[R3, #+120]
// 1132   DestroyInputBooks();
        BL       ??DestroyInputBooks
// 1133   GUIObject_Show(TagBook->MenuList1);
        LDR      R0,[R4, #+0]
        LDR      R0,[R0, #+112]
        SWI      +308
// 1134 }
        POP      {R4,R5,PC}       ;; return
        CFI EndBlock cfiBlock73

        RSEG CODE:CODE:NOROOT(2)
        DATA
??DataTable73:
        DC32     TagBook

        RSEG CODE:CODE:NOROOT(2)
        CFI Block cfiBlock74 Using cfiCommon0
        CFI NoFunction
        THUMB
??InputTitleF??rT:
        BX       PC
        Nop      
        CFI EndBlock cfiBlock74
        REQUIRE ??InputTitleF
// 1135 

        RSEG CODE:CODE:NOROOT(2)
        CFI Block cfiBlock75 Using cfiCommon1
        CFI Function ??InputTitleF
        ARM
// 1136 void InputTitleF()
// 1137 {
??InputTitleF:
        PUSH     {R4-R6,LR}
        CFI ?RET Frame(CFA, -4)
        CFI R6 Frame(CFA, -8)
        CFI R5 Frame(CFA, -12)
        CFI R4 Frame(CFA, -16)
        CFI CFA R13+16
// 1138   TagBook->InputTitle=CreateStringInputVA(0,
// 1139                                        VAR_PREV_ACTION_PROC(DestroyInputBooks),
// 1140                                        VAR_LONG_BACK_PROC(DestroyInputBooks),
// 1141                                        VAR_BOOK(TagBook),
// 1142                                        VAR_STRINP_FIXED_TEXT(TextID_Create(INPUT_TITLE, ENC_UCS2, TEXTID_ANY_LEN)),
// 1143                                        VAR_STRINP_TEXT(TextID_Create(TagBook->UTitle, ENC_UCS2, TEXTID_ANY_LEN)),
// 1144                                        VAR_STRINP_MAX_LEN(30),
// 1145                                        VAR_STRINP_MIN_LEN(0),
// 1146                                        VAR_OK_PROC(OnEntInputTitle),
// 1147                                        0);                                      
        LDR      R4,??DataTable148  ;; TagBook
        MOV      R1,#+0
        LDR      R0,[R4, #+0]
        MOV      R6,#+255
        LDR      R0,[R0, #+284]
        ORR      R6,R6,#0xFF00
        MOV      R2,R6
        SWI      +349
        MOV      R5,R0
        LDR      R0,??InputTitleF_1  ;; `?<Constant L"\\x41d\\x430\\x437\\x432\\x430\\x43d\\x4_2`
        MOV      R2,R6
        MOV      R1,#+0
        SWI      +349
        LDR      R2,??DataTable117  ;; ??DestroyInputBooks
        LDR      R3,??DataTable118  ;; VAR_ARG_CALL_BACK_LONG_BACK
        MOV      R1,#+0
        PUSH     {R1}
        CFI CFA R13+20
        LDR      R1,??InputTitleF_1+0x4  ;; ??OnEntInputTitle
        PUSH     {R1}
        CFI CFA R13+24
        LDR      R1,??DataTable119  ;; VAR_ARG_CALL_BACK_OK
        PUSH     {R1}
        CFI CFA R13+28
        MOV      R1,#+0
        PUSH     {R1}
        CFI CFA R13+32
        LDR      R1,??DataTable120  ;; VAR_ARG_STRINP_MIN_LEN
        PUSH     {R1}
        CFI CFA R13+36
        MOV      R1,#+30
        PUSH     {R1}
        CFI CFA R13+40
        LDR      R1,??DataTable121  ;; VAR_ARG_STRINP_MAX_LEN
        PUSH     {R1}
        CFI CFA R13+44
        LDR      R1,??DataTable122  ;; VAR_ARG_STRINP_TEXT
        PUSH     {R5}
        CFI CFA R13+48
        PUSH     {R1}
        CFI CFA R13+52
        LDR      R1,??DataTable123  ;; VAR_ARG_CALL_BACK_PREV_ACT
        PUSH     {R0}
        CFI CFA R13+56
        LDR      R0,??DataTable124  ;; VAR_ARG_STRINP_FIXED_TEXT
        PUSH     {R0}
        CFI CFA R13+60
        LDR      R0,[R4, #+0]
        PUSH     {R0}
        CFI CFA R13+64
        LDR      R0,??DataTable125  ;; VAR_ARG_BOOK
        PUSH     {R0}
        CFI CFA R13+68
        MOV      R0,R2
        PUSH     {R0}
        CFI CFA R13+72
        MOV      R0,#+0
        SWI      +324
        ADD      SP,SP,#+56
        CFI CFA R13+16
        LDR      R1,[R4, #+0]
        STR      R0,[R1, #+88]
// 1148                                        
// 1149 }
        POP      {R4-R6,PC}       ;; return
        DATA
??InputTitleF_1:
        DC32     `?<Constant L"\\x41d\\x430\\x437\\x432\\x430\\x43d\\x4_2`
        DC32     ??OnEntInputTitle
        CFI EndBlock cfiBlock75

        RSEG CODE:CODE:NOROOT(2)
        CFI Block cfiBlock76 Using cfiCommon0
        CFI NoFunction
        THUMB
??InputAutorF??rT:
        BX       PC
        Nop      
        CFI EndBlock cfiBlock76
        REQUIRE ??InputAutorF
// 1150 

        RSEG CODE:CODE:NOROOT(2)
        CFI Block cfiBlock77 Using cfiCommon1
        CFI Function ??InputAutorF
        ARM
// 1151 void InputAutorF()
// 1152 {
??InputAutorF:
        PUSH     {R4-R6,LR}
        CFI ?RET Frame(CFA, -4)
        CFI R6 Frame(CFA, -8)
        CFI R5 Frame(CFA, -12)
        CFI R4 Frame(CFA, -16)
        CFI CFA R13+16
// 1153     TagBook->InputAutor=CreateStringInputVA(0,
// 1154                                        VAR_PREV_ACTION_PROC(DestroyInputBooks),
// 1155                                        VAR_LONG_BACK_PROC(DestroyInputBooks),
// 1156                                        VAR_BOOK(TagBook),
// 1157                                        VAR_STRINP_FIXED_TEXT(TextID_Create(INPUT_ARTIST, ENC_UCS2, TEXTID_ANY_LEN)),
// 1158                                        VAR_STRINP_TEXT(TextID_Create(TagBook->UAutor, ENC_UCS2, TEXTID_ANY_LEN)),
// 1159                                        VAR_STRINP_MAX_LEN(30),
// 1160                                        VAR_STRINP_MIN_LEN(0),
// 1161                                        VAR_OK_PROC(OnEntInputAutor),
// 1162                                        0);   
        LDR      R4,??DataTable148  ;; TagBook
        MOV      R1,#+0
        LDR      R0,[R4, #+0]
        MOV      R6,#+255
        LDR      R0,[R0, #+260]
        ORR      R6,R6,#0xFF00
        MOV      R2,R6
        SWI      +349
        MOV      R5,R0
        LDR      R0,??DataTable85  ;; `?<Constant L"\\x418\\x441\\x43f\\x43e\\x43b\\x43d\\x4_1`
        MOV      R2,R6
        MOV      R1,#+0
        SWI      +349
        LDR      R2,??DataTable117  ;; ??DestroyInputBooks
        LDR      R3,??DataTable118  ;; VAR_ARG_CALL_BACK_LONG_BACK
        MOV      R1,#+0
        PUSH     {R1}
        CFI CFA R13+20
        LDR      R1,??InputAutorF_1  ;; ??OnEntInputAutor
        PUSH     {R1}
        CFI CFA R13+24
        LDR      R1,??DataTable119  ;; VAR_ARG_CALL_BACK_OK
        PUSH     {R1}
        CFI CFA R13+28
        MOV      R1,#+0
        PUSH     {R1}
        CFI CFA R13+32
        LDR      R1,??DataTable120  ;; VAR_ARG_STRINP_MIN_LEN
        PUSH     {R1}
        CFI CFA R13+36
        MOV      R1,#+30
        PUSH     {R1}
        CFI CFA R13+40
        LDR      R1,??DataTable121  ;; VAR_ARG_STRINP_MAX_LEN
        PUSH     {R1}
        CFI CFA R13+44
        LDR      R1,??DataTable122  ;; VAR_ARG_STRINP_TEXT
        PUSH     {R5}
        CFI CFA R13+48
        PUSH     {R1}
        CFI CFA R13+52
        LDR      R1,??DataTable123  ;; VAR_ARG_CALL_BACK_PREV_ACT
        PUSH     {R0}
        CFI CFA R13+56
        LDR      R0,??DataTable124  ;; VAR_ARG_STRINP_FIXED_TEXT
        PUSH     {R0}
        CFI CFA R13+60
        LDR      R0,[R4, #+0]
        PUSH     {R0}
        CFI CFA R13+64
        LDR      R0,??DataTable125  ;; VAR_ARG_BOOK
        PUSH     {R0}
        CFI CFA R13+68
        MOV      R0,R2
        PUSH     {R0}
        CFI CFA R13+72
        MOV      R0,#+0
        SWI      +324
        ADD      SP,SP,#+56
        CFI CFA R13+16
        LDR      R1,[R4, #+0]
        STR      R0,[R1, #+76]
// 1163 }
        POP      {R4-R6,PC}       ;; return
        DATA
??InputAutorF_1:
        DC32     ??OnEntInputAutor
        CFI EndBlock cfiBlock77

        RSEG CODE:CODE:NOROOT(2)
        DATA
??DataTable85:
        DC32     `?<Constant L"\\x418\\x441\\x43f\\x43e\\x43b\\x43d\\x4_1`

        RSEG CODE:CODE:NOROOT(2)
        CFI Block cfiBlock78 Using cfiCommon0
        CFI NoFunction
        THUMB
??InputAlbumF??rT:
        BX       PC
        Nop      
        CFI EndBlock cfiBlock78
        REQUIRE ??InputAlbumF
// 1164 

        RSEG CODE:CODE:NOROOT(2)
        CFI Block cfiBlock79 Using cfiCommon1
        CFI Function ??InputAlbumF
        ARM
// 1165 void InputAlbumF()
// 1166 {
??InputAlbumF:
        PUSH     {R4-R6,LR}
        CFI ?RET Frame(CFA, -4)
        CFI R6 Frame(CFA, -8)
        CFI R5 Frame(CFA, -12)
        CFI R4 Frame(CFA, -16)
        CFI CFA R13+16
// 1167     TagBook->InputAlbum=CreateStringInputVA(0,
// 1168                                        VAR_PREV_ACTION_PROC(DestroyInputBooks),
// 1169                                        VAR_LONG_BACK_PROC(DestroyInputBooks),
// 1170                                        VAR_BOOK(TagBook),
// 1171                                        VAR_STRINP_FIXED_TEXT(TextID_Create(INPUT_ALBUM, ENC_UCS2, TEXTID_ANY_LEN)),
// 1172                                        VAR_STRINP_TEXT(TextID_Create(TagBook->UAlbum, ENC_UCS2, TEXTID_ANY_LEN)),
// 1173                                        VAR_STRINP_MAX_LEN(30),
// 1174                                        VAR_STRINP_MIN_LEN(0),
// 1175                                        VAR_OK_PROC(OnEntInputAlbum),
// 1176                                        0); 
        LDR      R4,??DataTable148  ;; TagBook
        MOV      R1,#+0
        LDR      R0,[R4, #+0]
        MOV      R6,#+255
        LDR      R0,[R0, #+252]
        ORR      R6,R6,#0xFF00
        MOV      R2,R6
        SWI      +349
        MOV      R5,R0
        LDR      R0,??DataTable96  ;; `?<Constant L"\\x410\\x43b\\x44c\\x431\\x43e\\x43c\\x3_1`
        MOV      R2,R6
        MOV      R1,#+0
        SWI      +349
        LDR      R2,??DataTable117  ;; ??DestroyInputBooks
        LDR      R3,??DataTable118  ;; VAR_ARG_CALL_BACK_LONG_BACK
        MOV      R1,#+0
        PUSH     {R1}
        CFI CFA R13+20
        LDR      R1,??InputAlbumF_1  ;; ??OnEntInputAlbum
        PUSH     {R1}
        CFI CFA R13+24
        LDR      R1,??DataTable119  ;; VAR_ARG_CALL_BACK_OK
        PUSH     {R1}
        CFI CFA R13+28
        MOV      R1,#+0
        PUSH     {R1}
        CFI CFA R13+32
        LDR      R1,??DataTable120  ;; VAR_ARG_STRINP_MIN_LEN
        PUSH     {R1}
        CFI CFA R13+36
        MOV      R1,#+30
        PUSH     {R1}
        CFI CFA R13+40
        LDR      R1,??DataTable121  ;; VAR_ARG_STRINP_MAX_LEN
        PUSH     {R1}
        CFI CFA R13+44
        LDR      R1,??DataTable122  ;; VAR_ARG_STRINP_TEXT
        PUSH     {R5}
        CFI CFA R13+48
        PUSH     {R1}
        CFI CFA R13+52
        LDR      R1,??DataTable123  ;; VAR_ARG_CALL_BACK_PREV_ACT
        PUSH     {R0}
        CFI CFA R13+56
        LDR      R0,??DataTable124  ;; VAR_ARG_STRINP_FIXED_TEXT
        PUSH     {R0}
        CFI CFA R13+60
        LDR      R0,[R4, #+0]
        PUSH     {R0}
        CFI CFA R13+64
        LDR      R0,??DataTable125  ;; VAR_ARG_BOOK
        PUSH     {R0}
        CFI CFA R13+68
        MOV      R0,R2
        PUSH     {R0}
        CFI CFA R13+72
        MOV      R0,#+0
        SWI      +324
        ADD      SP,SP,#+56
        CFI CFA R13+16
        LDR      R1,[R4, #+0]
        STR      R0,[R1, #+68]
// 1177 }
        POP      {R4-R6,PC}       ;; return
        DATA
??InputAlbumF_1:
        DC32     ??OnEntInputAlbum
        CFI EndBlock cfiBlock79

        RSEG CODE:CODE:NOROOT(2)
        DATA
??DataTable96:
        DC32     `?<Constant L"\\x410\\x43b\\x44c\\x431\\x43e\\x43c\\x3_1`

        RSEG CODE:CODE:NOROOT(2)
        CFI Block cfiBlock80 Using cfiCommon0
        CFI NoFunction
        THUMB
??InputYearF??rT:
        BX       PC
        Nop      
        CFI EndBlock cfiBlock80
        REQUIRE ??InputYearF
// 1178 

        RSEG CODE:CODE:NOROOT(2)
        CFI Block cfiBlock81 Using cfiCommon1
        CFI Function ??InputYearF
        ARM
// 1179 void InputYearF()
// 1180 {
??InputYearF:
        PUSH     {R4-R6,LR}
        CFI ?RET Frame(CFA, -4)
        CFI R6 Frame(CFA, -8)
        CFI R5 Frame(CFA, -12)
        CFI R4 Frame(CFA, -16)
        CFI CFA R13+16
// 1181     TagBook->InputYear=CreateStringInputVA(0,
// 1182                                        VAR_PREV_ACTION_PROC(DestroyInputBooks),
// 1183                                        VAR_LONG_BACK_PROC(DestroyInputBooks),
// 1184                                        VAR_BOOK(TagBook),
// 1185                                        VAR_STRINP_FIXED_TEXT(TextID_Create(INPUT_YEAR, ENC_UCS2, TEXTID_ANY_LEN)),
// 1186                                        VAR_STRINP_TEXT(TextID_Create(TagBook->UYear, ENC_UCS2, TEXTID_ANY_LEN)),
// 1187                                        VAR_STRINP_MAX_LEN(4),
// 1188                                        VAR_STRINP_MIN_LEN(0),
// 1189                                        VAR_OK_PROC(OnEntInputYear),
// 1190                                        0); 
        LDR      R4,??DataTable148  ;; TagBook
        MOV      R1,#+0
        LDR      R0,[R4, #+0]
        MOV      R6,#+255
        LDR      R0,[R0, #+292]
        ORR      R6,R6,#0xFF00
        MOV      R2,R6
        SWI      +349
        MOV      R5,R0
        LDR      R0,??InputYearF_1  ;; `?<Constant L"\\x413\\x43e\\x434\\x3a">`
        MOV      R2,R6
        MOV      R1,#+0
        SWI      +349
        LDR      R2,??DataTable117  ;; ??DestroyInputBooks
        LDR      R3,??DataTable118  ;; VAR_ARG_CALL_BACK_LONG_BACK
        MOV      R1,#+0
        PUSH     {R1}
        CFI CFA R13+20
        LDR      R1,??InputYearF_1+0x4  ;; ??OnEntInputYear
        PUSH     {R1}
        CFI CFA R13+24
        LDR      R1,??DataTable119  ;; VAR_ARG_CALL_BACK_OK
        PUSH     {R1}
        CFI CFA R13+28
        MOV      R1,#+0
        PUSH     {R1}
        CFI CFA R13+32
        LDR      R1,??DataTable120  ;; VAR_ARG_STRINP_MIN_LEN
        PUSH     {R1}
        CFI CFA R13+36
        MOV      R1,#+4
        PUSH     {R1}
        CFI CFA R13+40
        LDR      R1,??DataTable121  ;; VAR_ARG_STRINP_MAX_LEN
        PUSH     {R1}
        CFI CFA R13+44
        LDR      R1,??DataTable122  ;; VAR_ARG_STRINP_TEXT
        PUSH     {R5}
        CFI CFA R13+48
        PUSH     {R1}
        CFI CFA R13+52
        LDR      R1,??DataTable123  ;; VAR_ARG_CALL_BACK_PREV_ACT
        PUSH     {R0}
        CFI CFA R13+56
        LDR      R0,??DataTable124  ;; VAR_ARG_STRINP_FIXED_TEXT
        PUSH     {R0}
        CFI CFA R13+60
        LDR      R0,[R4, #+0]
        PUSH     {R0}
        CFI CFA R13+64
        LDR      R0,??DataTable125  ;; VAR_ARG_BOOK
        PUSH     {R0}
        CFI CFA R13+68
        MOV      R0,R2
        PUSH     {R0}
        CFI CFA R13+72
        MOV      R0,#+0
        SWI      +324
        ADD      SP,SP,#+56
        CFI CFA R13+16
        LDR      R1,[R4, #+0]
        STR      R0,[R1, #+96]
// 1191 }
        POP      {R4-R6,PC}       ;; return
        DATA
??InputYearF_1:
        DC32     `?<Constant L"\\x413\\x43e\\x434\\x3a">`
        DC32     ??OnEntInputYear
        CFI EndBlock cfiBlock81

        RSEG CODE:CODE:NOROOT(2)
        CFI Block cfiBlock82 Using cfiCommon0
        CFI NoFunction
        THUMB
??InputCommentF??rT:
        BX       PC
        Nop      
        CFI EndBlock cfiBlock82
        REQUIRE ??InputCommentF
// 1192 

        RSEG CODE:CODE:NOROOT(2)
        CFI Block cfiBlock83 Using cfiCommon1
        CFI Function ??InputCommentF
        ARM
// 1193 void InputCommentF()
// 1194 {
??InputCommentF:
        PUSH     {R4-R6,LR}
        CFI ?RET Frame(CFA, -4)
        CFI R6 Frame(CFA, -8)
        CFI R5 Frame(CFA, -12)
        CFI R4 Frame(CFA, -16)
        CFI CFA R13+16
// 1195   TagBook->InputComment=CreateStringInputVA(0,
// 1196                                        VAR_PREV_ACTION_PROC(DestroyInputBooks),
// 1197                                        VAR_LONG_BACK_PROC(DestroyInputBooks),
// 1198                                        VAR_BOOK(TagBook),
// 1199                                        VAR_STRINP_FIXED_TEXT(TextID_Create(INPUT_COMMENT,ENC_UCS2, TEXTID_ANY_LEN)),
// 1200                                        VAR_STRINP_TEXT(TextID_Create(TagBook->UComment, ENC_UCS2, TEXTID_ANY_LEN)),
// 1201                                        VAR_STRINP_MAX_LEN(30),
// 1202                                        VAR_STRINP_MIN_LEN(0),
// 1203                                        VAR_OK_PROC(OnEntInputComment),
// 1204                                        0); 
        LDR      R4,??DataTable148  ;; TagBook
        MOV      R1,#+0
        LDR      R0,[R4, #+0]
        MOV      R6,#+255
        LDR      R0,[R0, #+272]
        ORR      R6,R6,#0xFF00
        MOV      R2,R6
        SWI      +349
        MOV      R5,R0
        LDR      R0,??InputCommentF_1  ;; `?<Constant L"\\x41a\\x43e\\x43c\\x43c\\x435\\x43d\\x4_2`
        MOV      R2,R6
        MOV      R1,#+0
        SWI      +349
        LDR      R2,??DataTable117  ;; ??DestroyInputBooks
        LDR      R3,??DataTable118  ;; VAR_ARG_CALL_BACK_LONG_BACK
        MOV      R1,#+0
        PUSH     {R1}
        CFI CFA R13+20
        LDR      R1,??InputCommentF_1+0x4  ;; ??OnEntInputComment
        PUSH     {R1}
        CFI CFA R13+24
        LDR      R1,??DataTable119  ;; VAR_ARG_CALL_BACK_OK
        PUSH     {R1}
        CFI CFA R13+28
        MOV      R1,#+0
        PUSH     {R1}
        CFI CFA R13+32
        LDR      R1,??DataTable120  ;; VAR_ARG_STRINP_MIN_LEN
        PUSH     {R1}
        CFI CFA R13+36
        MOV      R1,#+30
        PUSH     {R1}
        CFI CFA R13+40
        LDR      R1,??DataTable121  ;; VAR_ARG_STRINP_MAX_LEN
        PUSH     {R1}
        CFI CFA R13+44
        LDR      R1,??DataTable122  ;; VAR_ARG_STRINP_TEXT
        PUSH     {R5}
        CFI CFA R13+48
        PUSH     {R1}
        CFI CFA R13+52
        LDR      R1,??DataTable123  ;; VAR_ARG_CALL_BACK_PREV_ACT
        PUSH     {R0}
        CFI CFA R13+56
        LDR      R0,??DataTable124  ;; VAR_ARG_STRINP_FIXED_TEXT
        PUSH     {R0}
        CFI CFA R13+60
        LDR      R0,[R4, #+0]
        PUSH     {R0}
        CFI CFA R13+64
        LDR      R0,??DataTable125  ;; VAR_ARG_BOOK
        PUSH     {R0}
        CFI CFA R13+68
        MOV      R0,R2
        PUSH     {R0}
        CFI CFA R13+72
        MOV      R0,#+0
        SWI      +324
        ADD      SP,SP,#+56
        CFI CFA R13+16
        LDR      R1,[R4, #+0]
        STR      R0,[R1, #+84]
// 1205 }
        POP      {R4-R6,PC}       ;; return
        DATA
??InputCommentF_1:
        DC32     `?<Constant L"\\x41a\\x43e\\x43c\\x43c\\x435\\x43d\\x4_2`
        DC32     ??OnEntInputComment
        CFI EndBlock cfiBlock83

        RSEG CODE:CODE:NOROOT(2)
        DATA
??DataTable117:
        DC32     ??DestroyInputBooks

        RSEG CODE:CODE:NOROOT(2)
        DATA
??DataTable118:
        DC32     VAR_ARG_CALL_BACK_LONG_BACK

        RSEG CODE:CODE:NOROOT(2)
        DATA
??DataTable119:
        DC32     VAR_ARG_CALL_BACK_OK

        RSEG CODE:CODE:NOROOT(2)
        DATA
??DataTable120:
        DC32     VAR_ARG_STRINP_MIN_LEN

        RSEG CODE:CODE:NOROOT(2)
        DATA
??DataTable121:
        DC32     VAR_ARG_STRINP_MAX_LEN

        RSEG CODE:CODE:NOROOT(2)
        DATA
??DataTable122:
        DC32     VAR_ARG_STRINP_TEXT

        RSEG CODE:CODE:NOROOT(2)
        DATA
??DataTable123:
        DC32     VAR_ARG_CALL_BACK_PREV_ACT

        RSEG CODE:CODE:NOROOT(2)
        DATA
??DataTable124:
        DC32     VAR_ARG_STRINP_FIXED_TEXT

        RSEG CODE:CODE:NOROOT(2)
        DATA
??DataTable125:
        DC32     VAR_ARG_BOOK

        RSEG CODE:CODE:NOROOT(2)
        CFI Block cfiBlock84 Using cfiCommon0
        CFI NoFunction
        THUMB
??OnEntML1??rT:
        BX       PC
        Nop      
        CFI EndBlock cfiBlock84
        REQUIRE ??OnEntML1
// 1206 

        RSEG CODE:CODE:NOROOT(2)
        CFI Block cfiBlock85 Using cfiCommon1
        CFI Function ??OnEntML1
        ARM
// 1207 void OnEntML1( BOOK* bk, GUI* )
// 1208 {
// 1209   int item=ListMenu_GetSelectedItem(TagBook->MenuList1);
??OnEntML1:
        LDR      R0,??DataTable148  ;; TagBook
        PUSH     {LR}
        CFI ?RET Frame(CFA, -4)
        CFI CFA R13+4
        LDR      R0,[R0, #+0]
        LDR      R0,[R0, #+112]
        SWI      +318
// 1210   if(item==0)
        CMP      R0,#+0
        BNE      ??OnEntML1_1
// 1211   {
// 1212     InputTitleF();
        BL       ??InputTitleF
        POP      {PC}
// 1213   }
// 1214   if(item==1)
??OnEntML1_1:
        CMP      R0,#+1
        BNE      ??OnEntML1_2
// 1215   {
// 1216     InputAutorF();
        BL       ??InputAutorF
        POP      {PC}
// 1217   }
// 1218   if(item==2)
??OnEntML1_2:
        CMP      R0,#+2
        BNE      ??OnEntML1_3
// 1219   {
// 1220     InputAlbumF();
        BL       ??InputAlbumF
        POP      {PC}
// 1221   }
// 1222   if(item==3){
??OnEntML1_3:
        CMP      R0,#+3
        BNE      ??OnEntML1_4
// 1223     InputYearF();
        BL       ??InputYearF
        POP      {PC}
// 1224   }
// 1225   if(item==4){
??OnEntML1_4:
        CMP      R0,#+4
        BNE      ??OnEntML1_5
// 1226     InputCommentF();
        BL       ??InputCommentF
        POP      {PC}
// 1227   }
// 1228   if(item==5){
??OnEntML1_5:
        CMP      R0,#+5
        POPNE    {PC}
// 1229     MGList();
        BL       ??MGList
// 1230   }
// 1231 }
        POP      {PC}             ;; return
        CFI EndBlock cfiBlock85

        RSEG CODE:CODE:NOROOT(2)
        CFI Block cfiBlock86 Using cfiCommon0
        CFI NoFunction
        THUMB
??ExitML1??rT:
        BX       PC
        Nop      
        CFI EndBlock cfiBlock86
        REQUIRE ??ExitML1
// 1232 

        RSEG CODE:CODE:NOROOT(2)
        CFI Block cfiBlock87 Using cfiCommon1
        CFI Function ??ExitML1
        ARM
// 1233 void ExitML1( BOOK*, GUI* )
// 1234 {
??ExitML1:
        PUSH     {R4,LR}
        CFI ?RET Frame(CFA, -4)
        CFI R4 Frame(CFA, -8)
        CFI CFA R13+8
// 1235   GUIObject_Destroy(TagBook->MenuList1);
        LDR      R4,??DataTable148  ;; TagBook
        LDR      R0,[R4, #+0]
        LDR      R0,[R0, #+112]
        SWI      +462
// 1236   TagBook->MenuList1=0;
        LDR      R0,[R4, #+0]
        MOV      R1,#+0
        STR      R1,[R0, #+112]
// 1237   CreateGlavMenu(0);
        MOV      R0,#+0
        POP      {R4,LR}          ;; Pop
        CFI R4 SameValue
        CFI ?RET R14
        CFI CFA R13+0
        B        ??CreateGlavMenu  ;; tailcall
        CFI EndBlock cfiBlock87
// 1238 }

        RSEG CODE:CODE:NOROOT(2)
        CFI Block cfiBlock88 Using cfiCommon0
        CFI NoFunction
        THUMB
??SetTitleML1??rT:
        BX       PC
        Nop      
        CFI EndBlock cfiBlock88
        REQUIRE ??SetTitleML1
// 1239 

        RSEG CODE:CODE:NOROOT(2)
        CFI Block cfiBlock89 Using cfiCommon1
        CFI Function ??SetTitleML1
        ARM
// 1240 int SetTitleML1(GUI_MESSAGE * msg)
// 1241 {
??SetTitleML1:
        PUSH     {R4-R8,LR}
        CFI ?RET Frame(CFA, -4)
        CFI R8 Frame(CFA, -8)
        CFI R7 Frame(CFA, -12)
        CFI R6 Frame(CFA, -16)
        CFI R5 Frame(CFA, -20)
        CFI R4 Frame(CFA, -24)
        CFI CFA R13+24
        SUB      SP,SP,#+4
        CFI CFA R13+28
        MOV      R4,R0
// 1242   int item;
// 1243   int imgID;
// 1244   switch( GUIonMessage_GetMsg(msg) )
        SWI      +884
        CMP      R0,#+1
        BNE      ??SetTitleML1_1
// 1245   {
// 1246     case 1:
// 1247       item=GUIonMessage_GetCreatedItemIndex(msg);
// 1248       if(item==0)
        LDR      R5,??DataTable148  ;; TagBook
        MOV      R0,R4
        SWI      +311
        MOVS     R1,R0
        LDR      R0,??DataTable129  ;; `?<Constant L"\\x41d\\x430\\x437\\x432\\x430\\x43d\\x4_1`
        MOV      R6,#+255
        ORR      R6,R6,#0xFF00
        BNE      ??SetTitleML1_2
// 1249       {
// 1250         GUIonMessage_SetMenuItemText(msg,TextID_Create(MENU_ITEM_TEXT_TITLE,ENC_UCS2,TEXTID_ANY_LEN));
        MOV      R2,R6
        MOV      R1,#+0
        SWI      +349
        MOV      R1,R0
        MOV      R0,R4
        SWI      +312
// 1251         GUIonMessage_SetMenuItemSecondLineText(msg,TextID_Create(TagBook->UTitle,ENC_UCS2,TEXTID_ANY_LEN));
        LDR      R0,[R5, #+0]
        MOV      R2,R6
        LDR      R0,[R0, #+284]
        MOV      R1,#+0
        SWI      +349
        MOV      R1,R0
        MOV      R0,R4
        SWI      +313
// 1252         iconidname2id(Iconr,-1,&imgID);
        LDR      R0,??DataTable130  ;; Iconr
        B        ??SetTitleML1_3
// 1253         GUIonMessage_SetMenuItemIcon(msg, 0, imgID);
// 1254       }
// 1255       if(item==1)
??SetTitleML1_2:
        CMP      R1,#+1
        BNE      ??SetTitleML1_4
// 1256       {
// 1257         GUIonMessage_SetMenuItemText(msg,TextID_Create(MENU_ITEM_TEXT_ARTIST,ENC_UCS2,TEXTID_ANY_LEN));
        MOV      R2,R6
        MOV      R1,#+0
        ADD      R0,R0,#+20
        SWI      +349
        MOV      R1,R0
        MOV      R0,R4
        SWI      +312
// 1258         GUIonMessage_SetMenuItemSecondLineText(msg,TextID_Create(TagBook->UAutor,ENC_UCS2,TEXTID_ANY_LEN));
        LDR      R0,[R5, #+0]
        MOV      R2,R6
        LDR      R0,[R0, #+260]
        MOV      R1,#+0
        SWI      +349
        MOV      R1,R0
        MOV      R0,R4
        SWI      +313
// 1259         iconidname2id(Icont,-1,&imgID);
        LDR      R0,??DataTable131  ;; Icont
        B        ??SetTitleML1_3
// 1260         GUIonMessage_SetMenuItemIcon(msg, 0, imgID);
// 1261       }
// 1262       if(item==2)
??SetTitleML1_4:
        CMP      R1,#+2
        BNE      ??SetTitleML1_5
// 1263       {
// 1264         GUIonMessage_SetMenuItemText(msg,TextID_Create(MENU_ITEM_TEXT_ALBUM,ENC_UCS2,TEXTID_ANY_LEN));
        MOV      R2,R6
        MOV      R1,#+0
        ADD      R0,R0,#+44
        SWI      +349
        MOV      R1,R0
        MOV      R0,R4
        SWI      +312
// 1265         GUIonMessage_SetMenuItemSecondLineText(msg,TextID_Create(TagBook->UAlbum,ENC_UCS2,TEXTID_ANY_LEN));
        LDR      R0,[R5, #+0]
        MOV      R2,R6
        LDR      R0,[R0, #+252]
        MOV      R1,#+0
        SWI      +349
        MOV      R1,R0
        MOV      R0,R4
        SWI      +313
// 1266         iconidname2id(Icony,-1,&imgID);
        LDR      R0,??DataTable132  ;; Icony
        B        ??SetTitleML1_3
// 1267         GUIonMessage_SetMenuItemIcon(msg, 0, imgID);
// 1268       }
// 1269       if(item==3)
??SetTitleML1_5:
        CMP      R1,#+3
        BNE      ??SetTitleML1_6
// 1270       {
// 1271         GUIonMessage_SetMenuItemText(msg,TextID_Create(MENU_ITEM_TEXT_YEAR,ENC_UCS2,TEXTID_ANY_LEN));
        MOV      R2,R6
        MOV      R1,#+0
        ADD      R0,R0,#+60
        SWI      +349
        MOV      R1,R0
        MOV      R0,R4
        SWI      +312
// 1272         GUIonMessage_SetMenuItemSecondLineText(msg,TextID_Create(TagBook->UYear,ENC_UCS2,TEXTID_ANY_LEN));
        LDR      R0,[R5, #+0]
        MOV      R2,R6
        LDR      R0,[R0, #+292]
        MOV      R1,#+0
        SWI      +349
        MOV      R1,R0
        MOV      R0,R4
        SWI      +313
// 1273         iconidname2id(Iconu,-1,&imgID);
        LDR      R0,??SetTitleML1_7  ;; Iconu
        B        ??SetTitleML1_3
// 1274         GUIonMessage_SetMenuItemIcon(msg, 0, imgID);
// 1275       }
// 1276       if(item==4)
??SetTitleML1_6:
        CMP      R1,#+4
        BNE      ??SetTitleML1_8
// 1277       {
// 1278         GUIonMessage_SetMenuItemText(msg,TextID_Create(MENU_ITEM_TEXT_COMMENT,ENC_UCS2,TEXTID_ANY_LEN));
        MOV      R2,R6
        MOV      R1,#+0
        ADD      R0,R0,#+68
        SWI      +349
        MOV      R1,R0
        MOV      R0,R4
        SWI      +312
// 1279         GUIonMessage_SetMenuItemSecondLineText(msg,TextID_Create(TagBook->UComment,ENC_UCS2,TEXTID_ANY_LEN));
        LDR      R0,[R5, #+0]
        MOV      R2,R6
        LDR      R0,[R0, #+272]
        MOV      R1,#+0
        SWI      +349
        MOV      R1,R0
        MOV      R0,R4
        SWI      +313
// 1280         iconidname2id(Iconi,-1,&imgID);
        LDR      R0,??SetTitleML1_7+0x4  ;; Iconi
        B        ??SetTitleML1_3
// 1281         GUIonMessage_SetMenuItemIcon(msg, 0, imgID);
// 1282       }
// 1283       if(item==5)
??SetTitleML1_8:
        CMP      R1,#+5
        BNE      ??SetTitleML1_1
// 1284       {
// 1285         GUIonMessage_SetMenuItemText(msg,TextID_Create(MENU_ITEM_TEXT_GENRE,ENC_UCS2,TEXTID_ANY_LEN));
        MOV      R2,R6
        MOV      R1,#+0
        ADD      R0,R0,#+92
        SWI      +349
        MOV      R1,R0
        MOV      R0,R4
        SWI      +312
// 1286         TagBook->UGenre=new wchar_t[strlen(GetGenre(TagBook->genre))+1];
        LDR      R0,[R5, #+0]
        LDR      R0,[R0, #+124]
        BL       ??GetGenre
        SWI      +346
        ADD      R0,R0,#+1
        LSL      R0,R0,#+1
        _BLF     `??operator new[]`,`??operator new[]??rA`
        LDR      R1,[R5, #+0]
        STR      R0,[R1, #+276]
// 1287         win12512unicode(TagBook->UGenre,GetGenre(TagBook->genre),strlen(GetGenre(TagBook->genre))+1);
        LDR      R0,[R1, #+124]
        BL       ??GetGenre
        SWI      +346
        LDR      R8,[R5, #+0]
        MOV      R7,R0
        LDR      R0,[R8, #+124]
        BL       ??GetGenre
        ADD      R2,R7,#+1
        MOV      R1,R0
        LDR      R0,[R8, #+276]
        BL       ??win12512unicode
// 1288         GUIonMessage_SetMenuItemSecondLineText(msg,TextID_Create(TagBook->UGenre,ENC_UCS2,TEXTID_ANY_LEN));
        LDR      R0,[R5, #+0]
        MOV      R2,R6
        LDR      R0,[R0, #+276]
        MOV      R1,#+0
        SWI      +349
        MOV      R1,R0
        MOV      R0,R4
        SWI      +313
// 1289         iconidname2id(Icono,-1,&imgID);
        LDR      R0,??SetTitleML1_7+0x8  ;; Icono
??SetTitleML1_3:
        MOV      R2,SP
        MVN      R1,#+0
        SWI      +646
// 1290         GUIonMessage_SetMenuItemIcon(msg, 0, imgID);
        LDR      R2,[SP, #+0]
        MOV      R1,#+0
        MOV      R2,R2, LSL #+16
        MOV      R2,R2, LSR #+16
        MOV      R0,R4
        SWI      +316
// 1291       }
// 1292   }
// 1293   return(1);        
??SetTitleML1_1:
        MOV      R0,#+1
        POP      {R1,R4-R8,PC}    ;; return
        DATA
??SetTitleML1_7:
        DC32     Iconu
        DC32     Iconi
        DC32     Icono
        CFI EndBlock cfiBlock89
// 1294 }

        RSEG CODE:CODE:NOROOT(2)
        DATA
??DataTable129:
        DC32     `?<Constant L"\\x41d\\x430\\x437\\x432\\x430\\x43d\\x4_1`

        RSEG CODE:CODE:NOROOT(2)
        DATA
??DataTable130:
        DC32     Iconr

        RSEG CODE:CODE:NOROOT(2)
        DATA
??DataTable131:
        DC32     Icont

        RSEG CODE:CODE:NOROOT(2)
        DATA
??DataTable132:
        DC32     Icony

        RSEG CODE:CODE:NOROOT(2)
        CFI Block cfiBlock90 Using cfiCommon0
        CFI NoFunction
        THUMB
??PlayF1??rT:
        BX       PC
        Nop      
        CFI EndBlock cfiBlock90
        REQUIRE ??PlayF1
// 1295 

        RSEG CODE:CODE:NOROOT(2)
        CFI Block cfiBlock91 Using cfiCommon1
        CFI Function ??PlayF1
        ARM
// 1296 void PlayF1( BOOK* bk, GUI* )
// 1297 {
??PlayF1:
        PUSH     {R4-R7,LR}
        CFI ?RET Frame(CFA, -4)
        CFI R7 Frame(CFA, -8)
        CFI R6 Frame(CFA, -12)
        CFI R5 Frame(CFA, -16)
        CFI R4 Frame(CFA, -20)
        CFI CFA R13+20
// 1298   if(TagBook->PlayMode==0)
        LDR      R4,??DataTable148  ;; TagBook
        LDR      R7,??DataTable167  ;; `?<Constant L"\\x421\\x442\\x43e\\x43f">`
        LDR      R0,[R4, #+0]
        MOV      R6,#+255
        LDR      R1,[R0, #+152]
        ORR      R6,R6,#0xFF00
        MOV      R5,#+296
        CMP      R1,#+0
        BNE      ??PlayF1_1
// 1299   {
// 1300     PlayFile(TagBook->path,TagBook->name);
        LDR      R1,[R0, #+240]
        LDR      R0,[R0, #+244]
        SWI      +434
// 1301     wstrcpy(TagBook->PlayText,SOFTKEY_STATUS_STOP);
        LDR      R0,[R4, #+0]
        MOV      R1,R7
        ADD      R0,R5,R0
        SWI      +338
// 1302     GUIObject_SoftKeys_SetText(TagBook->MenuList1,1,TextID_Create(TagBook->PlayText,ENC_UCS2,TEXTID_ANY_LEN));
        LDR      R0,[R4, #+0]
        MOV      R2,R6
        MOV      R1,#+0
        ADD      R0,R5,R0
        SWI      +349
        MOV      R2,R0
        LDR      R0,[R4, #+0]
        MOV      R1,#+1
        LDR      R0,[R0, #+112]
        SWI      +332
// 1303     TagBook->PlayMode=1;
        LDR      R0,[R4, #+0]
        MOV      R1,#+1
        STR      R1,[R0, #+152]
        POP      {R4-R7,PC}
// 1304   }
// 1305   else
// 1306   {
// 1307     PlaySystemSound(7);
??PlayF1_1:
        MOV      R0,#+7
        SWI      +602
// 1308     wstrcpy(TagBook->PlayText,SOFTKEY_STATUS_PLAY);
        LDR      R0,[R4, #+0]
        ADD      R1,R7,#+12
        ADD      R0,R5,R0
        SWI      +338
// 1309     GUIObject_SoftKeys_SetText(TagBook->MenuList1,1,TextID_Create(TagBook->PlayText,ENC_UCS2,TEXTID_ANY_LEN));
        LDR      R0,[R4, #+0]
        MOV      R2,R6
        MOV      R1,#+0
        ADD      R0,R5,R0
        SWI      +349
        MOV      R2,R0
        LDR      R0,[R4, #+0]
        MOV      R1,#+1
        LDR      R0,[R0, #+112]
        SWI      +332
// 1310     TagBook->PlayMode=0;
        LDR      R0,[R4, #+0]
        MOV      R1,#+0
        STR      R1,[R0, #+152]
// 1311   }
// 1312 }
        POP      {R4-R7,PC}       ;; return
        CFI EndBlock cfiBlock91

        RSEG CODE:CODE:NOROOT(2)
        CFI Block cfiBlock92 Using cfiCommon0
        CFI NoFunction
        THUMB
??DeleteTag1??rT:
        BX       PC
        Nop      
        CFI EndBlock cfiBlock92
        REQUIRE ??DeleteTag1
// 1313 

        RSEG CODE:CODE:NOROOT(2)
        CFI Block cfiBlock93 Using cfiCommon1
        CFI Function ??DeleteTag1
        ARM
// 1314 void DeleteTag1(int x)
// 1315 {
??DeleteTag1:
        PUSH     {R4,LR}
        CFI ?RET Frame(CFA, -4)
        CFI R4 Frame(CFA, -8)
        CFI CFA R13+8
        MOVS     R4,R0
// 1316   int i;
// 1317   if(x==0)
        MOV      R0,#+0
        BNE      ??DeleteTag1_1
// 1318   {
// 1319     for(i=0; i<=29; i++)
        MOV      R1,#+0
// 1320     {
// 1321       TagBook->UTitle[i]=0;
??DeleteTag1_2:
        LDR      R2,??DataTable148  ;; TagBook
        LDR      R2,[R2, #+0]
        LDR      R2,[R2, #+284]
        ADD      R2,R2,R1, LSL #+1
        STRH     R0,[R2, #+0]
// 1322     }
        ADD      R1,R1,#+1
        CMP      R1,#+30
        BGE      ??DeleteTag1_3
        B        ??DeleteTag1_2
// 1323   }
// 1324   if(x==1)
??DeleteTag1_1:
        CMP      R4,#+1
        BNE      ??DeleteTag1_4
// 1325   {
// 1326     for(i=0; i<=29; i++)
        MOV      R1,#+0
// 1327     {
// 1328       TagBook->UAutor[i]=0;
??DeleteTag1_5:
        LDR      R2,??DataTable148  ;; TagBook
        LDR      R2,[R2, #+0]
        LDR      R2,[R2, #+260]
        ADD      R2,R2,R1, LSL #+1
        STRH     R0,[R2, #+0]
// 1329     }
        ADD      R1,R1,#+1
        CMP      R1,#+30
        BGE      ??DeleteTag1_3
        B        ??DeleteTag1_5
// 1330   }
// 1331   if(x==2)
??DeleteTag1_4:
        CMP      R4,#+2
        BNE      ??DeleteTag1_6
// 1332   {
// 1333     for(i=0; i<=29; i++)
        MOV      R1,#+0
// 1334     {
// 1335       TagBook->UAlbum[i]=0;
??DeleteTag1_7:
        LDR      R2,??DataTable148  ;; TagBook
        LDR      R2,[R2, #+0]
        LDR      R2,[R2, #+252]
        ADD      R2,R2,R1, LSL #+1
        STRH     R0,[R2, #+0]
// 1336     }
        ADD      R1,R1,#+1
        CMP      R1,#+30
        BGE      ??DeleteTag1_3
        B        ??DeleteTag1_7
// 1337   }
// 1338   if(x==3)
??DeleteTag1_6:
        CMP      R4,#+3
        BNE      ??DeleteTag1_8
// 1339   {
// 1340     for(i=0; i<=3; i++)
        MOV      R1,#+0
// 1341     {
// 1342       TagBook->UYear[i]=0;
??DeleteTag1_9:
        LDR      R2,??DataTable148  ;; TagBook
        LDR      R2,[R2, #+0]
        LDR      R2,[R2, #+292]
        ADD      R2,R2,R1, LSL #+1
        STRH     R0,[R2, #+0]
// 1343     }
        ADD      R1,R1,#+1
        CMP      R1,#+4
        BGE      ??DeleteTag1_3
        B        ??DeleteTag1_9
// 1344   }
// 1345   if(x==4)
??DeleteTag1_8:
        CMP      R4,#+4
        BNE      ??DeleteTag1_3
// 1346   {
// 1347     for(i=0; i<=29; i++)
        MOV      R1,#+0
// 1348     {
// 1349       TagBook->UComment[i]=0;
??DeleteTag1_10:
        LDR      R2,??DataTable148  ;; TagBook
        LDR      R2,[R2, #+0]
        LDR      R2,[R2, #+272]
        ADD      R2,R2,R1, LSL #+1
        STRH     R0,[R2, #+0]
// 1350     }
        ADD      R1,R1,#+1
        CMP      R1,#+30
        BLT      ??DeleteTag1_10
// 1351   }
// 1352   TagBook->change++;
??DeleteTag1_3:
        LDR      R0,??DataTable148  ;; TagBook
        LDR      R0,[R0, #+0]
        LDR      R1,[R0, #+120]
        ADD      R1,R1,#+1
        STR      R1,[R0, #+120]
// 1353   if(TagBook->MenuList1) GUIObject_Destroy(TagBook->MenuList1);
        LDR      R0,[R0, #+112]
        CMP      R0,#+0
        BEQ      ??DeleteTag1_11
        SWI      +462
// 1354   CreateML1(x);
??DeleteTag1_11:
        MOV      R0,R4
        BL       ??CreateML1
// 1355 }
        POP      {R4,PC}          ;; return
        CFI EndBlock cfiBlock93

        RSEG CODE:CODE:NOROOT(2)
        CFI Block cfiBlock94 Using cfiCommon0
        CFI NoFunction
        THUMB
??CopyFromName1??rT:
        BX       PC
        Nop      
        CFI EndBlock cfiBlock94
        REQUIRE ??CopyFromName1
// 1356 

        RSEG CODE:CODE:NOROOT(2)
        CFI Block cfiBlock95 Using cfiCommon1
        CFI Function ??CopyFromName1
        ARM
// 1357 void CopyFromName1(int x)
// 1358 {
??CopyFromName1:
        PUSH     {R4-R6,LR}
        CFI ?RET Frame(CFA, -4)
        CFI R6 Frame(CFA, -8)
        CFI R5 Frame(CFA, -12)
        CFI R4 Frame(CFA, -16)
        CFI CFA R13+16
// 1359   int i;
// 1360   if(x==0)
        LDR      R5,??DataTable148  ;; TagBook
        MOVS     R4,R0
        LDR      R0,[R5, #+0]
        MOV      R6,#+0
        LDR      R0,[R0, #+240]
        BNE      ??CopyFromName1_1
// 1361   {
// 1362     int len=wstrlen(TagBook->name);
        SWI      +343
// 1363     for(i=0; i<=29; i++)
        MOV      R1,#+0
        B        ??CopyFromName1_2
// 1364     {
// 1365       if(i<len)
// 1366       {
// 1367         TagBook->UTitle[i]=TagBook->name[i];
// 1368       }
// 1369       else
// 1370       {
// 1371         TagBook->UTitle[i]=0;
??CopyFromName1_3:
        STRH     R6,[R2, #+0]
// 1372       }
??CopyFromName1_4:
        ADD      R1,R1,#+1
        CMP      R1,#+30
        BGE      ??CopyFromName1_5
??CopyFromName1_2:
        LDR      R3,[R5, #+0]
        CMP      R1,R0
        LDR      R2,[R3, #+284]
        ADD      R2,R2,R1, LSL #+1
        BGE      ??CopyFromName1_3
        LDR      R3,[R3, #+240]
        ADD      R3,R3,R1, LSL #+1
        LDRH     R3,[R3, #+0]
        STRH     R3,[R2, #+0]
        B        ??CopyFromName1_4
// 1373     }
// 1374   }
// 1375   if(x==1)
??CopyFromName1_1:
        CMP      R4,#+1
        BNE      ??CopyFromName1_6
// 1376   {
// 1377     int len=wstrlen(TagBook->name);
        SWI      +343
// 1378     for(i=0; i<=29; i++)
        MOV      R1,#+0
        B        ??CopyFromName1_7
// 1379     {
// 1380       if(i<len)
// 1381       {
// 1382         TagBook->UAutor[i]=TagBook->name[i];
// 1383       }
// 1384       else
// 1385       {
// 1386         TagBook->UAutor[i]=0;
??CopyFromName1_8:
        STRH     R6,[R2, #+0]
// 1387       }
??CopyFromName1_9:
        ADD      R1,R1,#+1
        CMP      R1,#+30
        BGE      ??CopyFromName1_5
??CopyFromName1_7:
        LDR      R3,[R5, #+0]
        CMP      R1,R0
        LDR      R2,[R3, #+260]
        ADD      R2,R2,R1, LSL #+1
        BGE      ??CopyFromName1_8
        LDR      R3,[R3, #+240]
        ADD      R3,R3,R1, LSL #+1
        LDRH     R3,[R3, #+0]
        STRH     R3,[R2, #+0]
        B        ??CopyFromName1_9
// 1388     }
// 1389   }
// 1390   if(x==2)
??CopyFromName1_6:
        CMP      R4,#+2
        BNE      ??CopyFromName1_5
// 1391   {
// 1392     int len=wstrlen(TagBook->name);
        SWI      +343
// 1393     for(i=0; i<=29; i++)
        MOV      R1,#+0
// 1394     {
// 1395       if(i<len)
??CopyFromName1_10:
        LDR      R2,[R5, #+0]
        CMP      R1,R0
        LDR      R3,[R2, #+252]
        ADD      R3,R3,R1, LSL #+1
        BGE      ??CopyFromName1_11
// 1396       {
// 1397         TagBook->UAlbum[i]=TagBook->name[i];
        LDR      R2,[R2, #+240]
        ADD      R2,R2,R1, LSL #+1
        LDRH     R2,[R2, #+0]
        STRH     R2,[R3, #+0]
        B        ??CopyFromName1_12
// 1398       }
// 1399       else
// 1400       {
// 1401         TagBook->UAlbum[i]=0;
??CopyFromName1_11:
        STRH     R6,[R3, #+0]
// 1402       }
// 1403     }
??CopyFromName1_12:
        ADD      R1,R1,#+1
        CMP      R1,#+30
        BLT      ??CopyFromName1_10
// 1404   }
// 1405   TagBook->change++;
??CopyFromName1_5:
        LDR      R0,[R5, #+0]
        LDR      R1,[R0, #+120]
        ADD      R1,R1,#+1
        STR      R1,[R0, #+120]
// 1406   if(TagBook->MenuList1) GUIObject_Destroy(TagBook->MenuList1);
        LDR      R0,[R0, #+112]
        CMP      R0,#+0
        BEQ      ??CopyFromName1_13
        SWI      +462
// 1407   CreateML1(x);
??CopyFromName1_13:
        MOV      R0,R4
        BL       ??CreateML1
// 1408 }
        POP      {R4-R6,PC}       ;; return
        CFI EndBlock cfiBlock95

        RSEG CODE:CODE:NOROOT(2)
        CFI Block cfiBlock96 Using cfiCommon0
        CFI NoFunction
        THUMB
??CopyFromID3v2??rT:
        BX       PC
        Nop      
        CFI EndBlock cfiBlock96
        REQUIRE ??CopyFromID3v2
// 1409 

        RSEG CODE:CODE:NOROOT(2)
        CFI Block cfiBlock97 Using cfiCommon1
        CFI Function ??CopyFromID3v2
        ARM
// 1410 void CopyFromID3v2(int x)
// 1411 {
??CopyFromID3v2:
        PUSH     {R4-R6,LR}
        CFI ?RET Frame(CFA, -4)
        CFI R6 Frame(CFA, -8)
        CFI R5 Frame(CFA, -12)
        CFI R4 Frame(CFA, -16)
        CFI CFA R13+16
// 1412   int i;
// 1413   if(x==0)
        LDR      R5,??DataTable148  ;; TagBook
        MOVS     R4,R0
        LDR      R0,[R5, #+0]
        MOV      R6,#+0
        BNE      ??CopyFromID3v2_1
// 1414   {
// 1415     int len=wstrlen(TagBook->UTitle2);
        LDR      R0,[R0, #+288]
        SWI      +343
// 1416     for(i=0; i<=29; i++)
        MOV      R1,#+0
        B        ??CopyFromID3v2_2
// 1417     {
// 1418       if(i<len)
// 1419       {
// 1420         TagBook->UTitle[i]=TagBook->UTitle2[i];
// 1421       }
// 1422       else
// 1423       {
// 1424         TagBook->UTitle[i]=0;
??CopyFromID3v2_3:
        STRH     R6,[R2, #+0]
// 1425       }
??CopyFromID3v2_4:
        ADD      R1,R1,#+1
        CMP      R1,#+30
        BGE      ??CopyFromID3v2_5
??CopyFromID3v2_2:
        LDR      R3,[R5, #+0]
        CMP      R1,R0
        LDR      R2,[R3, #+284]
        ADD      R2,R2,R1, LSL #+1
        BGE      ??CopyFromID3v2_3
        LDR      R3,[R3, #+288]
        ADD      R3,R3,R1, LSL #+1
        LDRH     R3,[R3, #+0]
        STRH     R3,[R2, #+0]
        B        ??CopyFromID3v2_4
// 1426     }
// 1427   }
// 1428   if(x==1)
??CopyFromID3v2_1:
        CMP      R4,#+1
        BNE      ??CopyFromID3v2_6
// 1429   {
// 1430     int len=wstrlen(TagBook->UAutor2);
        LDR      R0,[R0, #+264]
        SWI      +343
// 1431     for(i=0; i<=29; i++)
        MOV      R1,#+0
        B        ??CopyFromID3v2_7
// 1432     {
// 1433       if(i<len)
// 1434       {
// 1435         TagBook->UAutor[i]=TagBook->UAutor2[i];
// 1436       }
// 1437       else
// 1438       {
// 1439         TagBook->UAutor[i]=0;
??CopyFromID3v2_8:
        STRH     R6,[R2, #+0]
// 1440       }
??CopyFromID3v2_9:
        ADD      R1,R1,#+1
        CMP      R1,#+30
        BGE      ??CopyFromID3v2_5
??CopyFromID3v2_7:
        LDR      R3,[R5, #+0]
        CMP      R1,R0
        LDR      R2,[R3, #+260]
        ADD      R2,R2,R1, LSL #+1
        BGE      ??CopyFromID3v2_8
        LDR      R3,[R3, #+264]
        ADD      R3,R3,R1, LSL #+1
        LDRH     R3,[R3, #+0]
        STRH     R3,[R2, #+0]
        B        ??CopyFromID3v2_9
// 1441     }
// 1442   }
// 1443   if(x==2)
??CopyFromID3v2_6:
        CMP      R4,#+2
        BNE      ??CopyFromID3v2_5
// 1444   {
// 1445     int len=wstrlen(TagBook->UAlbum2);
        LDR      R0,[R0, #+256]
        SWI      +343
// 1446     for(i=0; i<=29; i++)
        MOV      R1,#+0
// 1447     {
// 1448       if(i<len)
??CopyFromID3v2_10:
        LDR      R2,[R5, #+0]
        CMP      R1,R0
        LDR      R3,[R2, #+252]
        ADD      R3,R3,R1, LSL #+1
        BGE      ??CopyFromID3v2_11
// 1449       {
// 1450         TagBook->UAlbum[i]=TagBook->UAlbum2[i];
        LDR      R2,[R2, #+256]
        ADD      R2,R2,R1, LSL #+1
        LDRH     R2,[R2, #+0]
        STRH     R2,[R3, #+0]
        B        ??CopyFromID3v2_12
// 1451       }
// 1452       else
// 1453       {
// 1454         TagBook->UAlbum[i]=0;
??CopyFromID3v2_11:
        STRH     R6,[R3, #+0]
// 1455       }
// 1456     }
??CopyFromID3v2_12:
        ADD      R1,R1,#+1
        CMP      R1,#+30
        BLT      ??CopyFromID3v2_10
// 1457   }
// 1458   TagBook->change++;
??CopyFromID3v2_5:
        LDR      R0,[R5, #+0]
        LDR      R1,[R0, #+120]
        ADD      R1,R1,#+1
        STR      R1,[R0, #+120]
// 1459   if(TagBook->MenuList1) GUIObject_Destroy(TagBook->MenuList1);
        LDR      R0,[R0, #+112]
        CMP      R0,#+0
        BEQ      ??CopyFromID3v2_13
        SWI      +462
// 1460   CreateML1(x);
??CopyFromID3v2_13:
        MOV      R0,R4
        BL       ??CreateML1
// 1461 }
        POP      {R4-R6,PC}       ;; return
        CFI EndBlock cfiBlock97

        RSEG CODE:CODE:NOROOT(2)
        CFI Block cfiBlock98 Using cfiCommon0
        CFI NoFunction
        THUMB
??NewKey1??rT:
        BX       PC
        Nop      
        CFI EndBlock cfiBlock98
        REQUIRE ??NewKey1
// 1462       
// 1463   
// 1464 

        RSEG CODE:CODE:NOROOT(2)
        CFI Block cfiBlock99 Using cfiCommon1
        CFI Function ??NewKey1
        ARM
// 1465 void NewKey1(DISP_OBJ* p, int i1, int i2, int i3, int i4)
// 1466 {
??NewKey1:
        PUSH     {R4-R8,LR}
        CFI ?RET Frame(CFA, -4)
        CFI R8 Frame(CFA, -8)
        CFI R7 Frame(CFA, -12)
        CFI R6 Frame(CFA, -16)
        CFI R5 Frame(CFA, -20)
        CFI R4 Frame(CFA, -24)
        CFI CFA R13+24
        LDR      R5,[SP, #+24]
// 1467   TagBook->OldKey1(p, i1, i2, i3, i4);
        LDR      R6,??DataTable148  ;; TagBook
        MOV      R4,R1
        MOV      R1,R5
        PUSH     {R1}
        CFI CFA R13+28
        LDR      R7,[R6, #+0]
        MOV      R1,R4
        LDR      R7,[R7, #+232]
        BLX      R7
// 1468   if(i4==KBD_SHORT_RELEASE && i1==KEY_DEL)
        LDR      R0,??DataTable172  ;; KEY_DIGITAL_0
        LDR      R8,[R0, #+0]
        LDR      R0,??DataTable170  ;; KBD_SHORT_RELEASE
        ADD      R7,R8,#+11
        LDR      R0,[R0, #+0]
        ADD      SP,SP,#+4
        CFI CFA R13+24
        CMP      R5,R0
        BNE      ??NewKey1_1
        LDR      R0,??DataTable171  ;; KEY_DEL
        LDR      R0,[R0, #+0]
        CMP      R4,R0
        BNE      ??NewKey1_2
// 1469   {
// 1470     int sel=ListMenu_GetSelectedItem(TagBook->MenuList1);
        LDR      R0,[R6, #+0]
        LDR      R0,[R0, #+112]
        SWI      +318
// 1471     if(sel<=4)
        CMP      R0,#+5
        BGE      ??NewKey1_2
// 1472     {
// 1473       DeleteTag1(sel);
        BL       ??DeleteTag1
??NewKey1_2:
        CMP      R4,R8
        BNE      ??NewKey1_3
// 1474     }
// 1475   }
// 1476   if(i4==KBD_SHORT_RELEASE && i1==KEY_DIGITAL_0)
// 1477   {
// 1478     PlayF1((BOOK*)TagBook,0);
        LDR      R0,[R6, #+0]
        MOV      R1,#+0
        BL       ??PlayF1
??NewKey1_3:
        ADD      R0,R8,#+1
        CMP      R4,R0
        BNE      ??NewKey1_4
// 1479   }
// 1480   if(i4==KBD_SHORT_RELEASE && i1==(KEY_DIGITAL_0+1))
// 1481   {
// 1482     InputTitleF();
        BL       ??InputTitleF
??NewKey1_4:
        ADD      R0,R8,#+2
        CMP      R4,R0
        BNE      ??NewKey1_5
// 1483   }
// 1484   if(i4==KBD_SHORT_RELEASE && i1==(KEY_DIGITAL_0+2))
// 1485   {
// 1486     InputAutorF();
        BL       ??InputAutorF
??NewKey1_5:
        ADD      R0,R8,#+3
        CMP      R4,R0
        BNE      ??NewKey1_6
// 1487   }
// 1488   if(i4==KBD_SHORT_RELEASE && i1==(KEY_DIGITAL_0+3))
// 1489   {
// 1490     InputAlbumF();
        BL       ??InputAlbumF
??NewKey1_6:
        ADD      R0,R8,#+4
        CMP      R4,R0
        BNE      ??NewKey1_7
// 1491   }
// 1492   if(i4==KBD_SHORT_RELEASE && i1==(KEY_DIGITAL_0+4))
// 1493   {
// 1494     InputYearF();
        BL       ??InputYearF
??NewKey1_7:
        ADD      R0,R8,#+5
        CMP      R4,R0
        BNE      ??NewKey1_8
// 1495   }
// 1496   if(i4==KBD_SHORT_RELEASE && i1==(KEY_DIGITAL_0+5))
// 1497   {
// 1498     InputCommentF();
        BL       ??InputCommentF
??NewKey1_8:
        ADD      R0,R8,#+6
        CMP      R4,R0
        BNE      ??NewKey1_9
// 1499   }
// 1500   if(i4==KBD_SHORT_RELEASE && i1==(KEY_DIGITAL_0+6))
// 1501   {
// 1502     MGList();
        BL       ??MGList
??NewKey1_9:
        ADD      R0,R8,#+10
        CMP      R4,R0
        BNE      ??NewKey1_10
// 1503   }
// 1504   if(i4==KBD_SHORT_RELEASE && i1==(KEY_DIGITAL_0+10))
// 1505   {
// 1506     ShowInfo();
        BL       ??ShowInfo
??NewKey1_10:
        CMP      R4,R7
        BNE      ??NewKey1_1
// 1507   }
// 1508   if(i4==KBD_SHORT_RELEASE && i1==(KEY_DIGITAL_0+11))
// 1509   {
// 1510     CopyFromID3v2(ListMenu_GetSelectedItem(TagBook->MenuList1));
        LDR      R0,[R6, #+0]
        LDR      R0,[R0, #+112]
        SWI      +318
        BL       ??CopyFromID3v2
// 1511   }
// 1512   if(i4==KBD_LONG_PRESS && i1==(KEY_DIGITAL_0+11))
??NewKey1_1:
        LDR      R0,??DataTable147  ;; KBD_LONG_PRESS
        LDR      R0,[R0, #+0]
        CMP      R5,R0
        CMPEQ    R4,R7
        POPNE    {R4-R8,PC}
// 1513   {
// 1514     CopyFromName1(ListMenu_GetSelectedItem(TagBook->MenuList1));
        LDR      R0,[R6, #+0]
        LDR      R0,[R0, #+112]
        SWI      +318
        BL       ??CopyFromName1
// 1515   }
// 1516 }
        POP      {R4-R8,PC}       ;; return
        CFI EndBlock cfiBlock99

        RSEG CODE:CODE:NOROOT(2)
        DATA
??DataTable147:
        DC32     KBD_LONG_PRESS

        RSEG CODE:CODE:NOROOT(2)
        CFI Block cfiBlock100 Using cfiCommon0
        CFI NoFunction
        THUMB
??CreateML1??rT:
        BX       PC
        Nop      
        CFI EndBlock cfiBlock100
        REQUIRE ??CreateML1
// 1517 

        RSEG CODE:CODE:NOROOT(2)
        CFI Block cfiBlock101 Using cfiCommon1
        CFI Function ??CreateML1
        ARM
// 1518 void CreateML1(int x)
// 1519 {
??CreateML1:
        PUSH     {R4-R7,LR}
        CFI ?RET Frame(CFA, -4)
        CFI R7 Frame(CFA, -8)
        CFI R6 Frame(CFA, -12)
        CFI R5 Frame(CFA, -16)
        CFI R4 Frame(CFA, -20)
        CFI CFA R13+20
// 1520   GUI_LIST*MList1=CreateListMenu((BOOK*)TagBook,0);
        LDR      R5,??DataTable148  ;; TagBook
        MOV      R6,R0
        LDR      R0,[R5, #+0]
        MOV      R1,#+0
        SWI      +448
        MOV      R4,R0
// 1521   TagBook->MenuList1=MList1;
        LDR      R0,[R5, #+0]
// 1522   GUIObject_SetTitleText(MList1, TextID_Create(NAME_EDIT1,ENC_UCS2,TEXTID_ANY_LEN));
        MOV      R7,#+255
        STR      R4,[R0, #+112]
        LDR      R0,??CreateML1_1  ;; `?<Constant L"\\x49\\x44\\x33\\x76\\x31">` + 60
        ORR      R7,R7,#0xFF00
        MOV      R2,R7
        MOV      R1,#+0
        SWI      +349
        MOV      R1,R0
        MOV      R0,R4
        SWI      +307
// 1523   ListMenu_SetItemCount(MList1, 6);
        MOV      R1,#+6
        MOV      R0,R4
        SWI      +449
// 1524   OneOfMany_SetOnMessage(MList1,SetTitleML1);
        LDR      R1,??CreateML1_1+0x4  ;; ??SetTitleML1
        MOV      R0,R4
        SWI      +481
// 1525   ListMenu_SetCursorToItem(MList1,x);
        MOV      R1,R6
// 1526   ListMenu_SetItemStyle(MList1,3);
// 1527   GUIObject_SoftKeys_SetAction(MList1,ACTION_BACK,ExitML1);
        LDR      R6,??CreateML1_1+0x8  ;; ??ExitML1
        MOV      R0,R4
        SWI      +309
        MOV      R1,#+3
        MOV      R0,R4
        SWI      +319
        LDR      R0,??DataTable174  ;; ACTION_BACK
        MOV      R2,R6
        LDR      R1,[R0, #+0]
        MOV      R0,R4
        MOV      R1,R1, LSL #+16
        MOV      R1,R1, LSR #+16
        SWI      +331
// 1528   GUIObject_SoftKeys_SetAction(MList1,ACTION_LONG_BACK,ExitML1);
        LDR      R0,??DataTable175  ;; ACTION_LONG_BACK
        MOV      R2,R6
        LDR      R1,[R0, #+0]
        MOV      R0,R4
        MOV      R1,R1, LSL #+16
        MOV      R1,R1, LSR #+16
        SWI      +331
// 1529   GUIObject_SoftKeys_SetAction(MList1,ACTION_SELECT1,OnEntML1);	
        LDR      R0,??DataTable176  ;; ACTION_SELECT1
        LDR      R2,??CreateML1_1+0xC  ;; ??OnEntML1
        LDR      R1,[R0, #+0]
        MOV      R0,R4
        MOV      R1,R1, LSL #+16
        MOV      R1,R1, LSR #+16
        SWI      +331
// 1530   GUIObject_SoftKeys_SetAction(MList1,1,PlayF1);
        LDR      R2,??CreateML1_1+0x10  ;; ??PlayF1
        MOV      R1,#+1
        MOV      R0,R4
        SWI      +331
// 1531   GUIObject_SoftKeys_SetText(MList1,1,TextID_Create(TagBook->PlayText,ENC_UCS2,TEXTID_ANY_LEN));
        LDR      R0,[R5, #+0]
        MOV      R2,R7
        MOV      R1,#+0
        ADD      R0,R0,#+296
        SWI      +349
        MOV      R2,R0
        MOV      R1,#+1
        MOV      R0,R4
        SWI      +332
// 1532   TagBook->OldKey1 = DispObject_GetOnKey( GUIObject_GetDispObject(MList1) );
        MOV      R0,R4
        SWI      +360
        SWI      +555
        LDR      R1,[R5, #+0]
        STR      R0,[R1, #+232]
// 1533   DISP_DESC_SetOnKey( DispObject_GetDESC ( GUIObject_GetDispObject(MList1) ), NewKey1);
        MOV      R0,R4
        SWI      +360
        SWI      +543
        LDR      R1,??CreateML1_1+0x14  ;; ??NewKey1
        SWI      +554
// 1534   GUIObject_Show(MList1);
        MOV      R0,R4
        SWI      +308
// 1535 }
        POP      {R4-R7,PC}       ;; return
        DATA
??CreateML1_1:
        DC32     `?<Constant L"\\x49\\x44\\x33\\x76\\x31">` + 60
        DC32     ??SetTitleML1
        DC32     ??ExitML1
        DC32     ??OnEntML1
        DC32     ??PlayF1
        DC32     ??NewKey1
        CFI EndBlock cfiBlock101

        RSEG CODE:CODE:NOROOT(2)
        DATA
??DataTable148:
        DC32     TagBook

        RSEG CODE:CODE:NOROOT(2)
        CFI Block cfiBlock102 Using cfiCommon0
        CFI NoFunction
        THUMB
??OnEntGM??rT:
        BX       PC
        Nop      
        CFI EndBlock cfiBlock102
        REQUIRE ??OnEntGM
// 1536   
// 1537   
// 1538 

        RSEG CODE:CODE:NOROOT(2)
        CFI Block cfiBlock103 Using cfiCommon1
        CFI Function ??OnEntGM
        ARM
// 1539 void OnEntGM( BOOK* bk, GUI* )
// 1540 {
??OnEntGM:
        PUSH     {R4,LR}
        CFI ?RET Frame(CFA, -4)
        CFI R4 Frame(CFA, -8)
        CFI CFA R13+8
// 1541   int item=ListMenu_GetSelectedItem(TagBook->GlavMenu);
        LDR      R4,??DataTable177  ;; TagBook
        LDR      R0,[R4, #+0]
        LDR      R0,[R0, #+104]
        SWI      +318
// 1542   if(item==0)
        CMP      R0,#+0
        BNE      ??OnEntGM_1
// 1543   {
// 1544     CreateML1(0);
        BL       ??CreateML1
// 1545   }
// 1546   if(item==1)
// 1547   {
// 1548     CreateML2(0);
// 1549   }
// 1550   if(item==2)
// 1551   {
// 1552     ShowInfo();
// 1553   }
// 1554   if(item!=2)
// 1555   {
// 1556     GUIObject_Destroy(TagBook->GlavMenu);
??OnEntGM_2:
        LDR      R0,[R4, #+0]
        LDR      R0,[R0, #+104]
        SWI      +462
// 1557     TagBook->GlavMenu=0;
        LDR      R0,[R4, #+0]
        MOV      R1,#+0
        STR      R1,[R0, #+104]
// 1558   }
// 1559 }
        POP      {R4,PC}          ;; return
??OnEntGM_1:
        CMP      R0,#+1
        BNE      ??OnEntGM_3
        MOV      R0,#+0
        BL       ??CreateML2
        B        ??OnEntGM_2
??OnEntGM_3:
        CMP      R0,#+2
        BNE      ??OnEntGM_2
        POP      {R4,LR}          ;; Pop
        CFI R4 SameValue
        CFI ?RET R14
        CFI CFA R13+0
        B        ??ShowInfo       ;; tailcall
        CFI EndBlock cfiBlock103

        RSEG CODE:CODE:NOROOT(2)
        CFI Block cfiBlock104 Using cfiCommon0
        CFI NoFunction
        THUMB
??onAccept_DB??rT:
        BX       PC
        Nop      
        CFI EndBlock cfiBlock104
        REQUIRE ??onAccept_DB
// 1560 

        RSEG CODE:CODE:NOROOT(2)
        CFI Block cfiBlock105 Using cfiCommon1
        CFI Function ??onAccept_DB
        ARM
// 1561 int onAccept_DB(void * data, BOOK * book)
// 1562 {
??onAccept_DB:
        PUSH     {R4-R6,LR}
        CFI ?RET Frame(CFA, -4)
        CFI R6 Frame(CFA, -8)
        CFI R5 Frame(CFA, -12)
        CFI R4 Frame(CFA, -16)
        CFI CFA R13+16
        MOV      R4,R0
// 1563   wchar_t *name=new wchar_t[wstrlen( FILEITEM_GetFname((FILEITEM*)data) )+1];
        SWI      +722
        SWI      +343
        ADD      R0,R0,#+1
        LSL      R0,R0,#+1
        _BLF     `??operator new[]`,`??operator new[]??rA`
        MOV      R5,R0
// 1564   wchar_t *path=new wchar_t[wstrlen( FILEITEM_GetPath((FILEITEM*)data) )+1];
        MOV      R0,R4
        SWI      +723
        SWI      +343
        ADD      R0,R0,#+1
        LSL      R0,R0,#+1
        _BLF     `??operator new[]`,`??operator new[]??rA`
        MOV      R6,R0
// 1565   wstrcpy(name, FILEITEM_GetFname((FILEITEM*)data) );
        MOV      R0,R4
        SWI      +722
        MOV      R1,R0
        MOV      R0,R5
        SWI      +338
// 1566   wstrcpy(path, FILEITEM_GetPath((FILEITEM*)data) );
        MOV      R0,R4
        SWI      +723
        MOV      R1,R0
        MOV      R0,R6
        SWI      +338
// 1567   FileRead(path, name);
        MOV      R1,R5
        MOV      R0,R6
        BL       ??FileRead
// 1568   return (0);
        MOV      R0,#+0
        POP      {R4-R6,PC}       ;; return
        CFI EndBlock cfiBlock105
// 1569 };

        RSEG CODE:CODE:NOROOT(2)
        CFI Block cfiBlock106 Using cfiCommon0
        CFI NoFunction
        THUMB
??onCancelDB??rT:
        BX       PC
        Nop      
        CFI EndBlock cfiBlock106
        REQUIRE ??onCancelDB
// 1570 

        RSEG CODE:CODE:NOROOT(2)
        CFI Block cfiBlock107 Using cfiCommon1
        CFI Function ??onCancelDB
        ARM
// 1571 static int onCancelDB(void *data, BOOK * book)
// 1572 {
??onCancelDB:
        PUSH     {LR}
        CFI ?RET Frame(CFA, -4)
        CFI CFA R13+4
        MOV      R0,R1
// 1573   FreeBook(book);
        SWI      +303
// 1574   return(1);
        MOV      R0,#+1
        POP      {PC}             ;; return
        CFI EndBlock cfiBlock107
// 1575 };

        RSEG CODE:CODE:NOROOT(2)
        CFI Block cfiBlock108 Using cfiCommon0
        CFI NoFunction
        THUMB
??isDir??rT:
        BX       PC
        Nop      
        CFI EndBlock cfiBlock108
        REQUIRE ??isDir
// 1576 

        RSEG CODE:CODE:NOROOT(2)
        CFI Block cfiBlock109 Using cfiCommon1
        CFI Function ??isDir
        ARM
// 1577 int isDir(const wchar_t *path, const wchar_t *name)
// 1578 {
??isDir:
        PUSH     {R4,LR}
        CFI ?RET Frame(CFA, -4)
        CFI R4 Frame(CFA, -8)
        CFI CFA R13+8
        SUB      SP,SP,#+552
        CFI CFA R13+560
        MOV      R4,R1
// 1579   wchar_t fullname[256];
// 1580   W_FSTAT fs;
// 1581   wstrcpy(fullname,path);
        MOV      R1,R0
        MOV      R0,SP
        SWI      +338
// 1582   wstrcat(fullname,L"/");
        ADR      R1,??isDir_1     ;; 0x2F, 0x00, 0x00, 0x00
        MOV      R0,SP
        SWI      +340
// 1583   wstrcat(fullname,name);
        MOV      R1,R4
        MOV      R0,SP
        SWI      +340
// 1584   w_fstat(fullname,&fs);
        ADD      R1,SP,#+512
        MOV      R0,SP
        SWI      +761
// 1585   return(fs.attr&FA_DIRECTORY);
        LDR      R0,[SP, #+512]
        ADD      SP,SP,#+552
        CFI CFA R13+8
        AND      R0,R0,#0x4000
        POP      {R4,PC}          ;; return
        DATA
??isDir_1:
        DC8      0x2F, 0x00, 0x00, 0x00
        CFI EndBlock cfiBlock109
// 1586 }

        RSEG CODE:CODE:NOROOT(2)
        CFI Block cfiBlock110 Using cfiCommon0
        CFI NoFunction
        THUMB
??Mp3Filter??rT:
        BX       PC
        Nop      
        CFI EndBlock cfiBlock110
        REQUIRE ??Mp3Filter
// 1587 

        RSEG CODE:CODE:NOROOT(2)
        CFI Block cfiBlock111 Using cfiCommon1
        CFI Function ??Mp3Filter
        ARM
// 1588 int Mp3Filter(const wchar_t *ExtList, const wchar_t *ItemPath, const wchar_t *ItemName)
// 1589 {
??Mp3Filter:
        PUSH     {R4,R5,LR}
        CFI ?RET Frame(CFA, -4)
        CFI R5 Frame(CFA, -8)
        CFI R4 Frame(CFA, -12)
        CFI CFA R13+12
        MOV      R4,R1
        MOV      R5,R2
// 1590   if(DataBrowser_isFileInListExt(ExtList,ItemPath,ItemName)) return 1;
        SWI      +295
        CMP      R0,#+0
        MOVNE    R0,#+1
        POPNE    {R4,R5,PC}
// 1591   if(isDir(ItemPath, ItemName)) return 1;
        MOV      R1,R5
        MOV      R0,R4
        BL       ??isDir
        CMP      R0,#+0
        MOVNE    R0,#+1
// 1592   return 0;
        POP      {R4,R5,PC}       ;; return
        CFI EndBlock cfiBlock111
// 1593 }

        RSEG CODE:CODE:NOROOT(2)
        CFI Block cfiBlock112 Using cfiCommon0
        CFI NoFunction
        THUMB
??CreateDB??rT:
        BX       PC
        Nop      
        CFI EndBlock cfiBlock112
        REQUIRE ??CreateDB
// 1594 

        RSEG CODE:CODE:NOROOT(2)
        CFI Block cfiBlock113 Using cfiCommon1
        CFI Function ??CreateDB
        ARM
// 1595 static int CreateDB(void *, BOOK * book)
// 1596 {
??CreateDB:
        PUSH     {R4-R6,LR}
        CFI ?RET Frame(CFA, -4)
        CFI R6 Frame(CFA, -8)
        CFI R5 Frame(CFA, -12)
        CFI R4 Frame(CFA, -16)
        CFI CFA R13+16
// 1597   if(TagBook->PlayMode==1){
        LDR      R6,??DataTable177  ;; TagBook
        SUB      SP,SP,#+12
        CFI CFA R13+28
        LDR      R0,[R6, #+0]
        MOV      R4,R1
        LDR      R0,[R0, #+152]
        MOV      R5,#+0
        CMP      R0,#+1
        BNE      ??CreateDB_1
// 1598     PlaySystemSound(7);
        MOV      R0,#+7
        SWI      +602
// 1599     TagBook->PlayMode=0;
        LDR      R0,[R6, #+0]
        STR      R5,[R0, #+152]
// 1600   }
// 1601   void * DB_Desc=DataBrowserDesc_Create();
??CreateDB_1:
        SWI      +287
        MOV      R6,R0
// 1602   const wchar_t * folder_list[3];
// 1603   folder_list[0]=GetDir(DIR_AUDIO|MEM_INTERNAL);
        MOV      R0,#+1
        SWI      +261
        STR      R0,[SP, #+0]
// 1604   folder_list[1]=GetDir(DIR_AUDIO|MEM_EXTERNAL);
        MOV      R0,#+0
        SWI      +261
        STR      R0,[SP, #+4]
// 1605   folder_list[2]=0;
        STR      R5,[SP, #+8]
// 1606   DataBrowserDesc_SetHeaderText(DB_Desc,TextID_Create(NAME_OPEN_FILE, ENC_UCS2, TEXTID_ANY_LEN));
        LDR      R5,??CreateDB_2  ;; `?<Constant L"\\x2a\\x2e\\x6d\\x70\\x33">`
        MOV      R2,#+255
        ORR      R2,R2,#0xFF00
        MOV      R1,#+0
        ADD      R0,R5,#+12
        SWI      +349
        MOV      R1,R0
        MOV      R0,R6
        SWI      +289
// 1607   DataBrowserDesc_SetBookID(DB_Desc,BookObj_GetBookID(book));
        MOV      R0,R4
        SWI      +506
        MOV      R1,R0
        MOV      R0,R6
        SWI      +685
// 1608   DataBrowserDesc_SetFolders(DB_Desc,folder_list);
        MOV      R1,SP
        MOV      R0,R6
        SWI      +290
// 1609   DataBrowserDesc_SetSelectActionOnFolders(DB_Desc,1);
        MOV      R1,#+1
        MOV      R0,R6
        SWI      +684
// 1610   DataBrowserDesc_SetFoldersNumber(DB_Desc,2);
        MOV      R1,#+2
        MOV      R0,R6
        SWI      +681
// 1611   DataBrowserDesc_SetFileExtList(DB_Desc,L"*.mp3");
        MOV      R1,R5
        MOV      R0,R6
        SWI      +689
// 1612   DataBrowserDesc_SetItemFilter(DB_Desc,Mp3Filter);
        LDR      R1,??CreateDB_2+0x4  ;; ??Mp3Filter
        MOV      R0,R6
        SWI      +686
// 1613   DataBrowser_Create(DB_Desc);
        MOV      R0,R6
        SWI      +292
// 1614   return(0);
        MOV      R0,#+0
        POP      {R1-R6,PC}       ;; return
        DATA
??CreateDB_2:
        DC32     `?<Constant L"\\x2a\\x2e\\x6d\\x70\\x33">`
        DC32     ??Mp3Filter
        CFI EndBlock cfiBlock113
// 1615 };

        RSEG CODE:CODE:NOROOT(2)
        CFI Block cfiBlock114 Using cfiCommon0
        CFI NoFunction
        THUMB
??YesPress??rT:
        BX       PC
        Nop      
        CFI EndBlock cfiBlock114
        REQUIRE ??YesPress
// 1616 

        RSEG DYN_PAGE:CONST:SORT:NOROOT(2)
// 1617 const PAGE_MSG bk_msglst_db[] @ "DYN_PAGE"  =
bk_msglst_db:
        DATA
        DC32 66, ??CreateDB, 76, ??onAccept_DB, 77, ??onCancelDB, 78
        DC32 ??onCancelDB, 64, 0H
// 1618 {
// 1619   PAGE_ENTER_EVENT_TAG,     CreateDB,
// 1620   ACCEPT_EVENT_TAG,         onAccept_DB,
// 1621   PREVIOUS_EVENT_TAG,       onCancelDB,
// 1622   CANCEL_EVENT_TAG,         onCancelDB,
// 1623   NIL_EVENT_TAG,            NULL
// 1624 };
// 1625 
// 1626 const PAGE_DESC base_db = {"TagEditor_openFile",0,bk_msglst_db};
// 1627 

        RSEG CODE:CODE:NOROOT(2)
        CFI Block cfiBlock115 Using cfiCommon1
        CFI Function ??YesPress
        ARM
// 1628 void YesPress( BOOK* bk, GUI* )
// 1629 {
??YesPress:
        PUSH     {R4,R5,LR}
        CFI ?RET Frame(CFA, -4)
        CFI R5 Frame(CFA, -8)
        CFI R4 Frame(CFA, -12)
        CFI CFA R13+12
// 1630   GUIObject_Destroy(TagBook->yn);
        LDR      R4,??DataTable177  ;; TagBook
// 1631   TagBook->yn=0;
        MOV      R5,#+0
        LDR      R0,[R4, #+0]
        LDR      R0,[R0, #+100]
        SWI      +462
        LDR      R0,[R4, #+0]
        STR      R5,[R0, #+100]
// 1632   GUIObject_Destroy(TagBook->GlavMenu);
        LDR      R0,[R0, #+104]
        SWI      +462
// 1633   TagBook->GlavMenu=0;
        LDR      R0,[R4, #+0]
        STR      R5,[R0, #+104]
// 1634   FileWrite();
        BL       ??FileWrite
// 1635   BookObj_GotoPage(&TagBook->book, &base_db);
        LDR      R1,??DataTable164  ;; `?<Constant "TagEditor">` + 12
        LDR      R0,[R4, #+0]
        SWI      +301
// 1636 }
        POP      {R4,R5,PC}       ;; return
        CFI EndBlock cfiBlock115

        RSEG CODE:CODE:NOROOT(2)
        CFI Block cfiBlock116 Using cfiCommon0
        CFI NoFunction
        THUMB
??NoPress??rT:
        BX       PC
        Nop      
        CFI EndBlock cfiBlock116
        REQUIRE ??NoPress
// 1637 

        RSEG CODE:CODE:NOROOT(2)
        CFI Block cfiBlock117 Using cfiCommon1
        CFI Function ??NoPress
        ARM
// 1638 void NoPress( BOOK* bk, GUI* )
// 1639 {
??NoPress:
        PUSH     {R4,R5,LR}
        CFI ?RET Frame(CFA, -4)
        CFI R5 Frame(CFA, -8)
        CFI R4 Frame(CFA, -12)
        CFI CFA R13+12
// 1640   if(TagBook->Run!=0)
        LDR      R4,??DataTable177  ;; TagBook
        LDR      R0,[R4, #+0]
        LDR      R1,[R0, #+200]
        CMP      R1,#+0
        BEQ      ??NoPress_1
// 1641   {
// 1642     elfload(TagBook->TON,0,0,0);
        LDR      R0,[R0, #+248]
        MOV      R3,#+0
        MOV      R2,#+0
        MOV      R1,R2
        SWI      +269
// 1643   }
// 1644   GUIObject_Destroy(TagBook->yn);
??NoPress_1:
        LDR      R0,[R4, #+0]
// 1645   TagBook->yn=0;
        MOV      R5,#+0
        LDR      R0,[R0, #+100]
        SWI      +462
        LDR      R0,[R4, #+0]
        STR      R5,[R0, #+100]
// 1646   GUIObject_Destroy(TagBook->GlavMenu);
        LDR      R0,[R0, #+104]
        SWI      +462
// 1647   TagBook->GlavMenu=0;
        LDR      R0,[R4, #+0]
// 1648   BookObj_GotoPage(&TagBook->book, &base_db);
        LDR      R1,??DataTable164  ;; `?<Constant "TagEditor">` + 12
        STR      R5,[R0, #+104]
        SWI      +301
// 1649 }
        POP      {R4,R5,PC}       ;; return
        CFI EndBlock cfiBlock117

        RSEG CODE:CODE:NOROOT(2)
        CFI Block cfiBlock118 Using cfiCommon0
        CFI NoFunction
        THUMB
??ExitYN??rT:
        BX       PC
        Nop      
        CFI EndBlock cfiBlock118
        REQUIRE ??ExitYN
// 1650 

        RSEG CODE:CODE:NOROOT(2)
        CFI Block cfiBlock119 Using cfiCommon1
        CFI Function ??ExitYN
        ARM
// 1651 void ExitYN( BOOK* bk, GUI* )
// 1652 {
??ExitYN:
        PUSH     {R4,LR}
        CFI ?RET Frame(CFA, -4)
        CFI R4 Frame(CFA, -8)
        CFI CFA R13+8
// 1653   GUIObject_Destroy(TagBook->yn);
        LDR      R4,??DataTable177  ;; TagBook
        LDR      R0,[R4, #+0]
        LDR      R0,[R0, #+100]
        SWI      +462
// 1654   TagBook->yn=0;
        LDR      R0,[R4, #+0]
        MOV      R1,#+0
        STR      R1,[R0, #+100]
// 1655   GUIObject_Show(TagBook->GlavMenu);
        LDR      R0,[R0, #+104]
        SWI      +308
// 1656 }
        POP      {R4,PC}          ;; return
        CFI EndBlock cfiBlock119

        RSEG CODE:CODE:NOROOT(2)
        CFI Block cfiBlock120 Using cfiCommon0
        CFI NoFunction
        THUMB
??YesNo??rT:
        BX       PC
        Nop      
        CFI EndBlock cfiBlock120
        REQUIRE ??YesNo
// 1657 

        RSEG CODE:CODE:NOROOT(2)
        CFI Block cfiBlock121 Using cfiCommon1
        CFI Function ??YesNo
        ARM
// 1658 void YesNo()
// 1659 {
??YesNo:
        PUSH     {R4,R5,LR}
        CFI ?RET Frame(CFA, -4)
        CFI R5 Frame(CFA, -8)
        CFI R4 Frame(CFA, -12)
        CFI CFA R13+12
// 1660   if(TagBook->PlayMode==1){
        LDR      R4,??DataTable177  ;; TagBook
        LDR      R0,[R4, #+0]
        LDR      R0,[R0, #+152]
        CMP      R0,#+1
        BNE      ??YesNo_1
// 1661     PlaySystemSound(7);
        MOV      R0,#+7
        SWI      +602
// 1662     TagBook->PlayMode=0;
        LDR      R0,[R4, #+0]
        MOV      R1,#+0
        STR      R1,[R0, #+152]
// 1663   }
// 1664   TagBook->yn=CreateYesNoQuestionVA(0,
// 1665                                     VAR_BOOK(TagBook),
// 1666                                     VAR_YESNO_QUESTION(TextID_Create(QUESTION_SAVE_FILE, ENC_UCS2, TEXTID_ANY_LEN)),
// 1667                                     0);
??YesNo_1:
        LDR      R0,??YesNo_2     ;; `?<Constant L"\\x421\\x43e\\x445\\x440\\x430\\x43d\\x4`
        MOV      R2,#+255
        ORR      R2,R2,#0xFF00
// 1668   GUIObject_SoftKeys_SetAction(TagBook->yn, ACTION_YES, YesPress);
// 1669   GUIObject_SoftKeys_SetAction(TagBook->yn, ACTION_NO, NoPress);
// 1670   GUIObject_SoftKeys_SetAction(TagBook->yn, ACTION_BACK, ExitYN);
        LDR      R5,??YesNo_2+0x4  ;; ??ExitYN
        MOV      R1,#+0
        SWI      +349
        LDR      R3,??YesNo_2+0x8  ;; VAR_ARG_YESNO_QUESTION
        MOV      R1,#+0
        PUSH     {R1}
        CFI CFA R13+16
        LDR      R1,??DataTable160  ;; VAR_ARG_BOOK
        PUSH     {R0}
        CFI CFA R13+20
        LDR      R2,[R4, #+0]
        MOV      R0,#+0
        SWI      +677
        LDR      R3,[R4, #+0]
        LDR      R2,??YesNo_2+0xC  ;; ??YesPress
        STR      R0,[R3, #+100]
        LDR      R0,??YesNo_2+0x10  ;; ACTION_YES
        LDR      R1,[R0, #+0]
        LDR      R0,[R3, #+100]
        MOV      R1,R1, LSL #+16
        MOV      R1,R1, LSR #+16
        SWI      +331
        LDR      R0,??YesNo_2+0x14  ;; ACTION_NO
        LDR      R2,??YesNo_2+0x18  ;; ??NoPress
        LDR      R1,[R0, #+0]
        LDR      R0,[R4, #+0]
        MOV      R1,R1, LSL #+16
        LDR      R0,[R0, #+100]
        MOV      R1,R1, LSR #+16
        SWI      +331
        LDR      R0,??DataTable174  ;; ACTION_BACK
        MOV      R2,R5
        LDR      R1,[R0, #+0]
        LDR      R0,[R4, #+0]
        MOV      R1,R1, LSL #+16
        LDR      R0,[R0, #+100]
        MOV      R1,R1, LSR #+16
        SWI      +331
// 1671   GUIObject_SoftKeys_SetAction(TagBook->yn, ACTION_LONG_BACK, ExitYN);
        LDR      R0,??DataTable175  ;; ACTION_LONG_BACK
        MOV      R2,R5
        LDR      R1,[R0, #+0]
        LDR      R0,[R4, #+0]
        MOV      R1,R1, LSL #+16
        LDR      R0,[R0, #+100]
        MOV      R1,R1, LSR #+16
        SWI      +331
// 1672 }
        POP      {R0,R1,R4,R5,PC}  ;; return
        DATA
??YesNo_2:
        DC32     `?<Constant L"\\x421\\x43e\\x445\\x440\\x430\\x43d\\x4`
        DC32     ??ExitYN
        DC32     VAR_ARG_YESNO_QUESTION
        DC32     ??YesPress
        DC32     ACTION_YES
        DC32     ACTION_NO
        DC32     ??NoPress
        CFI EndBlock cfiBlock121

        RSEG CODE:CODE:NOROOT(2)
        DATA
??DataTable160:
        DC32     VAR_ARG_BOOK

        RSEG CODE:CODE:NOROOT(2)
        CFI Block cfiBlock122 Using cfiCommon0
        CFI NoFunction
        THUMB
??ExitGM??rT:
        BX       PC
        Nop      
        CFI EndBlock cfiBlock122
        REQUIRE ??ExitGM
// 1673 

        RSEG CODE:CODE:NOROOT(2)
        CFI Block cfiBlock123 Using cfiCommon1
        CFI Function ??ExitGM
        ARM
// 1674 void ExitGM( BOOK* bk, GUI* )
// 1675 {
??ExitGM:
        PUSH     {R4,LR}
        CFI ?RET Frame(CFA, -4)
        CFI R4 Frame(CFA, -8)
        CFI CFA R13+8
// 1676   if(TagBook->change)
        LDR      R4,??DataTable177  ;; TagBook
        LDR      R0,[R4, #+0]
        LDR      R1,[R0, #+120]
        CMP      R1,#+0
        BEQ      ??ExitGM_1
// 1677   {
// 1678     YesNo();
        POP      {R4,LR}          ;; Pop
        CFI R4 SameValue
        CFI ?RET R14
        CFI CFA R13+0
        B        ??YesNo          ;; tailcall
        CFI R4 Frame(CFA, -8)
        CFI ?RET Frame(CFA, -4)
        CFI CFA R13+8
// 1679   }
// 1680   else
// 1681   {
// 1682     GUIObject_Destroy(TagBook->GlavMenu);
??ExitGM_1:
        LDR      R0,[R0, #+104]
        SWI      +462
// 1683     TagBook->GlavMenu=0;
        LDR      R0,[R4, #+0]
        MOV      R1,#+0
        STR      R1,[R0, #+104]
// 1684     BookObj_GotoPage(&TagBook->book, &base_db);
        LDR      R1,??DataTable164  ;; `?<Constant "TagEditor">` + 12
        SWI      +301
// 1685   }
// 1686 }
        POP      {R4,PC}          ;; return
        CFI EndBlock cfiBlock123

        RSEG CODE:CODE:NOROOT(2)
        DATA
??DataTable164:
        DC32     `?<Constant "TagEditor">` + 12

        RSEG CODE:CODE:NOROOT(2)
        CFI Block cfiBlock124 Using cfiCommon0
        CFI NoFunction
        THUMB
??SetTitlePunktsGM??rT:
        BX       PC
        Nop      
        CFI EndBlock cfiBlock124
        REQUIRE ??SetTitlePunktsGM
// 1687 

        RSEG CODE:CODE:NOROOT(2)
        CFI Block cfiBlock125 Using cfiCommon1
        CFI Function ??SetTitlePunktsGM
        ARM
// 1688 int SetTitlePunktsGM(GUI_MESSAGE * msg)
// 1689 {
??SetTitlePunktsGM:
        PUSH     {R4-R6,LR}
        CFI ?RET Frame(CFA, -4)
        CFI R6 Frame(CFA, -8)
        CFI R5 Frame(CFA, -12)
        CFI R4 Frame(CFA, -16)
        CFI CFA R13+16
        SUB      SP,SP,#+4
        CFI CFA R13+20
        MOV      R4,R0
// 1690   int item;
// 1691   int imgID;
// 1692   switch( GUIonMessage_GetMsg(msg) )
        SWI      +884
        CMP      R0,#+1
        BNE      ??SetTitlePunktsGM_1
// 1693   {
// 1694     case 1:
// 1695       item=GUIonMessage_GetCreatedItemIndex(msg);
// 1696       if(item==0)
        LDR      R5,??SetTitlePunktsGM_2  ;; `?<Constant L"\\x49\\x44\\x33\\x76\\x31">`
        MOV      R0,R4
        SWI      +311
        MOV      R6,#+255
        ORR      R6,R6,#0xFF00
        CMP      R0,#+0
        BNE      ??SetTitlePunktsGM_3
// 1697       {
// 1698         GUIonMessage_SetMenuItemText(msg,TextID_Create(L"ID3v1",ENC_UCS2,TEXTID_ANY_LEN));
        MOV      R2,R6
        MOV      R1,#+0
        MOV      R0,R5
        SWI      +349
        MOV      R1,R0
        MOV      R0,R4
        SWI      +312
// 1699         GUIonMessage_SetMenuItemSecondLineText(msg,TextID_Create(NAME_EDIT1,ENC_UCS2,TEXTID_ANY_LEN));
        MOV      R2,R6
        MOV      R1,#+0
        ADD      R0,R5,#+60
        SWI      +349
        MOV      R1,R0
        MOV      R0,R4
        SWI      +313
// 1700         iconidname2id(Iconq,-1,&imgID);
        LDR      R0,??SetTitlePunktsGM_2+0x4  ;; Iconq
        B        ??SetTitlePunktsGM_4
// 1701         GUIonMessage_SetMenuItemIcon(msg, 0, imgID);
// 1702       }
// 1703       if(item==1)
??SetTitlePunktsGM_3:
        CMP      R0,#+1
        BNE      ??SetTitlePunktsGM_5
// 1704       {
// 1705         GUIonMessage_SetMenuItemText(msg,TextID_Create(L"ID3v2",ENC_UCS2,TEXTID_ANY_LEN));
        MOV      R2,R6
        MOV      R1,#+0
        ADD      R0,R5,#+12
        SWI      +349
        MOV      R1,R0
        MOV      R0,R4
        SWI      +312
// 1706         GUIonMessage_SetMenuItemSecondLineText(msg,TextID_Create(NAME_EDIT2,ENC_UCS2,TEXTID_ANY_LEN));
        MOV      R2,R6
        MOV      R1,#+0
        ADD      R0,R5,#+36
        SWI      +349
        MOV      R1,R0
        MOV      R0,R4
        SWI      +313
// 1707         iconidname2id(Iconw,-1,&imgID);
        LDR      R0,??SetTitlePunktsGM_2+0x8  ;; Iconw
        B        ??SetTitlePunktsGM_4
// 1708         GUIonMessage_SetMenuItemIcon(msg, 0, imgID);
// 1709         
// 1710       }
// 1711       if(item==2)
??SetTitlePunktsGM_5:
        CMP      R0,#+2
        BNE      ??SetTitlePunktsGM_1
// 1712       {
// 1713         GUIonMessage_SetMenuItemText(msg,TextID_Create(MENU_ITEM_TEXT_INFO,ENC_UCS2,TEXTID_ANY_LEN));
        MOV      R2,R6
        MOV      R1,#+0
        ADD      R0,R5,#+24
        SWI      +349
        MOV      R1,R0
        MOV      R0,R4
        SWI      +312
// 1714         GUIonMessage_SetMenuItemSecondLineText(msg,TextID_Create(TagBook->name,ENC_UCS2,TEXTID_ANY_LEN));
        LDR      R0,??DataTable177  ;; TagBook
        MOV      R2,R6
        LDR      R0,[R0, #+0]
        MOV      R1,#+0
        LDR      R0,[R0, #+240]
        SWI      +349
        MOV      R1,R0
        MOV      R0,R4
        SWI      +313
// 1715         iconidname2id(Icone,-1,&imgID);
        LDR      R0,??SetTitlePunktsGM_2+0xC  ;; Icone
??SetTitlePunktsGM_4:
        MOV      R2,SP
        MVN      R1,#+0
        SWI      +646
// 1716         GUIonMessage_SetMenuItemIcon(msg, 0, imgID);
        LDR      R2,[SP, #+0]
        MOV      R1,#+0
        MOV      R2,R2, LSL #+16
        MOV      R2,R2, LSR #+16
        MOV      R0,R4
        SWI      +316
// 1717       }
// 1718   }
// 1719   return(1);        
??SetTitlePunktsGM_1:
        MOV      R0,#+1
        POP      {R1,R4-R6,PC}    ;; return
        DATA
??SetTitlePunktsGM_2:
        DC32     `?<Constant L"\\x49\\x44\\x33\\x76\\x31">`
        DC32     Iconq
        DC32     Iconw
        DC32     Icone
        CFI EndBlock cfiBlock125
// 1720 }

        RSEG CODE:CODE:NOROOT(2)
        CFI Block cfiBlock126 Using cfiCommon0
        CFI NoFunction
        THUMB
??PlayF??rT:
        BX       PC
        Nop      
        CFI EndBlock cfiBlock126
        REQUIRE ??PlayF
// 1721 

        RSEG CODE:CODE:NOROOT(2)
        CFI Block cfiBlock127 Using cfiCommon1
        CFI Function ??PlayF
        ARM
// 1722 void PlayF( BOOK* bk, GUI* )
// 1723 {
??PlayF:
        PUSH     {R4-R7,LR}
        CFI ?RET Frame(CFA, -4)
        CFI R7 Frame(CFA, -8)
        CFI R6 Frame(CFA, -12)
        CFI R5 Frame(CFA, -16)
        CFI R4 Frame(CFA, -20)
        CFI CFA R13+20
// 1724   if(TagBook->PlayMode==0)
        LDR      R4,??DataTable177  ;; TagBook
        LDR      R7,??DataTable167  ;; `?<Constant L"\\x421\\x442\\x43e\\x43f">`
        LDR      R0,[R4, #+0]
        MOV      R6,#+255
        LDR      R1,[R0, #+152]
        ORR      R6,R6,#0xFF00
        MOV      R5,#+296
        CMP      R1,#+0
        BNE      ??PlayF_1
// 1725   {
// 1726     PlayFile(TagBook->path,TagBook->name);
        LDR      R1,[R0, #+240]
        LDR      R0,[R0, #+244]
        SWI      +434
// 1727     wstrcpy(TagBook->PlayText,SOFTKEY_STATUS_STOP);
        LDR      R0,[R4, #+0]
        MOV      R1,R7
        ADD      R0,R5,R0
        SWI      +338
// 1728     GUIObject_SoftKeys_SetText(TagBook->GlavMenu,1,TextID_Create(TagBook->PlayText,ENC_UCS2,TEXTID_ANY_LEN));
        LDR      R0,[R4, #+0]
        MOV      R2,R6
        MOV      R1,#+0
        ADD      R0,R5,R0
        SWI      +349
        MOV      R2,R0
        LDR      R0,[R4, #+0]
        MOV      R1,#+1
        LDR      R0,[R0, #+104]
        SWI      +332
// 1729     TagBook->PlayMode=1;
        LDR      R0,[R4, #+0]
        MOV      R1,#+1
        STR      R1,[R0, #+152]
        POP      {R4-R7,PC}
// 1730   }else{
// 1731     PlaySystemSound(7);
??PlayF_1:
        MOV      R0,#+7
        SWI      +602
// 1732     wstrcpy(TagBook->PlayText,SOFTKEY_STATUS_PLAY);
        LDR      R0,[R4, #+0]
        ADD      R1,R7,#+12
        ADD      R0,R5,R0
        SWI      +338
// 1733     GUIObject_SoftKeys_SetText(TagBook->GlavMenu,1,TextID_Create(TagBook->PlayText,ENC_UCS2,TEXTID_ANY_LEN));
        LDR      R0,[R4, #+0]
        MOV      R2,R6
        MOV      R1,#+0
        ADD      R0,R5,R0
        SWI      +349
        MOV      R2,R0
        LDR      R0,[R4, #+0]
        MOV      R1,#+1
        LDR      R0,[R0, #+104]
        SWI      +332
// 1734     TagBook->PlayMode=0;
        LDR      R0,[R4, #+0]
        MOV      R1,#+0
        STR      R1,[R0, #+152]
// 1735   }
// 1736 }
        POP      {R4-R7,PC}       ;; return
        CFI EndBlock cfiBlock127

        RSEG CODE:CODE:NOROOT(2)
        DATA
??DataTable167:
        DC32     `?<Constant L"\\x421\\x442\\x43e\\x43f">`

        RSEG CODE:CODE:NOROOT(2)
        CFI Block cfiBlock128 Using cfiCommon0
        CFI NoFunction
        THUMB
??DeleteTag??rT:
        BX       PC
        Nop      
        CFI EndBlock cfiBlock128
        REQUIRE ??DeleteTag
// 1737 

        RSEG CODE:CODE:NOROOT(2)
        CFI Block cfiBlock129 Using cfiCommon1
        CFI Function ??DeleteTag
        ARM
// 1738 void DeleteTag(int x)
// 1739 {
??DeleteTag:
        PUSH     {R4-R6,LR}
        CFI ?RET Frame(CFA, -4)
        CFI R6 Frame(CFA, -8)
        CFI R5 Frame(CFA, -12)
        CFI R4 Frame(CFA, -16)
        CFI CFA R13+16
// 1740   if(x==0)
        LDR      R4,??DataTable177  ;; TagBook
        MOV      R5,#+0
        CMP      R0,#+0
        BNE      ??DeleteTag_1
// 1741   {
// 1742     for(int i=0; i<=29; i++)
        MOV      R1,#+0
// 1743     {
// 1744       TagBook->UTitle[i]=0;
??DeleteTag_2:
        LDR      R0,[R4, #+0]
        LDR      R2,[R0, #+284]
        ADD      R2,R2,R1, LSL #+1
        STRH     R5,[R2, #+0]
// 1745       TagBook->UAutor[i]=0;
        LDR      R2,[R0, #+260]
        ADD      R2,R2,R1, LSL #+1
        STRH     R5,[R2, #+0]
// 1746       TagBook->UAlbum[i]=0;
        LDR      R2,[R0, #+252]
        ADD      R2,R2,R1, LSL #+1
        STRH     R5,[R2, #+0]
// 1747       TagBook->UComment[i]=0;
        LDR      R2,[R0, #+272]
        ADD      R2,R2,R1, LSL #+1
        STRH     R5,[R2, #+0]
// 1748     }
        ADD      R1,R1,#+1
        CMP      R1,#+30
        BLT      ??DeleteTag_2
// 1749     for(int i=0; i<=3; i++)
        MOV      R1,#+0
// 1750     {
// 1751       TagBook->UYear[i]=0;
??DeleteTag_3:
        LDR      R2,[R0, #+292]
        ADD      R2,R2,R1, LSL #+1
        STRH     R5,[R2, #+0]
// 1752     }
        ADD      R1,R1,#+1
        CMP      R1,#+4
        BGE      ??DeleteTag_4
        B        ??DeleteTag_3
// 1753   }
// 1754   if(x==1)
??DeleteTag_1:
        CMP      R0,#+1
        BNE      ??DeleteTag_4
// 1755   {
// 1756     for(int i=0; i<=(wstrlen(TagBook->UTitle2)-1); i++)
        MOV      R6,#+0
        B        ??DeleteTag_5
// 1757     {
// 1758       TagBook->UTitle2[i]=0;
??DeleteTag_6:
        LDR      R0,[R4, #+0]
        LDR      R0,[R0, #+288]
        ADD      R0,R0,R6, LSL #+1
        STRH     R5,[R0, #+0]
// 1759     }
        ADD      R6,R6,#+1
??DeleteTag_5:
        LDR      R0,[R4, #+0]
        LDR      R0,[R0, #+288]
        SWI      +343
        SUB      R0,R0,#+1
        CMP      R0,R6
        BGE      ??DeleteTag_6
// 1760     for(int i=0; i<=(wstrlen(TagBook->UAutor2)-1); i++)
        MOV      R6,#+0
        B        ??DeleteTag_7
// 1761     {
// 1762       TagBook->UAutor2[i]=0;
??DeleteTag_8:
        LDR      R0,[R4, #+0]
        LDR      R0,[R0, #+264]
        ADD      R0,R0,R6, LSL #+1
        STRH     R5,[R0, #+0]
// 1763     }
        ADD      R6,R6,#+1
??DeleteTag_7:
        LDR      R0,[R4, #+0]
        LDR      R0,[R0, #+264]
        SWI      +343
        SUB      R0,R0,#+1
        CMP      R0,R6
        BGE      ??DeleteTag_8
// 1764     for(int i=0; i<=(wstrlen(TagBook->UAlbum2)-1); i++)
        MOV      R6,#+0
        B        ??DeleteTag_9
// 1765     {
// 1766       TagBook->UAlbum2[i]=0;
??DeleteTag_10:
        LDR      R0,[R4, #+0]
        LDR      R0,[R0, #+256]
        ADD      R0,R0,R6, LSL #+1
        STRH     R5,[R0, #+0]
// 1767     }
        ADD      R6,R6,#+1
??DeleteTag_9:
        LDR      R0,[R4, #+0]
        LDR      R0,[R0, #+256]
        SWI      +343
        SUB      R0,R0,#+1
        CMP      R0,R6
        BGE      ??DeleteTag_10
// 1768   }
// 1769   TagBook->change++;
??DeleteTag_4:
        LDR      R0,[R4, #+0]
        LDR      R1,[R0, #+120]
        ADD      R1,R1,#+1
        STR      R1,[R0, #+120]
// 1770 }
        POP      {R4-R6,PC}       ;; return
        CFI EndBlock cfiBlock129

        RSEG CODE:CODE:NOROOT(2)
        CFI Block cfiBlock130 Using cfiCommon0
        CFI NoFunction
        THUMB
??NewKey??rT:
        BX       PC
        Nop      
        CFI EndBlock cfiBlock130
        REQUIRE ??NewKey
// 1771 

        RSEG CODE:CODE:NOROOT(2)
        CFI Block cfiBlock131 Using cfiCommon1
        CFI Function ??NewKey
        ARM
// 1772 void NewKey(DISP_OBJ* p, int i1, int i2, int i3, int i4)
// 1773 {
??NewKey:
        PUSH     {R4-R7,LR}
        CFI ?RET Frame(CFA, -4)
        CFI R7 Frame(CFA, -8)
        CFI R6 Frame(CFA, -12)
        CFI R5 Frame(CFA, -16)
        CFI R4 Frame(CFA, -20)
        CFI CFA R13+20
        LDR      R6,[SP, #+20]
// 1774   TagBook->OldKey(p, i1, i2, i3, i4);
        LDR      R5,??DataTable177  ;; TagBook
        MOV      R4,R1
        MOV      R1,R6
        PUSH     {R1}
        CFI CFA R13+24
        LDR      R7,[R5, #+0]
        MOV      R1,R4
        LDR      R7,[R7, #+228]
        BLX      R7
// 1775   if(i4==KBD_SHORT_RELEASE && i1==KEY_DEL)
        LDR      R0,??DataTable170  ;; KBD_SHORT_RELEASE
        LDR      R0,[R0, #+0]
        ADD      SP,SP,#+4
        CFI CFA R13+20
        CMP      R6,R0
        POPNE    {R4-R7,PC}
        LDR      R0,??DataTable171  ;; KEY_DEL
        LDR      R0,[R0, #+0]
        CMP      R4,R0
        BNE      ??NewKey_1
// 1776   {
// 1777     int sel=ListMenu_GetSelectedItem(TagBook->GlavMenu);
        LDR      R0,[R5, #+0]
        LDR      R0,[R0, #+104]
        SWI      +318
// 1778     if(sel<=4)
        CMP      R0,#+5
        BGE      ??NewKey_1
// 1779     {
// 1780       DeleteTag(sel);
        BL       ??DeleteTag
??NewKey_1:
        LDR      R0,??DataTable172  ;; KEY_DIGITAL_0
        LDR      R6,[R0, #+0]
        CMP      R4,R6
        BNE      ??NewKey_2
// 1781     }
// 1782   }
// 1783   if(i4==KBD_SHORT_RELEASE && i1==KEY_DIGITAL_0)
// 1784   {
// 1785     PlayF((BOOK*)TagBook,0);
        LDR      R0,[R5, #+0]
        MOV      R1,#+0
        BL       ??PlayF
??NewKey_2:
        MOV      R7,#+0
        ADD      R0,R6,#+1
        CMP      R4,R0
        BNE      ??NewKey_3
// 1786   }
// 1787   if(i4==KBD_SHORT_RELEASE && i1==(KEY_DIGITAL_0+1))
// 1788   {
// 1789     CreateML1(0);
        MOV      R0,#+0
        BL       ??CreateML1
// 1790     GUIObject_Destroy(TagBook->GlavMenu);
        LDR      R0,[R5, #+0]
        LDR      R0,[R0, #+104]
        SWI      +462
// 1791     TagBook->GlavMenu=0;
        LDR      R0,[R5, #+0]
        STR      R7,[R0, #+104]
??NewKey_3:
        ADD      R0,R6,#+2
        CMP      R4,R0
        BNE      ??NewKey_4
// 1792   }
// 1793   if(i4==KBD_SHORT_RELEASE && i1==(KEY_DIGITAL_0+2))
// 1794   {
// 1795     CreateML2(0);
        MOV      R0,#+0
        BL       ??CreateML2
// 1796     GUIObject_Destroy(TagBook->GlavMenu);
        LDR      R0,[R5, #+0]
        LDR      R0,[R0, #+104]
        SWI      +462
// 1797     TagBook->GlavMenu=0;
        LDR      R0,[R5, #+0]
        STR      R7,[R0, #+104]
??NewKey_4:
        ADD      R0,R6,#+3
        CMP      R4,R0
        BNE      ??NewKey_5
// 1798   }
// 1799   if(i4==KBD_SHORT_RELEASE && i1==(KEY_DIGITAL_0+3))
// 1800   {
// 1801     ShowInfo();
        BL       ??ShowInfo
??NewKey_5:
        ADD      R0,R6,#+11
        CMP      R4,R0
        POPNE    {R4-R7,PC}
// 1802   }
// 1803   if(i4==KBD_SHORT_RELEASE && i1==(KEY_DIGITAL_0+11))
// 1804   {
// 1805     ShowInfo();
        BL       ??ShowInfo
// 1806   }
// 1807 }
        POP      {R4-R7,PC}       ;; return
        CFI EndBlock cfiBlock131

        RSEG CODE:CODE:NOROOT(2)
        DATA
??DataTable170:
        DC32     KBD_SHORT_RELEASE

        RSEG CODE:CODE:NOROOT(2)
        DATA
??DataTable171:
        DC32     KEY_DEL

        RSEG CODE:CODE:NOROOT(2)
        DATA
??DataTable172:
        DC32     KEY_DIGITAL_0

        RSEG CODE:CODE:NOROOT(2)
        CFI Block cfiBlock132 Using cfiCommon0
        CFI NoFunction
        THUMB
??CreateGlavMenu??rT:
        BX       PC
        Nop      
        CFI EndBlock cfiBlock132
        REQUIRE ??CreateGlavMenu
// 1808 

        RSEG CODE:CODE:NOROOT(2)
        CFI Block cfiBlock133 Using cfiCommon1
        CFI Function ??CreateGlavMenu
        ARM
// 1809 void CreateGlavMenu(int x)
// 1810 {
??CreateGlavMenu:
        PUSH     {R4-R7,LR}
        CFI ?RET Frame(CFA, -4)
        CFI R7 Frame(CFA, -8)
        CFI R6 Frame(CFA, -12)
        CFI R5 Frame(CFA, -16)
        CFI R4 Frame(CFA, -20)
        CFI CFA R13+20
// 1811   GUI_LIST*GM=CreateListMenu((BOOK*)TagBook,0);
        LDR      R5,??DataTable177  ;; TagBook
        MOV      R6,R0
        LDR      R0,[R5, #+0]
        MOV      R1,#+0
        SWI      +448
        MOV      R4,R0
// 1812   TagBook->GlavMenu=GM;
        LDR      R0,[R5, #+0]
// 1813   GUIObject_SetTitleText(GM, TextID_Create(NAME_TAG_EDITOR,ENC_UCS2,TEXTID_ANY_LEN));
        MOV      R7,#+255
        STR      R4,[R0, #+104]
