##############################################################################
#                                                                            #
# IAR ARM ANSI C/C++ Compiler V4.42A/W32 EVALUATION    10/Jun/2013  22:57:49 #
# Copyright 1999-2005 IAR Systems. All rights reserved.                      #
#                                                                            #
#    Cpu mode        =  interwork                                            #
#    Endian          =  little                                               #
#    Stack alignment =  4                                                    #
#    Source file     =  Z:\home\perk11\www\perk11.info\svn\SE\TagEditor\main #
#                       .c                                                   #
#    Command line    =  Z:\home\perk11\www\perk11.info\svn\SE\TagEditor\main #
#                       .c -D NDEBUG -D OLDFUNCTIONS -lC                     #
#                       Z:\home\perk11\www\perk11.info\svn\SE\TagEditor\Rele #
#                       ase\List\ -lA Z:\home\perk11\www\perk11.info\svn\SE\ #
#                       TagEditor\Release\List\ -o                           #
#                       Z:\home\perk11\www\perk11.info\svn\SE\TagEditor\Rele #
#                       ase\Obj\ -s9 --no_unroll --no_inline --cpu_mode arm  #
#                       --endian little --cpu ARM926EJ-S --stack_align 4     #
#                       --interwork -e --enable_multibytes --fpu None        #
#                       --eec++ --dlib_config Z:\home\perk11\IAR2\arm\LIB\dl #
#                       5tpainl8n.h -I Z:\home\perk11\IAR2\arm\INC\          #
#    List file       =  Z:\home\perk11\www\perk11.info\svn\SE\TagEditor\Rele #
#                       ase\List\main.lst                                    #
#    Object file     =  Z:\home\perk11\www\perk11.info\svn\SE\TagEditor\Rele #
#                       ase\Obj\main.r79                                     #
#                                                                            #
#                                                                            #
##############################################################################

Z:\home\perk11\www\perk11.info\svn\SE\TagEditor\main.c
      1          #include "..\\include\Lib_Clara.h"
      2          #include "..\\include\Dir.h"
      3          #include "..\\include\var_arg.h"
      4          #include "..\\include\cfg_items.h"
      5          #include "config_data.h"
      6          #include "conf_loader.h"
      7          
      8          #define FA_DIRECTORY 0x4000
      9          
     10          #define INDEX(x) x/8
     11          #define SHIFT(x) x%8
     12          #define GETBIT(v,x) ((v[INDEX(x)] << SHIFT(x)) & 0x80)>>7
     13          
     14          #define INFO_ALBUM L"Альбом: "
     15          #define INFO_ARTIST L"Исполнитель: "
     16          #define INFO_COMMENT L"Комментарий: "
     17          #define INFO_FILENAME L"Имя файла: "
     18          #define INFO_GENRE L"Жанр: "
     19          #define INFO_LOCALISATION L"Расположение: "
     20          #define INFO_TEXT L"Инфо mp3"
     21          #define INFO_TITLE L"Название: "
     22          #define INFO_YEAR L"Год: "
     23          #define INPUT_ALBUM L"Альбом:"
     24          #define INPUT_ARTIST L"Исполнитель:"
     25          #define INPUT_COMMENT L"Комментарий:"
     26          #define INPUT_TITLE L"Название:"
     27          #define INPUT_YEAR L"Год:"
     28          #define MENU_ITEM_TEXT_ALBUM L"Альбом"
     29          #define MENU_ITEM_TEXT_ARTIST L"Исполнитель"
     30          #define MENU_ITEM_TEXT_COMMENT L"Комментарий"
     31          #define MENU_ITEM_TEXT_GENRE L"Жанр"
     32          #define MENU_ITEM_TEXT_INFO L"Инфо"
     33          #define MENU_ITEM_TEXT_TITLE L"Название"
     34          #define MENU_ITEM_TEXT_YEAR L"Год"
     35          #define NAME_EDIT1 L"Ред. ID3v1"
     36          #define NAME_EDIT2 L"Ред. ID3v2"
     37          #define NAME_GENRE L"Выб. жанр"
     38          #define NAME_OPEN_FILE L"Открыть файл"
     39          #define NAME_TAG_EDITOR L"Редактор тегов"
     40          #define QUESTION_SAVE_FILE L"Сохранить перед выходом?"
     41          #define RENAME_ARTIST_NOT_FOUND L"Дорожка"
     42          #define RENAME_TITLE_NOT_FOUND L"Неизвестно"
     43          #define SOFTKEY_STATUS_PLAY L"Плей"
     44          #define SOFTKEY_STATUS_STOP L"Стоп"
     45          
     46          typedef struct
     47          {
     48            BOOK book;
     49            char * Album;
     50            char * Album2;
     51            char * Autor;
     52            char * Autor2;
     53            char * buffer;
     54            char * buffer2;
     55            char * Comment;
     56            char * newname;
     57            char * Title;
     58            char * Title2;
     59            char * Year;
     60            GUI * InputAlbum;
     61            GUI * InputAlbum2;
     62            GUI * InputAutor;
     63            GUI * InputAutor2;
     64            GUI * InputComment;
     65            GUI * InputTitle;
     66            GUI * InputTitle2;
     67            GUI * InputYear;
     68            GUI * yn;
     69            GUI_LIST * GlavMenu;
     70            GUI_LIST * GList;
     71            GUI_LIST * MenuList1;
     72            GUI_LIST * MenuList2;
     73            int change;
     74            int genre;
     75            int i2;
     76            int ID3;
     77            int ID3v1;
     78            int len_id3v2;
     79            int lenn;
     80            int lenp;
     81            int PlayMode;
     82            int pos2_Album;
     83            int pos2_Autor;
     84            int pos2_Title;
     85            int PosAlbum;
     86            int posAlbum2;
     87            int PosAutor;
     88            int posAutor2;
     89            int PosComment;
     90            int PosTitle;
     91            int posTitle2;
     92            int PosYear;
     93            int Run;
     94            int size;
     95            int size_id3;
     96            int size2;
     97            int sizeAlbum2;
     98            int sizeAutor2;
     99            int sizeTitle2;
    100            DISP_OBJ_ONKEY_METHOD OldKey;
    101            DISP_OBJ_ONKEY_METHOD OldKey1;
    102            DISP_OBJ_ONKEY_METHOD OldKey2;
    103            wchar_t * name;
    104            wchar_t * path;
    105            wchar_t * TON;
    106            wchar_t * UAlbum;
    107            wchar_t * UAlbum2;
    108            wchar_t * UAutor;
    109            wchar_t * UAutor2;
    110            wchar_t * Ubuffer2;
    111            wchar_t * UComment;
    112            wchar_t * UGenre;
    113            wchar_t * Unewname;
    114            wchar_t * UTitle;
    115            wchar_t * UTitle2;
    116            wchar_t * UYear;
    117            wchar_t PlayText[10];
    118          }MyBook;
    119          
    120          typedef struct
    121          {
    122            BOOK * book;
    123          }MSG;
    124          
    125          void FileRead(wchar_t*path, wchar_t*name);
    126          int onAccept_DB(void * data, BOOK * book);
    127          void CreateGlavMenu(int x);
    128          void CreateML1(int x);
    129          void CreateML2(int x);

   \                                 In segment DATA_Z, align 4, align-sorted
    130          MyBook * TagBook;
   \                     TagBook:
   \   00000000                      DS8 4
    131          

   \                                 In segment CODE, align 4, keep-with-next
    132          int TerminateElf(void * ,BOOK* book)
    133          {
   \                     ??TerminateElf:
   \   00000000   00402DE9           PUSH     {LR}
   \   00000004   0100A0E1           MOV      R0,R1
    134            FreeBook(book);
   \   00000008   2F0100EF           SWI      +303
    135            return(1);
   \   0000000C   0100A0E3           MOV      R0,#+1
   \   00000010   0080BDE8           POP      {PC}             ;; return
    136          }
    137          

   \                                 In segment CODE, align 4, keep-with-next
    138          int ShowAuthorInfo(void *mess ,BOOK* book)
    139          {
   \                     ??ShowAuthorInfo:
   \   00000000   30402DE9           PUSH     {R4,R5,LR}
    140            MSG * msg = (MSG*)mess;
    141            MessageBox(EMPTY_TEXTID,STR("TagEditor v1.4\n(c) MoneyMasteR\naka\nDoCent"), NOIMAGE, 1, 5000,msg->book);
   \   00000004   0010A0E3           MOV      R1,#+0
   \   00000008   0040A0E1           MOV      R4,R0
   \   0000000C   3C009FE5           LDR      R0,??ShowAuthorInfo_1  ;; `?<Constant L"\\x54\\x61\\x67\\x45\\x64\\x69\\x74\\x6f\\`
   \   00000010   FF50A0E3           MOV      R5,#+255
   \   00000014   FF5C85E3           ORR      R5,R5,#0xFF00
   \   00000018   0520A0E1           MOV      R2,R5
   \   0000001C   5D0100EF           SWI      +349
   \   00000020   001094E5           LDR      R1,[R4, #+0]
   \   00000024   0130A0E3           MOV      R3,#+1
   \   00000028   02002DE9           PUSH     {R1}
   \   0000002C   0520A0E1           MOV      R2,R5
   \   00000030   8810A0E3           MOV      R1,#+136
   \   00000034   4C1D81E3           ORR      R1,R1,#0x1300
   \   00000038   02002DE9           PUSH     {R1}
   \   0000003C   0010A0E1           MOV      R1,R0
   \   00000040   9004E0E3           MVN      R0,#-1879048192
   \   00000044   570200EF           SWI      +599
    142            return(1);
   \   00000048   0100A0E3           MOV      R0,#+1
   \   0000004C   3680BDE8           POP      {R1,R2,R4,R5,PC}  ;; return
   \                     ??ShowAuthorInfo_1:
   \   00000050   ........           DC32     `?<Constant L"\\x54\\x61\\x67\\x45\\x64\\x69\\x74\\x6f\\`
    143          }
    144          

   \                                 In segment CODE, align 4, keep-with-next
    145          void elf_exit(void)
    146          {
   \                     ??elf_exit:
   \   00000000   00402DE9           PUSH     {LR}
    147            kill_data(&ELF_BEGIN, (void(*)(void*))mfree_adr());
   \   00000004   048100EF           SWI      +33028
   \   00000008   0010A0E1           MOV      R1,R0
   \   0000000C   04009FE5           LDR      R0,??elf_exit_1  ;; ELF_BEGIN
   \   00000010   0040BDE8           POP      {LR}             ;; Pop
   \   00000014   ........           _BF      kill_data,??kill_data??rA  ;; tailcall
   \                     ??elf_exit_1:
   \   00000018   ........           DC32     ELF_BEGIN
    148          }
    149          

   \                                 In segment CODE, align 4, keep-with-next
    150          void onCloseCreateFileBook(BOOK *book)
    151          {
    152            if(TagBook->PlayMode==1)
   \                     ??onCloseCreateFileBook:
   \   00000000   ........           LDR      R0,??DataTable0  ;; TagBook
   \   00000004   00402DE9           PUSH     {LR}
   \   00000008   000090E5           LDR      R0,[R0, #+0]
   \   0000000C   980090E5           LDR      R0,[R0, #+152]
   \   00000010   010050E3           CMP      R0,#+1
   \   00000014   0100001A           BNE      ??onCloseCreateFileBook_1
    153            {
    154              PlaySystemSound(7);
   \   00000018   0700A0E3           MOV      R0,#+7
   \   0000001C   5A0200EF           SWI      +602
    155            }
    156            SUBPROC(elf_exit);
   \                     ??onCloseCreateFileBook_1:
   \   00000020   04009FE5           LDR      R0,??onCloseCreateFileBook_2  ;; ??elf_exit
   \   00000024   080100EF           SWI      +264
    157          }
   \   00000028   0080BDE8           POP      {PC}             ;; return
   \                     ??onCloseCreateFileBook_2:
   \   0000002C   ........           DC32     ??elf_exit
    158          

   \                                 In segment CODE, align 4, keep-with-next
    159          static int onReconfigElf(void *mess ,BOOK *book)
    160          {
   \                     ??onReconfigElf:
   \   00000000   30402DE9           PUSH     {R4,R5,LR}
   \   00000004   0040A0E1           MOV      R4,R0
    161            RECONFIG_EVENT_DATA *reconf=(RECONFIG_EVENT_DATA *)mess;
    162            int result=0;
    163            if (wstrcmpi(reconf->path,successed_config_path)==0 && wstrcmpi(reconf->name,successed_config_name)==0)
   \   00000008   3C009FE5           LDR      R0,??onReconfigElf_1  ;; successed_config_path
   \   0000000C   0050A0E3           MOV      R5,#+0
   \   00000010   001090E5           LDR      R1,[R0, #+0]
   \   00000014   0400A0E1           MOV      R0,R4
   \   00000018   9F0200EF           SWI      +671
   \   0000001C   000050E3           CMP      R0,#+0
   \   00000020   0700001A           BNE      ??onReconfigElf_2
   \   00000024   24009FE5           LDR      R0,??onReconfigElf_1+0x4  ;; successed_config_name
   \   00000028   001090E5           LDR      R1,[R0, #+0]
   \   0000002C   800084E2           ADD      R0,R4,#+128
   \   00000030   9F0200EF           SWI      +671
   \   00000034   000050E3           CMP      R0,#+0
   \   00000038   0100001A           BNE      ??onReconfigElf_2
    164            {
    165              InitConfig();
   \   0000003C   ........           _BLF     ??InitConfig,??InitConfig??rA
    166              result=1;
   \   00000040   0150A0E3           MOV      R5,#+1
    167            }
    168            return(result);
   \                     ??onReconfigElf_2:
   \   00000044   0500A0E1           MOV      R0,R5
   \   00000048   3080BDE8           POP      {R4,R5,PC}       ;; return
   \                     ??onReconfigElf_1:
   \   0000004C   ........           DC32     successed_config_path
   \   00000050   ........           DC32     successed_config_name
    169          }
    170          
    171          
    172          

   \                                 In segment CODE, align 4, keep-with-next
    173          int synchsafeToNormal(char tagSize[4])
    174          {
   \                     ??synchsafeToNormal:
   \   00000000   30002DE9           PUSH     {R4,R5}
    175            int synchsafe, sizeloc, size, power, x;    
    176            size=sizeloc=0;      
   \   00000004   0020A0E3           MOV      R2,#+0
   \   00000008   0010A0E3           MOV      R1,#+0
    177            for(synchsafe=31;synchsafe>=0;synchsafe--)
   \   0000000C   1F30A0E3           MOV      R3,#+31
    178            {        
    179              if(GETBIT(tagSize, synchsafe))
   \                     ??synchsafeToNormal_1:
   \   00000010   4341A0E1           ASR      R4,R3,#+2
   \   00000014   A44E83E0           ADD      R4,R3,R4, LSR #+29
   \   00000018   C4C1A0E1           ASR      R12,R4,#+3
   \   0000001C   0050DCE7           LDRB     R5,[R12, +R0]
   \   00000020   8C4143E0           SUB      R4,R3,R12, LSL #+3
   \   00000024   1554A0E1           LSL      R5,R5,R4
   \   00000028   800015E3           TST      R5,#0x80
   \   0000002C   0900000A           BEQ      ??synchsafeToNormal_2
    180              {          
    181                power=1;            
   \   00000030   01C0A0E3           MOV      R12,#+1
    182                for(x=0;x<sizeloc;x++) power*=2;		
   \   00000034   0050A0E3           MOV      R5,#+0
   \   00000038   010052E3           CMP      R2,#+1
   \   0000003C   020000AA           BGE      ??synchsafeToNormal_3
   \   00000040   030000EA           B        ??synchsafeToNormal_4
   \                     ??synchsafeToNormal_5:
   \   00000044   8CC0A0E1           LSL      R12,R12,#+1
   \   00000048   015085E2           ADD      R5,R5,#+1
   \                     ??synchsafeToNormal_3:
   \   0000004C   020055E1           CMP      R5,R2
   \   00000050   FBFFFFBA           BLT      ??synchsafeToNormal_5
    183                size+=power;		
   \                     ??synchsafeToNormal_4:
   \   00000054   01108CE0           ADD      R1,R12,R1
    184              }		
    185              if(synchsafe%8) sizeloc++;	
   \                     ??synchsafeToNormal_2:
   \   00000058   000054E3           CMP      R4,#+0
   \   0000005C   01208212           ADDNE    R2,R2,#+1
    186            }	
   \   00000060   013053E2           SUBS     R3,R3,#+1
   \   00000064   E9FFFF5A           BPL      ??synchsafeToNormal_1
    187            return size;
   \   00000068   3000BDE8           POP      {R4,R5}
   \   0000006C   0100A0E1           MOV      R0,R1
   \   00000070   1EFF2FE1           BX       LR               ;; return
    188          };
    189          

   \                                 In segment CODE, align 4, keep-with-next
    190          void win12512unicode(wchar_t *ws, char *s, int len)
    191          {
   \                     ??win12512unicode:
   \   00000000   040000EA           B        ??win12512unicode_1
    192            int c;
    193            while((c=*s++)&&((len--)>0))
    194            {
    195              if (c==0xA8) c=0x401;
    196              if (c==0xAA) c=0x404;
    197              if (c==0xAF) c=0x407;
    198              if (c==0xB8) c=0x451;
    199              if (c==0xBA) c=0x454;
    200              if (c==0xBF) c=0x457;
    201              if ((c>=0xC0)&&(c<0x100)) c+=0x350;
   \                     ??win12512unicode_2:
   \   00000004   C00053E3           CMP      R3,#+192
   \   00000008   010000BA           BLT      ??win12512unicode_3
   \   0000000C   400F53E3           CMP      R3,#+256
   \   00000010   D43F83B2           ADDLT    R3,R3,#+848
    202              *ws++=c;
   \                     ??win12512unicode_3:
   \   00000014   ........           STRH     R3,[R0], #+2
   \                     ??win12512unicode_1:
   \   00000018   ........           LDRB     R3,[R1], #+1
   \   0000001C   000053E3           CMP      R3,#+0
   \   00000020   1900000A           BEQ      ??win12512unicode_4
   \   00000024   02C0A0E1           MOV      R12,R2
   \   00000028   01204CE2           SUB      R2,R12,#+1
   \   0000002C   01005CE3           CMP      R12,#+1
   \   00000030   150000BA           BLT      ??win12512unicode_4
   \   00000034   A80053E3           CMP      R3,#+168
   \   00000038   0200001A           BNE      ??win12512unicode_5
   \   0000003C   0130A0E3           MOV      R3,#+1
   \                     ??win12512unicode_6:
   \   00000040   403E83E3           ORR      R3,R3,#0x400
   \   00000044   F2FFFFEA           B        ??win12512unicode_3
   \                     ??win12512unicode_5:
   \   00000048   AA0053E3           CMP      R3,#+170
   \   0000004C   0430A003           MOVEQ    R3,#+4
   \   00000050   FAFFFF0A           BEQ      ??win12512unicode_6
   \   00000054   AF0053E3           CMP      R3,#+175
   \   00000058   0100001A           BNE      ??win12512unicode_7
   \   0000005C   0730A0E3           MOV      R3,#+7
   \                     ??win12512unicode_8:
   \   00000060   F6FFFFEA           B        ??win12512unicode_6
   \                     ??win12512unicode_7:
   \   00000064   B80053E3           CMP      R3,#+184
   \   00000068   5130A003           MOVEQ    R3,#+81
   \   0000006C   F3FFFF0A           BEQ      ??win12512unicode_6
   \   00000070   BA0053E3           CMP      R3,#+186
   \   00000074   5430A003           MOVEQ    R3,#+84
   \   00000078   F0FFFF0A           BEQ      ??win12512unicode_6
   \   0000007C   BF0053E3           CMP      R3,#+191
   \   00000080   DFFFFF1A           BNE      ??win12512unicode_2
   \   00000084   5730A0E3           MOV      R3,#+87
   \   00000088   ECFFFFEA           B        ??win12512unicode_6
    203            }
    204            *ws=0;
   \                     ??win12512unicode_4:
   \   0000008C   0010A0E3           MOV      R1,#+0
   \   00000090   B010C0E1           STRH     R1,[R0, #+0]
    205          }
   \   00000094   1EFF2FE1           BX       LR               ;; return
    206          

   \                                 In segment CODE, align 4, keep-with-next
    207          char * unicode2win1251(char *s, wchar_t *ws, int len)
    208          {
   \                     ??unicode2win1251:
   \   00000000   10002DE9           PUSH     {R4}
    209            char *d=s;
   \   00000004   0030A0E1           MOV      R3,R0
   \   00000008   060000EA           B        ??unicode2win1251_1
    210            int c;
    211            while((c=*ws++)&&((len--)>0))
    212            {
    213              if (c==0x401) c=0xA8;
    214              if (c==0x404) c=0xAA;
    215              if (c==0x407) c=0xAF;
    216              if (c==0x451) c=0xB8;
    217              if (c==0x454) c=0xBA;
    218              if (c==0x457) c=0xBF;
    219              if ((c>=0x410)&&(c<0x450)) c-=0x350;
   \                     ??unicode2win1251_2:
   \   0000000C   410E5CE3           CMP      R12,#+1040
   \   00000010   030000BA           BLT      ??unicode2win1251_3
   \   00000014   450E5CE3           CMP      R12,#+1104
   \   00000018   4F40E0B3           MVNLT    R4,#+79
   \   0000001C   C04FC4B3           BICLT    R4,R4,#0x300
   \   00000020   0CC084B0           ADDLT    R12,R4,R12
    220              *s++=c;
   \                     ??unicode2win1251_3:
   \   00000024   ........           STRB     R12,[R0], #+1
   \                     ??unicode2win1251_1:
   \   00000028   ........           LDRH     R12,[R1], #+2
   \   0000002C   00005CE3           CMP      R12,#+0
   \   00000030   1D00000A           BEQ      ??unicode2win1251_4
   \   00000034   0240A0E1           MOV      R4,R2
   \   00000038   012044E2           SUB      R2,R4,#+1
   \   0000003C   010054E3           CMP      R4,#+1
   \   00000040   190000BA           BLT      ??unicode2win1251_4
   \   00000044   0140A0E3           MOV      R4,#+1
   \   00000048   404E84E3           ORR      R4,R4,#0x400
   \   0000004C   04005CE1           CMP      R12,R4
   \   00000050   A8C0A003           MOVEQ    R12,#+168
   \   00000054   F2FFFF0A           BEQ      ??unicode2win1251_3
   \   00000058   034084E2           ADD      R4,R4,#+3
   \   0000005C   04005CE1           CMP      R12,R4
   \   00000060   AAC0A003           MOVEQ    R12,#+170
   \   00000064   EEFFFF0A           BEQ      ??unicode2win1251_3
   \   00000068   034084E3           ORR      R4,R4,#0x3
   \   0000006C   04005CE1           CMP      R12,R4
   \   00000070   AFC0A003           MOVEQ    R12,#+175
   \   00000074   EAFFFF0A           BEQ      ??unicode2win1251_3
   \   00000078   4A4084E2           ADD      R4,R4,#+74
   \   0000007C   04005CE1           CMP      R12,R4
   \   00000080   B8C0A003           MOVEQ    R12,#+184
   \   00000084   E6FFFF0A           BEQ      ??unicode2win1251_3
   \   00000088   034084E2           ADD      R4,R4,#+3
   \   0000008C   04005CE1           CMP      R12,R4
   \   00000090   BAC0A003           MOVEQ    R12,#+186
   \   00000094   E2FFFF0A           BEQ      ??unicode2win1251_3
   \   00000098   034084E3           ORR      R4,R4,#0x3
   \   0000009C   04005CE1           CMP      R12,R4
   \   000000A0   D9FFFF1A           BNE      ??unicode2win1251_2
   \   000000A4   BFC0A0E3           MOV      R12,#+191
   \   000000A8   DDFFFFEA           B        ??unicode2win1251_3
    221            }
    222            *s=0;
   \                     ??unicode2win1251_4:
   \   000000AC   0010A0E3           MOV      R1,#+0
   \   000000B0   0010C0E5           STRB     R1,[R0, #+0]
    223            return(d);
   \   000000B4   1000BDE8           POP      {R4}
   \   000000B8   0300A0E1           MOV      R0,R3
   \   000000BC   1EFF2FE1           BX       LR               ;; return
    224          }
    225          

   \                                 In segment CODE, align 4, keep-with-next
    226          char * GetGenre(int num)
    227          {
   \                     ??GetGenre:
   \   00000000   0010A0E1           MOV      R1,R0
    228            switch (num) 
   \   00000004   44069FE5           LDR      R0,??GetGenre_2+0x8  ;; `?<Constant "Blues">`
   \   00000008   930051E3           CMP      R1,#+147
   \   0000000C   8B01008A           BHI      ??GetGenre_3
   \   00000010   022F8FE2           ADR      R2,??GetGenre_1
   \   00000014   8110A0E1           MOV      R1,R1, LSL #+1
   \   00000018   B12092E1           LDRH     R2,[R2, R1]
   \   0000001C   02F18FE0           ADD      PC,PC,R2, LSL #+2
   \                     ??GetGenre_1:
   \   00000020   880149004B00       DC16     +392,+73,+75,+77
   \              4D00        
   \   00000028   4F0051005300       DC16     +79,+81,+83,+85
   \              5500        
   \   00000030   570059005B00       DC16     +87,+89,+91,+93
   \              5D00        
   \   00000038   5F0061006300       DC16     +95,+97,+99,+101
   \              6500        
   \   00000040   670069006B00       DC16     +103,+105,+107,+109
   \              6D00        
   \   00000048   6F0071007300       DC16     +111,+113,+115,+117
   \              7500        
   \   00000050   770079007B00       DC16     +119,+121,+123,+125
   \              7D00        
   \   00000058   7F0081008300       DC16     +127,+129,+131,+133
   \              8500        
   \   00000060   870089008B00       DC16     +135,+137,+139,+141
   \              8D00        
   \   00000068   8F0091009300       DC16     +143,+145,+147,+149
   \              9500        
   \   00000070   970099009B00       DC16     +151,+153,+155,+157
   \              9D00        
   \   00000078   9F00A100A300       DC16     +159,+161,+163,+165
   \              A500        
   \   00000080   A700A900AB00       DC16     +167,+169,+171,+173
   \              AD00        
   \   00000088   AF00B100B300       DC16     +175,+177,+179,+181
   \              B500        
   \   00000090   B700B900BB00       DC16     +183,+185,+187,+189
   \              BD00        
   \   00000098   BF00C100C300       DC16     +191,+193,+195,+197
   \              C500        
   \   000000A0   C700C900CB00       DC16     +199,+201,+203,+205
   \              CD00        
   \   000000A8   CF00D100D300       DC16     +207,+209,+211,+213
   \              D500        
   \   000000B0   D700D900DB00       DC16     +215,+217,+219,+221
   \              DD00        
   \   000000B8   DF00E100E300       DC16     +223,+225,+227,+229
   \              E500        
   \   000000C0   E700E900EB00       DC16     +231,+233,+235,+237
   \              ED00        
   \   000000C8   EF00F100F300       DC16     +239,+241,+243,+245
   \              F500        
   \   000000D0   F700F900FB00       DC16     +247,+249,+251,+253
   \              FD00        
   \   000000D8   FF0001010301       DC16     +255,+257,+259,+261
   \              0501        
   \   000000E0   070109010B01       DC16     +263,+265,+267,+269
   \              0D01        
   \   000000E8   0F0111011301       DC16     +271,+273,+275,+279
   \              1701        
   \   000000F0   19011B011D01       DC16     +281,+283,+285,+287
   \              1F01        
   \   000000F8   210123012501       DC16     +289,+291,+293,+295
   \              2701        
   \   00000100   29012B012D01       DC16     +297,+299,+301,+303
   \              2F01        
   \   00000108   310133013501       DC16     +305,+307,+309,+311
   \              3701        
   \   00000110   39013B013D01       DC16     +313,+315,+317,+319
   \              3F01        
   \   00000118   410143014601       DC16     +321,+323,+326,+328
   \              4801        
   \   00000120   4A014D015001       DC16     +330,+333,+336,+339
   \              5301        
   \   00000128   5A015D016001       DC16     +346,+349,+352,+355
   \              6301        
   \   00000130   660169016B01       DC16     +358,+361,+363,+366
   \              6E01        
   \   00000138   710174017701       DC16     +369,+372,+375,+378
   \              7A01        
   \   00000140   7C017F018201       DC16     +380,+383,+386,+388
   \              8401        
    229            {
    230              case 0 : return "Blues";
    231              case 1 : return "Classic Rock";
   \                     ??GetGenre_4:
   \   00000148   080080E2           ADD      R0,R0,#+8
   \   0000014C   1EFF2FE1           BX       LR
    232              case 2 : return "Country";
   \                     ??GetGenre_5:
   \   00000150   180080E2           ADD      R0,R0,#+24
   \   00000154   1EFF2FE1           BX       LR
    233              case 3 : return "Dance";
   \                     ??GetGenre_6:
   \   00000158   200080E2           ADD      R0,R0,#+32
   \   0000015C   1EFF2FE1           BX       LR
    234              case 4 : return "Disco";
   \                     ??GetGenre_7:
   \   00000160   280080E2           ADD      R0,R0,#+40
   \   00000164   1EFF2FE1           BX       LR
    235              case 5 : return "Funk";
   \                     ??GetGenre_8:
   \   00000168   300080E2           ADD      R0,R0,#+48
   \   0000016C   1EFF2FE1           BX       LR
    236              case 6 : return "Grunge";
   \                     ??GetGenre_9:
   \   00000170   380080E2           ADD      R0,R0,#+56
   \   00000174   1EFF2FE1           BX       LR
    237              case 7 : return "Hip-Hop";
   \                     ??GetGenre_10:
   \   00000178   400080E2           ADD      R0,R0,#+64
   \   0000017C   1EFF2FE1           BX       LR
    238              case 8 : return "Jazz";
   \                     ??GetGenre_11:
   \   00000180   480080E2           ADD      R0,R0,#+72
   \   00000184   1EFF2FE1           BX       LR
    239              case 9 : return "Metal";
   \                     ??GetGenre_12:
   \   00000188   500080E2           ADD      R0,R0,#+80
   \   0000018C   1EFF2FE1           BX       LR
    240              case 10 : return "New Age";
   \                     ??GetGenre_13:
   \   00000190   580080E2           ADD      R0,R0,#+88
   \   00000194   1EFF2FE1           BX       LR
    241              case 11 : return "Oldies";
   \                     ??GetGenre_14:
   \   00000198   600080E2           ADD      R0,R0,#+96
   \   0000019C   1EFF2FE1           BX       LR
    242              case 12 : return "Other";
   \                     ??GetGenre_15:
   \   000001A0   680080E2           ADD      R0,R0,#+104
   \   000001A4   1EFF2FE1           BX       LR
    243              case 13 : return "Pop";
   \                     ??GetGenre_16:
   \   000001A8   F30F8FE2           ADR      R0,??GetGenre_17  ;; "Pop"
   \   000001AC   1EFF2FE1           BX       LR
    244              case 14 : return "R&B";
   \                     ??GetGenre_18:
   \   000001B0   F20F8FE2           ADR      R0,??GetGenre_17+0x4  ;; "R&B"
   \   000001B4   1EFF2FE1           BX       LR
    245              case 15 : return "Rap";
   \                     ??GetGenre_19:
   \   000001B8   F10F8FE2           ADR      R0,??GetGenre_17+0x8  ;; "Rap"
   \   000001BC   1EFF2FE1           BX       LR
    246              case 16 : return "Reggae";
   \                     ??GetGenre_20:
   \   000001C0   780080E2           ADD      R0,R0,#+120
   \   000001C4   1EFF2FE1           BX       LR
    247              case 17 : return "Rock";
   \                     ??GetGenre_21:
   \   000001C8   800080E2           ADD      R0,R0,#+128
   \   000001CC   1EFF2FE1           BX       LR
    248              case 18 : return "Techno";
   \                     ??GetGenre_22:
   \   000001D0   880080E2           ADD      R0,R0,#+136
   \   000001D4   1EFF2FE1           BX       LR
    249              case 19 : return "Industrial";
   \                     ??GetGenre_23:
   \   000001D8   900080E2           ADD      R0,R0,#+144
   \   000001DC   1EFF2FE1           BX       LR
    250              case 20 : return "Alternative";
   \                     ??GetGenre_24:
   \   000001E0   9C0080E2           ADD      R0,R0,#+156
   \   000001E4   1EFF2FE1           BX       LR
    251              case 21 : return "Ska";
   \                     ??GetGenre_25:
   \   000001E8   E60F8FE2           ADR      R0,??GetGenre_17+0xC  ;; "Ska"
   \   000001EC   1EFF2FE1           BX       LR
    252              case 22 : return "Death Metal";
   \                     ??GetGenre_26:
   \   000001F0   A80080E2           ADD      R0,R0,#+168
   \   000001F4   1EFF2FE1           BX       LR
    253              case 23 : return "Pranks";
   \                     ??GetGenre_27:
   \   000001F8   B40080E2           ADD      R0,R0,#+180
   \   000001FC   1EFF2FE1           BX       LR
    254              case 24 : return "Soundtrack";
   \                     ??GetGenre_28:
   \   00000200   BC0080E2           ADD      R0,R0,#+188
   \   00000204   1EFF2FE1           BX       LR
    255              case 25 : return "Euro-Techno";
   \                     ??GetGenre_29:
   \   00000208   C80080E2           ADD      R0,R0,#+200
   \   0000020C   1EFF2FE1           BX       LR
    256              case 26 : return "Ambient";
   \                     ??GetGenre_30:
   \   00000210   D40080E2           ADD      R0,R0,#+212
   \   00000214   1EFF2FE1           BX       LR
    257              case 27 : return "Trip-Hop";
   \                     ??GetGenre_31:
   \   00000218   DC0080E2           ADD      R0,R0,#+220
   \   0000021C   1EFF2FE1           BX       LR
    258              case 28 : return "Vocal";
   \                     ??GetGenre_32:
   \   00000220   E80080E2           ADD      R0,R0,#+232
   \   00000224   1EFF2FE1           BX       LR
    259              case 29 : return "Jazz+Funk";
   \                     ??GetGenre_33:
   \   00000228   F00080E2           ADD      R0,R0,#+240
   \   0000022C   1EFF2FE1           BX       LR
    260              case 30 : return "Fusion";
   \                     ??GetGenre_34:
   \   00000230   FC0080E2           ADD      R0,R0,#+252
   \   00000234   1EFF2FE1           BX       LR
    261              case 31 : return "Trance";
   \                     ??GetGenre_35:
   \   00000238   410F80E2           ADD      R0,R0,#+260
   \   0000023C   1EFF2FE1           BX       LR
    262              case 32 : return "Classical";
   \                     ??GetGenre_36:
   \   00000240   430F80E2           ADD      R0,R0,#+268
   \   00000244   1EFF2FE1           BX       LR
    263              case 33 : return "Instrumental";
   \                     ??GetGenre_37:
   \   00000248   460F80E2           ADD      R0,R0,#+280
   \   0000024C   1EFF2FE1           BX       LR
    264              case 34 : return "Acid";
   \                     ??GetGenre_38:
   \   00000250   4A0F80E2           ADD      R0,R0,#+296
   \   00000254   1EFF2FE1           BX       LR
    265              case 35 : return "House";
   \                     ??GetGenre_39:
   \   00000258   4C0F80E2           ADD      R0,R0,#+304
   \   0000025C   1EFF2FE1           BX       LR
    266              case 36 : return "Game";
   \                     ??GetGenre_40:
   \   00000260   4E0F80E2           ADD      R0,R0,#+312
   \   00000264   1EFF2FE1           BX       LR
    267              case 37 : return "Sound Clip";
   \                     ??GetGenre_41:
   \   00000268   500F80E2           ADD      R0,R0,#+320
   \   0000026C   1EFF2FE1           BX       LR
    268              case 38 : return "Gospel";
   \                     ??GetGenre_42:
   \   00000270   530F80E2           ADD      R0,R0,#+332
   \   00000274   1EFF2FE1           BX       LR
    269              case 39 : return "Noise";
   \                     ??GetGenre_43:
   \   00000278   700080E2           ADD      R0,R0,#+112
   \   0000027C   1EFF2FE1           BX       LR
    270              case 40 : return "Alternative Rock";
   \                     ??GetGenre_44:
   \   00000280   550F80E2           ADD      R0,R0,#+340
   \   00000284   1EFF2FE1           BX       LR
    271              case 41 : return "Bass";
   \                     ??GetGenre_45:
   \   00000288   5A0F80E2           ADD      R0,R0,#+360
   \   0000028C   1EFF2FE1           BX       LR
    272              case 42 : return "Soul";
   \                     ??GetGenre_46:
   \   00000290   5C0F80E2           ADD      R0,R0,#+368
   \   00000294   1EFF2FE1           BX       LR
    273              case 43 : return "Punk";
   \                     ??GetGenre_47:
   \   00000298   5E0F80E2           ADD      R0,R0,#+376
   \   0000029C   1EFF2FE1           BX       LR
    274              case 44 : return "Space";
   \                     ??GetGenre_48:
   \   000002A0   600F80E2           ADD      R0,R0,#+384
   \   000002A4   1EFF2FE1           BX       LR
    275              case 45 : return "Meditative";
   \                     ??GetGenre_49:
   \   000002A8   620F80E2           ADD      R0,R0,#+392
   \   000002AC   1EFF2FE1           BX       LR
    276              case 46 : return "Instrumental Pop";
   \                     ??GetGenre_50:
   \   000002B0   650F80E2           ADD      R0,R0,#+404
   \   000002B4   1EFF2FE1           BX       LR
    277              case 47 : return "Instrumental Rock";
   \                     ??GetGenre_51:
   \   000002B8   6A0F80E2           ADD      R0,R0,#+424
   \   000002BC   1EFF2FE1           BX       LR
    278              case 48 : return "Ethnic";
   \                     ??GetGenre_52:
   \   000002C0   6F0F80E2           ADD      R0,R0,#+444
   \   000002C4   1EFF2FE1           BX       LR
    279              case 49 : return "Gothic";
   \                     ??GetGenre_53:
   \   000002C8   710F80E2           ADD      R0,R0,#+452
   \   000002CC   1EFF2FE1           BX       LR
    280              case 50 : return "Darkwave";
   \                     ??GetGenre_54:
   \   000002D0   730F80E2           ADD      R0,R0,#+460
   \   000002D4   1EFF2FE1           BX       LR
    281              case 51 : return "Techno-Industrial";
   \                     ??GetGenre_55:
   \   000002D8   760F80E2           ADD      R0,R0,#+472
   \   000002DC   1EFF2FE1           BX       LR
    282              case 52 : return "Electronic";
   \                     ??GetGenre_56:
   \   000002E0   7B0F80E2           ADD      R0,R0,#+492
   \   000002E4   1EFF2FE1           BX       LR
    283              case 53 : return "Pop-Folk";
   \                     ??GetGenre_57:
   \   000002E8   7E0F80E2           ADD      R0,R0,#+504
   \   000002EC   1EFF2FE1           BX       LR
    284              case 54 : return "Eurodance";
   \                     ??GetGenre_58:
   \   000002F0   810F80E2           ADD      R0,R0,#+516
   \   000002F4   1EFF2FE1           BX       LR
    285              case 55 : return "Dream";
   \                     ??GetGenre_59:
   \   000002F8   840F80E2           ADD      R0,R0,#+528
   \   000002FC   1EFF2FE1           BX       LR
    286              case 56 : return "Southern Rock";
   \                     ??GetGenre_60:
   \   00000300   860F80E2           ADD      R0,R0,#+536
   \   00000304   1EFF2FE1           BX       LR
    287              case 57 : return "Comedy";
   \                     ??GetGenre_61:
   \   00000308   8A0F80E2           ADD      R0,R0,#+552
   \   0000030C   1EFF2FE1           BX       LR
    288              case 58 : return "Cult";
   \                     ??GetGenre_62:
   \   00000310   8C0F80E2           ADD      R0,R0,#+560
   \   00000314   1EFF2FE1           BX       LR
    289              case 59 : return "Gangsta";
   \                     ??GetGenre_63:
   \   00000318   8E0F80E2           ADD      R0,R0,#+568
   \   0000031C   1EFF2FE1           BX       LR
    290              case 60 : return "Top 40";
   \                     ??GetGenre_64:
   \   00000320   900F80E2           ADD      R0,R0,#+576
   \   00000324   1EFF2FE1           BX       LR
    291              case 61 : return "Christian Rap";
   \                     ??GetGenre_65:
   \   00000328   920F80E2           ADD      R0,R0,#+584
   \   0000032C   1EFF2FE1           BX       LR
    292              case 62 : return "Pop/Funk";
   \                     ??GetGenre_66:
   \   00000330   960F80E2           ADD      R0,R0,#+600
   \   00000334   1EFF2FE1           BX       LR
    293              case 63 : return "Jungle";
   \                     ??GetGenre_67:
   \   00000338   990F80E2           ADD      R0,R0,#+612
   \   0000033C   1EFF2FE1           BX       LR
    294              case 64 : return "Native US";
   \                     ??GetGenre_68:
   \   00000340   9B0F80E2           ADD      R0,R0,#+620
   \   00000344   1EFF2FE1           BX       LR
    295              case 65 : return "Cabaret";
   \                     ??GetGenre_69:
   \   00000348   9E0F80E2           ADD      R0,R0,#+632
   \   0000034C   1EFF2FE1           BX       LR
    296              case 66 : return "New Wave";
   \                     ??GetGenre_70:
   \   00000350   A00F80E2           ADD      R0,R0,#+640
   \   00000354   1EFF2FE1           BX       LR
    297              case 67 : return "Psychadelic";
   \                     ??GetGenre_71:
   \   00000358   A30F80E2           ADD      R0,R0,#+652
   \   0000035C   1EFF2FE1           BX       LR
    298              case 68 : return "Rave";
   \                     ??GetGenre_72:
   \   00000360   A60F80E2           ADD      R0,R0,#+664
   \   00000364   1EFF2FE1           BX       LR
    299              case 69 : return "Showtunes";
   \                     ??GetGenre_73:
   \   00000368   A80F80E2           ADD      R0,R0,#+672
   \   0000036C   1EFF2FE1           BX       LR
    300              case 70 : return "Trailer";
   \                     ??GetGenre_74:
   \   00000370   AB0F80E2           ADD      R0,R0,#+684
   \   00000374   1EFF2FE1           BX       LR
    301              case 71 : return "Lo-Fi";
   \                     ??GetGenre_75:
   \   00000378   AD0F80E2           ADD      R0,R0,#+692
   \   0000037C   1EFF2FE1           BX       LR
    302              case 72 : return "Tribal";
   \                     ??GetGenre_76:
   \   00000380   AF0F80E2           ADD      R0,R0,#+700
   \   00000384   1EFF2FE1           BX       LR
    303              case 73 : return "Acid Punk";
   \                     ??GetGenre_77:
   \   00000388   B10F80E2           ADD      R0,R0,#+708
   \   0000038C   1EFF2FE1           BX       LR
    304              case 74 : return "Acid Jazz";
   \                     ??GetGenre_78:
   \   00000390   B40F80E2           ADD      R0,R0,#+720
   \   00000394   1EFF2FE1           BX       LR
    305              case 75 : return "Polka";
   \                     ??GetGenre_79:
   \   00000398   B70F80E2           ADD      R0,R0,#+732
   \   0000039C   1EFF2FE1           BX       LR
    306              case 76 : return "Retro";
   \                     ??GetGenre_80:
   \   000003A0   B90F80E2           ADD      R0,R0,#+740
   \   000003A4   1EFF2FE1           BX       LR
    307              case 77 : return "Musical";
   \                     ??GetGenre_81:
   \   000003A8   BB0F80E2           ADD      R0,R0,#+748
   \   000003AC   1EFF2FE1           BX       LR
    308              case 78 : return "Rock & Roll";
   \                     ??GetGenre_82:
   \   000003B0   BD0F80E2           ADD      R0,R0,#+756
   \   000003B4   1EFF2FE1           BX       LR
    309              case 79 : return "Hard Rock";
   \                     ??GetGenre_83:
   \   000003B8   C00F80E2           ADD      R0,R0,#+768
   \   000003BC   1EFF2FE1           BX       LR
    310              case 80 : return "Folk";
   \                     ??GetGenre_84:
   \   000003C0   C30F80E2           ADD      R0,R0,#+780
   \   000003C4   1EFF2FE1           BX       LR
    311              case 81 : return "Folk-Rock";
   \                     ??GetGenre_85:
   \   000003C8   C50F80E2           ADD      R0,R0,#+788
   \   000003CC   1EFF2FE1           BX       LR
    312              case 82 : return "National Folk";
   \                     ??GetGenre_86:
   \   000003D0   C80F80E2           ADD      R0,R0,#+800
   \   000003D4   1EFF2FE1           BX       LR
    313              case 83 : return "Swing";
   \                     ??GetGenre_87:
   \   000003D8   CC0F80E2           ADD      R0,R0,#+816
   \   000003DC   1EFF2FE1           BX       LR
    314              case 84 : return "Fast Fusion";
   \                     ??GetGenre_88:
   \   000003E0   CE0F80E2           ADD      R0,R0,#+824
   \   000003E4   1EFF2FE1           BX       LR
    315              case 85 : return "Bebob";
   \                     ??GetGenre_89:
   \   000003E8   D10F80E2           ADD      R0,R0,#+836
   \   000003EC   1EFF2FE1           BX       LR
    316              case 86 : return "Latin";
   \                     ??GetGenre_90:
   \   000003F0   D30F80E2           ADD      R0,R0,#+844
   \   000003F4   1EFF2FE1           BX       LR
    317              case 87 : return "Revival";
   \                     ??GetGenre_91:
   \   000003F8   D50F80E2           ADD      R0,R0,#+852
   \   000003FC   1EFF2FE1           BX       LR
    318              case 88 : return "Celtic";
   \                     ??GetGenre_92:
   \   00000400   D70F80E2           ADD      R0,R0,#+860
   \   00000404   1EFF2FE1           BX       LR
    319              case 89 : return "Bluegrass";
   \                     ??GetGenre_93:
   \   00000408   D90F80E2           ADD      R0,R0,#+868
   \   0000040C   1EFF2FE1           BX       LR
    320              case 90 : return "Avantgarde";
   \                     ??GetGenre_94:
   \   00000410   DC0F80E2           ADD      R0,R0,#+880
   \   00000414   1EFF2FE1           BX       LR
    321              case 91 : return "Gothic Rock";
   \                     ??GetGenre_95:
   \   00000418   DF0F80E2           ADD      R0,R0,#+892
   \   0000041C   1EFF2FE1           BX       LR
    322              case 92 : return "Progressive Rock";
   \                     ??GetGenre_96:
   \   00000420   E20F80E2           ADD      R0,R0,#+904
   \   00000424   1EFF2FE1           BX       LR
    323              case 93 : return "Psychedelic Rock";
   \                     ??GetGenre_97:
   \   00000428   E70F80E2           ADD      R0,R0,#+924
   \   0000042C   1EFF2FE1           BX       LR
    324              case 94 : return "Symphonic Rock";
   \                     ??GetGenre_98:
   \   00000430   EC0F80E2           ADD      R0,R0,#+944
   \   00000434   1EFF2FE1           BX       LR
    325              case 95 : return "Slow Rock";
   \                     ??GetGenre_99:
   \   00000438   F00F80E2           ADD      R0,R0,#+960
   \   0000043C   1EFF2FE1           BX       LR
    326              case 96 : return "Big Band";
   \                     ??GetGenre_100:
   \   00000440   F30F80E2           ADD      R0,R0,#+972
   \   00000444   1EFF2FE1           BX       LR
    327              case 97 : return "Chorus";
   \                     ??GetGenre_101:
   \   00000448   F60F80E2           ADD      R0,R0,#+984
   \   0000044C   1EFF2FE1           BX       LR
    328              case 98 : return "Easy Listening";
   \                     ??GetGenre_102:
   \   00000450   F80F80E2           ADD      R0,R0,#+992
   \   00000454   1EFF2FE1           BX       LR
    329              case 99 : return "Acoustic";
   \                     ??GetGenre_103:
   \   00000458   FC0F80E2           ADD      R0,R0,#+1008
   \   0000045C   1EFF2FE1           BX       LR
    330              case 100 : return "Humour";
   \                     ??GetGenre_104:
   \   00000460   FF0F80E2           ADD      R0,R0,#+1020
   \   00000464   1EFF2FE1           BX       LR
    331              case 101 : return "Speech";
   \                     ??GetGenre_105:
   \   00000468   0410A0E3           MOV      R1,#+4
   \   0000046C   000000EA           B        ??GetGenre_106
    332              case 102 : return "Chanson";
   \                     ??GetGenre_107:
   \   00000470   0C10A0E3           MOV      R1,#+12
   \                     ??GetGenre_106:
   \   00000474   401E81E3           ORR      R1,R1,#0x400
   \                     ??GetGenre_108:
   \   00000478   000081E0           ADD      R0,R1,R0
   \   0000047C   1EFF2FE1           BX       LR
    333              case 103 : return "Opera";
   \                     ??GetGenre_109:
   \   00000480   1410A0E3           MOV      R1,#+20
   \   00000484   FAFFFFEA           B        ??GetGenre_106
    334              case 104 : return "Chamber Music";
   \                     ??GetGenre_110:
   \   00000488   1C10A0E3           MOV      R1,#+28
   \   0000048C   F8FFFFEA           B        ??GetGenre_106
    335              case 105 : return "Sonata";
   \                     ??GetGenre_111:
   \   00000490   2C10A0E3           MOV      R1,#+44
   \   00000494   F6FFFFEA           B        ??GetGenre_106
    336              case 106 : return "Symphony";
   \                     ??GetGenre_112:
   \   00000498   3410A0E3           MOV      R1,#+52
   \   0000049C   F4FFFFEA           B        ??GetGenre_106
    337              case 107 : return "Booty Bass";
   \                     ??GetGenre_113:
   \   000004A0   440E80E2           ADD      R0,R0,#+1088
   \   000004A4   1EFF2FE1           BX       LR
    338              case 108 : return "Primus";
   \                     ??GetGenre_114:
   \   000004A8   4C10A0E3           MOV      R1,#+76
   \   000004AC   F0FFFFEA           B        ??GetGenre_106
    339              case 109 : return "Porn Groove";
   \                     ??GetGenre_115:
   \   000004B0   5410A0E3           MOV      R1,#+84
   \   000004B4   EEFFFFEA           B        ??GetGenre_106
    340              case 110 : return "Satire";
   \                     ??GetGenre_116:
   \   000004B8   460E80E2           ADD      R0,R0,#+1120
   \   000004BC   1EFF2FE1           BX       LR
    341              case 111 : return "Slow Jam";
   \                     ??GetGenre_117:
   \   000004C0   6810A0E3           MOV      R1,#+104
   \   000004C4   EAFFFFEA           B        ??GetGenre_106
    342              case 112 : return "Club";
   \                     ??GetGenre_118:
   \   000004C8   7410A0E3           MOV      R1,#+116
   \   000004CC   E8FFFFEA           B        ??GetGenre_106
    343              case 113 : return "Tango";
   \                     ??GetGenre_119:
   \   000004D0   7C10A0E3           MOV      R1,#+124
   \   000004D4   E6FFFFEA           B        ??GetGenre_106
    344              case 114 : return "Samba";
   \                     ??GetGenre_120:
   \   000004D8   8410A0E3           MOV      R1,#+132
   \   000004DC   E4FFFFEA           B        ??GetGenre_106
    345              case 115 : return "Folklore";
   \                     ??GetGenre_121:
   \   000004E0   8C10A0E3           MOV      R1,#+140
   \   000004E4   E2FFFFEA           B        ??GetGenre_106
    346              case 116 : return "Ballad";
   \                     ??GetGenre_122:
   \   000004E8   9810A0E3           MOV      R1,#+152
   \   000004EC   E0FFFFEA           B        ??GetGenre_106
    347              case 117 : return "Power Ballad";
   \                     ??GetGenre_123:
   \   000004F0   4A0E80E2           ADD      R0,R0,#+1184
   \   000004F4   1EFF2FE1           BX       LR
    348              case 118 : return "Rhytmic Soul";
   \                     ??GetGenre_124:
   \   000004F8   4B0E80E2           ADD      R0,R0,#+1200
   \   000004FC   1EFF2FE1           BX       LR
    349              case 119 : return "Freestyle";
   \                     ??GetGenre_125:
   \   00000500   4C0E80E2           ADD      R0,R0,#+1216
   \   00000504   1EFF2FE1           BX       LR
    350              case 120 : return "Duet";
   \                     ??GetGenre_126:
   \   00000508   CC10A0E3           MOV      R1,#+204
   \   0000050C   D8FFFFEA           B        ??GetGenre_106
    351              case 121 : return "Punk Rock";
   \                     ??GetGenre_127:
   \   00000510   D410A0E3           MOV      R1,#+212
   \   00000514   D6FFFFEA           B        ??GetGenre_106
    352              case 122 : return "Drum Solo";
   \                     ??GetGenre_128:
   \   00000518   4E0E80E2           ADD      R0,R0,#+1248
   \   0000051C   1EFF2FE1           BX       LR
    353              case 123 : return "Acapella";
   \                     ??GetGenre_129:
   \   00000520   EC10A0E3           MOV      R1,#+236
   \   00000524   D2FFFFEA           B        ??GetGenre_106
    354              case 124 : return "Euro-House";
   \                     ??GetGenre_130:
   \   00000528   F810A0E3           MOV      R1,#+248
   \   0000052C   D0FFFFEA           B        ??GetGenre_106
    355              case 125 : return "Dance Hall";
   \                     ??GetGenre_131:
   \   00000530   0410A0E3           MOV      R1,#+4
   \   00000534   501E81E3           ORR      R1,R1,#0x500
   \   00000538   CEFFFFEA           B        ??GetGenre_108
    356              case 126 : return "Goa";
   \                     ??GetGenre_132:
   \   0000053C   410F8FE2           ADR      R0,??GetGenre_2  ;; "Goa"
   \   00000540   1EFF2FE1           BX       LR
    357              case 127 : return "Drum & Bass";
   \                     ??GetGenre_133:
   \   00000544   510E80E2           ADD      R0,R0,#+1296
   \   00000548   1EFF2FE1           BX       LR
    358              case 128 : return "Club-House";
   \                     ??GetGenre_134:
   \   0000054C   1C10A0E3           MOV      R1,#+28
   \   00000550   501E81E3           ORR      R1,R1,#0x500
   \   00000554   C7FFFFEA           B        ??GetGenre_108
    359              case 129 : return "Hardcore";
   \                     ??GetGenre_135:
   \   00000558   2810A0E3           MOV      R1,#+40
   \   0000055C   501E81E3           ORR      R1,R1,#0x500
   \   00000560   C4FFFFEA           B        ??GetGenre_108
    360              case 130 : return "Terror";
   \                     ??GetGenre_136:
   \   00000564   3410A0E3           MOV      R1,#+52
   \   00000568   501E81E3           ORR      R1,R1,#0x500
   \   0000056C   C1FFFFEA           B        ??GetGenre_108
    361              case 131 : return "Indie";
   \                     ??GetGenre_137:
   \   00000570   3C10A0E3           MOV      R1,#+60
   \   00000574   501E81E3           ORR      R1,R1,#0x500
   \   00000578   BEFFFFEA           B        ??GetGenre_108
   \                     ??GetGenre_17:
   \   0000057C   506F7000           DC8      "Pop"
   \   00000580   52264200           DC8      "R&B"
   \   00000584   52617000           DC8      "Rap"
   \   00000588   536B6100           DC8      "Ska"
    362              case 132 : return "BritPop";
   \                     ??GetGenre_138:
   \   0000058C   4410A0E3           MOV      R1,#+68
   \   00000590   501E81E3           ORR      R1,R1,#0x500
   \   00000594   B7FFFFEA           B        ??GetGenre_108
    363              case 133 : return "Negerpunk";
   \                     ??GetGenre_139:
   \   00000598   4C10A0E3           MOV      R1,#+76
   \   0000059C   501E81E3           ORR      R1,R1,#0x500
   \   000005A0   B4FFFFEA           B        ??GetGenre_108
    364              case 134 : return "Polsk Punk";
   \                     ??GetGenre_140:
   \   000005A4   5810A0E3           MOV      R1,#+88
   \   000005A8   501E81E3           ORR      R1,R1,#0x500
   \   000005AC   B1FFFFEA           B        ??GetGenre_108
    365              case 135 : return "Beat";
   \                     ??GetGenre_141:
   \   000005B0   6410A0E3           MOV      R1,#+100
   \   000005B4   501E81E3           ORR      R1,R1,#0x500
   \   000005B8   AEFFFFEA           B        ??GetGenre_108
    366              case 136 : return "Christian Gangsta";
   \                     ??GetGenre_142:
   \   000005BC   6C10A0E3           MOV      R1,#+108
   \   000005C0   501E81E3           ORR      R1,R1,#0x500
   \   000005C4   ABFFFFEA           B        ??GetGenre_108
    367              case 137 : return "Heavy Metal";
   \                     ??GetGenre_143:
   \   000005C8   580E80E2           ADD      R0,R0,#+1408
   \   000005CC   1EFF2FE1           BX       LR
    368              case 138 : return "Black Metal";
   \                     ??GetGenre_144:
   \   000005D0   8C10A0E3           MOV      R1,#+140
   \   000005D4   501E81E3           ORR      R1,R1,#0x500
   \   000005D8   A6FFFFEA           B        ??GetGenre_108
    369              case 139 : return "Crossover";
   \                     ??GetGenre_145:
   \   000005DC   9810A0E3           MOV      R1,#+152
   \   000005E0   501E81E3           ORR      R1,R1,#0x500
   \   000005E4   A3FFFFEA           B        ??GetGenre_108
    370              case 140 : return "Contemporary C";
   \                     ??GetGenre_146:
   \   000005E8   A410A0E3           MOV      R1,#+164
   \   000005EC   501E81E3           ORR      R1,R1,#0x500
   \   000005F0   A0FFFFEA           B        ??GetGenre_108
    371              case 141 : return "Christian Rock";
   \                     ??GetGenre_147:
   \   000005F4   B410A0E3           MOV      R1,#+180
   \   000005F8   501E81E3           ORR      R1,R1,#0x500
   \   000005FC   9DFFFFEA           B        ??GetGenre_108
    372              case 142 : return "Merengue";
   \                     ??GetGenre_148:
   \   00000600   C410A0E3           MOV      R1,#+196
   \   00000604   501E81E3           ORR      R1,R1,#0x500
   \   00000608   9AFFFFEA           B        ??GetGenre_108
    373              case 143 : return "Salsa";
   \                     ??GetGenre_149:
   \   0000060C   5D0E80E2           ADD      R0,R0,#+1488
   \   00000610   1EFF2FE1           BX       LR
    374              case 144 : return "Thrash Metal";
   \                     ??GetGenre_150:
   \   00000614   D810A0E3           MOV      R1,#+216
   \   00000618   501E81E3           ORR      R1,R1,#0x500
   \   0000061C   95FFFFEA           B        ??GetGenre_108
    375              case 145 : return "Anime";
   \                     ??GetGenre_151:
   \   00000620   E810A0E3           MOV      R1,#+232
   \   00000624   501E81E3           ORR      R1,R1,#0x500
   \   00000628   92FFFFEA           B        ??GetGenre_108
    376              case 146 : return "JPop";
   \                     ??GetGenre_152:
   \   0000062C   5F0E80E2           ADD      R0,R0,#+1520
   \   00000630   1EFF2FE1           BX       LR
    377              case 147 : return "SynthPop";
   \                     ??GetGenre_153:
   \   00000634   F810A0E3           MOV      R1,#+248
   \   00000638   501E81E3           ORR      R1,R1,#0x500
   \   0000063C   8DFFFFEA           B        ??GetGenre_108
    378            }
    379            return " ";
   \                     ??GetGenre_3:
   \   00000640   010F8FE2           ADR      R0,??GetGenre_2+0x4  ;; " "
   \                     ??GetGenre_154:
   \   00000644   1EFF2FE1           BX       LR               ;; return
   \                     ??GetGenre_2:
   \   00000648   476F6100           DC8      "Goa"
   \   0000064C   20000000           DC8      " ",+0,+0
   \   00000650   ........           DC32     `?<Constant "Blues">`
    380          }
    381          

   \                                 In segment CODE, align 4, keep-with-next
    382          void FileWrite()
    383          {
   \                     ??FileWrite:
   \   00000000   F04F2DE9           PUSH     {R4-R11,LR}
    384            int f=_fopen(TagBook->path,TagBook->name,FSX_O_WRONLY,FSX_S_IREAD|FSX_S_IWRITE,0);
   \   00000004   ........           LDR      R4,??DataTable46  ;; TagBook
   \   00000008   0010A0E3           MOV      R1,#+0
   \   0000000C   000094E5           LDR      R0,[R4, #+0]
   \   00000010   02002DE9           PUSH     {R1}
   \   00000014   603FA0E3           MOV      R3,#+384
   \   00000018   F01090E5           LDR      R1,[R0, #+240]
   \   0000001C   F40090E5           LDR      R0,[R0, #+244]
   \   00000020   0220A0E3           MOV      R2,#+2
   \   00000024   160100EF           SWI      +278
    385            for(int i=10; i<=TagBook->size_id3-1; i++)
   \   00000028   001094E5           LDR      R1,[R4, #+0]
   \   0000002C   0060A0E1           MOV      R6,R0
   \   00000030   D01091E5           LDR      R1,[R1, #+208]
   \   00000034   0A00A0E3           MOV      R0,#+10
   \   00000038   0070A0E3           MOV      R7,#+0
   \   0000003C   011041E2           SUB      R1,R1,#+1
   \   00000040   0A0051E3           CMP      R1,#+10
   \   00000044   04D08DE2           ADD      SP,SP,#+4
   \   00000048   030000AA           BGE      ??FileWrite_1
   \   0000004C   070000EA           B        ??FileWrite_2
    386            {
    387              TagBook->buffer2[i]=0;
   \                     ??FileWrite_3:
   \   00000050   2C1091E5           LDR      R1,[R1, #+44]
   \   00000054   0170C0E7           STRB     R7,[R0, +R1]
    388            }
   \   00000058   010080E2           ADD      R0,R0,#+1
   \                     ??FileWrite_1:
   \   0000005C   001094E5           LDR      R1,[R4, #+0]
   \   00000060   D02091E5           LDR      R2,[R1, #+208]
   \   00000064   012042E2           SUB      R2,R2,#+1
   \   00000068   000052E1           CMP      R2,R0
   \   0000006C   F7FFFFAA           BGE      ??FileWrite_3
   \                     ??FileWrite_2:
   \   00000070   000094E5           LDR      R0,[R4, #+0]
   \   00000074   3C0090E5           LDR      R0,[R0, #+60]
   \   00000078   000050E3           CMP      R0,#+0
   \   0000007C   0000000A           BEQ      ??FileWrite_4
    389            if(TagBook->Title2!=0) delete TagBook->Title2;
   \   00000080   ........           _BLF     `??operator delete`,`??operator delete??rA`
    390            if(wstrlen(TagBook->UTitle2)==0)
   \                     ??FileWrite_4:
   \   00000084   000094E5           LDR      R0,[R4, #+0]
   \   00000088   2C579FE5           LDR      R5,??FileWrite_5  ;; `?<Constant L"\\x20\\x20">`
   \   0000008C   200190E5           LDR      R0,[R0, #+288]
   \   00000090   570100EF           SWI      +343
   \   00000094   000050E3           CMP      R0,#+0
   \   00000098   0800001A           BNE      ??FileWrite_6
    391            {
    392              TagBook->UTitle2=new wchar_t[wstrlen(L"  ")+1];
   \   0000009C   0500A0E1           MOV      R0,R5
   \   000000A0   570100EF           SWI      +343
   \   000000A4   010080E2           ADD      R0,R0,#+1
   \   000000A8   8000A0E1           LSL      R0,R0,#+1
   \   000000AC   ........           _BLF     `??operator new[]`,`??operator new[]??rA`
   \   000000B0   002094E5           LDR      R2,[R4, #+0]
    393              wstrcpy(TagBook->UTitle2, L"  ");
   \   000000B4   0510A0E1           MOV      R1,R5
   \   000000B8   200182E5           STR      R0,[R2, #+288]
   \   000000BC   520100EF           SWI      +338
    394            }
    395            TagBook->Title2=new char[wstrlen(TagBook->UTitle2)+1];
   \                     ??FileWrite_6:
   \   000000C0   000094E5           LDR      R0,[R4, #+0]
   \   000000C4   200190E5           LDR      R0,[R0, #+288]
   \   000000C8   570100EF           SWI      +343
   \   000000CC   010080E2           ADD      R0,R0,#+1
   \   000000D0   ........           _BLF     `??operator new[]`,`??operator new[]??rA`
   \   000000D4   001094E5           LDR      R1,[R4, #+0]
   \   000000D8   3C0081E5           STR      R0,[R1, #+60]
    396            unicode2win1251(TagBook->Title2, TagBook->UTitle2, wstrlen(TagBook->UTitle2));
   \   000000DC   200191E5           LDR      R0,[R1, #+288]
   \   000000E0   570100EF           SWI      +343
   \   000000E4   0020A0E1           MOV      R2,R0
   \   000000E8   000094E5           LDR      R0,[R4, #+0]
   \   000000EC   201190E5           LDR      R1,[R0, #+288]
   \   000000F0   3C0090E5           LDR      R0,[R0, #+60]
   \   000000F4   ........           BL       ??unicode2win1251
   \   000000F8   000094E5           LDR      R0,[R4, #+0]
   \   000000FC   240090E5           LDR      R0,[R0, #+36]
   \   00000100   000050E3           CMP      R0,#+0
   \   00000104   0000000A           BEQ      ??FileWrite_7
    397            if(TagBook->Autor2!=0) delete TagBook->Autor2;
   \   00000108   ........           _BLF     `??operator delete`,`??operator delete??rA`
    398            if(wstrlen(TagBook->UAutor2)==0)
   \                     ??FileWrite_7:
   \   0000010C   000094E5           LDR      R0,[R4, #+0]
   \   00000110   080190E5           LDR      R0,[R0, #+264]
   \   00000114   570100EF           SWI      +343
   \   00000118   000050E3           CMP      R0,#+0
   \   0000011C   0800001A           BNE      ??FileWrite_8
    399            {
    400              TagBook->UAutor2=new wchar_t[wstrlen(L"  ")+1];
   \   00000120   0500A0E1           MOV      R0,R5
   \   00000124   570100EF           SWI      +343
   \   00000128   010080E2           ADD      R0,R0,#+1
   \   0000012C   8000A0E1           LSL      R0,R0,#+1
   \   00000130   ........           _BLF     `??operator new[]`,`??operator new[]??rA`
   \   00000134   002094E5           LDR      R2,[R4, #+0]
    401              wstrcpy(TagBook->UAutor2, L"  ");
   \   00000138   0510A0E1           MOV      R1,R5
   \   0000013C   080182E5           STR      R0,[R2, #+264]
   \   00000140   520100EF           SWI      +338
    402            }
    403            TagBook->Autor2=new char[wstrlen(TagBook->UAutor2)+1];
   \                     ??FileWrite_8:
   \   00000144   000094E5           LDR      R0,[R4, #+0]
   \   00000148   080190E5           LDR      R0,[R0, #+264]
   \   0000014C   570100EF           SWI      +343
   \   00000150   010080E2           ADD      R0,R0,#+1
   \   00000154   ........           _BLF     `??operator new[]`,`??operator new[]??rA`
   \   00000158   001094E5           LDR      R1,[R4, #+0]
   \   0000015C   240081E5           STR      R0,[R1, #+36]
    404            unicode2win1251(TagBook->Autor2, TagBook->UAutor2, wstrlen(TagBook->UAutor2));
   \   00000160   080191E5           LDR      R0,[R1, #+264]
   \   00000164   570100EF           SWI      +343
   \   00000168   003094E5           LDR      R3,[R4, #+0]
   \   0000016C   0020A0E1           MOV      R2,R0
   \   00000170   081193E5           LDR      R1,[R3, #+264]
   \   00000174   240093E5           LDR      R0,[R3, #+36]
   \   00000178   ........           BL       ??unicode2win1251
   \   0000017C   000094E5           LDR      R0,[R4, #+0]
   \   00000180   1C0090E5           LDR      R0,[R0, #+28]
   \   00000184   000050E3           CMP      R0,#+0
   \   00000188   0000000A           BEQ      ??FileWrite_9
    405            if(TagBook->Album2!=0) delete TagBook->Album2;
   \   0000018C   ........           _BLF     `??operator delete`,`??operator delete??rA`
    406            if(wstrlen(TagBook->UAlbum2)==0)
   \                     ??FileWrite_9:
   \   00000190   000094E5           LDR      R0,[R4, #+0]
   \   00000194   000190E5           LDR      R0,[R0, #+256]
   \   00000198   570100EF           SWI      +343
   \   0000019C   000050E3           CMP      R0,#+0
   \   000001A0   0800001A           BNE      ??FileWrite_10
    407            {
    408              TagBook->UAlbum2=new wchar_t[wstrlen(L"  ")+1];
   \   000001A4   0500A0E1           MOV      R0,R5
   \   000001A8   570100EF           SWI      +343
   \   000001AC   010080E2           ADD      R0,R0,#+1
   \   000001B0   8000A0E1           LSL      R0,R0,#+1
   \   000001B4   ........           _BLF     `??operator new[]`,`??operator new[]??rA`
   \   000001B8   002094E5           LDR      R2,[R4, #+0]
    409              wstrcpy(TagBook->UAlbum2, L"  ");
   \   000001BC   0510A0E1           MOV      R1,R5
   \   000001C0   000182E5           STR      R0,[R2, #+256]
   \   000001C4   520100EF           SWI      +338
    410            }  
    411            TagBook->Album2=new char[wstrlen(TagBook->UAlbum2)+1];
   \                     ??FileWrite_10:
   \   000001C8   000094E5           LDR      R0,[R4, #+0]
   \   000001CC   000190E5           LDR      R0,[R0, #+256]
   \   000001D0   570100EF           SWI      +343
   \   000001D4   010080E2           ADD      R0,R0,#+1
   \   000001D8   ........           _BLF     `??operator new[]`,`??operator new[]??rA`
   \   000001DC   001094E5           LDR      R1,[R4, #+0]
   \   000001E0   1C0081E5           STR      R0,[R1, #+28]
    412            unicode2win1251(TagBook->Album2, TagBook->UAlbum2, wstrlen(TagBook->UAlbum2));
   \   000001E4   000191E5           LDR      R0,[R1, #+256]
   \   000001E8   570100EF           SWI      +343
   \   000001EC   003094E5           LDR      R3,[R4, #+0]
   \   000001F0   0020A0E1           MOV      R2,R0
   \   000001F4   001193E5           LDR      R1,[R3, #+256]
   \   000001F8   1C0093E5           LDR      R0,[R3, #+28]
   \   000001FC   ........           BL       ??unicode2win1251
    413            int size=strlen(TagBook->Title2)+strlen(TagBook->Autor2)+strlen(TagBook->Album2)+11*3+10;
   \   00000200   000094E5           LDR      R0,[R4, #+0]
   \   00000204   3C0090E5           LDR      R0,[R0, #+60]
   \   00000208   5A0100EF           SWI      +346
   \   0000020C   0080A0E1           MOV      R8,R0
   \   00000210   000094E5           LDR      R0,[R4, #+0]
   \   00000214   240090E5           LDR      R0,[R0, #+36]
   \   00000218   5A0100EF           SWI      +346
   \   0000021C   088080E0           ADD      R8,R0,R8
   \   00000220   000094E5           LDR      R0,[R4, #+0]
   \   00000224   1C0090E5           LDR      R0,[R0, #+28]
   \   00000228   5A0100EF           SWI      +346
   \   0000022C   080080E0           ADD      R0,R0,R8
   \   00000230   2B9080E2           ADD      R9,R0,#+43
    414            char*write=new char[size+1];
   \   00000234   010089E2           ADD      R0,R9,#+1
   \   00000238   ........           _BLF     `??operator new[]`,`??operator new[]??rA`
   \   0000023C   0080A0E1           MOV      R8,R0
    415            for(int i=0; i<=size-1; i++)
   \   00000240   0000A0E3           MOV      R0,#+0
   \   00000244   011059E2           SUBS     R1,R9,#+1
   \   00000248   0200005A           BPL      ??FileWrite_11
   \   0000024C   030000EA           B        ??FileWrite_12
    416            {
    417              write[i]=0;
   \                     ??FileWrite_13:
   \   00000250   0870C0E7           STRB     R7,[R0, +R8]
    418            }
   \   00000254   010080E2           ADD      R0,R0,#+1
   \                     ??FileWrite_11:
   \   00000258   000051E1           CMP      R1,R0
   \   0000025C   FBFFFFAA           BGE      ??FileWrite_13
    419            int pos=0;
    420            write[pos]='T';
   \                     ??FileWrite_12:
   \   00000260   5490A0E3           MOV      R9,#+84
   \   00000264   0090C8E5           STRB     R9,[R8, #+0]
    421            pos++;
    422            write[pos]='I';
   \   00000268   4900A0E3           MOV      R0,#+73
   \   0000026C   0100C8E5           STRB     R0,[R8, #+1]
    423            pos++;
    424            write[pos]='T';
   \   00000270   0290C8E5           STRB     R9,[R8, #+2]
    425            pos++;
    426            write[pos]='2';
   \   00000274   3200A0E3           MOV      R0,#+50
   \   00000278   0300C8E5           STRB     R0,[R8, #+3]
    427            pos++;
    428            pos++;
    429            pos++;
    430            pos++;
    431            write[pos]=strlen(TagBook->Title2)+1;
   \   0000027C   000094E5           LDR      R0,[R4, #+0]
    432            pos++;
    433            pos++;
    434            pos++;
   \   00000280   0AB0A0E3           MOV      R11,#+10
   \   00000284   3C0090E5           LDR      R0,[R0, #+60]
    435            for(int i=0; i<=strlen(TagBook->Title2)-1; i++)
   \   00000288   00A0A0E3           MOV      R10,#+0
   \   0000028C   5A0100EF           SWI      +346
   \   00000290   010080E2           ADD      R0,R0,#+1
   \   00000294   0700C8E5           STRB     R0,[R8, #+7]
   \   00000298   040000EA           B        ??FileWrite_14
    436            {
    437              pos++;
    438              write[pos]=TagBook->Title2[i];
   \                     ??FileWrite_15:
   \   0000029C   000094E5           LDR      R0,[R4, #+0]
   \   000002A0   3C0090E5           LDR      R0,[R0, #+60]
   \   000002A4   0000DAE7           LDRB     R0,[R10, +R0]
    439            }
   \   000002A8   01A08AE2           ADD      R10,R10,#+1
   \   000002AC   0800CBE7           STRB     R0,[R11, +R8]
   \                     ??FileWrite_14:
   \   000002B0   000094E5           LDR      R0,[R4, #+0]
   \   000002B4   01B08BE2           ADD      R11,R11,#+1
   \   000002B8   3C0090E5           LDR      R0,[R0, #+60]
   \   000002BC   5A0100EF           SWI      +346
   \   000002C0   010040E2           SUB      R0,R0,#+1
   \   000002C4   0A0050E1           CMP      R0,R10
   \   000002C8   F3FFFFAA           BGE      ??FileWrite_15
    440            pos++;
    441            write[pos]='T';
   \   000002CC   0890CBE7           STRB     R9,[R11, +R8]
    442            pos++;
   \   000002D0   01008BE2           ADD      R0,R11,#+1
    443            write[pos]='P';
   \   000002D4   5010A0E3           MOV      R1,#+80
   \   000002D8   0810C0E7           STRB     R1,[R0, +R8]
    444            pos++;
   \   000002DC   010080E2           ADD      R0,R0,#+1
    445            write[pos]='E';
   \   000002E0   4510A0E3           MOV      R1,#+69
   \   000002E4   0810C0E7           STRB     R1,[R0, +R8]
    446            pos++;
   \   000002E8   010080E2           ADD      R0,R0,#+1
    447            write[pos]='1';
   \   000002EC   3110A0E3           MOV      R1,#+49
   \   000002F0   0810C0E7           STRB     R1,[R0, +R8]
    448            pos++;
    449            pos++;
    450            pos++;
    451            pos++;
   \   000002F4   04A080E2           ADD      R10,R0,#+4
    452            write[pos]=strlen(TagBook->Autor2)+1;
   \   000002F8   000094E5           LDR      R0,[R4, #+0]
    453            pos++;
    454            pos++;
    455            pos++;
   \   000002FC   03B08AE2           ADD      R11,R10,#+3
   \   00000300   240090E5           LDR      R0,[R0, #+36]
   \   00000304   5A0100EF           SWI      +346
   \   00000308   010080E2           ADD      R0,R0,#+1
   \   0000030C   0800CAE7           STRB     R0,[R10, +R8]
    456            for(int i=0; i<=strlen(TagBook->Autor2)-1; i++)
   \   00000310   00A0A0E3           MOV      R10,#+0
   \   00000314   040000EA           B        ??FileWrite_16
    457            {
    458              pos++;
    459              write[pos]=TagBook->Autor2[i];
   \                     ??FileWrite_17:
   \   00000318   000094E5           LDR      R0,[R4, #+0]
   \   0000031C   240090E5           LDR      R0,[R0, #+36]
   \   00000320   0000DAE7           LDRB     R0,[R10, +R0]
    460            }
   \   00000324   01A08AE2           ADD      R10,R10,#+1
   \   00000328   0800CBE7           STRB     R0,[R11, +R8]
   \                     ??FileWrite_16:
   \   0000032C   000094E5           LDR      R0,[R4, #+0]
   \   00000330   01B08BE2           ADD      R11,R11,#+1
   \   00000334   240090E5           LDR      R0,[R0, #+36]
   \   00000338   5A0100EF           SWI      +346
   \   0000033C   010040E2           SUB      R0,R0,#+1
   \   00000340   0A0050E1           CMP      R0,R10
   \   00000344   F3FFFFAA           BGE      ??FileWrite_17
    461            pos++;
    462            write[pos]='T';
   \   00000348   0890CBE7           STRB     R9,[R11, +R8]
    463            pos++;
   \   0000034C   01008BE2           ADD      R0,R11,#+1
    464            write[pos]='A';
   \   00000350   4110A0E3           MOV      R1,#+65
   \   00000354   0810C0E7           STRB     R1,[R0, +R8]
    465            pos++;
   \   00000358   010080E2           ADD      R0,R0,#+1
    466            write[pos]='L';
   \   0000035C   4C10A0E3           MOV      R1,#+76
   \   00000360   0810C0E7           STRB     R1,[R0, +R8]
    467            pos++;
   \   00000364   010080E2           ADD      R0,R0,#+1
    468            write[pos]='B';
   \   00000368   4210A0E3           MOV      R1,#+66
   \   0000036C   0810C0E7           STRB     R1,[R0, +R8]
    469            pos++;
    470            pos++;
    471            pos++;
    472            pos++;
   \   00000370   049080E2           ADD      R9,R0,#+4
    473            write[pos]=strlen(TagBook->Album2)+1;
   \   00000374   000094E5           LDR      R0,[R4, #+0]
    474            pos++;
    475            pos++;
    476            pos++;
    477            for(int i=0; i<=strlen(TagBook->Album2)-1; i++)
   \   00000378   00A0A0E3           MOV      R10,#+0
   \   0000037C   1C0090E5           LDR      R0,[R0, #+28]
   \   00000380   5A0100EF           SWI      +346
   \   00000384   010080E2           ADD      R0,R0,#+1
   \   00000388   0800C9E7           STRB     R0,[R9, +R8]
   \   0000038C   039089E2           ADD      R9,R9,#+3
   \   00000390   050000EA           B        ??FileWrite_18
    478            {
    479              pos++;
    480              write[pos]=TagBook->Album2[i];
   \                     ??FileWrite_19:
   \   00000394   000094E5           LDR      R0,[R4, #+0]
   \   00000398   019089E2           ADD      R9,R9,#+1
   \   0000039C   1C0090E5           LDR      R0,[R0, #+28]
   \   000003A0   0000DAE7           LDRB     R0,[R10, +R0]
    481            }
   \   000003A4   01A08AE2           ADD      R10,R10,#+1
   \   000003A8   0800C9E7           STRB     R0,[R9, +R8]
   \                     ??FileWrite_18:
   \   000003AC   000094E5           LDR      R0,[R4, #+0]
   \   000003B0   1C0090E5           LDR      R0,[R0, #+28]
   \   000003B4   5A0100EF           SWI      +346
   \   000003B8   010040E2           SUB      R0,R0,#+1
   \   000003BC   0A0050E1           CMP      R0,R10
   \   000003C0   F3FFFFAA           BGE      ??FileWrite_19
    482            for(int i=0; i<=pos; i++){
   \   000003C4   0000A0E3           MOV      R0,#+0
   \   000003C8   000059E3           CMP      R9,#+0
   \   000003CC   0600005A           BPL      ??FileWrite_20
   \   000003D0   070000EA           B        ??FileWrite_21
    483              TagBook->buffer2[i+10]=write[i];
   \                     ??FileWrite_22:
   \   000003D4   001094E5           LDR      R1,[R4, #+0]
   \   000003D8   0820D0E7           LDRB     R2,[R0, +R8]
   \   000003DC   2C1091E5           LDR      R1,[R1, #+44]
   \   000003E0   011080E0           ADD      R1,R0,R1
   \   000003E4   0A20C1E5           STRB     R2,[R1, #+10]
    484            }
   \   000003E8   010080E2           ADD      R0,R0,#+1
   \                     ??FileWrite_20:
   \   000003EC   000059E1           CMP      R9,R0
   \   000003F0   F7FFFFAA           BGE      ??FileWrite_22
    485            fwrite(f, TagBook->buffer2, TagBook->size_id3);
   \                     ??FileWrite_21:
   \   000003F4   000094E5           LDR      R0,[R4, #+0]
   \   000003F8   D02090E5           LDR      R2,[R0, #+208]
   \   000003FC   2C1090E5           LDR      R1,[R0, #+44]
   \   00000400   0600A0E1           MOV      R0,R6
   \   00000404   190100EF           SWI      +281
    486            for(int i=0; i<=29; i++)
   \   00000408   0000A0E3           MOV      R0,#+0
    487            {
    488              TagBook->Title[i]=0;
   \                     ??FileWrite_23:
   \   0000040C   001094E5           LDR      R1,[R4, #+0]
   \   00000410   381091E5           LDR      R1,[R1, #+56]
   \   00000414   0170C0E7           STRB     R7,[R0, +R1]
    489              TagBook->Autor[i]=0;
   \   00000418   001094E5           LDR      R1,[R4, #+0]
   \   0000041C   201091E5           LDR      R1,[R1, #+32]
   \   00000420   0170C0E7           STRB     R7,[R0, +R1]
    490              TagBook->Album[i]=0;
   \   00000424   001094E5           LDR      R1,[R4, #+0]
   \   00000428   181091E5           LDR      R1,[R1, #+24]
   \   0000042C   0170C0E7           STRB     R7,[R0, +R1]
    491              TagBook->Comment[i]=0;
   \   00000430   001094E5           LDR      R1,[R4, #+0]
   \   00000434   301091E5           LDR      R1,[R1, #+48]
   \   00000438   0170C0E7           STRB     R7,[R0, +R1]
    492            }
   \   0000043C   010080E2           ADD      R0,R0,#+1
   \   00000440   1E0050E3           CMP      R0,#+30
   \   00000444   F0FFFFBA           BLT      ??FileWrite_23
    493            for(int i=0; i<=3; i++)
   \   00000448   0000A0E3           MOV      R0,#+0
    494            {
    495              TagBook->Year[i]=0;
   \                     ??FileWrite_24:
   \   0000044C   001094E5           LDR      R1,[R4, #+0]
   \   00000450   401091E5           LDR      R1,[R1, #+64]
   \   00000454   0170C0E7           STRB     R7,[R0, +R1]
    496            }
   \   00000458   010080E2           ADD      R0,R0,#+1
   \   0000045C   040050E3           CMP      R0,#+4
   \   00000460   F9FFFFBA           BLT      ??FileWrite_24
    497            unicode2win1251(TagBook->Title,TagBook->UTitle,30);
   \   00000464   000094E5           LDR      R0,[R4, #+0]
   \   00000468   1E20A0E3           MOV      R2,#+30
   \   0000046C   1C1190E5           LDR      R1,[R0, #+284]
   \   00000470   380090E5           LDR      R0,[R0, #+56]
   \   00000474   ........           BL       ??unicode2win1251
    498            unicode2win1251(TagBook->Autor,TagBook->UAutor,30);
   \   00000478   000094E5           LDR      R0,[R4, #+0]
   \   0000047C   1E20A0E3           MOV      R2,#+30
   \   00000480   041190E5           LDR      R1,[R0, #+260]
   \   00000484   200090E5           LDR      R0,[R0, #+32]
   \   00000488   ........           BL       ??unicode2win1251
    499            unicode2win1251(TagBook->Album,TagBook->UAlbum,30);
   \   0000048C   000094E5           LDR      R0,[R4, #+0]
   \   00000490   1E20A0E3           MOV      R2,#+30
   \   00000494   FC1090E5           LDR      R1,[R0, #+252]
   \   00000498   180090E5           LDR      R0,[R0, #+24]
   \   0000049C   ........           BL       ??unicode2win1251
    500            unicode2win1251(TagBook->Year,TagBook->UYear,30);
   \   000004A0   000094E5           LDR      R0,[R4, #+0]
   \   000004A4   1E20A0E3           MOV      R2,#+30
   \   000004A8   241190E5           LDR      R1,[R0, #+292]
   \   000004AC   400090E5           LDR      R0,[R0, #+64]
   \   000004B0   ........           BL       ??unicode2win1251
    501            unicode2win1251(TagBook->Comment,TagBook->UComment,30);
   \   000004B4   000094E5           LDR      R0,[R4, #+0]
   \   000004B8   1E20A0E3           MOV      R2,#+30
   \   000004BC   101190E5           LDR      R1,[R0, #+272]
   \   000004C0   300090E5           LDR      R0,[R0, #+48]
   \   000004C4   ........           BL       ??unicode2win1251
    502            for(int i=0; i<=3; i++)
   \   000004C8   0000A0E3           MOV      R0,#+0
    503            {
    504              TagBook->buffer[TagBook->PosYear+i]=TagBook->Year[i];
   \                     ??FileWrite_25:
   \   000004CC   001094E5           LDR      R1,[R4, #+0]
   \   000004D0   C42091E5           LDR      R2,[R1, #+196]
   \   000004D4   283091E5           LDR      R3,[R1, #+40]
   \   000004D8   401091E5           LDR      R1,[R1, #+64]
   \   000004DC   022080E0           ADD      R2,R0,R2
   \   000004E0   0110D0E7           LDRB     R1,[R0, +R1]
    505            }
   \   000004E4   010080E2           ADD      R0,R0,#+1
   \   000004E8   040050E3           CMP      R0,#+4
   \   000004EC   0310C2E7           STRB     R1,[R2, +R3]
   \   000004F0   F5FFFFBA           BLT      ??FileWrite_25
    506            for(int i=0; i<=29; i++)
   \   000004F4   0000A0E3           MOV      R0,#+0
    507            {
    508              TagBook->buffer[TagBook->PosTitle+i]=TagBook->Title[i];
   \                     ??FileWrite_26:
   \   000004F8   001094E5           LDR      R1,[R4, #+0]
   \   000004FC   BC2091E5           LDR      R2,[R1, #+188]
   \   00000500   283091E5           LDR      R3,[R1, #+40]
   \   00000504   381091E5           LDR      R1,[R1, #+56]
   \   00000508   022080E0           ADD      R2,R0,R2
   \   0000050C   0110D0E7           LDRB     R1,[R0, +R1]
   \   00000510   0310C2E7           STRB     R1,[R2, +R3]
    509              TagBook->buffer[TagBook->PosAutor+i]=TagBook->Autor[i];
   \   00000514   001094E5           LDR      R1,[R4, #+0]
   \   00000518   B02091E5           LDR      R2,[R1, #+176]
   \   0000051C   283091E5           LDR      R3,[R1, #+40]
   \   00000520   201091E5           LDR      R1,[R1, #+32]
   \   00000524   022080E0           ADD      R2,R0,R2
   \   00000528   0110D0E7           LDRB     R1,[R0, +R1]
   \   0000052C   0310C2E7           STRB     R1,[R2, +R3]
    510              TagBook->buffer[TagBook->PosAlbum+i]=TagBook->Album[i];
   \   00000530   001094E5           LDR      R1,[R4, #+0]
   \   00000534   A82091E5           LDR      R2,[R1, #+168]
   \   00000538   283091E5           LDR      R3,[R1, #+40]
   \   0000053C   181091E5           LDR      R1,[R1, #+24]
   \   00000540   022080E0           ADD      R2,R0,R2
   \   00000544   0110D0E7           LDRB     R1,[R0, +R1]
   \   00000548   0310C2E7           STRB     R1,[R2, +R3]
    511              TagBook->buffer[TagBook->PosComment+i]=TagBook->Comment[i];
   \   0000054C   001094E5           LDR      R1,[R4, #+0]
   \   00000550   B82091E5           LDR      R2,[R1, #+184]
   \   00000554   283091E5           LDR      R3,[R1, #+40]
   \   00000558   301091E5           LDR      R1,[R1, #+48]
   \   0000055C   022080E0           ADD      R2,R0,R2
   \   00000560   0110D0E7           LDRB     R1,[R0, +R1]
    512            }
   \   00000564   010080E2           ADD      R0,R0,#+1
   \   00000568   1E0050E3           CMP      R0,#+30
   \   0000056C   0310C2E7           STRB     R1,[R2, +R3]
   \   00000570   E0FFFFBA           BLT      ??FileWrite_26
    513            TagBook->buffer[127]=TagBook->genre;
   \   00000574   000094E5           LDR      R0,[R4, #+0]
    514            lseek(f, TagBook->size-TagBook->ID3v1*128, 0);
   \   00000578   0020A0E3           MOV      R2,#+0
   \   0000057C   281090E5           LDR      R1,[R0, #+40]
   \   00000580   7C0090E5           LDR      R0,[R0, #+124]
   \   00000584   7F00C1E5           STRB     R0,[R1, #+127]
   \   00000588   000094E5           LDR      R0,[R4, #+0]
   \   0000058C   CC1090E5           LDR      R1,[R0, #+204]
   \   00000590   880090E5           LDR      R0,[R0, #+136]
   \   00000594   801341E0           SUB      R1,R1,R0, LSL #+7
   \   00000598   0600A0E1           MOV      R0,R6
   \   0000059C   760100EF           SWI      +374
    515            fwrite(f, TagBook->buffer, 128);  
   \   000005A0   000094E5           LDR      R0,[R4, #+0]
   \   000005A4   8020A0E3           MOV      R2,#+128
   \   000005A8   281090E5           LDR      R1,[R0, #+40]
   \   000005AC   0600A0E1           MOV      R0,R6
   \   000005B0   190100EF           SWI      +281
    516            fclose(f);
   \   000005B4   0600A0E1           MOV      R0,R6
   \   000005B8   170100EF           SWI      +279
    517            if(TagBook->name[TagBook->lenn-1]=='t'&&MptToMp3)
   \   000005BC   002094E5           LDR      R2,[R4, #+0]
   \   000005C0   F01092E5           LDR      R1,[R2, #+240]
   \   000005C4   900092E5           LDR      R0,[R2, #+144]
   \   000005C8   800081E0           ADD      R0,R1,R0, LSL #+1
   \   000005CC   B20050E1           LDRH     R0,[R0, #-2]
   \   000005D0   740050E3           CMP      R0,#+116
   \   000005D4   1000001A           BNE      ??FileWrite_27
   \   000005D8   E0019FE5           LDR      R0,??FileWrite_5+0x4  ;; MptToMp3
   \   000005DC   000090E5           LDR      R0,[R0, #+0]
   \   000005E0   000050E3           CMP      R0,#+0
   \   000005E4   0C00000A           BEQ      ??FileWrite_27
    518            {
    519              rename(TagBook->path, TagBook->name, TagBook->path, TagBook->Unewname,0);
   \   000005E8   F40092E5           LDR      R0,[R2, #+244]
   \   000005EC   0030A0E3           MOV      R3,#+0
   \   000005F0   08002DE9           PUSH     {R3}
   \   000005F4   183192E5           LDR      R3,[R2, #+280]
   \   000005F8   0020A0E1           MOV      R2,R0
   \   000005FC   920200EF           SWI      +658
    520              TagBook->name[TagBook->lenn-1]='3';
   \   00000600   000094E5           LDR      R0,[R4, #+0]
   \   00000604   901090E5           LDR      R1,[R0, #+144]
   \   00000608   F00090E5           LDR      R0,[R0, #+240]
   \   0000060C   810080E0           ADD      R0,R0,R1, LSL #+1
   \   00000610   3310A0E3           MOV      R1,#+51
   \   00000614   B21040E1           STRH     R1,[R0, #-2]
   \   00000618   04D08DE2           ADD      SP,SP,#+4
    521            }
    522            if(RenameFile)
   \                     ??FileWrite_27:
   \   0000061C   A0019FE5           LDR      R0,??FileWrite_5+0x8  ;; RenameFile
   \   00000620   000090E5           LDR      R0,[R0, #+0]
   \   00000624   000050E3           CMP      R0,#+0
   \   00000628   5900000A           BEQ      ??FileWrite_28
    523            {
    524              wchar_t*new_name;
    525              if(FromRename==0)
   \   0000062C   94019FE5           LDR      R0,??FileWrite_5+0xC  ;; FromRename
   \   00000630   000090E5           LDR      R0,[R0, #+0]
   \   00000634   000050E3           CMP      R0,#+0
   \   00000638   4C00001A           BNE      ??FileWrite_29
    526              {
    527                new_name=new wchar_t[255+255+255+wstrlen(L".mp3")+150];
   \   0000063C   080085E2           ADD      R0,R5,#+8
   \   00000640   570100EF           SWI      +343
   \   00000644   9310A0E3           MOV      R1,#+147
   \   00000648   C01F81E3           ORR      R1,R1,#0x300
   \   0000064C   000081E0           ADD      R0,R1,R0
   \   00000650   8000A0E1           LSL      R0,R0,#+1
   \   00000654   ........           _BLF     `??operator new[]`,`??operator new[]??rA`
   \   00000658   0060A0E1           MOV      R6,R0
    528                if(wstrlen(TagBook->UAutor))
   \   0000065C   000094E5           LDR      R0,[R4, #+0]
   \   00000660   040190E5           LDR      R0,[R0, #+260]
   \   00000664   570100EF           SWI      +343
   \   00000668   000050E3           CMP      R0,#+0
    529                {
    530                  wstrcpy(new_name, TagBook->UAutor);
   \   0000066C   00009415           LDRNE    R0,[R4, #+0]
   \   00000670   04119015           LDRNE    R1,[R0, #+260]
   \   00000674   0700001A           BNE      ??FileWrite_30
    531                }
    532                else
    533                {
    534                  if(wstrcmp(TagBook->UAutor2, L"  "))
   \   00000678   000094E5           LDR      R0,[R4, #+0]
   \   0000067C   0510A0E1           MOV      R1,R5
   \   00000680   080190E5           LDR      R0,[R0, #+264]
   \   00000684   560100EF           SWI      +342
   \   00000688   000050E3           CMP      R0,#+0
    535                  {
    536                    wstrcpy(new_name, TagBook->UAutor2);
   \   0000068C   00009415           LDRNE    R0,[R4, #+0]
    537                  }
    538                  else
    539                  {
    540                    wstrcpy(new_name, RENAME_ARTIST_NOT_FOUND);
   \   00000690   14108502           ADDEQ    R1,R5,#+20
   \   00000694   08119015           LDRNE    R1,[R0, #+264]
   \                     ??FileWrite_30:
   \   00000698   0600A0E1           MOV      R0,R6
   \   0000069C   520100EF           SWI      +338
    541                  }
    542                }
    543                wstrcat(new_name, L" - ");
   \   000006A0   241085E2           ADD      R1,R5,#+36
   \   000006A4   0600A0E1           MOV      R0,R6
   \   000006A8   540100EF           SWI      +340
    544                if(wstrlen(TagBook->UTitle))
   \   000006AC   000094E5           LDR      R0,[R4, #+0]
   \   000006B0   1C0190E5           LDR      R0,[R0, #+284]
   \   000006B4   570100EF           SWI      +343
   \   000006B8   000050E3           CMP      R0,#+0
    545                {
    546                  wstrcat(new_name, TagBook->UTitle);
   \   000006BC   00009415           LDRNE    R0,[R4, #+0]
   \   000006C0   1C119015           LDRNE    R1,[R0, #+284]
   \   000006C4   0B00001A           BNE      ??FileWrite_31
    547                }
    548                else
    549                {
    550                  if(wstrcmp(TagBook->UTitle2, L"  "))
   \   000006C8   000094E5           LDR      R0,[R4, #+0]
   \   000006CC   0510A0E1           MOV      R1,R5
   \   000006D0   200190E5           LDR      R0,[R0, #+288]
   \   000006D4   560100EF           SWI      +342
   \   000006D8   000050E3           CMP      R0,#+0
   \   000006DC   0400000A           BEQ      ??FileWrite_32
    551                  {
    552                    wstrcpy(new_name, TagBook->UTitle2);
   \   000006E0   000094E5           LDR      R0,[R4, #+0]
   \   000006E4   201190E5           LDR      R1,[R0, #+288]
   \   000006E8   0600A0E1           MOV      R0,R6
   \   000006EC   520100EF           SWI      +338
   \   000006F0   020000EA           B        ??FileWrite_33
    553                  }
    554                  else
    555                  {
    556                    wstrcat(new_name, RENAME_TITLE_NOT_FOUND);
   \                     ??FileWrite_32:
   \   000006F4   2C1085E2           ADD      R1,R5,#+44
   \                     ??FileWrite_31:
   \   000006F8   0600A0E1           MOV      R0,R6
   \   000006FC   540100EF           SWI      +340
    557                  }
    558                }
    559                if(wstrlen(TagBook->UAlbum))
   \                     ??FileWrite_33:
   \   00000700   000094E5           LDR      R0,[R4, #+0]
   \   00000704   FC0090E5           LDR      R0,[R0, #+252]
   \   00000708   570100EF           SWI      +343
   \   0000070C   000050E3           CMP      R0,#+0
   \   00000710   0800000A           BEQ      ??FileWrite_34
    560                {
    561                  wstrcat(new_name, L" (");
   \   00000714   441085E2           ADD      R1,R5,#+68
   \   00000718   0600A0E1           MOV      R0,R6
   \   0000071C   540100EF           SWI      +340
    562                  wstrcat(new_name, TagBook->UAlbum);
   \   00000720   000094E5           LDR      R0,[R4, #+0]
   \   00000724   FC1090E5           LDR      R1,[R0, #+252]
   \                     ??FileWrite_35:
   \   00000728   0600A0E1           MOV      R0,R6
   \   0000072C   540100EF           SWI      +340
    563                  wstrcat(new_name, L").mp3");
   \   00000730   4C1085E2           ADD      R1,R5,#+76
   \   00000734   0B0000EA           B        ??FileWrite_36
    564                }
    565                else
    566                {
    567                  if(wstrlen(TagBook->UAlbum2))
   \                     ??FileWrite_34:
   \   00000738   000094E5           LDR      R0,[R4, #+0]
   \   0000073C   000190E5           LDR      R0,[R0, #+256]
   \   00000740   570100EF           SWI      +343
   \   00000744   000050E3           CMP      R0,#+0
   \   00000748   0500000A           BEQ      ??FileWrite_37
    568                  {
    569                    wstrcat(new_name, L" (");
   \   0000074C   441085E2           ADD      R1,R5,#+68
   \   00000750   0600A0E1           MOV      R0,R6
   \   00000754   540100EF           SWI      +340
    570                    wstrcat(new_name, TagBook->UAlbum2);
   \   00000758   000094E5           LDR      R0,[R4, #+0]
   \   0000075C   001190E5           LDR      R1,[R0, #+256]
   \   00000760   F0FFFFEA           B        ??FileWrite_35
    571                    wstrcat(new_name, L").mp3");
    572                  }
    573                  else
    574                  {
    575                    wstrcat(new_name, L".mp3");
   \                     ??FileWrite_37:
   \   00000764   081085E2           ADD      R1,R5,#+8
   \                     ??FileWrite_36:
   \   00000768   0600A0E1           MOV      R0,R6
   \   0000076C   540100EF           SWI      +340
    576                  }
    577                }
    578              }
    579              rename(TagBook->path, TagBook->name, TagBook->path, new_name,0);
   \                     ??FileWrite_29:
   \   00000770   001094E5           LDR      R1,[R4, #+0]
   \   00000774   0020A0E3           MOV      R2,#+0
   \   00000778   F40091E5           LDR      R0,[R1, #+244]
   \   0000077C   04002DE9           PUSH     {R2}
   \   00000780   F01091E5           LDR      R1,[R1, #+240]
   \   00000784   0630A0E1           MOV      R3,R6
   \   00000788   0020A0E1           MOV      R2,R0
   \   0000078C   920200EF           SWI      +658
   \   00000790   04D08DE2           ADD      SP,SP,#+4
    580            }
    581            PAudioControl pAC = AudioControl_Init();
   \                     ??FileWrite_28:
   \   00000794   DF0100EF           SWI      +479
    582            if( !pAC ) pAC = *GetAudioControlPtr();
   \   00000798   000050E3           CMP      R0,#+0
   \   0000079C   0100001A           BNE      ??FileWrite_38
   \   000007A0   D18100EF           SWI      +33233
   \   000007A4   000090E5           LDR      R0,[R0, #+0]
    583            AudioControl_Vibrate(pAC, 400, 50, 1000);
   \                     ??FileWrite_38:
   \   000007A8   FA3FA0E3           MOV      R3,#+1000
   \   000007AC   3220A0E3           MOV      R2,#+50
   \   000007B0   641FA0E3           MOV      R1,#+400
   \   000007B4   D20100EF           SWI      +466
    584          }
   \   000007B8   F08FBDE8           POP      {R4-R11,PC}      ;; return
   \                     ??FileWrite_5:
   \   000007BC   ........           DC32     `?<Constant L"\\x20\\x20">`
   \   000007C0   ........           DC32     MptToMp3
   \   000007C4   ........           DC32     RenameFile
   \   000007C8   ........           DC32     FromRename
    585          

   \                                 In segment CODE, align 4, keep-with-next
    586          void DestroyInputBooks2()
    587          {
   \                     ??DestroyInputBooks2:
   \   00000000   30402DE9           PUSH     {R4,R5,LR}
    588            if(TagBook->InputTitle2)
   \   00000004   ........           LDR      R4,??DataTable46  ;; TagBook
   \   00000008   0050A0E3           MOV      R5,#+0
   \   0000000C   000094E5           LDR      R0,[R4, #+0]
   \   00000010   5C0090E5           LDR      R0,[R0, #+92]
   \   00000014   000050E3           CMP      R0,#+0
   \   00000018   0200000A           BEQ      ??DestroyInputBooks2_1
    589            {
    590              GUIObject_Destroy(TagBook->InputTitle2);
   \   0000001C   CE0100EF           SWI      +462
    591              TagBook->InputTitle2=0;
   \   00000020   000094E5           LDR      R0,[R4, #+0]
   \   00000024   5C5080E5           STR      R5,[R0, #+92]
   \                     ??DestroyInputBooks2_1:
   \   00000028   000094E5           LDR      R0,[R4, #+0]
   \   0000002C   480090E5           LDR      R0,[R0, #+72]
   \   00000030   000050E3           CMP      R0,#+0
   \   00000034   0200000A           BEQ      ??DestroyInputBooks2_2
    592            }
    593            if(TagBook->InputAlbum2)
    594            {
    595              GUIObject_Destroy(TagBook->InputAlbum2);
   \   00000038   CE0100EF           SWI      +462
    596              TagBook->InputAlbum2=0;
   \   0000003C   000094E5           LDR      R0,[R4, #+0]
   \   00000040   485080E5           STR      R5,[R0, #+72]
   \                     ??DestroyInputBooks2_2:
   \   00000044   000094E5           LDR      R0,[R4, #+0]
   \   00000048   500090E5           LDR      R0,[R0, #+80]
   \   0000004C   000050E3           CMP      R0,#+0
   \   00000050   3080BD08           POPEQ    {R4,R5,PC}
    597            }
    598            if(TagBook->InputAutor2)
    599            {
    600              GUIObject_Destroy(TagBook->InputAutor2);
   \   00000054   CE0100EF           SWI      +462
    601              TagBook->InputAutor2=0;
   \   00000058   000094E5           LDR      R0,[R4, #+0]
   \   0000005C   505080E5           STR      R5,[R0, #+80]
    602            }
    603          }
   \   00000060   3080BDE8           POP      {R4,R5,PC}       ;; return
    604          

   \                                 In segment CODE, align 4, keep-with-next
    605          void OnEntInputTitle2(BOOK *,wchar_t * string,int len)
    606          {
   \                     ??OnEntInputTitle2:
   \   00000000   70402DE9           PUSH     {R4-R6,LR}
    607            if(TagBook->UTitle2) delete TagBook->UTitle2;
   \   00000004   ........           LDR      R4,??DataTable46  ;; TagBook
   \   00000008   0150A0E1           MOV      R5,R1
   \   0000000C   000094E5           LDR      R0,[R4, #+0]
   \   00000010   0260A0E1           MOV      R6,R2
   \   00000014   200190E5           LDR      R0,[R0, #+288]
   \   00000018   000050E3           CMP      R0,#+0
   \   0000001C   0000000A           BEQ      ??OnEntInputTitle2_1
   \   00000020   ........           _BLF     `??operator delete`,`??operator delete??rA`
    608            TagBook->UTitle2=new wchar_t[len+1];
   \                     ??OnEntInputTitle2_1:
   \   00000024   010086E2           ADD      R0,R6,#+1
   \   00000028   8000A0E1           LSL      R0,R0,#+1
   \   0000002C   ........           _BLF     `??operator new[]`,`??operator new[]??rA`
   \   00000030   002094E5           LDR      R2,[R4, #+0]
    609            wstrcpy(TagBook->UTitle2, string);
   \   00000034   0510A0E1           MOV      R1,R5
   \   00000038   200182E5           STR      R0,[R2, #+288]
   \   0000003C   520100EF           SWI      +338
    610            TagBook->change++;
   \   00000040   000094E5           LDR      R0,[R4, #+0]
   \   00000044   781090E5           LDR      R1,[R0, #+120]
   \   00000048   011081E2           ADD      R1,R1,#+1
   \   0000004C   781080E5           STR      R1,[R0, #+120]
    611            DestroyInputBooks2();
   \   00000050   ........           BL       ??DestroyInputBooks2
    612            GUIObject_Show(TagBook->MenuList2);
   \   00000054   000094E5           LDR      R0,[R4, #+0]
   \   00000058   740090E5           LDR      R0,[R0, #+116]
   \   0000005C   340100EF           SWI      +308
    613          }
   \   00000060   7080BDE8           POP      {R4-R6,PC}       ;; return
    614          

   \                                 In segment CODE, align 4, keep-with-next
    615          void OnEntInputAutor2(BOOK *,wchar_t * string,int len)
    616          {
   \                     ??OnEntInputAutor2:
   \   00000000   70402DE9           PUSH     {R4-R6,LR}
    617            if(TagBook->UAutor2) delete TagBook->UAutor2;
   \   00000004   ........           LDR      R4,??DataTable46  ;; TagBook
   \   00000008   0150A0E1           MOV      R5,R1
   \   0000000C   000094E5           LDR      R0,[R4, #+0]
   \   00000010   0260A0E1           MOV      R6,R2
   \   00000014   080190E5           LDR      R0,[R0, #+264]
   \   00000018   000050E3           CMP      R0,#+0
   \   0000001C   0000000A           BEQ      ??OnEntInputAutor2_1
   \   00000020   ........           _BLF     `??operator delete`,`??operator delete??rA`
    618            TagBook->UAutor2=new wchar_t[len+1];
   \                     ??OnEntInputAutor2_1:
   \   00000024   010086E2           ADD      R0,R6,#+1
   \   00000028   8000A0E1           LSL      R0,R0,#+1
   \   0000002C   ........           _BLF     `??operator new[]`,`??operator new[]??rA`
   \   00000030   002094E5           LDR      R2,[R4, #+0]
    619            wstrcpy(TagBook->UAutor2, string);
   \   00000034   0510A0E1           MOV      R1,R5
   \   00000038   080182E5           STR      R0,[R2, #+264]
   \   0000003C   520100EF           SWI      +338
    620            TagBook->change++;
   \   00000040   000094E5           LDR      R0,[R4, #+0]
   \   00000044   781090E5           LDR      R1,[R0, #+120]
   \   00000048   011081E2           ADD      R1,R1,#+1
   \   0000004C   781080E5           STR      R1,[R0, #+120]
    621            DestroyInputBooks2();
   \   00000050   ........           BL       ??DestroyInputBooks2
    622            GUIObject_Show(TagBook->MenuList2);
   \   00000054   000094E5           LDR      R0,[R4, #+0]
   \   00000058   740090E5           LDR      R0,[R0, #+116]
   \   0000005C   340100EF           SWI      +308
    623          }
   \   00000060   7080BDE8           POP      {R4-R6,PC}       ;; return
    624          

   \                                 In segment CODE, align 4, keep-with-next
    625          void OnEntInputAlbum2(BOOK *,wchar_t * string,int len)
    626          {
   \                     ??OnEntInputAlbum2:
   \   00000000   70402DE9           PUSH     {R4-R6,LR}
    627            if(TagBook->UAlbum2) delete TagBook->UAlbum2;
   \   00000004   ........           LDR      R4,??DataTable46  ;; TagBook
   \   00000008   0150A0E1           MOV      R5,R1
   \   0000000C   000094E5           LDR      R0,[R4, #+0]
   \   00000010   0260A0E1           MOV      R6,R2
   \   00000014   000190E5           LDR      R0,[R0, #+256]
   \   00000018   000050E3           CMP      R0,#+0
   \   0000001C   0000000A           BEQ      ??OnEntInputAlbum2_1
   \   00000020   ........           _BLF     `??operator delete`,`??operator delete??rA`
    628            TagBook->UAlbum2=new wchar_t[len+1];
   \                     ??OnEntInputAlbum2_1:
   \   00000024   010086E2           ADD      R0,R6,#+1
   \   00000028   8000A0E1           LSL      R0,R0,#+1
   \   0000002C   ........           _BLF     `??operator new[]`,`??operator new[]??rA`
   \   00000030   002094E5           LDR      R2,[R4, #+0]
    629            wstrcpy(TagBook->UAlbum2, string);
   \   00000034   0510A0E1           MOV      R1,R5
   \   00000038   000182E5           STR      R0,[R2, #+256]
   \   0000003C   520100EF           SWI      +338
    630            TagBook->change++;
   \   00000040   000094E5           LDR      R0,[R4, #+0]
   \   00000044   781090E5           LDR      R1,[R0, #+120]
   \   00000048   011081E2           ADD      R1,R1,#+1
   \   0000004C   781080E5           STR      R1,[R0, #+120]
    631            DestroyInputBooks2();
   \   00000050   ........           BL       ??DestroyInputBooks2
    632            GUIObject_Show(TagBook->MenuList2);
   \   00000054   000094E5           LDR      R0,[R4, #+0]
   \   00000058   740090E5           LDR      R0,[R0, #+116]
   \   0000005C   340100EF           SWI      +308
    633          }
   \   00000060   7080BDE8           POP      {R4-R6,PC}       ;; return
    634          

   \                                 In segment CODE, align 4, keep-with-next
    635          void InputTitleF2()
    636          {
   \                     ??InputTitleF2:
   \   00000000   70402DE9           PUSH     {R4-R6,LR}
    637            TagBook->InputTitle2=CreateStringInputVA(0,
    638                                                 VAR_PREV_ACTION_PROC(DestroyInputBooks2),
    639                                                 VAR_LONG_BACK_PROC(DestroyInputBooks2),
    640                                                 VAR_BOOK(TagBook),
    641                                                 VAR_STRINP_FIXED_TEXT(TextID_Create(INFO_TITLE, ENC_UCS2, TEXTID_ANY_LEN)),
    642                                                 VAR_STRINP_TEXT(TextID_Create(TagBook->UTitle2, ENC_UCS2, TEXTID_ANY_LEN)),
    643                                                 VAR_STRINP_MAX_LEN(255),
    644                                                 VAR_STRINP_MIN_LEN(0),
    645                                                 VAR_OK_PROC(OnEntInputTitle2),
    646                                                 0);                                      
   \   00000004   ........           LDR      R4,??DataTable46  ;; TagBook
   \   00000008   0010A0E3           MOV      R1,#+0
   \   0000000C   000094E5           LDR      R0,[R4, #+0]
   \   00000010   FF60A0E3           MOV      R6,#+255
   \   00000014   200190E5           LDR      R0,[R0, #+288]
   \   00000018   FF6C86E3           ORR      R6,R6,#0xFF00
   \   0000001C   0620A0E1           MOV      R2,R6
   \   00000020   5D0100EF           SWI      +349
   \   00000024   0050A0E1           MOV      R5,R0
   \   00000028   ........           LDR      R0,??DataTable50  ;; `?<Constant L"\\x41d\\x430\\x437\\x432\\x430\\x43d\\x4`
   \   0000002C   0620A0E1           MOV      R2,R6
   \   00000030   0010A0E3           MOV      R1,#+0
   \   00000034   5D0100EF           SWI      +349
   \   00000038   ........           LDR      R2,??DataTable30  ;; ??DestroyInputBooks2
   \   0000003C   ........           LDR      R3,??DataTable31  ;; VAR_ARG_CALL_BACK_LONG_BACK
   \   00000040   0010A0E3           MOV      R1,#+0
   \   00000044   02002DE9           PUSH     {R1}
   \   00000048   74109FE5           LDR      R1,??InputTitleF2_1  ;; ??OnEntInputTitle2
   \   0000004C   02002DE9           PUSH     {R1}
   \   00000050   ........           LDR      R1,??DataTable32  ;; VAR_ARG_CALL_BACK_OK
   \   00000054   02002DE9           PUSH     {R1}
   \   00000058   0010A0E3           MOV      R1,#+0
   \   0000005C   02002DE9           PUSH     {R1}
   \   00000060   ........           LDR      R1,??DataTable33  ;; VAR_ARG_STRINP_MIN_LEN
   \   00000064   02002DE9           PUSH     {R1}
   \   00000068   FF10A0E3           MOV      R1,#+255
   \   0000006C   02002DE9           PUSH     {R1}
   \   00000070   ........           LDR      R1,??DataTable34  ;; VAR_ARG_STRINP_MAX_LEN
   \   00000074   02002DE9           PUSH     {R1}
   \   00000078   ........           LDR      R1,??DataTable35  ;; VAR_ARG_STRINP_TEXT
   \   0000007C   20002DE9           PUSH     {R5}
   \   00000080   02002DE9           PUSH     {R1}
   \   00000084   ........           LDR      R1,??DataTable36  ;; VAR_ARG_CALL_BACK_PREV_ACT
   \   00000088   01002DE9           PUSH     {R0}
   \   0000008C   ........           LDR      R0,??DataTable37  ;; VAR_ARG_STRINP_FIXED_TEXT
   \   00000090   01002DE9           PUSH     {R0}
   \   00000094   000094E5           LDR      R0,[R4, #+0]
   \   00000098   01002DE9           PUSH     {R0}
   \   0000009C   ........           LDR      R0,??DataTable38  ;; VAR_ARG_BOOK
   \   000000A0   01002DE9           PUSH     {R0}
   \   000000A4   0200A0E1           MOV      R0,R2
   \   000000A8   01002DE9           PUSH     {R0}
   \   000000AC   0000A0E3           MOV      R0,#+0
   \   000000B0   440100EF           SWI      +324
   \   000000B4   38D08DE2           ADD      SP,SP,#+56
   \   000000B8   001094E5           LDR      R1,[R4, #+0]
   \   000000BC   5C0081E5           STR      R0,[R1, #+92]
    647                                                 
    648          }
   \   000000C0   7080BDE8           POP      {R4-R6,PC}       ;; return
   \                     ??InputTitleF2_1:
   \   000000C4   ........           DC32     ??OnEntInputTitle2
    649          

   \                                 In segment CODE, align 4, keep-with-next
    650          void InputAutorF2()
    651          {
   \                     ??InputAutorF2:
   \   00000000   70402DE9           PUSH     {R4-R6,LR}
    652              TagBook->InputAutor2=CreateStringInputVA(0,
    653                                                 VAR_PREV_ACTION_PROC(DestroyInputBooks2),
    654                                                 VAR_LONG_BACK_PROC(DestroyInputBooks2),
    655                                                 VAR_BOOK(TagBook),
    656                                                 VAR_STRINP_FIXED_TEXT(TextID_Create(INPUT_ARTIST, ENC_UCS2, TEXTID_ANY_LEN)),
    657                                                 VAR_STRINP_TEXT(TextID_Create(TagBook->UAutor2, ENC_UCS2, TEXTID_ANY_LEN)),
    658                                                 VAR_STRINP_MAX_LEN(255),
    659                                                 VAR_STRINP_MIN_LEN(0),
    660                                                 VAR_OK_PROC(OnEntInputAutor2),
    661                                                 0);   
   \   00000004   ........           LDR      R4,??DataTable46  ;; TagBook
   \   00000008   0010A0E3           MOV      R1,#+0
   \   0000000C   000094E5           LDR      R0,[R4, #+0]
   \   00000010   FF60A0E3           MOV      R6,#+255
   \   00000014   080190E5           LDR      R0,[R0, #+264]
   \   00000018   FF6C86E3           ORR      R6,R6,#0xFF00
   \   0000001C   0620A0E1           MOV      R2,R6
   \   00000020   5D0100EF           SWI      +349
   \   00000024   0050A0E1           MOV      R5,R0
   \   00000028   ........           LDR      R0,??DataTable18  ;; `?<Constant L"\\x418\\x441\\x43f\\x43e\\x43b\\x43d\\x4_1`
   \   0000002C   0620A0E1           MOV      R2,R6
   \   00000030   0010A0E3           MOV      R1,#+0
   \   00000034   5D0100EF           SWI      +349
   \   00000038   ........           LDR      R2,??DataTable30  ;; ??DestroyInputBooks2
   \   0000003C   ........           LDR      R3,??DataTable31  ;; VAR_ARG_CALL_BACK_LONG_BACK
   \   00000040   0010A0E3           MOV      R1,#+0
   \   00000044   02002DE9           PUSH     {R1}
   \   00000048   74109FE5           LDR      R1,??InputAutorF2_1  ;; ??OnEntInputAutor2
   \   0000004C   02002DE9           PUSH     {R1}
   \   00000050   ........           LDR      R1,??DataTable32  ;; VAR_ARG_CALL_BACK_OK
   \   00000054   02002DE9           PUSH     {R1}
   \   00000058   0010A0E3           MOV      R1,#+0
   \   0000005C   02002DE9           PUSH     {R1}
   \   00000060   ........           LDR      R1,??DataTable33  ;; VAR_ARG_STRINP_MIN_LEN
   \   00000064   02002DE9           PUSH     {R1}
   \   00000068   FF10A0E3           MOV      R1,#+255
   \   0000006C   02002DE9           PUSH     {R1}
   \   00000070   ........           LDR      R1,??DataTable34  ;; VAR_ARG_STRINP_MAX_LEN
   \   00000074   02002DE9           PUSH     {R1}
   \   00000078   ........           LDR      R1,??DataTable35  ;; VAR_ARG_STRINP_TEXT
   \   0000007C   20002DE9           PUSH     {R5}
   \   00000080   02002DE9           PUSH     {R1}
   \   00000084   ........           LDR      R1,??DataTable36  ;; VAR_ARG_CALL_BACK_PREV_ACT
   \   00000088   01002DE9           PUSH     {R0}
   \   0000008C   ........           LDR      R0,??DataTable37  ;; VAR_ARG_STRINP_FIXED_TEXT
   \   00000090   01002DE9           PUSH     {R0}
   \   00000094   000094E5           LDR      R0,[R4, #+0]
   \   00000098   01002DE9           PUSH     {R0}
   \   0000009C   ........           LDR      R0,??DataTable38  ;; VAR_ARG_BOOK
   \   000000A0   01002DE9           PUSH     {R0}
   \   000000A4   0200A0E1           MOV      R0,R2
   \   000000A8   01002DE9           PUSH     {R0}
   \   000000AC   0000A0E3           MOV      R0,#+0
   \   000000B0   440100EF           SWI      +324
   \   000000B4   38D08DE2           ADD      SP,SP,#+56
   \   000000B8   001094E5           LDR      R1,[R4, #+0]
   \   000000BC   500081E5           STR      R0,[R1, #+80]
    662          }
   \   000000C0   7080BDE8           POP      {R4-R6,PC}       ;; return
   \                     ??InputAutorF2_1:
   \   000000C4   ........           DC32     ??OnEntInputAutor2
    663          

   \                                 In segment CODE, align 4, keep-with-next
    664          void InputAlbumF2()
    665          {
   \                     ??InputAlbumF2:
   \   00000000   70402DE9           PUSH     {R4-R6,LR}
    666              TagBook->InputAlbum2=CreateStringInputVA(0,
    667                                                 VAR_PREV_ACTION_PROC(DestroyInputBooks2),
    668                                                 VAR_LONG_BACK_PROC(DestroyInputBooks2),
    669                                                 VAR_BOOK(TagBook),
    670                                                 VAR_STRINP_FIXED_TEXT(TextID_Create(INPUT_ALBUM, ENC_UCS2, TEXTID_ANY_LEN)),
    671                                                 VAR_STRINP_TEXT(TextID_Create(TagBook->UAlbum2, ENC_UCS2, TEXTID_ANY_LEN)),
    672                                                 VAR_STRINP_MAX_LEN(255),
    673                                                 VAR_STRINP_MIN_LEN(0),
    674                                                 VAR_OK_PROC(OnEntInputAlbum2),
    675                                                 0); 
   \   00000004   ........           LDR      R4,??DataTable46  ;; TagBook
   \   00000008   0010A0E3           MOV      R1,#+0
   \   0000000C   000094E5           LDR      R0,[R4, #+0]
   \   00000010   FF60A0E3           MOV      R6,#+255
   \   00000014   000190E5           LDR      R0,[R0, #+256]
   \   00000018   FF6C86E3           ORR      R6,R6,#0xFF00
   \   0000001C   0620A0E1           MOV      R2,R6
   \   00000020   5D0100EF           SWI      +349
   \   00000024   0050A0E1           MOV      R5,R0
   \   00000028   ........           LDR      R0,??DataTable29  ;; `?<Constant L"\\x410\\x43b\\x44c\\x431\\x43e\\x43c\\x3_1`
   \   0000002C   0620A0E1           MOV      R2,R6
   \   00000030   0010A0E3           MOV      R1,#+0
   \   00000034   5D0100EF           SWI      +349
   \   00000038   ........           LDR      R2,??DataTable30  ;; ??DestroyInputBooks2
   \   0000003C   ........           LDR      R3,??DataTable31  ;; VAR_ARG_CALL_BACK_LONG_BACK
   \   00000040   0010A0E3           MOV      R1,#+0
   \   00000044   02002DE9           PUSH     {R1}
   \   00000048   74109FE5           LDR      R1,??InputAlbumF2_1  ;; ??OnEntInputAlbum2
   \   0000004C   02002DE9           PUSH     {R1}
   \   00000050   ........           LDR      R1,??DataTable32  ;; VAR_ARG_CALL_BACK_OK
   \   00000054   02002DE9           PUSH     {R1}
   \   00000058   0010A0E3           MOV      R1,#+0
   \   0000005C   02002DE9           PUSH     {R1}
   \   00000060   ........           LDR      R1,??DataTable33  ;; VAR_ARG_STRINP_MIN_LEN
   \   00000064   02002DE9           PUSH     {R1}
   \   00000068   FF10A0E3           MOV      R1,#+255
   \   0000006C   02002DE9           PUSH     {R1}
   \   00000070   ........           LDR      R1,??DataTable34  ;; VAR_ARG_STRINP_MAX_LEN
   \   00000074   02002DE9           PUSH     {R1}
   \   00000078   ........           LDR      R1,??DataTable35  ;; VAR_ARG_STRINP_TEXT
   \   0000007C   20002DE9           PUSH     {R5}
   \   00000080   02002DE9           PUSH     {R1}
   \   00000084   ........           LDR      R1,??DataTable36  ;; VAR_ARG_CALL_BACK_PREV_ACT
   \   00000088   01002DE9           PUSH     {R0}
   \   0000008C   ........           LDR      R0,??DataTable37  ;; VAR_ARG_STRINP_FIXED_TEXT
   \   00000090   01002DE9           PUSH     {R0}
   \   00000094   000094E5           LDR      R0,[R4, #+0]
   \   00000098   01002DE9           PUSH     {R0}
   \   0000009C   ........           LDR      R0,??DataTable38  ;; VAR_ARG_BOOK
   \   000000A0   01002DE9           PUSH     {R0}
   \   000000A4   0200A0E1           MOV      R0,R2
   \   000000A8   01002DE9           PUSH     {R0}
   \   000000AC   0000A0E3           MOV      R0,#+0
   \   000000B0   440100EF           SWI      +324
   \   000000B4   38D08DE2           ADD      SP,SP,#+56
   \   000000B8   001094E5           LDR      R1,[R4, #+0]
   \   000000BC   480081E5           STR      R0,[R1, #+72]
    676          }
   \   000000C0   7080BDE8           POP      {R4-R6,PC}       ;; return
   \                     ??InputAlbumF2_1:
   \   000000C4   ........           DC32     ??OnEntInputAlbum2
    677          

   \                                 In segment CODE, align 4, keep-with-next
    678          void OnEntML2( BOOK* bk, GUI* )
    679          {
    680            int item=ListMenu_GetSelectedItem(TagBook->MenuList2);
   \                     ??OnEntML2:
   \   00000000   ........           LDR      R0,??DataTable46  ;; TagBook
   \   00000004   00402DE9           PUSH     {LR}
   \   00000008   000090E5           LDR      R0,[R0, #+0]
   \   0000000C   740090E5           LDR      R0,[R0, #+116]
   \   00000010   3E0100EF           SWI      +318
    681            if(item==0)
   \   00000014   000050E3           CMP      R0,#+0
   \   00000018   0100001A           BNE      ??OnEntML2_1
    682            {
    683              InputTitleF2();
   \   0000001C   0040BDE8           POP      {LR}             ;; Pop
   \   00000020   ........           B        ??InputTitleF2   ;; tailcall
    684            }
    685            if(item==1)
   \                     ??OnEntML2_1:
   \   00000024   010050E3           CMP      R0,#+1
   \   00000028   0100001A           BNE      ??OnEntML2_2
    686            {
    687              InputAutorF2();
   \   0000002C   0040BDE8           POP      {LR}             ;; Pop
   \   00000030   ........           B        ??InputAutorF2   ;; tailcall
    688            }
    689            if(item==2)
   \                     ??OnEntML2_2:
   \   00000034   020050E3           CMP      R0,#+2
   \   00000038   0080BD18           POPNE    {PC}
    690            {
    691              InputAlbumF2();
   \   0000003C   0040BDE8           POP      {LR}             ;; Pop
   \   00000040   ........           B        ??InputAlbumF2   ;; tailcall
    692            }
    693          }
    694          

   \                                 In segment CODE, align 4, keep-with-next
    695          void ExitML2( BOOK*, GUI* )
    696          {
   \                     ??ExitML2:
   \   00000000   10402DE9           PUSH     {R4,LR}
    697            GUIObject_Destroy(TagBook->MenuList2);
   \   00000004   ........           LDR      R4,??DataTable46  ;; TagBook
   \   00000008   000094E5           LDR      R0,[R4, #+0]
   \   0000000C   740090E5           LDR      R0,[R0, #+116]
   \   00000010   CE0100EF           SWI      +462
    698            TagBook->MenuList2=0;
   \   00000014   000094E5           LDR      R0,[R4, #+0]
   \   00000018   0010A0E3           MOV      R1,#+0
   \   0000001C   741080E5           STR      R1,[R0, #+116]
    699            CreateGlavMenu(1);
   \   00000020   0100A0E3           MOV      R0,#+1
   \   00000024   1040BDE8           POP      {R4,LR}          ;; Pop
   \   00000028   ........           B        ??CreateGlavMenu  ;; tailcall
    700          }
    701          

   \                                 In segment CODE, align 4, keep-with-next
    702          int SetTitleML2(GUI_MESSAGE * msg)
    703          {
   \                     ??SetTitleML2:
   \   00000000   70402DE9           PUSH     {R4-R6,LR}
   \   00000004   04D04DE2           SUB      SP,SP,#+4
   \   00000008   0040A0E1           MOV      R4,R0
    704            int item;
    705            int imgID;
    706            switch( GUIonMessage_GetMsg(msg) )
   \   0000000C   740300EF           SWI      +884
   \   00000010   010050E3           CMP      R0,#+1
   \   00000014   4500001A           BNE      ??SetTitleML2_1
    707            {
    708              case 1:
    709                item=GUIonMessage_GetCreatedItemIndex(msg);
    710                if(item==0)
   \   00000018   ........           LDR      R5,??DataTable46  ;; TagBook
   \   0000001C   0400A0E1           MOV      R0,R4
   \   00000020   370100EF           SWI      +311
   \   00000024   0010B0E1           MOVS     R1,R0
   \   00000028   ........           LDR      R0,??DataTable42  ;; `?<Constant L"\\x41d\\x430\\x437\\x432\\x430\\x43d\\x4_1`
   \   0000002C   FF60A0E3           MOV      R6,#+255
   \   00000030   FF6C86E3           ORR      R6,R6,#0xFF00
   \   00000034   0F00001A           BNE      ??SetTitleML2_2
    711                {
    712                  GUIonMessage_SetMenuItemText(msg,TextID_Create(MENU_ITEM_TEXT_TITLE,ENC_UCS2,TEXTID_ANY_LEN));
   \   00000038   0620A0E1           MOV      R2,R6
   \   0000003C   0010A0E3           MOV      R1,#+0
   \   00000040   5D0100EF           SWI      +349
   \   00000044   0010A0E1           MOV      R1,R0
   \   00000048   0400A0E1           MOV      R0,R4
   \   0000004C   380100EF           SWI      +312
    713                  GUIonMessage_SetMenuItemSecondLineText(msg,TextID_Create(TagBook->UTitle2,ENC_UCS2,TEXTID_ANY_LEN));
   \   00000050   000095E5           LDR      R0,[R5, #+0]
   \   00000054   0620A0E1           MOV      R2,R6
   \   00000058   200190E5           LDR      R0,[R0, #+288]
   \   0000005C   0010A0E3           MOV      R1,#+0
   \   00000060   5D0100EF           SWI      +349
   \   00000064   0010A0E1           MOV      R1,R0
   \   00000068   0400A0E1           MOV      R0,R4
   \   0000006C   390100EF           SWI      +313
    714                  iconidname2id(Iconr,-1,&imgID);
   \   00000070   ........           LDR      R0,??DataTable43  ;; Iconr
   \   00000074   240000EA           B        ??SetTitleML2_3
    715                  GUIonMessage_SetMenuItemIcon(msg, 0, imgID);
    716                }
    717                if(item==1)
   \                     ??SetTitleML2_2:
   \   00000078   010051E3           CMP      R1,#+1
   \   0000007C   1000001A           BNE      ??SetTitleML2_4
    718                {
    719                  GUIonMessage_SetMenuItemText(msg,TextID_Create(MENU_ITEM_TEXT_ARTIST,ENC_UCS2,TEXTID_ANY_LEN));
   \   00000080   0620A0E1           MOV      R2,R6
   \   00000084   0010A0E3           MOV      R1,#+0
   \   00000088   140080E2           ADD      R0,R0,#+20
   \   0000008C   5D0100EF           SWI      +349
   \   00000090   0010A0E1           MOV      R1,R0
   \   00000094   0400A0E1           MOV      R0,R4
   \   00000098   380100EF           SWI      +312
    720                  GUIonMessage_SetMenuItemSecondLineText(msg,TextID_Create(TagBook->UAutor2,ENC_UCS2,TEXTID_ANY_LEN));
   \   0000009C   000095E5           LDR      R0,[R5, #+0]
   \   000000A0   0620A0E1           MOV      R2,R6
   \   000000A4   080190E5           LDR      R0,[R0, #+264]
   \   000000A8   0010A0E3           MOV      R1,#+0
   \   000000AC   5D0100EF           SWI      +349
   \   000000B0   0010A0E1           MOV      R1,R0
   \   000000B4   0400A0E1           MOV      R0,R4
   \   000000B8   390100EF           SWI      +313
    721                  iconidname2id(Icont,-1,&imgID);
   \   000000BC   ........           LDR      R0,??DataTable44  ;; Icont
   \   000000C0   110000EA           B        ??SetTitleML2_3
    722                  GUIonMessage_SetMenuItemIcon(msg, 0, imgID);
    723                }
    724                if(item==2)
   \                     ??SetTitleML2_4:
   \   000000C4   020051E3           CMP      R1,#+2
   \   000000C8   1800001A           BNE      ??SetTitleML2_1
    725                {
    726                  GUIonMessage_SetMenuItemText(msg,TextID_Create(MENU_ITEM_TEXT_ALBUM,ENC_UCS2,TEXTID_ANY_LEN));
   \   000000CC   0620A0E1           MOV      R2,R6
   \   000000D0   0010A0E3           MOV      R1,#+0
   \   000000D4   2C0080E2           ADD      R0,R0,#+44
   \   000000D8   5D0100EF           SWI      +349
   \   000000DC   0010A0E1           MOV      R1,R0
   \   000000E0   0400A0E1           MOV      R0,R4
   \   000000E4   380100EF           SWI      +312
    727                  GUIonMessage_SetMenuItemSecondLineText(msg,TextID_Create(TagBook->UAlbum2,ENC_UCS2,TEXTID_ANY_LEN));
   \   000000E8   000095E5           LDR      R0,[R5, #+0]
   \   000000EC   0620A0E1           MOV      R2,R6
   \   000000F0   000190E5           LDR      R0,[R0, #+256]
   \   000000F4   0010A0E3           MOV      R1,#+0
   \   000000F8   5D0100EF           SWI      +349
   \   000000FC   0010A0E1           MOV      R1,R0
   \   00000100   0400A0E1           MOV      R0,R4
   \   00000104   390100EF           SWI      +313
    728                  iconidname2id(Icony,-1,&imgID);
   \   00000108   ........           LDR      R0,??DataTable45  ;; Icony
   \                     ??SetTitleML2_3:
   \   0000010C   0D20A0E1           MOV      R2,SP
   \   00000110   0010E0E3           MVN      R1,#+0
   \   00000114   860200EF           SWI      +646
    729                  GUIonMessage_SetMenuItemIcon(msg, 0, imgID);
   \   00000118   00209DE5           LDR      R2,[SP, #+0]
   \   0000011C   0010A0E3           MOV      R1,#+0
   \   00000120   0228A0E1           MOV      R2,R2, LSL #+16
   \   00000124   2228A0E1           MOV      R2,R2, LSR #+16
   \   00000128   0400A0E1           MOV      R0,R4
   \   0000012C   3C0100EF           SWI      +316
    730                }      
    731            }
    732            return(1);        
   \                     ??SetTitleML2_1:
   \   00000130   0100A0E3           MOV      R0,#+1
   \   00000134   7280BDE8           POP      {R1,R4-R6,PC}    ;; return
    733          }
    734          

   \                                 In segment CODE, align 4, keep-with-next
    735          void PlayF2( BOOK* bk, GUI* )
    736          {
   \                     ??PlayF2:
   \   00000000   F0402DE9           PUSH     {R4-R7,LR}
    737            if(TagBook->PlayMode==0)
   \   00000004   ........           LDR      R4,??DataTable46  ;; TagBook
   \   00000008   ........           LDR      R7,??DataTable47  ;; `?<Constant L"\\x421\\x442\\x43e\\x43f">`
   \   0000000C   000094E5           LDR      R0,[R4, #+0]
   \   00000010   FF60A0E3           MOV      R6,#+255
   \   00000014   981090E5           LDR      R1,[R0, #+152]
   \   00000018   FF6C86E3           ORR      R6,R6,#0xFF00
   \   0000001C   4A5FA0E3           MOV      R5,#+296
   \   00000020   000051E3           CMP      R1,#+0
   \   00000024   1400001A           BNE      ??PlayF2_1
    738            {
    739              PlayFile(TagBook->path,TagBook->name);
   \   00000028   F01090E5           LDR      R1,[R0, #+240]
   \   0000002C   F40090E5           LDR      R0,[R0, #+244]
   \   00000030   B20100EF           SWI      +434
    740              wstrcpy(TagBook->PlayText,SOFTKEY_STATUS_STOP);
   \   00000034   000094E5           LDR      R0,[R4, #+0]
   \   00000038   0710A0E1           MOV      R1,R7
   \   0000003C   000085E0           ADD      R0,R5,R0
   \   00000040   520100EF           SWI      +338
    741              GUIObject_SoftKeys_SetText(TagBook->MenuList2,1,TextID_Create(TagBook->PlayText,ENC_UCS2,TEXTID_ANY_LEN));
   \   00000044   000094E5           LDR      R0,[R4, #+0]
   \   00000048   0620A0E1           MOV      R2,R6
   \   0000004C   0010A0E3           MOV      R1,#+0
   \   00000050   000085E0           ADD      R0,R5,R0
   \   00000054   5D0100EF           SWI      +349
   \   00000058   0020A0E1           MOV      R2,R0
   \   0000005C   000094E5           LDR      R0,[R4, #+0]
   \   00000060   0110A0E3           MOV      R1,#+1
   \   00000064   740090E5           LDR      R0,[R0, #+116]
   \   00000068   4C0100EF           SWI      +332
    742              TagBook->PlayMode=1;
   \   0000006C   000094E5           LDR      R0,[R4, #+0]
   \   00000070   0110A0E3           MOV      R1,#+1
   \   00000074   981080E5           STR      R1,[R0, #+152]
   \   00000078   F080BDE8           POP      {R4-R7,PC}
    743            }
    744            else
    745            {
    746              PlaySystemSound(7);
   \                     ??PlayF2_1:
   \   0000007C   0700A0E3           MOV      R0,#+7
   \   00000080   5A0200EF           SWI      +602
    747              wstrcpy(TagBook->PlayText,SOFTKEY_STATUS_PLAY);
   \   00000084   000094E5           LDR      R0,[R4, #+0]
   \   00000088   0C1087E2           ADD      R1,R7,#+12
   \   0000008C   000085E0           ADD      R0,R5,R0
   \   00000090   520100EF           SWI      +338
    748              GUIObject_SoftKeys_SetText(TagBook->MenuList2,1,TextID_Create(TagBook->PlayText,ENC_UCS2,TEXTID_ANY_LEN));
   \   00000094   000094E5           LDR      R0,[R4, #+0]
   \   00000098   0620A0E1           MOV      R2,R6
   \   0000009C   0010A0E3           MOV      R1,#+0
   \   000000A0   000085E0           ADD      R0,R5,R0
   \   000000A4   5D0100EF           SWI      +349
   \   000000A8   0020A0E1           MOV      R2,R0
   \   000000AC   000094E5           LDR      R0,[R4, #+0]
   \   000000B0   0110A0E3           MOV      R1,#+1
   \   000000B4   740090E5           LDR      R0,[R0, #+116]
   \   000000B8   4C0100EF           SWI      +332
    749              TagBook->PlayMode=0;
   \   000000BC   000094E5           LDR      R0,[R4, #+0]
   \   000000C0   0010A0E3           MOV      R1,#+0
   \   000000C4   981080E5           STR      R1,[R0, #+152]
    750            }
    751          }
   \   000000C8   F080BDE8           POP      {R4-R7,PC}       ;; return
    752          

   \                                 In segment CODE, align 4, keep-with-next
    753          void DeleteTag2(int x){
   \                     ??DeleteTag2:
   \   00000000   F0402DE9           PUSH     {R4-R7,LR}
    754            int i;
    755            if(x==0)
   \   00000004   ........           LDR      R5,??DataTable73  ;; TagBook
   \   00000008   0040B0E1           MOVS     R4,R0
   \   0000000C   0060A0E3           MOV      R6,#+0
   \   00000010   0C00001A           BNE      ??DeleteTag2_1
    756            {
    757              for(i=0; i<=(wstrlen(TagBook->UTitle2)-1); i++)
   \   00000014   0070A0E3           MOV      R7,#+0
   \                     ??DeleteTag2_2:
   \   00000018   000095E5           LDR      R0,[R5, #+0]
   \   0000001C   200190E5           LDR      R0,[R0, #+288]
   \   00000020   570100EF           SWI      +343
   \   00000024   010040E2           SUB      R0,R0,#+1
   \   00000028   070050E1           CMP      R0,R7
   \   0000002C   230000BA           BLT      ??DeleteTag2_3
    758              {
    759                TagBook->UTitle2[i]=0;
   \   00000030   000095E5           LDR      R0,[R5, #+0]
   \   00000034   200190E5           LDR      R0,[R0, #+288]
   \   00000038   870080E0           ADD      R0,R0,R7, LSL #+1
   \   0000003C   B060C0E1           STRH     R6,[R0, #+0]
    760              }
   \   00000040   017087E2           ADD      R7,R7,#+1
   \   00000044   F3FFFFEA           B        ??DeleteTag2_2
    761            }
    762            if(x==1)
   \                     ??DeleteTag2_1:
   \   00000048   010054E3           CMP      R4,#+1
   \   0000004C   0C00001A           BNE      ??DeleteTag2_4
    763            {
    764              for(i=0; i<=(wstrlen(TagBook->UAutor2)-1); i++)
   \   00000050   0070A0E3           MOV      R7,#+0
   \                     ??DeleteTag2_5:
   \   00000054   000095E5           LDR      R0,[R5, #+0]
   \   00000058   080190E5           LDR      R0,[R0, #+264]
   \   0000005C   570100EF           SWI      +343
   \   00000060   010040E2           SUB      R0,R0,#+1
   \   00000064   070050E1           CMP      R0,R7
   \   00000068   140000BA           BLT      ??DeleteTag2_3
    765              {
    766                TagBook->UAutor2[i]=0;
   \   0000006C   000095E5           LDR      R0,[R5, #+0]
   \   00000070   080190E5           LDR      R0,[R0, #+264]
   \   00000074   870080E0           ADD      R0,R0,R7, LSL #+1
   \   00000078   B060C0E1           STRH     R6,[R0, #+0]
    767              }
   \   0000007C   017087E2           ADD      R7,R7,#+1
   \   00000080   F3FFFFEA           B        ??DeleteTag2_5
    768            }
    769            if(x==2)
   \                     ??DeleteTag2_4:
   \   00000084   020054E3           CMP      R4,#+2
   \   00000088   0C00001A           BNE      ??DeleteTag2_3
    770            {
    771              for(i=0; i<=(wstrlen(TagBook->UAlbum2)-1); i++)
   \   0000008C   0070A0E3           MOV      R7,#+0
   \   00000090   040000EA           B        ??DeleteTag2_6
    772              {
    773                TagBook->UAlbum2[i]=0;
   \                     ??DeleteTag2_7:
   \   00000094   000095E5           LDR      R0,[R5, #+0]
   \   00000098   000190E5           LDR      R0,[R0, #+256]
   \   0000009C   870080E0           ADD      R0,R0,R7, LSL #+1
   \   000000A0   B060C0E1           STRH     R6,[R0, #+0]
    774              }
   \   000000A4   017087E2           ADD      R7,R7,#+1
   \                     ??DeleteTag2_6:
   \   000000A8   000095E5           LDR      R0,[R5, #+0]
   \   000000AC   000190E5           LDR      R0,[R0, #+256]
   \   000000B0   570100EF           SWI      +343
   \   000000B4   010040E2           SUB      R0,R0,#+1
   \   000000B8   070050E1           CMP      R0,R7
   \   000000BC   F4FFFFAA           BGE      ??DeleteTag2_7
    775            }
    776            TagBook->change++;
   \                     ??DeleteTag2_3:
   \   000000C0   000095E5           LDR      R0,[R5, #+0]
   \   000000C4   781090E5           LDR      R1,[R0, #+120]
   \   000000C8   011081E2           ADD      R1,R1,#+1
   \   000000CC   781080E5           STR      R1,[R0, #+120]
    777            if(TagBook->MenuList2) GUIObject_Destroy(TagBook->MenuList2);
   \   000000D0   740090E5           LDR      R0,[R0, #+116]
   \   000000D4   000050E3           CMP      R0,#+0
   \   000000D8   0000000A           BEQ      ??DeleteTag2_8
   \   000000DC   CE0100EF           SWI      +462
    778            CreateML2(x);
   \                     ??DeleteTag2_8:
   \   000000E0   0400A0E1           MOV      R0,R4
   \   000000E4   ........           BL       ??CreateML2
    779          }
   \   000000E8   F080BDE8           POP      {R4-R7,PC}       ;; return
    780          

   \                                 In segment CODE, align 4, keep-with-next
    781          int ShowInfo()
    782          {
   \                     ??ShowInfo:
   \   00000000   F04F2DE9           PUSH     {R4-R11,LR}
    783            wchar_t * info_mp3=new wchar_t[wstrlen(TagBook->path)+1+wstrlen(TagBook->name)+1+wstrlen(TagBook->UTitle)+1+wstrlen(TagBook->UAutor)+1+wstrlen(TagBook->UAlbum)+1+wstrlen(TagBook->UYear)+1+wstrlen(TagBook->UComment)+1+strlen(GetGenre(TagBook->genre))+1+150+wstrlen(TagBook->UTitle2)+1+wstrlen(TagBook->UAutor2)+1+wstrlen(TagBook->UAlbum2)+100];
   \   00000004   ........           LDR      R4,??DataTable73  ;; TagBook
   \   00000008   0CD04DE2           SUB      SP,SP,#+12
   \   0000000C   000094E5           LDR      R0,[R4, #+0]
   \   00000010   F40090E5           LDR      R0,[R0, #+244]
   \   00000014   570100EF           SWI      +343
   \   00000018   00008DE5           STR      R0,[SP, #+0]
   \   0000001C   000094E5           LDR      R0,[R4, #+0]
   \   00000020   F00090E5           LDR      R0,[R0, #+240]
   \   00000024   570100EF           SWI      +343
   \   00000028   04008DE5           STR      R0,[SP, #+4]
   \   0000002C   000094E5           LDR      R0,[R4, #+0]
   \   00000030   1C0190E5           LDR      R0,[R0, #+284]
   \   00000034   570100EF           SWI      +343
   \   00000038   08008DE5           STR      R0,[SP, #+8]
   \   0000003C   000094E5           LDR      R0,[R4, #+0]
   \   00000040   040190E5           LDR      R0,[R0, #+260]
   \   00000044   570100EF           SWI      +343
   \   00000048   0050A0E1           MOV      R5,R0
   \   0000004C   000094E5           LDR      R0,[R4, #+0]
   \   00000050   FC0090E5           LDR      R0,[R0, #+252]
   \   00000054   570100EF           SWI      +343
   \   00000058   0060A0E1           MOV      R6,R0
   \   0000005C   000094E5           LDR      R0,[R4, #+0]
   \   00000060   240190E5           LDR      R0,[R0, #+292]
   \   00000064   570100EF           SWI      +343
   \   00000068   0070A0E1           MOV      R7,R0
   \   0000006C   000094E5           LDR      R0,[R4, #+0]
   \   00000070   100190E5           LDR      R0,[R0, #+272]
   \   00000074   570100EF           SWI      +343
   \   00000078   0080A0E1           MOV      R8,R0
   \   0000007C   000094E5           LDR      R0,[R4, #+0]
   \   00000080   7C0090E5           LDR      R0,[R0, #+124]
   \   00000084   ........           BL       ??GetGenre
   \   00000088   5A0100EF           SWI      +346
   \   0000008C   0090A0E1           MOV      R9,R0
   \   00000090   000094E5           LDR      R0,[R4, #+0]
   \   00000094   200190E5           LDR      R0,[R0, #+288]
   \   00000098   570100EF           SWI      +343
   \   0000009C   00A0A0E1           MOV      R10,R0
   \   000000A0   000094E5           LDR      R0,[R4, #+0]
   \   000000A4   080190E5           LDR      R0,[R0, #+264]
   \   000000A8   570100EF           SWI      +343
   \   000000AC   00B0A0E1           MOV      R11,R0
   \   000000B0   000094E5           LDR      R0,[R4, #+0]
   \   000000B4   000190E5           LDR      R0,[R0, #+256]
   \   000000B8   570100EF           SWI      +343
   \   000000BC   00109DE5           LDR      R1,[SP, #+0]
   \   000000C0   04209DE5           LDR      R2,[SP, #+4]
   \   000000C4   011082E0           ADD      R1,R2,R1
   \   000000C8   08209DE5           LDR      R2,[SP, #+8]
   \   000000CC   011082E0           ADD      R1,R2,R1
   \   000000D0   011085E0           ADD      R1,R5,R1
   \   000000D4   011086E0           ADD      R1,R6,R1
    784            wstrcpy(info_mp3,INFO_FILENAME);
   \   000000D8   ........           LDR      R6,??DataTable50  ;; `?<Constant L"\\x41d\\x430\\x437\\x432\\x430\\x43d\\x4`
   \   000000DC   011087E0           ADD      R1,R7,R1
   \   000000E0   011088E0           ADD      R1,R8,R1
   \   000000E4   011089E0           ADD      R1,R9,R1
   \   000000E8   01108AE0           ADD      R1,R10,R1
   \   000000EC   01108BE0           ADD      R1,R11,R1
   \   000000F0   010080E0           ADD      R0,R0,R1
   \   000000F4   410F80E2           ADD      R0,R0,#+260
   \   000000F8   8000A0E1           LSL      R0,R0,#+1
   \   000000FC   ........           _BLF     `??operator new[]`,`??operator new[]??rA`
   \   00000100   0050A0E1           MOV      R5,R0
   \   00000104   181086E2           ADD      R1,R6,#+24
   \   00000108   520100EF           SWI      +338
    785            wstrcat(info_mp3,TagBook->name);
   \   0000010C   000094E5           LDR      R0,[R4, #+0]
    786            wstrcat(info_mp3,L"\n");
   \   00000110   9B7F8FE2           ADR      R7,??ShowInfo_1  ;; 0x0A, 0x00, 0x00, 0x00
   \   00000114   F01090E5           LDR      R1,[R0, #+240]
   \   00000118   0500A0E1           MOV      R0,R5
   \   0000011C   540100EF           SWI      +340
   \   00000120   0710A0E1           MOV      R1,R7
   \   00000124   0500A0E1           MOV      R0,R5
   \   00000128   540100EF           SWI      +340
    787            wstrcat(info_mp3,INFO_LOCALISATION);
   \   0000012C   301086E2           ADD      R1,R6,#+48
   \   00000130   0500A0E1           MOV      R0,R5
   \   00000134   540100EF           SWI      +340
    788            wstrcat(info_mp3,TagBook->path);
   \   00000138   000094E5           LDR      R0,[R4, #+0]
   \   0000013C   F41090E5           LDR      R1,[R0, #+244]
   \   00000140   0500A0E1           MOV      R0,R5
   \   00000144   540100EF           SWI      +340
    789            wstrcat(info_mp3,L"\n");
   \   00000148   0710A0E1           MOV      R1,R7
   \   0000014C   0500A0E1           MOV      R0,R5
   \   00000150   540100EF           SWI      +340
    790            wstrcat(info_mp3,L"ID3v1:\n");
   \   00000154   501086E2           ADD      R1,R6,#+80
   \   00000158   0500A0E1           MOV      R0,R5
   \   0000015C   540100EF           SWI      +340
    791            wstrcat(info_mp3,INFO_TITLE);
   \   00000160   0610A0E1           MOV      R1,R6
   \   00000164   0500A0E1           MOV      R0,R5
   \   00000168   540100EF           SWI      +340
    792            wstrcat(info_mp3,TagBook->UTitle);
   \   0000016C   000094E5           LDR      R0,[R4, #+0]
   \   00000170   1C1190E5           LDR      R1,[R0, #+284]
   \   00000174   0500A0E1           MOV      R0,R5
   \   00000178   540100EF           SWI      +340
    793            wstrcat(info_mp3,L"\n");
   \   0000017C   0710A0E1           MOV      R1,R7
   \   00000180   0500A0E1           MOV      R0,R5
   \   00000184   540100EF           SWI      +340
    794            wstrcat(info_mp3,INFO_ARTIST);
   \   00000188   601086E2           ADD      R1,R6,#+96
   \   0000018C   0500A0E1           MOV      R0,R5
   \   00000190   540100EF           SWI      +340
    795            wstrcat(info_mp3,TagBook->UAutor);
   \   00000194   000094E5           LDR      R0,[R4, #+0]
   \   00000198   041190E5           LDR      R1,[R0, #+260]
   \   0000019C   0500A0E1           MOV      R0,R5
   \   000001A0   540100EF           SWI      +340
    796            wstrcat(info_mp3,L"\n");
   \   000001A4   0710A0E1           MOV      R1,R7
   \   000001A8   0500A0E1           MOV      R0,R5
   \   000001AC   540100EF           SWI      +340
    797            wstrcat(info_mp3,INFO_ALBUM);
   \   000001B0   7C1086E2           ADD      R1,R6,#+124
   \   000001B4   0500A0E1           MOV      R0,R5
   \   000001B8   540100EF           SWI      +340
    798            wstrcat(info_mp3,TagBook->UAlbum);
   \   000001BC   000094E5           LDR      R0,[R4, #+0]
   \   000001C0   FC1090E5           LDR      R1,[R0, #+252]
   \   000001C4   0500A0E1           MOV      R0,R5
   \   000001C8   540100EF           SWI      +340
    799            wstrcat(info_mp3,L"\n");
   \   000001CC   0710A0E1           MOV      R1,R7
   \   000001D0   0500A0E1           MOV      R0,R5
   \   000001D4   540100EF           SWI      +340
    800            wstrcat(info_mp3,INFO_YEAR);
   \   000001D8   901086E2           ADD      R1,R6,#+144
   \   000001DC   0500A0E1           MOV      R0,R5
   \   000001E0   540100EF           SWI      +340
    801            wstrcat(info_mp3,TagBook->UYear);
   \   000001E4   000094E5           LDR      R0,[R4, #+0]
   \   000001E8   241190E5           LDR      R1,[R0, #+292]
   \   000001EC   0500A0E1           MOV      R0,R5
   \   000001F0   540100EF           SWI      +340
    802            wstrcat(info_mp3,L"\n");
   \   000001F4   0710A0E1           MOV      R1,R7
   \   000001F8   0500A0E1           MOV      R0,R5
   \   000001FC   540100EF           SWI      +340
    803            wstrcat(info_mp3,INFO_COMMENT);
   \   00000200   9C1086E2           ADD      R1,R6,#+156
   \   00000204   0500A0E1           MOV      R0,R5
   \   00000208   540100EF           SWI      +340
    804            wstrcat(info_mp3,TagBook->UComment);
   \   0000020C   000094E5           LDR      R0,[R4, #+0]
   \   00000210   101190E5           LDR      R1,[R0, #+272]
   \   00000214   0500A0E1           MOV      R0,R5
   \   00000218   540100EF           SWI      +340
    805            wstrcat(info_mp3,L"\n");
   \   0000021C   0710A0E1           MOV      R1,R7
   \   00000220   0500A0E1           MOV      R0,R5
   \   00000224   540100EF           SWI      +340
    806            wstrcat(info_mp3,INFO_GENRE);  
   \   00000228   B81086E2           ADD      R1,R6,#+184
   \   0000022C   0500A0E1           MOV      R0,R5
   \   00000230   540100EF           SWI      +340
    807            wchar_t*Gen=new wchar_t[strlen(GetGenre(TagBook->genre))+1];
   \   00000234   000094E5           LDR      R0,[R4, #+0]
   \   00000238   7C0090E5           LDR      R0,[R0, #+124]
   \   0000023C   ........           BL       ??GetGenre
   \   00000240   5A0100EF           SWI      +346
   \   00000244   010080E2           ADD      R0,R0,#+1
   \   00000248   8000A0E1           LSL      R0,R0,#+1
   \   0000024C   ........           _BLF     `??operator new[]`,`??operator new[]??rA`
   \   00000250   0080A0E1           MOV      R8,R0
    808            win12512unicode(Gen,GetGenre(TagBook->genre),strlen(GetGenre(TagBook->genre)));
   \   00000254   000094E5           LDR      R0,[R4, #+0]
   \   00000258   7C0090E5           LDR      R0,[R0, #+124]
   \   0000025C   ........           BL       ??GetGenre
   \   00000260   5A0100EF           SWI      +346
   \   00000264   0090A0E1           MOV      R9,R0
   \   00000268   000094E5           LDR      R0,[R4, #+0]
   \   0000026C   7C0090E5           LDR      R0,[R0, #+124]
   \   00000270   ........           BL       ??GetGenre
   \   00000274   0010A0E1           MOV      R1,R0
   \   00000278   0920A0E1           MOV      R2,R9
   \   0000027C   0800A0E1           MOV      R0,R8
   \   00000280   ........           BL       ??win12512unicode
    809            wstrcat(info_mp3,Gen);
   \   00000284   0810A0E1           MOV      R1,R8
   \   00000288   0500A0E1           MOV      R0,R5
   \   0000028C   540100EF           SWI      +340
    810            wstrcat(info_mp3,L"\n");
   \   00000290   0710A0E1           MOV      R1,R7
   \   00000294   0500A0E1           MOV      R0,R5
   \   00000298   540100EF           SWI      +340
    811            wstrcat(info_mp3,L"ID3v2:\n");
   \   0000029C   C81086E2           ADD      R1,R6,#+200
   \   000002A0   0500A0E1           MOV      R0,R5
   \   000002A4   540100EF           SWI      +340
    812            wstrcat(info_mp3,INFO_TITLE);
   \   000002A8   0610A0E1           MOV      R1,R6
   \   000002AC   0500A0E1           MOV      R0,R5
   \   000002B0   540100EF           SWI      +340
    813            wstrcat(info_mp3,TagBook->UTitle2);
   \   000002B4   000094E5           LDR      R0,[R4, #+0]
   \   000002B8   201190E5           LDR      R1,[R0, #+288]
   \   000002BC   0500A0E1           MOV      R0,R5
   \   000002C0   540100EF           SWI      +340
    814            wstrcat(info_mp3,L"\n");
   \   000002C4   0710A0E1           MOV      R1,R7
   \   000002C8   0500A0E1           MOV      R0,R5
   \   000002CC   540100EF           SWI      +340
    815            wstrcat(info_mp3,INFO_ARTIST);
   \   000002D0   601086E2           ADD      R1,R6,#+96
   \   000002D4   0500A0E1           MOV      R0,R5
   \   000002D8   540100EF           SWI      +340
    816            wstrcat(info_mp3,TagBook->UAutor2);
   \   000002DC   000094E5           LDR      R0,[R4, #+0]
   \   000002E0   081190E5           LDR      R1,[R0, #+264]
   \   000002E4   0500A0E1           MOV      R0,R5
   \   000002E8   540100EF           SWI      +340
    817            wstrcat(info_mp3,L"\n");
   \   000002EC   0710A0E1           MOV      R1,R7
   \   000002F0   0500A0E1           MOV      R0,R5
   \   000002F4   540100EF           SWI      +340
    818            wstrcat(info_mp3,INFO_ALBUM);
   \   000002F8   7C1086E2           ADD      R1,R6,#+124
   \   000002FC   0500A0E1           MOV      R0,R5
   \   00000300   540100EF           SWI      +340
    819            wstrcat(info_mp3,TagBook->UAlbum2);
   \   00000304   000094E5           LDR      R0,[R4, #+0]
    820            wstrcat(info_mp3,L"\n");
    821            MessageBox(TextID_Create(INFO_TEXT,ENC_UCS2,TEXTID_ANY_LEN),TextID_Create(info_mp3,ENC_UCS2,TEXTID_ANY_LEN), NOIMAGE, 2 ,0,0);
   \   00000308   FF40A0E3           MOV      R4,#+255
   \   0000030C   001190E5           LDR      R1,[R0, #+256]
   \   00000310   0500A0E1           MOV      R0,R5
   \   00000314   540100EF           SWI      +340
   \   00000318   0710A0E1           MOV      R1,R7
   \   0000031C   0500A0E1           MOV      R0,R5
   \   00000320   540100EF           SWI      +340
   \   00000324   FF4C84E3           ORR      R4,R4,#0xFF00
   \   00000328   0420A0E1           MOV      R2,R4
   \   0000032C   0010A0E3           MOV      R1,#+0
   \   00000330   0500A0E1           MOV      R0,R5
   \   00000334   5D0100EF           SWI      +349
   \   00000338   0070A0E1           MOV      R7,R0
   \   0000033C   0420A0E1           MOV      R2,R4
   \   00000340   0010A0E3           MOV      R1,#+0
   \   00000344   D80086E2           ADD      R0,R6,#+216
   \   00000348   5D0100EF           SWI      +349
   \   0000034C   0010A0E3           MOV      R1,#+0
   \   00000350   02002DE9           PUSH     {R1}
   \   00000354   02002DE9           PUSH     {R1}
   \   00000358   0230A0E3           MOV      R3,#+2
   \   0000035C   0420A0E1           MOV      R2,R4
   \   00000360   0710A0E1           MOV      R1,R7
   \   00000364   570200EF           SWI      +599
    822            delete info_mp3;
   \   00000368   0500A0E1           MOV      R0,R5
   \   0000036C   ........           _BLF     `??operator delete`,`??operator delete??rA`
    823            delete Gen;
   \   00000370   0800A0E1           MOV      R0,R8
   \   00000374   ........           _BLF     `??operator delete`,`??operator delete??rA`
    824            return 1;
   \   00000378   0100A0E3           MOV      R0,#+1
   \   0000037C   14D08DE2           ADD      SP,SP,#+20
   \   00000380   F08FBDE8           POP      {R4-R11,PC}      ;; return
   \                     ??ShowInfo_1:
   \   00000384   0A000000           DC8      0x0A, 0x00, 0x00, 0x00
    825          }
    826          

   \                                 In segment CODE, align 4, keep-with-next
    827          void CopyFromName2(int x)
    828          {
   \                     ??CopyFromName2:
   \   00000000   30402DE9           PUSH     {R4,R5,LR}
    829            int i;
    830            if(x==0)
   \   00000004   ........           LDR      R5,??DataTable73  ;; TagBook
   \   00000008   0040B0E1           MOVS     R4,R0
   \   0000000C   000095E5           LDR      R0,[R5, #+0]
   \   00000010   F00090E5           LDR      R0,[R0, #+240]
   \   00000014   1C00001A           BNE      ??CopyFromName2_1
    831            {
    832              if(wstrlen(TagBook->name)<=0xff)
   \   00000018   570100EF           SWI      +343
   \   0000001C   400F50E3           CMP      R0,#+256
   \   00000020   0A0000AA           BGE      ??CopyFromName2_2
    833              {
    834                TagBook->UTitle2=new wchar_t[wstrlen(TagBook->name)+1];
   \   00000024   000095E5           LDR      R0,[R5, #+0]
   \   00000028   F00090E5           LDR      R0,[R0, #+240]
   \   0000002C   570100EF           SWI      +343
   \   00000030   010080E2           ADD      R0,R0,#+1
   \   00000034   8000A0E1           LSL      R0,R0,#+1
   \   00000038   ........           _BLF     `??operator new[]`,`??operator new[]??rA`
   \   0000003C   002095E5           LDR      R2,[R5, #+0]
   \   00000040   200182E5           STR      R0,[R2, #+288]
    835                wstrcpy(TagBook->UTitle2, TagBook->name);
   \                     ??CopyFromName2_3:
   \   00000044   F01092E5           LDR      R1,[R2, #+240]
   \   00000048   520100EF           SWI      +338
   \   0000004C   470000EA           B        ??CopyFromName2_4
    836              }
    837              else
    838              {
    839                TagBook->UTitle2=new wchar_t[255+1];
   \                     ??CopyFromName2_2:
   \   00000050   800FA0E3           MOV      R0,#+512
   \   00000054   ........           _BLF     `??operator new[]`,`??operator new[]??rA`
   \   00000058   001095E5           LDR      R1,[R5, #+0]
   \   0000005C   200181E5           STR      R0,[R1, #+288]
    840                for(i=0; i<=255; i++)
   \   00000060   0000A0E3           MOV      R0,#+0
    841                {
    842                  TagBook->UTitle2[i]=TagBook->name[i];
   \                     ??CopyFromName2_5:
   \   00000064   F03091E5           LDR      R3,[R1, #+240]
   \   00000068   202191E5           LDR      R2,[R1, #+288]
   \   0000006C   803083E0           ADD      R3,R3,R0, LSL #+1
   \   00000070   B030D3E1           LDRH     R3,[R3, #+0]
   \   00000074   802082E0           ADD      R2,R2,R0, LSL #+1
    843                }
   \   00000078   010080E2           ADD      R0,R0,#+1
   \   0000007C   B030C2E1           STRH     R3,[R2, #+0]
   \   00000080   400F50E3           CMP      R0,#+256
   \   00000084   390000AA           BGE      ??CopyFromName2_4
   \   00000088   F5FFFFEA           B        ??CopyFromName2_5
    844              }      
    845            }
    846            if(x==1)
   \                     ??CopyFromName2_1:
   \   0000008C   010054E3           CMP      R4,#+1
   \   00000090   1A00001A           BNE      ??CopyFromName2_6
    847            {
    848              if(wstrlen(TagBook->name)<=0xff)
   \   00000094   570100EF           SWI      +343
   \   00000098   400F50E3           CMP      R0,#+256
   \   0000009C   080000AA           BGE      ??CopyFromName2_7
    849              {
    850                TagBook->UAutor2=new wchar_t[wstrlen(TagBook->name)+1];
   \   000000A0   000095E5           LDR      R0,[R5, #+0]
   \   000000A4   F00090E5           LDR      R0,[R0, #+240]
   \   000000A8   570100EF           SWI      +343
   \   000000AC   010080E2           ADD      R0,R0,#+1
   \   000000B0   8000A0E1           LSL      R0,R0,#+1
   \   000000B4   ........           _BLF     `??operator new[]`,`??operator new[]??rA`
   \   000000B8   002095E5           LDR      R2,[R5, #+0]
   \   000000BC   080182E5           STR      R0,[R2, #+264]
    851                wstrcpy(TagBook->UAutor2, TagBook->name);
   \   000000C0   DFFFFFEA           B        ??CopyFromName2_3
    852              }
    853              else
    854              {
    855                TagBook->UAutor2=new wchar_t[255+1];
   \                     ??CopyFromName2_7:
   \   000000C4   800FA0E3           MOV      R0,#+512
   \   000000C8   ........           _BLF     `??operator new[]`,`??operator new[]??rA`
   \   000000CC   001095E5           LDR      R1,[R5, #+0]
   \   000000D0   080181E5           STR      R0,[R1, #+264]
    856                for(i=0; i<=255; i++)
   \   000000D4   0000A0E3           MOV      R0,#+0
    857                {
    858                  TagBook->UAutor2[i]=TagBook->name[i];
   \                     ??CopyFromName2_8:
   \   000000D8   F03091E5           LDR      R3,[R1, #+240]
   \   000000DC   082191E5           LDR      R2,[R1, #+264]
   \   000000E0   803083E0           ADD      R3,R3,R0, LSL #+1
   \   000000E4   B030D3E1           LDRH     R3,[R3, #+0]
   \   000000E8   802082E0           ADD      R2,R2,R0, LSL #+1
    859                }
   \   000000EC   010080E2           ADD      R0,R0,#+1
   \   000000F0   B030C2E1           STRH     R3,[R2, #+0]
   \   000000F4   400F50E3           CMP      R0,#+256
   \   000000F8   1C0000AA           BGE      ??CopyFromName2_4
   \   000000FC   F5FFFFEA           B        ??CopyFromName2_8
    860              }
    861            }
    862            if(x==2)
   \                     ??CopyFromName2_6:
   \   00000100   020054E3           CMP      R4,#+2
   \   00000104   1900001A           BNE      ??CopyFromName2_4
    863            {
    864              if(wstrlen(TagBook->name)<=0xff)
   \   00000108   570100EF           SWI      +343
   \   0000010C   400F50E3           CMP      R0,#+256
   \   00000110   080000AA           BGE      ??CopyFromName2_9
    865              {
    866                TagBook->UAlbum2=new wchar_t[wstrlen(TagBook->name)+1];
   \   00000114   000095E5           LDR      R0,[R5, #+0]
   \   00000118   F00090E5           LDR      R0,[R0, #+240]
   \   0000011C   570100EF           SWI      +343
   \   00000120   010080E2           ADD      R0,R0,#+1
   \   00000124   8000A0E1           LSL      R0,R0,#+1
   \   00000128   ........           _BLF     `??operator new[]`,`??operator new[]??rA`
   \   0000012C   002095E5           LDR      R2,[R5, #+0]
   \   00000130   000182E5           STR      R0,[R2, #+256]
    867                wstrcpy(TagBook->UAlbum2, TagBook->name);
   \   00000134   C2FFFFEA           B        ??CopyFromName2_3
    868              }
    869              else
    870              {
    871                TagBook->UAlbum2=new wchar_t[255+1];
   \                     ??CopyFromName2_9:
   \   00000138   800FA0E3           MOV      R0,#+512
   \   0000013C   ........           _BLF     `??operator new[]`,`??operator new[]??rA`
   \   00000140   001095E5           LDR      R1,[R5, #+0]
   \   00000144   000181E5           STR      R0,[R1, #+256]
    872                for(i=0; i<=255; i++)
   \   00000148   0000A0E3           MOV      R0,#+0
    873                {
    874                  TagBook->UAlbum2[i]=TagBook->name[i];
   \                     ??CopyFromName2_10:
   \   0000014C   F03091E5           LDR      R3,[R1, #+240]
   \   00000150   002191E5           LDR      R2,[R1, #+256]
   \   00000154   803083E0           ADD      R3,R3,R0, LSL #+1
   \   00000158   B030D3E1           LDRH     R3,[R3, #+0]
   \   0000015C   802082E0           ADD      R2,R2,R0, LSL #+1
    875                }
   \   00000160   010080E2           ADD      R0,R0,#+1
   \   00000164   B030C2E1           STRH     R3,[R2, #+0]
   \   00000168   400F50E3           CMP      R0,#+256
   \   0000016C   F6FFFFBA           BLT      ??CopyFromName2_10
    876              }
    877            }
    878            TagBook->change++;
   \                     ??CopyFromName2_4:
   \   00000170   000095E5           LDR      R0,[R5, #+0]
   \   00000174   781090E5           LDR      R1,[R0, #+120]
   \   00000178   011081E2           ADD      R1,R1,#+1
   \   0000017C   781080E5           STR      R1,[R0, #+120]
    879            if(TagBook->MenuList2) GUIObject_Destroy(TagBook->MenuList2);
   \   00000180   740090E5           LDR      R0,[R0, #+116]
   \   00000184   000050E3           CMP      R0,#+0
   \   00000188   0000000A           BEQ      ??CopyFromName2_11
   \   0000018C   CE0100EF           SWI      +462
    880            CreateML2(x);
   \                     ??CopyFromName2_11:
   \   00000190   0400A0E1           MOV      R0,R4
   \   00000194   ........           BL       ??CreateML2
    881          }
   \   00000198   3080BDE8           POP      {R4,R5,PC}       ;; return
    882          

   \                                 In segment CODE, align 4, keep-with-next
    883          void CopyFromID3v1(int x)
    884          {
   \                     ??CopyFromID3v1:
   \   00000000   30402DE9           PUSH     {R4,R5,LR}
    885            int i;
    886            if(x==0)
   \   00000004   ........           LDR      R5,??DataTable73  ;; TagBook
   \   00000008   0040B0E1           MOVS     R4,R0
   \   0000000C   0E00001A           BNE      ??CopyFromID3v1_1
    887            {
    888              TagBook->UTitle2=new wchar_t[31];
   \   00000010   3E00A0E3           MOV      R0,#+62
   \   00000014   ........           _BLF     `??operator new[]`,`??operator new[]??rA`
   \   00000018   001095E5           LDR      R1,[R5, #+0]
   \   0000001C   200181E5           STR      R0,[R1, #+288]
    889              for(i=0; i<=29; i++)
   \   00000020   0000A0E3           MOV      R0,#+0
    890              {
    891                TagBook->UTitle2[i]=TagBook->UTitle[i];
   \                     ??CopyFromID3v1_2:
   \   00000024   1C3191E5           LDR      R3,[R1, #+284]
   \   00000028   202191E5           LDR      R2,[R1, #+288]
   \   0000002C   803083E0           ADD      R3,R3,R0, LSL #+1
   \   00000030   B030D3E1           LDRH     R3,[R3, #+0]
   \   00000034   802082E0           ADD      R2,R2,R0, LSL #+1
    892              }
   \   00000038   010080E2           ADD      R0,R0,#+1
   \   0000003C   B030C2E1           STRH     R3,[R2, #+0]
   \   00000040   1E0050E3           CMP      R0,#+30
   \   00000044   210000AA           BGE      ??CopyFromID3v1_3
   \   00000048   F5FFFFEA           B        ??CopyFromID3v1_2
    893            }
    894            if(x==1)
   \                     ??CopyFromID3v1_1:
   \   0000004C   010054E3           CMP      R4,#+1
   \   00000050   0E00001A           BNE      ??CopyFromID3v1_4
    895            {
    896              TagBook->UAutor2=new wchar_t[31];
   \   00000054   3E00A0E3           MOV      R0,#+62
   \   00000058   ........           _BLF     `??operator new[]`,`??operator new[]??rA`
   \   0000005C   001095E5           LDR      R1,[R5, #+0]
   \   00000060   080181E5           STR      R0,[R1, #+264]
    897              for(i=0; i<=29; i++)
   \   00000064   0000A0E3           MOV      R0,#+0
    898              {
    899                TagBook->UAutor2[i]=TagBook->UAutor[i];
   \                     ??CopyFromID3v1_5:
   \   00000068   043191E5           LDR      R3,[R1, #+260]
   \   0000006C   082191E5           LDR      R2,[R1, #+264]
   \   00000070   803083E0           ADD      R3,R3,R0, LSL #+1
   \   00000074   B030D3E1           LDRH     R3,[R3, #+0]
   \   00000078   802082E0           ADD      R2,R2,R0, LSL #+1
    900              }
   \   0000007C   010080E2           ADD      R0,R0,#+1
   \   00000080   B030C2E1           STRH     R3,[R2, #+0]
   \   00000084   1E0050E3           CMP      R0,#+30
   \   00000088   100000AA           BGE      ??CopyFromID3v1_3
   \   0000008C   F5FFFFEA           B        ??CopyFromID3v1_5
    901            }
    902            if(x==2)
   \                     ??CopyFromID3v1_4:
   \   00000090   020054E3           CMP      R4,#+2
   \   00000094   0D00001A           BNE      ??CopyFromID3v1_3
    903            {
    904              TagBook->UAlbum2=new wchar_t[31];
   \   00000098   3E00A0E3           MOV      R0,#+62
   \   0000009C   ........           _BLF     `??operator new[]`,`??operator new[]??rA`
   \   000000A0   001095E5           LDR      R1,[R5, #+0]
   \   000000A4   000181E5           STR      R0,[R1, #+256]
    905              for(i=0; i<=29; i++)
   \   000000A8   0000A0E3           MOV      R0,#+0
    906              {
    907                TagBook->UAlbum2[i]=TagBook->UAlbum[i];
   \                     ??CopyFromID3v1_6:
   \   000000AC   FC3091E5           LDR      R3,[R1, #+252]
   \   000000B0   002191E5           LDR      R2,[R1, #+256]
   \   000000B4   803083E0           ADD      R3,R3,R0, LSL #+1
   \   000000B8   B030D3E1           LDRH     R3,[R3, #+0]
   \   000000BC   802082E0           ADD      R2,R2,R0, LSL #+1
    908              }
   \   000000C0   010080E2           ADD      R0,R0,#+1
   \   000000C4   B030C2E1           STRH     R3,[R2, #+0]
   \   000000C8   1E0050E3           CMP      R0,#+30
   \   000000CC   F6FFFFBA           BLT      ??CopyFromID3v1_6
    909            }
    910            TagBook->change++;
   \                     ??CopyFromID3v1_3:
   \   000000D0   000095E5           LDR      R0,[R5, #+0]
   \   000000D4   781090E5           LDR      R1,[R0, #+120]
   \   000000D8   011081E2           ADD      R1,R1,#+1
   \   000000DC   781080E5           STR      R1,[R0, #+120]
    911            if(TagBook->MenuList2) GUIObject_Destroy(TagBook->MenuList2);
   \   000000E0   740090E5           LDR      R0,[R0, #+116]
   \   000000E4   000050E3           CMP      R0,#+0
   \   000000E8   0000000A           BEQ      ??CopyFromID3v1_7
   \   000000EC   CE0100EF           SWI      +462
    912            CreateML2(x);
   \                     ??CopyFromID3v1_7:
   \   000000F0   0400A0E1           MOV      R0,R4
   \   000000F4   ........           BL       ??CreateML2
    913          }
   \   000000F8   3080BDE8           POP      {R4,R5,PC}       ;; return
    914            

   \                                 In segment CODE, align 4, keep-with-next
    915          void NewKey2(DISP_OBJ * p, int i1, int i2, int i3, int i4)
    916          {
   \                     ??NewKey2:
   \   00000000   F0412DE9           PUSH     {R4-R8,LR}
   \   00000004   18509DE5           LDR      R5,[SP, #+24]
    917            TagBook->OldKey2(p, i1, i2, i3, i4);
   \   00000008   ........           LDR      R6,??DataTable73  ;; TagBook
   \   0000000C   0140A0E1           MOV      R4,R1
   \   00000010   0510A0E1           MOV      R1,R5
   \   00000014   02002DE9           PUSH     {R1}
   \   00000018   007096E5           LDR      R7,[R6, #+0]
   \   0000001C   0410A0E1           MOV      R1,R4
   \   00000020   EC7097E5           LDR      R7,[R7, #+236]
   \   00000024   37FF2FE1           BLX      R7
    918            if(i4==KBD_SHORT_RELEASE && i1==KEY_DEL)
   \   00000028   ........           LDR      R0,??DataTable54  ;; KEY_DIGITAL_0
   \   0000002C   008090E5           LDR      R8,[R0, #+0]
   \   00000030   ........           LDR      R0,??DataTable55  ;; KBD_SHORT_RELEASE
   \   00000034   0B7088E2           ADD      R7,R8,#+11
   \   00000038   000090E5           LDR      R0,[R0, #+0]
   \   0000003C   04D08DE2           ADD      SP,SP,#+4
   \   00000040   000055E1           CMP      R5,R0
   \   00000044   2400001A           BNE      ??NewKey2_1
   \   00000048   ........           LDR      R0,??DataTable56  ;; KEY_DEL
   \   0000004C   000090E5           LDR      R0,[R0, #+0]
   \   00000050   000054E1           CMP      R4,R0
   \   00000054   0500001A           BNE      ??NewKey2_2
    919            {
    920              int sel=ListMenu_GetSelectedItem(TagBook->MenuList2);
   \   00000058   000096E5           LDR      R0,[R6, #+0]
   \   0000005C   740090E5           LDR      R0,[R0, #+116]
   \   00000060   3E0100EF           SWI      +318
    921              if(sel<=2)
   \   00000064   030050E3           CMP      R0,#+3
   \   00000068   000000AA           BGE      ??NewKey2_2
    922              {
    923                DeleteTag2(sel);
   \   0000006C   ........           BL       ??DeleteTag2
   \                     ??NewKey2_2:
   \   00000070   080054E1           CMP      R4,R8
   \   00000074   0200001A           BNE      ??NewKey2_3
    924              }
    925            }
    926            if(i4==KBD_SHORT_RELEASE && i1==KEY_DIGITAL_0)
    927            {
    928              PlayF2((BOOK*)TagBook,0);
   \   00000078   000096E5           LDR      R0,[R6, #+0]
   \   0000007C   0010A0E3           MOV      R1,#+0
   \   00000080   ........           BL       ??PlayF2
   \                     ??NewKey2_3:
   \   00000084   010088E2           ADD      R0,R8,#+1
   \   00000088   000054E1           CMP      R4,R0
   \   0000008C   0000001A           BNE      ??NewKey2_4
    929            }
    930            if(i4==KBD_SHORT_RELEASE && i1==(KEY_DIGITAL_0+1))
    931            {
    932              InputTitleF2();
   \   00000090   ........           BL       ??InputTitleF2
   \                     ??NewKey2_4:
   \   00000094   020088E2           ADD      R0,R8,#+2
   \   00000098   000054E1           CMP      R4,R0
   \   0000009C   0000001A           BNE      ??NewKey2_5
    933            }
    934            if(i4==KBD_SHORT_RELEASE && i1==(KEY_DIGITAL_0+2))
    935            {
    936              InputAutorF2();
   \   000000A0   ........           BL       ??InputAutorF2
   \                     ??NewKey2_5:
   \   000000A4   030088E2           ADD      R0,R8,#+3
   \   000000A8   000054E1           CMP      R4,R0
   \   000000AC   0000001A           BNE      ??NewKey2_6
    937            }
    938            if(i4==KBD_SHORT_RELEASE && i1==(KEY_DIGITAL_0+3))
    939            {
    940              InputAlbumF2();
   \   000000B0   ........           BL       ??InputAlbumF2
   \                     ??NewKey2_6:
   \   000000B4   0A0088E2           ADD      R0,R8,#+10
   \   000000B8   000054E1           CMP      R4,R0
   \   000000BC   0000001A           BNE      ??NewKey2_7
    941            }
    942            if(i4==KBD_SHORT_RELEASE && i1==(KEY_DIGITAL_0+10))
    943            {
    944              ShowInfo();
   \   000000C0   ........           BL       ??ShowInfo
   \                     ??NewKey2_7:
   \   000000C4   070054E1           CMP      R4,R7
   \   000000C8   0300001A           BNE      ??NewKey2_1
    945            }
    946            if(i4==KBD_SHORT_RELEASE && i1==(KEY_DIGITAL_0+11))
    947            {
    948              CopyFromID3v1(ListMenu_GetSelectedItem(TagBook->MenuList2));
   \   000000CC   000096E5           LDR      R0,[R6, #+0]
   \   000000D0   740090E5           LDR      R0,[R0, #+116]
   \   000000D4   3E0100EF           SWI      +318
   \   000000D8   ........           BL       ??CopyFromID3v1
    949            }
    950            if(i4==KBD_LONG_PRESS && i1==(KEY_DIGITAL_0+11))
   \                     ??NewKey2_1:
   \   000000DC   ........           LDR      R0,??DataTable57  ;; KBD_LONG_PRESS
   \   000000E0   000090E5           LDR      R0,[R0, #+0]
   \   000000E4   000055E1           CMP      R5,R0
   \   000000E8   07005401           CMPEQ    R4,R7
   \   000000EC   F081BD18           POPNE    {R4-R8,PC}
    951            {
    952              CopyFromName2(ListMenu_GetSelectedItem(TagBook->MenuList2));
   \   000000F0   000096E5           LDR      R0,[R6, #+0]
   \   000000F4   740090E5           LDR      R0,[R0, #+116]
   \   000000F8   3E0100EF           SWI      +318
   \   000000FC   ........           BL       ??CopyFromName2
    953            }
    954          }
   \   00000100   F081BDE8           POP      {R4-R8,PC}       ;; return
    955          

   \                                 In segment CODE, align 4, keep-with-next
    956          void CreateML2(int x)
    957          {
   \                     ??CreateML2:
   \   00000000   F0402DE9           PUSH     {R4-R7,LR}
    958            GUI_LIST*MList2=CreateListMenu((BOOK*)TagBook,0);
   \   00000004   ........           LDR      R5,??DataTable73  ;; TagBook
   \   00000008   0060A0E1           MOV      R6,R0
   \   0000000C   000095E5           LDR      R0,[R5, #+0]
   \   00000010   0010A0E3           MOV      R1,#+0
   \   00000014   C00100EF           SWI      +448
   \   00000018   0040A0E1           MOV      R4,R0
    959            TagBook->MenuList2=MList2;
   \   0000001C   000095E5           LDR      R0,[R5, #+0]
    960            GUIObject_SetTitleText(MList2, TextID_Create(NAME_EDIT2,ENC_UCS2,TEXTID_ANY_LEN));
   \   00000020   FF70A0E3           MOV      R7,#+255
   \   00000024   744080E5           STR      R4,[R0, #+116]
   \   00000028   08019FE5           LDR      R0,??CreateML2_1  ;; `?<Constant L"\\x49\\x44\\x33\\x76\\x31">` + 36
   \   0000002C   FF7C87E3           ORR      R7,R7,#0xFF00
   \   00000030   0720A0E1           MOV      R2,R7
   \   00000034   0010A0E3           MOV      R1,#+0
   \   00000038   5D0100EF           SWI      +349
   \   0000003C   0010A0E1           MOV      R1,R0
   \   00000040   0400A0E1           MOV      R0,R4
   \   00000044   330100EF           SWI      +307
    961            ListMenu_SetItemCount(MList2, 3);
   \   00000048   0310A0E3           MOV      R1,#+3
   \   0000004C   0400A0E1           MOV      R0,R4
   \   00000050   C10100EF           SWI      +449
    962            OneOfMany_SetOnMessage(MList2,SetTitleML2);
   \   00000054   E0109FE5           LDR      R1,??CreateML2_1+0x4  ;; ??SetTitleML2
   \   00000058   0400A0E1           MOV      R0,R4
   \   0000005C   E10100EF           SWI      +481
    963            ListMenu_SetCursorToItem(MList2,x);
   \   00000060   0610A0E1           MOV      R1,R6
    964            ListMenu_SetItemStyle(MList2,3);
    965            GUIObject_SoftKeys_SetAction(MList2,ACTION_BACK,ExitML2);
   \   00000064   D4609FE5           LDR      R6,??CreateML2_1+0x8  ;; ??ExitML2
   \   00000068   0400A0E1           MOV      R0,R4
   \   0000006C   350100EF           SWI      +309
   \   00000070   0310A0E3           MOV      R1,#+3
   \   00000074   0400A0E1           MOV      R0,R4
   \   00000078   3F0100EF           SWI      +319
   \   0000007C   ........           LDR      R0,??DataTable65  ;; ACTION_BACK
   \   00000080   0620A0E1           MOV      R2,R6
   \   00000084   001090E5           LDR      R1,[R0, #+0]
   \   00000088   0400A0E1           MOV      R0,R4
   \   0000008C   0118A0E1           MOV      R1,R1, LSL #+16
   \   00000090   2118A0E1           MOV      R1,R1, LSR #+16
   \   00000094   4B0100EF           SWI      +331
    966            GUIObject_SoftKeys_SetAction(MList2,ACTION_LONG_BACK,ExitML2);
   \   00000098   ........           LDR      R0,??DataTable66  ;; ACTION_LONG_BACK
   \   0000009C   0620A0E1           MOV      R2,R6
   \   000000A0   001090E5           LDR      R1,[R0, #+0]
   \   000000A4   0400A0E1           MOV      R0,R4
   \   000000A8   0118A0E1           MOV      R1,R1, LSL #+16
   \   000000AC   2118A0E1           MOV      R1,R1, LSR #+16
   \   000000B0   4B0100EF           SWI      +331
    967            GUIObject_SoftKeys_SetAction(MList2,ACTION_SELECT1,OnEntML2);	
   \   000000B4   ........           LDR      R0,??DataTable67  ;; ACTION_SELECT1
   \   000000B8   84209FE5           LDR      R2,??CreateML2_1+0xC  ;; ??OnEntML2
   \   000000BC   001090E5           LDR      R1,[R0, #+0]
   \   000000C0   0400A0E1           MOV      R0,R4
   \   000000C4   0118A0E1           MOV      R1,R1, LSL #+16
   \   000000C8   2118A0E1           MOV      R1,R1, LSR #+16
   \   000000CC   4B0100EF           SWI      +331
    968            GUIObject_SoftKeys_SetAction(MList2,1,PlayF2);
   \   000000D0   70209FE5           LDR      R2,??CreateML2_1+0x10  ;; ??PlayF2
   \   000000D4   0110A0E3           MOV      R1,#+1
   \   000000D8   0400A0E1           MOV      R0,R4
   \   000000DC   4B0100EF           SWI      +331
    969            GUIObject_SoftKeys_SetText(MList2,1,TextID_Create(TagBook->PlayText,ENC_UCS2,TEXTID_ANY_LEN));
   \   000000E0   000095E5           LDR      R0,[R5, #+0]
   \   000000E4   0720A0E1           MOV      R2,R7
   \   000000E8   0010A0E3           MOV      R1,#+0
   \   000000EC   4A0F80E2           ADD      R0,R0,#+296
   \   000000F0   5D0100EF           SWI      +349
   \   000000F4   0020A0E1           MOV      R2,R0
   \   000000F8   0110A0E3           MOV      R1,#+1
   \   000000FC   0400A0E1           MOV      R0,R4
   \   00000100   4C0100EF           SWI      +332
    970            TagBook->OldKey2 = DispObject_GetOnKey( GUIObject_GetDispObject(MList2) );
   \   00000104   0400A0E1           MOV      R0,R4
   \   00000108   680100EF           SWI      +360
   \   0000010C   2B0200EF           SWI      +555
   \   00000110   001095E5           LDR      R1,[R5, #+0]
   \   00000114   EC0081E5           STR      R0,[R1, #+236]
    971            DISP_DESC_SetOnKey( DispObject_GetDESC ( GUIObject_GetDispObject(MList2) ), NewKey2);
   \   00000118   0400A0E1           MOV      R0,R4
   \   0000011C   680100EF           SWI      +360
   \   00000120   1F0200EF           SWI      +543
   \   00000124   20109FE5           LDR      R1,??CreateML2_1+0x14  ;; ??NewKey2
   \   00000128   2A0200EF           SWI      +554
    972            GUIObject_Show(MList2);
   \   0000012C   0400A0E1           MOV      R0,R4
   \   00000130   340100EF           SWI      +308
    973          }
   \   00000134   F080BDE8           POP      {R4-R7,PC}       ;; return
   \                     ??CreateML2_1:
   \   00000138   ........           DC32     `?<Constant L"\\x49\\x44\\x33\\x76\\x31">` + 36
   \   0000013C   ........           DC32     ??SetTitleML2
   \   00000140   ........           DC32     ??ExitML2
   \   00000144   ........           DC32     ??OnEntML2
   \   00000148   ........           DC32     ??PlayF2
   \   0000014C   ........           DC32     ??NewKey2
    974          

   \                                 In segment CODE, align 4, keep-with-next
    975          void ExitMG( BOOK*, GUI* )
    976          {
   \                     ??ExitMG:
   \   00000000   10402DE9           PUSH     {R4,LR}
    977            GUIObject_Destroy(TagBook->GList);
   \   00000004   ........           LDR      R4,??DataTable73  ;; TagBook
   \   00000008   000094E5           LDR      R0,[R4, #+0]
   \   0000000C   6C0090E5           LDR      R0,[R0, #+108]
   \   00000010   CE0100EF           SWI      +462
    978            TagBook->GList=0;
   \   00000014   000094E5           LDR      R0,[R4, #+0]
   \   00000018   0010A0E3           MOV      R1,#+0
   \   0000001C   6C1080E5           STR      R1,[R0, #+108]
    979            GUIObject_Show(TagBook->MenuList1);
   \   00000020   700090E5           LDR      R0,[R0, #+112]
   \   00000024   340100EF           SWI      +308
    980          }
   \   00000028   1080BDE8           POP      {R4,PC}          ;; return
    981          

   \                                 In segment CODE, align 4, keep-with-next
    982          void OnEntMG( BOOK* bk, GUI* )
    983          {
   \                     ??OnEntMG:
   \   00000000   30402DE9           PUSH     {R4,R5,LR}
    984            int item=ListMenu_GetSelectedItem(TagBook->GList);
   \   00000004   ........           LDR      R5,??DataTable73  ;; TagBook
   \   00000008   0040A0E1           MOV      R4,R0
   \   0000000C   000095E5           LDR      R0,[R5, #+0]
   \   00000010   6C0090E5           LDR      R0,[R0, #+108]
   \   00000014   3E0100EF           SWI      +318
    985            for(int i=0;i<=147;i++)
   \   00000018   0010A0E3           MOV      R1,#+0
    986            {
    987              if(item==i)
   \                     ??OnEntMG_1:
   \   0000001C   002095E5           LDR      R2,[R5, #+0]
   \   00000020   010050E1           CMP      R0,R1
    988              {
    989                TagBook->genre=i;
   \   00000024   7C108205           STREQ    R1,[R2, #+124]
    990              }
    991            }
   \   00000028   011081E2           ADD      R1,R1,#+1
   \   0000002C   940051E3           CMP      R1,#+148
   \   00000030   F9FFFFBA           BLT      ??OnEntMG_1
    992            TagBook->change++;
   \   00000034   780092E5           LDR      R0,[R2, #+120]
    993            ExitMG(bk,0);
   \   00000038   0010A0E3           MOV      R1,#+0
   \   0000003C   010080E2           ADD      R0,R0,#+1
   \   00000040   780082E5           STR      R0,[R2, #+120]
   \   00000044   0400A0E1           MOV      R0,R4
   \   00000048   3040BDE8           POP      {R4,R5,LR}       ;; Pop
   \   0000004C   ........           B        ??ExitMG         ;; tailcall
    994          }
    995          

   \                                 In segment CODE, align 4, keep-with-next
    996          int SetTitlePunktsMG(GUI_MESSAGE * msg)
    997          {
   \                     ??SetTitlePunktsMG:
   \   00000000   F0412DE9           PUSH     {R4-R8,LR}
   \   00000004   0040A0E1           MOV      R4,R0
    998            int item;
    999            switch( GUIonMessage_GetMsg(msg) )
   \   00000008   740300EF           SWI      +884
   \   0000000C   010050E3           CMP      R0,#+1
   \   00000010   2300001A           BNE      ??SetTitlePunktsMG_1
   1000            {
   1001              case 1:
   1002                item=GUIonMessage_GetCreatedItemIndex(msg);
   \   00000014   0400A0E1           MOV      R0,R4
   \   00000018   370100EF           SWI      +311
   \   0000001C   0050A0E1           MOV      R5,R0
   1003                for(int i=0; i<=147; i++)
   \   00000020   0060A0E3           MOV      R6,#+0
   1004                {
   1005                  if(item==i)
   \                     ??SetTitlePunktsMG_2:
   \   00000024   060055E1           CMP      R5,R6
   \   00000028   1A00001A           BNE      ??SetTitlePunktsMG_3
   1006                  {
   1007                    wchar_t * Genre=new wchar_t[strlen(GetGenre(i))+1];
   \   0000002C   0600A0E1           MOV      R0,R6
   \   00000030   ........           BL       ??GetGenre
   \   00000034   5A0100EF           SWI      +346
   \   00000038   010080E2           ADD      R0,R0,#+1
   \   0000003C   8000A0E1           LSL      R0,R0,#+1
   \   00000040   ........           _BLF     `??operator new[]`,`??operator new[]??rA`
   \   00000044   0070A0E1           MOV      R7,R0
   1008                    win12512unicode(Genre,GetGenre(i),strlen(GetGenre(i))+1);
   \   00000048   0600A0E1           MOV      R0,R6
   \   0000004C   ........           BL       ??GetGenre
   \   00000050   5A0100EF           SWI      +346
   \   00000054   0080A0E1           MOV      R8,R0
   \   00000058   0600A0E1           MOV      R0,R6
   \   0000005C   ........           BL       ??GetGenre
   \   00000060   0010A0E1           MOV      R1,R0
   \   00000064   012088E2           ADD      R2,R8,#+1
   \   00000068   0700A0E1           MOV      R0,R7
   \   0000006C   ........           BL       ??win12512unicode
   1009                    GUIonMessage_SetMenuItemText(msg,TextID_Create(Genre,ENC_UCS2,TEXTID_ANY_LEN));
   \   00000070   FF20A0E3           MOV      R2,#+255
   \   00000074   FF2C82E3           ORR      R2,R2,#0xFF00
   \   00000078   0010A0E3           MOV      R1,#+0
   \   0000007C   0700A0E1           MOV      R0,R7
   \   00000080   5D0100EF           SWI      +349
   \   00000084   0010A0E1           MOV      R1,R0
   \   00000088   0400A0E1           MOV      R0,R4
   \   0000008C   380100EF           SWI      +312
   1010                    delete Genre;
   \   00000090   0700A0E1           MOV      R0,R7
   \   00000094   ........           _BLF     `??operator delete`,`??operator delete??rA`
   1011                  }
   1012                }
   \                     ??SetTitlePunktsMG_3:
   \   00000098   016086E2           ADD      R6,R6,#+1
   \   0000009C   940056E3           CMP      R6,#+148
   \   000000A0   DFFFFFBA           BLT      ??SetTitlePunktsMG_2
   1013            }
   1014            return(1);
   \                     ??SetTitlePunktsMG_1:
   \   000000A4   0100A0E3           MOV      R0,#+1
   \   000000A8   F081BDE8           POP      {R4-R8,PC}       ;; return
   1015          }
   1016                

   \                                 In segment CODE, align 4, keep-with-next
   1017          int MGList()
   1018          {
   \                     ??MGList:
   \   00000000   30402DE9           PUSH     {R4,R5,LR}
   1019            GUI_LIST*MGList=CreateListMenu((BOOK*)TagBook,0);
   \   00000004   ........           LDR      R4,??DataTable73  ;; TagBook
   \   00000008   0010A0E3           MOV      R1,#+0
   \   0000000C   000094E5           LDR      R0,[R4, #+0]
   \   00000010   C00100EF           SWI      +448
   \   00000014   0050A0E1           MOV      R5,R0
   1020            TagBook->GList=MGList;
   \   00000018   000094E5           LDR      R0,[R4, #+0]
   1021            GUIObject_SetTitleText(MGList, TextID_Create(NAME_GENRE,ENC_UCS2,TEXTID_ANY_LEN));
   \   0000001C   FF20A0E3           MOV      R2,#+255
   \   00000020   6C5080E5           STR      R5,[R0, #+108]
   \   00000024   A4009FE5           LDR      R0,??MGList_1    ;; `?<Constant L"\\x412\\x44b\\x431\\x2e\\x20\\x436\\x430`
   \   00000028   FF2C82E3           ORR      R2,R2,#0xFF00
   \   0000002C   0010A0E3           MOV      R1,#+0
   \   00000030   5D0100EF           SWI      +349
   \   00000034   0010A0E1           MOV      R1,R0
   \   00000038   0500A0E1           MOV      R0,R5
   \   0000003C   330100EF           SWI      +307
   1022            ListMenu_SetItemCount(MGList, 148);
   \   00000040   9410A0E3           MOV      R1,#+148
   \   00000044   0500A0E1           MOV      R0,R5
   \   00000048   C10100EF           SWI      +449
   1023            OneOfMany_SetOnMessage(MGList,SetTitlePunktsMG);
   \   0000004C   80109FE5           LDR      R1,??MGList_1+0x4  ;; ??SetTitlePunktsMG
   \   00000050   0500A0E1           MOV      R0,R5
   \   00000054   E10100EF           SWI      +481
   1024            ListMenu_SetCursorToItem(MGList,TagBook->genre);
   \   00000058   000094E5           LDR      R0,[R4, #+0]
   1025            GUIObject_SoftKeys_SetAction(MGList,ACTION_BACK,ExitMG);
   \   0000005C   74409FE5           LDR      R4,??MGList_1+0x8  ;; ??ExitMG
   \   00000060   7C1090E5           LDR      R1,[R0, #+124]
   \   00000064   0500A0E1           MOV      R0,R5
   \   00000068   350100EF           SWI      +309
   \   0000006C   ........           LDR      R0,??DataTable65  ;; ACTION_BACK
   \   00000070   0420A0E1           MOV      R2,R4
   \   00000074   001090E5           LDR      R1,[R0, #+0]
   \   00000078   0500A0E1           MOV      R0,R5
   \   0000007C   0118A0E1           MOV      R1,R1, LSL #+16
   \   00000080   2118A0E1           MOV      R1,R1, LSR #+16
   \   00000084   4B0100EF           SWI      +331
   1026            GUIObject_SoftKeys_SetAction(MGList,ACTION_LONG_BACK,ExitMG);
   \   00000088   ........           LDR      R0,??DataTable66  ;; ACTION_LONG_BACK
   \   0000008C   0420A0E1           MOV      R2,R4
   \   00000090   001090E5           LDR      R1,[R0, #+0]
   \   00000094   0500A0E1           MOV      R0,R5
   \   00000098   0118A0E1           MOV      R1,R1, LSL #+16
   \   0000009C   2118A0E1           MOV      R1,R1, LSR #+16
   \   000000A0   4B0100EF           SWI      +331
   1027            GUIObject_SoftKeys_SetAction(MGList,ACTION_SELECT1,OnEntMG);	
   \   000000A4   ........           LDR      R0,??DataTable67  ;; ACTION_SELECT1
   \   000000A8   2C209FE5           LDR      R2,??MGList_1+0xC  ;; ??OnEntMG
   \   000000AC   001090E5           LDR      R1,[R0, #+0]
   \   000000B0   0500A0E1           MOV      R0,R5
   \   000000B4   0118A0E1           MOV      R1,R1, LSL #+16
   \   000000B8   2118A0E1           MOV      R1,R1, LSR #+16
   \   000000BC   4B0100EF           SWI      +331
   1028            GUIObject_Show(MGList);
   \   000000C0   0500A0E1           MOV      R0,R5
   \   000000C4   340100EF           SWI      +308
   1029            return(0);
   \   000000C8   0000A0E3           MOV      R0,#+0
   \   000000CC   3080BDE8           POP      {R4,R5,PC}       ;; return
   \                     ??MGList_1:
   \   000000D0   ........           DC32     `?<Constant L"\\x412\\x44b\\x431\\x2e\\x20\\x436\\x430`
   \   000000D4   ........           DC32     ??SetTitlePunktsMG
   \   000000D8   ........           DC32     ??ExitMG
   \   000000DC   ........           DC32     ??OnEntMG
   1030          }
   1031          

   \                                 In segment CODE, align 4, keep-with-next
   1032          void DestroyInputBooks()
   1033          {
   \                     ??DestroyInputBooks:
   \   00000000   30402DE9           PUSH     {R4,R5,LR}
   1034            if(TagBook->InputTitle)
   \   00000004   ........           LDR      R4,??DataTable73  ;; TagBook
   \   00000008   0050A0E3           MOV      R5,#+0
   \   0000000C   000094E5           LDR      R0,[R4, #+0]
   \   00000010   580090E5           LDR      R0,[R0, #+88]
   \   00000014   000050E3           CMP      R0,#+0
   \   00000018   0200000A           BEQ      ??DestroyInputBooks_1
   1035            {
   1036              GUIObject_Destroy(TagBook->InputTitle);
   \   0000001C   CE0100EF           SWI      +462
   1037              TagBook->InputTitle=0;
   \   00000020   000094E5           LDR      R0,[R4, #+0]
   \   00000024   585080E5           STR      R5,[R0, #+88]
   \                     ??DestroyInputBooks_1:
   \   00000028   000094E5           LDR      R0,[R4, #+0]
   \   0000002C   440090E5           LDR      R0,[R0, #+68]
   \   00000030   000050E3           CMP      R0,#+0
   \   00000034   0200000A           BEQ      ??DestroyInputBooks_2
   1038            }
   1039            if(TagBook->InputAlbum)
   1040            {
   1041              GUIObject_Destroy(TagBook->InputAlbum);
   \   00000038   CE0100EF           SWI      +462
   1042              TagBook->InputAlbum=0;
   \   0000003C   000094E5           LDR      R0,[R4, #+0]
   \   00000040   445080E5           STR      R5,[R0, #+68]
   \                     ??DestroyInputBooks_2:
   \   00000044   000094E5           LDR      R0,[R4, #+0]
   \   00000048   4C0090E5           LDR      R0,[R0, #+76]
   \   0000004C   000050E3           CMP      R0,#+0
   \   00000050   0200000A           BEQ      ??DestroyInputBooks_3
   1043            }
   1044            if(TagBook->InputAutor)
   1045            {
   1046              GUIObject_Destroy(TagBook->InputAutor);
   \   00000054   CE0100EF           SWI      +462
   1047              TagBook->InputAutor=0;
   \   00000058   000094E5           LDR      R0,[R4, #+0]
   \   0000005C   4C5080E5           STR      R5,[R0, #+76]
   \                     ??DestroyInputBooks_3:
   \   00000060   000094E5           LDR      R0,[R4, #+0]
   \   00000064   600090E5           LDR      R0,[R0, #+96]
   \   00000068   000050E3           CMP      R0,#+0
   \   0000006C   0200000A           BEQ      ??DestroyInputBooks_4
   1048            }
   1049            if(TagBook->InputYear)
   1050            {
   1051              GUIObject_Destroy(TagBook->InputYear);
   \   00000070   CE0100EF           SWI      +462
   1052              TagBook->InputYear=0;
   \   00000074   000094E5           LDR      R0,[R4, #+0]
   \   00000078   605080E5           STR      R5,[R0, #+96]
   \                     ??DestroyInputBooks_4:
   \   0000007C   000094E5           LDR      R0,[R4, #+0]
   \   00000080   540090E5           LDR      R0,[R0, #+84]
   \   00000084   000050E3           CMP      R0,#+0
   \   00000088   3080BD08           POPEQ    {R4,R5,PC}
   1053            }
   1054            if(TagBook->InputComment)
   1055            {
   1056              GUIObject_Destroy(TagBook->InputComment);
   \   0000008C   CE0100EF           SWI      +462
   1057              TagBook->InputComment=0;
   \   00000090   000094E5           LDR      R0,[R4, #+0]
   \   00000094   545080E5           STR      R5,[R0, #+84]
   1058            }
   1059          }
   \   00000098   3080BDE8           POP      {R4,R5,PC}       ;; return
   1060          

   \                                 In segment CODE, align 4, keep-with-next
   1061          void OnEntInputTitle(BOOK *,wchar_t * string,int len)
   1062          {
   \                     ??OnEntInputTitle:
   \   00000000   30402DE9           PUSH     {R4,R5,LR}
   1063            for(int i=0; i<=29; i++)
   \   00000004   ........           LDR      R4,??DataTable73  ;; TagBook
   \   00000008   0000A0E3           MOV      R0,#+0
   \   0000000C   0050A0E3           MOV      R5,#+0
   1064            {
   1065              TagBook->UTitle[i]=0;
   \                     ??OnEntInputTitle_1:
   \   00000010   003094E5           LDR      R3,[R4, #+0]
   \   00000014   1CC193E5           LDR      R12,[R3, #+284]
   \   00000018   80E08CE0           ADD      LR,R12,R0, LSL #+1
   \   0000001C   B050CEE1           STRH     R5,[LR, #+0]
   1066            }
   \   00000020   010080E2           ADD      R0,R0,#+1
   \   00000024   1E0050E3           CMP      R0,#+30
   \   00000028   F8FFFFBA           BLT      ??OnEntInputTitle_1
   1067            for(int i=0; i<=len; i++)
   \   0000002C   0000A0E3           MOV      R0,#+0
   \   00000030   000052E3           CMP      R2,#+0
   \   00000034   0500005A           BPL      ??OnEntInputTitle_2
   \   00000038   060000EA           B        ??OnEntInputTitle_3
   1068            {
   1069              TagBook->UTitle[i]=string[i];
   \                     ??OnEntInputTitle_4:
   \   0000003C   80E081E0           ADD      LR,R1,R0, LSL #+1
   \   00000040   B0E0DEE1           LDRH     LR,[LR, #+0]
   \   00000044   80508CE0           ADD      R5,R12,R0, LSL #+1
   1070            }
   \   00000048   010080E2           ADD      R0,R0,#+1
   \   0000004C   B0E0C5E1           STRH     LR,[R5, #+0]
   \                     ??OnEntInputTitle_2:
   \   00000050   000052E1           CMP      R2,R0
   \   00000054   F8FFFFAA           BGE      ??OnEntInputTitle_4
   1071            TagBook->change++;
   \                     ??OnEntInputTitle_3:
   \   00000058   780093E5           LDR      R0,[R3, #+120]
   \   0000005C   010080E2           ADD      R0,R0,#+1
   \   00000060   780083E5           STR      R0,[R3, #+120]
   1072            DestroyInputBooks();
   \   00000064   ........           BL       ??DestroyInputBooks
   1073            GUIObject_Show(TagBook->MenuList1);
   \   00000068   000094E5           LDR      R0,[R4, #+0]
   \   0000006C   700090E5           LDR      R0,[R0, #+112]
   \   00000070   340100EF           SWI      +308
   1074          }
   \   00000074   3080BDE8           POP      {R4,R5,PC}       ;; return
   1075          

   \                                 In segment CODE, align 4, keep-with-next
   1076          void OnEntInputAutor(BOOK *,wchar_t * string,int len)
   1077          {
   \                     ??OnEntInputAutor:
   \   00000000   30402DE9           PUSH     {R4,R5,LR}
   1078            for(int i=0; i<=29; i++)
   \   00000004   ........           LDR      R4,??DataTable73  ;; TagBook
   \   00000008   0000A0E3           MOV      R0,#+0
   \   0000000C   0050A0E3           MOV      R5,#+0
   1079            {
   1080              TagBook->UAutor[i]=0;
   \                     ??OnEntInputAutor_1:
   \   00000010   003094E5           LDR      R3,[R4, #+0]
   \   00000014   04C193E5           LDR      R12,[R3, #+260]
   \   00000018   80E08CE0           ADD      LR,R12,R0, LSL #+1
   \   0000001C   B050CEE1           STRH     R5,[LR, #+0]
   1081            }
   \   00000020   010080E2           ADD      R0,R0,#+1
   \   00000024   1E0050E3           CMP      R0,#+30
   \   00000028   F8FFFFBA           BLT      ??OnEntInputAutor_1
   1082            for(int i=0; i<=len; i++)
   \   0000002C   0000A0E3           MOV      R0,#+0
   \   00000030   000052E3           CMP      R2,#+0
   \   00000034   0500005A           BPL      ??OnEntInputAutor_2
   \   00000038   060000EA           B        ??OnEntInputAutor_3
   1083            {
   1084              TagBook->UAutor[i]=string[i];
   \                     ??OnEntInputAutor_4:
   \   0000003C   80E081E0           ADD      LR,R1,R0, LSL #+1
   \   00000040   B0E0DEE1           LDRH     LR,[LR, #+0]
   \   00000044   80508CE0           ADD      R5,R12,R0, LSL #+1
   1085            }
   \   00000048   010080E2           ADD      R0,R0,#+1
   \   0000004C   B0E0C5E1           STRH     LR,[R5, #+0]
   \                     ??OnEntInputAutor_2:
   \   00000050   000052E1           CMP      R2,R0
   \   00000054   F8FFFFAA           BGE      ??OnEntInputAutor_4
   1086            TagBook->change++;
   \                     ??OnEntInputAutor_3:
   \   00000058   780093E5           LDR      R0,[R3, #+120]
   \   0000005C   010080E2           ADD      R0,R0,#+1
   \   00000060   780083E5           STR      R0,[R3, #+120]
   1087            DestroyInputBooks();
   \   00000064   ........           BL       ??DestroyInputBooks
   1088            GUIObject_Show(TagBook->MenuList1);
   \   00000068   000094E5           LDR      R0,[R4, #+0]
   \   0000006C   700090E5           LDR      R0,[R0, #+112]
   \   00000070   340100EF           SWI      +308
   1089          }
   \   00000074   3080BDE8           POP      {R4,R5,PC}       ;; return
   1090          

   \                                 In segment CODE, align 4, keep-with-next
   1091          void OnEntInputAlbum(BOOK *,wchar_t * string,int len)
   1092          {
   \                     ??OnEntInputAlbum:
   \   00000000   30402DE9           PUSH     {R4,R5,LR}
   1093            for(int i=0; i<=29; i++)
   \   00000004   ........           LDR      R4,??DataTable73  ;; TagBook
   \   00000008   0000A0E3           MOV      R0,#+0
   \   0000000C   0050A0E3           MOV      R5,#+0
   1094            {
   1095              TagBook->UAlbum[i]=0;
   \                     ??OnEntInputAlbum_1:
   \   00000010   003094E5           LDR      R3,[R4, #+0]
   \   00000014   FCC093E5           LDR      R12,[R3, #+252]
   \   00000018   80E08CE0           ADD      LR,R12,R0, LSL #+1
   \   0000001C   B050CEE1           STRH     R5,[LR, #+0]
   1096            }
   \   00000020   010080E2           ADD      R0,R0,#+1
   \   00000024   1E0050E3           CMP      R0,#+30
   \   00000028   F8FFFFBA           BLT      ??OnEntInputAlbum_1
   1097            for(int i=0; i<=len; i++)
   \   0000002C   0000A0E3           MOV      R0,#+0
   \   00000030   000052E3           CMP      R2,#+0
   \   00000034   0500005A           BPL      ??OnEntInputAlbum_2
   \   00000038   060000EA           B        ??OnEntInputAlbum_3
   1098            {
   1099              TagBook->UAlbum[i]=string[i];
   \                     ??OnEntInputAlbum_4:
   \   0000003C   80E081E0           ADD      LR,R1,R0, LSL #+1
   \   00000040   B0E0DEE1           LDRH     LR,[LR, #+0]
   \   00000044   80508CE0           ADD      R5,R12,R0, LSL #+1
   1100            }
   \   00000048   010080E2           ADD      R0,R0,#+1
   \   0000004C   B0E0C5E1           STRH     LR,[R5, #+0]
   \                     ??OnEntInputAlbum_2:
   \   00000050   000052E1           CMP      R2,R0
   \   00000054   F8FFFFAA           BGE      ??OnEntInputAlbum_4
   1101            TagBook->change++;
   \                     ??OnEntInputAlbum_3:
   \   00000058   780093E5           LDR      R0,[R3, #+120]
   \   0000005C   010080E2           ADD      R0,R0,#+1
   \   00000060   780083E5           STR      R0,[R3, #+120]
   1102            DestroyInputBooks();
   \   00000064   ........           BL       ??DestroyInputBooks
   1103            GUIObject_Show(TagBook->MenuList1);
   \   00000068   000094E5           LDR      R0,[R4, #+0]
   \   0000006C   700090E5           LDR      R0,[R0, #+112]
   \   00000070   340100EF           SWI      +308
   1104          }
   \   00000074   3080BDE8           POP      {R4,R5,PC}       ;; return
   1105          

   \                                 In segment CODE, align 4, keep-with-next
   1106          void OnEntInputYear(BOOK *,wchar_t * string,int len)
   1107          {
   \                     ??OnEntInputYear:
   \   00000000   30402DE9           PUSH     {R4,R5,LR}
   1108            for(int i=0; i<=3; i++)
   \   00000004   ........           LDR      R4,??DataTable73  ;; TagBook
   \   00000008   0000A0E3           MOV      R0,#+0
   \   0000000C   0050A0E3           MOV      R5,#+0
   1109            {
   1110              TagBook->UYear[i]=0;
   \                     ??OnEntInputYear_1:
   \   00000010   003094E5           LDR      R3,[R4, #+0]
   \   00000014   24C193E5           LDR      R12,[R3, #+292]
   \   00000018   80E08CE0           ADD      LR,R12,R0, LSL #+1
   \   0000001C   B050CEE1           STRH     R5,[LR, #+0]
   1111            }
   \   00000020   010080E2           ADD      R0,R0,#+1
   \   00000024   040050E3           CMP      R0,#+4
   \   00000028   F8FFFFBA           BLT      ??OnEntInputYear_1
   1112            for(int i=0; i<=len; i++)
   \   0000002C   0000A0E3           MOV      R0,#+0
   \   00000030   000052E3           CMP      R2,#+0
   \   00000034   0500005A           BPL      ??OnEntInputYear_2
   \   00000038   060000EA           B        ??OnEntInputYear_3
   1113            {
   1114              TagBook->UYear[i]=string[i];
   \                     ??OnEntInputYear_4:
   \   0000003C   80E081E0           ADD      LR,R1,R0, LSL #+1
   \   00000040   B0E0DEE1           LDRH     LR,[LR, #+0]
   \   00000044   80508CE0           ADD      R5,R12,R0, LSL #+1
   1115            }
   \   00000048   010080E2           ADD      R0,R0,#+1
   \   0000004C   B0E0C5E1           STRH     LR,[R5, #+0]
   \                     ??OnEntInputYear_2:
   \   00000050   000052E1           CMP      R2,R0
   \   00000054   F8FFFFAA           BGE      ??OnEntInputYear_4
   1116            TagBook->change++;
   \                     ??OnEntInputYear_3:
   \   00000058   780093E5           LDR      R0,[R3, #+120]
   \   0000005C   010080E2           ADD      R0,R0,#+1
   \   00000060   780083E5           STR      R0,[R3, #+120]
   1117            DestroyInputBooks();
   \   00000064   ........           BL       ??DestroyInputBooks
   1118            GUIObject_Show(TagBook->MenuList1);
   \   00000068   000094E5           LDR      R0,[R4, #+0]
   \   0000006C   700090E5           LDR      R0,[R0, #+112]
   \   00000070   340100EF           SWI      +308
   1119          }
   \   00000074   3080BDE8           POP      {R4,R5,PC}       ;; return
   1120          

   \                                 In segment CODE, align 4, keep-with-next
   1121          void OnEntInputComment(BOOK *,wchar_t * string,int len)
   1122          {
   \                     ??OnEntInputComment:
   \   00000000   30402DE9           PUSH     {R4,R5,LR}
   1123            for(int i=0; i<=29; i++)
   \   00000004   ........           LDR      R4,??DataTable73  ;; TagBook
   \   00000008   0000A0E3           MOV      R0,#+0
   \   0000000C   0050A0E3           MOV      R5,#+0
   1124            {
   1125              TagBook->UComment[i]=0;
   \                     ??OnEntInputComment_1:
   \   00000010   003094E5           LDR      R3,[R4, #+0]
   \   00000014   10C193E5           LDR      R12,[R3, #+272]
   \   00000018   80E08CE0           ADD      LR,R12,R0, LSL #+1
   \   0000001C   B050CEE1           STRH     R5,[LR, #+0]
   1126            }
   \   00000020   010080E2           ADD      R0,R0,#+1
   \   00000024   1E0050E3           CMP      R0,#+30
   \   00000028   F8FFFFBA           BLT      ??OnEntInputComment_1
   1127            for(int i=0; i<=len; i++)
   \   0000002C   0000A0E3           MOV      R0,#+0
   \   00000030   000052E3           CMP      R2,#+0
   \   00000034   0500005A           BPL      ??OnEntInputComment_2
   \   00000038   060000EA           B        ??OnEntInputComment_3
   1128            {
   1129              TagBook->UComment[i]=string[i];
   \                     ??OnEntInputComment_4:
   \   0000003C   80E081E0           ADD      LR,R1,R0, LSL #+1
   \   00000040   B0E0DEE1           LDRH     LR,[LR, #+0]
   \   00000044   80508CE0           ADD      R5,R12,R0, LSL #+1
   1130            }
   \   00000048   010080E2           ADD      R0,R0,#+1
   \   0000004C   B0E0C5E1           STRH     LR,[R5, #+0]
   \                     ??OnEntInputComment_2:
   \   00000050   000052E1           CMP      R2,R0
   \   00000054   F8FFFFAA           BGE      ??OnEntInputComment_4
   1131            TagBook->change++;
   \                     ??OnEntInputComment_3:
   \   00000058   780093E5           LDR      R0,[R3, #+120]
   \   0000005C   010080E2           ADD      R0,R0,#+1
   \   00000060   780083E5           STR      R0,[R3, #+120]
   1132            DestroyInputBooks();
   \   00000064   ........           BL       ??DestroyInputBooks
   1133            GUIObject_Show(TagBook->MenuList1);
   \   00000068   000094E5           LDR      R0,[R4, #+0]
   \   0000006C   700090E5           LDR      R0,[R0, #+112]
   \   00000070   340100EF           SWI      +308
   1134          }
   \   00000074   3080BDE8           POP      {R4,R5,PC}       ;; return
   1135          

   \                                 In segment CODE, align 4, keep-with-next
   1136          void InputTitleF()
   1137          {
   \                     ??InputTitleF:
   \   00000000   70402DE9           PUSH     {R4-R6,LR}
   1138            TagBook->InputTitle=CreateStringInputVA(0,
   1139                                                 VAR_PREV_ACTION_PROC(DestroyInputBooks),
   1140                                                 VAR_LONG_BACK_PROC(DestroyInputBooks),
   1141                                                 VAR_BOOK(TagBook),
   1142                                                 VAR_STRINP_FIXED_TEXT(TextID_Create(INPUT_TITLE, ENC_UCS2, TEXTID_ANY_LEN)),
   1143                                                 VAR_STRINP_TEXT(TextID_Create(TagBook->UTitle, ENC_UCS2, TEXTID_ANY_LEN)),
   1144                                                 VAR_STRINP_MAX_LEN(30),
   1145                                                 VAR_STRINP_MIN_LEN(0),
   1146                                                 VAR_OK_PROC(OnEntInputTitle),
   1147                                                 0);                                      
   \   00000004   ........           LDR      R4,??DataTable148  ;; TagBook
   \   00000008   0010A0E3           MOV      R1,#+0
   \   0000000C   000094E5           LDR      R0,[R4, #+0]
   \   00000010   FF60A0E3           MOV      R6,#+255
   \   00000014   1C0190E5           LDR      R0,[R0, #+284]
   \   00000018   FF6C86E3           ORR      R6,R6,#0xFF00
   \   0000001C   0620A0E1           MOV      R2,R6
   \   00000020   5D0100EF           SWI      +349
   \   00000024   0050A0E1           MOV      R5,R0
   \   00000028   94009FE5           LDR      R0,??InputTitleF_1  ;; `?<Constant L"\\x41d\\x430\\x437\\x432\\x430\\x43d\\x4_2`
   \   0000002C   0620A0E1           MOV      R2,R6
   \   00000030   0010A0E3           MOV      R1,#+0
   \   00000034   5D0100EF           SWI      +349
   \   00000038   ........           LDR      R2,??DataTable117  ;; ??DestroyInputBooks
   \   0000003C   ........           LDR      R3,??DataTable118  ;; VAR_ARG_CALL_BACK_LONG_BACK
   \   00000040   0010A0E3           MOV      R1,#+0
   \   00000044   02002DE9           PUSH     {R1}
   \   00000048   78109FE5           LDR      R1,??InputTitleF_1+0x4  ;; ??OnEntInputTitle
   \   0000004C   02002DE9           PUSH     {R1}
   \   00000050   ........           LDR      R1,??DataTable119  ;; VAR_ARG_CALL_BACK_OK
   \   00000054   02002DE9           PUSH     {R1}
   \   00000058   0010A0E3           MOV      R1,#+0
   \   0000005C   02002DE9           PUSH     {R1}
   \   00000060   ........           LDR      R1,??DataTable120  ;; VAR_ARG_STRINP_MIN_LEN
   \   00000064   02002DE9           PUSH     {R1}
   \   00000068   1E10A0E3           MOV      R1,#+30
   \   0000006C   02002DE9           PUSH     {R1}
   \   00000070   ........           LDR      R1,??DataTable121  ;; VAR_ARG_STRINP_MAX_LEN
   \   00000074   02002DE9           PUSH     {R1}
   \   00000078   ........           LDR      R1,??DataTable122  ;; VAR_ARG_STRINP_TEXT
   \   0000007C   20002DE9           PUSH     {R5}
   \   00000080   02002DE9           PUSH     {R1}
   \   00000084   ........           LDR      R1,??DataTable123  ;; VAR_ARG_CALL_BACK_PREV_ACT
   \   00000088   01002DE9           PUSH     {R0}
   \   0000008C   ........           LDR      R0,??DataTable124  ;; VAR_ARG_STRINP_FIXED_TEXT
   \   00000090   01002DE9           PUSH     {R0}
   \   00000094   000094E5           LDR      R0,[R4, #+0]
   \   00000098   01002DE9           PUSH     {R0}
   \   0000009C   ........           LDR      R0,??DataTable125  ;; VAR_ARG_BOOK
   \   000000A0   01002DE9           PUSH     {R0}
   \   000000A4   0200A0E1           MOV      R0,R2
   \   000000A8   01002DE9           PUSH     {R0}
   \   000000AC   0000A0E3           MOV      R0,#+0
   \   000000B0   440100EF           SWI      +324
   \   000000B4   38D08DE2           ADD      SP,SP,#+56
   \   000000B8   001094E5           LDR      R1,[R4, #+0]
   \   000000BC   580081E5           STR      R0,[R1, #+88]
   1148                                                 
   1149          }
   \   000000C0   7080BDE8           POP      {R4-R6,PC}       ;; return
   \                     ??InputTitleF_1:
   \   000000C4   ........           DC32     `?<Constant L"\\x41d\\x430\\x437\\x432\\x430\\x43d\\x4_2`
   \   000000C8   ........           DC32     ??OnEntInputTitle
   1150          

   \                                 In segment CODE, align 4, keep-with-next
   1151          void InputAutorF()
   1152          {
   \                     ??InputAutorF:
   \   00000000   70402DE9           PUSH     {R4-R6,LR}
   1153              TagBook->InputAutor=CreateStringInputVA(0,
   1154                                                 VAR_PREV_ACTION_PROC(DestroyInputBooks),
   1155                                                 VAR_LONG_BACK_PROC(DestroyInputBooks),
   1156                                                 VAR_BOOK(TagBook),
   1157                                                 VAR_STRINP_FIXED_TEXT(TextID_Create(INPUT_ARTIST, ENC_UCS2, TEXTID_ANY_LEN)),
   1158                                                 VAR_STRINP_TEXT(TextID_Create(TagBook->UAutor, ENC_UCS2, TEXTID_ANY_LEN)),
   1159                                                 VAR_STRINP_MAX_LEN(30),
   1160                                                 VAR_STRINP_MIN_LEN(0),
   1161                                                 VAR_OK_PROC(OnEntInputAutor),
   1162                                                 0);   
   \   00000004   ........           LDR      R4,??DataTable148  ;; TagBook
   \   00000008   0010A0E3           MOV      R1,#+0
   \   0000000C   000094E5           LDR      R0,[R4, #+0]
   \   00000010   FF60A0E3           MOV      R6,#+255
   \   00000014   040190E5           LDR      R0,[R0, #+260]
   \   00000018   FF6C86E3           ORR      R6,R6,#0xFF00
   \   0000001C   0620A0E1           MOV      R2,R6
   \   00000020   5D0100EF           SWI      +349
   \   00000024   0050A0E1           MOV      R5,R0
   \   00000028   ........           LDR      R0,??DataTable85  ;; `?<Constant L"\\x418\\x441\\x43f\\x43e\\x43b\\x43d\\x4_1`
   \   0000002C   0620A0E1           MOV      R2,R6
   \   00000030   0010A0E3           MOV      R1,#+0
   \   00000034   5D0100EF           SWI      +349
   \   00000038   ........           LDR      R2,??DataTable117  ;; ??DestroyInputBooks
   \   0000003C   ........           LDR      R3,??DataTable118  ;; VAR_ARG_CALL_BACK_LONG_BACK
   \   00000040   0010A0E3           MOV      R1,#+0
   \   00000044   02002DE9           PUSH     {R1}
   \   00000048   74109FE5           LDR      R1,??InputAutorF_1  ;; ??OnEntInputAutor
   \   0000004C   02002DE9           PUSH     {R1}
   \   00000050   ........           LDR      R1,??DataTable119  ;; VAR_ARG_CALL_BACK_OK
   \   00000054   02002DE9           PUSH     {R1}
   \   00000058   0010A0E3           MOV      R1,#+0
   \   0000005C   02002DE9           PUSH     {R1}
   \   00000060   ........           LDR      R1,??DataTable120  ;; VAR_ARG_STRINP_MIN_LEN
   \   00000064   02002DE9           PUSH     {R1}
   \   00000068   1E10A0E3           MOV      R1,#+30
   \   0000006C   02002DE9           PUSH     {R1}
   \   00000070   ........           LDR      R1,??DataTable121  ;; VAR_ARG_STRINP_MAX_LEN
   \   00000074   02002DE9           PUSH     {R1}
   \   00000078   ........           LDR      R1,??DataTable122  ;; VAR_ARG_STRINP_TEXT
   \   0000007C   20002DE9           PUSH     {R5}
   \   00000080   02002DE9           PUSH     {R1}
   \   00000084   ........           LDR      R1,??DataTable123  ;; VAR_ARG_CALL_BACK_PREV_ACT
   \   00000088   01002DE9           PUSH     {R0}
   \   0000008C   ........           LDR      R0,??DataTable124  ;; VAR_ARG_STRINP_FIXED_TEXT
   \   00000090   01002DE9           PUSH     {R0}
   \   00000094   000094E5           LDR      R0,[R4, #+0]
   \   00000098   01002DE9           PUSH     {R0}
   \   0000009C   ........           LDR      R0,??DataTable125  ;; VAR_ARG_BOOK
   \   000000A0   01002DE9           PUSH     {R0}
   \   000000A4   0200A0E1           MOV      R0,R2
   \   000000A8   01002DE9           PUSH     {R0}
   \   000000AC   0000A0E3           MOV      R0,#+0
   \   000000B0   440100EF           SWI      +324
   \   000000B4   38D08DE2           ADD      SP,SP,#+56
   \   000000B8   001094E5           LDR      R1,[R4, #+0]
   \   000000BC   4C0081E5           STR      R0,[R1, #+76]
   1163          }
   \   000000C0   7080BDE8           POP      {R4-R6,PC}       ;; return
   \                     ??InputAutorF_1:
   \   000000C4   ........           DC32     ??OnEntInputAutor
   1164          

   \                                 In segment CODE, align 4, keep-with-next
   1165          void InputAlbumF()
   1166          {
   \                     ??InputAlbumF:
   \   00000000   70402DE9           PUSH     {R4-R6,LR}
   1167              TagBook->InputAlbum=CreateStringInputVA(0,
   1168                                                 VAR_PREV_ACTION_PROC(DestroyInputBooks),
   1169                                                 VAR_LONG_BACK_PROC(DestroyInputBooks),
   1170                                                 VAR_BOOK(TagBook),
   1171                                                 VAR_STRINP_FIXED_TEXT(TextID_Create(INPUT_ALBUM, ENC_UCS2, TEXTID_ANY_LEN)),
   1172                                                 VAR_STRINP_TEXT(TextID_Create(TagBook->UAlbum, ENC_UCS2, TEXTID_ANY_LEN)),
   1173                                                 VAR_STRINP_MAX_LEN(30),
   1174                                                 VAR_STRINP_MIN_LEN(0),
   1175                                                 VAR_OK_PROC(OnEntInputAlbum),
   1176                                                 0); 
   \   00000004   ........           LDR      R4,??DataTable148  ;; TagBook
   \   00000008   0010A0E3           MOV      R1,#+0
   \   0000000C   000094E5           LDR      R0,[R4, #+0]
   \   00000010   FF60A0E3           MOV      R6,#+255
   \   00000014   FC0090E5           LDR      R0,[R0, #+252]
   \   00000018   FF6C86E3           ORR      R6,R6,#0xFF00
   \   0000001C   0620A0E1           MOV      R2,R6
   \   00000020   5D0100EF           SWI      +349
   \   00000024   0050A0E1           MOV      R5,R0
   \   00000028   ........           LDR      R0,??DataTable96  ;; `?<Constant L"\\x410\\x43b\\x44c\\x431\\x43e\\x43c\\x3_1`
   \   0000002C   0620A0E1           MOV      R2,R6
   \   00000030   0010A0E3           MOV      R1,#+0
   \   00000034   5D0100EF           SWI      +349
   \   00000038   ........           LDR      R2,??DataTable117  ;; ??DestroyInputBooks
   \   0000003C   ........           LDR      R3,??DataTable118  ;; VAR_ARG_CALL_BACK_LONG_BACK
   \   00000040   0010A0E3           MOV      R1,#+0
   \   00000044   02002DE9           PUSH     {R1}
   \   00000048   74109FE5           LDR      R1,??InputAlbumF_1  ;; ??OnEntInputAlbum
   \   0000004C   02002DE9           PUSH     {R1}
   \   00000050   ........           LDR      R1,??DataTable119  ;; VAR_ARG_CALL_BACK_OK
   \   00000054   02002DE9           PUSH     {R1}
   \   00000058   0010A0E3           MOV      R1,#+0
   \   0000005C   02002DE9           PUSH     {R1}
   \   00000060   ........           LDR      R1,??DataTable120  ;; VAR_ARG_STRINP_MIN_LEN
   \   00000064   02002DE9           PUSH     {R1}
   \   00000068   1E10A0E3           MOV      R1,#+30
   \   0000006C   02002DE9           PUSH     {R1}
   \   00000070   ........           LDR      R1,??DataTable121  ;; VAR_ARG_STRINP_MAX_LEN
   \   00000074   02002DE9           PUSH     {R1}
   \   00000078   ........           LDR      R1,??DataTable122  ;; VAR_ARG_STRINP_TEXT
   \   0000007C   20002DE9           PUSH     {R5}
   \   00000080   02002DE9           PUSH     {R1}
   \   00000084   ........           LDR      R1,??DataTable123  ;; VAR_ARG_CALL_BACK_PREV_ACT
   \   00000088   01002DE9           PUSH     {R0}
   \   0000008C   ........           LDR      R0,??DataTable124  ;; VAR_ARG_STRINP_FIXED_TEXT
   \   00000090   01002DE9           PUSH     {R0}
   \   00000094   000094E5           LDR      R0,[R4, #+0]
   \   00000098   01002DE9           PUSH     {R0}
   \   0000009C   ........           LDR      R0,??DataTable125  ;; VAR_ARG_BOOK
   \   000000A0   01002DE9           PUSH     {R0}
   \   000000A4   0200A0E1           MOV      R0,R2
   \   000000A8   01002DE9           PUSH     {R0}
   \   000000AC   0000A0E3           MOV      R0,#+0
   \   000000B0   440100EF           SWI      +324
   \   000000B4   38D08DE2           ADD      SP,SP,#+56
   \   000000B8   001094E5           LDR      R1,[R4, #+0]
   \   000000BC   440081E5           STR      R0,[R1, #+68]
   1177          }
   \   000000C0   7080BDE8           POP      {R4-R6,PC}       ;; return
   \                     ??InputAlbumF_1:
   \   000000C4   ........           DC32     ??OnEntInputAlbum
   1178          

   \                                 In segment CODE, align 4, keep-with-next
   1179          void InputYearF()
   1180          {
   \                     ??InputYearF:
   \   00000000   70402DE9           PUSH     {R4-R6,LR}
   1181              TagBook->InputYear=CreateStringInputVA(0,
   1182                                                 VAR_PREV_ACTION_PROC(DestroyInputBooks),
   1183                                                 VAR_LONG_BACK_PROC(DestroyInputBooks),
   1184                                                 VAR_BOOK(TagBook),
   1185                                                 VAR_STRINP_FIXED_TEXT(TextID_Create(INPUT_YEAR, ENC_UCS2, TEXTID_ANY_LEN)),
   1186                                                 VAR_STRINP_TEXT(TextID_Create(TagBook->UYear, ENC_UCS2, TEXTID_ANY_LEN)),
   1187                                                 VAR_STRINP_MAX_LEN(4),
   1188                                                 VAR_STRINP_MIN_LEN(0),
   1189                                                 VAR_OK_PROC(OnEntInputYear),
   1190                                                 0); 
   \   00000004   ........           LDR      R4,??DataTable148  ;; TagBook
   \   00000008   0010A0E3           MOV      R1,#+0
   \   0000000C   000094E5           LDR      R0,[R4, #+0]
   \   00000010   FF60A0E3           MOV      R6,#+255
   \   00000014   240190E5           LDR      R0,[R0, #+292]
   \   00000018   FF6C86E3           ORR      R6,R6,#0xFF00
   \   0000001C   0620A0E1           MOV      R2,R6
   \   00000020   5D0100EF           SWI      +349
   \   00000024   0050A0E1           MOV      R5,R0
   \   00000028   94009FE5           LDR      R0,??InputYearF_1  ;; `?<Constant L"\\x413\\x43e\\x434\\x3a">`
   \   0000002C   0620A0E1           MOV      R2,R6
   \   00000030   0010A0E3           MOV      R1,#+0
   \   00000034   5D0100EF           SWI      +349
   \   00000038   ........           LDR      R2,??DataTable117  ;; ??DestroyInputBooks
   \   0000003C   ........           LDR      R3,??DataTable118  ;; VAR_ARG_CALL_BACK_LONG_BACK
   \   00000040   0010A0E3           MOV      R1,#+0
   \   00000044   02002DE9           PUSH     {R1}
   \   00000048   78109FE5           LDR      R1,??InputYearF_1+0x4  ;; ??OnEntInputYear
   \   0000004C   02002DE9           PUSH     {R1}
   \   00000050   ........           LDR      R1,??DataTable119  ;; VAR_ARG_CALL_BACK_OK
   \   00000054   02002DE9           PUSH     {R1}
   \   00000058   0010A0E3           MOV      R1,#+0
   \   0000005C   02002DE9           PUSH     {R1}
   \   00000060   ........           LDR      R1,??DataTable120  ;; VAR_ARG_STRINP_MIN_LEN
   \   00000064   02002DE9           PUSH     {R1}
   \   00000068   0410A0E3           MOV      R1,#+4
   \   0000006C   02002DE9           PUSH     {R1}
   \   00000070   ........           LDR      R1,??DataTable121  ;; VAR_ARG_STRINP_MAX_LEN
   \   00000074   02002DE9           PUSH     {R1}
   \   00000078   ........           LDR      R1,??DataTable122  ;; VAR_ARG_STRINP_TEXT
   \   0000007C   20002DE9           PUSH     {R5}
   \   00000080   02002DE9           PUSH     {R1}
   \   00000084   ........           LDR      R1,??DataTable123  ;; VAR_ARG_CALL_BACK_PREV_ACT
   \   00000088   01002DE9           PUSH     {R0}
   \   0000008C   ........           LDR      R0,??DataTable124  ;; VAR_ARG_STRINP_FIXED_TEXT
   \   00000090   01002DE9           PUSH     {R0}
   \   00000094   000094E5           LDR      R0,[R4, #+0]
   \   00000098   01002DE9           PUSH     {R0}
   \   0000009C   ........           LDR      R0,??DataTable125  ;; VAR_ARG_BOOK
   \   000000A0   01002DE9           PUSH     {R0}
   \   000000A4   0200A0E1           MOV      R0,R2
   \   000000A8   01002DE9           PUSH     {R0}
   \   000000AC   0000A0E3           MOV      R0,#+0
   \   000000B0   440100EF           SWI      +324
   \   000000B4   38D08DE2           ADD      SP,SP,#+56
   \   000000B8   001094E5           LDR      R1,[R4, #+0]
   \   000000BC   600081E5           STR      R0,[R1, #+96]
   1191          }
   \   000000C0   7080BDE8           POP      {R4-R6,PC}       ;; return
   \                     ??InputYearF_1:
   \   000000C4   ........           DC32     `?<Constant L"\\x413\\x43e\\x434\\x3a">`
   \   000000C8   ........           DC32     ??OnEntInputYear
   1192          

   \                                 In segment CODE, align 4, keep-with-next
   1193          void InputCommentF()
   1194          {
   \                     ??InputCommentF:
   \   00000000   70402DE9           PUSH     {R4-R6,LR}
   1195            TagBook->InputComment=CreateStringInputVA(0,
   1196                                                 VAR_PREV_ACTION_PROC(DestroyInputBooks),
   1197                                                 VAR_LONG_BACK_PROC(DestroyInputBooks),
   1198                                                 VAR_BOOK(TagBook),
   1199                                                 VAR_STRINP_FIXED_TEXT(TextID_Create(INPUT_COMMENT,ENC_UCS2, TEXTID_ANY_LEN)),
   1200                                                 VAR_STRINP_TEXT(TextID_Create(TagBook->UComment, ENC_UCS2, TEXTID_ANY_LEN)),
   1201                                                 VAR_STRINP_MAX_LEN(30),
   1202                                                 VAR_STRINP_MIN_LEN(0),
   1203                                                 VAR_OK_PROC(OnEntInputComment),
   1204                                                 0); 
   \   00000004   ........           LDR      R4,??DataTable148  ;; TagBook
   \   00000008   0010A0E3           MOV      R1,#+0
   \   0000000C   000094E5           LDR      R0,[R4, #+0]
   \   00000010   FF60A0E3           MOV      R6,#+255
   \   00000014   100190E5           LDR      R0,[R0, #+272]
   \   00000018   FF6C86E3           ORR      R6,R6,#0xFF00
   \   0000001C   0620A0E1           MOV      R2,R6
   \   00000020   5D0100EF           SWI      +349
   \   00000024   0050A0E1           MOV      R5,R0
   \   00000028   94009FE5           LDR      R0,??InputCommentF_1  ;; `?<Constant L"\\x41a\\x43e\\x43c\\x43c\\x435\\x43d\\x4_2`
   \   0000002C   0620A0E1           MOV      R2,R6
   \   00000030   0010A0E3           MOV      R1,#+0
   \   00000034   5D0100EF           SWI      +349
   \   00000038   ........           LDR      R2,??DataTable117  ;; ??DestroyInputBooks
   \   0000003C   ........           LDR      R3,??DataTable118  ;; VAR_ARG_CALL_BACK_LONG_BACK
   \   00000040   0010A0E3           MOV      R1,#+0
   \   00000044   02002DE9           PUSH     {R1}
   \   00000048   78109FE5           LDR      R1,??InputCommentF_1+0x4  ;; ??OnEntInputComment
   \   0000004C   02002DE9           PUSH     {R1}
   \   00000050   ........           LDR      R1,??DataTable119  ;; VAR_ARG_CALL_BACK_OK
   \   00000054   02002DE9           PUSH     {R1}
   \   00000058   0010A0E3           MOV      R1,#+0
   \   0000005C   02002DE9           PUSH     {R1}
   \   00000060   ........           LDR      R1,??DataTable120  ;; VAR_ARG_STRINP_MIN_LEN
   \   00000064   02002DE9           PUSH     {R1}
   \   00000068   1E10A0E3           MOV      R1,#+30
   \   0000006C   02002DE9           PUSH     {R1}
   \   00000070   ........           LDR      R1,??DataTable121  ;; VAR_ARG_STRINP_MAX_LEN
   \   00000074   02002DE9           PUSH     {R1}
   \   00000078   ........           LDR      R1,??DataTable122  ;; VAR_ARG_STRINP_TEXT
   \   0000007C   20002DE9           PUSH     {R5}
   \   00000080   02002DE9           PUSH     {R1}
   \   00000084   ........           LDR      R1,??DataTable123  ;; VAR_ARG_CALL_BACK_PREV_ACT
   \   00000088   01002DE9           PUSH     {R0}
   \   0000008C   ........           LDR      R0,??DataTable124  ;; VAR_ARG_STRINP_FIXED_TEXT
   \   00000090   01002DE9           PUSH     {R0}
   \   00000094   000094E5           LDR      R0,[R4, #+0]
   \   00000098   01002DE9           PUSH     {R0}
   \   0000009C   ........           LDR      R0,??DataTable125  ;; VAR_ARG_BOOK
   \   000000A0   01002DE9           PUSH     {R0}
   \   000000A4   0200A0E1           MOV      R0,R2
   \   000000A8   01002DE9           PUSH     {R0}
   \   000000AC   0000A0E3           MOV      R0,#+0
   \   000000B0   440100EF           SWI      +324
   \   000000B4   38D08DE2           ADD      SP,SP,#+56
   \   000000B8   001094E5           LDR      R1,[R4, #+0]
   \   000000BC   540081E5           STR      R0,[R1, #+84]
   1205          }
   \   000000C0   7080BDE8           POP      {R4-R6,PC}       ;; return
   \                     ??InputCommentF_1:
   \   000000C4   ........           DC32     `?<Constant L"\\x41a\\x43e\\x43c\\x43c\\x435\\x43d\\x4_2`
   \   000000C8   ........           DC32     ??OnEntInputComment
   1206          

   \                                 In segment CODE, align 4, keep-with-next
   1207          void OnEntML1( BOOK* bk, GUI* )
   1208          {
   1209            int item=ListMenu_GetSelectedItem(TagBook->MenuList1);
   \                     ??OnEntML1:
   \   00000000   ........           LDR      R0,??DataTable148  ;; TagBook
   \   00000004   00402DE9           PUSH     {LR}
   \   00000008   000090E5           LDR      R0,[R0, #+0]
   \   0000000C   700090E5           LDR      R0,[R0, #+112]
   \   00000010   3E0100EF           SWI      +318
   1210            if(item==0)
   \   00000014   000050E3           CMP      R0,#+0
   \   00000018   0100001A           BNE      ??OnEntML1_1
   1211            {
   1212              InputTitleF();
   \   0000001C   ........           BL       ??InputTitleF
   \   00000020   0080BDE8           POP      {PC}
   1213            }
   1214            if(item==1)
   \                     ??OnEntML1_1:
   \   00000024   010050E3           CMP      R0,#+1
   \   00000028   0100001A           BNE      ??OnEntML1_2
   1215            {
   1216              InputAutorF();
   \   0000002C   ........           BL       ??InputAutorF
   \   00000030   0080BDE8           POP      {PC}
   1217            }
   1218            if(item==2)
   \                     ??OnEntML1_2:
   \   00000034   020050E3           CMP      R0,#+2
   \   00000038   0100001A           BNE      ??OnEntML1_3
   1219            {
   1220              InputAlbumF();
   \   0000003C   ........           BL       ??InputAlbumF
   \   00000040   0080BDE8           POP      {PC}
   1221            }
   1222            if(item==3){
   \                     ??OnEntML1_3:
   \   00000044   030050E3           CMP      R0,#+3
   \   00000048   0100001A           BNE      ??OnEntML1_4
   1223              InputYearF();
   \   0000004C   ........           BL       ??InputYearF
   \   00000050   0080BDE8           POP      {PC}
   1224            }
   1225            if(item==4){
   \                     ??OnEntML1_4:
   \   00000054   040050E3           CMP      R0,#+4
   \   00000058   0100001A           BNE      ??OnEntML1_5
   1226              InputCommentF();
   \   0000005C   ........           BL       ??InputCommentF
   \   00000060   0080BDE8           POP      {PC}
   1227            }
   1228            if(item==5){
   \                     ??OnEntML1_5:
   \   00000064   050050E3           CMP      R0,#+5
   \   00000068   0080BD18           POPNE    {PC}
   1229              MGList();
   \   0000006C   ........           BL       ??MGList
   1230            }
   1231          }
   \   00000070   0080BDE8           POP      {PC}             ;; return
   1232          

   \                                 In segment CODE, align 4, keep-with-next
   1233          void ExitML1( BOOK*, GUI* )
   1234          {
   \                     ??ExitML1:
   \   00000000   10402DE9           PUSH     {R4,LR}
   1235            GUIObject_Destroy(TagBook->MenuList1);
   \   00000004   ........           LDR      R4,??DataTable148  ;; TagBook
   \   00000008   000094E5           LDR      R0,[R4, #+0]
   \   0000000C   700090E5           LDR      R0,[R0, #+112]
   \   00000010   CE0100EF           SWI      +462
   1236            TagBook->MenuList1=0;
   \   00000014   000094E5           LDR      R0,[R4, #+0]
   \   00000018   0010A0E3           MOV      R1,#+0
   \   0000001C   701080E5           STR      R1,[R0, #+112]
   1237            CreateGlavMenu(0);
   \   00000020   0000A0E3           MOV      R0,#+0
   \   00000024   1040BDE8           POP      {R4,LR}          ;; Pop
   \   00000028   ........           B        ??CreateGlavMenu  ;; tailcall
   1238          }
   1239          

   \                                 In segment CODE, align 4, keep-with-next
   1240          int SetTitleML1(GUI_MESSAGE * msg)
   1241          {
   \                     ??SetTitleML1:
   \   00000000   F0412DE9           PUSH     {R4-R8,LR}
   \   00000004   04D04DE2           SUB      SP,SP,#+4
   \   00000008   0040A0E1           MOV      R4,R0
   1242            int item;
   1243            int imgID;
   1244            switch( GUIonMessage_GetMsg(msg) )
   \   0000000C   740300EF           SWI      +884
   \   00000010   010050E3           CMP      R0,#+1
   \   00000014   9200001A           BNE      ??SetTitleML1_1
   1245            {
   1246              case 1:
   1247                item=GUIonMessage_GetCreatedItemIndex(msg);
   1248                if(item==0)
   \   00000018   ........           LDR      R5,??DataTable148  ;; TagBook
   \   0000001C   0400A0E1           MOV      R0,R4
   \   00000020   370100EF           SWI      +311
   \   00000024   0010B0E1           MOVS     R1,R0
   \   00000028   ........           LDR      R0,??DataTable129  ;; `?<Constant L"\\x41d\\x430\\x437\\x432\\x430\\x43d\\x4_1`
   \   0000002C   FF60A0E3           MOV      R6,#+255
   \   00000030   FF6C86E3           ORR      R6,R6,#0xFF00
   \   00000034   0F00001A           BNE      ??SetTitleML1_2
   1249                {
   1250                  GUIonMessage_SetMenuItemText(msg,TextID_Create(MENU_ITEM_TEXT_TITLE,ENC_UCS2,TEXTID_ANY_LEN));
   \   00000038   0620A0E1           MOV      R2,R6
   \   0000003C   0010A0E3           MOV      R1,#+0
   \   00000040   5D0100EF           SWI      +349
   \   00000044   0010A0E1           MOV      R1,R0
   \   00000048   0400A0E1           MOV      R0,R4
   \   0000004C   380100EF           SWI      +312
   1251                  GUIonMessage_SetMenuItemSecondLineText(msg,TextID_Create(TagBook->UTitle,ENC_UCS2,TEXTID_ANY_LEN));
   \   00000050   000095E5           LDR      R0,[R5, #+0]
   \   00000054   0620A0E1           MOV      R2,R6
   \   00000058   1C0190E5           LDR      R0,[R0, #+284]
   \   0000005C   0010A0E3           MOV      R1,#+0
   \   00000060   5D0100EF           SWI      +349
   \   00000064   0010A0E1           MOV      R1,R0
   \   00000068   0400A0E1           MOV      R0,R4
   \   0000006C   390100EF           SWI      +313
   1252                  iconidname2id(Iconr,-1,&imgID);
   \   00000070   ........           LDR      R0,??DataTable130  ;; Iconr
   \   00000074   710000EA           B        ??SetTitleML1_3
   1253                  GUIonMessage_SetMenuItemIcon(msg, 0, imgID);
   1254                }
   1255                if(item==1)
   \                     ??SetTitleML1_2:
   \   00000078   010051E3           CMP      R1,#+1
   \   0000007C   1000001A           BNE      ??SetTitleML1_4
   1256                {
   1257                  GUIonMessage_SetMenuItemText(msg,TextID_Create(MENU_ITEM_TEXT_ARTIST,ENC_UCS2,TEXTID_ANY_LEN));
   \   00000080   0620A0E1           MOV      R2,R6
   \   00000084   0010A0E3           MOV      R1,#+0
   \   00000088   140080E2           ADD      R0,R0,#+20
   \   0000008C   5D0100EF           SWI      +349
   \   00000090   0010A0E1           MOV      R1,R0
   \   00000094   0400A0E1           MOV      R0,R4
   \   00000098   380100EF           SWI      +312
   1258                  GUIonMessage_SetMenuItemSecondLineText(msg,TextID_Create(TagBook->UAutor,ENC_UCS2,TEXTID_ANY_LEN));
   \   0000009C   000095E5           LDR      R0,[R5, #+0]
   \   000000A0   0620A0E1           MOV      R2,R6
   \   000000A4   040190E5           LDR      R0,[R0, #+260]
   \   000000A8   0010A0E3           MOV      R1,#+0
   \   000000AC   5D0100EF           SWI      +349
   \   000000B0   0010A0E1           MOV      R1,R0
   \   000000B4   0400A0E1           MOV      R0,R4
   \   000000B8   390100EF           SWI      +313
   1259                  iconidname2id(Icont,-1,&imgID);
   \   000000BC   ........           LDR      R0,??DataTable131  ;; Icont
   \   000000C0   5E0000EA           B        ??SetTitleML1_3
   1260                  GUIonMessage_SetMenuItemIcon(msg, 0, imgID);
   1261                }
   1262                if(item==2)
   \                     ??SetTitleML1_4:
   \   000000C4   020051E3           CMP      R1,#+2
   \   000000C8   1000001A           BNE      ??SetTitleML1_5
   1263                {
   1264                  GUIonMessage_SetMenuItemText(msg,TextID_Create(MENU_ITEM_TEXT_ALBUM,ENC_UCS2,TEXTID_ANY_LEN));
   \   000000CC   0620A0E1           MOV      R2,R6
   \   000000D0   0010A0E3           MOV      R1,#+0
   \   000000D4   2C0080E2           ADD      R0,R0,#+44
   \   000000D8   5D0100EF           SWI      +349
   \   000000DC   0010A0E1           MOV      R1,R0
   \   000000E0   0400A0E1           MOV      R0,R4
   \   000000E4   380100EF           SWI      +312
   1265                  GUIonMessage_SetMenuItemSecondLineText(msg,TextID_Create(TagBook->UAlbum,ENC_UCS2,TEXTID_ANY_LEN));
   \   000000E8   000095E5           LDR      R0,[R5, #+0]
   \   000000EC   0620A0E1           MOV      R2,R6
   \   000000F0   FC0090E5           LDR      R0,[R0, #+252]
   \   000000F4   0010A0E3           MOV      R1,#+0
   \   000000F8   5D0100EF           SWI      +349
   \   000000FC   0010A0E1           MOV      R1,R0
   \   00000100   0400A0E1           MOV      R0,R4
   \   00000104   390100EF           SWI      +313
   1266                  iconidname2id(Icony,-1,&imgID);
   \   00000108   ........           LDR      R0,??DataTable132  ;; Icony
   \   0000010C   4B0000EA           B        ??SetTitleML1_3
   1267                  GUIonMessage_SetMenuItemIcon(msg, 0, imgID);
   1268                }
   1269                if(item==3)
   \                     ??SetTitleML1_5:
   \   00000110   030051E3           CMP      R1,#+3
   \   00000114   1000001A           BNE      ??SetTitleML1_6
   1270                {
   1271                  GUIonMessage_SetMenuItemText(msg,TextID_Create(MENU_ITEM_TEXT_YEAR,ENC_UCS2,TEXTID_ANY_LEN));
   \   00000118   0620A0E1           MOV      R2,R6
   \   0000011C   0010A0E3           MOV      R1,#+0
   \   00000120   3C0080E2           ADD      R0,R0,#+60
   \   00000124   5D0100EF           SWI      +349
   \   00000128   0010A0E1           MOV      R1,R0
   \   0000012C   0400A0E1           MOV      R0,R4
   \   00000130   380100EF           SWI      +312
   1272                  GUIonMessage_SetMenuItemSecondLineText(msg,TextID_Create(TagBook->UYear,ENC_UCS2,TEXTID_ANY_LEN));
   \   00000134   000095E5           LDR      R0,[R5, #+0]
   \   00000138   0620A0E1           MOV      R2,R6
   \   0000013C   240190E5           LDR      R0,[R0, #+292]
   \   00000140   0010A0E3           MOV      R1,#+0
   \   00000144   5D0100EF           SWI      +349
   \   00000148   0010A0E1           MOV      R1,R0
   \   0000014C   0400A0E1           MOV      R0,R4
   \   00000150   390100EF           SWI      +313
   1273                  iconidname2id(Iconu,-1,&imgID);
   \   00000154   10019FE5           LDR      R0,??SetTitleML1_7  ;; Iconu
   \   00000158   380000EA           B        ??SetTitleML1_3
   1274                  GUIonMessage_SetMenuItemIcon(msg, 0, imgID);
   1275                }
   1276                if(item==4)
   \                     ??SetTitleML1_6:
   \   0000015C   040051E3           CMP      R1,#+4
   \   00000160   1000001A           BNE      ??SetTitleML1_8
   1277                {
   1278                  GUIonMessage_SetMenuItemText(msg,TextID_Create(MENU_ITEM_TEXT_COMMENT,ENC_UCS2,TEXTID_ANY_LEN));
   \   00000164   0620A0E1           MOV      R2,R6
   \   00000168   0010A0E3           MOV      R1,#+0
   \   0000016C   440080E2           ADD      R0,R0,#+68
   \   00000170   5D0100EF           SWI      +349
   \   00000174   0010A0E1           MOV      R1,R0
   \   00000178   0400A0E1           MOV      R0,R4
   \   0000017C   380100EF           SWI      +312
   1279                  GUIonMessage_SetMenuItemSecondLineText(msg,TextID_Create(TagBook->UComment,ENC_UCS2,TEXTID_ANY_LEN));
   \   00000180   000095E5           LDR      R0,[R5, #+0]
   \   00000184   0620A0E1           MOV      R2,R6
   \   00000188   100190E5           LDR      R0,[R0, #+272]
   \   0000018C   0010A0E3           MOV      R1,#+0
   \   00000190   5D0100EF           SWI      +349
   \   00000194   0010A0E1           MOV      R1,R0
   \   00000198   0400A0E1           MOV      R0,R4
   \   0000019C   390100EF           SWI      +313
   1280                  iconidname2id(Iconi,-1,&imgID);
   \   000001A0   C8009FE5           LDR      R0,??SetTitleML1_7+0x4  ;; Iconi
   \   000001A4   250000EA           B        ??SetTitleML1_3
   1281                  GUIonMessage_SetMenuItemIcon(msg, 0, imgID);
   1282                }
   1283                if(item==5)
   \                     ??SetTitleML1_8:
   \   000001A8   050051E3           CMP      R1,#+5
   \   000001AC   2C00001A           BNE      ??SetTitleML1_1
   1284                {
   1285                  GUIonMessage_SetMenuItemText(msg,TextID_Create(MENU_ITEM_TEXT_GENRE,ENC_UCS2,TEXTID_ANY_LEN));
   \   000001B0   0620A0E1           MOV      R2,R6
   \   000001B4   0010A0E3           MOV      R1,#+0
   \   000001B8   5C0080E2           ADD      R0,R0,#+92
   \   000001BC   5D0100EF           SWI      +349
   \   000001C0   0010A0E1           MOV      R1,R0
   \   000001C4   0400A0E1           MOV      R0,R4
   \   000001C8   380100EF           SWI      +312
   1286                  TagBook->UGenre=new wchar_t[strlen(GetGenre(TagBook->genre))+1];
   \   000001CC   000095E5           LDR      R0,[R5, #+0]
   \   000001D0   7C0090E5           LDR      R0,[R0, #+124]
   \   000001D4   ........           BL       ??GetGenre
   \   000001D8   5A0100EF           SWI      +346
   \   000001DC   010080E2           ADD      R0,R0,#+1
   \   000001E0   8000A0E1           LSL      R0,R0,#+1
   \   000001E4   ........           _BLF     `??operator new[]`,`??operator new[]??rA`
   \   000001E8   001095E5           LDR      R1,[R5, #+0]
   \   000001EC   140181E5           STR      R0,[R1, #+276]
   1287                  win12512unicode(TagBook->UGenre,GetGenre(TagBook->genre),strlen(GetGenre(TagBook->genre))+1);
   \   000001F0   7C0091E5           LDR      R0,[R1, #+124]
   \   000001F4   ........           BL       ??GetGenre
   \   000001F8   5A0100EF           SWI      +346
   \   000001FC   008095E5           LDR      R8,[R5, #+0]
   \   00000200   0070A0E1           MOV      R7,R0
   \   00000204   7C0098E5           LDR      R0,[R8, #+124]
   \   00000208   ........           BL       ??GetGenre
   \   0000020C   012087E2           ADD      R2,R7,#+1
   \   00000210   0010A0E1           MOV      R1,R0
   \   00000214   140198E5           LDR      R0,[R8, #+276]
   \   00000218   ........           BL       ??win12512unicode
   1288                  GUIonMessage_SetMenuItemSecondLineText(msg,TextID_Create(TagBook->UGenre,ENC_UCS2,TEXTID_ANY_LEN));
   \   0000021C   000095E5           LDR      R0,[R5, #+0]
   \   00000220   0620A0E1           MOV      R2,R6
   \   00000224   140190E5           LDR      R0,[R0, #+276]
   \   00000228   0010A0E3           MOV      R1,#+0
   \   0000022C   5D0100EF           SWI      +349
   \   00000230   0010A0E1           MOV      R1,R0
   \   00000234   0400A0E1           MOV      R0,R4
   \   00000238   390100EF           SWI      +313
   1289                  iconidname2id(Icono,-1,&imgID);
   \   0000023C   30009FE5           LDR      R0,??SetTitleML1_7+0x8  ;; Icono
   \                     ??SetTitleML1_3:
   \   00000240   0D20A0E1           MOV      R2,SP
   \   00000244   0010E0E3           MVN      R1,#+0
   \   00000248   860200EF           SWI      +646
   1290                  GUIonMessage_SetMenuItemIcon(msg, 0, imgID);
   \   0000024C   00209DE5           LDR      R2,[SP, #+0]
   \   00000250   0010A0E3           MOV      R1,#+0
   \   00000254   0228A0E1           MOV      R2,R2, LSL #+16
   \   00000258   2228A0E1           MOV      R2,R2, LSR #+16
   \   0000025C   0400A0E1           MOV      R0,R4
   \   00000260   3C0100EF           SWI      +316
   1291                }
   1292            }
   1293            return(1);        
   \                     ??SetTitleML1_1:
   \   00000264   0100A0E3           MOV      R0,#+1
   \   00000268   F281BDE8           POP      {R1,R4-R8,PC}    ;; return
   \                     ??SetTitleML1_7:
   \   0000026C   ........           DC32     Iconu
   \   00000270   ........           DC32     Iconi
   \   00000274   ........           DC32     Icono
   1294          }
   1295          

   \                                 In segment CODE, align 4, keep-with-next
   1296          void PlayF1( BOOK* bk, GUI* )
   1297          {
   \                     ??PlayF1:
   \   00000000   F0402DE9           PUSH     {R4-R7,LR}
   1298            if(TagBook->PlayMode==0)
   \   00000004   ........           LDR      R4,??DataTable148  ;; TagBook
   \   00000008   ........           LDR      R7,??DataTable167  ;; `?<Constant L"\\x421\\x442\\x43e\\x43f">`
   \   0000000C   000094E5           LDR      R0,[R4, #+0]
   \   00000010   FF60A0E3           MOV      R6,#+255
   \   00000014   981090E5           LDR      R1,[R0, #+152]
   \   00000018   FF6C86E3           ORR      R6,R6,#0xFF00
   \   0000001C   4A5FA0E3           MOV      R5,#+296
   \   00000020   000051E3           CMP      R1,#+0
   \   00000024   1400001A           BNE      ??PlayF1_1
   1299            {
   1300              PlayFile(TagBook->path,TagBook->name);
   \   00000028   F01090E5           LDR      R1,[R0, #+240]
   \   0000002C   F40090E5           LDR      R0,[R0, #+244]
   \   00000030   B20100EF           SWI      +434
   1301              wstrcpy(TagBook->PlayText,SOFTKEY_STATUS_STOP);
   \   00000034   000094E5           LDR      R0,[R4, #+0]
   \   00000038   0710A0E1           MOV      R1,R7
   \   0000003C   000085E0           ADD      R0,R5,R0
   \   00000040   520100EF           SWI      +338
   1302              GUIObject_SoftKeys_SetText(TagBook->MenuList1,1,TextID_Create(TagBook->PlayText,ENC_UCS2,TEXTID_ANY_LEN));
   \   00000044   000094E5           LDR      R0,[R4, #+0]
   \   00000048   0620A0E1           MOV      R2,R6
   \   0000004C   0010A0E3           MOV      R1,#+0
   \   00000050   000085E0           ADD      R0,R5,R0
   \   00000054   5D0100EF           SWI      +349
   \   00000058   0020A0E1           MOV      R2,R0
   \   0000005C   000094E5           LDR      R0,[R4, #+0]
   \   00000060   0110A0E3           MOV      R1,#+1
   \   00000064   700090E5           LDR      R0,[R0, #+112]
   \   00000068   4C0100EF           SWI      +332
   1303              TagBook->PlayMode=1;
   \   0000006C   000094E5           LDR      R0,[R4, #+0]
   \   00000070   0110A0E3           MOV      R1,#+1
   \   00000074   981080E5           STR      R1,[R0, #+152]
   \   00000078   F080BDE8           POP      {R4-R7,PC}
   1304            }
   1305            else
   1306            {
   1307              PlaySystemSound(7);
   \                     ??PlayF1_1:
   \   0000007C   0700A0E3           MOV      R0,#+7
   \   00000080   5A0200EF           SWI      +602
   1308              wstrcpy(TagBook->PlayText,SOFTKEY_STATUS_PLAY);
   \   00000084   000094E5           LDR      R0,[R4, #+0]
   \   00000088   0C1087E2           ADD      R1,R7,#+12
   \   0000008C   000085E0           ADD      R0,R5,R0
   \   00000090   520100EF           SWI      +338
   1309              GUIObject_SoftKeys_SetText(TagBook->MenuList1,1,TextID_Create(TagBook->PlayText,ENC_UCS2,TEXTID_ANY_LEN));
   \   00000094   000094E5           LDR      R0,[R4, #+0]
   \   00000098   0620A0E1           MOV      R2,R6
   \   0000009C   0010A0E3           MOV      R1,#+0
   \   000000A0   000085E0           ADD      R0,R5,R0
   \   000000A4   5D0100EF           SWI      +349
   \   000000A8   0020A0E1           MOV      R2,R0
   \   000000AC   000094E5           LDR      R0,[R4, #+0]
   \   000000B0   0110A0E3           MOV      R1,#+1
   \   000000B4   700090E5           LDR      R0,[R0, #+112]
   \   000000B8   4C0100EF           SWI      +332
   1310              TagBook->PlayMode=0;
   \   000000BC   000094E5           LDR      R0,[R4, #+0]
   \   000000C0   0010A0E3           MOV      R1,#+0
   \   000000C4   981080E5           STR      R1,[R0, #+152]
   1311            }
   1312          }
   \   000000C8   F080BDE8           POP      {R4-R7,PC}       ;; return
   1313          

   \                                 In segment CODE, align 4, keep-with-next
   1314          void DeleteTag1(int x)
   1315          {
   \                     ??DeleteTag1:
   \   00000000   10402DE9           PUSH     {R4,LR}
   \   00000004   0040B0E1           MOVS     R4,R0
   1316            int i;
   1317            if(x==0)
   \   00000008   0000A0E3           MOV      R0,#+0
   \   0000000C   0900001A           BNE      ??DeleteTag1_1
   1318            {
   1319              for(i=0; i<=29; i++)
   \   00000010   0010A0E3           MOV      R1,#+0
   1320              {
   1321                TagBook->UTitle[i]=0;
   \                     ??DeleteTag1_2:
   \   00000014   ........           LDR      R2,??DataTable148  ;; TagBook
   \   00000018   002092E5           LDR      R2,[R2, #+0]
   \   0000001C   1C2192E5           LDR      R2,[R2, #+284]
   \   00000020   812082E0           ADD      R2,R2,R1, LSL #+1
   \   00000024   B000C2E1           STRH     R0,[R2, #+0]
   1322              }
   \   00000028   011081E2           ADD      R1,R1,#+1
   \   0000002C   1E0051E3           CMP      R1,#+30
   \   00000030   2F0000AA           BGE      ??DeleteTag1_3
   \   00000034   F6FFFFEA           B        ??DeleteTag1_2
   1323            }
   1324            if(x==1)
   \                     ??DeleteTag1_1:
   \   00000038   010054E3           CMP      R4,#+1
   \   0000003C   0900001A           BNE      ??DeleteTag1_4
   1325            {
   1326              for(i=0; i<=29; i++)
   \   00000040   0010A0E3           MOV      R1,#+0
   1327              {
   1328                TagBook->UAutor[i]=0;
   \                     ??DeleteTag1_5:
   \   00000044   ........           LDR      R2,??DataTable148  ;; TagBook
   \   00000048   002092E5           LDR      R2,[R2, #+0]
   \   0000004C   042192E5           LDR      R2,[R2, #+260]
   \   00000050   812082E0           ADD      R2,R2,R1, LSL #+1
   \   00000054   B000C2E1           STRH     R0,[R2, #+0]
   1329              }
   \   00000058   011081E2           ADD      R1,R1,#+1
   \   0000005C   1E0051E3           CMP      R1,#+30
   \   00000060   230000AA           BGE      ??DeleteTag1_3
   \   00000064   F6FFFFEA           B        ??DeleteTag1_5
   1330            }
   1331            if(x==2)
   \                     ??DeleteTag1_4:
   \   00000068   020054E3           CMP      R4,#+2
   \   0000006C   0900001A           BNE      ??DeleteTag1_6
   1332            {
   1333              for(i=0; i<=29; i++)
   \   00000070   0010A0E3           MOV      R1,#+0
   1334              {
   1335                TagBook->UAlbum[i]=0;
   \                     ??DeleteTag1_7:
   \   00000074   ........           LDR      R2,??DataTable148  ;; TagBook
   \   00000078   002092E5           LDR      R2,[R2, #+0]
   \   0000007C   FC2092E5           LDR      R2,[R2, #+252]
   \   00000080   812082E0           ADD      R2,R2,R1, LSL #+1
   \   00000084   B000C2E1           STRH     R0,[R2, #+0]
   1336              }
   \   00000088   011081E2           ADD      R1,R1,#+1
   \   0000008C   1E0051E3           CMP      R1,#+30
   \   00000090   170000AA           BGE      ??DeleteTag1_3
   \   00000094   F6FFFFEA           B        ??DeleteTag1_7
   1337            }
   1338            if(x==3)
   \                     ??DeleteTag1_6:
   \   00000098   030054E3           CMP      R4,#+3
   \   0000009C   0900001A           BNE      ??DeleteTag1_8
   1339            {
   1340              for(i=0; i<=3; i++)
   \   000000A0   0010A0E3           MOV      R1,#+0
   1341              {
   1342                TagBook->UYear[i]=0;
   \                     ??DeleteTag1_9:
   \   000000A4   ........           LDR      R2,??DataTable148  ;; TagBook
   \   000000A8   002092E5           LDR      R2,[R2, #+0]
   \   000000AC   242192E5           LDR      R2,[R2, #+292]
   \   000000B0   812082E0           ADD      R2,R2,R1, LSL #+1
   \   000000B4   B000C2E1           STRH     R0,[R2, #+0]
   1343              }
   \   000000B8   011081E2           ADD      R1,R1,#+1
   \   000000BC   040051E3           CMP      R1,#+4
   \   000000C0   0B0000AA           BGE      ??DeleteTag1_3
   \   000000C4   F6FFFFEA           B        ??DeleteTag1_9
   1344            }
   1345            if(x==4)
   \                     ??DeleteTag1_8:
   \   000000C8   040054E3           CMP      R4,#+4
   \   000000CC   0800001A           BNE      ??DeleteTag1_3
   1346            {
   1347              for(i=0; i<=29; i++)
   \   000000D0   0010A0E3           MOV      R1,#+0
   1348              {
   1349                TagBook->UComment[i]=0;
   \                     ??DeleteTag1_10:
   \   000000D4   ........           LDR      R2,??DataTable148  ;; TagBook
   \   000000D8   002092E5           LDR      R2,[R2, #+0]
   \   000000DC   102192E5           LDR      R2,[R2, #+272]
   \   000000E0   812082E0           ADD      R2,R2,R1, LSL #+1
   \   000000E4   B000C2E1           STRH     R0,[R2, #+0]
   1350              }
   \   000000E8   011081E2           ADD      R1,R1,#+1
   \   000000EC   1E0051E3           CMP      R1,#+30
   \   000000F0   F7FFFFBA           BLT      ??DeleteTag1_10
   1351            }
   1352            TagBook->change++;
   \                     ??DeleteTag1_3:
   \   000000F4   ........           LDR      R0,??DataTable148  ;; TagBook
   \   000000F8   000090E5           LDR      R0,[R0, #+0]
   \   000000FC   781090E5           LDR      R1,[R0, #+120]
   \   00000100   011081E2           ADD      R1,R1,#+1
   \   00000104   781080E5           STR      R1,[R0, #+120]
   1353            if(TagBook->MenuList1) GUIObject_Destroy(TagBook->MenuList1);
   \   00000108   700090E5           LDR      R0,[R0, #+112]
   \   0000010C   000050E3           CMP      R0,#+0
   \   00000110   0000000A           BEQ      ??DeleteTag1_11
   \   00000114   CE0100EF           SWI      +462
   1354            CreateML1(x);
   \                     ??DeleteTag1_11:
   \   00000118   0400A0E1           MOV      R0,R4
   \   0000011C   ........           BL       ??CreateML1
   1355          }
   \   00000120   1080BDE8           POP      {R4,PC}          ;; return
   1356          

   \                                 In segment CODE, align 4, keep-with-next
   1357          void CopyFromName1(int x)
   1358          {
   \                     ??CopyFromName1:
   \   00000000   70402DE9           PUSH     {R4-R6,LR}
   1359            int i;
   1360            if(x==0)
   \   00000004   ........           LDR      R5,??DataTable148  ;; TagBook
   \   00000008   0040B0E1           MOVS     R4,R0
   \   0000000C   000095E5           LDR      R0,[R5, #+0]
   \   00000010   0060A0E3           MOV      R6,#+0
   \   00000014   F00090E5           LDR      R0,[R0, #+240]
   \   00000018   1000001A           BNE      ??CopyFromName1_1
   1361            {
   1362              int len=wstrlen(TagBook->name);
   \   0000001C   570100EF           SWI      +343
   1363              for(i=0; i<=29; i++)
   \   00000020   0010A0E3           MOV      R1,#+0
   \   00000024   030000EA           B        ??CopyFromName1_2
   1364              {
   1365                if(i<len)
   1366                {
   1367                  TagBook->UTitle[i]=TagBook->name[i];
   1368                }
   1369                else
   1370                {
   1371                  TagBook->UTitle[i]=0;
   \                     ??CopyFromName1_3:
   \   00000028   B060C2E1           STRH     R6,[R2, #+0]
   1372                }
   \                     ??CopyFromName1_4:
   \   0000002C   011081E2           ADD      R1,R1,#+1
   \   00000030   1E0051E3           CMP      R1,#+30
   \   00000034   2E0000AA           BGE      ??CopyFromName1_5
   \                     ??CopyFromName1_2:
   \   00000038   003095E5           LDR      R3,[R5, #+0]
   \   0000003C   000051E1           CMP      R1,R0
   \   00000040   1C2193E5           LDR      R2,[R3, #+284]
   \   00000044   812082E0           ADD      R2,R2,R1, LSL #+1
   \   00000048   F6FFFFAA           BGE      ??CopyFromName1_3
   \   0000004C   F03093E5           LDR      R3,[R3, #+240]
   \   00000050   813083E0           ADD      R3,R3,R1, LSL #+1
   \   00000054   B030D3E1           LDRH     R3,[R3, #+0]
   \   00000058   B030C2E1           STRH     R3,[R2, #+0]
   \   0000005C   F2FFFFEA           B        ??CopyFromName1_4
   1373              }
   1374            }
   1375            if(x==1)
   \                     ??CopyFromName1_1:
   \   00000060   010054E3           CMP      R4,#+1
   \   00000064   1000001A           BNE      ??CopyFromName1_6
   1376            {
   1377              int len=wstrlen(TagBook->name);
   \   00000068   570100EF           SWI      +343
   1378              for(i=0; i<=29; i++)
   \   0000006C   0010A0E3           MOV      R1,#+0
   \   00000070   030000EA           B        ??CopyFromName1_7
   1379              {
   1380                if(i<len)
   1381                {
   1382                  TagBook->UAutor[i]=TagBook->name[i];
   1383                }
   1384                else
   1385                {
   1386                  TagBook->UAutor[i]=0;
   \                     ??CopyFromName1_8:
   \   00000074   B060C2E1           STRH     R6,[R2, #+0]
   1387                }
   \                     ??CopyFromName1_9:
   \   00000078   011081E2           ADD      R1,R1,#+1
   \   0000007C   1E0051E3           CMP      R1,#+30
   \   00000080   1B0000AA           BGE      ??CopyFromName1_5
   \                     ??CopyFromName1_7:
   \   00000084   003095E5           LDR      R3,[R5, #+0]
   \   00000088   000051E1           CMP      R1,R0
   \   0000008C   042193E5           LDR      R2,[R3, #+260]
   \   00000090   812082E0           ADD      R2,R2,R1, LSL #+1
   \   00000094   F6FFFFAA           BGE      ??CopyFromName1_8
   \   00000098   F03093E5           LDR      R3,[R3, #+240]
   \   0000009C   813083E0           ADD      R3,R3,R1, LSL #+1
   \   000000A0   B030D3E1           LDRH     R3,[R3, #+0]
   \   000000A4   B030C2E1           STRH     R3,[R2, #+0]
   \   000000A8   F2FFFFEA           B        ??CopyFromName1_9
   1388              }
   1389            }
   1390            if(x==2)
   \                     ??CopyFromName1_6:
   \   000000AC   020054E3           CMP      R4,#+2
   \   000000B0   0F00001A           BNE      ??CopyFromName1_5
   1391            {
   1392              int len=wstrlen(TagBook->name);
   \   000000B4   570100EF           SWI      +343
   1393              for(i=0; i<=29; i++)
   \   000000B8   0010A0E3           MOV      R1,#+0
   1394              {
   1395                if(i<len)
   \                     ??CopyFromName1_10:
   \   000000BC   002095E5           LDR      R2,[R5, #+0]
   \   000000C0   000051E1           CMP      R1,R0
   \   000000C4   FC3092E5           LDR      R3,[R2, #+252]
   \   000000C8   813083E0           ADD      R3,R3,R1, LSL #+1
   \   000000CC   040000AA           BGE      ??CopyFromName1_11
   1396                {
   1397                  TagBook->UAlbum[i]=TagBook->name[i];
   \   000000D0   F02092E5           LDR      R2,[R2, #+240]
   \   000000D4   812082E0           ADD      R2,R2,R1, LSL #+1
   \   000000D8   B020D2E1           LDRH     R2,[R2, #+0]
   \   000000DC   B020C3E1           STRH     R2,[R3, #+0]
   \   000000E0   000000EA           B        ??CopyFromName1_12
   1398                }
   1399                else
   1400                {
   1401                  TagBook->UAlbum[i]=0;
   \                     ??CopyFromName1_11:
   \   000000E4   B060C3E1           STRH     R6,[R3, #+0]
   1402                }
   1403              }
   \                     ??CopyFromName1_12:
   \   000000E8   011081E2           ADD      R1,R1,#+1
   \   000000EC   1E0051E3           CMP      R1,#+30
   \   000000F0   F1FFFFBA           BLT      ??CopyFromName1_10
   1404            }
   1405            TagBook->change++;
   \                     ??CopyFromName1_5:
   \   000000F4   000095E5           LDR      R0,[R5, #+0]
   \   000000F8   781090E5           LDR      R1,[R0, #+120]
   \   000000FC   011081E2           ADD      R1,R1,#+1
   \   00000100   781080E5           STR      R1,[R0, #+120]
   1406            if(TagBook->MenuList1) GUIObject_Destroy(TagBook->MenuList1);
   \   00000104   700090E5           LDR      R0,[R0, #+112]
   \   00000108   000050E3           CMP      R0,#+0
   \   0000010C   0000000A           BEQ      ??CopyFromName1_13
   \   00000110   CE0100EF           SWI      +462
   1407            CreateML1(x);
   \                     ??CopyFromName1_13:
   \   00000114   0400A0E1           MOV      R0,R4
   \   00000118   ........           BL       ??CreateML1
   1408          }
   \   0000011C   7080BDE8           POP      {R4-R6,PC}       ;; return
   1409          

   \                                 In segment CODE, align 4, keep-with-next
   1410          void CopyFromID3v2(int x)
   1411          {
   \                     ??CopyFromID3v2:
   \   00000000   70402DE9           PUSH     {R4-R6,LR}
   1412            int i;
   1413            if(x==0)
   \   00000004   ........           LDR      R5,??DataTable148  ;; TagBook
   \   00000008   0040B0E1           MOVS     R4,R0
   \   0000000C   000095E5           LDR      R0,[R5, #+0]
   \   00000010   0060A0E3           MOV      R6,#+0
   \   00000014   1100001A           BNE      ??CopyFromID3v2_1
   1414            {
   1415              int len=wstrlen(TagBook->UTitle2);
   \   00000018   200190E5           LDR      R0,[R0, #+288]
   \   0000001C   570100EF           SWI      +343
   1416              for(i=0; i<=29; i++)
   \   00000020   0010A0E3           MOV      R1,#+0
   \   00000024   030000EA           B        ??CopyFromID3v2_2
   1417              {
   1418                if(i<len)
   1419                {
   1420                  TagBook->UTitle[i]=TagBook->UTitle2[i];
   1421                }
   1422                else
   1423                {
   1424                  TagBook->UTitle[i]=0;
   \                     ??CopyFromID3v2_3:
   \   00000028   B060C2E1           STRH     R6,[R2, #+0]
   1425                }
   \                     ??CopyFromID3v2_4:
   \   0000002C   011081E2           ADD      R1,R1,#+1
   \   00000030   1E0051E3           CMP      R1,#+30
   \   00000034   300000AA           BGE      ??CopyFromID3v2_5
   \                     ??CopyFromID3v2_2:
   \   00000038   003095E5           LDR      R3,[R5, #+0]
   \   0000003C   000051E1           CMP      R1,R0
   \   00000040   1C2193E5           LDR      R2,[R3, #+284]
   \   00000044   812082E0           ADD      R2,R2,R1, LSL #+1
   \   00000048   F6FFFFAA           BGE      ??CopyFromID3v2_3
   \   0000004C   203193E5           LDR      R3,[R3, #+288]
   \   00000050   813083E0           ADD      R3,R3,R1, LSL #+1
   \   00000054   B030D3E1           LDRH     R3,[R3, #+0]
   \   00000058   B030C2E1           STRH     R3,[R2, #+0]
   \   0000005C   F2FFFFEA           B        ??CopyFromID3v2_4
   1426              }
   1427            }
   1428            if(x==1)
   \                     ??CopyFromID3v2_1:
   \   00000060   010054E3           CMP      R4,#+1
   \   00000064   1100001A           BNE      ??CopyFromID3v2_6
   1429            {
   1430              int len=wstrlen(TagBook->UAutor2);
   \   00000068   080190E5           LDR      R0,[R0, #+264]
   \   0000006C   570100EF           SWI      +343
   1431              for(i=0; i<=29; i++)
   \   00000070   0010A0E3           MOV      R1,#+0
   \   00000074   030000EA           B        ??CopyFromID3v2_7
   1432              {
   1433                if(i<len)
   1434                {
   1435                  TagBook->UAutor[i]=TagBook->UAutor2[i];
   1436                }
   1437                else
   1438                {
   1439                  TagBook->UAutor[i]=0;
   \                     ??CopyFromID3v2_8:
   \   00000078   B060C2E1           STRH     R6,[R2, #+0]
   1440                }
   \                     ??CopyFromID3v2_9:
   \   0000007C   011081E2           ADD      R1,R1,#+1
   \   00000080   1E0051E3           CMP      R1,#+30
   \   00000084   1C0000AA           BGE      ??CopyFromID3v2_5
   \                     ??CopyFromID3v2_7:
   \   00000088   003095E5           LDR      R3,[R5, #+0]
   \   0000008C   000051E1           CMP      R1,R0
   \   00000090   042193E5           LDR      R2,[R3, #+260]
   \   00000094   812082E0           ADD      R2,R2,R1, LSL #+1
   \   00000098   F6FFFFAA           BGE      ??CopyFromID3v2_8
   \   0000009C   083193E5           LDR      R3,[R3, #+264]
   \   000000A0   813083E0           ADD      R3,R3,R1, LSL #+1
   \   000000A4   B030D3E1           LDRH     R3,[R3, #+0]
   \   000000A8   B030C2E1           STRH     R3,[R2, #+0]
   \   000000AC   F2FFFFEA           B        ??CopyFromID3v2_9
   1441              }
   1442            }
   1443            if(x==2)
   \                     ??CopyFromID3v2_6:
   \   000000B0   020054E3           CMP      R4,#+2
   \   000000B4   1000001A           BNE      ??CopyFromID3v2_5
   1444            {
   1445              int len=wstrlen(TagBook->UAlbum2);
   \   000000B8   000190E5           LDR      R0,[R0, #+256]
   \   000000BC   570100EF           SWI      +343
   1446              for(i=0; i<=29; i++)
   \   000000C0   0010A0E3           MOV      R1,#+0
   1447              {
   1448                if(i<len)
   \                     ??CopyFromID3v2_10:
   \   000000C4   002095E5           LDR      R2,[R5, #+0]
   \   000000C8   000051E1           CMP      R1,R0
   \   000000CC   FC3092E5           LDR      R3,[R2, #+252]
   \   000000D0   813083E0           ADD      R3,R3,R1, LSL #+1
   \   000000D4   040000AA           BGE      ??CopyFromID3v2_11
   1449                {
   1450                  TagBook->UAlbum[i]=TagBook->UAlbum2[i];
   \   000000D8   002192E5           LDR      R2,[R2, #+256]
   \   000000DC   812082E0           ADD      R2,R2,R1, LSL #+1
   \   000000E0   B020D2E1           LDRH     R2,[R2, #+0]
   \   000000E4   B020C3E1           STRH     R2,[R3, #+0]
   \   000000E8   000000EA           B        ??CopyFromID3v2_12
   1451                }
   1452                else
   1453                {
   1454                  TagBook->UAlbum[i]=0;
   \                     ??CopyFromID3v2_11:
   \   000000EC   B060C3E1           STRH     R6,[R3, #+0]
   1455                }
   1456              }
   \                     ??CopyFromID3v2_12:
   \   000000F0   011081E2           ADD      R1,R1,#+1
   \   000000F4   1E0051E3           CMP      R1,#+30
   \   000000F8   F1FFFFBA           BLT      ??CopyFromID3v2_10
   1457            }
   1458            TagBook->change++;
   \                     ??CopyFromID3v2_5:
   \   000000FC   000095E5           LDR      R0,[R5, #+0]
   \   00000100   781090E5           LDR      R1,[R0, #+120]
   \   00000104   011081E2           ADD      R1,R1,#+1
   \   00000108   781080E5           STR      R1,[R0, #+120]
   1459            if(TagBook->MenuList1) GUIObject_Destroy(TagBook->MenuList1);
   \   0000010C   700090E5           LDR      R0,[R0, #+112]
   \   00000110   000050E3           CMP      R0,#+0
   \   00000114   0000000A           BEQ      ??CopyFromID3v2_13
   \   00000118   CE0100EF           SWI      +462
   1460            CreateML1(x);
   \                     ??CopyFromID3v2_13:
   \   0000011C   0400A0E1           MOV      R0,R4
   \   00000120   ........           BL       ??CreateML1
   1461          }
   \   00000124   7080BDE8           POP      {R4-R6,PC}       ;; return
   1462                
   1463            
   1464          

   \                                 In segment CODE, align 4, keep-with-next
   1465          void NewKey1(DISP_OBJ* p, int i1, int i2, int i3, int i4)
   1466          {
   \                     ??NewKey1:
   \   00000000   F0412DE9           PUSH     {R4-R8,LR}
   \   00000004   18509DE5           LDR      R5,[SP, #+24]
   1467            TagBook->OldKey1(p, i1, i2, i3, i4);
   \   00000008   ........           LDR      R6,??DataTable148  ;; TagBook
   \   0000000C   0140A0E1           MOV      R4,R1
   \   00000010   0510A0E1           MOV      R1,R5
   \   00000014   02002DE9           PUSH     {R1}
   \   00000018   007096E5           LDR      R7,[R6, #+0]
   \   0000001C   0410A0E1           MOV      R1,R4
   \   00000020   E87097E5           LDR      R7,[R7, #+232]
   \   00000024   37FF2FE1           BLX      R7
   1468            if(i4==KBD_SHORT_RELEASE && i1==KEY_DEL)
   \   00000028   ........           LDR      R0,??DataTable172  ;; KEY_DIGITAL_0
   \   0000002C   008090E5           LDR      R8,[R0, #+0]
   \   00000030   ........           LDR      R0,??DataTable170  ;; KBD_SHORT_RELEASE
   \   00000034   0B7088E2           ADD      R7,R8,#+11
   \   00000038   000090E5           LDR      R0,[R0, #+0]
   \   0000003C   04D08DE2           ADD      SP,SP,#+4
   \   00000040   000055E1           CMP      R5,R0
   \   00000044   3000001A           BNE      ??NewKey1_1
   \   00000048   ........           LDR      R0,??DataTable171  ;; KEY_DEL
   \   0000004C   000090E5           LDR      R0,[R0, #+0]
   \   00000050   000054E1           CMP      R4,R0
   \   00000054   0500001A           BNE      ??NewKey1_2
   1469            {
   1470              int sel=ListMenu_GetSelectedItem(TagBook->MenuList1);
   \   00000058   000096E5           LDR      R0,[R6, #+0]
   \   0000005C   700090E5           LDR      R0,[R0, #+112]
   \   00000060   3E0100EF           SWI      +318
   1471              if(sel<=4)
   \   00000064   050050E3           CMP      R0,#+5
   \   00000068   000000AA           BGE      ??NewKey1_2
   1472              {
   1473                DeleteTag1(sel);
   \   0000006C   ........           BL       ??DeleteTag1
   \                     ??NewKey1_2:
   \   00000070   080054E1           CMP      R4,R8
   \   00000074   0200001A           BNE      ??NewKey1_3
   1474              }
   1475            }
   1476            if(i4==KBD_SHORT_RELEASE && i1==KEY_DIGITAL_0)
   1477            {
   1478              PlayF1((BOOK*)TagBook,0);
   \   00000078   000096E5           LDR      R0,[R6, #+0]
   \   0000007C   0010A0E3           MOV      R1,#+0
   \   00000080   ........           BL       ??PlayF1
   \                     ??NewKey1_3:
   \   00000084   010088E2           ADD      R0,R8,#+1
   \   00000088   000054E1           CMP      R4,R0
   \   0000008C   0000001A           BNE      ??NewKey1_4
   1479            }
   1480            if(i4==KBD_SHORT_RELEASE && i1==(KEY_DIGITAL_0+1))
   1481            {
   1482              InputTitleF();
   \   00000090   ........           BL       ??InputTitleF
   \                     ??NewKey1_4:
   \   00000094   020088E2           ADD      R0,R8,#+2
   \   00000098   000054E1           CMP      R4,R0
   \   0000009C   0000001A           BNE      ??NewKey1_5
   1483            }
   1484            if(i4==KBD_SHORT_RELEASE && i1==(KEY_DIGITAL_0+2))
   1485            {
   1486              InputAutorF();
   \   000000A0   ........           BL       ??InputAutorF
   \                     ??NewKey1_5:
   \   000000A4   030088E2           ADD      R0,R8,#+3
   \   000000A8   000054E1           CMP      R4,R0
   \   000000AC   0000001A           BNE      ??NewKey1_6
   1487            }
   1488            if(i4==KBD_SHORT_RELEASE && i1==(KEY_DIGITAL_0+3))
   1489            {
   1490              InputAlbumF();
   \   000000B0   ........           BL       ??InputAlbumF
   \                     ??NewKey1_6:
   \   000000B4   040088E2           ADD      R0,R8,#+4
   \   000000B8   000054E1           CMP      R4,R0
   \   000000BC   0000001A           BNE      ??NewKey1_7
   1491            }
   1492            if(i4==KBD_SHORT_RELEASE && i1==(KEY_DIGITAL_0+4))
   1493            {
   1494              InputYearF();
   \   000000C0   ........           BL       ??InputYearF
   \                     ??NewKey1_7:
   \   000000C4   050088E2           ADD      R0,R8,#+5
   \   000000C8   000054E1           CMP      R4,R0
   \   000000CC   0000001A           BNE      ??NewKey1_8
   1495            }
   1496            if(i4==KBD_SHORT_RELEASE && i1==(KEY_DIGITAL_0+5))
   1497            {
   1498              InputCommentF();
   \   000000D0   ........           BL       ??InputCommentF
   \                     ??NewKey1_8:
   \   000000D4   060088E2           ADD      R0,R8,#+6
   \   000000D8   000054E1           CMP      R4,R0
   \   000000DC   0000001A           BNE      ??NewKey1_9
   1499            }
   1500            if(i4==KBD_SHORT_RELEASE && i1==(KEY_DIGITAL_0+6))
   1501            {
   1502              MGList();
   \   000000E0   ........           BL       ??MGList
   \                     ??NewKey1_9:
   \   000000E4   0A0088E2           ADD      R0,R8,#+10
   \   000000E8   000054E1           CMP      R4,R0
   \   000000EC   0000001A           BNE      ??NewKey1_10
   1503            }
   1504            if(i4==KBD_SHORT_RELEASE && i1==(KEY_DIGITAL_0+10))
   1505            {
   1506              ShowInfo();
   \   000000F0   ........           BL       ??ShowInfo
   \                     ??NewKey1_10:
   \   000000F4   070054E1           CMP      R4,R7
   \   000000F8   0300001A           BNE      ??NewKey1_1
   1507            }
   1508            if(i4==KBD_SHORT_RELEASE && i1==(KEY_DIGITAL_0+11))
   1509            {
   1510              CopyFromID3v2(ListMenu_GetSelectedItem(TagBook->MenuList1));
   \   000000FC   000096E5           LDR      R0,[R6, #+0]
   \   00000100   700090E5           LDR      R0,[R0, #+112]
   \   00000104   3E0100EF           SWI      +318
   \   00000108   ........           BL       ??CopyFromID3v2
   1511            }
   1512            if(i4==KBD_LONG_PRESS && i1==(KEY_DIGITAL_0+11))
   \                     ??NewKey1_1:
   \   0000010C   ........           LDR      R0,??DataTable147  ;; KBD_LONG_PRESS
   \   00000110   000090E5           LDR      R0,[R0, #+0]
   \   00000114   000055E1           CMP      R5,R0
   \   00000118   07005401           CMPEQ    R4,R7
   \   0000011C   F081BD18           POPNE    {R4-R8,PC}
   1513            {
   1514              CopyFromName1(ListMenu_GetSelectedItem(TagBook->MenuList1));
   \   00000120   000096E5           LDR      R0,[R6, #+0]
   \   00000124   700090E5           LDR      R0,[R0, #+112]
   \   00000128   3E0100EF           SWI      +318
   \   0000012C   ........           BL       ??CopyFromName1
   1515            }
   1516          }
   \   00000130   F081BDE8           POP      {R4-R8,PC}       ;; return
   1517          

   \                                 In segment CODE, align 4, keep-with-next
   1518          void CreateML1(int x)
   1519          {
   \                     ??CreateML1:
   \   00000000   F0402DE9           PUSH     {R4-R7,LR}
   1520            GUI_LIST*MList1=CreateListMenu((BOOK*)TagBook,0);
   \   00000004   ........           LDR      R5,??DataTable148  ;; TagBook
   \   00000008   0060A0E1           MOV      R6,R0
   \   0000000C   000095E5           LDR      R0,[R5, #+0]
   \   00000010   0010A0E3           MOV      R1,#+0
   \   00000014   C00100EF           SWI      +448
   \   00000018   0040A0E1           MOV      R4,R0
   1521            TagBook->MenuList1=MList1;
   \   0000001C   000095E5           LDR      R0,[R5, #+0]
   1522            GUIObject_SetTitleText(MList1, TextID_Create(NAME_EDIT1,ENC_UCS2,TEXTID_ANY_LEN));
   \   00000020   FF70A0E3           MOV      R7,#+255
   \   00000024   704080E5           STR      R4,[R0, #+112]
   \   00000028   08019FE5           LDR      R0,??CreateML1_1  ;; `?<Constant L"\\x49\\x44\\x33\\x76\\x31">` + 60
   \   0000002C   FF7C87E3           ORR      R7,R7,#0xFF00
   \   00000030   0720A0E1           MOV      R2,R7
   \   00000034   0010A0E3           MOV      R1,#+0
   \   00000038   5D0100EF           SWI      +349
   \   0000003C   0010A0E1           MOV      R1,R0
   \   00000040   0400A0E1           MOV      R0,R4
   \   00000044   330100EF           SWI      +307
   1523            ListMenu_SetItemCount(MList1, 6);
   \   00000048   0610A0E3           MOV      R1,#+6
   \   0000004C   0400A0E1           MOV      R0,R4
   \   00000050   C10100EF           SWI      +449
   1524            OneOfMany_SetOnMessage(MList1,SetTitleML1);
   \   00000054   E0109FE5           LDR      R1,??CreateML1_1+0x4  ;; ??SetTitleML1
   \   00000058   0400A0E1           MOV      R0,R4
   \   0000005C   E10100EF           SWI      +481
   1525            ListMenu_SetCursorToItem(MList1,x);
   \   00000060   0610A0E1           MOV      R1,R6
   1526            ListMenu_SetItemStyle(MList1,3);
   1527            GUIObject_SoftKeys_SetAction(MList1,ACTION_BACK,ExitML1);
   \   00000064   D4609FE5           LDR      R6,??CreateML1_1+0x8  ;; ??ExitML1
   \   00000068   0400A0E1           MOV      R0,R4
   \   0000006C   350100EF           SWI      +309
   \   00000070   0310A0E3           MOV      R1,#+3
   \   00000074   0400A0E1           MOV      R0,R4
   \   00000078   3F0100EF           SWI      +319
   \   0000007C   ........           LDR      R0,??DataTable174  ;; ACTION_BACK
   \   00000080   0620A0E1           MOV      R2,R6
   \   00000084   001090E5           LDR      R1,[R0, #+0]
   \   00000088   0400A0E1           MOV      R0,R4
   \   0000008C   0118A0E1           MOV      R1,R1, LSL #+16
   \   00000090   2118A0E1           MOV      R1,R1, LSR #+16
   \   00000094   4B0100EF           SWI      +331
   1528            GUIObject_SoftKeys_SetAction(MList1,ACTION_LONG_BACK,ExitML1);
   \   00000098   ........           LDR      R0,??DataTable175  ;; ACTION_LONG_BACK
   \   0000009C   0620A0E1           MOV      R2,R6
   \   000000A0   001090E5           LDR      R1,[R0, #+0]
   \   000000A4   0400A0E1           MOV      R0,R4
   \   000000A8   0118A0E1           MOV      R1,R1, LSL #+16
   \   000000AC   2118A0E1           MOV      R1,R1, LSR #+16
   \   000000B0   4B0100EF           SWI      +331
   1529            GUIObject_SoftKeys_SetAction(MList1,ACTION_SELECT1,OnEntML1);	
   \   000000B4   ........           LDR      R0,??DataTable176  ;; ACTION_SELECT1
   \   000000B8   84209FE5           LDR      R2,??CreateML1_1+0xC  ;; ??OnEntML1
   \   000000BC   001090E5           LDR      R1,[R0, #+0]
   \   000000C0   0400A0E1           MOV      R0,R4
   \   000000C4   0118A0E1           MOV      R1,R1, LSL #+16
   \   000000C8   2118A0E1           MOV      R1,R1, LSR #+16
   \   000000CC   4B0100EF           SWI      +331
   1530            GUIObject_SoftKeys_SetAction(MList1,1,PlayF1);
   \   000000D0   70209FE5           LDR      R2,??CreateML1_1+0x10  ;; ??PlayF1
   \   000000D4   0110A0E3           MOV      R1,#+1
   \   000000D8   0400A0E1           MOV      R0,R4
   \   000000DC   4B0100EF           SWI      +331
   1531            GUIObject_SoftKeys_SetText(MList1,1,TextID_Create(TagBook->PlayText,ENC_UCS2,TEXTID_ANY_LEN));
   \   000000E0   000095E5           LDR      R0,[R5, #+0]
   \   000000E4   0720A0E1           MOV      R2,R7
   \   000000E8   0010A0E3           MOV      R1,#+0
   \   000000EC   4A0F80E2           ADD      R0,R0,#+296
   \   000000F0   5D0100EF           SWI      +349
   \   000000F4   0020A0E1           MOV      R2,R0
   \   000000F8   0110A0E3           MOV      R1,#+1
   \   000000FC   0400A0E1           MOV      R0,R4
   \   00000100   4C0100EF           SWI      +332
   1532            TagBook->OldKey1 = DispObject_GetOnKey( GUIObject_GetDispObject(MList1) );
   \   00000104   0400A0E1           MOV      R0,R4
   \   00000108   680100EF           SWI      +360
   \   0000010C   2B0200EF           SWI      +555
   \   00000110   001095E5           LDR      R1,[R5, #+0]
   \   00000114   E80081E5           STR      R0,[R1, #+232]
   1533            DISP_DESC_SetOnKey( DispObject_GetDESC ( GUIObject_GetDispObject(MList1) ), NewKey1);
   \   00000118   0400A0E1           MOV      R0,R4
   \   0000011C   680100EF           SWI      +360
   \   00000120   1F0200EF           SWI      +543
   \   00000124   20109FE5           LDR      R1,??CreateML1_1+0x14  ;; ??NewKey1
   \   00000128   2A0200EF           SWI      +554
   1534            GUIObject_Show(MList1);
   \   0000012C   0400A0E1           MOV      R0,R4
   \   00000130   340100EF           SWI      +308
   1535          }
   \   00000134   F080BDE8           POP      {R4-R7,PC}       ;; return
   \                     ??CreateML1_1:
   \   00000138   ........           DC32     `?<Constant L"\\x49\\x44\\x33\\x76\\x31">` + 60
   \   0000013C   ........           DC32     ??SetTitleML1
   \   00000140   ........           DC32     ??ExitML1
   \   00000144   ........           DC32     ??OnEntML1
   \   00000148   ........           DC32     ??PlayF1
   \   0000014C   ........           DC32     ??NewKey1
   1536            
   1537            
   1538          

   \                                 In segment CODE, align 4, keep-with-next
   1539          void OnEntGM( BOOK* bk, GUI* )
   1540          {
   \                     ??OnEntGM:
   \   00000000   10402DE9           PUSH     {R4,LR}
   1541            int item=ListMenu_GetSelectedItem(TagBook->GlavMenu);
   \   00000004   ........           LDR      R4,??DataTable177  ;; TagBook
   \   00000008   000094E5           LDR      R0,[R4, #+0]
   \   0000000C   680090E5           LDR      R0,[R0, #+104]
   \   00000010   3E0100EF           SWI      +318
   1542            if(item==0)
   \   00000014   000050E3           CMP      R0,#+0
   \   00000018   0700001A           BNE      ??OnEntGM_1
   1543            {
   1544              CreateML1(0);
   \   0000001C   ........           BL       ??CreateML1
   1545            }
   1546            if(item==1)
   1547            {
   1548              CreateML2(0);
   1549            }
   1550            if(item==2)
   1551            {
   1552              ShowInfo();
   1553            }
   1554            if(item!=2)
   1555            {
   1556              GUIObject_Destroy(TagBook->GlavMenu);
   \                     ??OnEntGM_2:
   \   00000020   000094E5           LDR      R0,[R4, #+0]
   \   00000024   680090E5           LDR      R0,[R0, #+104]
   \   00000028   CE0100EF           SWI      +462
   1557              TagBook->GlavMenu=0;
   \   0000002C   000094E5           LDR      R0,[R4, #+0]
   \   00000030   0010A0E3           MOV      R1,#+0
   \   00000034   681080E5           STR      R1,[R0, #+104]
   1558            }
   1559          }
   \   00000038   1080BDE8           POP      {R4,PC}          ;; return
   \                     ??OnEntGM_1:
   \   0000003C   010050E3           CMP      R0,#+1
   \   00000040   0200001A           BNE      ??OnEntGM_3
   \   00000044   0000A0E3           MOV      R0,#+0
   \   00000048   ........           BL       ??CreateML2
   \   0000004C   F3FFFFEA           B        ??OnEntGM_2
   \                     ??OnEntGM_3:
   \   00000050   020050E3           CMP      R0,#+2
   \   00000054   F1FFFF1A           BNE      ??OnEntGM_2
   \   00000058   1040BDE8           POP      {R4,LR}          ;; Pop
   \   0000005C   ........           B        ??ShowInfo       ;; tailcall
   1560          

   \                                 In segment CODE, align 4, keep-with-next
   1561          int onAccept_DB(void * data, BOOK * book)
   1562          {
   \                     ??onAccept_DB:
   \   00000000   70402DE9           PUSH     {R4-R6,LR}
   \   00000004   0040A0E1           MOV      R4,R0
   1563            wchar_t *name=new wchar_t[wstrlen( FILEITEM_GetFname((FILEITEM*)data) )+1];
   \   00000008   D20200EF           SWI      +722
   \   0000000C   570100EF           SWI      +343
   \   00000010   010080E2           ADD      R0,R0,#+1
   \   00000014   8000A0E1           LSL      R0,R0,#+1
   \   00000018   ........           _BLF     `??operator new[]`,`??operator new[]??rA`
   \   0000001C   0050A0E1           MOV      R5,R0
   1564            wchar_t *path=new wchar_t[wstrlen( FILEITEM_GetPath((FILEITEM*)data) )+1];
   \   00000020   0400A0E1           MOV      R0,R4
   \   00000024   D30200EF           SWI      +723
   \   00000028   570100EF           SWI      +343
   \   0000002C   010080E2           ADD      R0,R0,#+1
   \   00000030   8000A0E1           LSL      R0,R0,#+1
   \   00000034   ........           _BLF     `??operator new[]`,`??operator new[]??rA`
   \   00000038   0060A0E1           MOV      R6,R0
   1565            wstrcpy(name, FILEITEM_GetFname((FILEITEM*)data) );
   \   0000003C   0400A0E1           MOV      R0,R4
   \   00000040   D20200EF           SWI      +722
   \   00000044   0010A0E1           MOV      R1,R0
   \   00000048   0500A0E1           MOV      R0,R5
   \   0000004C   520100EF           SWI      +338
   1566            wstrcpy(path, FILEITEM_GetPath((FILEITEM*)data) );
   \   00000050   0400A0E1           MOV      R0,R4
   \   00000054   D30200EF           SWI      +723
   \   00000058   0010A0E1           MOV      R1,R0
   \   0000005C   0600A0E1           MOV      R0,R6
   \   00000060   520100EF           SWI      +338
   1567            FileRead(path, name);
   \   00000064   0510A0E1           MOV      R1,R5
   \   00000068   0600A0E1           MOV      R0,R6
   \   0000006C   ........           BL       ??FileRead
   1568            return (0);
   \   00000070   0000A0E3           MOV      R0,#+0
   \   00000074   7080BDE8           POP      {R4-R6,PC}       ;; return
   1569          };
   1570          

   \                                 In segment CODE, align 4, keep-with-next
   1571          static int onCancelDB(void *data, BOOK * book)
   1572          {
   \                     ??onCancelDB:
   \   00000000   00402DE9           PUSH     {LR}
   \   00000004   0100A0E1           MOV      R0,R1
   1573            FreeBook(book);
   \   00000008   2F0100EF           SWI      +303
   1574            return(1);
   \   0000000C   0100A0E3           MOV      R0,#+1
   \   00000010   0080BDE8           POP      {PC}             ;; return
   1575          };
   1576          

   \                                 In segment CODE, align 4, keep-with-next
   1577          int isDir(const wchar_t *path, const wchar_t *name)
   1578          {
   \                     ??isDir:
   \   00000000   10402DE9           PUSH     {R4,LR}
   \   00000004   8ADF4DE2           SUB      SP,SP,#+552
   \   00000008   0140A0E1           MOV      R4,R1
   1579            wchar_t fullname[256];
   1580            W_FSTAT fs;
   1581            wstrcpy(fullname,path);
   \   0000000C   0010A0E1           MOV      R1,R0
   \   00000010   0D00A0E1           MOV      R0,SP
   \   00000014   520100EF           SWI      +338
   1582            wstrcat(fullname,L"/");
   \   00000018   0B1F8FE2           ADR      R1,??isDir_1     ;; 0x2F, 0x00, 0x00, 0x00
   \   0000001C   0D00A0E1           MOV      R0,SP
   \   00000020   540100EF           SWI      +340
   1583            wstrcat(fullname,name);
   \   00000024   0410A0E1           MOV      R1,R4
   \   00000028   0D00A0E1           MOV      R0,SP
   \   0000002C   540100EF           SWI      +340
   1584            w_fstat(fullname,&fs);
   \   00000030   801F8DE2           ADD      R1,SP,#+512
   \   00000034   0D00A0E1           MOV      R0,SP
   \   00000038   F90200EF           SWI      +761
   1585            return(fs.attr&FA_DIRECTORY);
   \   0000003C   00029DE5           LDR      R0,[SP, #+512]
   \   00000040   8ADF8DE2           ADD      SP,SP,#+552
   \   00000044   400C00E2           AND      R0,R0,#0x4000
   \   00000048   1080BDE8           POP      {R4,PC}          ;; return
   \                     ??isDir_1:
   \   0000004C   2F000000           DC8      0x2F, 0x00, 0x00, 0x00
   1586          }
   1587          

   \                                 In segment CODE, align 4, keep-with-next
   1588          int Mp3Filter(const wchar_t *ExtList, const wchar_t *ItemPath, const wchar_t *ItemName)
   1589          {
   \                     ??Mp3Filter:
   \   00000000   30402DE9           PUSH     {R4,R5,LR}
   \   00000004   0140A0E1           MOV      R4,R1
   \   00000008   0250A0E1           MOV      R5,R2
   1590            if(DataBrowser_isFileInListExt(ExtList,ItemPath,ItemName)) return 1;
   \   0000000C   270100EF           SWI      +295
   \   00000010   000050E3           CMP      R0,#+0
   \   00000014   0100A013           MOVNE    R0,#+1
   \   00000018   3080BD18           POPNE    {R4,R5,PC}
   1591            if(isDir(ItemPath, ItemName)) return 1;
   \   0000001C   0510A0E1           MOV      R1,R5
   \   00000020   0400A0E1           MOV      R0,R4
   \   00000024   ........           BL       ??isDir
   \   00000028   000050E3           CMP      R0,#+0
   \   0000002C   0100A013           MOVNE    R0,#+1
   1592            return 0;
   \   00000030   3080BDE8           POP      {R4,R5,PC}       ;; return
   1593          }
   1594          

   \                                 In segment CODE, align 4, keep-with-next
   1595          static int CreateDB(void *, BOOK * book)
   1596          {
   \                     ??CreateDB:
   \   00000000   70402DE9           PUSH     {R4-R6,LR}
   1597            if(TagBook->PlayMode==1){
   \   00000004   ........           LDR      R6,??DataTable177  ;; TagBook
   \   00000008   0CD04DE2           SUB      SP,SP,#+12
   \   0000000C   000096E5           LDR      R0,[R6, #+0]
   \   00000010   0140A0E1           MOV      R4,R1
   \   00000014   980090E5           LDR      R0,[R0, #+152]
   \   00000018   0050A0E3           MOV      R5,#+0
   \   0000001C   010050E3           CMP      R0,#+1
   \   00000020   0300001A           BNE      ??CreateDB_1
   1598              PlaySystemSound(7);
   \   00000024   0700A0E3           MOV      R0,#+7
   \   00000028   5A0200EF           SWI      +602
   1599              TagBook->PlayMode=0;
   \   0000002C   000096E5           LDR      R0,[R6, #+0]
   \   00000030   985080E5           STR      R5,[R0, #+152]
   1600            }
   1601            void * DB_Desc=DataBrowserDesc_Create();
   \                     ??CreateDB_1:
   \   00000034   1F0100EF           SWI      +287
   \   00000038   0060A0E1           MOV      R6,R0
   1602            const wchar_t * folder_list[3];
   1603            folder_list[0]=GetDir(DIR_AUDIO|MEM_INTERNAL);
   \   0000003C   0100A0E3           MOV      R0,#+1
   \   00000040   050100EF           SWI      +261
   \   00000044   00008DE5           STR      R0,[SP, #+0]
   1604            folder_list[1]=GetDir(DIR_AUDIO|MEM_EXTERNAL);
   \   00000048   0000A0E3           MOV      R0,#+0
   \   0000004C   050100EF           SWI      +261
   \   00000050   04008DE5           STR      R0,[SP, #+4]
   1605            folder_list[2]=0;
   \   00000054   08508DE5           STR      R5,[SP, #+8]
   1606            DataBrowserDesc_SetHeaderText(DB_Desc,TextID_Create(NAME_OPEN_FILE, ENC_UCS2, TEXTID_ANY_LEN));
   \   00000058   7C509FE5           LDR      R5,??CreateDB_2  ;; `?<Constant L"\\x2a\\x2e\\x6d\\x70\\x33">`
   \   0000005C   FF20A0E3           MOV      R2,#+255
   \   00000060   FF2C82E3           ORR      R2,R2,#0xFF00
   \   00000064   0010A0E3           MOV      R1,#+0
   \   00000068   0C0085E2           ADD      R0,R5,#+12
   \   0000006C   5D0100EF           SWI      +349
   \   00000070   0010A0E1           MOV      R1,R0
   \   00000074   0600A0E1           MOV      R0,R6
   \   00000078   210100EF           SWI      +289
   1607            DataBrowserDesc_SetBookID(DB_Desc,BookObj_GetBookID(book));
   \   0000007C   0400A0E1           MOV      R0,R4
   \   00000080   FA0100EF           SWI      +506
   \   00000084   0010A0E1           MOV      R1,R0
   \   00000088   0600A0E1           MOV      R0,R6
   \   0000008C   AD0200EF           SWI      +685
   1608            DataBrowserDesc_SetFolders(DB_Desc,folder_list);
   \   00000090   0D10A0E1           MOV      R1,SP
   \   00000094   0600A0E1           MOV      R0,R6
   \   00000098   220100EF           SWI      +290
   1609            DataBrowserDesc_SetSelectActionOnFolders(DB_Desc,1);
   \   0000009C   0110A0E3           MOV      R1,#+1
   \   000000A0   0600A0E1           MOV      R0,R6
   \   000000A4   AC0200EF           SWI      +684
   1610            DataBrowserDesc_SetFoldersNumber(DB_Desc,2);
   \   000000A8   0210A0E3           MOV      R1,#+2
   \   000000AC   0600A0E1           MOV      R0,R6
   \   000000B0   A90200EF           SWI      +681
   1611            DataBrowserDesc_SetFileExtList(DB_Desc,L"*.mp3");
   \   000000B4   0510A0E1           MOV      R1,R5
   \   000000B8   0600A0E1           MOV      R0,R6
   \   000000BC   B10200EF           SWI      +689
   1612            DataBrowserDesc_SetItemFilter(DB_Desc,Mp3Filter);
   \   000000C0   18109FE5           LDR      R1,??CreateDB_2+0x4  ;; ??Mp3Filter
   \   000000C4   0600A0E1           MOV      R0,R6
   \   000000C8   AE0200EF           SWI      +686
   1613            DataBrowser_Create(DB_Desc);
   \   000000CC   0600A0E1           MOV      R0,R6
   \   000000D0   240100EF           SWI      +292
   1614            return(0);
   \   000000D4   0000A0E3           MOV      R0,#+0
   \   000000D8   7E80BDE8           POP      {R1-R6,PC}       ;; return
   \                     ??CreateDB_2:
   \   000000DC   ........           DC32     `?<Constant L"\\x2a\\x2e\\x6d\\x70\\x33">`
   \   000000E0   ........           DC32     ??Mp3Filter
   1615          };
   1616          

   \                                 In segment DYN_PAGE, align 4, align-sorted
   1617          const PAGE_MSG bk_msglst_db[] @ "DYN_PAGE"  =
   \                     bk_msglst_db:
   \   00000000   42000000....       DC32 66, ??CreateDB, 76, ??onAccept_DB, 77, ??onCancelDB, 78
   \              ....4C000000
   \              ........4D00
   \              0000........
   \              4E000000    
   \   0000001C   ........4000       DC32 ??onCancelDB, 64, 0H
   \              000000000000
   1618          {
   1619            PAGE_ENTER_EVENT_TAG,     CreateDB,
   1620            ACCEPT_EVENT_TAG,         onAccept_DB,
   1621            PREVIOUS_EVENT_TAG,       onCancelDB,
   1622            CANCEL_EVENT_TAG,         onCancelDB,
   1623            NIL_EVENT_TAG,            NULL
   1624          };
   1625          
   1626          const PAGE_DESC base_db = {"TagEditor_openFile",0,bk_msglst_db};
   1627          

   \                                 In segment CODE, align 4, keep-with-next
   1628          void YesPress( BOOK* bk, GUI* )
   1629          {
   \                     ??YesPress:
   \   00000000   30402DE9           PUSH     {R4,R5,LR}
   1630            GUIObject_Destroy(TagBook->yn);
   \   00000004   ........           LDR      R4,??DataTable177  ;; TagBook
   1631            TagBook->yn=0;
   \   00000008   0050A0E3           MOV      R5,#+0
   \   0000000C   000094E5           LDR      R0,[R4, #+0]
   \   00000010   640090E5           LDR      R0,[R0, #+100]
   \   00000014   CE0100EF           SWI      +462
   \   00000018   000094E5           LDR      R0,[R4, #+0]
   \   0000001C   645080E5           STR      R5,[R0, #+100]
   1632            GUIObject_Destroy(TagBook->GlavMenu);
   \   00000020   680090E5           LDR      R0,[R0, #+104]
   \   00000024   CE0100EF           SWI      +462
   1633            TagBook->GlavMenu=0;
   \   00000028   000094E5           LDR      R0,[R4, #+0]
   \   0000002C   685080E5           STR      R5,[R0, #+104]
   1634            FileWrite();
   \   00000030   ........           BL       ??FileWrite
   1635            BookObj_GotoPage(&TagBook->book, &base_db);
   \   00000034   ........           LDR      R1,??DataTable164  ;; `?<Constant "TagEditor">` + 12
   \   00000038   000094E5           LDR      R0,[R4, #+0]
   \   0000003C   2D0100EF           SWI      +301
   1636          }
   \   00000040   3080BDE8           POP      {R4,R5,PC}       ;; return
   1637          

   \                                 In segment CODE, align 4, keep-with-next
   1638          void NoPress( BOOK* bk, GUI* )
   1639          {
   \                     ??NoPress:
   \   00000000   30402DE9           PUSH     {R4,R5,LR}
   1640            if(TagBook->Run!=0)
   \   00000004   ........           LDR      R4,??DataTable177  ;; TagBook
   \   00000008   000094E5           LDR      R0,[R4, #+0]
   \   0000000C   C81090E5           LDR      R1,[R0, #+200]
   \   00000010   000051E3           CMP      R1,#+0
   \   00000014   0400000A           BEQ      ??NoPress_1
   1641            {
   1642              elfload(TagBook->TON,0,0,0);
   \   00000018   F80090E5           LDR      R0,[R0, #+248]
   \   0000001C   0030A0E3           MOV      R3,#+0
   \   00000020   0020A0E3           MOV      R2,#+0
   \   00000024   0210A0E1           MOV      R1,R2
   \   00000028   0D0100EF           SWI      +269
   1643            }
   1644            GUIObject_Destroy(TagBook->yn);
   \                     ??NoPress_1:
   \   0000002C   000094E5           LDR      R0,[R4, #+0]
   1645            TagBook->yn=0;
   \   00000030   0050A0E3           MOV      R5,#+0
   \   00000034   640090E5           LDR      R0,[R0, #+100]
   \   00000038   CE0100EF           SWI      +462
   \   0000003C   000094E5           LDR      R0,[R4, #+0]
   \   00000040   645080E5           STR      R5,[R0, #+100]
   1646            GUIObject_Destroy(TagBook->GlavMenu);
   \   00000044   680090E5           LDR      R0,[R0, #+104]
   \   00000048   CE0100EF           SWI      +462
   1647            TagBook->GlavMenu=0;
   \   0000004C   000094E5           LDR      R0,[R4, #+0]
   1648            BookObj_GotoPage(&TagBook->book, &base_db);
   \   00000050   ........           LDR      R1,??DataTable164  ;; `?<Constant "TagEditor">` + 12
   \   00000054   685080E5           STR      R5,[R0, #+104]
   \   00000058   2D0100EF           SWI      +301
   1649          }
   \   0000005C   3080BDE8           POP      {R4,R5,PC}       ;; return
   1650          

   \                                 In segment CODE, align 4, keep-with-next
   1651          void ExitYN( BOOK* bk, GUI* )
   1652          {
   \                     ??ExitYN:
   \   00000000   10402DE9           PUSH     {R4,LR}
   1653            GUIObject_Destroy(TagBook->yn);
   \   00000004   ........           LDR      R4,??DataTable177  ;; TagBook
   \   00000008   000094E5           LDR      R0,[R4, #+0]
   \   0000000C   640090E5           LDR      R0,[R0, #+100]
   \   00000010   CE0100EF           SWI      +462
   1654            TagBook->yn=0;
   \   00000014   000094E5           LDR      R0,[R4, #+0]
   \   00000018   0010A0E3           MOV      R1,#+0
   \   0000001C   641080E5           STR      R1,[R0, #+100]
   1655            GUIObject_Show(TagBook->GlavMenu);
   \   00000020   680090E5           LDR      R0,[R0, #+104]
   \   00000024   340100EF           SWI      +308
   1656          }
   \   00000028   1080BDE8           POP      {R4,PC}          ;; return
   1657          

   \                                 In segment CODE, align 4, keep-with-next
   1658          void YesNo()
   1659          {
   \                     ??YesNo:
   \   00000000   30402DE9           PUSH     {R4,R5,LR}
   1660            if(TagBook->PlayMode==1){
   \   00000004   ........           LDR      R4,??DataTable177  ;; TagBook
   \   00000008   000094E5           LDR      R0,[R4, #+0]
   \   0000000C   980090E5           LDR      R0,[R0, #+152]
   \   00000010   010050E3           CMP      R0,#+1
   \   00000014   0400001A           BNE      ??YesNo_1
   1661              PlaySystemSound(7);
   \   00000018   0700A0E3           MOV      R0,#+7
   \   0000001C   5A0200EF           SWI      +602
   1662              TagBook->PlayMode=0;
   \   00000020   000094E5           LDR      R0,[R4, #+0]
   \   00000024   0010A0E3           MOV      R1,#+0
   \   00000028   981080E5           STR      R1,[R0, #+152]
   1663            }
   1664            TagBook->yn=CreateYesNoQuestionVA(0,
   1665                                              VAR_BOOK(TagBook),
   1666                                              VAR_YESNO_QUESTION(TextID_Create(QUESTION_SAVE_FILE, ENC_UCS2, TEXTID_ANY_LEN)),
   1667                                              0);
   \                     ??YesNo_1:
   \   0000002C   B8009FE5           LDR      R0,??YesNo_2     ;; `?<Constant L"\\x421\\x43e\\x445\\x440\\x430\\x43d\\x4`
   \   00000030   FF20A0E3           MOV      R2,#+255
   \   00000034   FF2C82E3           ORR      R2,R2,#0xFF00
   1668            GUIObject_SoftKeys_SetAction(TagBook->yn, ACTION_YES, YesPress);
   1669            GUIObject_SoftKeys_SetAction(TagBook->yn, ACTION_NO, NoPress);
   1670            GUIObject_SoftKeys_SetAction(TagBook->yn, ACTION_BACK, ExitYN);
   \   00000038   B0509FE5           LDR      R5,??YesNo_2+0x4  ;; ??ExitYN
   \   0000003C   0010A0E3           MOV      R1,#+0
   \   00000040   5D0100EF           SWI      +349
   \   00000044   A8309FE5           LDR      R3,??YesNo_2+0x8  ;; VAR_ARG_YESNO_QUESTION
   \   00000048   0010A0E3           MOV      R1,#+0
   \   0000004C   02002DE9           PUSH     {R1}
   \   00000050   ........           LDR      R1,??DataTable160  ;; VAR_ARG_BOOK
   \   00000054   01002DE9           PUSH     {R0}
   \   00000058   002094E5           LDR      R2,[R4, #+0]
   \   0000005C   0000A0E3           MOV      R0,#+0
   \   00000060   A50200EF           SWI      +677
   \   00000064   003094E5           LDR      R3,[R4, #+0]
   \   00000068   88209FE5           LDR      R2,??YesNo_2+0xC  ;; ??YesPress
   \   0000006C   640083E5           STR      R0,[R3, #+100]
   \   00000070   84009FE5           LDR      R0,??YesNo_2+0x10  ;; ACTION_YES
   \   00000074   001090E5           LDR      R1,[R0, #+0]
   \   00000078   640093E5           LDR      R0,[R3, #+100]
   \   0000007C   0118A0E1           MOV      R1,R1, LSL #+16
   \   00000080   2118A0E1           MOV      R1,R1, LSR #+16
   \   00000084   4B0100EF           SWI      +331
   \   00000088   70009FE5           LDR      R0,??YesNo_2+0x14  ;; ACTION_NO
   \   0000008C   70209FE5           LDR      R2,??YesNo_2+0x18  ;; ??NoPress
   \   00000090   001090E5           LDR      R1,[R0, #+0]
   \   00000094   000094E5           LDR      R0,[R4, #+0]
   \   00000098   0118A0E1           MOV      R1,R1, LSL #+16
   \   0000009C   640090E5           LDR      R0,[R0, #+100]
   \   000000A0   2118A0E1           MOV      R1,R1, LSR #+16
   \   000000A4   4B0100EF           SWI      +331
   \   000000A8   ........           LDR      R0,??DataTable174  ;; ACTION_BACK
   \   000000AC   0520A0E1           MOV      R2,R5
   \   000000B0   001090E5           LDR      R1,[R0, #+0]
   \   000000B4   000094E5           LDR      R0,[R4, #+0]
   \   000000B8   0118A0E1           MOV      R1,R1, LSL #+16
   \   000000BC   640090E5           LDR      R0,[R0, #+100]
   \   000000C0   2118A0E1           MOV      R1,R1, LSR #+16
   \   000000C4   4B0100EF           SWI      +331
   1671            GUIObject_SoftKeys_SetAction(TagBook->yn, ACTION_LONG_BACK, ExitYN);
   \   000000C8   ........           LDR      R0,??DataTable175  ;; ACTION_LONG_BACK
   \   000000CC   0520A0E1           MOV      R2,R5
   \   000000D0   001090E5           LDR      R1,[R0, #+0]
   \   000000D4   000094E5           LDR      R0,[R4, #+0]
   \   000000D8   0118A0E1           MOV      R1,R1, LSL #+16
   \   000000DC   640090E5           LDR      R0,[R0, #+100]
   \   000000E0   2118A0E1           MOV      R1,R1, LSR #+16
   \   000000E4   4B0100EF           SWI      +331
   1672          }
   \   000000E8   3380BDE8           POP      {R0,R1,R4,R5,PC}  ;; return
   \                     ??YesNo_2:
   \   000000EC   ........           DC32     `?<Constant L"\\x421\\x43e\\x445\\x440\\x430\\x43d\\x4`
   \   000000F0   ........           DC32     ??ExitYN
   \   000000F4   ........           DC32     VAR_ARG_YESNO_QUESTION
   \   000000F8   ........           DC32     ??YesPress
   \   000000FC   ........           DC32     ACTION_YES
   \   00000100   ........           DC32     ACTION_NO
   \   00000104   ........           DC32     ??NoPress
   1673          

   \                                 In segment CODE, align 4, keep-with-next
   1674          void ExitGM( BOOK* bk, GUI* )
   1675          {
   \                     ??ExitGM:
   \   00000000   10402DE9           PUSH     {R4,LR}
   1676            if(TagBook->change)
   \   00000004   ........           LDR      R4,??DataTable177  ;; TagBook
   \   00000008   000094E5           LDR      R0,[R4, #+0]
   \   0000000C   781090E5           LDR      R1,[R0, #+120]
   \   00000010   000051E3           CMP      R1,#+0
   \   00000014   0100000A           BEQ      ??ExitGM_1
   1677            {
   1678              YesNo();
   \   00000018   1040BDE8           POP      {R4,LR}          ;; Pop
   \   0000001C   ........           B        ??YesNo          ;; tailcall
   1679            }
   1680            else
   1681            {
   1682              GUIObject_Destroy(TagBook->GlavMenu);
   \                     ??ExitGM_1:
   \   00000020   680090E5           LDR      R0,[R0, #+104]
   \   00000024   CE0100EF           SWI      +462
   1683              TagBook->GlavMenu=0;
   \   00000028   000094E5           LDR      R0,[R4, #+0]
   \   0000002C   0010A0E3           MOV      R1,#+0
   \   00000030   681080E5           STR      R1,[R0, #+104]
   1684              BookObj_GotoPage(&TagBook->book, &base_db);
   \   00000034   ........           LDR      R1,??DataTable164  ;; `?<Constant "TagEditor">` + 12
   \   00000038   2D0100EF           SWI      +301
   1685            }
   1686          }
   \   0000003C   1080BDE8           POP      {R4,PC}          ;; return
   1687          

   \                                 In segment CODE, align 4, keep-with-next
   1688          int SetTitlePunktsGM(GUI_MESSAGE * msg)
   1689          {
   \                     ??SetTitlePunktsGM:
   \   00000000   70402DE9           PUSH     {R4-R6,LR}
   \   00000004   04D04DE2           SUB      SP,SP,#+4
   \   00000008   0040A0E1           MOV      R4,R0
   1690            int item;
   1691            int imgID;
   1692            switch( GUIonMessage_GetMsg(msg) )
   \   0000000C   740300EF           SWI      +884
   \   00000010   010050E3           CMP      R0,#+1
   \   00000014   4400001A           BNE      ??SetTitlePunktsGM_1
   1693            {
   1694              case 1:
   1695                item=GUIonMessage_GetCreatedItemIndex(msg);
   1696                if(item==0)
   \   00000018   14519FE5           LDR      R5,??SetTitlePunktsGM_2  ;; `?<Constant L"\\x49\\x44\\x33\\x76\\x31">`
   \   0000001C   0400A0E1           MOV      R0,R4
   \   00000020   370100EF           SWI      +311
   \   00000024   FF60A0E3           MOV      R6,#+255
   \   00000028   FF6C86E3           ORR      R6,R6,#0xFF00
   \   0000002C   000050E3           CMP      R0,#+0
   \   00000030   0F00001A           BNE      ??SetTitlePunktsGM_3
   1697                {
   1698                  GUIonMessage_SetMenuItemText(msg,TextID_Create(L"ID3v1",ENC_UCS2,TEXTID_ANY_LEN));
   \   00000034   0620A0E1           MOV      R2,R6
   \   00000038   0010A0E3           MOV      R1,#+0
   \   0000003C   0500A0E1           MOV      R0,R5
   \   00000040   5D0100EF           SWI      +349
   \   00000044   0010A0E1           MOV      R1,R0
   \   00000048   0400A0E1           MOV      R0,R4
   \   0000004C   380100EF           SWI      +312
   1699                  GUIonMessage_SetMenuItemSecondLineText(msg,TextID_Create(NAME_EDIT1,ENC_UCS2,TEXTID_ANY_LEN));
   \   00000050   0620A0E1           MOV      R2,R6
   \   00000054   0010A0E3           MOV      R1,#+0
   \   00000058   3C0085E2           ADD      R0,R5,#+60
   \   0000005C   5D0100EF           SWI      +349
   \   00000060   0010A0E1           MOV      R1,R0
   \   00000064   0400A0E1           MOV      R0,R4
   \   00000068   390100EF           SWI      +313
   1700                  iconidname2id(Iconq,-1,&imgID);
   \   0000006C   C4009FE5           LDR      R0,??SetTitlePunktsGM_2+0x4  ;; Iconq
   \   00000070   240000EA           B        ??SetTitlePunktsGM_4
   1701                  GUIonMessage_SetMenuItemIcon(msg, 0, imgID);
   1702                }
   1703                if(item==1)
   \                     ??SetTitlePunktsGM_3:
   \   00000074   010050E3           CMP      R0,#+1
   \   00000078   0F00001A           BNE      ??SetTitlePunktsGM_5
   1704                {
   1705                  GUIonMessage_SetMenuItemText(msg,TextID_Create(L"ID3v2",ENC_UCS2,TEXTID_ANY_LEN));
   \   0000007C   0620A0E1           MOV      R2,R6
   \   00000080   0010A0E3           MOV      R1,#+0
   \   00000084   0C0085E2           ADD      R0,R5,#+12
   \   00000088   5D0100EF           SWI      +349
   \   0000008C   0010A0E1           MOV      R1,R0
   \   00000090   0400A0E1           MOV      R0,R4
   \   00000094   380100EF           SWI      +312
   1706                  GUIonMessage_SetMenuItemSecondLineText(msg,TextID_Create(NAME_EDIT2,ENC_UCS2,TEXTID_ANY_LEN));
   \   00000098   0620A0E1           MOV      R2,R6
   \   0000009C   0010A0E3           MOV      R1,#+0
   \   000000A0   240085E2           ADD      R0,R5,#+36
   \   000000A4   5D0100EF           SWI      +349
   \   000000A8   0010A0E1           MOV      R1,R0
   \   000000AC   0400A0E1           MOV      R0,R4
   \   000000B0   390100EF           SWI      +313
   1707                  iconidname2id(Iconw,-1,&imgID);
   \   000000B4   80009FE5           LDR      R0,??SetTitlePunktsGM_2+0x8  ;; Iconw
   \   000000B8   120000EA           B        ??SetTitlePunktsGM_4
   1708                  GUIonMessage_SetMenuItemIcon(msg, 0, imgID);
   1709                  
   1710                }
   1711                if(item==2)
   \                     ??SetTitlePunktsGM_5:
   \   000000BC   020050E3           CMP      R0,#+2
   \   000000C0   1900001A           BNE      ??SetTitlePunktsGM_1
   1712                {
   1713                  GUIonMessage_SetMenuItemText(msg,TextID_Create(MENU_ITEM_TEXT_INFO,ENC_UCS2,TEXTID_ANY_LEN));
   \   000000C4   0620A0E1           MOV      R2,R6
   \   000000C8   0010A0E3           MOV      R1,#+0
   \   000000CC   180085E2           ADD      R0,R5,#+24
   \   000000D0   5D0100EF           SWI      +349
   \   000000D4   0010A0E1           MOV      R1,R0
   \   000000D8   0400A0E1           MOV      R0,R4
   \   000000DC   380100EF           SWI      +312
   1714                  GUIonMessage_SetMenuItemSecondLineText(msg,TextID_Create(TagBook->name,ENC_UCS2,TEXTID_ANY_LEN));
   \   000000E0   ........           LDR      R0,??DataTable177  ;; TagBook
   \   000000E4   0620A0E1           MOV      R2,R6
   \   000000E8   000090E5           LDR      R0,[R0, #+0]
   \   000000EC   0010A0E3           MOV      R1,#+0
   \   000000F0   F00090E5           LDR      R0,[R0, #+240]
   \   000000F4   5D0100EF           SWI      +349
   \   000000F8   0010A0E1           MOV      R1,R0
   \   000000FC   0400A0E1           MOV      R0,R4
   \   00000100   390100EF           SWI      +313
   1715                  iconidname2id(Icone,-1,&imgID);
   \   00000104   34009FE5           LDR      R0,??SetTitlePunktsGM_2+0xC  ;; Icone
   \                     ??SetTitlePunktsGM_4:
   \   00000108   0D20A0E1           MOV      R2,SP
   \   0000010C   0010E0E3           MVN      R1,#+0
   \   00000110   860200EF           SWI      +646
   1716                  GUIonMessage_SetMenuItemIcon(msg, 0, imgID);
   \   00000114   00209DE5           LDR      R2,[SP, #+0]
   \   00000118   0010A0E3           MOV      R1,#+0
   \   0000011C   0228A0E1           MOV      R2,R2, LSL #+16
   \   00000120   2228A0E1           MOV      R2,R2, LSR #+16
   \   00000124   0400A0E1           MOV      R0,R4
   \   00000128   3C0100EF           SWI      +316
   1717                }
   1718            }
   1719            return(1);        
   \                     ??SetTitlePunktsGM_1:
   \   0000012C   0100A0E3           MOV      R0,#+1
   \   00000130   7280BDE8           POP      {R1,R4-R6,PC}    ;; return
   \                     ??SetTitlePunktsGM_2:
   \   00000134   ........           DC32     `?<Constant L"\\x49\\x44\\x33\\x76\\x31">`
   \   00000138   ........           DC32     Iconq
   \   0000013C   ........           DC32     Iconw
   \   00000140   ........           DC32     Icone
   1720          }
   1721          

   \                                 In segment CODE, align 4, keep-with-next
   1722          void PlayF( BOOK* bk, GUI* )
   1723          {
   \                     ??PlayF:
   \   00000000   F0402DE9           PUSH     {R4-R7,LR}
   1724            if(TagBook->PlayMode==0)
   \   00000004   ........           LDR      R4,??DataTable177  ;; TagBook
   \   00000008   ........           LDR      R7,??DataTable167  ;; `?<Constant L"\\x421\\x442\\x43e\\x43f">`
   \   0000000C   000094E5           LDR      R0,[R4, #+0]
   \   00000010   FF60A0E3           MOV      R6,#+255
   \   00000014   981090E5           LDR      R1,[R0, #+152]
   \   00000018   FF6C86E3           ORR      R6,R6,#0xFF00
   \   0000001C   4A5FA0E3           MOV      R5,#+296
   \   00000020   000051E3           CMP      R1,#+0
   \   00000024   1400001A           BNE      ??PlayF_1
   1725            {
   1726              PlayFile(TagBook->path,TagBook->name);
   \   00000028   F01090E5           LDR      R1,[R0, #+240]
   \   0000002C   F40090E5           LDR      R0,[R0, #+244]
   \   00000030   B20100EF           SWI      +434
   1727              wstrcpy(TagBook->PlayText,SOFTKEY_STATUS_STOP);
   \   00000034   000094E5           LDR      R0,[R4, #+0]
   \   00000038   0710A0E1           MOV      R1,R7
   \   0000003C   000085E0           ADD      R0,R5,R0
   \   00000040   520100EF           SWI      +338
   1728              GUIObject_SoftKeys_SetText(TagBook->GlavMenu,1,TextID_Create(TagBook->PlayText,ENC_UCS2,TEXTID_ANY_LEN));
   \   00000044   000094E5           LDR      R0,[R4, #+0]
   \   00000048   0620A0E1           MOV      R2,R6
   \   0000004C   0010A0E3           MOV      R1,#+0
   \   00000050   000085E0           ADD      R0,R5,R0
   \   00000054   5D0100EF           SWI      +349
   \   00000058   0020A0E1           MOV      R2,R0
   \   0000005C   000094E5           LDR      R0,[R4, #+0]
   \   00000060   0110A0E3           MOV      R1,#+1
   \   00000064   680090E5           LDR      R0,[R0, #+104]
   \   00000068   4C0100EF           SWI      +332
   1729              TagBook->PlayMode=1;
   \   0000006C   000094E5           LDR      R0,[R4, #+0]
   \   00000070   0110A0E3           MOV      R1,#+1
   \   00000074   981080E5           STR      R1,[R0, #+152]
   \   00000078   F080BDE8           POP      {R4-R7,PC}
   1730            }else{
   1731              PlaySystemSound(7);
   \                     ??PlayF_1:
   \   0000007C   0700A0E3           MOV      R0,#+7
   \   00000080   5A0200EF           SWI      +602
   1732              wstrcpy(TagBook->PlayText,SOFTKEY_STATUS_PLAY);
   \   00000084   000094E5           LDR      R0,[R4, #+0]
   \   00000088   0C1087E2           ADD      R1,R7,#+12
   \   0000008C   000085E0           ADD      R0,R5,R0
   \   00000090   520100EF           SWI      +338
   1733              GUIObject_SoftKeys_SetText(TagBook->GlavMenu,1,TextID_Create(TagBook->PlayText,ENC_UCS2,TEXTID_ANY_LEN));
   \   00000094   000094E5           LDR      R0,[R4, #+0]
   \   00000098   0620A0E1           MOV      R2,R6
   \   0000009C   0010A0E3           MOV      R1,#+0
   \   000000A0   000085E0           ADD      R0,R5,R0
   \   000000A4   5D0100EF           SWI      +349
   \   000000A8   0020A0E1           MOV      R2,R0
   \   000000AC   000094E5           LDR      R0,[R4, #+0]
   \   000000B0   0110A0E3           MOV      R1,#+1
   \   000000B4   680090E5           LDR      R0,[R0, #+104]
   \   000000B8   4C0100EF           SWI      +332
   1734              TagBook->PlayMode=0;
   \   000000BC   000094E5           LDR      R0,[R4, #+0]
   \   000000C0   0010A0E3           MOV      R1,#+0
   \   000000C4   981080E5           STR      R1,[R0, #+152]
   1735            }
   1736          }
   \   000000C8   F080BDE8           POP      {R4-R7,PC}       ;; return
   1737          

   \                                 In segment CODE, align 4, keep-with-next
   1738          void DeleteTag(int x)
   1739          {
   \                     ??DeleteTag:
   \   00000000   70402DE9           PUSH     {R4-R6,LR}
   1740            if(x==0)
   \   00000004   ........           LDR      R4,??DataTable177  ;; TagBook
   \   00000008   0050A0E3           MOV      R5,#+0
   \   0000000C   000050E3           CMP      R0,#+0
   \   00000010   1800001A           BNE      ??DeleteTag_1
   1741            {
   1742              for(int i=0; i<=29; i++)
   \   00000014   0010A0E3           MOV      R1,#+0
   1743              {
   1744                TagBook->UTitle[i]=0;
   \                     ??DeleteTag_2:
   \   00000018   000094E5           LDR      R0,[R4, #+0]
   \   0000001C   1C2190E5           LDR      R2,[R0, #+284]
   \   00000020   812082E0           ADD      R2,R2,R1, LSL #+1
   \   00000024   B050C2E1           STRH     R5,[R2, #+0]
   1745                TagBook->UAutor[i]=0;
   \   00000028   042190E5           LDR      R2,[R0, #+260]
   \   0000002C   812082E0           ADD      R2,R2,R1, LSL #+1
   \   00000030   B050C2E1           STRH     R5,[R2, #+0]
   1746                TagBook->UAlbum[i]=0;
   \   00000034   FC2090E5           LDR      R2,[R0, #+252]
   \   00000038   812082E0           ADD      R2,R2,R1, LSL #+1
   \   0000003C   B050C2E1           STRH     R5,[R2, #+0]
   1747                TagBook->UComment[i]=0;
   \   00000040   102190E5           LDR      R2,[R0, #+272]
   \   00000044   812082E0           ADD      R2,R2,R1, LSL #+1
   \   00000048   B050C2E1           STRH     R5,[R2, #+0]
   1748              }
   \   0000004C   011081E2           ADD      R1,R1,#+1
   \   00000050   1E0051E3           CMP      R1,#+30
   \   00000054   EFFFFFBA           BLT      ??DeleteTag_2
   1749              for(int i=0; i<=3; i++)
   \   00000058   0010A0E3           MOV      R1,#+0
   1750              {
   1751                TagBook->UYear[i]=0;
   \                     ??DeleteTag_3:
   \   0000005C   242190E5           LDR      R2,[R0, #+292]
   \   00000060   812082E0           ADD      R2,R2,R1, LSL #+1
   \   00000064   B050C2E1           STRH     R5,[R2, #+0]
   1752              }
   \   00000068   011081E2           ADD      R1,R1,#+1
   \   0000006C   040051E3           CMP      R1,#+4
   \   00000070   290000AA           BGE      ??DeleteTag_4
   \   00000074   F8FFFFEA           B        ??DeleteTag_3
   1753            }
   1754            if(x==1)
   \                     ??DeleteTag_1:
   \   00000078   010050E3           CMP      R0,#+1
   \   0000007C   2600001A           BNE      ??DeleteTag_4
   1755            {
   1756              for(int i=0; i<=(wstrlen(TagBook->UTitle2)-1); i++)
   \   00000080   0060A0E3           MOV      R6,#+0
   \   00000084   040000EA           B        ??DeleteTag_5
   1757              {
   1758                TagBook->UTitle2[i]=0;
   \                     ??DeleteTag_6:
   \   00000088   000094E5           LDR      R0,[R4, #+0]
   \   0000008C   200190E5           LDR      R0,[R0, #+288]
   \   00000090   860080E0           ADD      R0,R0,R6, LSL #+1
   \   00000094   B050C0E1           STRH     R5,[R0, #+0]
   1759              }
   \   00000098   016086E2           ADD      R6,R6,#+1
   \                     ??DeleteTag_5:
   \   0000009C   000094E5           LDR      R0,[R4, #+0]
   \   000000A0   200190E5           LDR      R0,[R0, #+288]
   \   000000A4   570100EF           SWI      +343
   \   000000A8   010040E2           SUB      R0,R0,#+1
   \   000000AC   060050E1           CMP      R0,R6
   \   000000B0   F4FFFFAA           BGE      ??DeleteTag_6
   1760              for(int i=0; i<=(wstrlen(TagBook->UAutor2)-1); i++)
   \   000000B4   0060A0E3           MOV      R6,#+0
   \   000000B8   040000EA           B        ??DeleteTag_7
   1761              {
   1762                TagBook->UAutor2[i]=0;
   \                     ??DeleteTag_8:
   \   000000BC   000094E5           LDR      R0,[R4, #+0]
   \   000000C0   080190E5           LDR      R0,[R0, #+264]
   \   000000C4   860080E0           ADD      R0,R0,R6, LSL #+1
   \   000000C8   B050C0E1           STRH     R5,[R0, #+0]
   1763              }
   \   000000CC   016086E2           ADD      R6,R6,#+1
   \                     ??DeleteTag_7:
   \   000000D0   000094E5           LDR      R0,[R4, #+0]
   \   000000D4   080190E5           LDR      R0,[R0, #+264]
   \   000000D8   570100EF           SWI      +343
   \   000000DC   010040E2           SUB      R0,R0,#+1
   \   000000E0   060050E1           CMP      R0,R6
   \   000000E4   F4FFFFAA           BGE      ??DeleteTag_8
   1764              for(int i=0; i<=(wstrlen(TagBook->UAlbum2)-1); i++)
   \   000000E8   0060A0E3           MOV      R6,#+0
   \   000000EC   040000EA           B        ??DeleteTag_9
   1765              {
   1766                TagBook->UAlbum2[i]=0;
   \                     ??DeleteTag_10:
   \   000000F0   000094E5           LDR      R0,[R4, #+0]
   \   000000F4   000190E5           LDR      R0,[R0, #+256]
   \   000000F8   860080E0           ADD      R0,R0,R6, LSL #+1
   \   000000FC   B050C0E1           STRH     R5,[R0, #+0]
   1767              }
   \   00000100   016086E2           ADD      R6,R6,#+1
   \                     ??DeleteTag_9:
   \   00000104   000094E5           LDR      R0,[R4, #+0]
   \   00000108   000190E5           LDR      R0,[R0, #+256]
   \   0000010C   570100EF           SWI      +343
   \   00000110   010040E2           SUB      R0,R0,#+1
   \   00000114   060050E1           CMP      R0,R6
   \   00000118   F4FFFFAA           BGE      ??DeleteTag_10
   1768            }
   1769            TagBook->change++;
   \                     ??DeleteTag_4:
   \   0000011C   000094E5           LDR      R0,[R4, #+0]
   \   00000120   781090E5           LDR      R1,[R0, #+120]
   \   00000124   011081E2           ADD      R1,R1,#+1
   \   00000128   781080E5           STR      R1,[R0, #+120]
   1770          }
   \   0000012C   7080BDE8           POP      {R4-R6,PC}       ;; return
   1771          

   \                                 In segment CODE, align 4, keep-with-next
   1772          void NewKey(DISP_OBJ* p, int i1, int i2, int i3, int i4)
   1773          {
   \                     ??NewKey:
   \   00000000   F0402DE9           PUSH     {R4-R7,LR}
   \   00000004   14609DE5           LDR      R6,[SP, #+20]
   1774            TagBook->OldKey(p, i1, i2, i3, i4);
   \   00000008   ........           LDR      R5,??DataTable177  ;; TagBook
   \   0000000C   0140A0E1           MOV      R4,R1
   \   00000010   0610A0E1           MOV      R1,R6
   \   00000014   02002DE9           PUSH     {R1}
   \   00000018   007095E5           LDR      R7,[R5, #+0]
   \   0000001C   0410A0E1           MOV      R1,R4
   \   00000020   E47097E5           LDR      R7,[R7, #+228]
   \   00000024   37FF2FE1           BLX      R7
   1775            if(i4==KBD_SHORT_RELEASE && i1==KEY_DEL)
   \   00000028   ........           LDR      R0,??DataTable170  ;; KBD_SHORT_RELEASE
   \   0000002C   000090E5           LDR      R0,[R0, #+0]
   \   00000030   04D08DE2           ADD      SP,SP,#+4
   \   00000034   000056E1           CMP      R6,R0
   \   00000038   F080BD18           POPNE    {R4-R7,PC}
   \   0000003C   ........           LDR      R0,??DataTable171  ;; KEY_DEL
   \   00000040   000090E5           LDR      R0,[R0, #+0]
   \   00000044   000054E1           CMP      R4,R0
   \   00000048   0500001A           BNE      ??NewKey_1
   1776            {
   1777              int sel=ListMenu_GetSelectedItem(TagBook->GlavMenu);
   \   0000004C   000095E5           LDR      R0,[R5, #+0]
   \   00000050   680090E5           LDR      R0,[R0, #+104]
   \   00000054   3E0100EF           SWI      +318
   1778              if(sel<=4)
   \   00000058   050050E3           CMP      R0,#+5
   \   0000005C   000000AA           BGE      ??NewKey_1
   1779              {
   1780                DeleteTag(sel);
   \   00000060   ........           BL       ??DeleteTag
   \                     ??NewKey_1:
   \   00000064   ........           LDR      R0,??DataTable172  ;; KEY_DIGITAL_0
   \   00000068   006090E5           LDR      R6,[R0, #+0]
   \   0000006C   060054E1           CMP      R4,R6
   \   00000070   0200001A           BNE      ??NewKey_2
   1781              }
   1782            }
   1783            if(i4==KBD_SHORT_RELEASE && i1==KEY_DIGITAL_0)
   1784            {
   1785              PlayF((BOOK*)TagBook,0);
   \   00000074   000095E5           LDR      R0,[R5, #+0]
   \   00000078   0010A0E3           MOV      R1,#+0
   \   0000007C   ........           BL       ??PlayF
   \                     ??NewKey_2:
   \   00000080   0070A0E3           MOV      R7,#+0
   \   00000084   010086E2           ADD      R0,R6,#+1
   \   00000088   000054E1           CMP      R4,R0
   \   0000008C   0600001A           BNE      ??NewKey_3
   1786            }
   1787            if(i4==KBD_SHORT_RELEASE && i1==(KEY_DIGITAL_0+1))
   1788            {
   1789              CreateML1(0);
   \   00000090   0000A0E3           MOV      R0,#+0
   \   00000094   ........           BL       ??CreateML1
   1790              GUIObject_Destroy(TagBook->GlavMenu);
   \   00000098   000095E5           LDR      R0,[R5, #+0]
   \   0000009C   680090E5           LDR      R0,[R0, #+104]
   \   000000A0   CE0100EF           SWI      +462
   1791              TagBook->GlavMenu=0;
   \   000000A4   000095E5           LDR      R0,[R5, #+0]
   \   000000A8   687080E5           STR      R7,[R0, #+104]
   \                     ??NewKey_3:
   \   000000AC   020086E2           ADD      R0,R6,#+2
   \   000000B0   000054E1           CMP      R4,R0
   \   000000B4   0600001A           BNE      ??NewKey_4
   1792            }
   1793            if(i4==KBD_SHORT_RELEASE && i1==(KEY_DIGITAL_0+2))
   1794            {
   1795              CreateML2(0);
   \   000000B8   0000A0E3           MOV      R0,#+0
   \   000000BC   ........           BL       ??CreateML2
   1796              GUIObject_Destroy(TagBook->GlavMenu);
   \   000000C0   000095E5           LDR      R0,[R5, #+0]
   \   000000C4   680090E5           LDR      R0,[R0, #+104]
   \   000000C8   CE0100EF           SWI      +462
   1797              TagBook->GlavMenu=0;
   \   000000CC   000095E5           LDR      R0,[R5, #+0]
   \   000000D0   687080E5           STR      R7,[R0, #+104]
   \                     ??NewKey_4:
   \   000000D4   030086E2           ADD      R0,R6,#+3
   \   000000D8   000054E1           CMP      R4,R0
   \   000000DC   0000001A           BNE      ??NewKey_5
   1798            }
   1799            if(i4==KBD_SHORT_RELEASE && i1==(KEY_DIGITAL_0+3))
   1800            {
   1801              ShowInfo();
   \   000000E0   ........           BL       ??ShowInfo
   \                     ??NewKey_5:
   \   000000E4   0B0086E2           ADD      R0,R6,#+11
   \   000000E8   000054E1           CMP      R4,R0
   \   000000EC   F080BD18           POPNE    {R4-R7,PC}
   1802            }
   1803            if(i4==KBD_SHORT_RELEASE && i1==(KEY_DIGITAL_0+11))
   1804            {
   1805              ShowInfo();
   \   000000F0   ........           BL       ??ShowInfo
   1806            }
   1807          }
   \   000000F4   F080BDE8           POP      {R4-R7,PC}       ;; return
   1808          

   \                                 In segment CODE, align 4, keep-with-next
   1809          void CreateGlavMenu(int x)
   1810          {
   \                     ??CreateGlavMenu:
   \   00000000   F0402DE9           PUSH     {R4-R7,LR}
   1811            GUI_LIST*GM=CreateListMenu((BOOK*)TagBook,0);
   \   00000004   ........           LDR      R5,??DataTable177  ;; TagBook
   \   00000008   0060A0E1           MOV      R6,R0
   \   0000000C   000095E5           LDR      R0,[R5, #+0]
   \   00000010   0010A0E3           MOV      R1,#+0
   \   00000014   C00100EF           SWI      +448
   \   00000018   0040A0E1           MOV      R4,R0
   1812            TagBook->GlavMenu=GM;
   \   0000001C   000095E5           LDR      R0,[R5, #+0]
   1813            GUIObject_SetTitleText(GM, TextID_Create(NAME_TAG_EDITOR,ENC_UCS2,TEXTID_ANY_LEN));
   \   00000020   FF70A0E3           MOV      R7,#+255
   \   00000024   684080E5           STR      R4,[R0, #+104]
   \   00000028   08019FE5           LDR      R0,??CreateGlavMenu_1  ;; `?<Constant L"\\x420\\x435\\x434\\x430\\x43a\\x442\\x4`
   \   0000002C   FF7C87E3           ORR      R7,R7,#0xFF00
   \   00000030   0720A0E1           MOV      R2,R7
   \   00000034   0010A0E3           MOV      R1,#+0
   \   00000038   5D0100EF           SWI      +349
   \   0000003C   0010A0E1           MOV      R1,R0
   \   00000040   0400A0E1           MOV      R0,R4
   \   00000044   330100EF           SWI      +307
   1814            ListMenu_SetItemCount(GM, 3);
   \   00000048   0310A0E3           MOV      R1,#+3
   \   0000004C   0400A0E1           MOV      R0,R4
   \   00000050   C10100EF           SWI      +449
   1815            OneOfMany_SetOnMessage(GM,SetTitlePunktsGM);
   \   00000054   E0109FE5           LDR      R1,??CreateGlavMenu_1+0x4  ;; ??SetTitlePunktsGM
   \   00000058   0400A0E1           MOV      R0,R4
   \   0000005C   E10100EF           SWI      +481
   1816            ListMenu_SetCursorToItem(GM,x);
   \   00000060   0610A0E1           MOV      R1,R6
   1817            ListMenu_SetItemStyle(GM,3);
   1818            GUIObject_SoftKeys_SetAction(GM,ACTION_BACK,ExitGM);
   \   00000064   D4609FE5           LDR      R6,??CreateGlavMenu_1+0x8  ;; ??ExitGM
   \   00000068   0400A0E1           MOV      R0,R4
   \   0000006C   350100EF           SWI      +309
   \   00000070   0310A0E3           MOV      R1,#+3
   \   00000074   0400A0E1           MOV      R0,R4
   \   00000078   3F0100EF           SWI      +319
   \   0000007C   ........           LDR      R0,??DataTable174  ;; ACTION_BACK
   \   00000080   0620A0E1           MOV      R2,R6
   \   00000084   001090E5           LDR      R1,[R0, #+0]
   \   00000088   0400A0E1           MOV      R0,R4
   \   0000008C   0118A0E1           MOV      R1,R1, LSL #+16
   \   00000090   2118A0E1           MOV      R1,R1, LSR #+16
   \   00000094   4B0100EF           SWI      +331
   1819            GUIObject_SoftKeys_SetAction(GM,ACTION_LONG_BACK,ExitGM);
   \   00000098   ........           LDR      R0,??DataTable175  ;; ACTION_LONG_BACK
   \   0000009C   0620A0E1           MOV      R2,R6
   \   000000A0   001090E5           LDR      R1,[R0, #+0]
   \   000000A4   0400A0E1           MOV      R0,R4
   \   000000A8   0118A0E1           MOV      R1,R1, LSL #+16
   \   000000AC   2118A0E1           MOV      R1,R1, LSR #+16
   \   000000B0   4B0100EF           SWI      +331
   1820            GUIObject_SoftKeys_SetAction(GM,ACTION_SELECT1,OnEntGM);	
   \   000000B4   ........           LDR      R0,??DataTable176  ;; ACTION_SELECT1
   \   000000B8   84209FE5           LDR      R2,??CreateGlavMenu_1+0xC  ;; ??OnEntGM
   \   000000BC   001090E5           LDR      R1,[R0, #+0]
   \   000000C0   0400A0E1           MOV      R0,R4
   \   000000C4   0118A0E1           MOV      R1,R1, LSL #+16
   \   000000C8   2118A0E1           MOV      R1,R1, LSR #+16
   \   000000CC   4B0100EF           SWI      +331
   1821            GUIObject_SoftKeys_SetAction(GM,1,PlayF);
   \   000000D0   70209FE5           LDR      R2,??CreateGlavMenu_1+0x10  ;; ??PlayF
   \   000000D4   0110A0E3           MOV      R1,#+1
   \   000000D8   0400A0E1           MOV      R0,R4
   \   000000DC   4B0100EF           SWI      +331
   1822            GUIObject_SoftKeys_SetText(GM,1,TextID_Create(TagBook->PlayText,ENC_UCS2,TEXTID_ANY_LEN));
   \   000000E0   000095E5           LDR      R0,[R5, #+0]
   \   000000E4   0720A0E1           MOV      R2,R7
   \   000000E8   0010A0E3           MOV      R1,#+0
   \   000000EC   4A0F80E2           ADD      R0,R0,#+296
   \   000000F0   5D0100EF           SWI      +349
   \   000000F4   0020A0E1           MOV      R2,R0
   \   000000F8   0110A0E3           MOV      R1,#+1
   \   000000FC   0400A0E1           MOV      R0,R4
   \   00000100   4C0100EF           SWI      +332
   1823            TagBook->OldKey = DispObject_GetOnKey( GUIObject_GetDispObject(GM) );
   \   00000104   0400A0E1           MOV      R0,R4
   \   00000108   680100EF           SWI      +360
   \   0000010C   2B0200EF           SWI      +555
   \   00000110   001095E5           LDR      R1,[R5, #+0]
   \   00000114   E40081E5           STR      R0,[R1, #+228]
   1824            DISP_DESC_SetOnKey( DispObject_GetDESC ( GUIObject_GetDispObject(GM) ), NewKey);
   \   00000118   0400A0E1           MOV      R0,R4
   \   0000011C   680100EF           SWI      +360
   \   00000120   1F0200EF           SWI      +543
   \   00000124   20109FE5           LDR      R1,??CreateGlavMenu_1+0x14  ;; ??NewKey
   \   00000128   2A0200EF           SWI      +554
   1825            GUIObject_Show(GM);
   \   0000012C   0400A0E1           MOV      R0,R4
   \   00000130   340100EF           SWI      +308
   1826          }
   \   00000134   F080BDE8           POP      {R4-R7,PC}       ;; return
   \                     ??CreateGlavMenu_1:
   \   00000138   ........           DC32     `?<Constant L"\\x420\\x435\\x434\\x430\\x43a\\x442\\x4`
   \   0000013C   ........           DC32     ??SetTitlePunktsGM
   \   00000140   ........           DC32     ??ExitGM
   \   00000144   ........           DC32     ??OnEntGM
   \   00000148   ........           DC32     ??PlayF
   \   0000014C   ........           DC32     ??NewKey
   1827            
   1828          

   \                                 In segment CODE, align 4, keep-with-next
   1829          void ID1()
   1830          {
   \                     ??ID1:
   \   00000000   10402DE9           PUSH     {R4,LR}
   1831            TagBook->Title=new char[31];
   \   00000004   ........           LDR      R4,??DataTable177  ;; TagBook
   \   00000008   1F00A0E3           MOV      R0,#+31
   \   0000000C   ........           _BLF     `??operator new[]`,`??operator new[]??rA`
   \   00000010   001094E5           LDR      R1,[R4, #+0]
   \   00000014   380081E5           STR      R0,[R1, #+56]
   1832            TagBook->Autor=new char[31];
   \   00000018   1F00A0E3           MOV      R0,#+31
   \   0000001C   ........           _BLF     `??operator new[]`,`??operator new[]??rA`
   \   00000020   001094E5           LDR      R1,[R4, #+0]
   \   00000024   200081E5           STR      R0,[R1, #+32]
   1833            TagBook->Album=new char[31];
   \   00000028   1F00A0E3           MOV      R0,#+31
   \   0000002C   ........           _BLF     `??operator new[]`,`??operator new[]??rA`
   \   00000030   001094E5           LDR      R1,[R4, #+0]
   \   00000034   180081E5           STR      R0,[R1, #+24]
   1834            TagBook->Year=new char[5];
   \   00000038   0500A0E3           MOV      R0,#+5
   \   0000003C   ........           _BLF     `??operator new[]`,`??operator new[]??rA`
   \   00000040   001094E5           LDR      R1,[R4, #+0]
   \   00000044   400081E5           STR      R0,[R1, #+64]
   1835            TagBook->Comment=new char[31];
   \   00000048   1F00A0E3           MOV      R0,#+31
   \   0000004C   ........           _BLF     `??operator new[]`,`??operator new[]??rA`
   \   00000050   001094E5           LDR      R1,[R4, #+0]
   \   00000054   300081E5           STR      R0,[R1, #+48]
   1836            TagBook->UTitle=new wchar_t[31];
   \   00000058   3E00A0E3           MOV      R0,#+62
   \   0000005C   ........           _BLF     `??operator new[]`,`??operator new[]??rA`
   \   00000060   001094E5           LDR      R1,[R4, #+0]
   \   00000064   1C0181E5           STR      R0,[R1, #+284]
   1837            TagBook->UAutor=new wchar_t[31];
   \   00000068   3E00A0E3           MOV      R0,#+62
   \   0000006C   ........           _BLF     `??operator new[]`,`??operator new[]??rA`
   \   00000070   001094E5           LDR      R1,[R4, #+0]
   \   00000074   040181E5           STR      R0,[R1, #+260]
   1838            TagBook->UAlbum=new wchar_t[31];
   \   00000078   3E00A0E3           MOV      R0,#+62
   \   0000007C   ........           _BLF     `??operator new[]`,`??operator new[]??rA`
   \   00000080   001094E5           LDR      R1,[R4, #+0]
   \   00000084   FC0081E5           STR      R0,[R1, #+252]
   1839            TagBook->UYear=new wchar_t[5];
   \   00000088   0A00A0E3           MOV      R0,#+10
   \   0000008C   ........           _BLF     `??operator new[]`,`??operator new[]??rA`
   \   00000090   001094E5           LDR      R1,[R4, #+0]
   \   00000094   240181E5           STR      R0,[R1, #+292]
   1840            TagBook->UComment=new wchar_t[31];
   \   00000098   3E00A0E3           MOV      R0,#+62
   \   0000009C   ........           _BLF     `??operator new[]`,`??operator new[]??rA`
   \   000000A0   001094E5           LDR      R1,[R4, #+0]
   \   000000A4   100181E5           STR      R0,[R1, #+272]
   1841            TagBook->PosTitle=128-125;
   \   000000A8   0300A0E3           MOV      R0,#+3
   \   000000AC   BC0081E5           STR      R0,[R1, #+188]
   1842            TagBook->PosAutor=128-125+30;
   \   000000B0   2100A0E3           MOV      R0,#+33
   \   000000B4   B00081E5           STR      R0,[R1, #+176]
   1843            TagBook->PosAlbum=128-125+60;
   \   000000B8   3F00A0E3           MOV      R0,#+63
   \   000000BC   A80081E5           STR      R0,[R1, #+168]
   1844            TagBook->PosYear=128-125+90;
   \   000000C0   5D00A0E3           MOV      R0,#+93
   \   000000C4   C40081E5           STR      R0,[R1, #+196]
   1845            TagBook->PosComment=128-125+94;
   \   000000C8   6100A0E3           MOV      R0,#+97
   \   000000CC   B80081E5           STR      R0,[R1, #+184]
   1846            if(TagBook->buffer[0]!='T' && TagBook->buffer[1]!='A' && TagBook->buffer[2]!='G')
   \   000000D0   282091E5           LDR      R2,[R1, #+40]
   \   000000D4   0000D2E5           LDRB     R0,[R2, #+0]
   \   000000D8   540050E3           CMP      R0,#+84
   \   000000DC   0100D215           LDRBNE   R0,[R2, #+1]
   \   000000E0   41005013           CMPNE    R0,#+65
   \   000000E4   0200D215           LDRBNE   R0,[R2, #+2]
   \   000000E8   47005013           CMPNE    R0,#+71
   \   000000EC   2500000A           BEQ      ??ID1_1
   1847            {
   1848              TagBook->ID3v1=0;
   \   000000F0   0000A0E3           MOV      R0,#+0
   \   000000F4   880081E5           STR      R0,[R1, #+136]
   1849              TagBook->buffer[0]='T';
   \   000000F8   5410A0E3           MOV      R1,#+84
   \   000000FC   0010C2E5           STRB     R1,[R2, #+0]
   1850              TagBook->buffer[1]='A';
   \   00000100   001094E5           LDR      R1,[R4, #+0]
   \   00000104   4120A0E3           MOV      R2,#+65
   \   00000108   281091E5           LDR      R1,[R1, #+40]
   \   0000010C   0120C1E5           STRB     R2,[R1, #+1]
   1851              TagBook->buffer[2]='G';
   \   00000110   001094E5           LDR      R1,[R4, #+0]
   \   00000114   4720A0E3           MOV      R2,#+71
   \   00000118   281091E5           LDR      R1,[R1, #+40]
   \   0000011C   0220C1E5           STRB     R2,[R1, #+2]
   1852              TagBook->genre=0;
   \   00000120   001094E5           LDR      R1,[R4, #+0]
   \   00000124   7C0081E5           STR      R0,[R1, #+124]
   1853              for(int i=0;i<=29;i++)
   \   00000128   0010A0E3           MOV      R1,#+0
   1854              {
   1855                TagBook->Title[i]=0;
   \                     ??ID1_2:
   \   0000012C   002094E5           LDR      R2,[R4, #+0]
   \   00000130   382092E5           LDR      R2,[R2, #+56]
   \   00000134   0200C1E7           STRB     R0,[R1, +R2]
   1856                TagBook->Autor[i]=0;
   \   00000138   002094E5           LDR      R2,[R4, #+0]
   \   0000013C   202092E5           LDR      R2,[R2, #+32]
   \   00000140   0200C1E7           STRB     R0,[R1, +R2]
   1857                TagBook->Album[i]=0;
   \   00000144   002094E5           LDR      R2,[R4, #+0]
   \   00000148   182092E5           LDR      R2,[R2, #+24]
   \   0000014C   0200C1E7           STRB     R0,[R1, +R2]
   1858                TagBook->Comment[i]=0;
   \   00000150   002094E5           LDR      R2,[R4, #+0]
   \   00000154   302092E5           LDR      R2,[R2, #+48]
   \   00000158   0200C1E7           STRB     R0,[R1, +R2]
   1859              }
   \   0000015C   011081E2           ADD      R1,R1,#+1
   \   00000160   1E0051E3           CMP      R1,#+30
   \   00000164   F0FFFFBA           BLT      ??ID1_2
   1860              for(int i=0; i<=3; i++)
   \   00000168   0010A0E3           MOV      R1,#+0
   1861              {
   1862                TagBook->Year[i]=0;
   \                     ??ID1_3:
   \   0000016C   002094E5           LDR      R2,[R4, #+0]
   \   00000170   402092E5           LDR      R2,[R2, #+64]
   \   00000174   0200C1E7           STRB     R0,[R1, +R2]
   1863              }
   \   00000178   011081E2           ADD      R1,R1,#+1
   \   0000017C   040051E3           CMP      R1,#+4
   \   00000180   2F0000AA           BGE      ??ID1_4
   \   00000184   F8FFFFEA           B        ??ID1_3
   1864            }
   1865            else
   1866            {
   1867              TagBook->ID3v1=1;
   \                     ??ID1_1:
   \   00000188   0100A0E3           MOV      R0,#+1
   \   0000018C   880081E5           STR      R0,[R1, #+136]
   1868              TagBook->genre=TagBook->buffer[127];
   \   00000190   7F00D2E5           LDRB     R0,[R2, #+127]
   \   00000194   7C0081E5           STR      R0,[R1, #+124]
   1869              for(int i=0;i<=29;i++)
   \   00000198   0000A0E3           MOV      R0,#+0
   1870              {
   1871                TagBook->Title[i]=TagBook->buffer[TagBook->PosTitle+i];
   \                     ??ID1_5:
   \   0000019C   001094E5           LDR      R1,[R4, #+0]
   \   000001A0   382091E5           LDR      R2,[R1, #+56]
   \   000001A4   BC3091E5           LDR      R3,[R1, #+188]
   \   000001A8   281091E5           LDR      R1,[R1, #+40]
   \   000001AC   033080E0           ADD      R3,R0,R3
   \   000001B0   0110D3E7           LDRB     R1,[R3, +R1]
   \   000001B4   0210C0E7           STRB     R1,[R0, +R2]
   1872                TagBook->Autor[i]=TagBook->buffer[TagBook->PosAutor+i];
   \   000001B8   001094E5           LDR      R1,[R4, #+0]
   \   000001BC   202091E5           LDR      R2,[R1, #+32]
   \   000001C0   B03091E5           LDR      R3,[R1, #+176]
   \   000001C4   281091E5           LDR      R1,[R1, #+40]
   \   000001C8   033080E0           ADD      R3,R0,R3
   \   000001CC   0110D3E7           LDRB     R1,[R3, +R1]
   \   000001D0   0210C0E7           STRB     R1,[R0, +R2]
   1873                TagBook->Album[i]=TagBook->buffer[TagBook->PosAlbum+i];
   \   000001D4   001094E5           LDR      R1,[R4, #+0]
   \   000001D8   182091E5           LDR      R2,[R1, #+24]
   \   000001DC   A83091E5           LDR      R3,[R1, #+168]
   \   000001E0   281091E5           LDR      R1,[R1, #+40]
   \   000001E4   033080E0           ADD      R3,R0,R3
   \   000001E8   0110D3E7           LDRB     R1,[R3, +R1]
   \   000001EC   0210C0E7           STRB     R1,[R0, +R2]
   1874                TagBook->Comment[i]=TagBook->buffer[TagBook->PosComment+i];
   \   000001F0   001094E5           LDR      R1,[R4, #+0]
   \   000001F4   302091E5           LDR      R2,[R1, #+48]
   \   000001F8   B83091E5           LDR      R3,[R1, #+184]
   \   000001FC   281091E5           LDR      R1,[R1, #+40]
   \   00000200   033080E0           ADD      R3,R0,R3
   \   00000204   0110D3E7           LDRB     R1,[R3, +R1]
   \   00000208   0210C0E7           STRB     R1,[R0, +R2]
   1875              }
   \   0000020C   010080E2           ADD      R0,R0,#+1
   \   00000210   1E0050E3           CMP      R0,#+30
   \   00000214   E0FFFFBA           BLT      ??ID1_5
   1876              for(int i=0; i<=3; i++)
   \   00000218   0000A0E3           MOV      R0,#+0
   1877              {
   1878                TagBook->Year[i]=TagBook->buffer[TagBook->PosYear+i];
   \                     ??ID1_6:
   \   0000021C   001094E5           LDR      R1,[R4, #+0]
   \   00000220   402091E5           LDR      R2,[R1, #+64]
   \   00000224   C43091E5           LDR      R3,[R1, #+196]
   \   00000228   281091E5           LDR      R1,[R1, #+40]
   \   0000022C   033080E0           ADD      R3,R0,R3
   \   00000230   0110D3E7           LDRB     R1,[R3, +R1]
   \   00000234   0210C0E7           STRB     R1,[R0, +R2]
   1879              }
   \   00000238   010080E2           ADD      R0,R0,#+1
   \   0000023C   040050E3           CMP      R0,#+4
   \   00000240   F5FFFFBA           BLT      ??ID1_6
   1880            }
   1881            if(TagBook->Title[0]==0)
   \                     ??ID1_4:
   \   00000244   003094E5           LDR      R3,[R4, #+0]
   \   00000248   1C0193E5           LDR      R0,[R3, #+284]
   \   0000024C   381093E5           LDR      R1,[R3, #+56]
   \   00000250   0020D1E5           LDRB     R2,[R1, #+0]
   \   00000254   000052E3           CMP      R2,#+0
   1882            {
   1883              win12512unicode(TagBook->UTitle, TagBook->newname, 30);
   \   00000258   34109305           LDREQ    R1,[R3, #+52]
   \   0000025C   1E20A0E3           MOV      R2,#+30
   1884            }
   1885            else
   1886            {
   1887              win12512unicode(TagBook->UTitle, TagBook->Title, 30);
   \   00000260   ........           BL       ??win12512unicode
   1888            }
   1889            win12512unicode(TagBook->UAutor, TagBook->Autor, 30);
   \   00000264   000094E5           LDR      R0,[R4, #+0]
   \   00000268   1E20A0E3           MOV      R2,#+30
   \   0000026C   201090E5           LDR      R1,[R0, #+32]
   \   00000270   040190E5           LDR      R0,[R0, #+260]
   \   00000274   ........           BL       ??win12512unicode
   1890            win12512unicode(TagBook->UAlbum, TagBook->Album, 30);
   \   00000278   000094E5           LDR      R0,[R4, #+0]
   \   0000027C   1E20A0E3           MOV      R2,#+30
   \   00000280   181090E5           LDR      R1,[R0, #+24]
   \   00000284   FC0090E5           LDR      R0,[R0, #+252]
   \   00000288   ........           BL       ??win12512unicode
   1891            win12512unicode(TagBook->UYear, TagBook->Year, 4);
   \   0000028C   000094E5           LDR      R0,[R4, #+0]
   \   00000290   0420A0E3           MOV      R2,#+4
   \   00000294   401090E5           LDR      R1,[R0, #+64]
   \   00000298   240190E5           LDR      R0,[R0, #+292]
   \   0000029C   ........           BL       ??win12512unicode
   1892            win12512unicode(TagBook->UComment, TagBook->Comment, 30);
   \   000002A0   000094E5           LDR      R0,[R4, #+0]
   \   000002A4   1E20A0E3           MOV      R2,#+30
   \   000002A8   301090E5           LDR      R1,[R0, #+48]
   \   000002AC   100190E5           LDR      R0,[R0, #+272]
   \   000002B0   ........           BL       ??win12512unicode
   1893          } 
   \   000002B4   1080BDE8           POP      {R4,PC}          ;; return
   1894          

   \                                 In segment CODE, align 4, keep-with-next
   1895          static int CreateGui(void *data, BOOK * book)
   1896          {
   \                     ??CreateGui:
   \   00000000   00402DE9           PUSH     {LR}
   1897            CreateGlavMenu(0);
   \   00000004   0000A0E3           MOV      R0,#+0
   \   00000008   ........           BL       ??CreateGlavMenu
   1898            return(0);
   \   0000000C   0000A0E3           MOV      R0,#+0
   \   00000010   0080BDE8           POP      {PC}             ;; return
   1899          }
   1900          

   \                                 In segment DYN_PAGE, align 4, align-sorted
   1901          const PAGE_MSG bk_msglst_work[] @ "DYN_PAGE"  =
   \                     bk_msglst_work:
   \   00000000   42000000....       DC32 66, ??CreateGui, 64, 0H
   \              ....40000000
   \              00000000    
   1902          {
   1903            PAGE_ENTER_EVENT_TAG,    CreateGui,
   1904            NIL_EVENT_TAG,           NULL
   1905          };
   1906          
   1907          const PAGE_DESC base_page_work = {"TagEditor_base_work",0,bk_msglst_work};
   1908          

   \                                 In segment CODE, align 4, keep-with-next
   1909          void FileRead(wchar_t*path,wchar_t*name)
   1910          {
   \                     ??FileRead:
   \   00000000   F0432DE9           PUSH     {R4-R9,LR}
   1911            FSTAT _fstat;
   1912            fstat(path,name,&_fstat);
   1913            TagBook->lenn=wstrlen(name);
   \   00000004   ........           LDR      R4,??DataTable180  ;; TagBook
   \   00000008   2CD04DE2           SUB      SP,SP,#+44
   \   0000000C   0070A0E1           MOV      R7,R0
   \   00000010   0190A0E1           MOV      R9,R1
   1914            TagBook->name=new wchar_t[TagBook->lenn+1];    
   1915            wstrcpy(TagBook->name, name);
   1916            TagBook->newname=new char[TagBook->lenn+1];
   1917            unicode2win1251(TagBook->newname,TagBook->name,TagBook->lenn);
   1918            TagBook->newname[TagBook->lenn-1]='3';
   1919            TagBook->newname[TagBook->lenn-2]='p';
   1920            TagBook->newname[TagBook->lenn-3]='m';   
   1921            TagBook->newname[TagBook->lenn-4]='.';
   1922            TagBook->Unewname=new wchar_t[TagBook->lenn+1];
   1923            win12512unicode(TagBook->Unewname,TagBook->newname,TagBook->lenn);
   1924            TagBook->lenp=wstrlen(path);
   1925            TagBook->path=new wchar_t[TagBook->lenp+1];
   1926            wstrcpy(TagBook->path, path);        
   1927            TagBook->size=_fstat.fsize;
   1928            TagBook->change=0;
   1929            TagBook->PlayMode=0;
   1930            wstrcpy(TagBook->PlayText,SOFTKEY_STATUS_PLAY);
   \   00000014   ........           LDR      R6,??DataTable179  ;; `?<Constant L"\\x421\\x442\\x43e\\x43f">`
   \   00000018   10208DE2           ADD      R2,SP,#+16
   \   0000001C   1C0100EF           SWI      +284
   \   00000020   0900A0E1           MOV      R0,R9
   \   00000024   570100EF           SWI      +343
   \   00000028   001094E5           LDR      R1,[R4, #+0]
   \   0000002C   3380A0E3           MOV      R8,#+51
   \   00000030   900081E5           STR      R0,[R1, #+144]
   \   00000034   010080E2           ADD      R0,R0,#+1
   \   00000038   8000A0E1           LSL      R0,R0,#+1
   \   0000003C   ........           _BLF     `??operator new[]`,`??operator new[]??rA`
   \   00000040   002094E5           LDR      R2,[R4, #+0]
   \   00000044   0910A0E1           MOV      R1,R9
   \   00000048   F00082E5           STR      R0,[R2, #+240]
   \   0000004C   520100EF           SWI      +338
   \   00000050   000094E5           LDR      R0,[R4, #+0]
   \   00000054   0050A0E3           MOV      R5,#+0
   \   00000058   900090E5           LDR      R0,[R0, #+144]
   \   0000005C   010080E2           ADD      R0,R0,#+1
   \   00000060   ........           _BLF     `??operator new[]`,`??operator new[]??rA`
   \   00000064   003094E5           LDR      R3,[R4, #+0]
   \   00000068   340083E5           STR      R0,[R3, #+52]
   \   0000006C   902093E5           LDR      R2,[R3, #+144]
   \   00000070   F01093E5           LDR      R1,[R3, #+240]
   \   00000074   ........           BL       ??unicode2win1251
   \   00000078   000094E5           LDR      R0,[R4, #+0]
   \   0000007C   901090E5           LDR      R1,[R0, #+144]
   \   00000080   340090E5           LDR      R0,[R0, #+52]
   \   00000084   000081E0           ADD      R0,R1,R0
   \   00000088   018040E5           STRB     R8,[R0, #-1]
   \   0000008C   000094E5           LDR      R0,[R4, #+0]
   \   00000090   901090E5           LDR      R1,[R0, #+144]
   \   00000094   340090E5           LDR      R0,[R0, #+52]
   \   00000098   000081E0           ADD      R0,R1,R0
   \   0000009C   7010A0E3           MOV      R1,#+112
   \   000000A0   021040E5           STRB     R1,[R0, #-2]
   \   000000A4   000094E5           LDR      R0,[R4, #+0]
   \   000000A8   901090E5           LDR      R1,[R0, #+144]
   \   000000AC   340090E5           LDR      R0,[R0, #+52]
   \   000000B0   000081E0           ADD      R0,R1,R0
   \   000000B4   6D10A0E3           MOV      R1,#+109
   \   000000B8   031040E5           STRB     R1,[R0, #-3]
   \   000000BC   000094E5           LDR      R0,[R4, #+0]
   \   000000C0   901090E5           LDR      R1,[R0, #+144]
   \   000000C4   340090E5           LDR      R0,[R0, #+52]
   \   000000C8   000081E0           ADD      R0,R1,R0
   \   000000CC   2E10A0E3           MOV      R1,#+46
   \   000000D0   041040E5           STRB     R1,[R0, #-4]
   \   000000D4   000094E5           LDR      R0,[R4, #+0]
   \   000000D8   900090E5           LDR      R0,[R0, #+144]
   \   000000DC   010080E2           ADD      R0,R0,#+1
   \   000000E0   8000A0E1           LSL      R0,R0,#+1
   \   000000E4   ........           _BLF     `??operator new[]`,`??operator new[]??rA`
   \   000000E8   003094E5           LDR      R3,[R4, #+0]
   \   000000EC   180183E5           STR      R0,[R3, #+280]
   \   000000F0   902093E5           LDR      R2,[R3, #+144]
   \   000000F4   341093E5           LDR      R1,[R3, #+52]
   \   000000F8   ........           BL       ??win12512unicode
   \   000000FC   0700A0E1           MOV      R0,R7
   \   00000100   570100EF           SWI      +343
   \   00000104   001094E5           LDR      R1,[R4, #+0]
   \   00000108   940081E5           STR      R0,[R1, #+148]
   \   0000010C   010080E2           ADD      R0,R0,#+1
   \   00000110   8000A0E1           LSL      R0,R0,#+1
   \   00000114   ........           _BLF     `??operator new[]`,`??operator new[]??rA`
   \   00000118   002094E5           LDR      R2,[R4, #+0]
   \   0000011C   0710A0E1           MOV      R1,R7
   \   00000120   F40082E5           STR      R0,[R2, #+244]
   \   00000124   520100EF           SWI      +338
   \   00000128   000094E5           LDR      R0,[R4, #+0]
   \   0000012C   18109DE5           LDR      R1,[SP, #+24]
   \   00000130   CC1080E5           STR      R1,[R0, #+204]
   \   00000134   785080E5           STR      R5,[R0, #+120]
   \   00000138   985080E5           STR      R5,[R0, #+152]
   \   0000013C   0C1086E2           ADD      R1,R6,#+12
   \   00000140   4A0F80E2           ADD      R0,R0,#+296
   \   00000144   520100EF           SWI      +338
   1931            int file;
   1932            file=_fopen(path,name, FSX_O_RDONLY, FSX_S_IREAD|FSX_S_IWRITE, 0);
   \   00000148   0000A0E3           MOV      R0,#+0
   \   0000014C   01002DE9           PUSH     {R0}
   \   00000150   603FA0E3           MOV      R3,#+384
   \   00000154   0120A0E3           MOV      R2,#+1
   \   00000158   0910A0E1           MOV      R1,R9
   \   0000015C   0700A0E1           MOV      R0,R7
   \   00000160   160100EF           SWI      +278
   \   00000164   0070A0E1           MOV      R7,R0
   1933            TagBook->buffer=(char*)malloc(128+1);
   \   00000168   8100A0E3           MOV      R0,#+129
   \   0000016C   030100EF           SWI      +259
   \   00000170   001094E5           LDR      R1,[R4, #+0]
   1934            lseek(file, TagBook->size-128, 0);
   \   00000174   0520A0E1           MOV      R2,R5
   \   00000178   280081E5           STR      R0,[R1, #+40]
   \   0000017C   CC0091E5           LDR      R0,[R1, #+204]
   \   00000180   7F10E0E3           MVN      R1,#+127
   \   00000184   001081E0           ADD      R1,R1,R0
   \   00000188   0700A0E1           MOV      R0,R7
   \   0000018C   760100EF           SWI      +374
   1935            fread(file, TagBook->buffer, 128);
   \   00000190   000094E5           LDR      R0,[R4, #+0]
   \   00000194   8020A0E3           MOV      R2,#+128
   \   00000198   281090E5           LDR      R1,[R0, #+40]
   \   0000019C   0700A0E1           MOV      R0,R7
   \   000001A0   180100EF           SWI      +280
   1936            ID1();
   \   000001A4   ........           BL       ??ID1
   1937            char BUF[10+1];
   1938            lseek(file,0,0);
   \   000001A8   0520A0E1           MOV      R2,R5
   \   000001AC   0210A0E1           MOV      R1,R2
   \   000001B0   0700A0E1           MOV      R0,R7
   \   000001B4   760100EF           SWI      +374
   1939            fread(file, BUF, 10);
   \   000001B8   0A20A0E3           MOV      R2,#+10
   \   000001BC   08108DE2           ADD      R1,SP,#+8
   \   000001C0   0700A0E1           MOV      R0,R7
   \   000001C4   180100EF           SWI      +280
   1940            TagBook->ID3=0;
   \   000001C8   009094E5           LDR      R9,[R4, #+0]
   \   000001CC   845089E5           STR      R5,[R9, #+132]
   1941            TagBook->pos2_Title=0;
   \   000001D0   A45089E5           STR      R5,[R9, #+164]
   1942            TagBook->pos2_Autor=0;
   \   000001D4   A05089E5           STR      R5,[R9, #+160]
   1943            TagBook->pos2_Album=0;
   \   000001D8   9C5089E5           STR      R5,[R9, #+156]
   1944            TagBook->sizeTitle2=0;
   \   000001DC   E05089E5           STR      R5,[R9, #+224]
   1945            TagBook->sizeAutor2=0;
   \   000001E0   DC5089E5           STR      R5,[R9, #+220]
   1946            TagBook->sizeAlbum2=0;
   \   000001E4   D85089E5           STR      R5,[R9, #+216]
   1947            TagBook->Title2=0;
   \   000001E8   3C5089E5           STR      R5,[R9, #+60]
   1948            TagBook->Autor2=0;
   \   000001EC   245089E5           STR      R5,[R9, #+36]
   1949            TagBook->Album2=0;
   \   000001F0   1C5089E5           STR      R5,[R9, #+28]
   1950            TagBook->UTitle2=0;
   \   000001F4   205189E5           STR      R5,[R9, #+288]
   1951            TagBook->UAutor2=0;
   \   000001F8   085189E5           STR      R5,[R9, #+264]
   1952            TagBook->UAlbum2=0;
   \   000001FC   005189E5           STR      R5,[R9, #+256]
   1953            if(BUF[0]=='I'&&BUF[1]=='D'&&BUF[2]=='3')
   \   00000200   0800DDE5           LDRB     R0,[SP, #+8]
   \   00000204   04D08DE2           ADD      SP,SP,#+4
   \   00000208   490050E3           CMP      R0,#+73
   \   0000020C   0500DD05           LDRBEQ   R0,[SP, #+5]
   \   00000210   44005003           CMPEQ    R0,#+68
   \   00000214   0600DD05           LDRBEQ   R0,[SP, #+6]
   \   00000218   33005003           CMPEQ    R0,#+51
   \   0000021C   9901001A           BNE      ??FileRead_1
   1954            {
   1955              TagBook->ID3=1;
   \   00000220   0100A0E3           MOV      R0,#+1
   \   00000224   840089E5           STR      R0,[R9, #+132]
   1956              char tagSize[4];
   1957              tagSize[0]=BUF[6];
   \   00000228   0A10DDE5           LDRB     R1,[SP, #+10]
   1958              tagSize[1]=BUF[7];
   1959              tagSize[2]=BUF[8];
   1960              tagSize[3]=BUF[9];
   1961              TagBook->size_id3=synchsafeToNormal(tagSize);
   \   0000022C   0D00A0E1           MOV      R0,SP
   \   00000230   0010CDE5           STRB     R1,[SP, #+0]
   \   00000234   0B10DDE5           LDRB     R1,[SP, #+11]
   \   00000238   0110CDE5           STRB     R1,[SP, #+1]
   \   0000023C   0C10DDE5           LDRB     R1,[SP, #+12]
   \   00000240   0210CDE5           STRB     R1,[SP, #+2]
   \   00000244   0D10DDE5           LDRB     R1,[SP, #+13]
   \   00000248   0310CDE5           STRB     R1,[SP, #+3]
   \   0000024C   ........           BL       ??synchsafeToNormal
   \   00000250   D00089E5           STR      R0,[R9, #+208]
   1962              lseek(file,0,0);
   \   00000254   0020A0E3           MOV      R2,#+0
   \   00000258   0210A0E1           MOV      R1,R2
   \   0000025C   0700A0E1           MOV      R0,R7
   \   00000260   760100EF           SWI      +374
   1963              TagBook->buffer2=new char[TagBook->size_id3+1];
   \   00000264   000094E5           LDR      R0,[R4, #+0]
   \   00000268   D00090E5           LDR      R0,[R0, #+208]
   \   0000026C   010080E2           ADD      R0,R0,#+1
   \   00000270   ........           _BLF     `??operator new[]`,`??operator new[]??rA`
   \   00000274   001094E5           LDR      R1,[R4, #+0]
   \   00000278   2C0081E5           STR      R0,[R1, #+44]
   1964              fread(file,TagBook->buffer2,TagBook->size_id3);
   \   0000027C   D02091E5           LDR      R2,[R1, #+208]
   \   00000280   0010A0E1           MOV      R1,R0
   \   00000284   0700A0E1           MOV      R0,R7
   \   00000288   180100EF           SWI      +280
   1965              TagBook->pos2_Title=-1;
   \   0000028C   000094E5           LDR      R0,[R4, #+0]
   \   00000290   0510E0E1           MVN      R1,R5
   \   00000294   A41080E5           STR      R1,[R0, #+164]
   1966              TagBook->pos2_Autor=-1;
   \   00000298   A01080E5           STR      R1,[R0, #+160]
   1967              TagBook->pos2_Album=-1;
   \   0000029C   9C1080E5           STR      R1,[R0, #+156]
   1968              for(int i=0; i<=TagBook->size_id3-4; i++)
   \   000002A0   D02090E5           LDR      R2,[R0, #+208]
   \   000002A4   0510A0E1           MOV      R1,R5
   \   000002A8   042052E2           SUBS     R2,R2,#+4
   \   000002AC   0D00004A           BMI      ??FileRead_2
   1969              {
   1970                if(TagBook->buffer2[i]=='T' && TagBook->buffer2[i+1]=='I' && TagBook->buffer2[i+2]=='T' && TagBook->buffer2[i+3]=='2')
   \                     ??FileRead_3:
   \   000002B0   2C3090E5           LDR      R3,[R0, #+44]
   \   000002B4   033081E0           ADD      R3,R1,R3
   \   000002B8   0080D3E5           LDRB     R8,[R3, #+0]
   \   000002BC   540058E3           CMP      R8,#+84
   \   000002C0   0180D305           LDRBEQ   R8,[R3, #+1]
   \   000002C4   49005803           CMPEQ    R8,#+73
   \   000002C8   0280D305           LDRBEQ   R8,[R3, #+2]
   \   000002CC   54005803           CMPEQ    R8,#+84
   \   000002D0   0330D305           LDRBEQ   R3,[R3, #+3]
   \   000002D4   32005303           CMPEQ    R3,#+50
   1971                {
   1972                  TagBook->pos2_Title=i;
   \   000002D8   A4108005           STREQ    R1,[R0, #+164]
   1973                }
   1974              }
   \   000002DC   011081E2           ADD      R1,R1,#+1
   \   000002E0   010052E1           CMP      R2,R1
   \   000002E4   F1FFFFAA           BGE      ??FileRead_3
   1975              if(TagBook->pos2_Title)
   \                     ??FileRead_2:
   \   000002E8   A41090E5           LDR      R1,[R0, #+164]
   \   000002EC   000051E3           CMP      R1,#+0
   \   000002F0   6800000A           BEQ      ??FileRead_4
   1976              {
   1977                if(TagBook->buffer2[TagBook->pos2_Title+7])
   \   000002F4   2C3090E5           LDR      R3,[R0, #+44]
   \   000002F8   031081E0           ADD      R1,R1,R3
   \   000002FC   0720D1E5           LDRB     R2,[R1, #+7]
   \   00000300   000052E3           CMP      R2,#+0
   1978                {
   1979                  TagBook->sizeTitle2=TagBook->buffer2[TagBook->pos2_Title+7]-1;
   1980                }
   1981                else
   1982                {
   1983                  TagBook->sizeTitle2=TagBook->buffer2[TagBook->pos2_Title+4]-1;
   \   00000304   0420D105           LDRBEQ   R2,[R1, #+4]
   \   00000308   012042E2           SUB      R2,R2,#+1
   \   0000030C   E02080E5           STR      R2,[R0, #+224]
   1984                }
   1985                if(TagBook->sizeTitle2>1)
   \   00000310   020052E3           CMP      R2,#+2
   \   00000314   4C0000BA           BLT      ??FileRead_5
   1986                {
   1987                  if(TagBook->buffer2[TagBook->pos2_Title+10]==0x01)
   \   00000318   0A10D1E5           LDRB     R1,[R1, #+10]
   \   0000031C   010051E3           CMP      R1,#+1
   \   00000320   3000001A           BNE      ??FileRead_6
   1988                  {
   1989                    TagBook->UTitle2=new wchar_t[(TagBook->sizeTitle2-3)/2+1];
   \   00000324   030042E2           SUB      R0,R2,#+3
   \   00000328   A00F80E0           ADD      R0,R0,R0, LSR #+31
   \   0000032C   C00081E0           ADD      R0,R1,R0, ASR #+1
   \   00000330   8000A0E1           LSL      R0,R0,#+1
   \   00000334   ........           _BLF     `??operator new[]`,`??operator new[]??rA`
   \   00000338   001094E5           LDR      R1,[R4, #+0]
   1990                    lseek(file,TagBook->pos2_Title+13,0);
   \   0000033C   0020A0E3           MOV      R2,#+0
   \   00000340   200181E5           STR      R0,[R1, #+288]
   \   00000344   A40091E5           LDR      R0,[R1, #+164]
   1991                    for(int i=0; i<=(TagBook->sizeTitle2-3)/2; i++)
   \   00000348   0580A0E1           MOV      R8,R5
   \   0000034C   0D1080E2           ADD      R1,R0,#+13
   \   00000350   0700A0E1           MOV      R0,R7
   \   00000354   760100EF           SWI      +374
   \   00000358   000094E5           LDR      R0,[R4, #+0]
   \   0000035C   E00090E5           LDR      R0,[R0, #+224]
   \   00000360   030040E2           SUB      R0,R0,#+3
   \   00000364   A00F80E0           ADD      R0,R0,R0, LSR #+31
   \   00000368   C000B0E1           ASRS     R0,R0,#+1
   \   0000036C   0600005A           BPL      ??FileRead_7
   \   00000370   0B0000EA           B        ??FileRead_8
   1992                    {
   1993                      fread(file,&TagBook->UTitle2[i],2);
   \                     ??FileRead_9:
   \   00000374   200190E5           LDR      R0,[R0, #+288]
   \   00000378   0220A0E3           MOV      R2,#+2
   \   0000037C   881080E0           ADD      R1,R0,R8, LSL #+1
   \   00000380   0700A0E1           MOV      R0,R7
   \   00000384   180100EF           SWI      +280
   1994                    }
   \   00000388   018088E2           ADD      R8,R8,#+1
   \                     ??FileRead_7:
   \   0000038C   000094E5           LDR      R0,[R4, #+0]
   \   00000390   E01090E5           LDR      R1,[R0, #+224]
   \   00000394   031041E2           SUB      R1,R1,#+3
   \   00000398   A11F81E0           ADD      R1,R1,R1, LSR #+31
   \   0000039C   C10058E1           CMP      R8,R1, ASR #+1
   \   000003A0   F3FFFFDA           BLE      ??FileRead_9
   1995                    TagBook->Title2=new char[(TagBook->sizeTitle2-3)/2+1];
   \                     ??FileRead_8:
   \   000003A4   000094E5           LDR      R0,[R4, #+0]
   \   000003A8   0110A0E3           MOV      R1,#+1
   \   000003AC   E00090E5           LDR      R0,[R0, #+224]
   \   000003B0   030040E2           SUB      R0,R0,#+3
   \   000003B4   A00F80E0           ADD      R0,R0,R0, LSR #+31
   \   000003B8   C00081E0           ADD      R0,R1,R0, ASR #+1
   \   000003BC   ........           _BLF     `??operator new[]`,`??operator new[]??rA`
   \   000003C0   003094E5           LDR      R3,[R4, #+0]
   \   000003C4   3C0083E5           STR      R0,[R3, #+60]
   1996                    unicode2win1251(TagBook->Title2,TagBook->UTitle2, (TagBook->sizeTitle2-3)/2);
   \   000003C8   E00093E5           LDR      R0,[R3, #+224]
   \   000003CC   201193E5           LDR      R1,[R3, #+288]
   \   000003D0   030040E2           SUB      R0,R0,#+3
   \   000003D4   A00F80E0           ADD      R0,R0,R0, LSR #+31
   \   000003D8   C020A0E1           ASR      R2,R0,#+1
   \   000003DC   3C0093E5           LDR      R0,[R3, #+60]
   \   000003E0   ........           BL       ??unicode2win1251
   \   000003E4   2A0000EA           B        ??FileRead_10
   1997                  }
   1998                  else
   1999                  {
   2000                    TagBook->Title2=new char[TagBook->sizeTitle2+1];
   \                     ??FileRead_6:
   \   000003E8   010082E2           ADD      R0,R2,#+1
   \   000003EC   ........           _BLF     `??operator new[]`,`??operator new[]??rA`
   \   000003F0   001094E5           LDR      R1,[R4, #+0]
   2001                    lseek(file,TagBook->pos2_Title+11,0);
   \   000003F4   0020A0E3           MOV      R2,#+0
   \   000003F8   3C0081E5           STR      R0,[R1, #+60]
   \   000003FC   A40091E5           LDR      R0,[R1, #+164]
   \   00000400   0B1080E2           ADD      R1,R0,#+11
   \   00000404   0700A0E1           MOV      R0,R7
   \   00000408   760100EF           SWI      +374
   2002                    fread(file, TagBook->Title2, TagBook->sizeTitle2);
   \   0000040C   000094E5           LDR      R0,[R4, #+0]
   \   00000410   E02090E5           LDR      R2,[R0, #+224]
   \   00000414   3C1090E5           LDR      R1,[R0, #+60]
   \   00000418   0700A0E1           MOV      R0,R7
   \   0000041C   180100EF           SWI      +280
   2003                    TagBook->UTitle2=new wchar_t[TagBook->sizeTitle2+1];
   \   00000420   000094E5           LDR      R0,[R4, #+0]
   \   00000424   E00090E5           LDR      R0,[R0, #+224]
   \   00000428   010080E2           ADD      R0,R0,#+1
   \   0000042C   8000A0E1           LSL      R0,R0,#+1
   \   00000430   ........           _BLF     `??operator new[]`,`??operator new[]??rA`
   \   00000434   003094E5           LDR      R3,[R4, #+0]
   \   00000438   200183E5           STR      R0,[R3, #+288]
   2004                    win12512unicode(TagBook->UTitle2, TagBook->Title2, TagBook->sizeTitle2);
   \   0000043C   E02093E5           LDR      R2,[R3, #+224]
   \   00000440   3C1093E5           LDR      R1,[R3, #+60]
   \   00000444   ........           BL       ??win12512unicode
   \   00000448   110000EA           B        ??FileRead_10
   2005                  }
   2006                }
   2007                else
   2008                {
   2009                  TagBook->Title2=new char[strlen(TagBook->Title)+1];
   \                     ??FileRead_5:
   \   0000044C   380090E5           LDR      R0,[R0, #+56]
   \   00000450   5A0100EF           SWI      +346
   \   00000454   010080E2           ADD      R0,R0,#+1
   \   00000458   ........           _BLF     `??operator new[]`,`??operator new[]??rA`
   \   0000045C   002094E5           LDR      R2,[R4, #+0]
   \   00000460   3C0082E5           STR      R0,[R2, #+60]
   2010                  strcpy(TagBook->Title2, TagBook->Title);
   \   00000464   381092E5           LDR      R1,[R2, #+56]
   \   00000468   A00100EF           SWI      +416
   2011                  TagBook->UTitle2=new wchar_t[wstrlen(TagBook->UTitle)+1];
   \   0000046C   000094E5           LDR      R0,[R4, #+0]
   \   00000470   1C0190E5           LDR      R0,[R0, #+284]
   \   00000474   570100EF           SWI      +343
   \   00000478   010080E2           ADD      R0,R0,#+1
   \   0000047C   8000A0E1           LSL      R0,R0,#+1
   \   00000480   ........           _BLF     `??operator new[]`,`??operator new[]??rA`
   \   00000484   002094E5           LDR      R2,[R4, #+0]
   \   00000488   200182E5           STR      R0,[R2, #+288]
   2012                  wstrcpy(TagBook->UTitle2, TagBook->UTitle);
   \   0000048C   1C1192E5           LDR      R1,[R2, #+284]
   \   00000490   520100EF           SWI      +338
   2013                }
   2014              }
   2015              for(int i=0; i<=TagBook->size_id3-4; i++)
   \                     ??FileRead_10:
   \   00000494   0010A0E3           MOV      R1,#+0
   \                     ??FileRead_4:
   \   00000498   000094E5           LDR      R0,[R4, #+0]
   \   0000049C   D02090E5           LDR      R2,[R0, #+208]
   \   000004A0   042052E2           SUBS     R2,R2,#+4
   \   000004A4   0D00004A           BMI      ??FileRead_11
   2016              {
   2017                if(TagBook->buffer2[i]=='T' && TagBook->buffer2[i+1]=='P' && TagBook->buffer2[i+2]=='E' && TagBook->buffer2[i+3]=='1')
   \                     ??FileRead_12:
   \   000004A8   2C3090E5           LDR      R3,[R0, #+44]
   \   000004AC   033081E0           ADD      R3,R1,R3
   \   000004B0   0080D3E5           LDRB     R8,[R3, #+0]
   \   000004B4   540058E3           CMP      R8,#+84
   \   000004B8   0180D305           LDRBEQ   R8,[R3, #+1]
   \   000004BC   50005803           CMPEQ    R8,#+80
   \   000004C0   0280D305           LDRBEQ   R8,[R3, #+2]
   \   000004C4   45005803           CMPEQ    R8,#+69
   \   000004C8   0330D305           LDRBEQ   R3,[R3, #+3]
   \   000004CC   31005303           CMPEQ    R3,#+49
   2018                {
   2019                  TagBook->pos2_Autor=i;
   \   000004D0   A0108005           STREQ    R1,[R0, #+160]
   2020                }
   2021              }
   \   000004D4   011081E2           ADD      R1,R1,#+1
   \   000004D8   010052E1           CMP      R2,R1
   \   000004DC   F1FFFFAA           BGE      ??FileRead_12
   2022              if(TagBook->pos2_Autor)
   \                     ??FileRead_11:
   \   000004E0   A01090E5           LDR      R1,[R0, #+160]
   \   000004E4   000051E3           CMP      R1,#+0
   \   000004E8   6800000A           BEQ      ??FileRead_13
   2023              {
   2024                if(TagBook->buffer2[TagBook->pos2_Autor+7])
   \   000004EC   2C3090E5           LDR      R3,[R0, #+44]
   \   000004F0   031081E0           ADD      R1,R1,R3
   \   000004F4   0720D1E5           LDRB     R2,[R1, #+7]
   \   000004F8   000052E3           CMP      R2,#+0
   2025                {
   2026                  TagBook->sizeAutor2=TagBook->buffer2[TagBook->pos2_Autor+7]-1;
   2027                }
   2028                else
   2029                {
   2030                  TagBook->sizeAutor2=TagBook->buffer2[TagBook->pos2_Autor+4]-1;
   \   000004FC   0420D105           LDRBEQ   R2,[R1, #+4]
   \   00000500   012042E2           SUB      R2,R2,#+1
   \   00000504   DC2080E5           STR      R2,[R0, #+220]
   2031                }
   2032                if(TagBook->sizeAutor2>1)
   \   00000508   020052E3           CMP      R2,#+2
   \   0000050C   4C0000BA           BLT      ??FileRead_14
   2033                {
   2034                  if(TagBook->buffer2[TagBook->pos2_Autor+10]==0x01)
   \   00000510   0A10D1E5           LDRB     R1,[R1, #+10]
   \   00000514   010051E3           CMP      R1,#+1
   \   00000518   3000001A           BNE      ??FileRead_15
   2035                  {
   2036                    TagBook->UAutor2=new wchar_t[(TagBook->sizeAutor2-3)/2+1];
   \   0000051C   030042E2           SUB      R0,R2,#+3
   \   00000520   A00F80E0           ADD      R0,R0,R0, LSR #+31
   \   00000524   C00081E0           ADD      R0,R1,R0, ASR #+1
   \   00000528   8000A0E1           LSL      R0,R0,#+1
   \   0000052C   ........           _BLF     `??operator new[]`,`??operator new[]??rA`
   \   00000530   001094E5           LDR      R1,[R4, #+0]
   2037                    lseek(file,TagBook->pos2_Autor+13,0);
   \   00000534   0020A0E3           MOV      R2,#+0
   \   00000538   080181E5           STR      R0,[R1, #+264]
   \   0000053C   A00091E5           LDR      R0,[R1, #+160]
   2038                    for(int i=0; i<=(TagBook->sizeAutor2-3)/2; i++)
   \   00000540   0580A0E1           MOV      R8,R5
   \   00000544   0D1080E2           ADD      R1,R0,#+13
   \   00000548   0700A0E1           MOV      R0,R7
   \   0000054C   760100EF           SWI      +374
   \   00000550   000094E5           LDR      R0,[R4, #+0]
   \   00000554   DC0090E5           LDR      R0,[R0, #+220]
   \   00000558   030040E2           SUB      R0,R0,#+3
   \   0000055C   A00F80E0           ADD      R0,R0,R0, LSR #+31
   \   00000560   C000B0E1           ASRS     R0,R0,#+1
   \   00000564   0600005A           BPL      ??FileRead_16
   \   00000568   0B0000EA           B        ??FileRead_17
   2039                    {
   2040                      fread(file,&TagBook->UAutor2[i],2);
   \                     ??FileRead_18:
   \   0000056C   080190E5           LDR      R0,[R0, #+264]
   \   00000570   0220A0E3           MOV      R2,#+2
   \   00000574   881080E0           ADD      R1,R0,R8, LSL #+1
   \   00000578   0700A0E1           MOV      R0,R7
   \   0000057C   180100EF           SWI      +280
   2041                    }
   \   00000580   018088E2           ADD      R8,R8,#+1
   \                     ??FileRead_16:
   \   00000584   000094E5           LDR      R0,[R4, #+0]
   \   00000588   DC1090E5           LDR      R1,[R0, #+220]
   \   0000058C   031041E2           SUB      R1,R1,#+3
   \   00000590   A11F81E0           ADD      R1,R1,R1, LSR #+31
   \   00000594   C10058E1           CMP      R8,R1, ASR #+1
   \   00000598   F3FFFFDA           BLE      ??FileRead_18
   2042                    TagBook->Autor2=new char[(TagBook->sizeAutor2-3)/2+1];
   \                     ??FileRead_17:
   \   0000059C   000094E5           LDR      R0,[R4, #+0]
   \   000005A0   0110A0E3           MOV      R1,#+1
   \   000005A4   DC0090E5           LDR      R0,[R0, #+220]
   \   000005A8   030040E2           SUB      R0,R0,#+3
   \   000005AC   A00F80E0           ADD      R0,R0,R0, LSR #+31
   \   000005B0   C00081E0           ADD      R0,R1,R0, ASR #+1
   \   000005B4   ........           _BLF     `??operator new[]`,`??operator new[]??rA`
   \   000005B8   003094E5           LDR      R3,[R4, #+0]
   \   000005BC   240083E5           STR      R0,[R3, #+36]
   2043                    unicode2win1251(TagBook->Autor2,TagBook->UAutor2, (TagBook->sizeAutor2-3)/2);
   \   000005C0   DC0093E5           LDR      R0,[R3, #+220]
   \   000005C4   081193E5           LDR      R1,[R3, #+264]
   \   000005C8   030040E2           SUB      R0,R0,#+3
   \   000005CC   A00F80E0           ADD      R0,R0,R0, LSR #+31
   \   000005D0   C020A0E1           ASR      R2,R0,#+1
   \   000005D4   240093E5           LDR      R0,[R3, #+36]
   \   000005D8   ........           BL       ??unicode2win1251
   \   000005DC   2A0000EA           B        ??FileRead_19
   2044                  }
   2045                  else
   2046                  {
   2047                    TagBook->Autor2=new char[TagBook->sizeAutor2+1];
   \                     ??FileRead_15:
   \   000005E0   010082E2           ADD      R0,R2,#+1
   \   000005E4   ........           _BLF     `??operator new[]`,`??operator new[]??rA`
   \   000005E8   001094E5           LDR      R1,[R4, #+0]
   2048                    lseek(file,TagBook->pos2_Autor+11,0);
   \   000005EC   0020A0E3           MOV      R2,#+0
   \   000005F0   240081E5           STR      R0,[R1, #+36]
   \   000005F4   A00091E5           LDR      R0,[R1, #+160]
   \   000005F8   0B1080E2           ADD      R1,R0,#+11
   \   000005FC   0700A0E1           MOV      R0,R7
   \   00000600   760100EF           SWI      +374
   2049                    fread(file, TagBook->Autor2, TagBook->sizeAutor2);
   \   00000604   000094E5           LDR      R0,[R4, #+0]
   \   00000608   DC2090E5           LDR      R2,[R0, #+220]
   \   0000060C   241090E5           LDR      R1,[R0, #+36]
   \   00000610   0700A0E1           MOV      R0,R7
   \   00000614   180100EF           SWI      +280
   2050                    TagBook->UAutor2=new wchar_t[TagBook->sizeAutor2+1];
   \   00000618   000094E5           LDR      R0,[R4, #+0]
   \   0000061C   DC0090E5           LDR      R0,[R0, #+220]
   \   00000620   010080E2           ADD      R0,R0,#+1
   \   00000624   8000A0E1           LSL      R0,R0,#+1
   \   00000628   ........           _BLF     `??operator new[]`,`??operator new[]??rA`
   \   0000062C   003094E5           LDR      R3,[R4, #+0]
   \   00000630   080183E5           STR      R0,[R3, #+264]
   2051                    win12512unicode(TagBook->UAutor2, TagBook->Autor2, TagBook->sizeAutor2);
   \   00000634   DC2093E5           LDR      R2,[R3, #+220]
   \   00000638   241093E5           LDR      R1,[R3, #+36]
   \   0000063C   ........           BL       ??win12512unicode
   \   00000640   110000EA           B        ??FileRead_19
   2052                  }
   2053                }
   2054                else
   2055                {
   2056                  TagBook->Autor2=new char[strlen(TagBook->Autor)+1];
   \                     ??FileRead_14:
   \   00000644   200090E5           LDR      R0,[R0, #+32]
   \   00000648   5A0100EF           SWI      +346
   \   0000064C   010080E2           ADD      R0,R0,#+1
   \   00000650   ........           _BLF     `??operator new[]`,`??operator new[]??rA`
   \   00000654   002094E5           LDR      R2,[R4, #+0]
   \   00000658   240082E5           STR      R0,[R2, #+36]
   2057                  strcpy(TagBook->Autor2, TagBook->Autor);
   \   0000065C   201092E5           LDR      R1,[R2, #+32]
   \   00000660   A00100EF           SWI      +416
   2058                  TagBook->UAutor2=new wchar_t[wstrlen(TagBook->UAutor)+1];
   \   00000664   000094E5           LDR      R0,[R4, #+0]
   \   00000668   040190E5           LDR      R0,[R0, #+260]
   \   0000066C   570100EF           SWI      +343
   \   00000670   010080E2           ADD      R0,R0,#+1
   \   00000674   8000A0E1           LSL      R0,R0,#+1
   \   00000678   ........           _BLF     `??operator new[]`,`??operator new[]??rA`
   \   0000067C   002094E5           LDR      R2,[R4, #+0]
   \   00000680   080182E5           STR      R0,[R2, #+264]
   2059                  wstrcpy(TagBook->UAutor2, TagBook->UAutor);
   \   00000684   041192E5           LDR      R1,[R2, #+260]
   \   00000688   520100EF           SWI      +338
   2060                }
   2061              }
   2062              for(int i=0; i<=TagBook->size_id3-4; i++)
   \                     ??FileRead_19:
   \   0000068C   0010A0E3           MOV      R1,#+0
   \                     ??FileRead_13:
   \   00000690   000094E5           LDR      R0,[R4, #+0]
   \   00000694   D02090E5           LDR      R2,[R0, #+208]
   \   00000698   042052E2           SUBS     R2,R2,#+4
   \   0000069C   0D00004A           BMI      ??FileRead_20
   2063              {
   2064                if(TagBook->buffer2[i]=='T' && TagBook->buffer2[i+1]=='A' && TagBook->buffer2[i+2]=='L' && TagBook->buffer2[i+3]=='B')
   \                     ??FileRead_21:
   \   000006A0   2C3090E5           LDR      R3,[R0, #+44]
   \   000006A4   033081E0           ADD      R3,R1,R3
   \   000006A8   0080D3E5           LDRB     R8,[R3, #+0]
   \   000006AC   540058E3           CMP      R8,#+84
   \   000006B0   0180D305           LDRBEQ   R8,[R3, #+1]
   \   000006B4   41005803           CMPEQ    R8,#+65
   \   000006B8   0280D305           LDRBEQ   R8,[R3, #+2]
   \   000006BC   4C005803           CMPEQ    R8,#+76
   \   000006C0   0330D305           LDRBEQ   R3,[R3, #+3]
   \   000006C4   42005303           CMPEQ    R3,#+66
   2065                {
   2066                  TagBook->pos2_Album=i;
   \   000006C8   9C108005           STREQ    R1,[R0, #+156]
   2067                }
   2068              }
   \   000006CC   011081E2           ADD      R1,R1,#+1
   \   000006D0   010052E1           CMP      R2,R1
   \   000006D4   F1FFFFAA           BGE      ??FileRead_21
   2069              if(TagBook->pos2_Album)
   \                     ??FileRead_20:
   \   000006D8   9C1090E5           LDR      R1,[R0, #+156]
   \   000006DC   000051E3           CMP      R1,#+0
   \   000006E0   CB00000A           BEQ      ??FileRead_22
   2070              {
   2071                if(TagBook->buffer2[TagBook->pos2_Album+7])
   \   000006E4   2C3090E5           LDR      R3,[R0, #+44]
   \   000006E8   031081E0           ADD      R1,R1,R3
   \   000006EC   0720D1E5           LDRB     R2,[R1, #+7]
   \   000006F0   000052E3           CMP      R2,#+0
   2072                {
   2073                  TagBook->sizeAlbum2=TagBook->buffer2[TagBook->pos2_Album+7]-1;
   2074                }
   2075                else
   2076                {
   2077                  TagBook->sizeAlbum2=TagBook->buffer2[TagBook->pos2_Album+4]-1;
   \   000006F4   0420D105           LDRBEQ   R2,[R1, #+4]
   \   000006F8   012042E2           SUB      R2,R2,#+1
   \   000006FC   D82080E5           STR      R2,[R0, #+216]
   2078                }
   2079                if(TagBook->sizeAlbum2>1)
   \   00000700   020052E3           CMP      R2,#+2
   \   00000704   4C0000BA           BLT      ??FileRead_23
   2080                {
   2081                  if(TagBook->buffer2[TagBook->pos2_Album+10]==0x01)
   \   00000708   0A10D1E5           LDRB     R1,[R1, #+10]
   \   0000070C   010051E3           CMP      R1,#+1
   \   00000710   3000001A           BNE      ??FileRead_24
   2082                  {
   2083                    TagBook->UAlbum2=new wchar_t[(TagBook->sizeAlbum2-3)/2+1];
   \   00000714   030042E2           SUB      R0,R2,#+3
   \   00000718   A00F80E0           ADD      R0,R0,R0, LSR #+31
   \   0000071C   C00081E0           ADD      R0,R1,R0, ASR #+1
   \   00000720   8000A0E1           LSL      R0,R0,#+1
   \   00000724   ........           _BLF     `??operator new[]`,`??operator new[]??rA`
   \   00000728   001094E5           LDR      R1,[R4, #+0]
   2084                    lseek(file,TagBook->pos2_Album+13,0);
   \   0000072C   0020A0E3           MOV      R2,#+0
   \   00000730   000181E5           STR      R0,[R1, #+256]
   \   00000734   9C0091E5           LDR      R0,[R1, #+156]
   2085                    for(int i=0; i<=(TagBook->sizeAlbum2-3)/2; i++)
   \   00000738   0580A0E1           MOV      R8,R5
   \   0000073C   0D1080E2           ADD      R1,R0,#+13
   \   00000740   0700A0E1           MOV      R0,R7
   \   00000744   760100EF           SWI      +374
   \   00000748   000094E5           LDR      R0,[R4, #+0]
   \   0000074C   D80090E5           LDR      R0,[R0, #+216]
   \   00000750   030040E2           SUB      R0,R0,#+3
   \   00000754   A00F80E0           ADD      R0,R0,R0, LSR #+31
   \   00000758   C000B0E1           ASRS     R0,R0,#+1
   \   0000075C   0600005A           BPL      ??FileRead_25
   \   00000760   0B0000EA           B        ??FileRead_26
   2086                    {
   2087                      fread(file,&TagBook->UAlbum2[i],2);
   \                     ??FileRead_27:
   \   00000764   000190E5           LDR      R0,[R0, #+256]
   \   00000768   0220A0E3           MOV      R2,#+2
   \   0000076C   881080E0           ADD      R1,R0,R8, LSL #+1
   \   00000770   0700A0E1           MOV      R0,R7
   \   00000774   180100EF           SWI      +280
   2088                    }
   \   00000778   018088E2           ADD      R8,R8,#+1
   \                     ??FileRead_25:
   \   0000077C   000094E5           LDR      R0,[R4, #+0]
   \   00000780   D81090E5           LDR      R1,[R0, #+216]
   \   00000784   031041E2           SUB      R1,R1,#+3
   \   00000788   A11F81E0           ADD      R1,R1,R1, LSR #+31
   \   0000078C   C10058E1           CMP      R8,R1, ASR #+1
   \   00000790   F3FFFFDA           BLE      ??FileRead_27
   2089                    TagBook->Album2=new char[(TagBook->sizeAlbum2-3)/2+1];
   \                     ??FileRead_26:
   \   00000794   000094E5           LDR      R0,[R4, #+0]
   \   00000798   0110A0E3           MOV      R1,#+1
   \   0000079C   D80090E5           LDR      R0,[R0, #+216]
   \   000007A0   030040E2           SUB      R0,R0,#+3
   \   000007A4   A00F80E0           ADD      R0,R0,R0, LSR #+31
   \   000007A8   C00081E0           ADD      R0,R1,R0, ASR #+1
   \   000007AC   ........           _BLF     `??operator new[]`,`??operator new[]??rA`
   \   000007B0   003094E5           LDR      R3,[R4, #+0]
   \   000007B4   1C0083E5           STR      R0,[R3, #+28]
   2090                    unicode2win1251(TagBook->Album2,TagBook->UAlbum2, (TagBook->sizeAlbum2-3)/2);
   \   000007B8   D80093E5           LDR      R0,[R3, #+216]
   \   000007BC   001193E5           LDR      R1,[R3, #+256]
   \   000007C0   030040E2           SUB      R0,R0,#+3
   \   000007C4   A00F80E0           ADD      R0,R0,R0, LSR #+31
   \   000007C8   C020A0E1           ASR      R2,R0,#+1
   \   000007CC   1C0093E5           LDR      R0,[R3, #+28]
   \   000007D0   ........           BL       ??unicode2win1251
   \   000007D4   8E0000EA           B        ??FileRead_22
   2091                  }
   2092                  else
   2093                  {
   2094                    TagBook->Album2=new char[TagBook->sizeAlbum2+1];
   \                     ??FileRead_24:
   \   000007D8   010082E2           ADD      R0,R2,#+1
   \   000007DC   ........           _BLF     `??operator new[]`,`??operator new[]??rA`
   \   000007E0   001094E5           LDR      R1,[R4, #+0]
   2095                    lseek(file,TagBook->pos2_Album+11,0);
   \   000007E4   0020A0E3           MOV      R2,#+0
   \   000007E8   1C0081E5           STR      R0,[R1, #+28]
   \   000007EC   9C0091E5           LDR      R0,[R1, #+156]
   \   000007F0   0B1080E2           ADD      R1,R0,#+11
   \   000007F4   0700A0E1           MOV      R0,R7
   \   000007F8   760100EF           SWI      +374
   2096                    fread(file, TagBook->Album2, TagBook->sizeAlbum2);
   \   000007FC   000094E5           LDR      R0,[R4, #+0]
   \   00000800   D82090E5           LDR      R2,[R0, #+216]
   \   00000804   1C1090E5           LDR      R1,[R0, #+28]
   \   00000808   0700A0E1           MOV      R0,R7
   \   0000080C   180100EF           SWI      +280
   2097                    TagBook->UAlbum2=new wchar_t[TagBook->sizeAlbum2+1];
   \   00000810   000094E5           LDR      R0,[R4, #+0]
   \   00000814   D80090E5           LDR      R0,[R0, #+216]
   \   00000818   010080E2           ADD      R0,R0,#+1
   \   0000081C   8000A0E1           LSL      R0,R0,#+1
   \   00000820   ........           _BLF     `??operator new[]`,`??operator new[]??rA`
   \   00000824   003094E5           LDR      R3,[R4, #+0]
   \   00000828   000183E5           STR      R0,[R3, #+256]
   2098                    win12512unicode(TagBook->UAlbum2, TagBook->Album2, TagBook->sizeAlbum2);
   \   0000082C   D82093E5           LDR      R2,[R3, #+216]
   \   00000830   1C1093E5           LDR      R1,[R3, #+28]
   \   00000834   ........           BL       ??win12512unicode
   \   00000838   750000EA           B        ??FileRead_22
   2099                  }
   2100                }
   2101                else
   2102                {
   2103                  TagBook->Album2=new char[strlen(TagBook->Album)+1];
   \                     ??FileRead_23:
   \   0000083C   180090E5           LDR      R0,[R0, #+24]
   \   00000840   5A0100EF           SWI      +346
   \   00000844   010080E2           ADD      R0,R0,#+1
   \   00000848   ........           _BLF     `??operator new[]`,`??operator new[]??rA`
   \   0000084C   002094E5           LDR      R2,[R4, #+0]
   \   00000850   1C0082E5           STR      R0,[R2, #+28]
   2104                  strcpy(TagBook->Album2, TagBook->Album);
   \   00000854   181092E5           LDR      R1,[R2, #+24]
   \   00000858   A00100EF           SWI      +416
   2105                  TagBook->UAlbum2=new wchar_t[wstrlen(TagBook->UAlbum)+1];
   \   0000085C   000094E5           LDR      R0,[R4, #+0]
   \   00000860   FC0090E5           LDR      R0,[R0, #+252]
   \   00000864   570100EF           SWI      +343
   \   00000868   010080E2           ADD      R0,R0,#+1
   \   0000086C   8000A0E1           LSL      R0,R0,#+1
   \   00000870   ........           _BLF     `??operator new[]`,`??operator new[]??rA`
   \   00000874   002094E5           LDR      R2,[R4, #+0]
   \   00000878   000182E5           STR      R0,[R2, #+256]
   2106                  wstrcpy(TagBook->UAlbum2, TagBook->UAlbum);
   \   0000087C   FC1092E5           LDR      R1,[R2, #+252]
   \   00000880   520100EF           SWI      +338
   \   00000884   620000EA           B        ??FileRead_22
   2107                }
   2108              }
   2109            }
   2110            else
   2111            {
   2112              TagBook->Album2=new char[strlen(TagBook->Album)+1];
   \                     ??FileRead_1:
   \   00000888   180099E5           LDR      R0,[R9, #+24]
   2113              strcpy(TagBook->Album2, TagBook->Album);
   2114              TagBook->UAlbum2=new wchar_t[wstrlen(TagBook->UAlbum)+1];
   2115              wstrcpy(TagBook->UAlbum2, TagBook->UAlbum);
   2116              TagBook->Autor2=new char[strlen(TagBook->Autor)+1];
   2117              strcpy(TagBook->Autor2, TagBook->Autor);
   2118              TagBook->UAutor2=new wchar_t[wstrlen(TagBook->UAutor)+1];
   2119              wstrcpy(TagBook->UAutor2, TagBook->UAutor);
   2120              TagBook->Title2=new char[strlen(TagBook->Title)+1];
   2121              strcpy(TagBook->Title2, TagBook->Title);
   2122              TagBook->UTitle2=new wchar_t[wstrlen(TagBook->UTitle)+1];
   2123              wstrcpy(TagBook->UTitle2, TagBook->UTitle);
   2124              char tagSize[4];
   2125              tagSize[0]=0x00;
   2126              tagSize[1]=0x00;
   2127              tagSize[2]=0x1e;
   \   0000088C   1E90A0E3           MOV      R9,#+30
   \   00000890   5A0100EF           SWI      +346
   \   00000894   010080E2           ADD      R0,R0,#+1
   \   00000898   ........           _BLF     `??operator new[]`,`??operator new[]??rA`
   \   0000089C   002094E5           LDR      R2,[R4, #+0]
   \   000008A0   1C0082E5           STR      R0,[R2, #+28]
   \   000008A4   181092E5           LDR      R1,[R2, #+24]
   \   000008A8   A00100EF           SWI      +416
   \   000008AC   000094E5           LDR      R0,[R4, #+0]
   \   000008B0   FC0090E5           LDR      R0,[R0, #+252]
   \   000008B4   570100EF           SWI      +343
   \   000008B8   010080E2           ADD      R0,R0,#+1
   \   000008BC   8000A0E1           LSL      R0,R0,#+1
   \   000008C0   ........           _BLF     `??operator new[]`,`??operator new[]??rA`
   \   000008C4   002094E5           LDR      R2,[R4, #+0]
   \   000008C8   000182E5           STR      R0,[R2, #+256]
   \   000008CC   FC1092E5           LDR      R1,[R2, #+252]
   \   000008D0   520100EF           SWI      +338
   \   000008D4   000094E5           LDR      R0,[R4, #+0]
   \   000008D8   200090E5           LDR      R0,[R0, #+32]
   \   000008DC   5A0100EF           SWI      +346
   \   000008E0   010080E2           ADD      R0,R0,#+1
   \   000008E4   ........           _BLF     `??operator new[]`,`??operator new[]??rA`
   \   000008E8   002094E5           LDR      R2,[R4, #+0]
   \   000008EC   240082E5           STR      R0,[R2, #+36]
   \   000008F0   201092E5           LDR      R1,[R2, #+32]
   \   000008F4   A00100EF           SWI      +416
   \   000008F8   000094E5           LDR      R0,[R4, #+0]
   \   000008FC   040190E5           LDR      R0,[R0, #+260]
   \   00000900   570100EF           SWI      +343
   \   00000904   010080E2           ADD      R0,R0,#+1
   \   00000908   8000A0E1           LSL      R0,R0,#+1
   \   0000090C   ........           _BLF     `??operator new[]`,`??operator new[]??rA`
   \   00000910   002094E5           LDR      R2,[R4, #+0]
   \   00000914   080182E5           STR      R0,[R2, #+264]
   \   00000918   041192E5           LDR      R1,[R2, #+260]
   \   0000091C   520100EF           SWI      +338
   \   00000920   000094E5           LDR      R0,[R4, #+0]
   \   00000924   380090E5           LDR      R0,[R0, #+56]
   \   00000928   5A0100EF           SWI      +346
   \   0000092C   010080E2           ADD      R0,R0,#+1
   \   00000930   ........           _BLF     `??operator new[]`,`??operator new[]??rA`
   \   00000934   002094E5           LDR      R2,[R4, #+0]
   \   00000938   3C0082E5           STR      R0,[R2, #+60]
   \   0000093C   381092E5           LDR      R1,[R2, #+56]
   \   00000940   A00100EF           SWI      +416
   \   00000944   000094E5           LDR      R0,[R4, #+0]
   \   00000948   1C0190E5           LDR      R0,[R0, #+284]
   \   0000094C   570100EF           SWI      +343
   \   00000950   010080E2           ADD      R0,R0,#+1
   \   00000954   8000A0E1           LSL      R0,R0,#+1
   \   00000958   ........           _BLF     `??operator new[]`,`??operator new[]??rA`
   \   0000095C   002094E5           LDR      R2,[R4, #+0]
   \   00000960   200182E5           STR      R0,[R2, #+288]
   \   00000964   1C1192E5           LDR      R1,[R2, #+284]
   \   00000968   520100EF           SWI      +338
   \   0000096C   0050CDE5           STRB     R5,[SP, #+0]
   \   00000970   0150CDE5           STRB     R5,[SP, #+1]
   \   00000974   0290CDE5           STRB     R9,[SP, #+2]
   2128              tagSize[3]=0x00;
   \   00000978   0350CDE5           STRB     R5,[SP, #+3]
   2129              TagBook->size_id3=synchsafeToNormal(tagSize);
   \   0000097C   0D00A0E1           MOV      R0,SP
   \   00000980   ........           BL       ??synchsafeToNormal
   \   00000984   001094E5           LDR      R1,[R4, #+0]
   \   00000988   D00081E5           STR      R0,[R1, #+208]
   2130              TagBook->buffer2=new char[TagBook->size_id3+1];
   \   0000098C   010080E2           ADD      R0,R0,#+1
   \   00000990   ........           _BLF     `??operator new[]`,`??operator new[]??rA`
   \   00000994   001094E5           LDR      R1,[R4, #+0]
   \   00000998   2C0081E5           STR      R0,[R1, #+44]
   2131              for(int i=0; i<=TagBook->size_id3; i++)
   \   0000099C   D01091E5           LDR      R1,[R1, #+208]
   \   000009A0   0000A0E3           MOV      R0,#+0
   \   000009A4   000051E3           CMP      R1,#+0
   \   000009A8   0300005A           BPL      ??FileRead_28
   \   000009AC   060000EA           B        ??FileRead_29
   2132              {
   2133                TagBook->buffer2[i]=0;
   \                     ??FileRead_30:
   \   000009B0   2C1091E5           LDR      R1,[R1, #+44]
   \   000009B4   0150C0E7           STRB     R5,[R0, +R1]
   2134              }
   \   000009B8   010080E2           ADD      R0,R0,#+1
   \                     ??FileRead_28:
   \   000009BC   001094E5           LDR      R1,[R4, #+0]
   \   000009C0   D02091E5           LDR      R2,[R1, #+208]
   \   000009C4   000052E1           CMP      R2,R0
   \   000009C8   F8FFFFAA           BGE      ??FileRead_30
   2135              TagBook->buffer2[0]='I';
   \                     ??FileRead_29:
   \   000009CC   000094E5           LDR      R0,[R4, #+0]
   \   000009D0   4910A0E3           MOV      R1,#+73
   \   000009D4   2C0090E5           LDR      R0,[R0, #+44]
   \   000009D8   0010C0E5           STRB     R1,[R0, #+0]
   2136              TagBook->buffer2[1]='D';
   \   000009DC   000094E5           LDR      R0,[R4, #+0]
   \   000009E0   4410A0E3           MOV      R1,#+68
   \   000009E4   2C0090E5           LDR      R0,[R0, #+44]
   \   000009E8   0110C0E5           STRB     R1,[R0, #+1]
   2137              TagBook->buffer2[2]='3';
   \   000009EC   000094E5           LDR      R0,[R4, #+0]
   2138              TagBook->buffer2[3]=0x04;
   \   000009F0   0410A0E3           MOV      R1,#+4
   \   000009F4   2C0090E5           LDR      R0,[R0, #+44]
   \   000009F8   0280C0E5           STRB     R8,[R0, #+2]
   \   000009FC   000094E5           LDR      R0,[R4, #+0]
   \   00000A00   2C0090E5           LDR      R0,[R0, #+44]
   \   00000A04   0310C0E5           STRB     R1,[R0, #+3]
   2139              TagBook->buffer2[8]=0x1e;
   \   00000A08   000094E5           LDR      R0,[R4, #+0]
   \   00000A0C   2C0090E5           LDR      R0,[R0, #+44]
   \   00000A10   0890C0E5           STRB     R9,[R0, #+8]
   2140            }
   2141            fclose(file);
   \                     ??FileRead_22:
   \   00000A14   0700A0E1           MOV      R0,R7
   \   00000A18   170100EF           SWI      +279
   2142            TagBook->InputTitle=0;
   \   00000A1C   000094E5           LDR      R0,[R4, #+0]
   2143            TagBook->InputAutor=0;
   2144            TagBook->InputAlbum=0;
   2145            TagBook->InputTitle2=0;
   2146            TagBook->InputAutor2=0;
   2147            TagBook->InputAlbum2=0;
   2148            TagBook->InputYear=0;
   2149            TagBook->InputComment=0;
   2150            TagBook->yn=0;
   2151            TagBook->GlavMenu=0;
   2152            TagBook->MenuList1=0;
   2153            TagBook->MenuList2=0;
   2154            TagBook->change=0;
   2155            BookObj_GotoPage(&TagBook->book, &base_page_work);
   \   00000A20   181086E2           ADD      R1,R6,#+24
   \   00000A24   585080E5           STR      R5,[R0, #+88]
   \   00000A28   4C5080E5           STR      R5,[R0, #+76]
   \   00000A2C   445080E5           STR      R5,[R0, #+68]
   \   00000A30   5C5080E5           STR      R5,[R0, #+92]
   \   00000A34   505080E5           STR      R5,[R0, #+80]
   \   00000A38   485080E5           STR      R5,[R0, #+72]
   \   00000A3C   605080E5           STR      R5,[R0, #+96]
   \   00000A40   545080E5           STR      R5,[R0, #+84]
   \   00000A44   645080E5           STR      R5,[R0, #+100]
   \   00000A48   685080E5           STR      R5,[R0, #+104]
   \   00000A4C   705080E5           STR      R5,[R0, #+112]
   \   00000A50   745080E5           STR      R5,[R0, #+116]
   \   00000A54   785080E5           STR      R5,[R0, #+120]
   \   00000A58   2D0100EF           SWI      +301
   2156          }
   \   00000A5C   2CD08DE2           ADD      SP,SP,#+44
   \   00000A60   F083BDE8           POP      {R4-R9,PC}       ;; return
   2157          

   \                                 In segment DYN_PAGE, align 4, align-sorted
   2158          const PAGE_MSG bk_msglst_base[] @ "DYN_PAGE"  =
   \                     bk_msglst_base:
   \   00000000   E5030000....       DC32 997, ??TerminateElf, 998, ??ShowAuthorInfo, 996, ??onReconfigElf
   \              ....E6030000
   \              ........E403
   \              0000........
   \   00000018   400000000000       DC32 64, 0H
   \              0000        

   \                                 In segment DATA_C, align 4, align-sorted
   \                     `?<Constant "TagEditor">`:
   \   00000000   546167456469       DC8 "TagEditor"
   \              746F7200    
   \   0000000A   0000               DC8 0, 0
   \   0000000C   ........0000       DC32 `?<Constant "TagEditor_openFile">`, 0H, bk_msglst_db
   \              0000........
   \   00000018   ........0000       DC32 `?<Constant "TagEditor_base_main">`, 0H, bk_msglst_base
   \              0000........

   \                                 In segment DATA_C, align 4, align-sorted
   \                     `?<Constant L"\\x421\\x442\\x43e\\x43f">`:
   \   00000000   210442043E04       DC8 21H, 4, 42H, 4, 3EH, 4, 3FH, 4
   \              3F04        
   \   00000008   0000               DC8 0, 0
   \   0000000A   0000               DC8 0, 0
   \   0000000C   1F043B043504       DC8 1FH, 4, 3BH, 4, 35H, 4, 39H, 4
   \              3904        
   \   00000014   0000               DC8 0, 0
   \   00000016   0000               DC8 0, 0
   \   00000018   ........0000       DC32 `?<Constant "TagEditor_base_work">`, 0H, bk_msglst_work
   \              0000........
   2159          {
   2160            ELF_TERMINATE_EVENT,     TerminateElf,
   2161            ELF_SHOW_INFO_EVENT,     ShowAuthorInfo,
   2162            ELF_RECONFIG_EVENT,      onReconfigElf,
   2163            NIL_EVENT_TAG,           NULL
   2164          };
   2165          
   2166          const PAGE_DESC base_page_main = {"TagEditor_base_main",0,bk_msglst_base};
   2167          

   \                                 In segment CODE, align 4, keep-with-next
   2168          int main(wchar_t * elfname, wchar_t * path, wchar_t *name, wchar_t*TagOpen)
   2169          {
   \                     main:
   \   00000000   F0412DE9           PUSH     {R4-R8,LR}
   2170            TagBook=new MyBook;
   \   00000004   ........           LDR      R6,??DataTable180  ;; TagBook
   \   00000008   0140A0E1           MOV      R4,R1
   \   0000000C   0250A0E1           MOV      R5,R2
   2171            CreateBook((BOOK*)TagBook,onCloseCreateFileBook,&base_page_main,"TagEditor",-1,0);
   \   00000010   38719FE5           LDR      R7,??main_0      ;; `?<Constant "TagEditor">`
   \   00000014   4F0FA0E3           MOV      R0,#+316
   \   00000018   ........           _BLF     `??operator new`,`??operator new??rA`
   \   0000001C   30119FE5           LDR      R1,??main_0+0x4  ;; ??onCloseCreateFileBook
   \   00000020   000086E5           STR      R0,[R6, #+0]
   \   00000024   0000A0E3           MOV      R0,#+0
   \   00000028   01002DE9           PUSH     {R0}
   \   0000002C   0730A0E1           MOV      R3,R7
   \   00000030   182087E2           ADD      R2,R7,#+24
   \   00000034   0000E0E1           MVN      R0,R0
   \   00000038   01002DE9           PUSH     {R0}
   \   0000003C   000096E5           LDR      R0,[R6, #+0]
   \   00000040   2B0100EF           SWI      +299
   2172            InitConfig();
   \   00000044   ........           _BLF     ??InitConfig,??InitConfig??rA
   2173            TagBook->PlayMode=0;
   \   00000048   000096E5           LDR      R0,[R6, #+0]
   \   0000004C   0010A0E3           MOV      R1,#+0
   \   00000050   981080E5           STR      R1,[R0, #+152]
   2174            if(path && name)
   \   00000054   000054E3           CMP      R4,#+0
   \   00000058   08D08DE2           ADD      SP,SP,#+8
   \   0000005C   00005513           CMPNE    R5,#+0
   \   00000060   3500000A           BEQ      ??main_1
   2175            {
   2176              char * ext=new char[wstrlen(name)+1];
   \   00000064   0500A0E1           MOV      R0,R5
   \   00000068   570100EF           SWI      +343
   \   0000006C   010080E2           ADD      R0,R0,#+1
   \   00000070   ........           _BLF     `??operator new[]`,`??operator new[]??rA`
   \   00000074   0080A0E1           MOV      R8,R0
   2177              unicode2win1251(ext,name,wstrlen(name));
   \   00000078   0500A0E1           MOV      R0,R5
   \   0000007C   570100EF           SWI      +343
   \   00000080   0020A0E1           MOV      R2,R0
   \   00000084   0510A0E1           MOV      R1,R5
   \   00000088   0800A0E1           MOV      R0,R8
   \   0000008C   ........           BL       ??unicode2win1251
   2178              if(ext[strlen(ext)-1]=='3'&&ext[strlen(ext)-2]=='p'&&ext[strlen(ext)-3]=='m'||ext[strlen(ext)-1]=='t'&&ext[strlen(ext)-2]=='p'&&ext[strlen(ext)-3]=='m')
   \   00000090   0800A0E1           MOV      R0,R8
   \   00000094   5A0100EF           SWI      +346
   \   00000098   080080E0           ADD      R0,R0,R8
   \   0000009C   010050E5           LDRB     R0,[R0, #-1]
   \   000000A0   330050E3           CMP      R0,#+51
   \   000000A4   0B00001A           BNE      ??main_2
   \   000000A8   0800A0E1           MOV      R0,R8
   \   000000AC   5A0100EF           SWI      +346
   \   000000B0   080080E0           ADD      R0,R0,R8
   \   000000B4   020050E5           LDRB     R0,[R0, #-2]
   \   000000B8   700050E3           CMP      R0,#+112
   \   000000BC   0500001A           BNE      ??main_2
   \   000000C0   0800A0E1           MOV      R0,R8
   \   000000C4   5A0100EF           SWI      +346
   \   000000C8   080080E0           ADD      R0,R0,R8
   \   000000CC   030050E5           LDRB     R0,[R0, #-3]
   \   000000D0   6D0050E3           CMP      R0,#+109
   \   000000D4   1100000A           BEQ      ??main_3
   \                     ??main_2:
   \   000000D8   0800A0E1           MOV      R0,R8
   \   000000DC   5A0100EF           SWI      +346
   \   000000E0   080080E0           ADD      R0,R0,R8
   \   000000E4   010050E5           LDRB     R0,[R0, #-1]
   \   000000E8   740050E3           CMP      R0,#+116
   \   000000EC   1200001A           BNE      ??main_1
   \   000000F0   0800A0E1           MOV      R0,R8
   \   000000F4   5A0100EF           SWI      +346
   \   000000F8   080080E0           ADD      R0,R0,R8
   \   000000FC   020050E5           LDRB     R0,[R0, #-2]
   \   00000100   700050E3           CMP      R0,#+112
   \   00000104   0C00001A           BNE      ??main_1
   \   00000108   0800A0E1           MOV      R0,R8
   \   0000010C   5A0100EF           SWI      +346
   \   00000110   080080E0           ADD      R0,R0,R8
   \   00000114   030050E5           LDRB     R0,[R0, #-3]
   \   00000118   6D0050E3           CMP      R0,#+109
   \   0000011C   0600001A           BNE      ??main_1
   2179              {
   2180                delete ext;
   \                     ??main_3:
   \   00000120   0800A0E1           MOV      R0,R8
   \   00000124   ........           _BLF     `??operator delete`,`??operator delete??rA`
   2181                FileRead(path,name);
   \   00000128   0510A0E1           MOV      R1,R5
   \   0000012C   0400A0E1           MOV      R0,R4
   \   00000130   ........           BL       ??FileRead
   \   00000134   0000A0E3           MOV      R0,#+0
   \   00000138   F081BDE8           POP      {R4-R8,PC}
   2182              }
   2183              else
   2184              {
   2185                BookObj_GotoPage(&TagBook->book, &base_db);
   \                     ??main_1:
   \   0000013C   000096E5           LDR      R0,[R6, #+0]
   \   00000140   0C1087E2           ADD      R1,R7,#+12
   \   00000144   2D0100EF           SWI      +301
   2186              }
   2187            }
   2188            else
   2189            {
   2190              BookObj_GotoPage(&TagBook->book, &base_db);
   2191            }
   2192            return(0);
   \   00000148   0000A0E3           MOV      R0,#+0
   \   0000014C   F081BDE8           POP      {R4-R8,PC}       ;; return
   \                     ??main_0:
   \   00000150   ........           DC32     `?<Constant "TagEditor">`
   \   00000154   ........           DC32     ??onCloseCreateFileBook
   2193          }

   \                                 In segment CODE, align 4, keep-with-next
   \                     ??DataTable0:
   \   00000000   ........           DC32     TagBook

   \                                 In segment CODE, align 4, keep-with-next
   \                     ??DataTable18:
   \   00000000   ........           DC32     `?<Constant L"\\x418\\x441\\x43f\\x43e\\x43b\\x43d\\x4_1`

   \                                 In segment CODE, align 4, keep-with-next
   \                     ??DataTable29:
   \   00000000   ........           DC32     `?<Constant L"\\x410\\x43b\\x44c\\x431\\x43e\\x43c\\x3_1`

   \                                 In segment CODE, align 4, keep-with-next
   \                     ??DataTable30:
   \   00000000   ........           DC32     ??DestroyInputBooks2

   \                                 In segment CODE, align 4, keep-with-next
   \                     ??DataTable31:
   \   00000000   ........           DC32     VAR_ARG_CALL_BACK_LONG_BACK

   \                                 In segment CODE, align 4, keep-with-next
   \                     ??DataTable32:
   \   00000000   ........           DC32     VAR_ARG_CALL_BACK_OK

   \                                 In segment CODE, align 4, keep-with-next
   \                     ??DataTable33:
   \   00000000   ........           DC32     VAR_ARG_STRINP_MIN_LEN

   \                                 In segment CODE, align 4, keep-with-next
   \                     ??DataTable34:
   \   00000000   ........           DC32     VAR_ARG_STRINP_MAX_LEN

   \                                 In segment CODE, align 4, keep-with-next
   \                     ??DataTable35:
   \   00000000   ........           DC32     VAR_ARG_STRINP_TEXT

   \                                 In segment CODE, align 4, keep-with-next
   \                     ??DataTable36:
   \   00000000   ........           DC32     VAR_ARG_CALL_BACK_PREV_ACT

   \                                 In segment CODE, align 4, keep-with-next
   \                     ??DataTable37:
   \   00000000   ........           DC32     VAR_ARG_STRINP_FIXED_TEXT

   \                                 In segment CODE, align 4, keep-with-next
   \                     ??DataTable38:
   \   00000000   ........           DC32     VAR_ARG_BOOK

   \                                 In segment CODE, align 4, keep-with-next
   \                     ??DataTable42:
   \   00000000   ........           DC32     `?<Constant L"\\x41d\\x430\\x437\\x432\\x430\\x43d\\x4_1`

   \                                 In segment CODE, align 4, keep-with-next
   \                     ??DataTable43:
   \   00000000   ........           DC32     Iconr

   \                                 In segment CODE, align 4, keep-with-next
   \                     ??DataTable44:
   \   00000000   ........           DC32     Icont

   \                                 In segment CODE, align 4, keep-with-next
   \                     ??DataTable45:
   \   00000000   ........           DC32     Icony

   \                                 In segment CODE, align 4, keep-with-next
   \                     ??DataTable46:
   \   00000000   ........           DC32     TagBook

   \                                 In segment CODE, align 4, keep-with-next
   \                     ??DataTable47:
   \   00000000   ........           DC32     `?<Constant L"\\x421\\x442\\x43e\\x43f">`

   \                                 In segment CODE, align 4, keep-with-next
   \                     ??DataTable50:
   \   00000000   ........           DC32     `?<Constant L"\\x41d\\x430\\x437\\x432\\x430\\x43d\\x4`

   \                                 In segment CODE, align 4, keep-with-next
   \                     ??DataTable54:
   \   00000000   ........           DC32     KEY_DIGITAL_0

   \                                 In segment CODE, align 4, keep-with-next
   \                     ??DataTable55:
   \   00000000   ........           DC32     KBD_SHORT_RELEASE

   \                                 In segment CODE, align 4, keep-with-next
   \                     ??DataTable56:
   \   00000000   ........           DC32     KEY_DEL

   \                                 In segment CODE, align 4, keep-with-next
   \                     ??DataTable57:
   \   00000000   ........           DC32     KBD_LONG_PRESS

   \                                 In segment CODE, align 4, keep-with-next
   \                     ??DataTable65:
   \   00000000   ........           DC32     ACTION_BACK

   \                                 In segment CODE, align 4, keep-with-next
   \                     ??DataTable66:
   \   00000000   ........           DC32     ACTION_LONG_BACK

   \                                 In segment CODE, align 4, keep-with-next
   \                     ??DataTable67:
   \   00000000   ........           DC32     ACTION_SELECT1

   \                                 In segment CODE, align 4, keep-with-next
   \                     ??DataTable73:
   \   00000000   ........           DC32     TagBook

   \                                 In segment CODE, align 4, keep-with-next
   \                     ??DataTable85:
   \   00000000   ........           DC32     `?<Constant L"\\x418\\x441\\x43f\\x43e\\x43b\\x43d\\x4_1`

   \                                 In segment CODE, align 4, keep-with-next
   \                     ??DataTable96:
   \   00000000   ........           DC32     `?<Constant L"\\x410\\x43b\\x44c\\x431\\x43e\\x43c\\x3_1`

   \                                 In segment CODE, align 4, keep-with-next
   \                     ??DataTable117:
   \   00000000   ........           DC32     ??DestroyInputBooks

   \                                 In segment CODE, align 4, keep-with-next
   \                     ??DataTable118:
   \   00000000   ........           DC32     VAR_ARG_CALL_BACK_LONG_BACK

   \                                 In segment CODE, align 4, keep-with-next
   \                     ??DataTable119:
   \   00000000   ........           DC32     VAR_ARG_CALL_BACK_OK

   \                                 In segment CODE, align 4, keep-with-next
   \                     ??DataTable120:
   \   00000000   ........           DC32     VAR_ARG_STRINP_MIN_LEN

   \                                 In segment CODE, align 4, keep-with-next
   \                     ??DataTable121:
   \   00000000   ........           DC32     VAR_ARG_STRINP_MAX_LEN

   \                                 In segment CODE, align 4, keep-with-next
   \                     ??DataTable122:
   \   00000000   ........           DC32     VAR_ARG_STRINP_TEXT

   \                                 In segment CODE, align 4, keep-with-next
   \                     ??DataTable123:
   \   00000000   ........           DC32     VAR_ARG_CALL_BACK_PREV_ACT

   \                                 In segment CODE, align 4, keep-with-next
   \                     ??DataTable124:
   \   00000000   ........           DC32     VAR_ARG_STRINP_FIXED_TEXT

   \                                 In segment CODE, align 4, keep-with-next
   \                     ??DataTable125:
   \   00000000   ........           DC32     VAR_ARG_BOOK

   \                                 In segment CODE, align 4, keep-with-next
   \                     ??DataTable129:
   \   00000000   ........           DC32     `?<Constant L"\\x41d\\x430\\x437\\x432\\x430\\x43d\\x4_1`

   \                                 In segment CODE, align 4, keep-with-next
   \                     ??DataTable130:
   \   00000000   ........           DC32     Iconr

   \                                 In segment CODE, align 4, keep-with-next
   \                     ??DataTable131:
   \   00000000   ........           DC32     Icont

   \                                 In segment CODE, align 4, keep-with-next
   \                     ??DataTable132:
   \   00000000   ........           DC32     Icony

   \                                 In segment CODE, align 4, keep-with-next
   \                     ??DataTable147:
   \   00000000   ........           DC32     KBD_LONG_PRESS

   \                                 In segment CODE, align 4, keep-with-next
   \                     ??DataTable148:
   \   00000000   ........           DC32     TagBook

   \                                 In segment CODE, align 4, keep-with-next
   \                     ??DataTable160:
   \   00000000   ........           DC32     VAR_ARG_BOOK

   \                                 In segment CODE, align 4, keep-with-next
   \                     ??DataTable164:
   \   00000000   ........           DC32     `?<Constant "TagEditor">` + 12

   \                                 In segment CODE, align 4, keep-with-next
   \                     ??DataTable167:
   \   00000000   ........           DC32     `?<Constant L"\\x421\\x442\\x43e\\x43f">`

   \                                 In segment CODE, align 4, keep-with-next
   \                     ??DataTable170:
   \   00000000   ........           DC32     KBD_SHORT_RELEASE

   \                                 In segment CODE, align 4, keep-with-next
   \                     ??DataTable171:
   \   00000000   ........           DC32     KEY_DEL

   \                                 In segment CODE, align 4, keep-with-next
   \                     ??DataTable172:
   \   00000000   ........           DC32     KEY_DIGITAL_0

   \                                 In segment CODE, align 4, keep-with-next
   \                     ??DataTable174:
   \   00000000   ........           DC32     ACTION_BACK

   \                                 In segment CODE, align 4, keep-with-next
   \                     ??DataTable175:
   \   00000000   ........           DC32     ACTION_LONG_BACK

   \                                 In segment CODE, align 4, keep-with-next
   \                     ??DataTable176:
   \   00000000   ........           DC32     ACTION_SELECT1

   \                                 In segment CODE, align 4, keep-with-next
   \                     ??DataTable177:
   \   00000000   ........           DC32     TagBook

   \                                 In segment CODE, align 4, keep-with-next
   \                     ??DataTable179:
   \   00000000   ........           DC32     `?<Constant L"\\x421\\x442\\x43e\\x43f">`

   \                                 In segment CODE, align 4, keep-with-next
   \                     ??DataTable180:
   \   00000000   ........           DC32     TagBook

   \                                 In segment DATA_C, align 4, align-sorted
   \   00000000   52264200           DC8 "R&B"

   \                                 In segment DATA_C, align 4, align-sorted
   \                     `?<Constant L"\\x2a\\x2e\\x6d\\x70\\x33">`:
   \   00000000   2A002E006D00       DC8 2AH, 0, 2EH, 0, 6DH, 0, 70H, 0
   \              7000        
   \   00000008   33000000           DC8 33H, 0, 0, 0
   \   0000000C   1E0442043A04       DC8 1EH, 4, 42H, 4, 3AH, 4, 40H, 4
   \              4004        
   \   00000014   4B0442044C04       DC8 4BH, 4, 42H, 4, 4CH, 4, 20H, 0
   \              2000        
   \   0000001C   440430043904       DC8 44H, 4, 30H, 4, 39H, 4, 3BH, 4
   \              3B04        
   \   00000024   0000               DC8 0, 0
   \   00000026   0000               DC8 0, 0

   \                                 In segment DATA_C, align 4, align-sorted
   \                     `?<Constant L"\\x421\\x43e\\x445\\x440\\x430\\x43d\\x4`:
   \   00000000   21043E044504       DC8 21H, 4, 3EH, 4, 45H, 4, 40H, 4
   \              4004        
   \   00000008   30043D043804       DC8 30H, 4, 3DH, 4, 38H, 4, 42H, 4
   \              4204        
   \   00000010   4C0420003F04       DC8 4CH, 4, 20H, 0, 3FH, 4, 35H, 4
   \              3504        
   \   00000018   400435043404       DC8 40H, 4, 35H, 4, 34H, 4, 20H, 0
   \              2000        
   \   00000020   32044B044504       DC8 32H, 4, 4BH, 4, 45H, 4, 3EH, 4
   \              3E04        
   \   00000028   34043E043C04       DC8 34H, 4, 3EH, 4, 3CH, 4, 3FH, 0
   \              3F00        
   \   00000030   0000               DC8 0, 0
   \   00000032   0000               DC8 0, 0

   \                                 In segment DATA_C, align 4, align-sorted
   \                     `?<Constant L"\\x49\\x44\\x33\\x76\\x31">`:
   \   00000000   490044003300       DC8 49H, 0, 44H, 0, 33H, 0, 76H, 0
   \              7600        
   \   00000008   31000000           DC8 31H, 0, 0, 0
   \   0000000C   490044003300       DC8 49H, 0, 44H, 0, 33H, 0, 76H, 0
   \              7600        
   \   00000014   32000000           DC8 32H, 0, 0, 0
   \   00000018   18043D044404       DC8 18H, 4, 3DH, 4, 44H, 4, 3EH, 4
   \              3E04        
   \   00000020   0000               DC8 0, 0
   \   00000022   0000               DC8 0, 0
   \   00000024   200435043404       DC8 20H, 4, 35H, 4, 34H, 4, 2EH, 0
   \              2E00        
   \   0000002C   200049004400       DC8 20H, 0, 49H, 0, 44H, 0, 33H, 0
   \              3300        
   \   00000034   760032000000       DC8 76H, 0, 32H, 0, 0, 0
   \   0000003A   0000               DC8 0, 0
   \   0000003C   200435043404       DC8 20H, 4, 35H, 4, 34H, 4, 2EH, 0
   \              2E00        
   \   00000044   200049004400       DC8 20H, 0, 49H, 0, 44H, 0, 33H, 0
   \              3300        
   \   0000004C   760031000000       DC8 76H, 0, 31H, 0, 0, 0
   \   00000052   0000               DC8 0, 0

   \                                 In segment DATA_C, align 4, align-sorted
   \                     `?<Constant L"\\x420\\x435\\x434\\x430\\x43a\\x442\\x4`:
   \   00000000   200435043404       DC8 20H, 4, 35H, 4, 34H, 4, 30H, 4
   \              3004        
   \   00000008   3A0442043E04       DC8 3AH, 4, 42H, 4, 3EH, 4, 40H, 4
   \              4004        
   \   00000010   200042043504       DC8 20H, 0, 42H, 4, 35H, 4, 33H, 4
   \              3304        
   \   00000018   3E0432040000       DC8 3EH, 4, 32H, 4, 0, 0
   \   0000001E   0000               DC8 0, 0

   \                                 In segment DATA_C, align 4, align-sorted
   \                     `?<Constant "TagEditor_openFile">`:
   \   00000000   546167456469       DC8 "TagEditor_openFile"
   \              746F725F6F70
   \              656E46696C65
   \              00          
   \   00000013   00                 DC8 0

   \                                 In segment DATA_C, align 4, align-sorted
   \                     `?<Constant "TagEditor_base_work">`:
   \   00000000   546167456469       DC8 "TagEditor_base_work"
   \              746F725F6261
   \              73655F776F72
   \              6B00        

   \                                 In segment DATA_C, align 4, align-sorted
   \                     `?<Constant "TagEditor_base_main">`:
   \   00000000   546167456469       DC8 "TagEditor_base_main"
   \              746F725F6261
   \              73655F6D6169
   \              6E00        

   \                                 In segment DATA_C, align 4, align-sorted
   \                     `?<Constant L"\\x54\\x61\\x67\\x45\\x64\\x69\\x74\\x6f\\`:
   \   00000000   540061006700       DC8 54H, 0, 61H, 0, 67H, 0, 45H, 0
   \              4500        
   \   00000008   640069007400       DC8 64H, 0, 69H, 0, 74H, 0, 6FH, 0
   \              6F00        
   \   00000010   720020007600       DC8 72H, 0, 20H, 0, 76H, 0, 31H, 0
   \              3100        
   \   00000018   2E0034000A00       DC8 2EH, 0, 34H, 0, 0AH, 0, 28H, 0
   \              2800        
   \   00000020   630029002000       DC8 63H, 0, 29H, 0, 20H, 0, 4DH, 0
   \              4D00        
   \   00000028   6F006E006500       DC8 6FH, 0, 6EH, 0, 65H, 0, 79H, 0
   \              7900        
   \   00000030   4D0061007300       DC8 4DH, 0, 61H, 0, 73H, 0, 74H, 0
   \              7400        
   \   00000038   650052000A00       DC8 65H, 0, 52H, 0, 0AH, 0, 61H, 0
   \              6100        
   \   00000040   6B0061000A00       DC8 6BH, 0, 61H, 0, 0AH, 0, 44H, 0
   \              4400        
   \   00000048   6F0043006500       DC8 6FH, 0, 43H, 0, 65H, 0, 6EH, 0
   \              6E00        
   \   00000050   74000000           DC8 74H, 0, 0, 0

   \                                 In segment DATA_C, align 4, align-sorted
   \                     `?<Constant "Blues">`:
   \   00000000   426C75657300       DC8 "Blues"
   \   00000006   0000               DC8 0, 0
   \   00000008   436C61737369       DC8 "Classic Rock"
   \              6320526F636B
   \              00          
   \   00000015   000000             DC8 0, 0, 0
   \   00000018   436F756E7472       DC8 "Country"
   \              7900        
   \   00000020   44616E636500       DC8 "Dance"
   \   00000026   0000               DC8 0, 0
   \   00000028   446973636F00       DC8 "Disco"
   \   0000002E   0000               DC8 0, 0
   \   00000030   46756E6B00         DC8 "Funk"
   \   00000035   000000             DC8 0, 0, 0
   \   00000038   4772756E6765       DC8 "Grunge"
   \              00          
   \   0000003F   00                 DC8 0
   \   00000040   4869702D486F       DC8 "Hip-Hop"
   \              7000        
   \   00000048   4A617A7A00         DC8 "Jazz"
   \   0000004D   000000             DC8 0, 0, 0
   \   00000050   4D6574616C00       DC8 "Metal"
   \   00000056   0000               DC8 0, 0
   \   00000058   4E6577204167       DC8 "New Age"
   \              6500        
   \   00000060   4F6C64696573       DC8 "Oldies"
   \              00          
   \   00000067   00                 DC8 0
   \   00000068   4F7468657200       DC8 "Other"
   \   0000006E   0000               DC8 0, 0
   \   00000070   4E6F69736500       DC8 "Noise"
   \   00000076   0000               DC8 0, 0
   \   00000078   526567676165       DC8 "Reggae"
   \              00          
   \   0000007F   00                 DC8 0
   \   00000080   526F636B00         DC8 "Rock"
   \   00000085   000000             DC8 0, 0, 0
   \   00000088   546563686E6F       DC8 "Techno"
   \              00          
   \   0000008F   00                 DC8 0
   \   00000090   496E64757374       DC8 "Industrial"
   \              7269616C00  
   \   0000009B   00                 DC8 0
   \   0000009C   416C7465726E       DC8 "Alternative"
   \              617469766500
   \   000000A8   446561746820       DC8 "Death Metal"
   \              4D6574616C00
   \   000000B4   5072616E6B73       DC8 "Pranks"
   \              00          
   \   000000BB   00                 DC8 0
   \   000000BC   536F756E6474       DC8 "Soundtrack"
   \              7261636B00  
   \   000000C7   00                 DC8 0
   \   000000C8   4575726F2D54       DC8 "Euro-Techno"
   \              6563686E6F00
   \   000000D4   416D6269656E       DC8 "Ambient"
   \              7400        
   \   000000DC   547269702D48       DC8 "Trip-Hop"
   \              6F7000      
   \   000000E5   000000             DC8 0, 0, 0
   \   000000E8   566F63616C00       DC8 "Vocal"
   \   000000EE   0000               DC8 0, 0
   \   000000F0   4A617A7A2B46       DC8 "Jazz+Funk"
   \              756E6B00    
   \   000000FA   0000               DC8 0, 0
   \   000000FC   467573696F6E       DC8 "Fusion"
   \              00          
   \   00000103   00                 DC8 0
   \   00000104   5472616E6365       DC8 "Trance"
   \              00          
   \   0000010B   00                 DC8 0
   \   0000010C   436C61737369       DC8 "Classical"
   \              63616C00    
   \   00000116   0000               DC8 0, 0
   \   00000118   496E73747275       DC8 "Instrumental"
   \              6D656E74616C
   \              00          
   \   00000125   000000             DC8 0, 0, 0
   \   00000128   4163696400         DC8 "Acid"
   \   0000012D   000000             DC8 0, 0, 0
   \   00000130   486F75736500       DC8 "House"
   \   00000136   0000               DC8 0, 0
   \   00000138   47616D6500         DC8 "Game"
   \   0000013D   000000             DC8 0, 0, 0
   \   00000140   536F756E6420       DC8 "Sound Clip"
   \              436C697000  
   \   0000014B   00                 DC8 0
   \   0000014C   476F7370656C       DC8 "Gospel"
   \              00          
   \   00000153   00                 DC8 0
   \   00000154   416C7465726E       DC8 "Alternative Rock"
   \              617469766520
   \              526F636B00  
   \   00000165   000000             DC8 0, 0, 0
   \   00000168   4261737300         DC8 "Bass"
   \   0000016D   000000             DC8 0, 0, 0
   \   00000170   536F756C00         DC8 "Soul"
   \   00000175   000000             DC8 0, 0, 0
   \   00000178   50756E6B00         DC8 "Punk"
   \   0000017D   000000             DC8 0, 0, 0
   \   00000180   537061636500       DC8 "Space"
   \   00000186   0000               DC8 0, 0
   \   00000188   4D6564697461       DC8 "Meditative"
   \              7469766500  
   \   00000193   00                 DC8 0
   \   00000194   496E73747275       DC8 "Instrumental Pop"
   \              6D656E74616C
   \              20506F7000  
   \   000001A5   000000             DC8 0, 0, 0
   \   000001A8   496E73747275       DC8 "Instrumental Rock"
   \              6D656E74616C
   \              20526F636B00
   \   000001BA   0000               DC8 0, 0
   \   000001BC   4574686E6963       DC8 "Ethnic"
   \              00          
   \   000001C3   00                 DC8 0
   \   000001C4   476F74686963       DC8 "Gothic"
   \              00          
   \   000001CB   00                 DC8 0
   \   000001CC   4461726B7761       DC8 "Darkwave"
   \              766500      
   \   000001D5   000000             DC8 0, 0, 0
   \   000001D8   546563686E6F       DC8 "Techno-Industrial"
   \              2D496E647573
   \              747269616C00
   \   000001EA   0000               DC8 0, 0
   \   000001EC   456C65637472       DC8 "Electronic"
   \              6F6E696300  
   \   000001F7   00                 DC8 0
   \   000001F8   506F702D466F       DC8 "Pop-Folk"
   \              6C6B00      
   \   00000201   000000             DC8 0, 0, 0
   \   00000204   4575726F6461       DC8 "Eurodance"
   \              6E636500    
   \   0000020E   0000               DC8 0, 0
   \   00000210   447265616D00       DC8 "Dream"
   \   00000216   0000               DC8 0, 0
   \   00000218   536F75746865       DC8 "Southern Rock"
   \              726E20526F63
   \              6B00        
   \   00000226   0000               DC8 0, 0
   \   00000228   436F6D656479       DC8 "Comedy"
   \              00          
   \   0000022F   00                 DC8 0
   \   00000230   43756C7400         DC8 "Cult"
   \   00000235   000000             DC8 0, 0, 0
   \   00000238   47616E677374       DC8 "Gangsta"
   \              6100        
   \   00000240   546F70203430       DC8 "Top 40"
   \              00          
   \   00000247   00                 DC8 0
   \   00000248   436872697374       DC8 "Christian Rap"
   \              69616E205261
   \              7000        
   \   00000256   0000               DC8 0, 0
   \   00000258   506F702F4675       DC8 "Pop/Funk"
   \              6E6B00      
   \   00000261   000000             DC8 0, 0, 0
   \   00000264   4A756E676C65       DC8 "Jungle"
   \              00          
   \   0000026B   00                 DC8 0
   \   0000026C   4E6174697665       DC8 "Native US"
   \              20555300    
   \   00000276   0000               DC8 0, 0
   \   00000278   436162617265       DC8 "Cabaret"
   \              7400        
   \   00000280   4E6577205761       DC8 "New Wave"
   \              766500      
   \   00000289   000000             DC8 0, 0, 0
   \   0000028C   507379636861       DC8 "Psychadelic"
   \              64656C696300
   \   00000298   5261766500         DC8 "Rave"
   \   0000029D   000000             DC8 0, 0, 0
   \   000002A0   53686F777475       DC8 "Showtunes"
   \              6E657300    
   \   000002AA   0000               DC8 0, 0
   \   000002AC   547261696C65       DC8 "Trailer"
   \              7200        
   \   000002B4   4C6F2D466900       DC8 "Lo-Fi"
   \   000002BA   0000               DC8 0, 0
   \   000002BC   54726962616C       DC8 "Tribal"
   \              00          
   \   000002C3   00                 DC8 0
   \   000002C4   416369642050       DC8 "Acid Punk"
   \              756E6B00    
   \   000002CE   0000               DC8 0, 0
   \   000002D0   41636964204A       DC8 "Acid Jazz"
   \              617A7A00    
   \   000002DA   0000               DC8 0, 0
   \   000002DC   506F6C6B6100       DC8 "Polka"
   \   000002E2   0000               DC8 0, 0
   \   000002E4   526574726F00       DC8 "Retro"
   \   000002EA   0000               DC8 0, 0
   \   000002EC   4D7573696361       DC8 "Musical"
   \              6C00        
   \   000002F4   526F636B2026       DC8 "Rock & Roll"
   \              20526F6C6C00
   \   00000300   486172642052       DC8 "Hard Rock"
   \              6F636B00    
   \   0000030A   0000               DC8 0, 0
   \   0000030C   466F6C6B00         DC8 "Folk"
   \   00000311   000000             DC8 0, 0, 0
   \   00000314   466F6C6B2D52       DC8 "Folk-Rock"
   \              6F636B00    
   \   0000031E   0000               DC8 0, 0
   \   00000320   4E6174696F6E       DC8 "National Folk"
   \              616C20466F6C
   \              6B00        
   \   0000032E   0000               DC8 0, 0
   \   00000330   5377696E6700       DC8 "Swing"
   \   00000336   0000               DC8 0, 0
   \   00000338   466173742046       DC8 "Fast Fusion"
   \              7573696F6E00
   \   00000344   4265626F6200       DC8 "Bebob"
   \   0000034A   0000               DC8 0, 0
   \   0000034C   4C6174696E00       DC8 "Latin"
   \   00000352   0000               DC8 0, 0
   \   00000354   526576697661       DC8 "Revival"
   \              6C00        
   \   0000035C   43656C746963       DC8 "Celtic"
   \              00          
   \   00000363   00                 DC8 0
   \   00000364   426C75656772       DC8 "Bluegrass"
   \              61737300    
   \   0000036E   0000               DC8 0, 0
   \   00000370   4176616E7467       DC8 "Avantgarde"
   \              6172646500  
   \   0000037B   00                 DC8 0
   \   0000037C   476F74686963       DC8 "Gothic Rock"
   \              20526F636B00
   \   00000388   50726F677265       DC8 "Progressive Rock"
   \              737369766520
   \              526F636B00  
   \   00000399   000000             DC8 0, 0, 0
   \   0000039C   507379636865       DC8 "Psychedelic Rock"
   \              64656C696320
   \              526F636B00  
   \   000003AD   000000             DC8 0, 0, 0
   \   000003B0   53796D70686F       DC8 "Symphonic Rock"
   \              6E696320526F
   \              636B00      
   \   000003BF   00                 DC8 0
   \   000003C0   536C6F772052       DC8 "Slow Rock"
   \              6F636B00    
   \   000003CA   0000               DC8 0, 0
   \   000003CC   426967204261       DC8 "Big Band"
   \              6E6400      
   \   000003D5   000000             DC8 0, 0, 0
   \   000003D8   43686F727573       DC8 "Chorus"
   \              00          
   \   000003DF   00                 DC8 0
   \   000003E0   45617379204C       DC8 "Easy Listening"
   \              697374656E69
   \              6E6700      
   \   000003EF   00                 DC8 0
   \   000003F0   41636F757374       DC8 "Acoustic"
   \              696300      
   \   000003F9   000000             DC8 0, 0, 0
   \   000003FC   48756D6F7572       DC8 "Humour"
   \              00          
   \   00000403   00                 DC8 0
   \   00000404   537065656368       DC8 "Speech"
   \              00          
   \   0000040B   00                 DC8 0
   \   0000040C   4368616E736F       DC8 "Chanson"
   \              6E00        
   \   00000414   4F7065726100       DC8 "Opera"
   \   0000041A   0000               DC8 0, 0
   \   0000041C   4368616D6265       DC8 "Chamber Music"
   \              72204D757369
   \              6300        
   \   0000042A   0000               DC8 0, 0
   \   0000042C   536F6E617461       DC8 "Sonata"
   \              00          
   \   00000433   00                 DC8 0
   \   00000434   53796D70686F       DC8 "Symphony"
   \              6E7900      
   \   0000043D   000000             DC8 0, 0, 0
   \   00000440   426F6F747920       DC8 "Booty Bass"
   \              4261737300  
   \   0000044B   00                 DC8 0
   \   0000044C   5072696D7573       DC8 "Primus"
   \              00          
   \   00000453   00                 DC8 0
   \   00000454   506F726E2047       DC8 "Porn Groove"
   \              726F6F766500
   \   00000460   536174697265       DC8 "Satire"
   \              00          
   \   00000467   00                 DC8 0
   \   00000468   536C6F77204A       DC8 "Slow Jam"
   \              616D00      
   \   00000471   000000             DC8 0, 0, 0
   \   00000474   436C756200         DC8 "Club"
   \   00000479   000000             DC8 0, 0, 0
   \   0000047C   54616E676F00       DC8 "Tango"
   \   00000482   0000               DC8 0, 0
   \   00000484   53616D626100       DC8 "Samba"
   \   0000048A   0000               DC8 0, 0
   \   0000048C   466F6C6B6C6F       DC8 "Folklore"
   \              726500      
   \   00000495   000000             DC8 0, 0, 0
   \   00000498   42616C6C6164       DC8 "Ballad"
   \              00          
   \   0000049F   00                 DC8 0
   \   000004A0   506F77657220       DC8 "Power Ballad"
   \              42616C6C6164
   \              00          
   \   000004AD   000000             DC8 0, 0, 0
   \   000004B0   526879746D69       DC8 "Rhytmic Soul"
   \              6320536F756C
   \              00          
   \   000004BD   000000             DC8 0, 0, 0
   \   000004C0   467265657374       DC8 "Freestyle"
   \              796C6500    
   \   000004CA   0000               DC8 0, 0
   \   000004CC   4475657400         DC8 "Duet"
   \   000004D1   000000             DC8 0, 0, 0
   \   000004D4   50756E6B2052       DC8 "Punk Rock"
   \              6F636B00    
   \   000004DE   0000               DC8 0, 0
   \   000004E0   4472756D2053       DC8 "Drum Solo"
   \              6F6C6F00    
   \   000004EA   0000               DC8 0, 0
   \   000004EC   41636170656C       DC8 "Acapella"
   \              6C6100      
   \   000004F5   000000             DC8 0, 0, 0
   \   000004F8   4575726F2D48       DC8 "Euro-House"
   \              6F75736500  
   \   00000503   00                 DC8 0
   \   00000504   44616E636520       DC8 "Dance Hall"
   \              48616C6C00  
   \   0000050F   00                 DC8 0
   \   00000510   4472756D2026       DC8 "Drum & Bass"
   \              204261737300
   \   0000051C   436C75622D48       DC8 "Club-House"
   \              6F75736500  
   \   00000527   00                 DC8 0
   \   00000528   48617264636F       DC8 "Hardcore"
   \              726500      
   \   00000531   000000             DC8 0, 0, 0
   \   00000534   546572726F72       DC8 "Terror"
   \              00          
   \   0000053B   00                 DC8 0
   \   0000053C   496E64696500       DC8 "Indie"
   \   00000542   0000               DC8 0, 0
   \   00000544   42726974506F       DC8 "BritPop"
   \              7000        
   \   0000054C   4E6567657270       DC8 "Negerpunk"
   \              756E6B00    
   \   00000556   0000               DC8 0, 0
   \   00000558   506F6C736B20       DC8 "Polsk Punk"
   \              50756E6B00  
   \   00000563   00                 DC8 0
   \   00000564   4265617400         DC8 "Beat"
   \   00000569   000000             DC8 0, 0, 0
   \   0000056C   436872697374       DC8 "Christian Gangsta"
   \              69616E204761
   \              6E6773746100
   \   0000057E   0000               DC8 0, 0
   \   00000580   486561767920       DC8 "Heavy Metal"
   \              4D6574616C00
   \   0000058C   426C61636B20       DC8 "Black Metal"
   \              4D6574616C00
   \   00000598   43726F73736F       DC8 "Crossover"
   \              76657200    
   \   000005A2   0000               DC8 0, 0
   \   000005A4   436F6E74656D       DC8 "Contemporary C"
   \              706F72617279
   \              204300      
   \   000005B3   00                 DC8 0
   \   000005B4   436872697374       DC8 "Christian Rock"
   \              69616E20526F
   \              636B00      
   \   000005C3   00                 DC8 0
   \   000005C4   4D6572656E67       DC8 "Merengue"
   \              756500      
   \   000005CD   000000             DC8 0, 0, 0
   \   000005D0   53616C736100       DC8 "Salsa"
   \   000005D6   0000               DC8 0, 0
   \   000005D8   546872617368       DC8 "Thrash Metal"
   \              204D6574616C
   \              00          
   \   000005E5   000000             DC8 0, 0, 0
   \   000005E8   416E696D6500       DC8 "Anime"
   \   000005EE   0000               DC8 0, 0
   \   000005F0   4A506F7000         DC8 "JPop"
   \   000005F5   000000             DC8 0, 0, 0
   \   000005F8   53796E746850       DC8 "SynthPop"
   \              6F7000      
   \   00000601   000000             DC8 0, 0, 0

   \                                 In segment DATA_C, align 4, align-sorted
   \   00000000   506F7000           DC8 "Pop"

   \                                 In segment DATA_C, align 4, align-sorted
   \   00000000   52617000           DC8 "Rap"

   \                                 In segment DATA_C, align 4, align-sorted
   \   00000000   536B6100           DC8 "Ska"

   \                                 In segment DATA_C, align 4, align-sorted
   \   00000000   476F6100           DC8 "Goa"

   \                                 In segment DATA_C, align 1, align-sorted
   \   00000000   2000               DC8 " "

   \                                 In segment DATA_C, align 4, align-sorted
   \                     `?<Constant L"\\x20\\x20">`:
   \   00000000   200020000000       DC8 20H, 0, 20H, 0, 0, 0
   \   00000006   0000               DC8 0, 0
   \   00000008   2E006D007000       DC8 2EH, 0, 6DH, 0, 70H, 0, 33H, 0
   \              3300        
   \   00000010   0000               DC8 0, 0
   \   00000012   0000               DC8 0, 0
   \   00000014   14043E044004       DC8 14H, 4, 3EH, 4, 40H, 4, 3EH, 4
   \              3E04        
   \   0000001C   36043A043004       DC8 36H, 4, 3AH, 4, 30H, 4, 0, 0
   \              0000        
   \   00000024   20002D002000       DC8 20H, 0, 2DH, 0, 20H, 0, 0, 0
   \              0000        
   \   0000002C   1D0435043804       DC8 1DH, 4, 35H, 4, 38H, 4, 37H, 4
   \              3704        
   \   00000034   320435044104       DC8 32H, 4, 35H, 4, 41H, 4, 42H, 4
   \              4204        
   \   0000003C   3D043E040000       DC8 3DH, 4, 3EH, 4, 0, 0
   \   00000042   0000               DC8 0, 0
   \   00000044   200028000000       DC8 20H, 0, 28H, 0, 0, 0
   \   0000004A   0000               DC8 0, 0
   \   0000004C   29002E006D00       DC8 29H, 0, 2EH, 0, 6DH, 0, 70H, 0
   \              7000        
   \   00000054   33000000           DC8 33H, 0, 0, 0

   \                                 In segment DATA_C, align 4, align-sorted
   \                     `?<Constant L"\\x41d\\x430\\x437\\x432\\x430\\x43d\\x4`:
   \   00000000   1D0430043704       DC8 1DH, 4, 30H, 4, 37H, 4, 32H, 4
   \              3204        
   \   00000008   30043D043804       DC8 30H, 4, 3DH, 4, 38H, 4, 35H, 4
   \              3504        
   \   00000010   3A0020000000       DC8 3AH, 0, 20H, 0, 0, 0
   \   00000016   0000               DC8 0, 0
   \   00000018   18043C044F04       DC8 18H, 4, 3CH, 4, 4FH, 4, 20H, 0
   \              2000        
   \   00000020   440430043904       DC8 44H, 4, 30H, 4, 39H, 4, 3BH, 4
   \              3B04        
   \   00000028   30043A002000       DC8 30H, 4, 3AH, 0, 20H, 0, 0, 0
   \              0000        
   \   00000030   200430044104       DC8 20H, 4, 30H, 4, 41H, 4, 3FH, 4
   \              3F04        
   \   00000038   3E043B043E04       DC8 3EH, 4, 3BH, 4, 3EH, 4, 36H, 4
   \              3604        
   \   00000040   35043D043804       DC8 35H, 4, 3DH, 4, 38H, 4, 35H, 4
   \              3504        
   \   00000048   3A0020000000       DC8 3AH, 0, 20H, 0, 0, 0
   \   0000004E   0000               DC8 0, 0
   \   00000050   490044003300       DC8 49H, 0, 44H, 0, 33H, 0, 76H, 0
   \              7600        
   \   00000058   31003A000A00       DC8 31H, 0, 3AH, 0, 0AH, 0, 0, 0
   \              0000        
   \   00000060   180441043F04       DC8 18H, 4, 41H, 4, 3FH, 4, 3EH, 4
   \              3E04        
   \   00000068   3B043D043804       DC8 3BH, 4, 3DH, 4, 38H, 4, 42H, 4
   \              4204        
   \   00000070   35043B044C04       DC8 35H, 4, 3BH, 4, 4CH, 4, 3AH, 0
   \              3A00        
   \   00000078   20000000           DC8 20H, 0, 0, 0
   \   0000007C   10043B044C04       DC8 10H, 4, 3BH, 4, 4CH, 4, 31H, 4
   \              3104        
   \   00000084   3E043C043A00       DC8 3EH, 4, 3CH, 4, 3AH, 0, 20H, 0
   \              2000        
   \   0000008C   0000               DC8 0, 0
   \   0000008E   0000               DC8 0, 0
   \   00000090   13043E043404       DC8 13H, 4, 3EH, 4, 34H, 4, 3AH, 0
   \              3A00        
   \   00000098   20000000           DC8 20H, 0, 0, 0
   \   0000009C   1A043E043C04       DC8 1AH, 4, 3EH, 4, 3CH, 4, 3CH, 4
   \              3C04        
   \   000000A4   35043D044204       DC8 35H, 4, 3DH, 4, 42H, 4, 30H, 4
   \              3004        
   \   000000AC   400438043904       DC8 40H, 4, 38H, 4, 39H, 4, 3AH, 0
   \              3A00        
   \   000000B4   20000000           DC8 20H, 0, 0, 0
   \   000000B8   160430043D04       DC8 16H, 4, 30H, 4, 3DH, 4, 40H, 4
   \              4004        
   \   000000C0   3A0020000000       DC8 3AH, 0, 20H, 0, 0, 0
   \   000000C6   0000               DC8 0, 0
   \   000000C8   490044003300       DC8 49H, 0, 44H, 0, 33H, 0, 76H, 0
   \              7600        
   \   000000D0   32003A000A00       DC8 32H, 0, 3AH, 0, 0AH, 0, 0, 0
   \              0000        
   \   000000D8   18043D044404       DC8 18H, 4, 3DH, 4, 44H, 4, 3EH, 4
   \              3E04        
   \   000000E0   20006D007000       DC8 20H, 0, 6DH, 0, 70H, 0, 33H, 0
   \              3300        
   \   000000E8   0000               DC8 0, 0
   \   000000EA   0000               DC8 0, 0

   \                                 In segment DATA_C, align 4, align-sorted
   \                     `?<Constant L"\\x418\\x441\\x43f\\x43e\\x43b\\x43d\\x4_1`:
   \   00000000   180441043F04       DC8 18H, 4, 41H, 4, 3FH, 4, 3EH, 4
   \              3E04        
   \   00000008   3B043D043804       DC8 3BH, 4, 3DH, 4, 38H, 4, 42H, 4
   \              4204        
   \   00000010   35043B044C04       DC8 35H, 4, 3BH, 4, 4CH, 4, 3AH, 0
   \              3A00        
   \   00000018   0000               DC8 0, 0
   \   0000001A   0000               DC8 0, 0

   \                                 In segment DATA_C, align 4, align-sorted
   \                     `?<Constant L"\\x410\\x43b\\x44c\\x431\\x43e\\x43c\\x3_1`:
   \   00000000   10043B044C04       DC8 10H, 4, 3BH, 4, 4CH, 4, 31H, 4
   \              3104        
   \   00000008   3E043C043A00       DC8 3EH, 4, 3CH, 4, 3AH, 0, 0, 0
   \              0000        

   \                                 In segment DATA_C, align 4, align-sorted
   \                     `?<Constant L"\\x41d\\x430\\x437\\x432\\x430\\x43d\\x4_1`:
   \   00000000   1D0430043704       DC8 1DH, 4, 30H, 4, 37H, 4, 32H, 4
   \              3204        
   \   00000008   30043D043804       DC8 30H, 4, 3DH, 4, 38H, 4, 35H, 4
   \              3504        
   \   00000010   0000               DC8 0, 0
   \   00000012   0000               DC8 0, 0
   \   00000014   180441043F04       DC8 18H, 4, 41H, 4, 3FH, 4, 3EH, 4
   \              3E04        
   \   0000001C   3B043D043804       DC8 3BH, 4, 3DH, 4, 38H, 4, 42H, 4
   \              4204        
   \   00000024   35043B044C04       DC8 35H, 4, 3BH, 4, 4CH, 4, 0, 0
   \              0000        
   \   0000002C   10043B044C04       DC8 10H, 4, 3BH, 4, 4CH, 4, 31H, 4
   \              3104        
   \   00000034   3E043C040000       DC8 3EH, 4, 3CH, 4, 0, 0
   \   0000003A   0000               DC8 0, 0
   \   0000003C   13043E043404       DC8 13H, 4, 3EH, 4, 34H, 4, 0, 0
   \              0000        
   \   00000044   1A043E043C04       DC8 1AH, 4, 3EH, 4, 3CH, 4, 3CH, 4
   \              3C04        
   \   0000004C   35043D044204       DC8 35H, 4, 3DH, 4, 42H, 4, 30H, 4
   \              3004        
   \   00000054   400438043904       DC8 40H, 4, 38H, 4, 39H, 4, 0, 0
   \              0000        
   \   0000005C   160430043D04       DC8 16H, 4, 30H, 4, 3DH, 4, 40H, 4
   \              4004        
   \   00000064   0000               DC8 0, 0
   \   00000066   0000               DC8 0, 0

   \                                 In segment DATA_C, align 4, align-sorted
   \   00000000   0A000000           DC8 0AH, 0, 0, 0

   \                                 In segment DATA_C, align 4, align-sorted
   \                     `?<Constant L"\\x412\\x44b\\x431\\x2e\\x20\\x436\\x430`:
   \   00000000   12044B043104       DC8 12H, 4, 4BH, 4, 31H, 4, 2EH, 0
   \              2E00        
   \   00000008   200036043004       DC8 20H, 0, 36H, 4, 30H, 4, 3DH, 4
   \              3D04        
   \   00000010   40040000           DC8 40H, 4, 0, 0

   \                                 In segment DATA_C, align 4, align-sorted
   \                     `?<Constant L"\\x41d\\x430\\x437\\x432\\x430\\x43d\\x4_2`:
   \   00000000   1D0430043704       DC8 1DH, 4, 30H, 4, 37H, 4, 32H, 4
   \              3204        
   \   00000008   30043D043804       DC8 30H, 4, 3DH, 4, 38H, 4, 35H, 4
   \              3504        
   \   00000010   3A000000           DC8 3AH, 0, 0, 0

   \                                 In segment DATA_C, align 4, align-sorted
   \                     `?<Constant L"\\x413\\x43e\\x434\\x3a">`:
   \   00000000   13043E043404       DC8 13H, 4, 3EH, 4, 34H, 4, 3AH, 0
   \              3A00        
   \   00000008   0000               DC8 0, 0
   \   0000000A   0000               DC8 0, 0

   \                                 In segment DATA_C, align 4, align-sorted
   \                     `?<Constant L"\\x41a\\x43e\\x43c\\x43c\\x435\\x43d\\x4_2`:
   \   00000000   1A043E043C04       DC8 1AH, 4, 3EH, 4, 3CH, 4, 3CH, 4
   \              3C04        
   \   00000008   35043D044204       DC8 35H, 4, 3DH, 4, 42H, 4, 30H, 4
   \              3004        
   \   00000010   400438043904       DC8 40H, 4, 38H, 4, 39H, 4, 3AH, 0
   \              3A00        
   \   00000018   0000               DC8 0, 0
   \   0000001A   0000               DC8 0, 0

   \                                 In segment DATA_C, align 4, align-sorted
   \   00000000   2F000000           DC8 2FH, 0, 0, 0

   Maximum stack usage in bytes:

     Function                       CSTACK
     --------                       ------
     CopyFromID3v1(int)                12
     CopyFromID3v2(int)                16
     CopyFromName1(int)                16
     CopyFromName2(int)                12
     CreateDB(void *, BOOK *)          28
     CreateGlavMenu(int)               20
     CreateGui(void *, BOOK *)          4
     CreateML1(int)                    20
     CreateML2(int)                    20
     DeleteTag(int)                    16
     DeleteTag1(int)                    8
     DeleteTag2(int)                   20
     DestroyInputBooks()               12
     DestroyInputBooks2()              12
     ExitGM(BOOK *, GUI *)              8
     ExitMG(BOOK *, GUI *)              8
     ExitML1(BOOK *, GUI *)             8
     ExitML2(BOOK *, GUI *)             8
     ExitYN(BOOK *, GUI *)              8
     FileRead(wchar_t *, wchar_t *)    76
     FileWrite()                       40
     GetGenre(int)                      0
     ID1()                              8
     InputAlbumF()                     72
     InputAlbumF2()                    72
     InputAutorF()                     72
     InputAutorF2()                    72
     InputCommentF()                   72
     InputTitleF()                     72
     InputTitleF2()                    72
     InputYearF()                      72
     MGList()                          12
     Mp3Filter(wchar_t const *, wchar_t const *, wchar_t const *)
                                       12
     NewKey(DISP_OBJ *, int, int, int, int)
                                       24
     NewKey1(DISP_OBJ *, int, int, int, int)
                                       28
     NewKey2(DISP_OBJ *, int, int, int, int)
                                       28
     NoPress(BOOK *, GUI *)            12
     OnEntGM(BOOK *, GUI *)             8
     OnEntInputAlbum(BOOK *, wchar_t *, int)
                                       12
     OnEntInputAlbum2(BOOK *, wchar_t *, int)
                                       16
     OnEntInputAutor(BOOK *, wchar_t *, int)
                                       12
     OnEntInputAutor2(BOOK *, wchar_t *, int)
                                       16
     OnEntInputComment(BOOK *, wchar_t *, int)
                                       12
     OnEntInputTitle(BOOK *, wchar_t *, int)
                                       12
     OnEntInputTitle2(BOOK *, wchar_t *, int)
                                       16
     OnEntInputYear(BOOK *, wchar_t *, int)
                                       12
     OnEntMG(BOOK *, GUI *)            12
     OnEntML1(BOOK *, GUI *)            4
     OnEntML2(BOOK *, GUI *)            4
     PlayF(BOOK *, GUI *)              20
     PlayF1(BOOK *, GUI *)             20
     PlayF2(BOOK *, GUI *)             20
     SetTitleML1(GUI_MESSAGE *)        28
     SetTitleML2(GUI_MESSAGE *)        20
     SetTitlePunktsGM(GUI_MESSAGE *)
                                       20
     SetTitlePunktsMG(GUI_MESSAGE *)
                                       24
     ShowAuthorInfo(void *, BOOK *)    20
     ShowInfo()                        56
     TerminateElf(void *, BOOK *)       4
     YesNo()                           20
     YesPress(BOOK *, GUI *)           12
     elf_exit()                         4
     isDir(wchar_t const *, wchar_t const *)
                                      560
     main(wchar_t *, wchar_t *, wchar_t *, wchar_t *)
                                       32
     onAccept_DB(void *, BOOK *)       16
     onCancelDB(void *, BOOK *)         4
     onCloseCreateFileBook(BOOK *)      4
     onReconfigElf(void *, BOOK *)     12
     synchsafeToNormal(char *)          8
     unicode2win1251(char *, wchar_t *, int)
                                        4
     win12512unicode(wchar_t *, char *, int)
                                        0


   Segment part sizes:

     Function/Label                 Bytes
     --------------                 -----
     TagBook                           4
     TerminateElf(void *, BOOK *)     20
     ShowAuthorInfo(void *, BOOK *)   84
     elf_exit()                       28
     onCloseCreateFileBook(BOOK *)    48
     onReconfigElf(void *, BOOK *)    84
     synchsafeToNormal(char *)       116
     win12512unicode(wchar_t *, char *, int)
                                     152
     unicode2win1251(char *, wchar_t *, int)
                                     192
     GetGenre(int)                  1620
     FileWrite()                    1996
     DestroyInputBooks2()            100
     OnEntInputTitle2(BOOK *, wchar_t *, int)
                                     100
     OnEntInputAutor2(BOOK *, wchar_t *, int)
                                     100
     OnEntInputAlbum2(BOOK *, wchar_t *, int)
                                     100
     InputTitleF2()                  200
     InputAutorF2()                  200
     InputAlbumF2()                  200
     OnEntML2(BOOK *, GUI *)          68
     ExitML2(BOOK *, GUI *)           44
     SetTitleML2(GUI_MESSAGE *)      312
     PlayF2(BOOK *, GUI *)           204
     DeleteTag2(int)                 236
     ShowInfo()                      904
     CopyFromName2(int)              412
     CopyFromID3v1(int)              252
     NewKey2(DISP_OBJ *, int, int, int, int)
                                     260
     CreateML2(int)                  336
     ExitMG(BOOK *, GUI *)            44
     OnEntMG(BOOK *, GUI *)           80
     SetTitlePunktsMG(GUI_MESSAGE *)
                                     172
     MGList()                        224
     DestroyInputBooks()             156
     OnEntInputTitle(BOOK *, wchar_t *, int)
                                     120
     OnEntInputAutor(BOOK *, wchar_t *, int)
                                     120
     OnEntInputAlbum(BOOK *, wchar_t *, int)
                                     120
     OnEntInputYear(BOOK *, wchar_t *, int)
                                     120
     OnEntInputComment(BOOK *, wchar_t *, int)
                                     120
     InputTitleF()                   204
     InputAutorF()                   200
     InputAlbumF()                   200
     InputYearF()                    204
     InputCommentF()                 204
     OnEntML1(BOOK *, GUI *)         116
     ExitML1(BOOK *, GUI *)           44
     SetTitleML1(GUI_MESSAGE *)      632
     PlayF1(BOOK *, GUI *)           204
     DeleteTag1(int)                 292
     CopyFromName1(int)              288
     CopyFromID3v2(int)              296
     NewKey1(DISP_OBJ *, int, int, int, int)
                                     308
     CreateML1(int)                  336
     OnEntGM(BOOK *, GUI *)           96
     onAccept_DB(void *, BOOK *)     120
     onCancelDB(void *, BOOK *)       20
     isDir(wchar_t const *, wchar_t const *)
                                      80
     Mp3Filter(wchar_t const *, wchar_t const *, wchar_t const *)
                                      52
     CreateDB(void *, BOOK *)        228
     bk_msglst_db                     40
     YesPress(BOOK *, GUI *)          68
     NoPress(BOOK *, GUI *)           96
     ExitYN(BOOK *, GUI *)            44
     YesNo()                         264
     ExitGM(BOOK *, GUI *)            64
     SetTitlePunktsGM(GUI_MESSAGE *)
                                     324
     PlayF(BOOK *, GUI *)            204
     DeleteTag(int)                  304
     NewKey(DISP_OBJ *, int, int, int, int)
                                     248
     CreateGlavMenu(int)             336
     ID1()                           696
     CreateGui(void *, BOOK *)        20
     bk_msglst_work                   16
     FileRead(wchar_t *, wchar_t *) 2660
     bk_msglst_base                   32
     ?<Constant "TagEditor">          36
     ?<Constant L"\x421\x442\x43e\x43f">
                                      36
     main(wchar_t *, wchar_t *, wchar_t *, wchar_t *)
                                     344
     ??DataTable0                      4
     ??DataTable18                     4
     ??DataTable29                     4
     ??DataTable30                     4
     ??DataTable31                     4
     ??DataTable32                     4
     ??DataTable33                     4
     ??DataTable34                     4
     ??DataTable35                     4
     ??DataTable36                     4
     ??DataTable37                     4
     ??DataTable38                     4
     ??DataTable42                     4
     ??DataTable43                     4
     ??DataTable44                     4
     ??DataTable45                     4
     ??DataTable46                     4
     ??DataTable47                     4
     ??DataTable50                     4
     ??DataTable54                     4
     ??DataTable55                     4
     ??DataTable56                     4
     ??DataTable57                     4
     ??DataTable65                     4
     ??DataTable66                     4
     ??DataTable67                     4
     ??DataTable73                     4
     ??DataTable85                     4
     ??DataTable96                     4
     ??DataTable117                    4
     ??DataTable118                    4
     ??DataTable119                    4
     ??DataTable120                    4
     ??DataTable121                    4
     ??DataTable122                    4
     ??DataTable123                    4
     ??DataTable124                    4
     ??DataTable125                    4
     ??DataTable129                    4
     ??DataTable130                    4
     ??DataTable131                    4
     ??DataTable132                    4
     ??DataTable147                    4
     ??DataTable148                    4
     ??DataTable160                    4
     ??DataTable164                    4
     ??DataTable167                    4
     ??DataTable170                    4
     ??DataTable171                    4
     ??DataTable172                    4
     ??DataTable174                    4
     ??DataTable175                    4
     ??DataTable176                    4
     ??DataTable177                    4
     ??DataTable179                    4
     ??DataTable180                    4
     ?<Constant "R&B">                 4
     ?<Constant L"\x2a\x2e\x6d\x70\x33">
                                      40
     ?<Constant L"\x421\x43e\x445\x440\x430\x43d\x4
                                      52
     ?<Constant L"\x49\x44\x33\x76\x31">
                                      84
     ?<Constant L"\x420\x435\x434\x430\x43a\x442\x4
                                      32
     ?<Constant "TagEditor_openFile">
                                      20
     ?<Constant "TagEditor_base_work">
                                      20
     ?<Constant "TagEditor_base_main">
                                      20
     ?<Constant L"\x54\x61\x67\x45\x64\x69\x74\x6f\
                                      84
     ?<Constant "Blues">            1540
     ?<Constant "Pop">                 4
     ?<Constant "Rap">                 4
     ?<Constant "Ska">                 4
     ?<Constant "Goa">                 4
     ?<Constant " ">                   2
     ?<Constant L"\x20\x20">          88
     ?<Constant L"\x41d\x430\x437\x432\x430\x43d\x4
                                     236
     ?<Constant L"\x418\x441\x43f\x43e\x43b\x43d\x4_1
                                      28
     ?<Constant L"\x410\x43b\x44c\x431\x43e\x43c\x3_1
                                      16
     ?<Constant L"\x41d\x430\x437\x432\x430\x43d\x4_1
                                     104
     ?<Constant L"\xa">                4
     ?<Constant L"\x412\x44b\x431\x2e\x20\x436\x430
                                      20
     ?<Constant L"\x41d\x430\x437\x432\x430\x43d\x4_2
                                      20
     ?<Constant L"\x413\x43e\x434\x3a">
                                      12
     ?<Constant L"\x41a\x43e\x43c\x43c\x435\x43d\x4_2
                                      28
     ?<Constant L"\x2f">               4
      Others                         356

 
 20 008 bytes in segment CODE
  2 546 bytes in segment DATA_C
      4 bytes in segment DATA_Z
     88 bytes in segment DYN_PAGE
     12 bytes in segment INITTAB
 
 19 664 bytes of CODE  memory (+ 356 bytes shared)
  2 634 bytes of CONST memory
      4 bytes of DATA  memory

Errors: none
Warnings: none
